
5559fcc93eef38a1c22db66a3e0f9e9f026c99e741cc8b1a4980d166f2696188:     file format pei-x86-64


Disassembly of section .text:

0000000180001000 <.text>:
   180001000:	48 8b c4             	mov    %rsp,%rax
   180001003:	48 89 58 08          	mov    %rbx,0x8(%rax)
   180001007:	48 89 68 18          	mov    %rbp,0x18(%rax)
   18000100b:	48 89 70 20          	mov    %rsi,0x20(%rax)
   18000100f:	48 89 50 10          	mov    %rdx,0x10(%rax)
   180001013:	57                   	push   %rdi
   180001014:	41 54                	push   %r12
   180001016:	41 55                	push   %r13
   180001018:	41 56                	push   %r14
   18000101a:	41 57                	push   %r15
   18000101c:	48 83 ec 40          	sub    $0x40,%rsp
   180001020:	4d 8b 79 08          	mov    0x8(%r9),%r15
   180001024:	4d 8b 21             	mov    (%r9),%r12
   180001027:	49 8b 71 38          	mov    0x38(%r9),%rsi
   18000102b:	4d 2b e7             	sub    %r15,%r12
   18000102e:	f6 41 04 66          	testb  $0x66,0x4(%rcx)
   180001032:	4d 8b f1             	mov    %r9,%r14
   180001035:	48 8b ea             	mov    %rdx,%rbp
   180001038:	4c 8b e9             	mov    %rcx,%r13
   18000103b:	0f 85 dc 00 00 00    	jne    0x18000111d
   180001041:	33 ff                	xor    %edi,%edi
   180001043:	48 89 48 c8          	mov    %rcx,-0x38(%rax)
   180001047:	4c 89 40 d0          	mov    %r8,-0x30(%rax)
   18000104b:	39 3e                	cmp    %edi,(%rsi)
   18000104d:	0f 86 2b 01 00 00    	jbe    0x18000117e
   180001053:	48 8d 5e 0c          	lea    0xc(%rsi),%rbx
   180001057:	8b 43 f8             	mov    -0x8(%rbx),%eax
   18000105a:	4c 3b e0             	cmp    %rax,%r12
   18000105d:	0f 82 a7 00 00 00    	jb     0x18000110a
   180001063:	8b 43 fc             	mov    -0x4(%rbx),%eax
   180001066:	4c 3b e0             	cmp    %rax,%r12
   180001069:	0f 83 9b 00 00 00    	jae    0x18000110a
   18000106f:	83 7b 04 00          	cmpl   $0x0,0x4(%rbx)
   180001073:	0f 84 91 00 00 00    	je     0x18000110a
   180001079:	83 3b 01             	cmpl   $0x1,(%rbx)
   18000107c:	74 19                	je     0x180001097
   18000107e:	8b 03                	mov    (%rbx),%eax
   180001080:	48 8d 4c 24 30       	lea    0x30(%rsp),%rcx
   180001085:	48 8b d5             	mov    %rbp,%rdx
   180001088:	49 03 c7             	add    %r15,%rax
   18000108b:	ff d0                	callq  *%rax
   18000108d:	85 c0                	test   %eax,%eax
   18000108f:	0f 88 84 00 00 00    	js     0x180001119
   180001095:	7e 73                	jle    0x18000110a
   180001097:	41 81 7d 00 63 73 6d 	cmpl   $0xe06d7363,0x0(%r13)
   18000109e:	e0 
   18000109f:	75 28                	jne    0x1800010c9
   1800010a1:	48 83 3d 67 3f 00 00 	cmpq   $0x0,0x3f67(%rip)        # 0x180005010
   1800010a8:	00 
   1800010a9:	74 1e                	je     0x1800010c9
   1800010ab:	48 8d 0d 5e 3f 00 00 	lea    0x3f5e(%rip),%rcx        # 0x180005010
   1800010b2:	e8 79 01 00 00       	callq  0x180001230
   1800010b7:	85 c0                	test   %eax,%eax
   1800010b9:	74 0e                	je     0x1800010c9
   1800010bb:	ba 01 00 00 00       	mov    $0x1,%edx
   1800010c0:	49 8b cd             	mov    %r13,%rcx
   1800010c3:	ff 15 47 3f 00 00    	callq  *0x3f47(%rip)        # 0x180005010
   1800010c9:	8b 4b 04             	mov    0x4(%rbx),%ecx
   1800010cc:	41 b8 01 00 00 00    	mov    $0x1,%r8d
   1800010d2:	48 8b d5             	mov    %rbp,%rdx
   1800010d5:	49 03 cf             	add    %r15,%rcx
   1800010d8:	e8 13 01 00 00       	callq  0x1800011f0
   1800010dd:	49 8b 46 40          	mov    0x40(%r14),%rax
   1800010e1:	8b 53 04             	mov    0x4(%rbx),%edx
   1800010e4:	4d 63 4d 00          	movslq 0x0(%r13),%r9
   1800010e8:	48 89 44 24 28       	mov    %rax,0x28(%rsp)
   1800010ed:	49 8b 46 28          	mov    0x28(%r14),%rax
   1800010f1:	49 03 d7             	add    %r15,%rdx
   1800010f4:	4d 8b c5             	mov    %r13,%r8
   1800010f7:	48 8b cd             	mov    %rbp,%rcx
   1800010fa:	48 89 44 24 20       	mov    %rax,0x20(%rsp)
   1800010ff:	ff 15 0b 2f 00 00    	callq  *0x2f0b(%rip)        # 0x180004010
   180001105:	e8 16 01 00 00       	callq  0x180001220
   18000110a:	ff c7                	inc    %edi
   18000110c:	48 83 c3 10          	add    $0x10,%rbx
   180001110:	3b 3e                	cmp    (%rsi),%edi
   180001112:	73 6a                	jae    0x18000117e
   180001114:	e9 3e ff ff ff       	jmpq   0x180001057
   180001119:	33 c0                	xor    %eax,%eax
   18000111b:	eb 66                	jmp    0x180001183
   18000111d:	49 8b 79 20          	mov    0x20(%r9),%rdi
   180001121:	33 ed                	xor    %ebp,%ebp
   180001123:	49 2b ff             	sub    %r15,%rdi
   180001126:	39 2e                	cmp    %ebp,(%rsi)
   180001128:	76 54                	jbe    0x18000117e
   18000112a:	48 8d 5e 10          	lea    0x10(%rsi),%rbx
   18000112e:	8b 4b f4             	mov    -0xc(%rbx),%ecx
   180001131:	4c 3b e1             	cmp    %rcx,%r12
   180001134:	72 3e                	jb     0x180001174
   180001136:	8b 43 f8             	mov    -0x8(%rbx),%eax
   180001139:	4c 3b e0             	cmp    %rax,%r12
   18000113c:	73 36                	jae    0x180001174
   18000113e:	48 3b f9             	cmp    %rcx,%rdi
   180001141:	72 0c                	jb     0x18000114f
   180001143:	48 3b f8             	cmp    %rax,%rdi
   180001146:	73 07                	jae    0x18000114f
   180001148:	41 f6 45 04 20       	testb  $0x20,0x4(%r13)
   18000114d:	75 2f                	jne    0x18000117e
   18000114f:	83 3b 00             	cmpl   $0x0,(%rbx)
   180001152:	74 09                	je     0x18000115d
   180001154:	8b 03                	mov    (%rbx),%eax
   180001156:	48 3b f8             	cmp    %rax,%rdi
   180001159:	74 23                	je     0x18000117e
   18000115b:	eb 17                	jmp    0x180001174
   18000115d:	48 8b 54 24 78       	mov    0x78(%rsp),%rdx
   180001162:	49 03 c7             	add    %r15,%rax
   180001165:	b1 01                	mov    $0x1,%cl
   180001167:	49 89 06             	mov    %rax,(%r14)
   18000116a:	44 8b 43 fc          	mov    -0x4(%rbx),%r8d
   18000116e:	4d 03 c7             	add    %r15,%r8
   180001171:	41 ff d0             	callq  *%r8
   180001174:	ff c5                	inc    %ebp
   180001176:	48 83 c3 10          	add    $0x10,%rbx
   18000117a:	3b 2e                	cmp    (%rsi),%ebp
   18000117c:	72 b0                	jb     0x18000112e
   18000117e:	b8 01 00 00 00       	mov    $0x1,%eax
   180001183:	4c 8d 5c 24 40       	lea    0x40(%rsp),%r11
   180001188:	49 8b 5b 30          	mov    0x30(%r11),%rbx
   18000118c:	49 8b 6b 40          	mov    0x40(%r11),%rbp
   180001190:	49 8b 73 48          	mov    0x48(%r11),%rsi
   180001194:	49 8b e3             	mov    %r11,%rsp
   180001197:	41 5f                	pop    %r15
   180001199:	41 5e                	pop    %r14
   18000119b:	41 5d                	pop    %r13
   18000119d:	41 5c                	pop    %r12
   18000119f:	5f                   	pop    %rdi
   1800011a0:	c3                   	retq   
   1800011a1:	cc                   	int3   
   1800011a2:	cc                   	int3   
   1800011a3:	cc                   	int3   
   1800011a4:	cc                   	int3   
   1800011a5:	cc                   	int3   
   1800011a6:	cc                   	int3   
   1800011a7:	cc                   	int3   
   1800011a8:	cc                   	int3   
   1800011a9:	cc                   	int3   
   1800011aa:	cc                   	int3   
   1800011ab:	cc                   	int3   
   1800011ac:	cc                   	int3   
   1800011ad:	cc                   	int3   
   1800011ae:	cc                   	int3   
   1800011af:	cc                   	int3   
   1800011b0:	cc                   	int3   
   1800011b1:	cc                   	int3   
   1800011b2:	cc                   	int3   
   1800011b3:	cc                   	int3   
   1800011b4:	cc                   	int3   
   1800011b5:	cc                   	int3   
   1800011b6:	66 66 66 90          	data16 data16 xchg %ax,%ax
   1800011ba:	66 66 66 90          	data16 data16 xchg %ax,%ax
   1800011be:	66 90                	xchg   %ax,%ax
   1800011c0:	48 81 ec d8 04 00 00 	sub    $0x4d8,%rsp
   1800011c7:	4d 33 c0             	xor    %r8,%r8
   1800011ca:	4d 33 c9             	xor    %r9,%r9
   1800011cd:	48 89 64 24 20       	mov    %rsp,0x20(%rsp)
   1800011d2:	4c 89 44 24 28       	mov    %r8,0x28(%rsp)
   1800011d7:	e8 04 2d 00 00       	callq  0x180003ee0
   1800011dc:	48 81 c4 d8 04 00 00 	add    $0x4d8,%rsp
   1800011e3:	c3                   	retq   
   1800011e4:	cc                   	int3   
   1800011e5:	cc                   	int3   
   1800011e6:	cc                   	int3   
   1800011e7:	cc                   	int3   
   1800011e8:	cc                   	int3   
   1800011e9:	cc                   	int3   
   1800011ea:	66 66 90             	data16 xchg %ax,%ax
   1800011ed:	66 66 90             	data16 xchg %ax,%ax
   1800011f0:	48 89 4c 24 08       	mov    %rcx,0x8(%rsp)
   1800011f5:	48 89 54 24 18       	mov    %rdx,0x18(%rsp)
   1800011fa:	44 89 44 24 10       	mov    %r8d,0x10(%rsp)
   1800011ff:	49 c7 c1 20 05 93 19 	mov    $0x19930520,%r9
   180001206:	eb 08                	jmp    0x180001210
   180001208:	cc                   	int3   
   180001209:	cc                   	int3   
   18000120a:	cc                   	int3   
   18000120b:	cc                   	int3   
   18000120c:	cc                   	int3   
   18000120d:	cc                   	int3   
   18000120e:	66 90                	xchg   %ax,%ax
   180001210:	c3                   	retq   
   180001211:	cc                   	int3   
   180001212:	cc                   	int3   
   180001213:	cc                   	int3   
   180001214:	cc                   	int3   
   180001215:	cc                   	int3   
   180001216:	cc                   	int3   
   180001217:	66 66 66 90          	data16 data16 xchg %ax,%ax
   18000121b:	66 66 66 90          	data16 data16 xchg %ax,%ax
   18000121f:	90                   	nop
   180001220:	c3                   	retq   
   180001221:	cc                   	int3   
   180001222:	cc                   	int3   
   180001223:	cc                   	int3   
   180001224:	cc                   	int3   
   180001225:	cc                   	int3   
   180001226:	cc                   	int3   
   180001227:	cc                   	int3   
   180001228:	cc                   	int3   
   180001229:	cc                   	int3   
   18000122a:	cc                   	int3   
   18000122b:	cc                   	int3   
   18000122c:	cc                   	int3   
   18000122d:	cc                   	int3   
   18000122e:	cc                   	int3   
   18000122f:	cc                   	int3   
   180001230:	33 c0                	xor    %eax,%eax
   180001232:	c3                   	retq   
   180001233:	cc                   	int3   
   180001234:	89 4c 24 08          	mov    %ecx,0x8(%rsp)
   180001238:	48 83 ec 48          	sub    $0x48,%rsp
   18000123c:	48 c7 44 24 28 00 00 	movq   $0x0,0x28(%rsp)
   180001243:	00 00 
   180001245:	48 c7 44 24 20 00 00 	movq   $0x0,0x20(%rsp)
   18000124c:	00 00 
   18000124e:	4c 8d 4c 24 38       	lea    0x38(%rsp),%r9
   180001253:	45 33 c0             	xor    %r8d,%r8d
   180001256:	33 d2                	xor    %edx,%edx
   180001258:	48 c7 c1 02 00 00 80 	mov    $0xffffffff80000002,%rcx
   18000125f:	ff 15 9b 2d 00 00    	callq  *0x2d9b(%rip)        # 0x180004000
   180001265:	8b 4c 24 50          	mov    0x50(%rsp),%ecx
   180001269:	e8 e2 28 00 00       	callq  0x180003b50
   18000126e:	85 c0                	test   %eax,%eax
   180001270:	75 07                	jne    0x180001279
   180001272:	b8 43 06 00 00       	mov    $0x643,%eax
   180001277:	eb 59                	jmp    0x1800012d2
   180001279:	8b 4c 24 50          	mov    0x50(%rsp),%ecx
   18000127d:	e8 52 2c 00 00       	callq  0x180003ed4
   180001282:	89 44 24 34          	mov    %eax,0x34(%rsp)
   180001286:	83 7c 24 34 00       	cmpl   $0x0,0x34(%rsp)
   18000128b:	75 07                	jne    0x180001294
   18000128d:	b8 42 06 00 00       	mov    $0x642,%eax
   180001292:	eb 3e                	jmp    0x1800012d2
   180001294:	c7 44 24 30 00 00 00 	movl   $0x0,0x30(%rsp)
   18000129b:	00 
   18000129c:	eb 0a                	jmp    0x1800012a8
   18000129e:	8b 44 24 30          	mov    0x30(%rsp),%eax
   1800012a2:	ff c0                	inc    %eax
   1800012a4:	89 44 24 30          	mov    %eax,0x30(%rsp)
   1800012a8:	83 7c 24 30 0c       	cmpl   $0xc,0x30(%rsp)
   1800012ad:	7d 15                	jge    0x1800012c4
   1800012af:	8b 54 24 30          	mov    0x30(%rsp),%edx
   1800012b3:	8b 4c 24 34          	mov    0x34(%rsp),%ecx
   1800012b7:	e8 c4 29 00 00       	callq  0x180003c80
   1800012bc:	85 c0                	test   %eax,%eax
   1800012be:	75 02                	jne    0x1800012c2
   1800012c0:	eb 02                	jmp    0x1800012c4
   1800012c2:	eb da                	jmp    0x18000129e
   1800012c4:	8b 4c 24 34          	mov    0x34(%rsp),%ecx
   1800012c8:	e8 dd 2b 00 00       	callq  0x180003eaa
   1800012cd:	b8 42 06 00 00       	mov    $0x642,%eax
   1800012d2:	48 83 c4 48          	add    $0x48,%rsp
   1800012d6:	c3                   	retq   
   1800012d7:	cc                   	int3   
   1800012d8:	44 89 44 24 18       	mov    %r8d,0x18(%rsp)
   1800012dd:	89 54 24 10          	mov    %edx,0x10(%rsp)
   1800012e1:	48 89 4c 24 08       	mov    %rcx,0x8(%rsp)
   1800012e6:	b8 01 00 00 00       	mov    $0x1,%eax
   1800012eb:	c3                   	retq   
   1800012ec:	4c 89 4c 24 20       	mov    %r9,0x20(%rsp)
   1800012f1:	4c 89 44 24 18       	mov    %r8,0x18(%rsp)
   1800012f6:	89 54 24 10          	mov    %edx,0x10(%rsp)
   1800012fa:	48 89 4c 24 08       	mov    %rcx,0x8(%rsp)
   1800012ff:	48 83 ec 48          	sub    $0x48,%rsp
   180001303:	33 d2                	xor    %edx,%edx
   180001305:	48 8b 44 24 60       	mov    0x60(%rsp),%rax
   18000130a:	b9 10 00 00 00       	mov    $0x10,%ecx
   18000130f:	48 f7 f1             	div    %rcx
   180001312:	48 8b c2             	mov    %rdx,%rax
   180001315:	48 85 c0             	test   %rax,%rax
   180001318:	74 0a                	je     0x180001324
   18000131a:	b8 da ff ff ff       	mov    $0xffffffda,%eax
   18000131f:	e9 87 01 00 00       	jmpq   0x1800014ab
   180001324:	83 7c 24 58 00       	cmpl   $0x0,0x58(%rsp)
   180001329:	0f 85 ca 00 00 00    	jne    0x1800013f9
   18000132f:	48 83 7c 24 60 00    	cmpq   $0x0,0x60(%rsp)
   180001335:	0f 86 b9 00 00 00    	jbe    0x1800013f4
   18000133b:	41 b8 10 00 00 00    	mov    $0x10,%r8d
   180001341:	48 8b 54 24 70       	mov    0x70(%rsp),%rdx
   180001346:	48 8d 4c 24 28       	lea    0x28(%rsp),%rcx
   18000134b:	e8 c8 28 00 00       	callq  0x180003c18
   180001350:	4c 8b 4c 24 78       	mov    0x78(%rsp),%r9
   180001355:	4c 8b 44 24 70       	mov    0x70(%rsp),%r8
   18000135a:	8b 54 24 58          	mov    0x58(%rsp),%edx
   18000135e:	48 8b 4c 24 50       	mov    0x50(%rsp),%rcx
   180001363:	e8 48 01 00 00       	callq  0x1800014b0
   180001368:	c7 44 24 20 00 00 00 	movl   $0x0,0x20(%rsp)
   18000136f:	00 
   180001370:	eb 0a                	jmp    0x18000137c
   180001372:	8b 44 24 20          	mov    0x20(%rsp),%eax
   180001376:	ff c0                	inc    %eax
   180001378:	89 44 24 20          	mov    %eax,0x20(%rsp)
   18000137c:	83 7c 24 20 10       	cmpl   $0x10,0x20(%rsp)
   180001381:	7d 2d                	jge    0x1800013b0
   180001383:	48 63 44 24 20       	movslq 0x20(%rsp),%rax
   180001388:	48 8b 4c 24 78       	mov    0x78(%rsp),%rcx
   18000138d:	0f b6 04 01          	movzbl (%rcx,%rax,1),%eax
   180001391:	48 63 4c 24 20       	movslq 0x20(%rsp),%rcx
   180001396:	48 8b 54 24 68       	mov    0x68(%rsp),%rdx
   18000139b:	0f b6 0c 0a          	movzbl (%rdx,%rcx,1),%ecx
   18000139f:	33 c1                	xor    %ecx,%eax
   1800013a1:	48 63 4c 24 20       	movslq 0x20(%rsp),%rcx
   1800013a6:	48 8b 54 24 78       	mov    0x78(%rsp),%rdx
   1800013ab:	88 04 0a             	mov    %al,(%rdx,%rcx,1)
   1800013ae:	eb c2                	jmp    0x180001372
   1800013b0:	41 b8 10 00 00 00    	mov    $0x10,%r8d
   1800013b6:	48 8d 54 24 28       	lea    0x28(%rsp),%rdx
   1800013bb:	48 8b 4c 24 68       	mov    0x68(%rsp),%rcx
   1800013c0:	e8 53 28 00 00       	callq  0x180003c18
   1800013c5:	48 8b 44 24 70       	mov    0x70(%rsp),%rax
   1800013ca:	48 83 c0 10          	add    $0x10,%rax
   1800013ce:	48 89 44 24 70       	mov    %rax,0x70(%rsp)
   1800013d3:	48 8b 44 24 78       	mov    0x78(%rsp),%rax
   1800013d8:	48 83 c0 10          	add    $0x10,%rax
   1800013dc:	48 89 44 24 78       	mov    %rax,0x78(%rsp)
   1800013e1:	48 8b 44 24 60       	mov    0x60(%rsp),%rax
   1800013e6:	48 83 e8 10          	sub    $0x10,%rax
   1800013ea:	48 89 44 24 60       	mov    %rax,0x60(%rsp)
   1800013ef:	e9 3b ff ff ff       	jmpq   0x18000132f
   1800013f4:	e9 b0 00 00 00       	jmpq   0x1800014a9
   1800013f9:	48 83 7c 24 60 00    	cmpq   $0x0,0x60(%rsp)
   1800013ff:	0f 86 a4 00 00 00    	jbe    0x1800014a9
   180001405:	c7 44 24 20 00 00 00 	movl   $0x0,0x20(%rsp)
   18000140c:	00 
   18000140d:	eb 0a                	jmp    0x180001419
   18000140f:	8b 44 24 20          	mov    0x20(%rsp),%eax
   180001413:	ff c0                	inc    %eax
   180001415:	89 44 24 20          	mov    %eax,0x20(%rsp)
   180001419:	83 7c 24 20 10       	cmpl   $0x10,0x20(%rsp)
   18000141e:	7d 2d                	jge    0x18000144d
   180001420:	48 63 44 24 20       	movslq 0x20(%rsp),%rax
   180001425:	48 8b 4c 24 70       	mov    0x70(%rsp),%rcx
   18000142a:	0f b6 04 01          	movzbl (%rcx,%rax,1),%eax
   18000142e:	48 63 4c 24 20       	movslq 0x20(%rsp),%rcx
   180001433:	48 8b 54 24 68       	mov    0x68(%rsp),%rdx
   180001438:	0f b6 0c 0a          	movzbl (%rdx,%rcx,1),%ecx
   18000143c:	33 c1                	xor    %ecx,%eax
   18000143e:	48 63 4c 24 20       	movslq 0x20(%rsp),%rcx
   180001443:	48 8b 54 24 78       	mov    0x78(%rsp),%rdx
   180001448:	88 04 0a             	mov    %al,(%rdx,%rcx,1)
   18000144b:	eb c2                	jmp    0x18000140f
   18000144d:	4c 8b 4c 24 78       	mov    0x78(%rsp),%r9
   180001452:	4c 8b 44 24 78       	mov    0x78(%rsp),%r8
   180001457:	8b 54 24 58          	mov    0x58(%rsp),%edx
   18000145b:	48 8b 4c 24 50       	mov    0x50(%rsp),%rcx
   180001460:	e8 4b 00 00 00       	callq  0x1800014b0
   180001465:	41 b8 10 00 00 00    	mov    $0x10,%r8d
   18000146b:	48 8b 54 24 78       	mov    0x78(%rsp),%rdx
   180001470:	48 8b 4c 24 68       	mov    0x68(%rsp),%rcx
   180001475:	e8 9e 27 00 00       	callq  0x180003c18
   18000147a:	48 8b 44 24 70       	mov    0x70(%rsp),%rax
   18000147f:	48 83 c0 10          	add    $0x10,%rax
   180001483:	48 89 44 24 70       	mov    %rax,0x70(%rsp)
   180001488:	48 8b 44 24 78       	mov    0x78(%rsp),%rax
   18000148d:	48 83 c0 10          	add    $0x10,%rax
   180001491:	48 89 44 24 78       	mov    %rax,0x78(%rsp)
   180001496:	48 8b 44 24 60       	mov    0x60(%rsp),%rax
   18000149b:	48 83 e8 10          	sub    $0x10,%rax
   18000149f:	48 89 44 24 60       	mov    %rax,0x60(%rsp)
   1800014a4:	e9 50 ff ff ff       	jmpq   0x1800013f9
   1800014a9:	33 c0                	xor    %eax,%eax
   1800014ab:	48 83 c4 48          	add    $0x48,%rsp
   1800014af:	c3                   	retq   
   1800014b0:	4c 89 4c 24 20       	mov    %r9,0x20(%rsp)
   1800014b5:	4c 89 44 24 18       	mov    %r8,0x18(%rsp)
   1800014ba:	89 54 24 10          	mov    %edx,0x10(%rsp)
   1800014be:	48 89 4c 24 08       	mov    %rcx,0x8(%rsp)
   1800014c3:	48 83 ec 48          	sub    $0x48,%rsp
   1800014c7:	48 8b 44 24 50       	mov    0x50(%rsp),%rax
   1800014cc:	8b 00                	mov    (%rax),%eax
   1800014ce:	89 44 24 20          	mov    %eax,0x20(%rsp)
   1800014d2:	48 8b 44 24 50       	mov    0x50(%rsp),%rax
   1800014d7:	48 83 c0 04          	add    $0x4,%rax
   1800014db:	48 89 44 24 28       	mov    %rax,0x28(%rsp)
   1800014e0:	b8 01 00 00 00       	mov    $0x1,%eax
   1800014e5:	48 6b c0 00          	imul   $0x0,%rax,%rax
   1800014e9:	48 8b 4c 24 60       	mov    0x60(%rsp),%rcx
   1800014ee:	0f b6 04 01          	movzbl (%rcx,%rax,1),%eax
   1800014f2:	c1 e0 18             	shl    $0x18,%eax
   1800014f5:	b9 01 00 00 00       	mov    $0x1,%ecx
   1800014fa:	48 6b c9 01          	imul   $0x1,%rcx,%rcx
   1800014fe:	48 8b 54 24 60       	mov    0x60(%rsp),%rdx
   180001503:	0f b6 0c 0a          	movzbl (%rdx,%rcx,1),%ecx
   180001507:	c1 e1 10             	shl    $0x10,%ecx
   18000150a:	0b c1                	or     %ecx,%eax
   18000150c:	b9 01 00 00 00       	mov    $0x1,%ecx
   180001511:	48 6b c9 02          	imul   $0x2,%rcx,%rcx
   180001515:	48 8b 54 24 60       	mov    0x60(%rsp),%rdx
   18000151a:	0f b6 0c 0a          	movzbl (%rdx,%rcx,1),%ecx
   18000151e:	c1 e1 08             	shl    $0x8,%ecx
   180001521:	0b c1                	or     %ecx,%eax
   180001523:	b9 01 00 00 00       	mov    $0x1,%ecx
   180001528:	48 6b c9 03          	imul   $0x3,%rcx,%rcx
   18000152c:	48 8b 54 24 60       	mov    0x60(%rsp),%rdx
   180001531:	0f b6 0c 0a          	movzbl (%rdx,%rcx,1),%ecx
   180001535:	0b c1                	or     %ecx,%eax
   180001537:	b9 04 00 00 00       	mov    $0x4,%ecx
   18000153c:	48 6b c9 00          	imul   $0x0,%rcx,%rcx
   180001540:	89 44 0c 30          	mov    %eax,0x30(%rsp,%rcx,1)
   180001544:	b8 01 00 00 00       	mov    $0x1,%eax
   180001549:	48 6b c0 04          	imul   $0x4,%rax,%rax
   18000154d:	48 8b 4c 24 60       	mov    0x60(%rsp),%rcx
   180001552:	0f b6 04 01          	movzbl (%rcx,%rax,1),%eax
   180001556:	c1 e0 18             	shl    $0x18,%eax
   180001559:	b9 01 00 00 00       	mov    $0x1,%ecx
   18000155e:	48 6b c9 05          	imul   $0x5,%rcx,%rcx
   180001562:	48 8b 54 24 60       	mov    0x60(%rsp),%rdx
   180001567:	0f b6 0c 0a          	movzbl (%rdx,%rcx,1),%ecx
   18000156b:	c1 e1 10             	shl    $0x10,%ecx
   18000156e:	0b c1                	or     %ecx,%eax
   180001570:	b9 01 00 00 00       	mov    $0x1,%ecx
   180001575:	48 6b c9 06          	imul   $0x6,%rcx,%rcx
   180001579:	48 8b 54 24 60       	mov    0x60(%rsp),%rdx
   18000157e:	0f b6 0c 0a          	movzbl (%rdx,%rcx,1),%ecx
   180001582:	c1 e1 08             	shl    $0x8,%ecx
   180001585:	0b c1                	or     %ecx,%eax
   180001587:	b9 01 00 00 00       	mov    $0x1,%ecx
   18000158c:	48 6b c9 07          	imul   $0x7,%rcx,%rcx
   180001590:	48 8b 54 24 60       	mov    0x60(%rsp),%rdx
   180001595:	0f b6 0c 0a          	movzbl (%rdx,%rcx,1),%ecx
   180001599:	0b c1                	or     %ecx,%eax
   18000159b:	b9 04 00 00 00       	mov    $0x4,%ecx
   1800015a0:	48 6b c9 01          	imul   $0x1,%rcx,%rcx
   1800015a4:	89 44 0c 30          	mov    %eax,0x30(%rsp,%rcx,1)
   1800015a8:	b8 01 00 00 00       	mov    $0x1,%eax
   1800015ad:	48 6b c0 08          	imul   $0x8,%rax,%rax
   1800015b1:	48 8b 4c 24 60       	mov    0x60(%rsp),%rcx
   1800015b6:	0f b6 04 01          	movzbl (%rcx,%rax,1),%eax
   1800015ba:	c1 e0 18             	shl    $0x18,%eax
   1800015bd:	b9 01 00 00 00       	mov    $0x1,%ecx
   1800015c2:	48 6b c9 09          	imul   $0x9,%rcx,%rcx
   1800015c6:	48 8b 54 24 60       	mov    0x60(%rsp),%rdx
   1800015cb:	0f b6 0c 0a          	movzbl (%rdx,%rcx,1),%ecx
   1800015cf:	c1 e1 10             	shl    $0x10,%ecx
   1800015d2:	0b c1                	or     %ecx,%eax
   1800015d4:	b9 01 00 00 00       	mov    $0x1,%ecx
   1800015d9:	48 6b c9 0a          	imul   $0xa,%rcx,%rcx
   1800015dd:	48 8b 54 24 60       	mov    0x60(%rsp),%rdx
   1800015e2:	0f b6 0c 0a          	movzbl (%rdx,%rcx,1),%ecx
   1800015e6:	c1 e1 08             	shl    $0x8,%ecx
   1800015e9:	0b c1                	or     %ecx,%eax
   1800015eb:	b9 01 00 00 00       	mov    $0x1,%ecx
   1800015f0:	48 6b c9 0b          	imul   $0xb,%rcx,%rcx
   1800015f4:	48 8b 54 24 60       	mov    0x60(%rsp),%rdx
   1800015f9:	0f b6 0c 0a          	movzbl (%rdx,%rcx,1),%ecx
   1800015fd:	0b c1                	or     %ecx,%eax
   1800015ff:	b9 04 00 00 00       	mov    $0x4,%ecx
   180001604:	48 6b c9 02          	imul   $0x2,%rcx,%rcx
   180001608:	89 44 0c 30          	mov    %eax,0x30(%rsp,%rcx,1)
   18000160c:	b8 01 00 00 00       	mov    $0x1,%eax
   180001611:	48 6b c0 0c          	imul   $0xc,%rax,%rax
   180001615:	48 8b 4c 24 60       	mov    0x60(%rsp),%rcx
   18000161a:	0f b6 04 01          	movzbl (%rcx,%rax,1),%eax
   18000161e:	c1 e0 18             	shl    $0x18,%eax
   180001621:	b9 01 00 00 00       	mov    $0x1,%ecx
   180001626:	48 6b c9 0d          	imul   $0xd,%rcx,%rcx
   18000162a:	48 8b 54 24 60       	mov    0x60(%rsp),%rdx
   18000162f:	0f b6 0c 0a          	movzbl (%rdx,%rcx,1),%ecx
   180001633:	c1 e1 10             	shl    $0x10,%ecx
   180001636:	0b c1                	or     %ecx,%eax
   180001638:	b9 01 00 00 00       	mov    $0x1,%ecx
   18000163d:	48 6b c9 0e          	imul   $0xe,%rcx,%rcx
   180001641:	48 8b 54 24 60       	mov    0x60(%rsp),%rdx
   180001646:	0f b6 0c 0a          	movzbl (%rdx,%rcx,1),%ecx
   18000164a:	c1 e1 08             	shl    $0x8,%ecx
   18000164d:	0b c1                	or     %ecx,%eax
   18000164f:	b9 01 00 00 00       	mov    $0x1,%ecx
   180001654:	48 6b c9 0f          	imul   $0xf,%rcx,%rcx
   180001658:	48 8b 54 24 60       	mov    0x60(%rsp),%rdx
   18000165d:	0f b6 0c 0a          	movzbl (%rdx,%rcx,1),%ecx
   180001661:	0b c1                	or     %ecx,%eax
   180001663:	b9 04 00 00 00       	mov    $0x4,%ecx
   180001668:	48 6b c9 03          	imul   $0x3,%rcx,%rcx
   18000166c:	89 44 0c 30          	mov    %eax,0x30(%rsp,%rcx,1)
   180001670:	b8 04 00 00 00       	mov    $0x4,%eax
   180001675:	48 6b c0 00          	imul   $0x0,%rax,%rax
   180001679:	48 8b 4c 24 28       	mov    0x28(%rsp),%rcx
   18000167e:	8b 09                	mov    (%rcx),%ecx
   180001680:	8b 44 04 30          	mov    0x30(%rsp,%rax,1),%eax
   180001684:	33 c1                	xor    %ecx,%eax
   180001686:	b9 04 00 00 00       	mov    $0x4,%ecx
   18000168b:	48 6b c9 00          	imul   $0x0,%rcx,%rcx
   18000168f:	89 44 0c 30          	mov    %eax,0x30(%rsp,%rcx,1)
   180001693:	48 8b 44 24 28       	mov    0x28(%rsp),%rax
   180001698:	48 83 c0 04          	add    $0x4,%rax
   18000169c:	48 89 44 24 28       	mov    %rax,0x28(%rsp)
   1800016a1:	b8 04 00 00 00       	mov    $0x4,%eax
   1800016a6:	48 6b c0 01          	imul   $0x1,%rax,%rax
   1800016aa:	48 8b 4c 24 28       	mov    0x28(%rsp),%rcx
   1800016af:	8b 09                	mov    (%rcx),%ecx
   1800016b1:	8b 44 04 30          	mov    0x30(%rsp,%rax,1),%eax
   1800016b5:	33 c1                	xor    %ecx,%eax
   1800016b7:	b9 04 00 00 00       	mov    $0x4,%ecx
   1800016bc:	48 6b c9 01          	imul   $0x1,%rcx,%rcx
   1800016c0:	89 44 0c 30          	mov    %eax,0x30(%rsp,%rcx,1)
   1800016c4:	48 8b 44 24 28       	mov    0x28(%rsp),%rax
   1800016c9:	48 83 c0 04          	add    $0x4,%rax
   1800016cd:	48 89 44 24 28       	mov    %rax,0x28(%rsp)
   1800016d2:	b8 04 00 00 00       	mov    $0x4,%eax
   1800016d7:	48 6b c0 02          	imul   $0x2,%rax,%rax
   1800016db:	48 8b 4c 24 28       	mov    0x28(%rsp),%rcx
   1800016e0:	8b 09                	mov    (%rcx),%ecx
   1800016e2:	8b 44 04 30          	mov    0x30(%rsp,%rax,1),%eax
   1800016e6:	33 c1                	xor    %ecx,%eax
   1800016e8:	b9 04 00 00 00       	mov    $0x4,%ecx
   1800016ed:	48 6b c9 02          	imul   $0x2,%rcx,%rcx
   1800016f1:	89 44 0c 30          	mov    %eax,0x30(%rsp,%rcx,1)
   1800016f5:	48 8b 44 24 28       	mov    0x28(%rsp),%rax
   1800016fa:	48 83 c0 04          	add    $0x4,%rax
   1800016fe:	48 89 44 24 28       	mov    %rax,0x28(%rsp)
   180001703:	b8 04 00 00 00       	mov    $0x4,%eax
   180001708:	48 6b c0 03          	imul   $0x3,%rax,%rax
   18000170c:	48 8b 4c 24 28       	mov    0x28(%rsp),%rcx
   180001711:	8b 09                	mov    (%rcx),%ecx
   180001713:	8b 44 04 30          	mov    0x30(%rsp,%rax,1),%eax
   180001717:	33 c1                	xor    %ecx,%eax
   180001719:	b9 04 00 00 00       	mov    $0x4,%ecx
   18000171e:	48 6b c9 03          	imul   $0x3,%rcx,%rcx
   180001722:	89 44 0c 30          	mov    %eax,0x30(%rsp,%rcx,1)
   180001726:	48 8b 44 24 28       	mov    0x28(%rsp),%rax
   18000172b:	48 83 c0 04          	add    $0x4,%rax
   18000172f:	48 89 44 24 28       	mov    %rax,0x28(%rsp)
   180001734:	83 7c 24 20 00       	cmpl   $0x0,0x20(%rsp)
   180001739:	0f 84 4c 02 00 00    	je     0x18000198b
   18000173f:	8b 44 24 20          	mov    0x20(%rsp),%eax
   180001743:	ff c8                	dec    %eax
   180001745:	89 44 24 20          	mov    %eax,0x20(%rsp)
   180001749:	48 8d 44 24 38       	lea    0x38(%rsp),%rax
   18000174e:	4c 8b c0             	mov    %rax,%r8
   180001751:	48 8b 54 24 28       	mov    0x28(%rsp),%rdx
   180001756:	48 8d 4c 24 30       	lea    0x30(%rsp),%rcx
   18000175b:	e8 fc 04 00 00       	callq  0x180001c5c
   180001760:	48 8b 44 24 28       	mov    0x28(%rsp),%rax
   180001765:	48 83 c0 08          	add    $0x8,%rax
   180001769:	48 89 44 24 28       	mov    %rax,0x28(%rsp)
   18000176e:	48 8d 44 24 38       	lea    0x38(%rsp),%rax
   180001773:	4c 8d 44 24 30       	lea    0x30(%rsp),%r8
   180001778:	48 8b 54 24 28       	mov    0x28(%rsp),%rdx
   18000177d:	48 8b c8             	mov    %rax,%rcx
   180001780:	e8 d7 04 00 00       	callq  0x180001c5c
   180001785:	48 8b 44 24 28       	mov    0x28(%rsp),%rax
   18000178a:	48 83 c0 08          	add    $0x8,%rax
   18000178e:	48 89 44 24 28       	mov    %rax,0x28(%rsp)
   180001793:	48 8d 44 24 38       	lea    0x38(%rsp),%rax
   180001798:	4c 8b c0             	mov    %rax,%r8
   18000179b:	48 8b 54 24 28       	mov    0x28(%rsp),%rdx
   1800017a0:	48 8d 4c 24 30       	lea    0x30(%rsp),%rcx
   1800017a5:	e8 b2 04 00 00       	callq  0x180001c5c
   1800017aa:	48 8b 44 24 28       	mov    0x28(%rsp),%rax
   1800017af:	48 83 c0 08          	add    $0x8,%rax
   1800017b3:	48 89 44 24 28       	mov    %rax,0x28(%rsp)
   1800017b8:	48 8d 44 24 38       	lea    0x38(%rsp),%rax
   1800017bd:	4c 8d 44 24 30       	lea    0x30(%rsp),%r8
   1800017c2:	48 8b 54 24 28       	mov    0x28(%rsp),%rdx
   1800017c7:	48 8b c8             	mov    %rax,%rcx
   1800017ca:	e8 8d 04 00 00       	callq  0x180001c5c
   1800017cf:	48 8b 44 24 28       	mov    0x28(%rsp),%rax
   1800017d4:	48 83 c0 08          	add    $0x8,%rax
   1800017d8:	48 89 44 24 28       	mov    %rax,0x28(%rsp)
   1800017dd:	48 8d 44 24 38       	lea    0x38(%rsp),%rax
   1800017e2:	4c 8b c0             	mov    %rax,%r8
   1800017e5:	48 8b 54 24 28       	mov    0x28(%rsp),%rdx
   1800017ea:	48 8d 4c 24 30       	lea    0x30(%rsp),%rcx
   1800017ef:	e8 68 04 00 00       	callq  0x180001c5c
   1800017f4:	48 8b 44 24 28       	mov    0x28(%rsp),%rax
   1800017f9:	48 83 c0 08          	add    $0x8,%rax
   1800017fd:	48 89 44 24 28       	mov    %rax,0x28(%rsp)
   180001802:	48 8d 44 24 38       	lea    0x38(%rsp),%rax
   180001807:	4c 8d 44 24 30       	lea    0x30(%rsp),%r8
   18000180c:	48 8b 54 24 28       	mov    0x28(%rsp),%rdx
   180001811:	48 8b c8             	mov    %rax,%rcx
   180001814:	e8 43 04 00 00       	callq  0x180001c5c
   180001819:	48 8b 44 24 28       	mov    0x28(%rsp),%rax
   18000181e:	48 83 c0 08          	add    $0x8,%rax
   180001822:	48 89 44 24 28       	mov    %rax,0x28(%rsp)
   180001827:	83 7c 24 20 00       	cmpl   $0x0,0x20(%rsp)
   18000182c:	0f 84 54 01 00 00    	je     0x180001986
   180001832:	b8 04 00 00 00       	mov    $0x4,%eax
   180001837:	48 6b c0 00          	imul   $0x0,%rax,%rax
   18000183b:	b9 04 00 00 00       	mov    $0x4,%ecx
   180001840:	48 6b c9 00          	imul   $0x0,%rcx,%rcx
   180001844:	48 8b 54 24 28       	mov    0x28(%rsp),%rdx
   180001849:	8b 0c 0a             	mov    (%rdx,%rcx,1),%ecx
   18000184c:	8b 44 04 30          	mov    0x30(%rsp,%rax,1),%eax
   180001850:	23 c1                	and    %ecx,%eax
   180001852:	d1 e0                	shl    %eax
   180001854:	b9 04 00 00 00       	mov    $0x4,%ecx
   180001859:	48 6b c9 00          	imul   $0x0,%rcx,%rcx
   18000185d:	ba 04 00 00 00       	mov    $0x4,%edx
   180001862:	48 6b d2 00          	imul   $0x0,%rdx,%rdx
   180001866:	4c 8b 44 24 28       	mov    0x28(%rsp),%r8
   18000186b:	41 8b 14 10          	mov    (%r8,%rdx,1),%edx
   18000186f:	8b 4c 0c 30          	mov    0x30(%rsp,%rcx,1),%ecx
   180001873:	23 ca                	and    %edx,%ecx
   180001875:	c1 e9 1f             	shr    $0x1f,%ecx
   180001878:	0b c1                	or     %ecx,%eax
   18000187a:	b9 04 00 00 00       	mov    $0x4,%ecx
   18000187f:	48 6b c9 01          	imul   $0x1,%rcx,%rcx
   180001883:	33 44 0c 30          	xor    0x30(%rsp,%rcx,1),%eax
   180001887:	b9 04 00 00 00       	mov    $0x4,%ecx
   18000188c:	48 6b c9 01          	imul   $0x1,%rcx,%rcx
   180001890:	89 44 0c 30          	mov    %eax,0x30(%rsp,%rcx,1)
   180001894:	b8 04 00 00 00       	mov    $0x4,%eax
   180001899:	48 6b c0 01          	imul   $0x1,%rax,%rax
   18000189d:	b9 04 00 00 00       	mov    $0x4,%ecx
   1800018a2:	48 6b c9 01          	imul   $0x1,%rcx,%rcx
   1800018a6:	48 8b 54 24 28       	mov    0x28(%rsp),%rdx
   1800018ab:	8b 0c 0a             	mov    (%rdx,%rcx,1),%ecx
   1800018ae:	8b 44 04 30          	mov    0x30(%rsp,%rax,1),%eax
   1800018b2:	0b c1                	or     %ecx,%eax
   1800018b4:	b9 04 00 00 00       	mov    $0x4,%ecx
   1800018b9:	48 6b c9 00          	imul   $0x0,%rcx,%rcx
   1800018bd:	33 44 0c 30          	xor    0x30(%rsp,%rcx,1),%eax
   1800018c1:	b9 04 00 00 00       	mov    $0x4,%ecx
   1800018c6:	48 6b c9 00          	imul   $0x0,%rcx,%rcx
   1800018ca:	89 44 0c 30          	mov    %eax,0x30(%rsp,%rcx,1)
   1800018ce:	48 8b 44 24 28       	mov    0x28(%rsp),%rax
   1800018d3:	48 83 c0 08          	add    $0x8,%rax
   1800018d7:	48 89 44 24 28       	mov    %rax,0x28(%rsp)
   1800018dc:	b8 04 00 00 00       	mov    $0x4,%eax
   1800018e1:	48 6b c0 03          	imul   $0x3,%rax,%rax
   1800018e5:	b9 04 00 00 00       	mov    $0x4,%ecx
   1800018ea:	48 6b c9 01          	imul   $0x1,%rcx,%rcx
   1800018ee:	48 8b 54 24 28       	mov    0x28(%rsp),%rdx
   1800018f3:	8b 0c 0a             	mov    (%rdx,%rcx,1),%ecx
   1800018f6:	8b 44 04 30          	mov    0x30(%rsp,%rax,1),%eax
   1800018fa:	0b c1                	or     %ecx,%eax
   1800018fc:	b9 04 00 00 00       	mov    $0x4,%ecx
   180001901:	48 6b c9 02          	imul   $0x2,%rcx,%rcx
   180001905:	33 44 0c 30          	xor    0x30(%rsp,%rcx,1),%eax
   180001909:	b9 04 00 00 00       	mov    $0x4,%ecx
   18000190e:	48 6b c9 02          	imul   $0x2,%rcx,%rcx
   180001912:	89 44 0c 30          	mov    %eax,0x30(%rsp,%rcx,1)
   180001916:	b8 04 00 00 00       	mov    $0x4,%eax
   18000191b:	48 6b c0 02          	imul   $0x2,%rax,%rax
   18000191f:	b9 04 00 00 00       	mov    $0x4,%ecx
   180001924:	48 6b c9 00          	imul   $0x0,%rcx,%rcx
   180001928:	48 8b 54 24 28       	mov    0x28(%rsp),%rdx
   18000192d:	8b 0c 0a             	mov    (%rdx,%rcx,1),%ecx
   180001930:	8b 44 04 30          	mov    0x30(%rsp,%rax,1),%eax
   180001934:	23 c1                	and    %ecx,%eax
   180001936:	d1 e0                	shl    %eax
   180001938:	b9 04 00 00 00       	mov    $0x4,%ecx
   18000193d:	48 6b c9 02          	imul   $0x2,%rcx,%rcx
   180001941:	ba 04 00 00 00       	mov    $0x4,%edx
   180001946:	48 6b d2 00          	imul   $0x0,%rdx,%rdx
   18000194a:	4c 8b 44 24 28       	mov    0x28(%rsp),%r8
   18000194f:	41 8b 14 10          	mov    (%r8,%rdx,1),%edx
   180001953:	8b 4c 0c 30          	mov    0x30(%rsp,%rcx,1),%ecx
   180001957:	23 ca                	and    %edx,%ecx
   180001959:	c1 e9 1f             	shr    $0x1f,%ecx
   18000195c:	0b c1                	or     %ecx,%eax
   18000195e:	b9 04 00 00 00       	mov    $0x4,%ecx
   180001963:	48 6b c9 03          	imul   $0x3,%rcx,%rcx
   180001967:	33 44 0c 30          	xor    0x30(%rsp,%rcx,1),%eax
   18000196b:	b9 04 00 00 00       	mov    $0x4,%ecx
   180001970:	48 6b c9 03          	imul   $0x3,%rcx,%rcx
   180001974:	89 44 0c 30          	mov    %eax,0x30(%rsp,%rcx,1)
   180001978:	48 8b 44 24 28       	mov    0x28(%rsp),%rax
   18000197d:	48 83 c0 08          	add    $0x8,%rax
   180001981:	48 89 44 24 28       	mov    %rax,0x28(%rsp)
   180001986:	e9 a9 fd ff ff       	jmpq   0x180001734
   18000198b:	b8 04 00 00 00       	mov    $0x4,%eax
   180001990:	48 6b c0 02          	imul   $0x2,%rax,%rax
   180001994:	48 8b 4c 24 28       	mov    0x28(%rsp),%rcx
   180001999:	8b 09                	mov    (%rcx),%ecx
   18000199b:	8b 44 04 30          	mov    0x30(%rsp,%rax,1),%eax
   18000199f:	33 c1                	xor    %ecx,%eax
   1800019a1:	b9 04 00 00 00       	mov    $0x4,%ecx
   1800019a6:	48 6b c9 02          	imul   $0x2,%rcx,%rcx
   1800019aa:	89 44 0c 30          	mov    %eax,0x30(%rsp,%rcx,1)
   1800019ae:	48 8b 44 24 28       	mov    0x28(%rsp),%rax
   1800019b3:	48 83 c0 04          	add    $0x4,%rax
   1800019b7:	48 89 44 24 28       	mov    %rax,0x28(%rsp)
   1800019bc:	b8 04 00 00 00       	mov    $0x4,%eax
   1800019c1:	48 6b c0 03          	imul   $0x3,%rax,%rax
   1800019c5:	48 8b 4c 24 28       	mov    0x28(%rsp),%rcx
   1800019ca:	8b 09                	mov    (%rcx),%ecx
   1800019cc:	8b 44 04 30          	mov    0x30(%rsp,%rax,1),%eax
   1800019d0:	33 c1                	xor    %ecx,%eax
   1800019d2:	b9 04 00 00 00       	mov    $0x4,%ecx
   1800019d7:	48 6b c9 03          	imul   $0x3,%rcx,%rcx
   1800019db:	89 44 0c 30          	mov    %eax,0x30(%rsp,%rcx,1)
   1800019df:	48 8b 44 24 28       	mov    0x28(%rsp),%rax
   1800019e4:	48 83 c0 04          	add    $0x4,%rax
   1800019e8:	48 89 44 24 28       	mov    %rax,0x28(%rsp)
   1800019ed:	b8 04 00 00 00       	mov    $0x4,%eax
   1800019f2:	48 6b c0 00          	imul   $0x0,%rax,%rax
   1800019f6:	48 8b 4c 24 28       	mov    0x28(%rsp),%rcx
   1800019fb:	8b 09                	mov    (%rcx),%ecx
   1800019fd:	8b 44 04 30          	mov    0x30(%rsp,%rax,1),%eax
   180001a01:	33 c1                	xor    %ecx,%eax
   180001a03:	b9 04 00 00 00       	mov    $0x4,%ecx
   180001a08:	48 6b c9 00          	imul   $0x0,%rcx,%rcx
   180001a0c:	89 44 0c 30          	mov    %eax,0x30(%rsp,%rcx,1)
   180001a10:	48 8b 44 24 28       	mov    0x28(%rsp),%rax
   180001a15:	48 83 c0 04          	add    $0x4,%rax
   180001a19:	48 89 44 24 28       	mov    %rax,0x28(%rsp)
   180001a1e:	b8 04 00 00 00       	mov    $0x4,%eax
   180001a23:	48 6b c0 01          	imul   $0x1,%rax,%rax
   180001a27:	48 8b 4c 24 28       	mov    0x28(%rsp),%rcx
   180001a2c:	8b 09                	mov    (%rcx),%ecx
   180001a2e:	8b 44 04 30          	mov    0x30(%rsp,%rax,1),%eax
   180001a32:	33 c1                	xor    %ecx,%eax
   180001a34:	b9 04 00 00 00       	mov    $0x4,%ecx
   180001a39:	48 6b c9 01          	imul   $0x1,%rcx,%rcx
   180001a3d:	89 44 0c 30          	mov    %eax,0x30(%rsp,%rcx,1)
   180001a41:	48 8b 44 24 28       	mov    0x28(%rsp),%rax
   180001a46:	48 83 c0 04          	add    $0x4,%rax
   180001a4a:	48 89 44 24 28       	mov    %rax,0x28(%rsp)
   180001a4f:	b8 04 00 00 00       	mov    $0x4,%eax
   180001a54:	48 6b c0 02          	imul   $0x2,%rax,%rax
   180001a58:	8b 44 04 30          	mov    0x30(%rsp,%rax,1),%eax
   180001a5c:	c1 e8 18             	shr    $0x18,%eax
   180001a5f:	b9 01 00 00 00       	mov    $0x1,%ecx
   180001a64:	48 6b c9 00          	imul   $0x0,%rcx,%rcx
   180001a68:	48 8b 54 24 68       	mov    0x68(%rsp),%rdx
   180001a6d:	88 04 0a             	mov    %al,(%rdx,%rcx,1)
   180001a70:	b8 04 00 00 00       	mov    $0x4,%eax
   180001a75:	48 6b c0 02          	imul   $0x2,%rax,%rax
   180001a79:	8b 44 04 30          	mov    0x30(%rsp,%rax,1),%eax
   180001a7d:	c1 e8 10             	shr    $0x10,%eax
   180001a80:	b9 01 00 00 00       	mov    $0x1,%ecx
   180001a85:	48 6b c9 01          	imul   $0x1,%rcx,%rcx
   180001a89:	48 8b 54 24 68       	mov    0x68(%rsp),%rdx
   180001a8e:	88 04 0a             	mov    %al,(%rdx,%rcx,1)
   180001a91:	b8 04 00 00 00       	mov    $0x4,%eax
   180001a96:	48 6b c0 02          	imul   $0x2,%rax,%rax
   180001a9a:	8b 44 04 30          	mov    0x30(%rsp,%rax,1),%eax
   180001a9e:	c1 e8 08             	shr    $0x8,%eax
   180001aa1:	b9 01 00 00 00       	mov    $0x1,%ecx
   180001aa6:	48 6b c9 02          	imul   $0x2,%rcx,%rcx
   180001aaa:	48 8b 54 24 68       	mov    0x68(%rsp),%rdx
   180001aaf:	88 04 0a             	mov    %al,(%rdx,%rcx,1)
   180001ab2:	b8 04 00 00 00       	mov    $0x4,%eax
   180001ab7:	48 6b c0 02          	imul   $0x2,%rax,%rax
   180001abb:	b9 01 00 00 00       	mov    $0x1,%ecx
   180001ac0:	48 6b c9 03          	imul   $0x3,%rcx,%rcx
   180001ac4:	48 8b 54 24 68       	mov    0x68(%rsp),%rdx
   180001ac9:	8a 44 04 30          	mov    0x30(%rsp,%rax,1),%al
   180001acd:	88 04 0a             	mov    %al,(%rdx,%rcx,1)
   180001ad0:	b8 04 00 00 00       	mov    $0x4,%eax
   180001ad5:	48 6b c0 03          	imul   $0x3,%rax,%rax
   180001ad9:	8b 44 04 30          	mov    0x30(%rsp,%rax,1),%eax
   180001add:	c1 e8 18             	shr    $0x18,%eax
   180001ae0:	b9 01 00 00 00       	mov    $0x1,%ecx
   180001ae5:	48 6b c9 04          	imul   $0x4,%rcx,%rcx
   180001ae9:	48 8b 54 24 68       	mov    0x68(%rsp),%rdx
   180001aee:	88 04 0a             	mov    %al,(%rdx,%rcx,1)
   180001af1:	b8 04 00 00 00       	mov    $0x4,%eax
   180001af6:	48 6b c0 03          	imul   $0x3,%rax,%rax
   180001afa:	8b 44 04 30          	mov    0x30(%rsp,%rax,1),%eax
   180001afe:	c1 e8 10             	shr    $0x10,%eax
   180001b01:	b9 01 00 00 00       	mov    $0x1,%ecx
   180001b06:	48 6b c9 05          	imul   $0x5,%rcx,%rcx
   180001b0a:	48 8b 54 24 68       	mov    0x68(%rsp),%rdx
   180001b0f:	88 04 0a             	mov    %al,(%rdx,%rcx,1)
   180001b12:	b8 04 00 00 00       	mov    $0x4,%eax
   180001b17:	48 6b c0 03          	imul   $0x3,%rax,%rax
   180001b1b:	8b 44 04 30          	mov    0x30(%rsp,%rax,1),%eax
   180001b1f:	c1 e8 08             	shr    $0x8,%eax
   180001b22:	b9 01 00 00 00       	mov    $0x1,%ecx
   180001b27:	48 6b c9 06          	imul   $0x6,%rcx,%rcx
   180001b2b:	48 8b 54 24 68       	mov    0x68(%rsp),%rdx
   180001b30:	88 04 0a             	mov    %al,(%rdx,%rcx,1)
   180001b33:	b8 04 00 00 00       	mov    $0x4,%eax
   180001b38:	48 6b c0 03          	imul   $0x3,%rax,%rax
   180001b3c:	b9 01 00 00 00       	mov    $0x1,%ecx
   180001b41:	48 6b c9 07          	imul   $0x7,%rcx,%rcx
   180001b45:	48 8b 54 24 68       	mov    0x68(%rsp),%rdx
   180001b4a:	8a 44 04 30          	mov    0x30(%rsp,%rax,1),%al
   180001b4e:	88 04 0a             	mov    %al,(%rdx,%rcx,1)
   180001b51:	b8 04 00 00 00       	mov    $0x4,%eax
   180001b56:	48 6b c0 00          	imul   $0x0,%rax,%rax
   180001b5a:	8b 44 04 30          	mov    0x30(%rsp,%rax,1),%eax
   180001b5e:	c1 e8 18             	shr    $0x18,%eax
   180001b61:	b9 01 00 00 00       	mov    $0x1,%ecx
   180001b66:	48 6b c9 08          	imul   $0x8,%rcx,%rcx
   180001b6a:	48 8b 54 24 68       	mov    0x68(%rsp),%rdx
   180001b6f:	88 04 0a             	mov    %al,(%rdx,%rcx,1)
   180001b72:	b8 04 00 00 00       	mov    $0x4,%eax
   180001b77:	48 6b c0 00          	imul   $0x0,%rax,%rax
   180001b7b:	8b 44 04 30          	mov    0x30(%rsp,%rax,1),%eax
   180001b7f:	c1 e8 10             	shr    $0x10,%eax
   180001b82:	b9 01 00 00 00       	mov    $0x1,%ecx
   180001b87:	48 6b c9 09          	imul   $0x9,%rcx,%rcx
   180001b8b:	48 8b 54 24 68       	mov    0x68(%rsp),%rdx
   180001b90:	88 04 0a             	mov    %al,(%rdx,%rcx,1)
   180001b93:	b8 04 00 00 00       	mov    $0x4,%eax
   180001b98:	48 6b c0 00          	imul   $0x0,%rax,%rax
   180001b9c:	8b 44 04 30          	mov    0x30(%rsp,%rax,1),%eax
   180001ba0:	c1 e8 08             	shr    $0x8,%eax
   180001ba3:	b9 01 00 00 00       	mov    $0x1,%ecx
   180001ba8:	48 6b c9 0a          	imul   $0xa,%rcx,%rcx
   180001bac:	48 8b 54 24 68       	mov    0x68(%rsp),%rdx
   180001bb1:	88 04 0a             	mov    %al,(%rdx,%rcx,1)
   180001bb4:	b8 04 00 00 00       	mov    $0x4,%eax
   180001bb9:	48 6b c0 00          	imul   $0x0,%rax,%rax
   180001bbd:	b9 01 00 00 00       	mov    $0x1,%ecx
   180001bc2:	48 6b c9 0b          	imul   $0xb,%rcx,%rcx
   180001bc6:	48 8b 54 24 68       	mov    0x68(%rsp),%rdx
   180001bcb:	8a 44 04 30          	mov    0x30(%rsp,%rax,1),%al
   180001bcf:	88 04 0a             	mov    %al,(%rdx,%rcx,1)
   180001bd2:	b8 04 00 00 00       	mov    $0x4,%eax
   180001bd7:	48 6b c0 01          	imul   $0x1,%rax,%rax
   180001bdb:	8b 44 04 30          	mov    0x30(%rsp,%rax,1),%eax
   180001bdf:	c1 e8 18             	shr    $0x18,%eax
   180001be2:	b9 01 00 00 00       	mov    $0x1,%ecx
   180001be7:	48 6b c9 0c          	imul   $0xc,%rcx,%rcx
   180001beb:	48 8b 54 24 68       	mov    0x68(%rsp),%rdx
   180001bf0:	88 04 0a             	mov    %al,(%rdx,%rcx,1)
   180001bf3:	b8 04 00 00 00       	mov    $0x4,%eax
   180001bf8:	48 6b c0 01          	imul   $0x1,%rax,%rax
   180001bfc:	8b 44 04 30          	mov    0x30(%rsp,%rax,1),%eax
   180001c00:	c1 e8 10             	shr    $0x10,%eax
   180001c03:	b9 01 00 00 00       	mov    $0x1,%ecx
   180001c08:	48 6b c9 0d          	imul   $0xd,%rcx,%rcx
   180001c0c:	48 8b 54 24 68       	mov    0x68(%rsp),%rdx
   180001c11:	88 04 0a             	mov    %al,(%rdx,%rcx,1)
   180001c14:	b8 04 00 00 00       	mov    $0x4,%eax
   180001c19:	48 6b c0 01          	imul   $0x1,%rax,%rax
   180001c1d:	8b 44 04 30          	mov    0x30(%rsp,%rax,1),%eax
   180001c21:	c1 e8 08             	shr    $0x8,%eax
   180001c24:	b9 01 00 00 00       	mov    $0x1,%ecx
   180001c29:	48 6b c9 0e          	imul   $0xe,%rcx,%rcx
   180001c2d:	48 8b 54 24 68       	mov    0x68(%rsp),%rdx
   180001c32:	88 04 0a             	mov    %al,(%rdx,%rcx,1)
   180001c35:	b8 04 00 00 00       	mov    $0x4,%eax
   180001c3a:	48 6b c0 01          	imul   $0x1,%rax,%rax
   180001c3e:	b9 01 00 00 00       	mov    $0x1,%ecx
   180001c43:	48 6b c9 0f          	imul   $0xf,%rcx,%rcx
   180001c47:	48 8b 54 24 68       	mov    0x68(%rsp),%rdx
   180001c4c:	8a 44 04 30          	mov    0x30(%rsp,%rax,1),%al
   180001c50:	88 04 0a             	mov    %al,(%rdx,%rcx,1)
   180001c53:	33 c0                	xor    %eax,%eax
   180001c55:	48 83 c4 48          	add    $0x48,%rsp
   180001c59:	c3                   	retq   
   180001c5a:	cc                   	int3   
   180001c5b:	cc                   	int3   
   180001c5c:	4c 89 44 24 18       	mov    %r8,0x18(%rsp)
   180001c61:	48 89 54 24 10       	mov    %rdx,0x10(%rsp)
   180001c66:	48 89 4c 24 08       	mov    %rcx,0x8(%rsp)
   180001c6b:	48 83 ec 18          	sub    $0x18,%rsp
   180001c6f:	b8 04 00 00 00       	mov    $0x4,%eax
   180001c74:	48 6b c0 00          	imul   $0x0,%rax,%rax
   180001c78:	b9 04 00 00 00       	mov    $0x4,%ecx
   180001c7d:	48 6b c9 00          	imul   $0x0,%rcx,%rcx
   180001c81:	48 8b 54 24 20       	mov    0x20(%rsp),%rdx
   180001c86:	4c 8b 44 24 28       	mov    0x28(%rsp),%r8
   180001c8b:	41 8b 0c 08          	mov    (%r8,%rcx,1),%ecx
   180001c8f:	8b 04 02             	mov    (%rdx,%rax,1),%eax
   180001c92:	33 c1                	xor    %ecx,%eax
   180001c94:	89 44 24 04          	mov    %eax,0x4(%rsp)
   180001c98:	b8 04 00 00 00       	mov    $0x4,%eax
   180001c9d:	48 6b c0 01          	imul   $0x1,%rax,%rax
   180001ca1:	b9 04 00 00 00       	mov    $0x4,%ecx
   180001ca6:	48 6b c9 01          	imul   $0x1,%rcx,%rcx
   180001caa:	48 8b 54 24 20       	mov    0x20(%rsp),%rdx
   180001caf:	4c 8b 44 24 28       	mov    0x28(%rsp),%r8
   180001cb4:	41 8b 0c 08          	mov    (%r8,%rcx,1),%ecx
   180001cb8:	8b 04 02             	mov    (%rdx,%rax,1),%eax
   180001cbb:	33 c1                	xor    %ecx,%eax
   180001cbd:	89 04 24             	mov    %eax,(%rsp)
   180001cc0:	8b 44 24 04          	mov    0x4(%rsp),%eax
   180001cc4:	c1 e8 18             	shr    $0x18,%eax
   180001cc7:	25 ff 00 00 00       	and    $0xff,%eax
   180001ccc:	8b c0                	mov    %eax,%eax
   180001cce:	48 8d 0d 5b 24 00 00 	lea    0x245b(%rip),%rcx        # 0x180004130
   180001cd5:	0f b6 04 01          	movzbl (%rcx,%rax,1),%eax
   180001cd9:	c1 e0 18             	shl    $0x18,%eax
   180001cdc:	8b 4c 24 04          	mov    0x4(%rsp),%ecx
   180001ce0:	c1 e9 10             	shr    $0x10,%ecx
   180001ce3:	81 e1 ff 00 00 00    	and    $0xff,%ecx
   180001ce9:	8b c9                	mov    %ecx,%ecx
   180001ceb:	48 8d 15 3e 25 00 00 	lea    0x253e(%rip),%rdx        # 0x180004230
   180001cf2:	0f b6 0c 0a          	movzbl (%rdx,%rcx,1),%ecx
   180001cf6:	c1 e1 10             	shl    $0x10,%ecx
   180001cf9:	0b c1                	or     %ecx,%eax
   180001cfb:	8b 4c 24 04          	mov    0x4(%rsp),%ecx
   180001cff:	c1 e9 08             	shr    $0x8,%ecx
   180001d02:	81 e1 ff 00 00 00    	and    $0xff,%ecx
   180001d08:	8b c9                	mov    %ecx,%ecx
   180001d0a:	48 8d 15 1f 26 00 00 	lea    0x261f(%rip),%rdx        # 0x180004330
   180001d11:	0f b6 0c 0a          	movzbl (%rdx,%rcx,1),%ecx
   180001d15:	c1 e1 08             	shl    $0x8,%ecx
   180001d18:	0b c1                	or     %ecx,%eax
   180001d1a:	8b 4c 24 04          	mov    0x4(%rsp),%ecx
   180001d1e:	81 e1 ff 00 00 00    	and    $0xff,%ecx
   180001d24:	8b c9                	mov    %ecx,%ecx
   180001d26:	48 8d 15 03 27 00 00 	lea    0x2703(%rip),%rdx        # 0x180004430
   180001d2d:	0f b6 0c 0a          	movzbl (%rdx,%rcx,1),%ecx
   180001d31:	0b c1                	or     %ecx,%eax
   180001d33:	89 44 24 04          	mov    %eax,0x4(%rsp)
   180001d37:	8b 04 24             	mov    (%rsp),%eax
   180001d3a:	c1 e8 18             	shr    $0x18,%eax
   180001d3d:	25 ff 00 00 00       	and    $0xff,%eax
   180001d42:	8b c0                	mov    %eax,%eax
   180001d44:	48 8d 0d e5 24 00 00 	lea    0x24e5(%rip),%rcx        # 0x180004230
   180001d4b:	0f b6 04 01          	movzbl (%rcx,%rax,1),%eax
   180001d4f:	c1 e0 18             	shl    $0x18,%eax
   180001d52:	8b 0c 24             	mov    (%rsp),%ecx
   180001d55:	c1 e9 10             	shr    $0x10,%ecx
   180001d58:	81 e1 ff 00 00 00    	and    $0xff,%ecx
   180001d5e:	8b c9                	mov    %ecx,%ecx
   180001d60:	48 8d 15 c9 25 00 00 	lea    0x25c9(%rip),%rdx        # 0x180004330
   180001d67:	0f b6 0c 0a          	movzbl (%rdx,%rcx,1),%ecx
   180001d6b:	c1 e1 10             	shl    $0x10,%ecx
   180001d6e:	0b c1                	or     %ecx,%eax
   180001d70:	8b 0c 24             	mov    (%rsp),%ecx
   180001d73:	c1 e9 08             	shr    $0x8,%ecx
   180001d76:	81 e1 ff 00 00 00    	and    $0xff,%ecx
   180001d7c:	8b c9                	mov    %ecx,%ecx
   180001d7e:	48 8d 15 ab 26 00 00 	lea    0x26ab(%rip),%rdx        # 0x180004430
   180001d85:	0f b6 0c 0a          	movzbl (%rdx,%rcx,1),%ecx
   180001d89:	c1 e1 08             	shl    $0x8,%ecx
   180001d8c:	0b c1                	or     %ecx,%eax
   180001d8e:	8b 0c 24             	mov    (%rsp),%ecx
   180001d91:	81 e1 ff 00 00 00    	and    $0xff,%ecx
   180001d97:	8b c9                	mov    %ecx,%ecx
   180001d99:	48 8d 15 90 23 00 00 	lea    0x2390(%rip),%rdx        # 0x180004130
   180001da0:	0f b6 0c 0a          	movzbl (%rdx,%rcx,1),%ecx
   180001da4:	0b c1                	or     %ecx,%eax
   180001da6:	89 04 24             	mov    %eax,(%rsp)
   180001da9:	8b 04 24             	mov    (%rsp),%eax
   180001dac:	c1 e0 08             	shl    $0x8,%eax
   180001daf:	8b 0c 24             	mov    (%rsp),%ecx
   180001db2:	c1 e9 18             	shr    $0x18,%ecx
   180001db5:	0b c1                	or     %ecx,%eax
   180001db7:	8b 4c 24 04          	mov    0x4(%rsp),%ecx
   180001dbb:	33 c8                	xor    %eax,%ecx
   180001dbd:	8b c1                	mov    %ecx,%eax
   180001dbf:	89 44 24 04          	mov    %eax,0x4(%rsp)
   180001dc3:	8b 44 24 04          	mov    0x4(%rsp),%eax
   180001dc7:	c1 e0 10             	shl    $0x10,%eax
   180001dca:	8b 4c 24 04          	mov    0x4(%rsp),%ecx
   180001dce:	c1 e9 10             	shr    $0x10,%ecx
   180001dd1:	0b c1                	or     %ecx,%eax
   180001dd3:	8b 0c 24             	mov    (%rsp),%ecx
   180001dd6:	33 c8                	xor    %eax,%ecx
   180001dd8:	8b c1                	mov    %ecx,%eax
   180001dda:	89 04 24             	mov    %eax,(%rsp)
   180001ddd:	8b 04 24             	mov    (%rsp),%eax
   180001de0:	c1 e8 08             	shr    $0x8,%eax
   180001de3:	8b 0c 24             	mov    (%rsp),%ecx
   180001de6:	c1 e1 18             	shl    $0x18,%ecx
   180001de9:	0b c1                	or     %ecx,%eax
   180001deb:	8b 4c 24 04          	mov    0x4(%rsp),%ecx
   180001def:	33 c8                	xor    %eax,%ecx
   180001df1:	8b c1                	mov    %ecx,%eax
   180001df3:	89 44 24 04          	mov    %eax,0x4(%rsp)
   180001df7:	8b 44 24 04          	mov    0x4(%rsp),%eax
   180001dfb:	c1 e8 08             	shr    $0x8,%eax
   180001dfe:	8b 4c 24 04          	mov    0x4(%rsp),%ecx
   180001e02:	c1 e1 18             	shl    $0x18,%ecx
   180001e05:	0b c1                	or     %ecx,%eax
   180001e07:	8b 0c 24             	mov    (%rsp),%ecx
   180001e0a:	33 c8                	xor    %eax,%ecx
   180001e0c:	8b c1                	mov    %ecx,%eax
   180001e0e:	89 04 24             	mov    %eax,(%rsp)
   180001e11:	b8 04 00 00 00       	mov    $0x4,%eax
   180001e16:	48 6b c0 00          	imul   $0x0,%rax,%rax
   180001e1a:	48 8b 4c 24 30       	mov    0x30(%rsp),%rcx
   180001e1f:	8b 14 24             	mov    (%rsp),%edx
   180001e22:	8b 04 01             	mov    (%rcx,%rax,1),%eax
   180001e25:	33 c2                	xor    %edx,%eax
   180001e27:	b9 04 00 00 00       	mov    $0x4,%ecx
   180001e2c:	48 6b c9 00          	imul   $0x0,%rcx,%rcx
   180001e30:	48 8b 54 24 30       	mov    0x30(%rsp),%rdx
   180001e35:	89 04 0a             	mov    %eax,(%rdx,%rcx,1)
   180001e38:	b8 04 00 00 00       	mov    $0x4,%eax
   180001e3d:	48 6b c0 01          	imul   $0x1,%rax,%rax
   180001e41:	48 8b 4c 24 30       	mov    0x30(%rsp),%rcx
   180001e46:	8b 54 24 04          	mov    0x4(%rsp),%edx
   180001e4a:	8b 04 01             	mov    (%rcx,%rax,1),%eax
   180001e4d:	33 c2                	xor    %edx,%eax
   180001e4f:	b9 04 00 00 00       	mov    $0x4,%ecx
   180001e54:	48 6b c9 01          	imul   $0x1,%rcx,%rcx
   180001e58:	48 8b 54 24 30       	mov    0x30(%rsp),%rdx
   180001e5d:	89 04 0a             	mov    %eax,(%rdx,%rcx,1)
   180001e60:	48 83 c4 18          	add    $0x18,%rsp
   180001e64:	c3                   	retq   
   180001e65:	cc                   	int3   
   180001e66:	cc                   	int3   
   180001e67:	cc                   	int3   
   180001e68:	44 89 44 24 18       	mov    %r8d,0x18(%rsp)
   180001e6d:	48 89 54 24 10       	mov    %rdx,0x10(%rsp)
   180001e72:	48 89 4c 24 08       	mov    %rcx,0x8(%rsp)
   180001e77:	57                   	push   %rdi
   180001e78:	48 81 ec 70 01 00 00 	sub    $0x170,%rsp
   180001e7f:	8b 84 24 90 01 00 00 	mov    0x190(%rsp),%eax
   180001e86:	89 44 24 30          	mov    %eax,0x30(%rsp)
   180001e8a:	81 7c 24 30 80 00 00 	cmpl   $0x80,0x30(%rsp)
   180001e91:	00 
   180001e92:	74 16                	je     0x180001eaa
   180001e94:	81 7c 24 30 c0 00 00 	cmpl   $0xc0,0x30(%rsp)
   180001e9b:	00 
   180001e9c:	74 24                	je     0x180001ec2
   180001e9e:	81 7c 24 30 00 01 00 	cmpl   $0x100,0x30(%rsp)
   180001ea5:	00 
   180001ea6:	74 1a                	je     0x180001ec2
   180001ea8:	eb 30                	jmp    0x180001eda
   180001eaa:	48 8b 84 24 80 01 00 	mov    0x180(%rsp),%rax
   180001eb1:	00 
   180001eb2:	c7 00 03 00 00 00    	movl   $0x3,(%rax)
   180001eb8:	c7 44 24 34 00 00 00 	movl   $0x0,0x34(%rsp)
   180001ebf:	00 
   180001ec0:	eb 22                	jmp    0x180001ee4
   180001ec2:	48 8b 84 24 80 01 00 	mov    0x180(%rsp),%rax
   180001ec9:	00 
   180001eca:	c7 00 04 00 00 00    	movl   $0x4,(%rax)
   180001ed0:	c7 44 24 34 01 00 00 	movl   $0x1,0x34(%rsp)
   180001ed7:	00 
   180001ed8:	eb 0a                	jmp    0x180001ee4
   180001eda:	b8 dc ff ff ff       	mov    $0xffffffdc,%eax
   180001edf:	e9 63 02 00 00       	jmpq   0x180002147
   180001ee4:	48 8b 84 24 80 01 00 	mov    0x180(%rsp),%rax
   180001eeb:	00 
   180001eec:	48 83 c0 04          	add    $0x4,%rax
   180001ef0:	48 89 44 24 28       	mov    %rax,0x28(%rsp)
   180001ef5:	44 8b 84 24 90 01 00 	mov    0x190(%rsp),%r8d
   180001efc:	00 
   180001efd:	48 8b 94 24 88 01 00 	mov    0x188(%rsp),%rdx
   180001f04:	00 
   180001f05:	48 8d 4c 24 50       	lea    0x50(%rsp),%rcx
   180001f0a:	e8 41 02 00 00       	callq  0x180002150
   180001f0f:	89 44 24 38          	mov    %eax,0x38(%rsp)
   180001f13:	83 7c 24 38 00       	cmpl   $0x0,0x38(%rsp)
   180001f18:	74 09                	je     0x180001f23
   180001f1a:	8b 44 24 38          	mov    0x38(%rsp),%eax
   180001f1e:	e9 24 02 00 00       	jmpq   0x180002147
   180001f23:	8b 44 24 34          	mov    0x34(%rsp),%eax
   180001f27:	c1 e0 03             	shl    $0x3,%eax
   180001f2a:	d1 e0                	shl    %eax
   180001f2c:	48 98                	cltq   
   180001f2e:	48 8d 84 84 14 01 00 	lea    0x114(%rsp,%rax,4),%rax
   180001f35:	00 
   180001f36:	48 89 44 24 20       	mov    %rax,0x20(%rsp)
   180001f3b:	48 8b 44 24 28       	mov    0x28(%rsp),%rax
   180001f40:	48 8b 4c 24 20       	mov    0x20(%rsp),%rcx
   180001f45:	8b 09                	mov    (%rcx),%ecx
   180001f47:	89 08                	mov    %ecx,(%rax)
   180001f49:	48 8b 44 24 28       	mov    0x28(%rsp),%rax
   180001f4e:	48 83 c0 04          	add    $0x4,%rax
   180001f52:	48 89 44 24 28       	mov    %rax,0x28(%rsp)
   180001f57:	48 8b 44 24 20       	mov    0x20(%rsp),%rax
   180001f5c:	48 83 c0 04          	add    $0x4,%rax
   180001f60:	48 89 44 24 20       	mov    %rax,0x20(%rsp)
   180001f65:	48 8b 44 24 28       	mov    0x28(%rsp),%rax
   180001f6a:	48 8b 4c 24 20       	mov    0x20(%rsp),%rcx
   180001f6f:	8b 09                	mov    (%rcx),%ecx
   180001f71:	89 08                	mov    %ecx,(%rax)
   180001f73:	48 8b 44 24 28       	mov    0x28(%rsp),%rax
   180001f78:	48 83 c0 04          	add    $0x4,%rax
   180001f7c:	48 89 44 24 28       	mov    %rax,0x28(%rsp)
   180001f81:	48 8b 44 24 20       	mov    0x20(%rsp),%rax
   180001f86:	48 83 c0 04          	add    $0x4,%rax
   180001f8a:	48 89 44 24 20       	mov    %rax,0x20(%rsp)
   180001f8f:	48 8b 44 24 28       	mov    0x28(%rsp),%rax
   180001f94:	48 8b 4c 24 20       	mov    0x20(%rsp),%rcx
   180001f99:	8b 09                	mov    (%rcx),%ecx
   180001f9b:	89 08                	mov    %ecx,(%rax)
   180001f9d:	48 8b 44 24 28       	mov    0x28(%rsp),%rax
   180001fa2:	48 83 c0 04          	add    $0x4,%rax
   180001fa6:	48 89 44 24 28       	mov    %rax,0x28(%rsp)
   180001fab:	48 8b 44 24 20       	mov    0x20(%rsp),%rax
   180001fb0:	48 83 c0 04          	add    $0x4,%rax
   180001fb4:	48 89 44 24 20       	mov    %rax,0x20(%rsp)
   180001fb9:	48 8b 44 24 28       	mov    0x28(%rsp),%rax
   180001fbe:	48 8b 4c 24 20       	mov    0x20(%rsp),%rcx
   180001fc3:	8b 09                	mov    (%rcx),%ecx
   180001fc5:	89 08                	mov    %ecx,(%rax)
   180001fc7:	48 8b 44 24 28       	mov    0x28(%rsp),%rax
   180001fcc:	48 83 c0 04          	add    $0x4,%rax
   180001fd0:	48 89 44 24 28       	mov    %rax,0x28(%rsp)
   180001fd5:	48 8b 44 24 20       	mov    0x20(%rsp),%rax
   180001fda:	48 83 c0 04          	add    $0x4,%rax
   180001fde:	48 89 44 24 20       	mov    %rax,0x20(%rsp)
   180001fe3:	8b 44 24 34          	mov    0x34(%rsp),%eax
   180001fe7:	8d 04 c5 16 00 00 00 	lea    0x16(,%rax,8),%eax
   180001fee:	48 98                	cltq   
   180001ff0:	48 89 44 24 40       	mov    %rax,0x40(%rsp)
   180001ff5:	48 8b 44 24 20       	mov    0x20(%rsp),%rax
   180001ffa:	48 83 e8 18          	sub    $0x18,%rax
   180001ffe:	48 89 44 24 20       	mov    %rax,0x20(%rsp)
   180002003:	eb 1b                	jmp    0x180002020
   180002005:	48 8b 44 24 40       	mov    0x40(%rsp),%rax
   18000200a:	48 ff c8             	dec    %rax
   18000200d:	48 89 44 24 40       	mov    %rax,0x40(%rsp)
   180002012:	48 8b 44 24 20       	mov    0x20(%rsp),%rax
   180002017:	48 83 e8 10          	sub    $0x10,%rax
   18000201b:	48 89 44 24 20       	mov    %rax,0x20(%rsp)
   180002020:	48 83 7c 24 40 00    	cmpq   $0x0,0x40(%rsp)
   180002026:	76 56                	jbe    0x18000207e
   180002028:	48 8b 44 24 28       	mov    0x28(%rsp),%rax
   18000202d:	48 8b 4c 24 20       	mov    0x20(%rsp),%rcx
   180002032:	8b 09                	mov    (%rcx),%ecx
   180002034:	89 08                	mov    %ecx,(%rax)
   180002036:	48 8b 44 24 28       	mov    0x28(%rsp),%rax
   18000203b:	48 83 c0 04          	add    $0x4,%rax
   18000203f:	48 89 44 24 28       	mov    %rax,0x28(%rsp)
   180002044:	48 8b 44 24 20       	mov    0x20(%rsp),%rax
   180002049:	48 83 c0 04          	add    $0x4,%rax
   18000204d:	48 89 44 24 20       	mov    %rax,0x20(%rsp)
   180002052:	48 8b 44 24 28       	mov    0x28(%rsp),%rax
   180002057:	48 8b 4c 24 20       	mov    0x20(%rsp),%rcx
   18000205c:	8b 09                	mov    (%rcx),%ecx
   18000205e:	89 08                	mov    %ecx,(%rax)
   180002060:	48 8b 44 24 28       	mov    0x28(%rsp),%rax
   180002065:	48 83 c0 04          	add    $0x4,%rax
   180002069:	48 89 44 24 28       	mov    %rax,0x28(%rsp)
   18000206e:	48 8b 44 24 20       	mov    0x20(%rsp),%rax
   180002073:	48 83 c0 04          	add    $0x4,%rax
   180002077:	48 89 44 24 20       	mov    %rax,0x20(%rsp)
   18000207c:	eb 87                	jmp    0x180002005
   18000207e:	48 8b 44 24 20       	mov    0x20(%rsp),%rax
   180002083:	48 83 e8 08          	sub    $0x8,%rax
   180002087:	48 89 44 24 20       	mov    %rax,0x20(%rsp)
   18000208c:	48 8b 44 24 28       	mov    0x28(%rsp),%rax
   180002091:	48 8b 4c 24 20       	mov    0x20(%rsp),%rcx
   180002096:	8b 09                	mov    (%rcx),%ecx
   180002098:	89 08                	mov    %ecx,(%rax)
   18000209a:	48 8b 44 24 28       	mov    0x28(%rsp),%rax
   18000209f:	48 83 c0 04          	add    $0x4,%rax
   1800020a3:	48 89 44 24 28       	mov    %rax,0x28(%rsp)
   1800020a8:	48 8b 44 24 20       	mov    0x20(%rsp),%rax
   1800020ad:	48 83 c0 04          	add    $0x4,%rax
   1800020b1:	48 89 44 24 20       	mov    %rax,0x20(%rsp)
   1800020b6:	48 8b 44 24 28       	mov    0x28(%rsp),%rax
   1800020bb:	48 8b 4c 24 20       	mov    0x20(%rsp),%rcx
   1800020c0:	8b 09                	mov    (%rcx),%ecx
   1800020c2:	89 08                	mov    %ecx,(%rax)
   1800020c4:	48 8b 44 24 28       	mov    0x28(%rsp),%rax
   1800020c9:	48 83 c0 04          	add    $0x4,%rax
   1800020cd:	48 89 44 24 28       	mov    %rax,0x28(%rsp)
   1800020d2:	48 8b 44 24 20       	mov    0x20(%rsp),%rax
   1800020d7:	48 83 c0 04          	add    $0x4,%rax
   1800020db:	48 89 44 24 20       	mov    %rax,0x20(%rsp)
   1800020e0:	48 8b 44 24 28       	mov    0x28(%rsp),%rax
   1800020e5:	48 8b 4c 24 20       	mov    0x20(%rsp),%rcx
   1800020ea:	8b 09                	mov    (%rcx),%ecx
   1800020ec:	89 08                	mov    %ecx,(%rax)
   1800020ee:	48 8b 44 24 28       	mov    0x28(%rsp),%rax
   1800020f3:	48 83 c0 04          	add    $0x4,%rax
   1800020f7:	48 89 44 24 28       	mov    %rax,0x28(%rsp)
   1800020fc:	48 8b 44 24 20       	mov    0x20(%rsp),%rax
   180002101:	48 83 c0 04          	add    $0x4,%rax
   180002105:	48 89 44 24 20       	mov    %rax,0x20(%rsp)
   18000210a:	48 8b 44 24 28       	mov    0x28(%rsp),%rax
   18000210f:	48 8b 4c 24 20       	mov    0x20(%rsp),%rcx
   180002114:	8b 09                	mov    (%rcx),%ecx
   180002116:	89 08                	mov    %ecx,(%rax)
   180002118:	48 8b 44 24 28       	mov    0x28(%rsp),%rax
   18000211d:	48 83 c0 04          	add    $0x4,%rax
   180002121:	48 89 44 24 28       	mov    %rax,0x28(%rsp)
   180002126:	48 8b 44 24 20       	mov    0x20(%rsp),%rax
   18000212b:	48 83 c0 04          	add    $0x4,%rax
   18000212f:	48 89 44 24 20       	mov    %rax,0x20(%rsp)
   180002134:	48 8d 44 24 50       	lea    0x50(%rsp),%rax
   180002139:	48 8b f8             	mov    %rax,%rdi
   18000213c:	33 c0                	xor    %eax,%eax
   18000213e:	b9 14 01 00 00       	mov    $0x114,%ecx
   180002143:	f3 aa                	rep stos %al,%es:(%rdi)
   180002145:	33 c0                	xor    %eax,%eax
   180002147:	48 81 c4 70 01 00 00 	add    $0x170,%rsp
   18000214e:	5f                   	pop    %rdi
   18000214f:	c3                   	retq   
   180002150:	44 89 44 24 18       	mov    %r8d,0x18(%rsp)
   180002155:	48 89 54 24 10       	mov    %rdx,0x10(%rsp)
   18000215a:	48 89 4c 24 08       	mov    %rcx,0x8(%rsp)
   18000215f:	57                   	push   %rdi
   180002160:	48 81 ec 30 03 00 00 	sub    $0x330,%rsp
   180002167:	48 8b 84 24 40 03 00 	mov    0x340(%rsp),%rax
   18000216e:	00 
   18000216f:	48 83 c0 04          	add    $0x4,%rax
   180002173:	48 89 44 24 30       	mov    %rax,0x30(%rsp)
   180002178:	48 8d 84 24 f0 02 00 	lea    0x2f0(%rsp),%rax
   18000217f:	00 
   180002180:	48 8b f8             	mov    %rax,%rdi
   180002183:	33 c0                	xor    %eax,%eax
   180002185:	b9 40 00 00 00       	mov    $0x40,%ecx
   18000218a:	f3 aa                	rep stos %al,%es:(%rdi)
   18000218c:	48 8b 7c 24 30       	mov    0x30(%rsp),%rdi
   180002191:	33 c0                	xor    %eax,%eax
   180002193:	b9 10 01 00 00       	mov    $0x110,%ecx
   180002198:	f3 aa                	rep stos %al,%es:(%rdi)
   18000219a:	8b 84 24 50 03 00 00 	mov    0x350(%rsp),%eax
   1800021a1:	89 44 24 2c          	mov    %eax,0x2c(%rsp)
   1800021a5:	81 7c 24 2c 80 00 00 	cmpl   $0x80,0x2c(%rsp)
   1800021ac:	00 
   1800021ad:	74 16                	je     0x1800021c5
   1800021af:	81 7c 24 2c c0 00 00 	cmpl   $0xc0,0x2c(%rsp)
   1800021b6:	00 
   1800021b7:	74 24                	je     0x1800021dd
   1800021b9:	81 7c 24 2c 00 01 00 	cmpl   $0x100,0x2c(%rsp)
   1800021c0:	00 
   1800021c1:	74 1a                	je     0x1800021dd
   1800021c3:	eb 30                	jmp    0x1800021f5
   1800021c5:	48 8b 84 24 40 03 00 	mov    0x340(%rsp),%rax
   1800021cc:	00 
   1800021cd:	c7 00 03 00 00 00    	movl   $0x3,(%rax)
   1800021d3:	c7 44 24 28 00 00 00 	movl   $0x0,0x28(%rsp)
   1800021da:	00 
   1800021db:	eb 22                	jmp    0x1800021ff
   1800021dd:	48 8b 84 24 40 03 00 	mov    0x340(%rsp),%rax
   1800021e4:	00 
   1800021e5:	c7 00 04 00 00 00    	movl   $0x4,(%rax)
   1800021eb:	c7 44 24 28 01 00 00 	movl   $0x1,0x28(%rsp)
   1800021f2:	00 
   1800021f3:	eb 0a                	jmp    0x1800021ff
   1800021f5:	b8 dc ff ff ff       	mov    $0xffffffdc,%eax
   1800021fa:	e9 6d 16 00 00       	jmpq   0x18000386c
   1800021ff:	48 c7 44 24 20 00 00 	movq   $0x0,0x20(%rsp)
   180002206:	00 00 
   180002208:	eb 0d                	jmp    0x180002217
   18000220a:	48 8b 44 24 20       	mov    0x20(%rsp),%rax
   18000220f:	48 ff c0             	inc    %rax
   180002212:	48 89 44 24 20       	mov    %rax,0x20(%rsp)
   180002217:	33 d2                	xor    %edx,%edx
   180002219:	8b 84 24 50 03 00 00 	mov    0x350(%rsp),%eax
   180002220:	b9 08 00 00 00       	mov    $0x8,%ecx
   180002225:	f7 f1                	div    %ecx
   180002227:	8b c0                	mov    %eax,%eax
   180002229:	48 39 44 24 20       	cmp    %rax,0x20(%rsp)
   18000222e:	73 23                	jae    0x180002253
   180002230:	48 8b 44 24 20       	mov    0x20(%rsp),%rax
   180002235:	48 8b 8c 24 48 03 00 	mov    0x348(%rsp),%rcx
   18000223c:	00 
   18000223d:	48 03 c8             	add    %rax,%rcx
   180002240:	48 8b c1             	mov    %rcx,%rax
   180002243:	48 8b 4c 24 20       	mov    0x20(%rsp),%rcx
   180002248:	8a 00                	mov    (%rax),%al
   18000224a:	88 84 0c f0 02 00 00 	mov    %al,0x2f0(%rsp,%rcx,1)
   180002251:	eb b7                	jmp    0x18000220a
   180002253:	81 bc 24 50 03 00 00 	cmpl   $0xc0,0x350(%rsp)
   18000225a:	c0 00 00 00 
   18000225e:	75 3d                	jne    0x18000229d
   180002260:	48 c7 44 24 20 00 00 	movq   $0x0,0x20(%rsp)
   180002267:	00 00 
   180002269:	eb 0d                	jmp    0x180002278
   18000226b:	48 8b 44 24 20       	mov    0x20(%rsp),%rax
   180002270:	48 ff c0             	inc    %rax
   180002273:	48 89 44 24 20       	mov    %rax,0x20(%rsp)
   180002278:	48 83 7c 24 20 08    	cmpq   $0x8,0x20(%rsp)
   18000227e:	73 1d                	jae    0x18000229d
   180002280:	48 8b 44 24 20       	mov    0x20(%rsp),%rax
   180002285:	0f b6 84 04 00 03 00 	movzbl 0x300(%rsp,%rax,1),%eax
   18000228c:	00 
   18000228d:	f7 d0                	not    %eax
   18000228f:	48 8b 4c 24 20       	mov    0x20(%rsp),%rcx
   180002294:	88 84 0c 08 03 00 00 	mov    %al,0x308(%rsp,%rcx,1)
   18000229b:	eb ce                	jmp    0x18000226b
   18000229d:	48 c7 44 24 20 00 00 	movq   $0x0,0x20(%rsp)
   1800022a4:	00 00 
   1800022a6:	eb 0d                	jmp    0x1800022b5
   1800022a8:	48 8b 44 24 20       	mov    0x20(%rsp),%rax
   1800022ad:	48 ff c0             	inc    %rax
   1800022b0:	48 89 44 24 20       	mov    %rax,0x20(%rsp)
   1800022b5:	48 83 7c 24 20 06    	cmpq   $0x6,0x20(%rsp)
   1800022bb:	0f 83 3d 01 00 00    	jae    0x1800023fe
   1800022c1:	48 8d 05 38 1e 00 00 	lea    0x1e38(%rip),%rax        # 0x180004100
   1800022c8:	48 8b 4c 24 20       	mov    0x20(%rsp),%rcx
   1800022cd:	48 8d 04 c8          	lea    (%rax,%rcx,8),%rax
   1800022d1:	b9 01 00 00 00       	mov    $0x1,%ecx
   1800022d6:	48 6b c9 00          	imul   $0x0,%rcx,%rcx
   1800022da:	0f b6 04 08          	movzbl (%rax,%rcx,1),%eax
   1800022de:	c1 e0 18             	shl    $0x18,%eax
   1800022e1:	48 8d 0d 18 1e 00 00 	lea    0x1e18(%rip),%rcx        # 0x180004100
   1800022e8:	48 8b 54 24 20       	mov    0x20(%rsp),%rdx
   1800022ed:	48 8d 0c d1          	lea    (%rcx,%rdx,8),%rcx
   1800022f1:	ba 01 00 00 00       	mov    $0x1,%edx
   1800022f6:	48 6b d2 01          	imul   $0x1,%rdx,%rdx
   1800022fa:	0f b6 0c 11          	movzbl (%rcx,%rdx,1),%ecx
   1800022fe:	c1 e1 10             	shl    $0x10,%ecx
   180002301:	0b c1                	or     %ecx,%eax
   180002303:	48 8d 0d f6 1d 00 00 	lea    0x1df6(%rip),%rcx        # 0x180004100
   18000230a:	48 8b 54 24 20       	mov    0x20(%rsp),%rdx
   18000230f:	48 8d 0c d1          	lea    (%rcx,%rdx,8),%rcx
   180002313:	ba 01 00 00 00       	mov    $0x1,%edx
   180002318:	48 6b d2 02          	imul   $0x2,%rdx,%rdx
   18000231c:	0f b6 0c 11          	movzbl (%rcx,%rdx,1),%ecx
   180002320:	c1 e1 08             	shl    $0x8,%ecx
   180002323:	0b c1                	or     %ecx,%eax
   180002325:	48 8d 0d d4 1d 00 00 	lea    0x1dd4(%rip),%rcx        # 0x180004100
   18000232c:	48 8b 54 24 20       	mov    0x20(%rsp),%rdx
   180002331:	48 8d 0c d1          	lea    (%rcx,%rdx,8),%rcx
   180002335:	ba 01 00 00 00       	mov    $0x1,%edx
   18000233a:	48 6b d2 03          	imul   $0x3,%rdx,%rdx
   18000233e:	0f b6 0c 11          	movzbl (%rcx,%rdx,1),%ecx
   180002342:	0b c1                	or     %ecx,%eax
   180002344:	48 8b 4c 24 20       	mov    0x20(%rsp),%rcx
   180002349:	48 8d 8c cc c0 02 00 	lea    0x2c0(%rsp,%rcx,8),%rcx
   180002350:	00 
   180002351:	ba 04 00 00 00       	mov    $0x4,%edx
   180002356:	48 6b d2 00          	imul   $0x0,%rdx,%rdx
   18000235a:	89 04 11             	mov    %eax,(%rcx,%rdx,1)
   18000235d:	48 8d 05 9c 1d 00 00 	lea    0x1d9c(%rip),%rax        # 0x180004100
   180002364:	48 8b 4c 24 20       	mov    0x20(%rsp),%rcx
   180002369:	48 8d 04 c8          	lea    (%rax,%rcx,8),%rax
   18000236d:	b9 01 00 00 00       	mov    $0x1,%ecx
   180002372:	48 6b c9 04          	imul   $0x4,%rcx,%rcx
   180002376:	0f b6 04 08          	movzbl (%rax,%rcx,1),%eax
   18000237a:	c1 e0 18             	shl    $0x18,%eax
   18000237d:	48 8d 0d 7c 1d 00 00 	lea    0x1d7c(%rip),%rcx        # 0x180004100
   180002384:	48 8b 54 24 20       	mov    0x20(%rsp),%rdx
   180002389:	48 8d 0c d1          	lea    (%rcx,%rdx,8),%rcx
   18000238d:	ba 01 00 00 00       	mov    $0x1,%edx
   180002392:	48 6b d2 05          	imul   $0x5,%rdx,%rdx
   180002396:	0f b6 0c 11          	movzbl (%rcx,%rdx,1),%ecx
   18000239a:	c1 e1 10             	shl    $0x10,%ecx
   18000239d:	0b c1                	or     %ecx,%eax
   18000239f:	48 8d 0d 5a 1d 00 00 	lea    0x1d5a(%rip),%rcx        # 0x180004100
   1800023a6:	48 8b 54 24 20       	mov    0x20(%rsp),%rdx
   1800023ab:	48 8d 0c d1          	lea    (%rcx,%rdx,8),%rcx
   1800023af:	ba 01 00 00 00       	mov    $0x1,%edx
   1800023b4:	48 6b d2 06          	imul   $0x6,%rdx,%rdx
   1800023b8:	0f b6 0c 11          	movzbl (%rcx,%rdx,1),%ecx
   1800023bc:	c1 e1 08             	shl    $0x8,%ecx
   1800023bf:	0b c1                	or     %ecx,%eax
   1800023c1:	48 8d 0d 38 1d 00 00 	lea    0x1d38(%rip),%rcx        # 0x180004100
   1800023c8:	48 8b 54 24 20       	mov    0x20(%rsp),%rdx
   1800023cd:	48 8d 0c d1          	lea    (%rcx,%rdx,8),%rcx
   1800023d1:	ba 01 00 00 00       	mov    $0x1,%edx
   1800023d6:	48 6b d2 07          	imul   $0x7,%rdx,%rdx
   1800023da:	0f b6 0c 11          	movzbl (%rcx,%rdx,1),%ecx
   1800023de:	0b c1                	or     %ecx,%eax
   1800023e0:	48 8b 4c 24 20       	mov    0x20(%rsp),%rcx
   1800023e5:	48 8d 8c cc c0 02 00 	lea    0x2c0(%rsp,%rcx,8),%rcx
   1800023ec:	00 
   1800023ed:	ba 04 00 00 00       	mov    $0x4,%edx
   1800023f2:	48 6b d2 01          	imul   $0x1,%rdx,%rdx
   1800023f6:	89 04 11             	mov    %eax,(%rcx,%rdx,1)
   1800023f9:	e9 aa fe ff ff       	jmpq   0x1800022a8
   1800023fe:	48 8d 84 24 90 00 00 	lea    0x90(%rsp),%rax
   180002405:	00 
   180002406:	48 8b f8             	mov    %rax,%rdi
   180002409:	33 c0                	xor    %eax,%eax
   18000240b:	b9 40 00 00 00       	mov    $0x40,%ecx
   180002410:	f3 aa                	rep stos %al,%es:(%rdi)
   180002412:	48 c7 44 24 20 00 00 	movq   $0x0,0x20(%rsp)
   180002419:	00 00 
   18000241b:	eb 0d                	jmp    0x18000242a
   18000241d:	48 8b 44 24 20       	mov    0x20(%rsp),%rax
   180002422:	48 ff c0             	inc    %rax
   180002425:	48 89 44 24 20       	mov    %rax,0x20(%rsp)
   18000242a:	48 83 7c 24 20 08    	cmpq   $0x8,0x20(%rsp)
   180002430:	73 51                	jae    0x180002483
   180002432:	48 8b 44 24 20       	mov    0x20(%rsp),%rax
   180002437:	0f b6 84 84 f0 02 00 	movzbl 0x2f0(%rsp,%rax,4),%eax
   18000243e:	00 
   18000243f:	c1 e0 18             	shl    $0x18,%eax
   180002442:	48 8b 4c 24 20       	mov    0x20(%rsp),%rcx
   180002447:	0f b6 8c 8c f1 02 00 	movzbl 0x2f1(%rsp,%rcx,4),%ecx
   18000244e:	00 
   18000244f:	c1 e1 10             	shl    $0x10,%ecx
   180002452:	0b c1                	or     %ecx,%eax
   180002454:	48 8b 4c 24 20       	mov    0x20(%rsp),%rcx
   180002459:	0f b6 8c 8c f2 02 00 	movzbl 0x2f2(%rsp,%rcx,4),%ecx
   180002460:	00 
   180002461:	c1 e1 08             	shl    $0x8,%ecx
   180002464:	0b c1                	or     %ecx,%eax
   180002466:	48 8b 4c 24 20       	mov    0x20(%rsp),%rcx
   18000246b:	0f b6 8c 8c f3 02 00 	movzbl 0x2f3(%rsp,%rcx,4),%ecx
   180002472:	00 
   180002473:	0b c1                	or     %ecx,%eax
   180002475:	48 8b 4c 24 20       	mov    0x20(%rsp),%rcx
   18000247a:	89 84 8c 90 00 00 00 	mov    %eax,0x90(%rsp,%rcx,4)
   180002481:	eb 9a                	jmp    0x18000241d
   180002483:	48 c7 44 24 20 00 00 	movq   $0x0,0x20(%rsp)
   18000248a:	00 00 
   18000248c:	eb 0d                	jmp    0x18000249b
   18000248e:	48 8b 44 24 20       	mov    0x20(%rsp),%rax
   180002493:	48 ff c0             	inc    %rax
   180002496:	48 89 44 24 20       	mov    %rax,0x20(%rsp)
   18000249b:	48 83 7c 24 20 04    	cmpq   $0x4,0x20(%rsp)
   1800024a1:	73 28                	jae    0x1800024cb
   1800024a3:	48 8b 44 24 20       	mov    0x20(%rsp),%rax
   1800024a8:	48 8b 4c 24 20       	mov    0x20(%rsp),%rcx
   1800024ad:	8b 8c 8c a0 00 00 00 	mov    0xa0(%rsp,%rcx,4),%ecx
   1800024b4:	8b 84 84 90 00 00 00 	mov    0x90(%rsp,%rax,4),%eax
   1800024bb:	33 c1                	xor    %ecx,%eax
   1800024bd:	48 8b 4c 24 20       	mov    0x20(%rsp),%rcx
   1800024c2:	89 84 8c b0 00 00 00 	mov    %eax,0xb0(%rsp,%rcx,4)
   1800024c9:	eb c3                	jmp    0x18000248e
   1800024cb:	48 8d 84 24 b8 00 00 	lea    0xb8(%rsp),%rax
   1800024d2:	00 
   1800024d3:	b9 08 00 00 00       	mov    $0x8,%ecx
   1800024d8:	48 6b c9 00          	imul   $0x0,%rcx,%rcx
   1800024dc:	48 8d 8c 0c c0 02 00 	lea    0x2c0(%rsp,%rcx,1),%rcx
   1800024e3:	00 
   1800024e4:	48 8d 94 24 b0 00 00 	lea    0xb0(%rsp),%rdx
   1800024eb:	00 
   1800024ec:	48 89 94 24 30 02 00 	mov    %rdx,0x230(%rsp)
   1800024f3:	00 
   1800024f4:	4c 8b c0             	mov    %rax,%r8
   1800024f7:	48 8b d1             	mov    %rcx,%rdx
   1800024fa:	48 8b 84 24 30 02 00 	mov    0x230(%rsp),%rax
   180002501:	00 
   180002502:	48 8b c8             	mov    %rax,%rcx
   180002505:	e8 52 f7 ff ff       	callq  0x180001c5c
   18000250a:	48 8d 84 24 b0 00 00 	lea    0xb0(%rsp),%rax
   180002511:	00 
   180002512:	b9 08 00 00 00       	mov    $0x8,%ecx
   180002517:	48 6b c9 01          	imul   $0x1,%rcx,%rcx
   18000251b:	48 8d 8c 0c c0 02 00 	lea    0x2c0(%rsp,%rcx,1),%rcx
   180002522:	00 
   180002523:	48 8d 94 24 b8 00 00 	lea    0xb8(%rsp),%rdx
   18000252a:	00 
   18000252b:	48 89 94 24 b8 02 00 	mov    %rdx,0x2b8(%rsp)
   180002532:	00 
   180002533:	4c 8b c0             	mov    %rax,%r8
   180002536:	48 8b d1             	mov    %rcx,%rdx
   180002539:	48 8b 84 24 b8 02 00 	mov    0x2b8(%rsp),%rax
   180002540:	00 
   180002541:	48 8b c8             	mov    %rax,%rcx
   180002544:	e8 13 f7 ff ff       	callq  0x180001c5c
   180002549:	48 c7 44 24 20 00 00 	movq   $0x0,0x20(%rsp)
   180002550:	00 00 
   180002552:	eb 0d                	jmp    0x180002561
   180002554:	48 8b 44 24 20       	mov    0x20(%rsp),%rax
   180002559:	48 ff c0             	inc    %rax
   18000255c:	48 89 44 24 20       	mov    %rax,0x20(%rsp)
   180002561:	48 83 7c 24 20 04    	cmpq   $0x4,0x20(%rsp)
   180002567:	73 28                	jae    0x180002591
   180002569:	48 8b 44 24 20       	mov    0x20(%rsp),%rax
   18000256e:	48 8b 4c 24 20       	mov    0x20(%rsp),%rcx
   180002573:	8b 8c 8c 90 00 00 00 	mov    0x90(%rsp,%rcx,4),%ecx
   18000257a:	8b 84 84 b0 00 00 00 	mov    0xb0(%rsp,%rax,4),%eax
   180002581:	33 c1                	xor    %ecx,%eax
   180002583:	48 8b 4c 24 20       	mov    0x20(%rsp),%rcx
   180002588:	89 84 8c b0 00 00 00 	mov    %eax,0xb0(%rsp,%rcx,4)
   18000258f:	eb c3                	jmp    0x180002554
   180002591:	48 8d 84 24 b8 00 00 	lea    0xb8(%rsp),%rax
   180002598:	00 
   180002599:	b9 08 00 00 00       	mov    $0x8,%ecx
   18000259e:	48 6b c9 02          	imul   $0x2,%rcx,%rcx
   1800025a2:	48 8d 8c 0c c0 02 00 	lea    0x2c0(%rsp,%rcx,1),%rcx
   1800025a9:	00 
   1800025aa:	48 8d 94 24 b0 00 00 	lea    0xb0(%rsp),%rdx
   1800025b1:	00 
   1800025b2:	48 89 94 24 a0 02 00 	mov    %rdx,0x2a0(%rsp)
   1800025b9:	00 
   1800025ba:	4c 8b c0             	mov    %rax,%r8
   1800025bd:	48 8b d1             	mov    %rcx,%rdx
   1800025c0:	48 8b 84 24 a0 02 00 	mov    0x2a0(%rsp),%rax
   1800025c7:	00 
   1800025c8:	48 8b c8             	mov    %rax,%rcx
   1800025cb:	e8 8c f6 ff ff       	callq  0x180001c5c
   1800025d0:	48 8d 84 24 b0 00 00 	lea    0xb0(%rsp),%rax
   1800025d7:	00 
   1800025d8:	b9 08 00 00 00       	mov    $0x8,%ecx
   1800025dd:	48 6b c9 03          	imul   $0x3,%rcx,%rcx
   1800025e1:	48 8d 8c 0c c0 02 00 	lea    0x2c0(%rsp,%rcx,1),%rcx
   1800025e8:	00 
   1800025e9:	48 8d 94 24 b8 00 00 	lea    0xb8(%rsp),%rdx
   1800025f0:	00 
   1800025f1:	48 89 94 24 20 01 00 	mov    %rdx,0x120(%rsp)
   1800025f8:	00 
   1800025f9:	4c 8b c0             	mov    %rax,%r8
   1800025fc:	48 8b d1             	mov    %rcx,%rdx
   1800025ff:	48 8b 84 24 20 01 00 	mov    0x120(%rsp),%rax
   180002606:	00 
   180002607:	48 8b c8             	mov    %rax,%rcx
   18000260a:	e8 4d f6 ff ff       	callq  0x180001c5c
   18000260f:	81 bc 24 50 03 00 00 	cmpl   $0x80,0x350(%rsp)
   180002616:	80 00 00 00 
   18000261a:	0f 86 c6 00 00 00    	jbe    0x1800026e6
   180002620:	48 c7 44 24 20 00 00 	movq   $0x0,0x20(%rsp)
   180002627:	00 00 
   180002629:	eb 0d                	jmp    0x180002638
   18000262b:	48 8b 44 24 20       	mov    0x20(%rsp),%rax
   180002630:	48 ff c0             	inc    %rax
   180002633:	48 89 44 24 20       	mov    %rax,0x20(%rsp)
   180002638:	48 83 7c 24 20 04    	cmpq   $0x4,0x20(%rsp)
   18000263e:	73 28                	jae    0x180002668
   180002640:	48 8b 44 24 20       	mov    0x20(%rsp),%rax
   180002645:	48 8b 4c 24 20       	mov    0x20(%rsp),%rcx
   18000264a:	8b 8c 8c b0 00 00 00 	mov    0xb0(%rsp,%rcx,4),%ecx
   180002651:	8b 84 84 a0 00 00 00 	mov    0xa0(%rsp,%rax,4),%eax
   180002658:	33 c1                	xor    %ecx,%eax
   18000265a:	48 8b 4c 24 20       	mov    0x20(%rsp),%rcx
   18000265f:	89 84 8c c0 00 00 00 	mov    %eax,0xc0(%rsp,%rcx,4)
   180002666:	eb c3                	jmp    0x18000262b
   180002668:	48 8d 84 24 c8 00 00 	lea    0xc8(%rsp),%rax
   18000266f:	00 
   180002670:	b9 08 00 00 00       	mov    $0x8,%ecx
   180002675:	48 6b c9 04          	imul   $0x4,%rcx,%rcx
   180002679:	48 8d 8c 0c c0 02 00 	lea    0x2c0(%rsp,%rcx,1),%rcx
   180002680:	00 
   180002681:	48 8d 94 24 c0 00 00 	lea    0xc0(%rsp),%rdx
   180002688:	00 
   180002689:	48 89 94 24 60 02 00 	mov    %rdx,0x260(%rsp)
   180002690:	00 
   180002691:	4c 8b c0             	mov    %rax,%r8
   180002694:	48 8b d1             	mov    %rcx,%rdx
   180002697:	48 8b 84 24 60 02 00 	mov    0x260(%rsp),%rax
   18000269e:	00 
   18000269f:	48 8b c8             	mov    %rax,%rcx
   1800026a2:	e8 b5 f5 ff ff       	callq  0x180001c5c
   1800026a7:	48 8d 84 24 c0 00 00 	lea    0xc0(%rsp),%rax
   1800026ae:	00 
   1800026af:	b9 08 00 00 00       	mov    $0x8,%ecx
   1800026b4:	48 6b c9 05          	imul   $0x5,%rcx,%rcx
   1800026b8:	48 8d 8c 0c c0 02 00 	lea    0x2c0(%rsp,%rcx,1),%rcx
   1800026bf:	00 
   1800026c0:	48 8d 94 24 c8 00 00 	lea    0xc8(%rsp),%rdx
   1800026c7:	00 
   1800026c8:	48 89 94 24 30 01 00 	mov    %rdx,0x130(%rsp)
   1800026cf:	00 
   1800026d0:	4c 8b c0             	mov    %rax,%r8
   1800026d3:	48 8b d1             	mov    %rcx,%rdx
   1800026d6:	48 8b 84 24 30 01 00 	mov    0x130(%rsp),%rax
   1800026dd:	00 
   1800026de:	48 8b c8             	mov    %rax,%rcx
   1800026e1:	e8 76 f5 ff ff       	callq  0x180001c5c
   1800026e6:	b8 04 00 00 00       	mov    $0x4,%eax
   1800026eb:	48 6b c0 00          	imul   $0x0,%rax,%rax
   1800026ef:	b9 04 00 00 00       	mov    $0x4,%ecx
   1800026f4:	48 6b c9 00          	imul   $0x0,%rcx,%rcx
   1800026f8:	8b 84 04 90 00 00 00 	mov    0x90(%rsp,%rax,1),%eax
   1800026ff:	89 44 0c 40          	mov    %eax,0x40(%rsp,%rcx,1)
   180002703:	b8 04 00 00 00       	mov    $0x4,%eax
   180002708:	48 6b c0 01          	imul   $0x1,%rax,%rax
   18000270c:	b9 04 00 00 00       	mov    $0x4,%ecx
   180002711:	48 6b c9 01          	imul   $0x1,%rcx,%rcx
   180002715:	8b 84 04 90 00 00 00 	mov    0x90(%rsp,%rax,1),%eax
   18000271c:	89 44 0c 40          	mov    %eax,0x40(%rsp,%rcx,1)
   180002720:	b8 04 00 00 00       	mov    $0x4,%eax
   180002725:	48 6b c0 02          	imul   $0x2,%rax,%rax
   180002729:	b9 04 00 00 00       	mov    $0x4,%ecx
   18000272e:	48 6b c9 02          	imul   $0x2,%rcx,%rcx
   180002732:	8b 84 04 90 00 00 00 	mov    0x90(%rsp,%rax,1),%eax
   180002739:	89 44 0c 40          	mov    %eax,0x40(%rsp,%rcx,1)
   18000273d:	b8 04 00 00 00       	mov    $0x4,%eax
   180002742:	48 6b c0 03          	imul   $0x3,%rax,%rax
   180002746:	b9 04 00 00 00       	mov    $0x4,%ecx
   18000274b:	48 6b c9 03          	imul   $0x3,%rcx,%rcx
   18000274f:	8b 84 04 90 00 00 00 	mov    0x90(%rsp,%rax,1),%eax
   180002756:	89 44 0c 40          	mov    %eax,0x40(%rsp,%rcx,1)
   18000275a:	48 c7 44 24 20 01 00 	movq   $0x1,0x20(%rsp)
   180002761:	00 00 
   180002763:	eb 0d                	jmp    0x180002772
   180002765:	48 8b 44 24 20       	mov    0x20(%rsp),%rax
   18000276a:	48 ff c0             	inc    %rax
   18000276d:	48 89 44 24 20       	mov    %rax,0x20(%rsp)
   180002772:	48 83 7c 24 20 04    	cmpq   $0x4,0x20(%rsp)
   180002778:	0f 87 0d 03 00 00    	ja     0x180002a8b
   18000277e:	48 63 44 24 28       	movslq 0x28(%rsp),%rax
   180002783:	48 6b c0 10          	imul   $0x10,%rax,%rax
   180002787:	48 8d 0d a2 1d 00 00 	lea    0x1da2(%rip),%rcx        # 0x180004530
   18000278e:	48 03 c8             	add    %rax,%rcx
   180002791:	48 8b c1             	mov    %rcx,%rax
   180002794:	b9 04 00 00 00       	mov    $0x4,%ecx
   180002799:	48 6b c9 00          	imul   $0x0,%rcx,%rcx
   18000279d:	48 03 c1             	add    %rcx,%rax
   1800027a0:	48 8b 4c 24 20       	mov    0x20(%rsp),%rcx
   1800027a5:	0f b6 44 08 ff       	movzbl -0x1(%rax,%rcx,1),%eax
   1800027aa:	85 c0                	test   %eax,%eax
   1800027ac:	0f 84 d4 02 00 00    	je     0x180002a86
   1800027b2:	b8 04 00 00 00       	mov    $0x4,%eax
   1800027b7:	48 6b c0 00          	imul   $0x0,%rax,%rax
   1800027bb:	48 89 84 24 00 02 00 	mov    %rax,0x200(%rsp)
   1800027c2:	00 
   1800027c3:	48 6b 4c 24 20 0f    	imul   $0xf,0x20(%rsp),%rcx
   1800027c9:	33 d2                	xor    %edx,%edx
   1800027cb:	48 8b c1             	mov    %rcx,%rax
   1800027ce:	b9 20 00 00 00       	mov    $0x20,%ecx
   1800027d3:	48 f7 f1             	div    %rcx
   1800027d6:	48 8b c2             	mov    %rdx,%rax
   1800027d9:	8a c8                	mov    %al,%cl
   1800027db:	48 8b 84 24 00 02 00 	mov    0x200(%rsp),%rax
   1800027e2:	00 
   1800027e3:	8b 44 04 40          	mov    0x40(%rsp,%rax,1),%eax
   1800027e7:	d3 e0                	shl    %cl,%eax
   1800027e9:	89 84 24 f8 00 00 00 	mov    %eax,0xf8(%rsp)
   1800027f0:	b9 04 00 00 00       	mov    $0x4,%ecx
   1800027f5:	48 6b c9 01          	imul   $0x1,%rcx,%rcx
   1800027f9:	48 89 8c 24 98 02 00 	mov    %rcx,0x298(%rsp)
   180002800:	00 
   180002801:	48 6b 54 24 20 0f    	imul   $0xf,0x20(%rsp),%rdx
   180002807:	48 89 94 24 40 01 00 	mov    %rdx,0x140(%rsp)
   18000280e:	00 
   18000280f:	33 d2                	xor    %edx,%edx
   180002811:	48 8b bc 24 40 01 00 	mov    0x140(%rsp),%rdi
   180002818:	00 
   180002819:	48 8b c7             	mov    %rdi,%rax
   18000281c:	bf 20 00 00 00       	mov    $0x20,%edi
   180002821:	48 f7 f7             	div    %rdi
   180002824:	48 8b c2             	mov    %rdx,%rax
   180002827:	ba 20 00 00 00       	mov    $0x20,%edx
   18000282c:	48 2b d0             	sub    %rax,%rdx
   18000282f:	48 8b c2             	mov    %rdx,%rax
   180002832:	8a c8                	mov    %al,%cl
   180002834:	48 8b 84 24 98 02 00 	mov    0x298(%rsp),%rax
   18000283b:	00 
   18000283c:	8b 44 04 40          	mov    0x40(%rsp,%rax,1),%eax
   180002840:	d3 e8                	shr    %cl,%eax
   180002842:	8b 8c 24 f8 00 00 00 	mov    0xf8(%rsp),%ecx
   180002849:	33 c8                	xor    %eax,%ecx
   18000284b:	8b c1                	mov    %ecx,%eax
   18000284d:	48 8b 4c 24 20       	mov    0x20(%rsp),%rcx
   180002852:	48 c1 e1 02          	shl    $0x2,%rcx
   180002856:	48 8d 4c 8c 40       	lea    0x40(%rsp,%rcx,4),%rcx
   18000285b:	ba 04 00 00 00       	mov    $0x4,%edx
   180002860:	48 6b d2 00          	imul   $0x0,%rdx,%rdx
   180002864:	89 04 11             	mov    %eax,(%rcx,%rdx,1)
   180002867:	b8 04 00 00 00       	mov    $0x4,%eax
   18000286c:	48 6b c0 01          	imul   $0x1,%rax,%rax
   180002870:	48 89 84 24 50 01 00 	mov    %rax,0x150(%rsp)
   180002877:	00 
   180002878:	48 6b 4c 24 20 0f    	imul   $0xf,0x20(%rsp),%rcx
   18000287e:	33 d2                	xor    %edx,%edx
   180002880:	48 8b c1             	mov    %rcx,%rax
   180002883:	b9 20 00 00 00       	mov    $0x20,%ecx
   180002888:	48 f7 f1             	div    %rcx
   18000288b:	48 8b c2             	mov    %rdx,%rax
   18000288e:	8a c8                	mov    %al,%cl
   180002890:	48 8b 84 24 50 01 00 	mov    0x150(%rsp),%rax
   180002897:	00 
   180002898:	8b 44 04 40          	mov    0x40(%rsp,%rax,1),%eax
   18000289c:	d3 e0                	shl    %cl,%eax
   18000289e:	89 84 24 f4 00 00 00 	mov    %eax,0xf4(%rsp)
   1800028a5:	b9 04 00 00 00       	mov    $0x4,%ecx
   1800028aa:	48 6b c9 02          	imul   $0x2,%rcx,%rcx
   1800028ae:	48 89 8c 24 60 01 00 	mov    %rcx,0x160(%rsp)
   1800028b5:	00 
   1800028b6:	48 6b 54 24 20 0f    	imul   $0xf,0x20(%rsp),%rdx
   1800028bc:	48 89 94 24 10 02 00 	mov    %rdx,0x210(%rsp)
   1800028c3:	00 
   1800028c4:	33 d2                	xor    %edx,%edx
   1800028c6:	48 8b bc 24 10 02 00 	mov    0x210(%rsp),%rdi
   1800028cd:	00 
   1800028ce:	48 8b c7             	mov    %rdi,%rax
   1800028d1:	bf 20 00 00 00       	mov    $0x20,%edi
   1800028d6:	48 f7 f7             	div    %rdi
   1800028d9:	48 8b c2             	mov    %rdx,%rax
   1800028dc:	ba 20 00 00 00       	mov    $0x20,%edx
   1800028e1:	48 2b d0             	sub    %rax,%rdx
   1800028e4:	48 8b c2             	mov    %rdx,%rax
   1800028e7:	8a c8                	mov    %al,%cl
   1800028e9:	48 8b 84 24 60 01 00 	mov    0x160(%rsp),%rax
   1800028f0:	00 
   1800028f1:	8b 44 04 40          	mov    0x40(%rsp,%rax,1),%eax
   1800028f5:	d3 e8                	shr    %cl,%eax
   1800028f7:	8b 8c 24 f4 00 00 00 	mov    0xf4(%rsp),%ecx
   1800028fe:	33 c8                	xor    %eax,%ecx
   180002900:	8b c1                	mov    %ecx,%eax
   180002902:	48 8b 4c 24 20       	mov    0x20(%rsp),%rcx
   180002907:	48 c1 e1 02          	shl    $0x2,%rcx
   18000290b:	48 8d 4c 8c 40       	lea    0x40(%rsp,%rcx,4),%rcx
   180002910:	ba 04 00 00 00       	mov    $0x4,%edx
   180002915:	48 6b d2 01          	imul   $0x1,%rdx,%rdx
   180002919:	89 04 11             	mov    %eax,(%rcx,%rdx,1)
   18000291c:	b8 04 00 00 00       	mov    $0x4,%eax
   180002921:	48 6b c0 02          	imul   $0x2,%rax,%rax
   180002925:	48 89 84 24 70 02 00 	mov    %rax,0x270(%rsp)
   18000292c:	00 
   18000292d:	48 6b 4c 24 20 0f    	imul   $0xf,0x20(%rsp),%rcx
   180002933:	33 d2                	xor    %edx,%edx
   180002935:	48 8b c1             	mov    %rcx,%rax
   180002938:	b9 20 00 00 00       	mov    $0x20,%ecx
   18000293d:	48 f7 f1             	div    %rcx
   180002940:	48 8b c2             	mov    %rdx,%rax
   180002943:	8a c8                	mov    %al,%cl
   180002945:	48 8b 84 24 70 02 00 	mov    0x270(%rsp),%rax
   18000294c:	00 
   18000294d:	8b 44 04 40          	mov    0x40(%rsp,%rax,1),%eax
   180002951:	d3 e0                	shl    %cl,%eax
   180002953:	89 84 24 fc 00 00 00 	mov    %eax,0xfc(%rsp)
   18000295a:	b9 04 00 00 00       	mov    $0x4,%ecx
   18000295f:	48 6b c9 03          	imul   $0x3,%rcx,%rcx
   180002963:	48 89 8c 24 20 02 00 	mov    %rcx,0x220(%rsp)
   18000296a:	00 
   18000296b:	48 6b 54 24 20 0f    	imul   $0xf,0x20(%rsp),%rdx
   180002971:	48 89 94 24 70 01 00 	mov    %rdx,0x170(%rsp)
   180002978:	00 
   180002979:	33 d2                	xor    %edx,%edx
   18000297b:	48 8b bc 24 70 01 00 	mov    0x170(%rsp),%rdi
   180002982:	00 
   180002983:	48 8b c7             	mov    %rdi,%rax
   180002986:	bf 20 00 00 00       	mov    $0x20,%edi
   18000298b:	48 f7 f7             	div    %rdi
   18000298e:	48 8b c2             	mov    %rdx,%rax
   180002991:	ba 20 00 00 00       	mov    $0x20,%edx
   180002996:	48 2b d0             	sub    %rax,%rdx
   180002999:	48 8b c2             	mov    %rdx,%rax
   18000299c:	8a c8                	mov    %al,%cl
   18000299e:	48 8b 84 24 20 02 00 	mov    0x220(%rsp),%rax
   1800029a5:	00 
   1800029a6:	8b 44 04 40          	mov    0x40(%rsp,%rax,1),%eax
   1800029aa:	d3 e8                	shr    %cl,%eax
   1800029ac:	8b 8c 24 fc 00 00 00 	mov    0xfc(%rsp),%ecx
   1800029b3:	33 c8                	xor    %eax,%ecx
   1800029b5:	8b c1                	mov    %ecx,%eax
   1800029b7:	48 8b 4c 24 20       	mov    0x20(%rsp),%rcx
   1800029bc:	48 c1 e1 02          	shl    $0x2,%rcx
   1800029c0:	48 8d 4c 8c 40       	lea    0x40(%rsp,%rcx,4),%rcx
   1800029c5:	ba 04 00 00 00       	mov    $0x4,%edx
   1800029ca:	48 6b d2 02          	imul   $0x2,%rdx,%rdx
   1800029ce:	89 04 11             	mov    %eax,(%rcx,%rdx,1)
   1800029d1:	b8 04 00 00 00       	mov    $0x4,%eax
   1800029d6:	48 6b c0 03          	imul   $0x3,%rax,%rax
   1800029da:	48 89 84 24 80 01 00 	mov    %rax,0x180(%rsp)
   1800029e1:	00 
   1800029e2:	48 6b 4c 24 20 0f    	imul   $0xf,0x20(%rsp),%rcx
   1800029e8:	33 d2                	xor    %edx,%edx
   1800029ea:	48 8b c1             	mov    %rcx,%rax
   1800029ed:	b9 20 00 00 00       	mov    $0x20,%ecx
   1800029f2:	48 f7 f1             	div    %rcx
   1800029f5:	48 8b c2             	mov    %rdx,%rax
   1800029f8:	8a c8                	mov    %al,%cl
   1800029fa:	48 8b 84 24 80 01 00 	mov    0x180(%rsp),%rax
   180002a01:	00 
   180002a02:	8b 44 04 40          	mov    0x40(%rsp,%rax,1),%eax
   180002a06:	d3 e0                	shl    %cl,%eax
   180002a08:	89 84 24 04 01 00 00 	mov    %eax,0x104(%rsp)
   180002a0f:	b9 04 00 00 00       	mov    $0x4,%ecx
   180002a14:	48 6b c9 00          	imul   $0x0,%rcx,%rcx
   180002a18:	48 89 8c 24 90 01 00 	mov    %rcx,0x190(%rsp)
   180002a1f:	00 
   180002a20:	48 6b 54 24 20 0f    	imul   $0xf,0x20(%rsp),%rdx
   180002a26:	48 89 94 24 a8 02 00 	mov    %rdx,0x2a8(%rsp)
   180002a2d:	00 
   180002a2e:	33 d2                	xor    %edx,%edx
   180002a30:	48 8b bc 24 a8 02 00 	mov    0x2a8(%rsp),%rdi
   180002a37:	00 
   180002a38:	48 8b c7             	mov    %rdi,%rax
   180002a3b:	bf 20 00 00 00       	mov    $0x20,%edi
   180002a40:	48 f7 f7             	div    %rdi
   180002a43:	48 8b c2             	mov    %rdx,%rax
   180002a46:	ba 20 00 00 00       	mov    $0x20,%edx
   180002a4b:	48 2b d0             	sub    %rax,%rdx
   180002a4e:	48 8b c2             	mov    %rdx,%rax
   180002a51:	8a c8                	mov    %al,%cl
   180002a53:	48 8b 84 24 90 01 00 	mov    0x190(%rsp),%rax
   180002a5a:	00 
   180002a5b:	8b 44 04 40          	mov    0x40(%rsp,%rax,1),%eax
   180002a5f:	d3 e8                	shr    %cl,%eax
   180002a61:	8b 8c 24 04 01 00 00 	mov    0x104(%rsp),%ecx
   180002a68:	33 c8                	xor    %eax,%ecx
   180002a6a:	8b c1                	mov    %ecx,%eax
   180002a6c:	48 8b 4c 24 20       	mov    0x20(%rsp),%rcx
   180002a71:	48 c1 e1 02          	shl    $0x2,%rcx
   180002a75:	48 8d 4c 8c 40       	lea    0x40(%rsp,%rcx,4),%rcx
   180002a7a:	ba 04 00 00 00       	mov    $0x4,%edx
   180002a7f:	48 6b d2 03          	imul   $0x3,%rdx,%rdx
   180002a83:	89 04 11             	mov    %eax,(%rcx,%rdx,1)
   180002a86:	e9 da fc ff ff       	jmpq   0x180002765
   180002a8b:	48 c7 44 24 20 00 00 	movq   $0x0,0x20(%rsp)
   180002a92:	00 00 
   180002a94:	eb 0d                	jmp    0x180002aa3
   180002a96:	48 8b 44 24 20       	mov    0x20(%rsp),%rax
   180002a9b:	48 ff c0             	inc    %rax
   180002a9e:	48 89 44 24 20       	mov    %rax,0x20(%rsp)
   180002aa3:	48 83 7c 24 20 14    	cmpq   $0x14,0x20(%rsp)
   180002aa9:	73 72                	jae    0x180002b1d
   180002aab:	48 63 44 24 28       	movslq 0x28(%rsp),%rax
   180002ab0:	48 6b c0 50          	imul   $0x50,%rax,%rax
   180002ab4:	48 8d 0d 95 1a 00 00 	lea    0x1a95(%rip),%rcx        # 0x180004550
   180002abb:	48 03 c8             	add    %rax,%rcx
   180002abe:	48 8b c1             	mov    %rcx,%rax
   180002ac1:	b9 14 00 00 00       	mov    $0x14,%ecx
   180002ac6:	48 6b c9 00          	imul   $0x0,%rcx,%rcx
   180002aca:	48 03 c1             	add    %rcx,%rax
   180002acd:	48 8b 4c 24 20       	mov    0x20(%rsp),%rcx
   180002ad2:	0f be 04 08          	movsbl (%rax,%rcx,1),%eax
   180002ad6:	83 f8 ff             	cmp    $0xffffffff,%eax
   180002ad9:	74 3d                	je     0x180002b18
   180002adb:	48 63 44 24 28       	movslq 0x28(%rsp),%rax
   180002ae0:	48 6b c0 50          	imul   $0x50,%rax,%rax
   180002ae4:	48 8d 0d 65 1a 00 00 	lea    0x1a65(%rip),%rcx        # 0x180004550
   180002aeb:	48 03 c8             	add    %rax,%rcx
   180002aee:	48 8b c1             	mov    %rcx,%rax
   180002af1:	b9 14 00 00 00       	mov    $0x14,%ecx
   180002af6:	48 6b c9 00          	imul   $0x0,%rcx,%rcx
   180002afa:	48 03 c1             	add    %rcx,%rax
   180002afd:	48 8b 4c 24 20       	mov    0x20(%rsp),%rcx
   180002b02:	48 0f be 04 08       	movsbq (%rax,%rcx,1),%rax
   180002b07:	48 8b 4c 24 30       	mov    0x30(%rsp),%rcx
   180002b0c:	48 8b 54 24 20       	mov    0x20(%rsp),%rdx
   180002b11:	8b 54 94 40          	mov    0x40(%rsp,%rdx,4),%edx
   180002b15:	89 14 81             	mov    %edx,(%rcx,%rax,4)
   180002b18:	e9 79 ff ff ff       	jmpq   0x180002a96
   180002b1d:	81 bc 24 50 03 00 00 	cmpl   $0x80,0x350(%rsp)
   180002b24:	80 00 00 00 
   180002b28:	0f 86 37 04 00 00    	jbe    0x180002f65
   180002b2e:	b8 04 00 00 00       	mov    $0x4,%eax
   180002b33:	48 6b c0 04          	imul   $0x4,%rax,%rax
   180002b37:	b9 04 00 00 00       	mov    $0x4,%ecx
   180002b3c:	48 6b c9 00          	imul   $0x0,%rcx,%rcx
   180002b40:	8b 84 04 90 00 00 00 	mov    0x90(%rsp,%rax,1),%eax
   180002b47:	89 44 0c 40          	mov    %eax,0x40(%rsp,%rcx,1)
   180002b4b:	b8 04 00 00 00       	mov    $0x4,%eax
   180002b50:	48 6b c0 05          	imul   $0x5,%rax,%rax
   180002b54:	b9 04 00 00 00       	mov    $0x4,%ecx
   180002b59:	48 6b c9 01          	imul   $0x1,%rcx,%rcx
   180002b5d:	8b 84 04 90 00 00 00 	mov    0x90(%rsp,%rax,1),%eax
   180002b64:	89 44 0c 40          	mov    %eax,0x40(%rsp,%rcx,1)
   180002b68:	b8 04 00 00 00       	mov    $0x4,%eax
   180002b6d:	48 6b c0 06          	imul   $0x6,%rax,%rax
   180002b71:	b9 04 00 00 00       	mov    $0x4,%ecx
   180002b76:	48 6b c9 02          	imul   $0x2,%rcx,%rcx
   180002b7a:	8b 84 04 90 00 00 00 	mov    0x90(%rsp,%rax,1),%eax
   180002b81:	89 44 0c 40          	mov    %eax,0x40(%rsp,%rcx,1)
   180002b85:	b8 04 00 00 00       	mov    $0x4,%eax
   180002b8a:	48 6b c0 07          	imul   $0x7,%rax,%rax
   180002b8e:	b9 04 00 00 00       	mov    $0x4,%ecx
   180002b93:	48 6b c9 03          	imul   $0x3,%rcx,%rcx
   180002b97:	8b 84 04 90 00 00 00 	mov    0x90(%rsp,%rax,1),%eax
   180002b9e:	89 44 0c 40          	mov    %eax,0x40(%rsp,%rcx,1)
   180002ba2:	48 c7 44 24 20 01 00 	movq   $0x1,0x20(%rsp)
   180002ba9:	00 00 
   180002bab:	eb 0d                	jmp    0x180002bba
   180002bad:	48 8b 44 24 20       	mov    0x20(%rsp),%rax
   180002bb2:	48 ff c0             	inc    %rax
   180002bb5:	48 89 44 24 20       	mov    %rax,0x20(%rsp)
   180002bba:	48 83 7c 24 20 04    	cmpq   $0x4,0x20(%rsp)
   180002bc0:	0f 87 0d 03 00 00    	ja     0x180002ed3
   180002bc6:	48 63 44 24 28       	movslq 0x28(%rsp),%rax
   180002bcb:	48 6b c0 10          	imul   $0x10,%rax,%rax
   180002bcf:	48 8d 0d 5a 19 00 00 	lea    0x195a(%rip),%rcx        # 0x180004530
   180002bd6:	48 03 c8             	add    %rax,%rcx
   180002bd9:	48 8b c1             	mov    %rcx,%rax
   180002bdc:	b9 04 00 00 00       	mov    $0x4,%ecx
   180002be1:	48 6b c9 01          	imul   $0x1,%rcx,%rcx
   180002be5:	48 03 c1             	add    %rcx,%rax
   180002be8:	48 8b 4c 24 20       	mov    0x20(%rsp),%rcx
   180002bed:	0f b6 44 08 ff       	movzbl -0x1(%rax,%rcx,1),%eax
   180002bf2:	85 c0                	test   %eax,%eax
   180002bf4:	0f 84 d4 02 00 00    	je     0x180002ece
   180002bfa:	b8 04 00 00 00       	mov    $0x4,%eax
   180002bff:	48 6b c0 00          	imul   $0x0,%rax,%rax
   180002c03:	48 89 84 24 10 01 00 	mov    %rax,0x110(%rsp)
   180002c0a:	00 
   180002c0b:	48 6b 4c 24 20 0f    	imul   $0xf,0x20(%rsp),%rcx
   180002c11:	33 d2                	xor    %edx,%edx
   180002c13:	48 8b c1             	mov    %rcx,%rax
   180002c16:	b9 20 00 00 00       	mov    $0x20,%ecx
   180002c1b:	48 f7 f1             	div    %rcx
   180002c1e:	48 8b c2             	mov    %rdx,%rax
   180002c21:	8a c8                	mov    %al,%cl
   180002c23:	48 8b 84 24 10 01 00 	mov    0x110(%rsp),%rax
   180002c2a:	00 
   180002c2b:	8b 44 04 40          	mov    0x40(%rsp,%rax,1),%eax
   180002c2f:	d3 e0                	shl    %cl,%eax
   180002c31:	89 84 24 0c 01 00 00 	mov    %eax,0x10c(%rsp)
   180002c38:	b9 04 00 00 00       	mov    $0x4,%ecx
   180002c3d:	48 6b c9 01          	imul   $0x1,%rcx,%rcx
   180002c41:	48 89 8c 24 80 02 00 	mov    %rcx,0x280(%rsp)
   180002c48:	00 
   180002c49:	48 6b 54 24 20 0f    	imul   $0xf,0x20(%rsp),%rdx
   180002c4f:	48 89 94 24 a0 01 00 	mov    %rdx,0x1a0(%rsp)
   180002c56:	00 
   180002c57:	33 d2                	xor    %edx,%edx
   180002c59:	48 8b bc 24 a0 01 00 	mov    0x1a0(%rsp),%rdi
   180002c60:	00 
   180002c61:	48 8b c7             	mov    %rdi,%rax
   180002c64:	bf 20 00 00 00       	mov    $0x20,%edi
   180002c69:	48 f7 f7             	div    %rdi
   180002c6c:	48 8b c2             	mov    %rdx,%rax
   180002c6f:	ba 20 00 00 00       	mov    $0x20,%edx
   180002c74:	48 2b d0             	sub    %rax,%rdx
   180002c77:	48 8b c2             	mov    %rdx,%rax
   180002c7a:	8a c8                	mov    %al,%cl
   180002c7c:	48 8b 84 24 80 02 00 	mov    0x280(%rsp),%rax
   180002c83:	00 
   180002c84:	8b 44 04 40          	mov    0x40(%rsp,%rax,1),%eax
   180002c88:	d3 e8                	shr    %cl,%eax
   180002c8a:	8b 8c 24 0c 01 00 00 	mov    0x10c(%rsp),%ecx
   180002c91:	33 c8                	xor    %eax,%ecx
   180002c93:	8b c1                	mov    %ecx,%eax
   180002c95:	48 8b 4c 24 20       	mov    0x20(%rsp),%rcx
   180002c9a:	48 c1 e1 02          	shl    $0x2,%rcx
   180002c9e:	48 8d 4c 8c 40       	lea    0x40(%rsp,%rcx,4),%rcx
   180002ca3:	ba 04 00 00 00       	mov    $0x4,%edx
   180002ca8:	48 6b d2 00          	imul   $0x0,%rdx,%rdx
   180002cac:	89 04 11             	mov    %eax,(%rcx,%rdx,1)
   180002caf:	b8 04 00 00 00       	mov    $0x4,%eax
   180002cb4:	48 6b c0 01          	imul   $0x1,%rax,%rax
   180002cb8:	48 89 84 24 b0 01 00 	mov    %rax,0x1b0(%rsp)
   180002cbf:	00 
   180002cc0:	48 6b 4c 24 20 0f    	imul   $0xf,0x20(%rsp),%rcx
   180002cc6:	33 d2                	xor    %edx,%edx
   180002cc8:	48 8b c1             	mov    %rcx,%rax
   180002ccb:	b9 20 00 00 00       	mov    $0x20,%ecx
   180002cd0:	48 f7 f1             	div    %rcx
   180002cd3:	48 8b c2             	mov    %rdx,%rax
   180002cd6:	8a c8                	mov    %al,%cl
   180002cd8:	48 8b 84 24 b0 01 00 	mov    0x1b0(%rsp),%rax
   180002cdf:	00 
   180002ce0:	8b 44 04 40          	mov    0x40(%rsp,%rax,1),%eax
   180002ce4:	d3 e0                	shl    %cl,%eax
   180002ce6:	89 84 24 d8 00 00 00 	mov    %eax,0xd8(%rsp)
   180002ced:	b9 04 00 00 00       	mov    $0x4,%ecx
   180002cf2:	48 6b c9 02          	imul   $0x2,%rcx,%rcx
   180002cf6:	48 89 8c 24 c0 01 00 	mov    %rcx,0x1c0(%rsp)
   180002cfd:	00 
   180002cfe:	48 6b 54 24 20 0f    	imul   $0xf,0x20(%rsp),%rdx
   180002d04:	48 89 94 24 40 02 00 	mov    %rdx,0x240(%rsp)
   180002d0b:	00 
   180002d0c:	33 d2                	xor    %edx,%edx
   180002d0e:	48 8b bc 24 40 02 00 	mov    0x240(%rsp),%rdi
   180002d15:	00 
   180002d16:	48 8b c7             	mov    %rdi,%rax
   180002d19:	bf 20 00 00 00       	mov    $0x20,%edi
   180002d1e:	48 f7 f7             	div    %rdi
   180002d21:	48 8b c2             	mov    %rdx,%rax
   180002d24:	ba 20 00 00 00       	mov    $0x20,%edx
   180002d29:	48 2b d0             	sub    %rax,%rdx
   180002d2c:	48 8b c2             	mov    %rdx,%rax
   180002d2f:	8a c8                	mov    %al,%cl
   180002d31:	48 8b 84 24 c0 01 00 	mov    0x1c0(%rsp),%rax
   180002d38:	00 
   180002d39:	8b 44 04 40          	mov    0x40(%rsp,%rax,1),%eax
   180002d3d:	d3 e8                	shr    %cl,%eax
   180002d3f:	8b 8c 24 d8 00 00 00 	mov    0xd8(%rsp),%ecx
   180002d46:	33 c8                	xor    %eax,%ecx
   180002d48:	8b c1                	mov    %ecx,%eax
   180002d4a:	48 8b 4c 24 20       	mov    0x20(%rsp),%rcx
   180002d4f:	48 c1 e1 02          	shl    $0x2,%rcx
   180002d53:	48 8d 4c 8c 40       	lea    0x40(%rsp,%rcx,4),%rcx
   180002d58:	ba 04 00 00 00       	mov    $0x4,%edx
   180002d5d:	48 6b d2 01          	imul   $0x1,%rdx,%rdx
   180002d61:	89 04 11             	mov    %eax,(%rcx,%rdx,1)
   180002d64:	b8 04 00 00 00       	mov    $0x4,%eax
   180002d69:	48 6b c0 02          	imul   $0x2,%rax,%rax
   180002d6d:	48 89 84 24 b0 02 00 	mov    %rax,0x2b0(%rsp)
   180002d74:	00 
   180002d75:	48 6b 4c 24 20 0f    	imul   $0xf,0x20(%rsp),%rcx
   180002d7b:	33 d2                	xor    %edx,%edx
   180002d7d:	48 8b c1             	mov    %rcx,%rax
   180002d80:	b9 20 00 00 00       	mov    $0x20,%ecx
   180002d85:	48 f7 f1             	div    %rcx
   180002d88:	48 8b c2             	mov    %rdx,%rax
   180002d8b:	8a c8                	mov    %al,%cl
   180002d8d:	48 8b 84 24 b0 02 00 	mov    0x2b0(%rsp),%rax
   180002d94:	00 
   180002d95:	8b 44 04 40          	mov    0x40(%rsp,%rax,1),%eax
   180002d99:	d3 e0                	shl    %cl,%eax
   180002d9b:	89 84 24 00 01 00 00 	mov    %eax,0x100(%rsp)
   180002da2:	b9 04 00 00 00       	mov    $0x4,%ecx
   180002da7:	48 6b c9 03          	imul   $0x3,%rcx,%rcx
   180002dab:	48 89 8c 24 50 02 00 	mov    %rcx,0x250(%rsp)
   180002db2:	00 
   180002db3:	48 6b 54 24 20 0f    	imul   $0xf,0x20(%rsp),%rdx
   180002db9:	48 89 94 24 d0 01 00 	mov    %rdx,0x1d0(%rsp)
   180002dc0:	00 
   180002dc1:	33 d2                	xor    %edx,%edx
   180002dc3:	48 8b bc 24 d0 01 00 	mov    0x1d0(%rsp),%rdi
   180002dca:	00 
   180002dcb:	48 8b c7             	mov    %rdi,%rax
   180002dce:	bf 20 00 00 00       	mov    $0x20,%edi
   180002dd3:	48 f7 f7             	div    %rdi
   180002dd6:	48 8b c2             	mov    %rdx,%rax
   180002dd9:	ba 20 00 00 00       	mov    $0x20,%edx
   180002dde:	48 2b d0             	sub    %rax,%rdx
   180002de1:	48 8b c2             	mov    %rdx,%rax
   180002de4:	8a c8                	mov    %al,%cl
   180002de6:	48 8b 84 24 50 02 00 	mov    0x250(%rsp),%rax
   180002ded:	00 
   180002dee:	8b 44 04 40          	mov    0x40(%rsp,%rax,1),%eax
   180002df2:	d3 e8                	shr    %cl,%eax
   180002df4:	8b 8c 24 00 01 00 00 	mov    0x100(%rsp),%ecx
   180002dfb:	33 c8                	xor    %eax,%ecx
   180002dfd:	8b c1                	mov    %ecx,%eax
   180002dff:	48 8b 4c 24 20       	mov    0x20(%rsp),%rcx
   180002e04:	48 c1 e1 02          	shl    $0x2,%rcx
   180002e08:	48 8d 4c 8c 40       	lea    0x40(%rsp,%rcx,4),%rcx
   180002e0d:	ba 04 00 00 00       	mov    $0x4,%edx
   180002e12:	48 6b d2 02          	imul   $0x2,%rdx,%rdx
   180002e16:	89 04 11             	mov    %eax,(%rcx,%rdx,1)
   180002e19:	b8 04 00 00 00       	mov    $0x4,%eax
   180002e1e:	48 6b c0 03          	imul   $0x3,%rax,%rax
   180002e22:	48 89 84 24 e0 01 00 	mov    %rax,0x1e0(%rsp)
   180002e29:	00 
   180002e2a:	48 6b 4c 24 20 0f    	imul   $0xf,0x20(%rsp),%rcx
   180002e30:	33 d2                	xor    %edx,%edx
   180002e32:	48 8b c1             	mov    %rcx,%rax
   180002e35:	b9 20 00 00 00       	mov    $0x20,%ecx
   180002e3a:	48 f7 f1             	div    %rcx
   180002e3d:	48 8b c2             	mov    %rdx,%rax
   180002e40:	8a c8                	mov    %al,%cl
   180002e42:	48 8b 84 24 e0 01 00 	mov    0x1e0(%rsp),%rax
   180002e49:	00 
   180002e4a:	8b 44 04 40          	mov    0x40(%rsp,%rax,1),%eax
   180002e4e:	d3 e0                	shl    %cl,%eax
   180002e50:	89 84 24 e0 00 00 00 	mov    %eax,0xe0(%rsp)
   180002e57:	b9 04 00 00 00       	mov    $0x4,%ecx
   180002e5c:	48 6b c9 00          	imul   $0x0,%rcx,%rcx
   180002e60:	48 89 8c 24 f0 01 00 	mov    %rcx,0x1f0(%rsp)
   180002e67:	00 
   180002e68:	48 6b 54 24 20 0f    	imul   $0xf,0x20(%rsp),%rdx
   180002e6e:	48 89 94 24 90 02 00 	mov    %rdx,0x290(%rsp)
   180002e75:	00 
   180002e76:	33 d2                	xor    %edx,%edx
   180002e78:	48 8b bc 24 90 02 00 	mov    0x290(%rsp),%rdi
   180002e7f:	00 
   180002e80:	48 8b c7             	mov    %rdi,%rax
   180002e83:	bf 20 00 00 00       	mov    $0x20,%edi
   180002e88:	48 f7 f7             	div    %rdi
   180002e8b:	48 8b c2             	mov    %rdx,%rax
   180002e8e:	ba 20 00 00 00       	mov    $0x20,%edx
   180002e93:	48 2b d0             	sub    %rax,%rdx
   180002e96:	48 8b c2             	mov    %rdx,%rax
   180002e99:	8a c8                	mov    %al,%cl
   180002e9b:	48 8b 84 24 f0 01 00 	mov    0x1f0(%rsp),%rax
   180002ea2:	00 
   180002ea3:	8b 44 04 40          	mov    0x40(%rsp,%rax,1),%eax
   180002ea7:	d3 e8                	shr    %cl,%eax
   180002ea9:	8b 8c 24 e0 00 00 00 	mov    0xe0(%rsp),%ecx
   180002eb0:	33 c8                	xor    %eax,%ecx
   180002eb2:	8b c1                	mov    %ecx,%eax
   180002eb4:	48 8b 4c 24 20       	mov    0x20(%rsp),%rcx
   180002eb9:	48 c1 e1 02          	shl    $0x2,%rcx
   180002ebd:	48 8d 4c 8c 40       	lea    0x40(%rsp,%rcx,4),%rcx
   180002ec2:	ba 04 00 00 00       	mov    $0x4,%edx
   180002ec7:	48 6b d2 03          	imul   $0x3,%rdx,%rdx
   180002ecb:	89 04 11             	mov    %eax,(%rcx,%rdx,1)
   180002ece:	e9 da fc ff ff       	jmpq   0x180002bad
   180002ed3:	48 c7 44 24 20 00 00 	movq   $0x0,0x20(%rsp)
   180002eda:	00 00 
   180002edc:	eb 0d                	jmp    0x180002eeb
   180002ede:	48 8b 44 24 20       	mov    0x20(%rsp),%rax
   180002ee3:	48 ff c0             	inc    %rax
   180002ee6:	48 89 44 24 20       	mov    %rax,0x20(%rsp)
   180002eeb:	48 83 7c 24 20 14    	cmpq   $0x14,0x20(%rsp)
   180002ef1:	73 72                	jae    0x180002f65
   180002ef3:	48 63 44 24 28       	movslq 0x28(%rsp),%rax
   180002ef8:	48 6b c0 50          	imul   $0x50,%rax,%rax
   180002efc:	48 8d 0d 4d 16 00 00 	lea    0x164d(%rip),%rcx        # 0x180004550
   180002f03:	48 03 c8             	add    %rax,%rcx
   180002f06:	48 8b c1             	mov    %rcx,%rax
   180002f09:	b9 14 00 00 00       	mov    $0x14,%ecx
   180002f0e:	48 6b c9 01          	imul   $0x1,%rcx,%rcx
   180002f12:	48 03 c1             	add    %rcx,%rax
   180002f15:	48 8b 4c 24 20       	mov    0x20(%rsp),%rcx
   180002f1a:	0f be 04 08          	movsbl (%rax,%rcx,1),%eax
   180002f1e:	83 f8 ff             	cmp    $0xffffffff,%eax
   180002f21:	74 3d                	je     0x180002f60
   180002f23:	48 63 44 24 28       	movslq 0x28(%rsp),%rax
   180002f28:	48 6b c0 50          	imul   $0x50,%rax,%rax
   180002f2c:	48 8d 0d 1d 16 00 00 	lea    0x161d(%rip),%rcx        # 0x180004550
   180002f33:	48 03 c8             	add    %rax,%rcx
   180002f36:	48 8b c1             	mov    %rcx,%rax
   180002f39:	b9 14 00 00 00       	mov    $0x14,%ecx
   180002f3e:	48 6b c9 01          	imul   $0x1,%rcx,%rcx
   180002f42:	48 03 c1             	add    %rcx,%rax
   180002f45:	48 8b 4c 24 20       	mov    0x20(%rsp),%rcx
   180002f4a:	48 0f be 04 08       	movsbq (%rax,%rcx,1),%rax
   180002f4f:	48 8b 4c 24 30       	mov    0x30(%rsp),%rcx
   180002f54:	48 8b 54 24 20       	mov    0x20(%rsp),%rdx
   180002f59:	8b 54 94 40          	mov    0x40(%rsp,%rdx,4),%edx
   180002f5d:	89 14 81             	mov    %edx,(%rcx,%rax,4)
   180002f60:	e9 79 ff ff ff       	jmpq   0x180002ede
   180002f65:	b8 04 00 00 00       	mov    $0x4,%eax
   180002f6a:	48 6b c0 08          	imul   $0x8,%rax,%rax
   180002f6e:	b9 04 00 00 00       	mov    $0x4,%ecx
   180002f73:	48 6b c9 00          	imul   $0x0,%rcx,%rcx
   180002f77:	8b 84 04 90 00 00 00 	mov    0x90(%rsp,%rax,1),%eax
   180002f7e:	89 44 0c 40          	mov    %eax,0x40(%rsp,%rcx,1)
   180002f82:	b8 04 00 00 00       	mov    $0x4,%eax
   180002f87:	48 6b c0 09          	imul   $0x9,%rax,%rax
   180002f8b:	b9 04 00 00 00       	mov    $0x4,%ecx
   180002f90:	48 6b c9 01          	imul   $0x1,%rcx,%rcx
   180002f94:	8b 84 04 90 00 00 00 	mov    0x90(%rsp,%rax,1),%eax
   180002f9b:	89 44 0c 40          	mov    %eax,0x40(%rsp,%rcx,1)
   180002f9f:	b8 04 00 00 00       	mov    $0x4,%eax
   180002fa4:	48 6b c0 0a          	imul   $0xa,%rax,%rax
   180002fa8:	b9 04 00 00 00       	mov    $0x4,%ecx
   180002fad:	48 6b c9 02          	imul   $0x2,%rcx,%rcx
   180002fb1:	8b 84 04 90 00 00 00 	mov    0x90(%rsp,%rax,1),%eax
   180002fb8:	89 44 0c 40          	mov    %eax,0x40(%rsp,%rcx,1)
   180002fbc:	b8 04 00 00 00       	mov    $0x4,%eax
   180002fc1:	48 6b c0 0b          	imul   $0xb,%rax,%rax
   180002fc5:	b9 04 00 00 00       	mov    $0x4,%ecx
   180002fca:	48 6b c9 03          	imul   $0x3,%rcx,%rcx
   180002fce:	8b 84 04 90 00 00 00 	mov    0x90(%rsp,%rax,1),%eax
   180002fd5:	89 44 0c 40          	mov    %eax,0x40(%rsp,%rcx,1)
   180002fd9:	48 c7 44 24 20 01 00 	movq   $0x1,0x20(%rsp)
   180002fe0:	00 00 
   180002fe2:	eb 0d                	jmp    0x180002ff1
   180002fe4:	48 8b 44 24 20       	mov    0x20(%rsp),%rax
   180002fe9:	48 ff c0             	inc    %rax
   180002fec:	48 89 44 24 20       	mov    %rax,0x20(%rsp)
   180002ff1:	48 83 7c 24 20 04    	cmpq   $0x4,0x20(%rsp)
   180002ff7:	0f 87 0d 03 00 00    	ja     0x18000330a
   180002ffd:	48 63 44 24 28       	movslq 0x28(%rsp),%rax
   180003002:	48 6b c0 10          	imul   $0x10,%rax,%rax
   180003006:	48 8d 0d 23 15 00 00 	lea    0x1523(%rip),%rcx        # 0x180004530
   18000300d:	48 03 c8             	add    %rax,%rcx
   180003010:	48 8b c1             	mov    %rcx,%rax
   180003013:	b9 04 00 00 00       	mov    $0x4,%ecx
   180003018:	48 6b c9 02          	imul   $0x2,%rcx,%rcx
   18000301c:	48 03 c1             	add    %rcx,%rax
   18000301f:	48 8b 4c 24 20       	mov    0x20(%rsp),%rcx
   180003024:	0f b6 44 08 ff       	movzbl -0x1(%rax,%rcx,1),%eax
   180003029:	85 c0                	test   %eax,%eax
   18000302b:	0f 84 d4 02 00 00    	je     0x180003305
   180003031:	b8 04 00 00 00       	mov    $0x4,%eax
   180003036:	48 6b c0 00          	imul   $0x0,%rax,%rax
   18000303a:	48 89 84 24 18 01 00 	mov    %rax,0x118(%rsp)
   180003041:	00 
   180003042:	48 6b 4c 24 20 0f    	imul   $0xf,0x20(%rsp),%rcx
   180003048:	33 d2                	xor    %edx,%edx
   18000304a:	48 8b c1             	mov    %rcx,%rax
   18000304d:	b9 20 00 00 00       	mov    $0x20,%ecx
   180003052:	48 f7 f1             	div    %rcx
   180003055:	48 8b c2             	mov    %rdx,%rax
   180003058:	8a c8                	mov    %al,%cl
   18000305a:	48 8b 84 24 18 01 00 	mov    0x118(%rsp),%rax
   180003061:	00 
   180003062:	8b 44 04 40          	mov    0x40(%rsp,%rax,1),%eax
   180003066:	d3 e0                	shl    %cl,%eax
   180003068:	89 84 24 d0 00 00 00 	mov    %eax,0xd0(%rsp)
   18000306f:	b9 04 00 00 00       	mov    $0x4,%ecx
   180003074:	48 6b c9 01          	imul   $0x1,%rcx,%rcx
   180003078:	48 89 8c 24 38 01 00 	mov    %rcx,0x138(%rsp)
   18000307f:	00 
   180003080:	48 6b 54 24 20 0f    	imul   $0xf,0x20(%rsp),%rdx
   180003086:	48 89 94 24 28 01 00 	mov    %rdx,0x128(%rsp)
   18000308d:	00 
   18000308e:	33 d2                	xor    %edx,%edx
   180003090:	48 8b bc 24 28 01 00 	mov    0x128(%rsp),%rdi
   180003097:	00 
   180003098:	48 8b c7             	mov    %rdi,%rax
   18000309b:	bf 20 00 00 00       	mov    $0x20,%edi
   1800030a0:	48 f7 f7             	div    %rdi
   1800030a3:	48 8b c2             	mov    %rdx,%rax
   1800030a6:	ba 20 00 00 00       	mov    $0x20,%edx
   1800030ab:	48 2b d0             	sub    %rax,%rdx
   1800030ae:	48 8b c2             	mov    %rdx,%rax
   1800030b1:	8a c8                	mov    %al,%cl
   1800030b3:	48 8b 84 24 38 01 00 	mov    0x138(%rsp),%rax
   1800030ba:	00 
   1800030bb:	8b 44 04 40          	mov    0x40(%rsp,%rax,1),%eax
   1800030bf:	d3 e8                	shr    %cl,%eax
   1800030c1:	8b 8c 24 d0 00 00 00 	mov    0xd0(%rsp),%ecx
   1800030c8:	33 c8                	xor    %eax,%ecx
   1800030ca:	8b c1                	mov    %ecx,%eax
   1800030cc:	48 8b 4c 24 20       	mov    0x20(%rsp),%rcx
   1800030d1:	48 c1 e1 02          	shl    $0x2,%rcx
   1800030d5:	48 8d 4c 8c 40       	lea    0x40(%rsp,%rcx,4),%rcx
   1800030da:	ba 04 00 00 00       	mov    $0x4,%edx
   1800030df:	48 6b d2 00          	imul   $0x0,%rdx,%rdx
   1800030e3:	89 04 11             	mov    %eax,(%rcx,%rdx,1)
   1800030e6:	b8 04 00 00 00       	mov    $0x4,%eax
   1800030eb:	48 6b c0 01          	imul   $0x1,%rax,%rax
   1800030ef:	48 89 84 24 48 01 00 	mov    %rax,0x148(%rsp)
   1800030f6:	00 
   1800030f7:	48 6b 4c 24 20 0f    	imul   $0xf,0x20(%rsp),%rcx
   1800030fd:	33 d2                	xor    %edx,%edx
   1800030ff:	48 8b c1             	mov    %rcx,%rax
   180003102:	b9 20 00 00 00       	mov    $0x20,%ecx
   180003107:	48 f7 f1             	div    %rcx
   18000310a:	48 8b c2             	mov    %rdx,%rax
   18000310d:	8a c8                	mov    %al,%cl
   18000310f:	48 8b 84 24 48 01 00 	mov    0x148(%rsp),%rax
   180003116:	00 
   180003117:	8b 44 04 40          	mov    0x40(%rsp,%rax,1),%eax
   18000311b:	d3 e0                	shl    %cl,%eax
   18000311d:	89 84 24 e8 00 00 00 	mov    %eax,0xe8(%rsp)
   180003124:	b9 04 00 00 00       	mov    $0x4,%ecx
   180003129:	48 6b c9 02          	imul   $0x2,%rcx,%rcx
   18000312d:	48 89 8c 24 68 01 00 	mov    %rcx,0x168(%rsp)
   180003134:	00 
   180003135:	48 6b 54 24 20 0f    	imul   $0xf,0x20(%rsp),%rdx
   18000313b:	48 89 94 24 58 01 00 	mov    %rdx,0x158(%rsp)
   180003142:	00 
   180003143:	33 d2                	xor    %edx,%edx
   180003145:	48 8b bc 24 58 01 00 	mov    0x158(%rsp),%rdi
   18000314c:	00 
   18000314d:	48 8b c7             	mov    %rdi,%rax
   180003150:	bf 20 00 00 00       	mov    $0x20,%edi
   180003155:	48 f7 f7             	div    %rdi
   180003158:	48 8b c2             	mov    %rdx,%rax
   18000315b:	ba 20 00 00 00       	mov    $0x20,%edx
   180003160:	48 2b d0             	sub    %rax,%rdx
   180003163:	48 8b c2             	mov    %rdx,%rax
   180003166:	8a c8                	mov    %al,%cl
   180003168:	48 8b 84 24 68 01 00 	mov    0x168(%rsp),%rax
   18000316f:	00 
   180003170:	8b 44 04 40          	mov    0x40(%rsp,%rax,1),%eax
   180003174:	d3 e8                	shr    %cl,%eax
   180003176:	8b 8c 24 e8 00 00 00 	mov    0xe8(%rsp),%ecx
   18000317d:	33 c8                	xor    %eax,%ecx
   18000317f:	8b c1                	mov    %ecx,%eax
   180003181:	48 8b 4c 24 20       	mov    0x20(%rsp),%rcx
   180003186:	48 c1 e1 02          	shl    $0x2,%rcx
   18000318a:	48 8d 4c 8c 40       	lea    0x40(%rsp,%rcx,4),%rcx
   18000318f:	ba 04 00 00 00       	mov    $0x4,%edx
   180003194:	48 6b d2 01          	imul   $0x1,%rdx,%rdx
   180003198:	89 04 11             	mov    %eax,(%rcx,%rdx,1)
   18000319b:	b8 04 00 00 00       	mov    $0x4,%eax
   1800031a0:	48 6b c0 02          	imul   $0x2,%rax,%rax
   1800031a4:	48 89 84 24 78 01 00 	mov    %rax,0x178(%rsp)
   1800031ab:	00 
   1800031ac:	48 6b 4c 24 20 0f    	imul   $0xf,0x20(%rsp),%rcx
   1800031b2:	33 d2                	xor    %edx,%edx
   1800031b4:	48 8b c1             	mov    %rcx,%rax
   1800031b7:	b9 20 00 00 00       	mov    $0x20,%ecx
   1800031bc:	48 f7 f1             	div    %rcx
   1800031bf:	48 8b c2             	mov    %rdx,%rax
   1800031c2:	8a c8                	mov    %al,%cl
   1800031c4:	48 8b 84 24 78 01 00 	mov    0x178(%rsp),%rax
   1800031cb:	00 
   1800031cc:	8b 44 04 40          	mov    0x40(%rsp,%rax,1),%eax
   1800031d0:	d3 e0                	shl    %cl,%eax
   1800031d2:	89 84 24 08 01 00 00 	mov    %eax,0x108(%rsp)
   1800031d9:	b9 04 00 00 00       	mov    $0x4,%ecx
   1800031de:	48 6b c9 03          	imul   $0x3,%rcx,%rcx
   1800031e2:	48 89 8c 24 98 01 00 	mov    %rcx,0x198(%rsp)
   1800031e9:	00 
   1800031ea:	48 6b 54 24 20 0f    	imul   $0xf,0x20(%rsp),%rdx
   1800031f0:	48 89 94 24 88 01 00 	mov    %rdx,0x188(%rsp)
   1800031f7:	00 
   1800031f8:	33 d2                	xor    %edx,%edx
   1800031fa:	48 8b bc 24 88 01 00 	mov    0x188(%rsp),%rdi
   180003201:	00 
   180003202:	48 8b c7             	mov    %rdi,%rax
   180003205:	bf 20 00 00 00       	mov    $0x20,%edi
   18000320a:	48 f7 f7             	div    %rdi
   18000320d:	48 8b c2             	mov    %rdx,%rax
   180003210:	ba 20 00 00 00       	mov    $0x20,%edx
   180003215:	48 2b d0             	sub    %rax,%rdx
   180003218:	48 8b c2             	mov    %rdx,%rax
   18000321b:	8a c8                	mov    %al,%cl
   18000321d:	48 8b 84 24 98 01 00 	mov    0x198(%rsp),%rax
   180003224:	00 
   180003225:	8b 44 04 40          	mov    0x40(%rsp,%rax,1),%eax
   180003229:	d3 e8                	shr    %cl,%eax
   18000322b:	8b 8c 24 08 01 00 00 	mov    0x108(%rsp),%ecx
   180003232:	33 c8                	xor    %eax,%ecx
   180003234:	8b c1                	mov    %ecx,%eax
   180003236:	48 8b 4c 24 20       	mov    0x20(%rsp),%rcx
   18000323b:	48 c1 e1 02          	shl    $0x2,%rcx
   18000323f:	48 8d 4c 8c 40       	lea    0x40(%rsp,%rcx,4),%rcx
   180003244:	ba 04 00 00 00       	mov    $0x4,%edx
   180003249:	48 6b d2 02          	imul   $0x2,%rdx,%rdx
   18000324d:	89 04 11             	mov    %eax,(%rcx,%rdx,1)
   180003250:	b8 04 00 00 00       	mov    $0x4,%eax
   180003255:	48 6b c0 03          	imul   $0x3,%rax,%rax
   180003259:	48 89 84 24 a8 01 00 	mov    %rax,0x1a8(%rsp)
   180003260:	00 
   180003261:	48 6b 4c 24 20 0f    	imul   $0xf,0x20(%rsp),%rcx
   180003267:	33 d2                	xor    %edx,%edx
   180003269:	48 8b c1             	mov    %rcx,%rax
   18000326c:	b9 20 00 00 00       	mov    $0x20,%ecx
   180003271:	48 f7 f1             	div    %rcx
   180003274:	48 8b c2             	mov    %rdx,%rax
   180003277:	8a c8                	mov    %al,%cl
   180003279:	48 8b 84 24 a8 01 00 	mov    0x1a8(%rsp),%rax
   180003280:	00 
   180003281:	8b 44 04 40          	mov    0x40(%rsp,%rax,1),%eax
   180003285:	d3 e0                	shl    %cl,%eax
   180003287:	89 84 24 f0 00 00 00 	mov    %eax,0xf0(%rsp)
   18000328e:	b9 04 00 00 00       	mov    $0x4,%ecx
   180003293:	48 6b c9 00          	imul   $0x0,%rcx,%rcx
   180003297:	48 89 8c 24 c8 01 00 	mov    %rcx,0x1c8(%rsp)
   18000329e:	00 
   18000329f:	48 6b 54 24 20 0f    	imul   $0xf,0x20(%rsp),%rdx
   1800032a5:	48 89 94 24 b8 01 00 	mov    %rdx,0x1b8(%rsp)
   1800032ac:	00 
   1800032ad:	33 d2                	xor    %edx,%edx
   1800032af:	48 8b bc 24 b8 01 00 	mov    0x1b8(%rsp),%rdi
   1800032b6:	00 
   1800032b7:	48 8b c7             	mov    %rdi,%rax
   1800032ba:	bf 20 00 00 00       	mov    $0x20,%edi
   1800032bf:	48 f7 f7             	div    %rdi
   1800032c2:	48 8b c2             	mov    %rdx,%rax
   1800032c5:	ba 20 00 00 00       	mov    $0x20,%edx
   1800032ca:	48 2b d0             	sub    %rax,%rdx
   1800032cd:	48 8b c2             	mov    %rdx,%rax
   1800032d0:	8a c8                	mov    %al,%cl
   1800032d2:	48 8b 84 24 c8 01 00 	mov    0x1c8(%rsp),%rax
   1800032d9:	00 
   1800032da:	8b 44 04 40          	mov    0x40(%rsp,%rax,1),%eax
   1800032de:	d3 e8                	shr    %cl,%eax
   1800032e0:	8b 8c 24 f0 00 00 00 	mov    0xf0(%rsp),%ecx
   1800032e7:	33 c8                	xor    %eax,%ecx
   1800032e9:	8b c1                	mov    %ecx,%eax
   1800032eb:	48 8b 4c 24 20       	mov    0x20(%rsp),%rcx
   1800032f0:	48 c1 e1 02          	shl    $0x2,%rcx
   1800032f4:	48 8d 4c 8c 40       	lea    0x40(%rsp,%rcx,4),%rcx
   1800032f9:	ba 04 00 00 00       	mov    $0x4,%edx
   1800032fe:	48 6b d2 03          	imul   $0x3,%rdx,%rdx
   180003302:	89 04 11             	mov    %eax,(%rcx,%rdx,1)
   180003305:	e9 da fc ff ff       	jmpq   0x180002fe4
   18000330a:	48 c7 44 24 20 00 00 	movq   $0x0,0x20(%rsp)
   180003311:	00 00 
   180003313:	eb 0d                	jmp    0x180003322
   180003315:	48 8b 44 24 20       	mov    0x20(%rsp),%rax
   18000331a:	48 ff c0             	inc    %rax
   18000331d:	48 89 44 24 20       	mov    %rax,0x20(%rsp)
   180003322:	48 83 7c 24 20 14    	cmpq   $0x14,0x20(%rsp)
   180003328:	73 72                	jae    0x18000339c
   18000332a:	48 63 44 24 28       	movslq 0x28(%rsp),%rax
   18000332f:	48 6b c0 50          	imul   $0x50,%rax,%rax
   180003333:	48 8d 0d 16 12 00 00 	lea    0x1216(%rip),%rcx        # 0x180004550
   18000333a:	48 03 c8             	add    %rax,%rcx
   18000333d:	48 8b c1             	mov    %rcx,%rax
   180003340:	b9 14 00 00 00       	mov    $0x14,%ecx
   180003345:	48 6b c9 02          	imul   $0x2,%rcx,%rcx
   180003349:	48 03 c1             	add    %rcx,%rax
   18000334c:	48 8b 4c 24 20       	mov    0x20(%rsp),%rcx
   180003351:	0f be 04 08          	movsbl (%rax,%rcx,1),%eax
   180003355:	83 f8 ff             	cmp    $0xffffffff,%eax
   180003358:	74 3d                	je     0x180003397
   18000335a:	48 63 44 24 28       	movslq 0x28(%rsp),%rax
   18000335f:	48 6b c0 50          	imul   $0x50,%rax,%rax
   180003363:	48 8d 0d e6 11 00 00 	lea    0x11e6(%rip),%rcx        # 0x180004550
   18000336a:	48 03 c8             	add    %rax,%rcx
   18000336d:	48 8b c1             	mov    %rcx,%rax
   180003370:	b9 14 00 00 00       	mov    $0x14,%ecx
   180003375:	48 6b c9 02          	imul   $0x2,%rcx,%rcx
   180003379:	48 03 c1             	add    %rcx,%rax
   18000337c:	48 8b 4c 24 20       	mov    0x20(%rsp),%rcx
   180003381:	48 0f be 04 08       	movsbq (%rax,%rcx,1),%rax
   180003386:	48 8b 4c 24 30       	mov    0x30(%rsp),%rcx
   18000338b:	48 8b 54 24 20       	mov    0x20(%rsp),%rdx
   180003390:	8b 54 94 40          	mov    0x40(%rsp,%rdx,4),%edx
   180003394:	89 14 81             	mov    %edx,(%rcx,%rax,4)
   180003397:	e9 79 ff ff ff       	jmpq   0x180003315
   18000339c:	81 bc 24 50 03 00 00 	cmpl   $0x80,0x350(%rsp)
   1800033a3:	80 00 00 00 
   1800033a7:	0f 86 37 04 00 00    	jbe    0x1800037e4
   1800033ad:	b8 04 00 00 00       	mov    $0x4,%eax
   1800033b2:	48 6b c0 0c          	imul   $0xc,%rax,%rax
   1800033b6:	b9 04 00 00 00       	mov    $0x4,%ecx
   1800033bb:	48 6b c9 00          	imul   $0x0,%rcx,%rcx
   1800033bf:	8b 84 04 90 00 00 00 	mov    0x90(%rsp,%rax,1),%eax
   1800033c6:	89 44 0c 40          	mov    %eax,0x40(%rsp,%rcx,1)
   1800033ca:	b8 04 00 00 00       	mov    $0x4,%eax
   1800033cf:	48 6b c0 0d          	imul   $0xd,%rax,%rax
   1800033d3:	b9 04 00 00 00       	mov    $0x4,%ecx
   1800033d8:	48 6b c9 01          	imul   $0x1,%rcx,%rcx
   1800033dc:	8b 84 04 90 00 00 00 	mov    0x90(%rsp,%rax,1),%eax
   1800033e3:	89 44 0c 40          	mov    %eax,0x40(%rsp,%rcx,1)
   1800033e7:	b8 04 00 00 00       	mov    $0x4,%eax
   1800033ec:	48 6b c0 0e          	imul   $0xe,%rax,%rax
   1800033f0:	b9 04 00 00 00       	mov    $0x4,%ecx
   1800033f5:	48 6b c9 02          	imul   $0x2,%rcx,%rcx
   1800033f9:	8b 84 04 90 00 00 00 	mov    0x90(%rsp,%rax,1),%eax
   180003400:	89 44 0c 40          	mov    %eax,0x40(%rsp,%rcx,1)
   180003404:	b8 04 00 00 00       	mov    $0x4,%eax
   180003409:	48 6b c0 0f          	imul   $0xf,%rax,%rax
   18000340d:	b9 04 00 00 00       	mov    $0x4,%ecx
   180003412:	48 6b c9 03          	imul   $0x3,%rcx,%rcx
   180003416:	8b 84 04 90 00 00 00 	mov    0x90(%rsp,%rax,1),%eax
   18000341d:	89 44 0c 40          	mov    %eax,0x40(%rsp,%rcx,1)
   180003421:	48 c7 44 24 20 01 00 	movq   $0x1,0x20(%rsp)
   180003428:	00 00 
   18000342a:	eb 0d                	jmp    0x180003439
   18000342c:	48 8b 44 24 20       	mov    0x20(%rsp),%rax
   180003431:	48 ff c0             	inc    %rax
   180003434:	48 89 44 24 20       	mov    %rax,0x20(%rsp)
   180003439:	48 83 7c 24 20 04    	cmpq   $0x4,0x20(%rsp)
   18000343f:	0f 87 0d 03 00 00    	ja     0x180003752
   180003445:	48 63 44 24 28       	movslq 0x28(%rsp),%rax
   18000344a:	48 6b c0 10          	imul   $0x10,%rax,%rax
   18000344e:	48 8d 0d db 10 00 00 	lea    0x10db(%rip),%rcx        # 0x180004530
   180003455:	48 03 c8             	add    %rax,%rcx
   180003458:	48 8b c1             	mov    %rcx,%rax
   18000345b:	b9 04 00 00 00       	mov    $0x4,%ecx
   180003460:	48 6b c9 03          	imul   $0x3,%rcx,%rcx
   180003464:	48 03 c1             	add    %rcx,%rax
   180003467:	48 8b 4c 24 20       	mov    0x20(%rsp),%rcx
   18000346c:	0f b6 44 08 ff       	movzbl -0x1(%rax,%rcx,1),%eax
   180003471:	85 c0                	test   %eax,%eax
   180003473:	0f 84 d4 02 00 00    	je     0x18000374d
   180003479:	b8 04 00 00 00       	mov    $0x4,%eax
   18000347e:	48 6b c0 00          	imul   $0x0,%rax,%rax
   180003482:	48 89 84 24 d8 01 00 	mov    %rax,0x1d8(%rsp)
   180003489:	00 
   18000348a:	48 6b 4c 24 20 0f    	imul   $0xf,0x20(%rsp),%rcx
   180003490:	33 d2                	xor    %edx,%edx
   180003492:	48 8b c1             	mov    %rcx,%rax
   180003495:	b9 20 00 00 00       	mov    $0x20,%ecx
   18000349a:	48 f7 f1             	div    %rcx
   18000349d:	48 8b c2             	mov    %rdx,%rax
   1800034a0:	8a c8                	mov    %al,%cl
   1800034a2:	48 8b 84 24 d8 01 00 	mov    0x1d8(%rsp),%rax
   1800034a9:	00 
   1800034aa:	8b 44 04 40          	mov    0x40(%rsp,%rax,1),%eax
   1800034ae:	d3 e0                	shl    %cl,%eax
   1800034b0:	89 84 24 d4 00 00 00 	mov    %eax,0xd4(%rsp)
   1800034b7:	b9 04 00 00 00       	mov    $0x4,%ecx
   1800034bc:	48 6b c9 01          	imul   $0x1,%rcx,%rcx
   1800034c0:	48 89 8c 24 f8 01 00 	mov    %rcx,0x1f8(%rsp)
   1800034c7:	00 
   1800034c8:	48 6b 54 24 20 0f    	imul   $0xf,0x20(%rsp),%rdx
   1800034ce:	48 89 94 24 e8 01 00 	mov    %rdx,0x1e8(%rsp)
   1800034d5:	00 
   1800034d6:	33 d2                	xor    %edx,%edx
   1800034d8:	48 8b bc 24 e8 01 00 	mov    0x1e8(%rsp),%rdi
   1800034df:	00 
   1800034e0:	48 8b c7             	mov    %rdi,%rax
   1800034e3:	bf 20 00 00 00       	mov    $0x20,%edi
   1800034e8:	48 f7 f7             	div    %rdi
   1800034eb:	48 8b c2             	mov    %rdx,%rax
   1800034ee:	ba 20 00 00 00       	mov    $0x20,%edx
   1800034f3:	48 2b d0             	sub    %rax,%rdx
   1800034f6:	48 8b c2             	mov    %rdx,%rax
   1800034f9:	8a c8                	mov    %al,%cl
   1800034fb:	48 8b 84 24 f8 01 00 	mov    0x1f8(%rsp),%rax
   180003502:	00 
   180003503:	8b 44 04 40          	mov    0x40(%rsp,%rax,1),%eax
   180003507:	d3 e8                	shr    %cl,%eax
   180003509:	8b 8c 24 d4 00 00 00 	mov    0xd4(%rsp),%ecx
   180003510:	33 c8                	xor    %eax,%ecx
   180003512:	8b c1                	mov    %ecx,%eax
   180003514:	48 8b 4c 24 20       	mov    0x20(%rsp),%rcx
   180003519:	48 c1 e1 02          	shl    $0x2,%rcx
   18000351d:	48 8d 4c 8c 40       	lea    0x40(%rsp,%rcx,4),%rcx
   180003522:	ba 04 00 00 00       	mov    $0x4,%edx
   180003527:	48 6b d2 00          	imul   $0x0,%rdx,%rdx
   18000352b:	89 04 11             	mov    %eax,(%rcx,%rdx,1)
   18000352e:	b8 04 00 00 00       	mov    $0x4,%eax
   180003533:	48 6b c0 01          	imul   $0x1,%rax,%rax
   180003537:	48 89 84 24 08 02 00 	mov    %rax,0x208(%rsp)
   18000353e:	00 
   18000353f:	48 6b 4c 24 20 0f    	imul   $0xf,0x20(%rsp),%rcx
   180003545:	33 d2                	xor    %edx,%edx
   180003547:	48 8b c1             	mov    %rcx,%rax
   18000354a:	b9 20 00 00 00       	mov    $0x20,%ecx
   18000354f:	48 f7 f1             	div    %rcx
   180003552:	48 8b c2             	mov    %rdx,%rax
   180003555:	8a c8                	mov    %al,%cl
   180003557:	48 8b 84 24 08 02 00 	mov    0x208(%rsp),%rax
   18000355e:	00 
   18000355f:	8b 44 04 40          	mov    0x40(%rsp,%rax,1),%eax
   180003563:	d3 e0                	shl    %cl,%eax
   180003565:	89 84 24 dc 00 00 00 	mov    %eax,0xdc(%rsp)
   18000356c:	b9 04 00 00 00       	mov    $0x4,%ecx
   180003571:	48 6b c9 02          	imul   $0x2,%rcx,%rcx
   180003575:	48 89 8c 24 28 02 00 	mov    %rcx,0x228(%rsp)
   18000357c:	00 
   18000357d:	48 6b 54 24 20 0f    	imul   $0xf,0x20(%rsp),%rdx
   180003583:	48 89 94 24 18 02 00 	mov    %rdx,0x218(%rsp)
   18000358a:	00 
   18000358b:	33 d2                	xor    %edx,%edx
   18000358d:	48 8b bc 24 18 02 00 	mov    0x218(%rsp),%rdi
   180003594:	00 
   180003595:	48 8b c7             	mov    %rdi,%rax
   180003598:	bf 20 00 00 00       	mov    $0x20,%edi
   18000359d:	48 f7 f7             	div    %rdi
   1800035a0:	48 8b c2             	mov    %rdx,%rax
   1800035a3:	ba 20 00 00 00       	mov    $0x20,%edx
   1800035a8:	48 2b d0             	sub    %rax,%rdx
   1800035ab:	48 8b c2             	mov    %rdx,%rax
   1800035ae:	8a c8                	mov    %al,%cl
   1800035b0:	48 8b 84 24 28 02 00 	mov    0x228(%rsp),%rax
   1800035b7:	00 
   1800035b8:	8b 44 04 40          	mov    0x40(%rsp,%rax,1),%eax
   1800035bc:	d3 e8                	shr    %cl,%eax
   1800035be:	8b 8c 24 dc 00 00 00 	mov    0xdc(%rsp),%ecx
   1800035c5:	33 c8                	xor    %eax,%ecx
   1800035c7:	8b c1                	mov    %ecx,%eax
   1800035c9:	48 8b 4c 24 20       	mov    0x20(%rsp),%rcx
   1800035ce:	48 c1 e1 02          	shl    $0x2,%rcx
   1800035d2:	48 8d 4c 8c 40       	lea    0x40(%rsp,%rcx,4),%rcx
   1800035d7:	ba 04 00 00 00       	mov    $0x4,%edx
   1800035dc:	48 6b d2 01          	imul   $0x1,%rdx,%rdx
   1800035e0:	89 04 11             	mov    %eax,(%rcx,%rdx,1)
   1800035e3:	b8 04 00 00 00       	mov    $0x4,%eax
   1800035e8:	48 6b c0 02          	imul   $0x2,%rax,%rax
   1800035ec:	48 89 84 24 38 02 00 	mov    %rax,0x238(%rsp)
   1800035f3:	00 
   1800035f4:	48 6b 4c 24 20 0f    	imul   $0xf,0x20(%rsp),%rcx
   1800035fa:	33 d2                	xor    %edx,%edx
   1800035fc:	48 8b c1             	mov    %rcx,%rax
   1800035ff:	b9 20 00 00 00       	mov    $0x20,%ecx
   180003604:	48 f7 f1             	div    %rcx
   180003607:	48 8b c2             	mov    %rdx,%rax
   18000360a:	8a c8                	mov    %al,%cl
   18000360c:	48 8b 84 24 38 02 00 	mov    0x238(%rsp),%rax
   180003613:	00 
   180003614:	8b 44 04 40          	mov    0x40(%rsp,%rax,1),%eax
   180003618:	d3 e0                	shl    %cl,%eax
   18000361a:	89 84 24 e4 00 00 00 	mov    %eax,0xe4(%rsp)
   180003621:	b9 04 00 00 00       	mov    $0x4,%ecx
   180003626:	48 6b c9 03          	imul   $0x3,%rcx,%rcx
   18000362a:	48 89 8c 24 58 02 00 	mov    %rcx,0x258(%rsp)
   180003631:	00 
   180003632:	48 6b 54 24 20 0f    	imul   $0xf,0x20(%rsp),%rdx
   180003638:	48 89 94 24 48 02 00 	mov    %rdx,0x248(%rsp)
   18000363f:	00 
   180003640:	33 d2                	xor    %edx,%edx
   180003642:	48 8b bc 24 48 02 00 	mov    0x248(%rsp),%rdi
   180003649:	00 
   18000364a:	48 8b c7             	mov    %rdi,%rax
   18000364d:	bf 20 00 00 00       	mov    $0x20,%edi
   180003652:	48 f7 f7             	div    %rdi
   180003655:	48 8b c2             	mov    %rdx,%rax
   180003658:	ba 20 00 00 00       	mov    $0x20,%edx
   18000365d:	48 2b d0             	sub    %rax,%rdx
   180003660:	48 8b c2             	mov    %rdx,%rax
   180003663:	8a c8                	mov    %al,%cl
   180003665:	48 8b 84 24 58 02 00 	mov    0x258(%rsp),%rax
   18000366c:	00 
   18000366d:	8b 44 04 40          	mov    0x40(%rsp,%rax,1),%eax
   180003671:	d3 e8                	shr    %cl,%eax
   180003673:	8b 8c 24 e4 00 00 00 	mov    0xe4(%rsp),%ecx
   18000367a:	33 c8                	xor    %eax,%ecx
   18000367c:	8b c1                	mov    %ecx,%eax
   18000367e:	48 8b 4c 24 20       	mov    0x20(%rsp),%rcx
   180003683:	48 c1 e1 02          	shl    $0x2,%rcx
   180003687:	48 8d 4c 8c 40       	lea    0x40(%rsp,%rcx,4),%rcx
   18000368c:	ba 04 00 00 00       	mov    $0x4,%edx
   180003691:	48 6b d2 02          	imul   $0x2,%rdx,%rdx
   180003695:	89 04 11             	mov    %eax,(%rcx,%rdx,1)
   180003698:	b8 04 00 00 00       	mov    $0x4,%eax
   18000369d:	48 6b c0 03          	imul   $0x3,%rax,%rax
   1800036a1:	48 89 84 24 68 02 00 	mov    %rax,0x268(%rsp)
   1800036a8:	00 
   1800036a9:	48 6b 4c 24 20 0f    	imul   $0xf,0x20(%rsp),%rcx
   1800036af:	33 d2                	xor    %edx,%edx
   1800036b1:	48 8b c1             	mov    %rcx,%rax
   1800036b4:	b9 20 00 00 00       	mov    $0x20,%ecx
   1800036b9:	48 f7 f1             	div    %rcx
   1800036bc:	48 8b c2             	mov    %rdx,%rax
   1800036bf:	8a c8                	mov    %al,%cl
   1800036c1:	48 8b 84 24 68 02 00 	mov    0x268(%rsp),%rax
   1800036c8:	00 
   1800036c9:	8b 44 04 40          	mov    0x40(%rsp,%rax,1),%eax
   1800036cd:	d3 e0                	shl    %cl,%eax
   1800036cf:	89 84 24 ec 00 00 00 	mov    %eax,0xec(%rsp)
   1800036d6:	b9 04 00 00 00       	mov    $0x4,%ecx
   1800036db:	48 6b c9 00          	imul   $0x0,%rcx,%rcx
   1800036df:	48 89 8c 24 88 02 00 	mov    %rcx,0x288(%rsp)
   1800036e6:	00 
   1800036e7:	48 6b 54 24 20 0f    	imul   $0xf,0x20(%rsp),%rdx
   1800036ed:	48 89 94 24 78 02 00 	mov    %rdx,0x278(%rsp)
   1800036f4:	00 
   1800036f5:	33 d2                	xor    %edx,%edx
   1800036f7:	48 8b bc 24 78 02 00 	mov    0x278(%rsp),%rdi
   1800036fe:	00 
   1800036ff:	48 8b c7             	mov    %rdi,%rax
   180003702:	bf 20 00 00 00       	mov    $0x20,%edi
   180003707:	48 f7 f7             	div    %rdi
   18000370a:	48 8b c2             	mov    %rdx,%rax
   18000370d:	ba 20 00 00 00       	mov    $0x20,%edx
   180003712:	48 2b d0             	sub    %rax,%rdx
   180003715:	48 8b c2             	mov    %rdx,%rax
   180003718:	8a c8                	mov    %al,%cl
   18000371a:	48 8b 84 24 88 02 00 	mov    0x288(%rsp),%rax
   180003721:	00 
   180003722:	8b 44 04 40          	mov    0x40(%rsp,%rax,1),%eax
   180003726:	d3 e8                	shr    %cl,%eax
   180003728:	8b 8c 24 ec 00 00 00 	mov    0xec(%rsp),%ecx
   18000372f:	33 c8                	xor    %eax,%ecx
   180003731:	8b c1                	mov    %ecx,%eax
   180003733:	48 8b 4c 24 20       	mov    0x20(%rsp),%rcx
   180003738:	48 c1 e1 02          	shl    $0x2,%rcx
   18000373c:	48 8d 4c 8c 40       	lea    0x40(%rsp,%rcx,4),%rcx
   180003741:	ba 04 00 00 00       	mov    $0x4,%edx
   180003746:	48 6b d2 03          	imul   $0x3,%rdx,%rdx
   18000374a:	89 04 11             	mov    %eax,(%rcx,%rdx,1)
   18000374d:	e9 da fc ff ff       	jmpq   0x18000342c
   180003752:	48 c7 44 24 20 00 00 	movq   $0x0,0x20(%rsp)
   180003759:	00 00 
   18000375b:	eb 0d                	jmp    0x18000376a
   18000375d:	48 8b 44 24 20       	mov    0x20(%rsp),%rax
   180003762:	48 ff c0             	inc    %rax
   180003765:	48 89 44 24 20       	mov    %rax,0x20(%rsp)
   18000376a:	48 83 7c 24 20 14    	cmpq   $0x14,0x20(%rsp)
   180003770:	73 72                	jae    0x1800037e4
   180003772:	48 63 44 24 28       	movslq 0x28(%rsp),%rax
   180003777:	48 6b c0 50          	imul   $0x50,%rax,%rax
   18000377b:	48 8d 0d ce 0d 00 00 	lea    0xdce(%rip),%rcx        # 0x180004550
   180003782:	48 03 c8             	add    %rax,%rcx
   180003785:	48 8b c1             	mov    %rcx,%rax
   180003788:	b9 14 00 00 00       	mov    $0x14,%ecx
   18000378d:	48 6b c9 03          	imul   $0x3,%rcx,%rcx
   180003791:	48 03 c1             	add    %rcx,%rax
   180003794:	48 8b 4c 24 20       	mov    0x20(%rsp),%rcx
   180003799:	0f be 04 08          	movsbl (%rax,%rcx,1),%eax
   18000379d:	83 f8 ff             	cmp    $0xffffffff,%eax
   1800037a0:	74 3d                	je     0x1800037df
   1800037a2:	48 63 44 24 28       	movslq 0x28(%rsp),%rax
   1800037a7:	48 6b c0 50          	imul   $0x50,%rax,%rax
   1800037ab:	48 8d 0d 9e 0d 00 00 	lea    0xd9e(%rip),%rcx        # 0x180004550
   1800037b2:	48 03 c8             	add    %rax,%rcx
   1800037b5:	48 8b c1             	mov    %rcx,%rax
   1800037b8:	b9 14 00 00 00       	mov    $0x14,%ecx
   1800037bd:	48 6b c9 03          	imul   $0x3,%rcx,%rcx
   1800037c1:	48 03 c1             	add    %rcx,%rax
   1800037c4:	48 8b 4c 24 20       	mov    0x20(%rsp),%rcx
   1800037c9:	48 0f be 04 08       	movsbq (%rax,%rcx,1),%rax
   1800037ce:	48 8b 4c 24 30       	mov    0x30(%rsp),%rcx
   1800037d3:	48 8b 54 24 20       	mov    0x20(%rsp),%rdx
   1800037d8:	8b 54 94 40          	mov    0x40(%rsp,%rdx,4),%edx
   1800037dc:	89 14 81             	mov    %edx,(%rcx,%rax,4)
   1800037df:	e9 79 ff ff ff       	jmpq   0x18000375d
   1800037e4:	48 c7 44 24 20 00 00 	movq   $0x0,0x20(%rsp)
   1800037eb:	00 00 
   1800037ed:	eb 0d                	jmp    0x1800037fc
   1800037ef:	48 8b 44 24 20       	mov    0x20(%rsp),%rax
   1800037f4:	48 ff c0             	inc    %rax
   1800037f7:	48 89 44 24 20       	mov    %rax,0x20(%rsp)
   1800037fc:	48 83 7c 24 20 14    	cmpq   $0x14,0x20(%rsp)
   180003802:	73 66                	jae    0x18000386a
   180003804:	48 63 44 24 28       	movslq 0x28(%rsp),%rax
   180003809:	48 6b c0 14          	imul   $0x14,%rax,%rax
   18000380d:	48 8d 0d dc 0d 00 00 	lea    0xddc(%rip),%rcx        # 0x1800045f0
   180003814:	48 03 c8             	add    %rax,%rcx
   180003817:	48 8b c1             	mov    %rcx,%rax
   18000381a:	48 8b 4c 24 20       	mov    0x20(%rsp),%rcx
   18000381f:	0f be 04 08          	movsbl (%rax,%rcx,1),%eax
   180003823:	83 f8 ff             	cmp    $0xffffffff,%eax
   180003826:	74 40                	je     0x180003868
   180003828:	48 63 44 24 28       	movslq 0x28(%rsp),%rax
   18000382d:	48 6b c0 14          	imul   $0x14,%rax,%rax
   180003831:	48 8d 0d b8 0d 00 00 	lea    0xdb8(%rip),%rcx        # 0x1800045f0
   180003838:	48 03 c8             	add    %rax,%rcx
   18000383b:	48 8b c1             	mov    %rcx,%rax
   18000383e:	48 8b 4c 24 20       	mov    0x20(%rsp),%rcx
   180003843:	48 0f be 04 08       	movsbq (%rax,%rcx,1),%rax
   180003848:	6b 4c 24 28 0c       	imul   $0xc,0x28(%rsp),%ecx
   18000384d:	83 c1 20             	add    $0x20,%ecx
   180003850:	48 63 c9             	movslq %ecx,%rcx
   180003853:	48 03 4c 24 20       	add    0x20(%rsp),%rcx
   180003858:	48 8b 54 24 30       	mov    0x30(%rsp),%rdx
   18000385d:	48 8b 7c 24 30       	mov    0x30(%rsp),%rdi
   180003862:	8b 04 87             	mov    (%rdi,%rax,4),%eax
   180003865:	89 04 8a             	mov    %eax,(%rdx,%rcx,4)
   180003868:	eb 85                	jmp    0x1800037ef
   18000386a:	33 c0                	xor    %eax,%eax
   18000386c:	48 81 c4 30 03 00 00 	add    $0x330,%rsp
   180003873:	5f                   	pop    %rdi
   180003874:	c3                   	retq   
   180003875:	cc                   	int3   
   180003876:	cc                   	int3   
   180003877:	cc                   	int3   
   180003878:	48 89 4c 24 08       	mov    %rcx,0x8(%rsp)
   18000387d:	48 83 ec 58          	sub    $0x58,%rsp
   180003881:	48 c7 44 24 40 00 00 	movq   $0x0,0x40(%rsp)
   180003888:	00 00 
   18000388a:	c7 44 24 38 ff 00 00 	movl   $0xff,0x38(%rsp)
   180003891:	00 
   180003892:	c7 44 24 34 00 00 00 	movl   $0x0,0x34(%rsp)
   180003899:	00 
   18000389a:	48 8d 44 24 38       	lea    0x38(%rsp),%rax
   18000389f:	48 89 44 24 28       	mov    %rax,0x28(%rsp)
   1800038a4:	c7 44 24 20 00 00 00 	movl   $0x0,0x20(%rsp)
   1800038ab:	00 
   1800038ac:	4c 8b 4c 24 60       	mov    0x60(%rsp),%r9
   1800038b1:	4c 8d 05 cc 05 00 00 	lea    0x5cc(%rip),%r8        # 0x180003e84
   1800038b8:	ba 00 00 20 00       	mov    $0x200000,%edx
   1800038bd:	33 c9                	xor    %ecx,%ecx
   1800038bf:	ff 15 73 07 00 00    	callq  *0x773(%rip)        # 0x180004038
   1800038c5:	48 89 44 24 40       	mov    %rax,0x40(%rsp)
   1800038ca:	48 83 7c 24 40 00    	cmpq   $0x0,0x40(%rsp)
   1800038d0:	75 02                	jne    0x1800038d4
   1800038d2:	eb 3c                	jmp    0x180003910
   1800038d4:	ba 00 e0 01 00       	mov    $0x1e000,%edx
   1800038d9:	48 8b 4c 24 40       	mov    0x40(%rsp),%rcx
   1800038de:	ff 15 3c 07 00 00    	callq  *0x73c(%rip)        # 0x180004020
   1800038e4:	89 44 24 30          	mov    %eax,0x30(%rsp)
   1800038e8:	81 7c 24 30 02 01 00 	cmpl   $0x102,0x30(%rsp)
   1800038ef:	00 
   1800038f0:	74 07                	je     0x1800038f9
   1800038f2:	83 7c 24 30 ff       	cmpl   $0xffffffff,0x30(%rsp)
   1800038f7:	75 0f                	jne    0x180003908
   1800038f9:	33 d2                	xor    %edx,%edx
   1800038fb:	48 8b 4c 24 40       	mov    0x40(%rsp),%rcx
   180003900:	ff 15 2a 07 00 00    	callq  *0x72a(%rip)        # 0x180004030
   180003906:	eb 08                	jmp    0x180003910
   180003908:	c7 44 24 34 01 00 00 	movl   $0x1,0x34(%rsp)
   18000390f:	00 
   180003910:	48 83 7c 24 40 00    	cmpq   $0x0,0x40(%rsp)
   180003916:	75 0a                	jne    0x180003922
   180003918:	33 c9                	xor    %ecx,%ecx
   18000391a:	ff 15 08 07 00 00    	callq  *0x708(%rip)        # 0x180004028
   180003920:	eb 0b                	jmp    0x18000392d
   180003922:	48 8b 4c 24 40       	mov    0x40(%rsp),%rcx
   180003927:	ff 15 eb 06 00 00    	callq  *0x6eb(%rip)        # 0x180004018
   18000392d:	8b 44 24 34          	mov    0x34(%rsp),%eax
   180003931:	48 83 c4 58          	add    $0x58,%rsp
   180003935:	c3                   	retq   
   180003936:	cc                   	int3   
   180003937:	cc                   	int3   
   180003938:	4c 89 4c 24 20       	mov    %r9,0x20(%rsp)
   18000393d:	4c 89 44 24 18       	mov    %r8,0x18(%rsp)
   180003942:	89 54 24 10          	mov    %edx,0x10(%rsp)
   180003946:	48 89 4c 24 08       	mov    %rcx,0x8(%rsp)
   18000394b:	48 81 ec 78 01 00 00 	sub    $0x178,%rsp
   180003952:	81 bc 24 88 01 00 00 	cmpl   $0xcc,0x188(%rsp)
   180003959:	cc 00 00 00 
   18000395d:	73 07                	jae    0x180003966
   18000395f:	33 c0                	xor    %eax,%eax
   180003961:	e9 e2 01 00 00       	jmpq   0x180003b48
   180003966:	c7 44 24 30 00 00 00 	movl   $0x0,0x30(%rsp)
   18000396d:	00 
   18000396e:	eb 0a                	jmp    0x18000397a
   180003970:	8b 44 24 30          	mov    0x30(%rsp),%eax
   180003974:	ff c0                	inc    %eax
   180003976:	89 44 24 30          	mov    %eax,0x30(%rsp)
   18000397a:	83 7c 24 30 20       	cmpl   $0x20,0x30(%rsp)
   18000397f:	73 02                	jae    0x180003983
   180003981:	eb ed                	jmp    0x180003970
   180003983:	c7 44 24 30 00 00 00 	movl   $0x0,0x30(%rsp)
   18000398a:	00 
   18000398b:	eb 0a                	jmp    0x180003997
   18000398d:	8b 44 24 30          	mov    0x30(%rsp),%eax
   180003991:	ff c0                	inc    %eax
   180003993:	89 44 24 30          	mov    %eax,0x30(%rsp)
   180003997:	83 7c 24 30 10       	cmpl   $0x10,0x30(%rsp)
   18000399c:	73 3c                	jae    0x1800039da
   18000399e:	8b 44 24 30          	mov    0x30(%rsp),%eax
   1800039a2:	83 c0 02             	add    $0x2,%eax
   1800039a5:	8b c0                	mov    %eax,%eax
   1800039a7:	8b 4c 24 30          	mov    0x30(%rsp),%ecx
   1800039ab:	48 8d 15 4e 16 00 00 	lea    0x164e(%rip),%rdx        # 0x180005000
   1800039b2:	0f b6 0c 0a          	movzbl (%rdx,%rcx,1),%ecx
   1800039b6:	48 8b 94 24 80 01 00 	mov    0x180(%rsp),%rdx
   1800039bd:	00 
   1800039be:	0f b6 04 02          	movzbl (%rdx,%rax,1),%eax
   1800039c2:	33 c1                	xor    %ecx,%eax
   1800039c4:	8b 4c 24 30          	mov    0x30(%rsp),%ecx
   1800039c8:	83 c1 02             	add    $0x2,%ecx
   1800039cb:	8b c9                	mov    %ecx,%ecx
   1800039cd:	48 8b 94 24 80 01 00 	mov    0x180(%rsp),%rdx
   1800039d4:	00 
   1800039d5:	88 04 0a             	mov    %al,(%rdx,%rcx,1)
   1800039d8:	eb b3                	jmp    0x18000398d
   1800039da:	c7 44 24 30 00 00 00 	movl   $0x0,0x30(%rsp)
   1800039e1:	00 
   1800039e2:	eb 0a                	jmp    0x1800039ee
   1800039e4:	8b 44 24 30          	mov    0x30(%rsp),%eax
   1800039e8:	ff c0                	inc    %eax
   1800039ea:	89 44 24 30          	mov    %eax,0x30(%rsp)
   1800039ee:	83 7c 24 30 20       	cmpl   $0x20,0x30(%rsp)
   1800039f3:	73 02                	jae    0x1800039f7
   1800039f5:	eb ed                	jmp    0x1800039e4
   1800039f7:	41 b8 00 01 00 00    	mov    $0x100,%r8d
   1800039fd:	48 8b 94 24 80 01 00 	mov    0x180(%rsp),%rdx
   180003a04:	00 
   180003a05:	48 8d 4c 24 50       	lea    0x50(%rsp),%rcx
   180003a0a:	e8 59 e4 ff ff       	callq  0x180001e68
   180003a0f:	85 c0                	test   %eax,%eax
   180003a11:	74 07                	je     0x180003a1a
   180003a13:	33 c0                	xor    %eax,%eax
   180003a15:	e9 2e 01 00 00       	jmpq   0x180003b48
   180003a1a:	48 8b 84 24 80 01 00 	mov    0x180(%rsp),%rax
   180003a21:	00 
   180003a22:	48 83 c0 20          	add    $0x20,%rax
   180003a26:	48 89 84 24 80 01 00 	mov    %rax,0x180(%rsp)
   180003a2d:	00 
   180003a2e:	8b 84 24 88 01 00 00 	mov    0x188(%rsp),%eax
   180003a35:	83 e8 20             	sub    $0x20,%eax
   180003a38:	89 84 24 88 01 00 00 	mov    %eax,0x188(%rsp)
   180003a3f:	48 8b 84 24 90 01 00 	mov    0x190(%rsp),%rax
   180003a46:	00 
   180003a47:	48 8b 8c 24 80 01 00 	mov    0x180(%rsp),%rcx
   180003a4e:	00 
   180003a4f:	48 89 08             	mov    %rcx,(%rax)
   180003a52:	48 8b 84 24 98 01 00 	mov    0x198(%rsp),%rax
   180003a59:	00 
   180003a5a:	8b 8c 24 88 01 00 00 	mov    0x188(%rsp),%ecx
   180003a61:	89 08                	mov    %ecx,(%rax)
   180003a63:	48 8d 4c 24 38       	lea    0x38(%rsp),%rcx
   180003a68:	e8 93 01 00 00       	callq  0x180003c00
   180003a6d:	33 d2                	xor    %edx,%edx
   180003a6f:	8b 84 24 88 01 00 00 	mov    0x188(%rsp),%eax
   180003a76:	b9 10 00 00 00       	mov    $0x10,%ecx
   180003a7b:	f7 f1                	div    %ecx
   180003a7d:	8b c2                	mov    %edx,%eax
   180003a7f:	85 c0                	test   %eax,%eax
   180003a81:	74 07                	je     0x180003a8a
   180003a83:	33 c0                	xor    %eax,%eax
   180003a85:	e9 be 00 00 00       	jmpq   0x180003b48
   180003a8a:	c7 44 24 30 00 00 00 	movl   $0x0,0x30(%rsp)
   180003a91:	00 
   180003a92:	eb 0b                	jmp    0x180003a9f
   180003a94:	8b 44 24 30          	mov    0x30(%rsp),%eax
   180003a98:	83 c0 10             	add    $0x10,%eax
   180003a9b:	89 44 24 30          	mov    %eax,0x30(%rsp)
   180003a9f:	8b 84 24 88 01 00 00 	mov    0x188(%rsp),%eax
   180003aa6:	39 44 24 30          	cmp    %eax,0x30(%rsp)
   180003aaa:	73 4f                	jae    0x180003afb
   180003aac:	8b 44 24 30          	mov    0x30(%rsp),%eax
   180003ab0:	48 8b 8c 24 80 01 00 	mov    0x180(%rsp),%rcx
   180003ab7:	00 
   180003ab8:	48 03 c8             	add    %rax,%rcx
   180003abb:	48 8b c1             	mov    %rcx,%rax
   180003abe:	8b 4c 24 30          	mov    0x30(%rsp),%ecx
   180003ac2:	48 8b 94 24 80 01 00 	mov    0x180(%rsp),%rdx
   180003ac9:	00 
   180003aca:	48 03 d1             	add    %rcx,%rdx
   180003acd:	48 8b ca             	mov    %rdx,%rcx
   180003ad0:	48 89 44 24 28       	mov    %rax,0x28(%rsp)
   180003ad5:	48 89 4c 24 20       	mov    %rcx,0x20(%rsp)
   180003ada:	4c 8d 4c 24 38       	lea    0x38(%rsp),%r9
   180003adf:	41 b8 10 00 00 00    	mov    $0x10,%r8d
   180003ae5:	33 d2                	xor    %edx,%edx
   180003ae7:	48 8d 4c 24 50       	lea    0x50(%rsp),%rcx
   180003aec:	e8 fb d7 ff ff       	callq  0x1800012ec
   180003af1:	85 c0                	test   %eax,%eax
   180003af3:	74 04                	je     0x180003af9
   180003af5:	33 c0                	xor    %eax,%eax
   180003af7:	eb 4f                	jmp    0x180003b48
   180003af9:	eb 99                	jmp    0x180003a94
   180003afb:	48 8b 84 24 90 01 00 	mov    0x190(%rsp),%rax
   180003b02:	00 
   180003b03:	48 8b 00             	mov    (%rax),%rax
   180003b06:	81 38 dd cc bb aa    	cmpl   $0xaabbccdd,(%rax)
   180003b0c:	74 04                	je     0x180003b12
   180003b0e:	33 c0                	xor    %eax,%eax
   180003b10:	eb 36                	jmp    0x180003b48
   180003b12:	48 8b 84 24 90 01 00 	mov    0x190(%rsp),%rax
   180003b19:	00 
   180003b1a:	48 8b 00             	mov    (%rax),%rax
   180003b1d:	48 83 c0 10          	add    $0x10,%rax
   180003b21:	48 8b 8c 24 90 01 00 	mov    0x190(%rsp),%rcx
   180003b28:	00 
   180003b29:	48 89 01             	mov    %rax,(%rcx)
   180003b2c:	48 8b 84 24 98 01 00 	mov    0x198(%rsp),%rax
   180003b33:	00 
   180003b34:	8b 00                	mov    (%rax),%eax
   180003b36:	83 e8 10             	sub    $0x10,%eax
   180003b39:	48 8b 8c 24 98 01 00 	mov    0x198(%rsp),%rcx
   180003b40:	00 
   180003b41:	89 01                	mov    %eax,(%rcx)
   180003b43:	b8 01 00 00 00       	mov    $0x1,%eax
   180003b48:	48 81 c4 78 01 00 00 	add    $0x178,%rsp
   180003b4f:	c3                   	retq   
   180003b50:	89 4c 24 08          	mov    %ecx,0x8(%rsp)
   180003b54:	48 83 ec 58          	sub    $0x58,%rsp
   180003b58:	c7 44 24 24 11 00 00 	movl   $0x11,0x24(%rsp)
   180003b5f:	00 
   180003b60:	4c 8d 4c 24 24       	lea    0x24(%rsp),%r9
   180003b65:	4c 8d 44 24 28       	lea    0x28(%rsp),%r8
   180003b6a:	48 8d 15 2f 0b 00 00 	lea    0xb2f(%rip),%rdx        # 0x1800046a0
   180003b71:	8b 4c 24 60          	mov    0x60(%rsp),%ecx
   180003b75:	e8 60 03 00 00       	callq  0x180003eda
   180003b7a:	85 c0                	test   %eax,%eax
   180003b7c:	74 04                	je     0x180003b82
   180003b7e:	33 c0                	xor    %eax,%eax
   180003b80:	eb 77                	jmp    0x180003bf9
   180003b82:	c7 44 24 20 00 00 00 	movl   $0x0,0x20(%rsp)
   180003b89:	00 
   180003b8a:	eb 0a                	jmp    0x180003b96
   180003b8c:	8b 44 24 20          	mov    0x20(%rsp),%eax
   180003b90:	ff c0                	inc    %eax
   180003b92:	89 44 24 20          	mov    %eax,0x20(%rsp)
   180003b96:	83 7c 24 20 10       	cmpl   $0x10,0x20(%rsp)
   180003b9b:	7d 12                	jge    0x180003baf
   180003b9d:	48 63 44 24 20       	movslq 0x20(%rsp),%rax
   180003ba2:	48 8d 0d 57 14 00 00 	lea    0x1457(%rip),%rcx        # 0x180005000
   180003ba9:	c6 04 01 00          	movb   $0x0,(%rcx,%rax,1)
   180003bad:	eb dd                	jmp    0x180003b8c
   180003baf:	c7 44 24 20 00 00 00 	movl   $0x0,0x20(%rsp)
   180003bb6:	00 
   180003bb7:	eb 0a                	jmp    0x180003bc3
   180003bb9:	8b 44 24 20          	mov    0x20(%rsp),%eax
   180003bbd:	ff c0                	inc    %eax
   180003bbf:	89 44 24 20          	mov    %eax,0x20(%rsp)
   180003bc3:	83 7c 24 20 10       	cmpl   $0x10,0x20(%rsp)
   180003bc8:	7d 2a                	jge    0x180003bf4
   180003bca:	48 63 44 24 20       	movslq 0x20(%rsp),%rax
   180003bcf:	0f b7 44 44 28       	movzwl 0x28(%rsp,%rax,2),%eax
   180003bd4:	85 c0                	test   %eax,%eax
   180003bd6:	75 02                	jne    0x180003bda
   180003bd8:	eb 1a                	jmp    0x180003bf4
   180003bda:	48 63 44 24 20       	movslq 0x20(%rsp),%rax
   180003bdf:	48 63 4c 24 20       	movslq 0x20(%rsp),%rcx
   180003be4:	48 8d 15 15 14 00 00 	lea    0x1415(%rip),%rdx        # 0x180005000
   180003beb:	8a 44 44 28          	mov    0x28(%rsp,%rax,2),%al
   180003bef:	88 04 0a             	mov    %al,(%rdx,%rcx,1)
   180003bf2:	eb c5                	jmp    0x180003bb9
   180003bf4:	b8 01 00 00 00       	mov    $0x1,%eax
   180003bf9:	48 83 c4 58          	add    $0x58,%rsp
   180003bfd:	c3                   	retq   
   180003bfe:	cc                   	int3   
   180003bff:	cc                   	int3   
   180003c00:	32 d2                	xor    %dl,%dl
   180003c02:	b8 10 00 00 00       	mov    $0x10,%eax
   180003c07:	2a c2                	sub    %dl,%al
   180003c09:	fe c2                	inc    %dl
   180003c0b:	88 01                	mov    %al,(%rcx)
   180003c0d:	48 ff c1             	inc    %rcx
   180003c10:	80 fa 10             	cmp    $0x10,%dl
   180003c13:	72 ed                	jb     0x180003c02
   180003c15:	c3                   	retq   
   180003c16:	cc                   	int3   
   180003c17:	cc                   	int3   
   180003c18:	4c 89 44 24 18       	mov    %r8,0x18(%rsp)
   180003c1d:	48 89 54 24 10       	mov    %rdx,0x10(%rsp)
   180003c22:	48 89 4c 24 08       	mov    %rcx,0x8(%rsp)
   180003c27:	48 83 ec 18          	sub    $0x18,%rsp
   180003c2b:	48 8b 44 24 20       	mov    0x20(%rsp),%rax
   180003c30:	48 89 04 24          	mov    %rax,(%rsp)
   180003c34:	48 8b 44 24 28       	mov    0x28(%rsp),%rax
   180003c39:	48 89 44 24 08       	mov    %rax,0x8(%rsp)
   180003c3e:	48 83 7c 24 30 00    	cmpq   $0x0,0x30(%rsp)
   180003c44:	76 34                	jbe    0x180003c7a
   180003c46:	48 8b 04 24          	mov    (%rsp),%rax
   180003c4a:	48 8b 4c 24 08       	mov    0x8(%rsp),%rcx
   180003c4f:	8a 09                	mov    (%rcx),%cl
   180003c51:	88 08                	mov    %cl,(%rax)
   180003c53:	48 8b 04 24          	mov    (%rsp),%rax
   180003c57:	48 ff c0             	inc    %rax
   180003c5a:	48 89 04 24          	mov    %rax,(%rsp)
   180003c5e:	48 8b 44 24 08       	mov    0x8(%rsp),%rax
   180003c63:	48 ff c0             	inc    %rax
   180003c66:	48 89 44 24 08       	mov    %rax,0x8(%rsp)
   180003c6b:	48 8b 44 24 30       	mov    0x30(%rsp),%rax
   180003c70:	48 ff c8             	dec    %rax
   180003c73:	48 89 44 24 30       	mov    %rax,0x30(%rsp)
   180003c78:	eb c4                	jmp    0x180003c3e
   180003c7a:	48 83 c4 18          	add    $0x18,%rsp
   180003c7e:	c3                   	retq   
   180003c7f:	cc                   	int3   
   180003c80:	89 54 24 10          	mov    %edx,0x10(%rsp)
   180003c84:	89 4c 24 08          	mov    %ecx,0x8(%rsp)
   180003c88:	48 81 ec 38 08 00 00 	sub    $0x838,%rsp
   180003c8f:	c7 44 24 24 00 00 00 	movl   $0x0,0x24(%rsp)
   180003c96:	00 
   180003c97:	c7 44 24 2c 00 00 00 	movl   $0x0,0x2c(%rsp)
   180003c9e:	00 
   180003c9f:	c7 44 24 30 00 00 00 	movl   $0x0,0x30(%rsp)
   180003ca6:	00 
   180003ca7:	c7 44 24 28 00 00 00 	movl   $0x0,0x28(%rsp)
   180003cae:	00 
   180003caf:	c7 44 24 40 00 00 00 	movl   $0x0,0x40(%rsp)
   180003cb6:	00 
   180003cb7:	48 c7 44 24 38 00 00 	movq   $0x0,0x38(%rsp)
   180003cbe:	00 00 
   180003cc0:	44 8b 8c 24 48 08 00 	mov    0x848(%rsp),%r9d
   180003cc7:	00 
   180003cc8:	4c 8d 05 49 09 00 00 	lea    0x949(%rip),%r8        # 0x180004618
   180003ccf:	48 8d 15 5a 09 00 00 	lea    0x95a(%rip),%rdx        # 0x180004630
   180003cd6:	48 8d 4c 24 60       	lea    0x60(%rsp),%rcx
   180003cdb:	ff 15 7f 03 00 00    	callq  *0x37f(%rip)        # 0x180004060
   180003ce1:	4c 8d 44 24 24       	lea    0x24(%rsp),%r8
   180003ce6:	48 8d 15 a3 09 00 00 	lea    0x9a3(%rip),%rdx        # 0x180004690
   180003ced:	8b 8c 24 40 08 00 00 	mov    0x840(%rsp),%ecx
   180003cf4:	e8 c9 01 00 00       	callq  0x180003ec2
   180003cf9:	89 44 24 20          	mov    %eax,0x20(%rsp)
   180003cfd:	83 7c 24 20 00       	cmpl   $0x0,0x20(%rsp)
   180003d02:	74 05                	je     0x180003d09
   180003d04:	e9 34 01 00 00       	jmpq   0x180003e3d
   180003d09:	8b 4c 24 24          	mov    0x24(%rsp),%ecx
   180003d0d:	e8 98 01 00 00       	callq  0x180003eaa
   180003d12:	c7 44 24 24 00 00 00 	movl   $0x0,0x24(%rsp)
   180003d19:	00 
   180003d1a:	4c 8d 44 24 2c       	lea    0x2c(%rsp),%r8
   180003d1f:	48 8d 54 24 60       	lea    0x60(%rsp),%rdx
   180003d24:	8b 8c 24 40 08 00 00 	mov    0x840(%rsp),%ecx
   180003d2b:	e8 80 01 00 00       	callq  0x180003eb0
   180003d30:	89 44 24 20          	mov    %eax,0x20(%rsp)
   180003d34:	83 7c 24 20 00       	cmpl   $0x0,0x20(%rsp)
   180003d39:	74 05                	je     0x180003d40
   180003d3b:	e9 fd 00 00 00       	jmpq   0x180003e3d
   180003d40:	33 d2                	xor    %edx,%edx
   180003d42:	8b 4c 24 2c          	mov    0x2c(%rsp),%ecx
   180003d46:	e8 6b 01 00 00       	callq  0x180003eb6
   180003d4b:	89 44 24 20          	mov    %eax,0x20(%rsp)
   180003d4f:	83 7c 24 20 00       	cmpl   $0x0,0x20(%rsp)
   180003d54:	74 05                	je     0x180003d5b
   180003d56:	e9 e2 00 00 00       	jmpq   0x180003e3d
   180003d5b:	48 8d 54 24 24       	lea    0x24(%rsp),%rdx
   180003d60:	8b 4c 24 2c          	mov    0x2c(%rsp),%ecx
   180003d64:	e8 53 01 00 00       	callq  0x180003ebc
   180003d69:	89 44 24 20          	mov    %eax,0x20(%rsp)
   180003d6d:	83 7c 24 20 00       	cmpl   $0x0,0x20(%rsp)
   180003d72:	74 05                	je     0x180003d79
   180003d74:	e9 c4 00 00 00       	jmpq   0x180003e3d
   180003d79:	ba 01 00 00 00       	mov    $0x1,%edx
   180003d7e:	8b 4c 24 24          	mov    0x24(%rsp),%ecx
   180003d82:	e8 41 01 00 00       	callq  0x180003ec8
   180003d87:	89 44 24 28          	mov    %eax,0x28(%rsp)
   180003d8b:	83 7c 24 28 00       	cmpl   $0x0,0x28(%rsp)
   180003d90:	75 05                	jne    0x180003d97
   180003d92:	e9 a6 00 00 00       	jmpq   0x180003e3d
   180003d97:	8b 44 24 28          	mov    0x28(%rsp),%eax
   180003d9b:	41 b9 04 00 00 00    	mov    $0x4,%r9d
   180003da1:	41 b8 00 30 00 00    	mov    $0x3000,%r8d
   180003da7:	8b d0                	mov    %eax,%edx
   180003da9:	33 c9                	xor    %ecx,%ecx
   180003dab:	ff 15 97 02 00 00    	callq  *0x297(%rip)        # 0x180004048
   180003db1:	48 89 44 24 38       	mov    %rax,0x38(%rsp)
   180003db6:	48 83 7c 24 38 00    	cmpq   $0x0,0x38(%rsp)
   180003dbc:	75 02                	jne    0x180003dc0
   180003dbe:	eb 7d                	jmp    0x180003e3d
   180003dc0:	4c 8d 4c 24 28       	lea    0x28(%rsp),%r9
   180003dc5:	4c 8b 44 24 38       	mov    0x38(%rsp),%r8
   180003dca:	ba 01 00 00 00       	mov    $0x1,%edx
   180003dcf:	8b 4c 24 24          	mov    0x24(%rsp),%ecx
   180003dd3:	e8 f6 00 00 00       	callq  0x180003ece
   180003dd8:	89 44 24 20          	mov    %eax,0x20(%rsp)
   180003ddc:	83 7c 24 20 00       	cmpl   $0x0,0x20(%rsp)
   180003de1:	74 02                	je     0x180003de5
   180003de3:	eb 58                	jmp    0x180003e3d
   180003de5:	4c 8d 4c 24 40       	lea    0x40(%rsp),%r9
   180003dea:	4c 8d 44 24 48       	lea    0x48(%rsp),%r8
   180003def:	8b 54 24 28          	mov    0x28(%rsp),%edx
   180003df3:	48 8b 4c 24 38       	mov    0x38(%rsp),%rcx
   180003df8:	e8 3b fb ff ff       	callq  0x180003938
   180003dfd:	85 c0                	test   %eax,%eax
   180003dff:	75 02                	jne    0x180003e03
   180003e01:	eb 3a                	jmp    0x180003e3d
   180003e03:	8b 44 24 40          	mov    0x40(%rsp),%eax
   180003e07:	4c 8d 4c 24 50       	lea    0x50(%rsp),%r9
   180003e0c:	41 b8 40 00 00 00    	mov    $0x40,%r8d
   180003e12:	8b d0                	mov    %eax,%edx
   180003e14:	48 8b 4c 24 48       	mov    0x48(%rsp),%rcx
   180003e19:	ff 15 21 02 00 00    	callq  *0x221(%rip)        # 0x180004040
   180003e1f:	85 c0                	test   %eax,%eax
   180003e21:	75 02                	jne    0x180003e25
   180003e23:	eb 18                	jmp    0x180003e3d
   180003e25:	48 8b 4c 24 48       	mov    0x48(%rsp),%rcx
   180003e2a:	e8 49 fa ff ff       	callq  0x180003878
   180003e2f:	85 c0                	test   %eax,%eax
   180003e31:	75 02                	jne    0x180003e35
   180003e33:	eb 08                	jmp    0x180003e3d
   180003e35:	c7 44 24 30 01 00 00 	movl   $0x1,0x30(%rsp)
   180003e3c:	00 
   180003e3d:	83 7c 24 24 00       	cmpl   $0x0,0x24(%rsp)
   180003e42:	74 09                	je     0x180003e4d
   180003e44:	8b 4c 24 24          	mov    0x24(%rsp),%ecx
   180003e48:	e8 5d 00 00 00       	callq  0x180003eaa
   180003e4d:	83 7c 24 2c 00       	cmpl   $0x0,0x2c(%rsp)
   180003e52:	74 09                	je     0x180003e5d
   180003e54:	8b 4c 24 2c          	mov    0x2c(%rsp),%ecx
   180003e58:	e8 4d 00 00 00       	callq  0x180003eaa
   180003e5d:	48 83 7c 24 38 00    	cmpq   $0x0,0x38(%rsp)
   180003e63:	74 13                	je     0x180003e78
   180003e65:	41 b8 00 80 00 00    	mov    $0x8000,%r8d
   180003e6b:	33 d2                	xor    %edx,%edx
   180003e6d:	48 8b 4c 24 38       	mov    0x38(%rsp),%rcx
   180003e72:	ff 15 d8 01 00 00    	callq  *0x1d8(%rip)        # 0x180004050
   180003e78:	8b 44 24 30          	mov    0x30(%rsp),%eax
   180003e7c:	48 81 c4 38 08 00 00 	add    $0x838,%rsp
   180003e83:	c3                   	retq   
   180003e84:	48 89 4c 24 08       	mov    %rcx,0x8(%rsp)
   180003e89:	48 83 ec 28          	sub    $0x28,%rsp
   180003e8d:	48 83 7c 24 30 00    	cmpq   $0x0,0x30(%rsp)
   180003e93:	75 07                	jne    0x180003e9c
   180003e95:	b8 ff ff ff ff       	mov    $0xffffffff,%eax
   180003e9a:	eb 08                	jmp    0x180003ea4
   180003e9c:	ff 54 24 30          	callq  *0x30(%rsp)
   180003ea0:	eb 00                	jmp    0x180003ea2
   180003ea2:	33 c0                	xor    %eax,%eax
   180003ea4:	48 83 c4 28          	add    $0x28,%rsp
   180003ea8:	c3                   	retq   
   180003ea9:	cc                   	int3   
   180003eaa:	ff 25 00 02 00 00    	jmpq   *0x200(%rip)        # 0x1800040b0
   180003eb0:	ff 25 f2 01 00 00    	jmpq   *0x1f2(%rip)        # 0x1800040a8
   180003eb6:	ff 25 d4 01 00 00    	jmpq   *0x1d4(%rip)        # 0x180004090
   180003ebc:	ff 25 c6 01 00 00    	jmpq   *0x1c6(%rip)        # 0x180004088
   180003ec2:	ff 25 b8 01 00 00    	jmpq   *0x1b8(%rip)        # 0x180004080
   180003ec8:	ff 25 ca 01 00 00    	jmpq   *0x1ca(%rip)        # 0x180004098
   180003ece:	ff 25 9c 01 00 00    	jmpq   *0x19c(%rip)        # 0x180004070
   180003ed4:	ff 25 c6 01 00 00    	jmpq   *0x1c6(%rip)        # 0x1800040a0
   180003eda:	ff 25 98 01 00 00    	jmpq   *0x198(%rip)        # 0x180004078
   180003ee0:	ff 25 2a 01 00 00    	jmpq   *0x12a(%rip)        # 0x180004010
   180003ee6:	40 55                	rex push %rbp
   180003ee8:	48 83 ec 20          	sub    $0x20,%rsp
   180003eec:	48 8b ea             	mov    %rdx,%rbp
   180003eef:	b8 01 00 00 00       	mov    $0x1,%eax
   180003ef4:	48 83 c4 20          	add    $0x20,%rsp
   180003ef8:	5d                   	pop    %rbp
   180003ef9:	c3                   	retq   
   180003efa:	cc                   	int3   
