
d8a849654ab97debaf28ae5b749c3b1ff1812ea49978713853333db48c3972c3:     file format pei-x86-64


Disassembly of section .text:

0000000180001000 <.text>:
   180001000:	48 8b c4             	mov    %rsp,%rax
   180001003:	48 89 58 08          	mov    %rbx,0x8(%rax)
   180001007:	48 89 68 18          	mov    %rbp,0x18(%rax)
   18000100b:	48 89 70 20          	mov    %rsi,0x20(%rax)
   18000100f:	48 89 50 10          	mov    %rdx,0x10(%rax)
   180001013:	57                   	push   %rdi
   180001014:	41 54                	push   %r12
   180001016:	41 55                	push   %r13
   180001018:	41 56                	push   %r14
   18000101a:	41 57                	push   %r15
   18000101c:	48 83 ec 40          	sub    $0x40,%rsp
   180001020:	4d 8b 79 08          	mov    0x8(%r9),%r15
   180001024:	4d 8b 21             	mov    (%r9),%r12
   180001027:	49 8b 71 38          	mov    0x38(%r9),%rsi
   18000102b:	4d 2b e7             	sub    %r15,%r12
   18000102e:	f6 41 04 66          	testb  $0x66,0x4(%rcx)
   180001032:	4d 8b f1             	mov    %r9,%r14
   180001035:	48 8b ea             	mov    %rdx,%rbp
   180001038:	4c 8b e9             	mov    %rcx,%r13
   18000103b:	0f 85 dc 00 00 00    	jne    0x18000111d
   180001041:	33 ff                	xor    %edi,%edi
   180001043:	48 89 48 c8          	mov    %rcx,-0x38(%rax)
   180001047:	4c 89 40 d0          	mov    %r8,-0x30(%rax)
   18000104b:	39 3e                	cmp    %edi,(%rsi)
   18000104d:	0f 86 2b 01 00 00    	jbe    0x18000117e
   180001053:	48 8d 5e 0c          	lea    0xc(%rsi),%rbx
   180001057:	8b 43 f8             	mov    -0x8(%rbx),%eax
   18000105a:	4c 3b e0             	cmp    %rax,%r12
   18000105d:	0f 82 a7 00 00 00    	jb     0x18000110a
   180001063:	8b 43 fc             	mov    -0x4(%rbx),%eax
   180001066:	4c 3b e0             	cmp    %rax,%r12
   180001069:	0f 83 9b 00 00 00    	jae    0x18000110a
   18000106f:	83 7b 04 00          	cmpl   $0x0,0x4(%rbx)
   180001073:	0f 84 91 00 00 00    	je     0x18000110a
   180001079:	83 3b 01             	cmpl   $0x1,(%rbx)
   18000107c:	74 19                	je     0x180001097
   18000107e:	8b 03                	mov    (%rbx),%eax
   180001080:	48 8d 4c 24 30       	lea    0x30(%rsp),%rcx
   180001085:	48 8b d5             	mov    %rbp,%rdx
   180001088:	49 03 c7             	add    %r15,%rax
   18000108b:	ff d0                	callq  *%rax
   18000108d:	85 c0                	test   %eax,%eax
   18000108f:	0f 88 84 00 00 00    	js     0x180001119
   180001095:	7e 73                	jle    0x18000110a
   180001097:	41 81 7d 00 63 73 6d 	cmpl   $0xe06d7363,0x0(%r13)
   18000109e:	e0 
   18000109f:	75 28                	jne    0x1800010c9
   1800010a1:	48 83 3d 9f 61 00 00 	cmpq   $0x0,0x619f(%rip)        # 0x180007248
   1800010a8:	00 
   1800010a9:	74 1e                	je     0x1800010c9
   1800010ab:	48 8d 0d 96 61 00 00 	lea    0x6196(%rip),%rcx        # 0x180007248
   1800010b2:	e8 e9 04 00 00       	callq  0x1800015a0
   1800010b7:	85 c0                	test   %eax,%eax
   1800010b9:	74 0e                	je     0x1800010c9
   1800010bb:	ba 01 00 00 00       	mov    $0x1,%edx
   1800010c0:	49 8b cd             	mov    %r13,%rcx
   1800010c3:	ff 15 7f 61 00 00    	callq  *0x617f(%rip)        # 0x180007248
   1800010c9:	8b 4b 04             	mov    0x4(%rbx),%ecx
   1800010cc:	41 b8 01 00 00 00    	mov    $0x1,%r8d
   1800010d2:	48 8b d5             	mov    %rbp,%rdx
   1800010d5:	49 03 cf             	add    %r15,%rcx
   1800010d8:	e8 13 01 00 00       	callq  0x1800011f0
   1800010dd:	49 8b 46 40          	mov    0x40(%r14),%rax
   1800010e1:	8b 53 04             	mov    0x4(%rbx),%edx
   1800010e4:	4d 63 4d 00          	movslq 0x0(%r13),%r9
   1800010e8:	48 89 44 24 28       	mov    %rax,0x28(%rsp)
   1800010ed:	49 8b 46 28          	mov    0x28(%r14),%rax
   1800010f1:	49 03 d7             	add    %r15,%rdx
   1800010f4:	4d 8b c5             	mov    %r13,%r8
   1800010f7:	48 8b cd             	mov    %rbp,%rcx
   1800010fa:	48 89 44 24 20       	mov    %rax,0x20(%rsp)
   1800010ff:	ff 15 0b 2f 00 00    	callq  *0x2f0b(%rip)        # 0x180004010
   180001105:	e8 16 01 00 00       	callq  0x180001220
   18000110a:	ff c7                	inc    %edi
   18000110c:	48 83 c3 10          	add    $0x10,%rbx
   180001110:	3b 3e                	cmp    (%rsi),%edi
   180001112:	73 6a                	jae    0x18000117e
   180001114:	e9 3e ff ff ff       	jmpq   0x180001057
   180001119:	33 c0                	xor    %eax,%eax
   18000111b:	eb 66                	jmp    0x180001183
   18000111d:	49 8b 79 20          	mov    0x20(%r9),%rdi
   180001121:	33 ed                	xor    %ebp,%ebp
   180001123:	49 2b ff             	sub    %r15,%rdi
   180001126:	39 2e                	cmp    %ebp,(%rsi)
   180001128:	76 54                	jbe    0x18000117e
   18000112a:	48 8d 5e 10          	lea    0x10(%rsi),%rbx
   18000112e:	8b 4b f4             	mov    -0xc(%rbx),%ecx
   180001131:	4c 3b e1             	cmp    %rcx,%r12
   180001134:	72 3e                	jb     0x180001174
   180001136:	8b 43 f8             	mov    -0x8(%rbx),%eax
   180001139:	4c 3b e0             	cmp    %rax,%r12
   18000113c:	73 36                	jae    0x180001174
   18000113e:	48 3b f9             	cmp    %rcx,%rdi
   180001141:	72 0c                	jb     0x18000114f
   180001143:	48 3b f8             	cmp    %rax,%rdi
   180001146:	73 07                	jae    0x18000114f
   180001148:	41 f6 45 04 20       	testb  $0x20,0x4(%r13)
   18000114d:	75 2f                	jne    0x18000117e
   18000114f:	83 3b 00             	cmpl   $0x0,(%rbx)
   180001152:	74 09                	je     0x18000115d
   180001154:	8b 03                	mov    (%rbx),%eax
   180001156:	48 3b f8             	cmp    %rax,%rdi
   180001159:	74 23                	je     0x18000117e
   18000115b:	eb 17                	jmp    0x180001174
   18000115d:	48 8b 54 24 78       	mov    0x78(%rsp),%rdx
   180001162:	49 03 c7             	add    %r15,%rax
   180001165:	b1 01                	mov    $0x1,%cl
   180001167:	49 89 06             	mov    %rax,(%r14)
   18000116a:	44 8b 43 fc          	mov    -0x4(%rbx),%r8d
   18000116e:	4d 03 c7             	add    %r15,%r8
   180001171:	41 ff d0             	callq  *%r8
   180001174:	ff c5                	inc    %ebp
   180001176:	48 83 c3 10          	add    $0x10,%rbx
   18000117a:	3b 2e                	cmp    (%rsi),%ebp
   18000117c:	72 b0                	jb     0x18000112e
   18000117e:	b8 01 00 00 00       	mov    $0x1,%eax
   180001183:	4c 8d 5c 24 40       	lea    0x40(%rsp),%r11
   180001188:	49 8b 5b 30          	mov    0x30(%r11),%rbx
   18000118c:	49 8b 6b 40          	mov    0x40(%r11),%rbp
   180001190:	49 8b 73 48          	mov    0x48(%r11),%rsi
   180001194:	49 8b e3             	mov    %r11,%rsp
   180001197:	41 5f                	pop    %r15
   180001199:	41 5e                	pop    %r14
   18000119b:	41 5d                	pop    %r13
   18000119d:	41 5c                	pop    %r12
   18000119f:	5f                   	pop    %rdi
   1800011a0:	c3                   	retq   
   1800011a1:	cc                   	int3   
   1800011a2:	cc                   	int3   
   1800011a3:	cc                   	int3   
   1800011a4:	cc                   	int3   
   1800011a5:	cc                   	int3   
   1800011a6:	cc                   	int3   
   1800011a7:	cc                   	int3   
   1800011a8:	cc                   	int3   
   1800011a9:	cc                   	int3   
   1800011aa:	cc                   	int3   
   1800011ab:	cc                   	int3   
   1800011ac:	cc                   	int3   
   1800011ad:	cc                   	int3   
   1800011ae:	cc                   	int3   
   1800011af:	cc                   	int3   
   1800011b0:	cc                   	int3   
   1800011b1:	cc                   	int3   
   1800011b2:	cc                   	int3   
   1800011b3:	cc                   	int3   
   1800011b4:	cc                   	int3   
   1800011b5:	cc                   	int3   
   1800011b6:	66 66 66 90          	data16 data16 xchg %ax,%ax
   1800011ba:	66 66 66 90          	data16 data16 xchg %ax,%ax
   1800011be:	66 90                	xchg   %ax,%ax
   1800011c0:	48 81 ec d8 04 00 00 	sub    $0x4d8,%rsp
   1800011c7:	4d 33 c0             	xor    %r8,%r8
   1800011ca:	4d 33 c9             	xor    %r9,%r9
   1800011cd:	48 89 64 24 20       	mov    %rsp,0x20(%rsp)
   1800011d2:	4c 89 44 24 28       	mov    %r8,0x28(%rsp)
   1800011d7:	e8 5e 25 00 00       	callq  0x18000373a
   1800011dc:	48 81 c4 d8 04 00 00 	add    $0x4d8,%rsp
   1800011e3:	c3                   	retq   
   1800011e4:	cc                   	int3   
   1800011e5:	cc                   	int3   
   1800011e6:	cc                   	int3   
   1800011e7:	cc                   	int3   
   1800011e8:	cc                   	int3   
   1800011e9:	cc                   	int3   
   1800011ea:	66 66 90             	data16 xchg %ax,%ax
   1800011ed:	66 66 90             	data16 xchg %ax,%ax
   1800011f0:	48 89 4c 24 08       	mov    %rcx,0x8(%rsp)
   1800011f5:	48 89 54 24 18       	mov    %rdx,0x18(%rsp)
   1800011fa:	44 89 44 24 10       	mov    %r8d,0x10(%rsp)
   1800011ff:	49 c7 c1 20 05 93 19 	mov    $0x19930520,%r9
   180001206:	eb 08                	jmp    0x180001210
   180001208:	cc                   	int3   
   180001209:	cc                   	int3   
   18000120a:	cc                   	int3   
   18000120b:	cc                   	int3   
   18000120c:	cc                   	int3   
   18000120d:	cc                   	int3   
   18000120e:	66 90                	xchg   %ax,%ax
   180001210:	c3                   	retq   
   180001211:	cc                   	int3   
   180001212:	cc                   	int3   
   180001213:	cc                   	int3   
   180001214:	cc                   	int3   
   180001215:	cc                   	int3   
   180001216:	cc                   	int3   
   180001217:	66 66 66 90          	data16 data16 xchg %ax,%ax
   18000121b:	66 66 66 90          	data16 data16 xchg %ax,%ax
   18000121f:	90                   	nop
   180001220:	c3                   	retq   
   180001221:	cc                   	int3   
   180001222:	cc                   	int3   
   180001223:	cc                   	int3   
   180001224:	cc                   	int3   
   180001225:	cc                   	int3   
   180001226:	cc                   	int3   
   180001227:	cc                   	int3   
   180001228:	cc                   	int3   
   180001229:	cc                   	int3   
   18000122a:	cc                   	int3   
   18000122b:	cc                   	int3   
   18000122c:	cc                   	int3   
   18000122d:	cc                   	int3   
   18000122e:	cc                   	int3   
   18000122f:	cc                   	int3   
   180001230:	cc                   	int3   
   180001231:	cc                   	int3   
   180001232:	cc                   	int3   
   180001233:	cc                   	int3   
   180001234:	cc                   	int3   
   180001235:	cc                   	int3   
   180001236:	66 66 0f 1f 84 00 00 	data16 nopw 0x0(%rax,%rax,1)
   18000123d:	00 00 00 
   180001240:	4c 8b d9             	mov    %rcx,%r11
   180001243:	48 2b d1             	sub    %rcx,%rdx
   180001246:	0f 82 9e 01 00 00    	jb     0x1800013ea
   18000124c:	49 83 f8 08          	cmp    $0x8,%r8
   180001250:	72 61                	jb     0x1800012b3
   180001252:	f6 c1 07             	test   $0x7,%cl
   180001255:	74 36                	je     0x18000128d
   180001257:	f6 c1 01             	test   $0x1,%cl
   18000125a:	74 0b                	je     0x180001267
   18000125c:	8a 04 0a             	mov    (%rdx,%rcx,1),%al
   18000125f:	49 ff c8             	dec    %r8
   180001262:	88 01                	mov    %al,(%rcx)
   180001264:	48 ff c1             	inc    %rcx
   180001267:	f6 c1 02             	test   $0x2,%cl
   18000126a:	74 0f                	je     0x18000127b
   18000126c:	66 8b 04 0a          	mov    (%rdx,%rcx,1),%ax
   180001270:	49 83 e8 02          	sub    $0x2,%r8
   180001274:	66 89 01             	mov    %ax,(%rcx)
   180001277:	48 83 c1 02          	add    $0x2,%rcx
   18000127b:	f6 c1 04             	test   $0x4,%cl
   18000127e:	74 0d                	je     0x18000128d
   180001280:	8b 04 0a             	mov    (%rdx,%rcx,1),%eax
   180001283:	49 83 e8 04          	sub    $0x4,%r8
   180001287:	89 01                	mov    %eax,(%rcx)
   180001289:	48 83 c1 04          	add    $0x4,%rcx
   18000128d:	4d 8b c8             	mov    %r8,%r9
   180001290:	49 c1 e9 05          	shr    $0x5,%r9
   180001294:	75 51                	jne    0x1800012e7
   180001296:	4d 8b c8             	mov    %r8,%r9
   180001299:	49 c1 e9 03          	shr    $0x3,%r9
   18000129d:	74 14                	je     0x1800012b3
   18000129f:	48 8b 04 0a          	mov    (%rdx,%rcx,1),%rax
   1800012a3:	48 89 01             	mov    %rax,(%rcx)
   1800012a6:	48 83 c1 08          	add    $0x8,%rcx
   1800012aa:	49 ff c9             	dec    %r9
   1800012ad:	75 f0                	jne    0x18000129f
   1800012af:	49 83 e0 07          	and    $0x7,%r8
   1800012b3:	4d 85 c0             	test   %r8,%r8
   1800012b6:	75 08                	jne    0x1800012c0
   1800012b8:	49 8b c3             	mov    %r11,%rax
   1800012bb:	c3                   	retq   
   1800012bc:	0f 1f 40 00          	nopl   0x0(%rax)
   1800012c0:	8a 04 0a             	mov    (%rdx,%rcx,1),%al
   1800012c3:	88 01                	mov    %al,(%rcx)
   1800012c5:	48 ff c1             	inc    %rcx
   1800012c8:	49 ff c8             	dec    %r8
   1800012cb:	75 f3                	jne    0x1800012c0
   1800012cd:	49 8b c3             	mov    %r11,%rax
   1800012d0:	c3                   	retq   
   1800012d1:	66 66 66 66 66 66 66 	data16 data16 data16 data16 data16 data16 nopw 0x0(%rax,%rax,1)
   1800012d8:	0f 1f 84 00 00 00 00 
   1800012df:	00 
   1800012e0:	66 66 66 90          	data16 data16 xchg %ax,%ax
   1800012e4:	66 66 90             	data16 xchg %ax,%ax
   1800012e7:	49 81 f9 00 20 00 00 	cmp    $0x2000,%r9
   1800012ee:	73 42                	jae    0x180001332
   1800012f0:	48 8b 04 0a          	mov    (%rdx,%rcx,1),%rax
   1800012f4:	4c 8b 54 0a 08       	mov    0x8(%rdx,%rcx,1),%r10
   1800012f9:	48 83 c1 20          	add    $0x20,%rcx
   1800012fd:	48 89 41 e0          	mov    %rax,-0x20(%rcx)
   180001301:	4c 89 51 e8          	mov    %r10,-0x18(%rcx)
   180001305:	48 8b 44 0a f0       	mov    -0x10(%rdx,%rcx,1),%rax
   18000130a:	4c 8b 54 0a f8       	mov    -0x8(%rdx,%rcx,1),%r10
   18000130f:	49 ff c9             	dec    %r9
   180001312:	48 89 41 f0          	mov    %rax,-0x10(%rcx)
   180001316:	4c 89 51 f8          	mov    %r10,-0x8(%rcx)
   18000131a:	75 d4                	jne    0x1800012f0
   18000131c:	49 83 e0 1f          	and    $0x1f,%r8
   180001320:	e9 71 ff ff ff       	jmpq   0x180001296
   180001325:	66 66 66 0f 1f 84 00 	data16 data16 nopw 0x0(%rax,%rax,1)
   18000132c:	00 00 00 00 
   180001330:	66 90                	xchg   %ax,%ax
   180001332:	48 81 fa 00 10 00 00 	cmp    $0x1000,%rdx
   180001339:	72 b5                	jb     0x1800012f0
   18000133b:	b8 20 00 00 00       	mov    $0x20,%eax
   180001340:	0f 18 04 0a          	prefetchnta (%rdx,%rcx,1)
   180001344:	0f 18 44 0a 40       	prefetchnta 0x40(%rdx,%rcx,1)
   180001349:	48 81 c1 80 00 00 00 	add    $0x80,%rcx
   180001350:	ff c8                	dec    %eax
   180001352:	75 ec                	jne    0x180001340
   180001354:	48 81 e9 00 10 00 00 	sub    $0x1000,%rcx
   18000135b:	b8 40 00 00 00       	mov    $0x40,%eax
   180001360:	4c 8b 0c 0a          	mov    (%rdx,%rcx,1),%r9
   180001364:	4c 8b 54 0a 08       	mov    0x8(%rdx,%rcx,1),%r10
   180001369:	4c 0f c3 09          	movnti %r9,(%rcx)
   18000136d:	4c 0f c3 51 08       	movnti %r10,0x8(%rcx)
   180001372:	4c 8b 4c 0a 10       	mov    0x10(%rdx,%rcx,1),%r9
   180001377:	4c 8b 54 0a 18       	mov    0x18(%rdx,%rcx,1),%r10
   18000137c:	4c 0f c3 49 10       	movnti %r9,0x10(%rcx)
   180001381:	4c 0f c3 51 18       	movnti %r10,0x18(%rcx)
   180001386:	4c 8b 4c 0a 20       	mov    0x20(%rdx,%rcx,1),%r9
   18000138b:	4c 8b 54 0a 28       	mov    0x28(%rdx,%rcx,1),%r10
   180001390:	48 83 c1 40          	add    $0x40,%rcx
   180001394:	4c 0f c3 49 e0       	movnti %r9,-0x20(%rcx)
   180001399:	4c 0f c3 51 e8       	movnti %r10,-0x18(%rcx)
   18000139e:	4c 8b 4c 0a f0       	mov    -0x10(%rdx,%rcx,1),%r9
   1800013a3:	4c 8b 54 0a f8       	mov    -0x8(%rdx,%rcx,1),%r10
   1800013a8:	ff c8                	dec    %eax
   1800013aa:	4c 0f c3 49 f0       	movnti %r9,-0x10(%rcx)
   1800013af:	4c 0f c3 51 f8       	movnti %r10,-0x8(%rcx)
   1800013b4:	75 aa                	jne    0x180001360
   1800013b6:	49 81 e8 00 10 00 00 	sub    $0x1000,%r8
   1800013bd:	49 81 f8 00 10 00 00 	cmp    $0x1000,%r8
   1800013c4:	0f 83 71 ff ff ff    	jae    0x18000133b
   1800013ca:	f0 80 0c 24 00       	lock orb $0x0,(%rsp)
   1800013cf:	e9 b9 fe ff ff       	jmpq   0x18000128d
   1800013d4:	66 66 66 66 0f 1f 84 	data16 data16 data16 nopw 0x0(%rax,%rax,1)
   1800013db:	00 00 00 00 00 
   1800013e0:	66 66 66 90          	data16 data16 xchg %ax,%ax
   1800013e4:	66 66 66 90          	data16 data16 xchg %ax,%ax
   1800013e8:	66 90                	xchg   %ax,%ax
   1800013ea:	49 03 c8             	add    %r8,%rcx
   1800013ed:	49 83 f8 08          	cmp    $0x8,%r8
   1800013f1:	72 61                	jb     0x180001454
   1800013f3:	f6 c1 07             	test   $0x7,%cl
   1800013f6:	74 36                	je     0x18000142e
   1800013f8:	f6 c1 01             	test   $0x1,%cl
   1800013fb:	74 0b                	je     0x180001408
   1800013fd:	48 ff c9             	dec    %rcx
   180001400:	8a 04 0a             	mov    (%rdx,%rcx,1),%al
   180001403:	49 ff c8             	dec    %r8
   180001406:	88 01                	mov    %al,(%rcx)
   180001408:	f6 c1 02             	test   $0x2,%cl
   18000140b:	74 0f                	je     0x18000141c
   18000140d:	48 83 e9 02          	sub    $0x2,%rcx
   180001411:	66 8b 04 0a          	mov    (%rdx,%rcx,1),%ax
   180001415:	49 83 e8 02          	sub    $0x2,%r8
   180001419:	66 89 01             	mov    %ax,(%rcx)
   18000141c:	f6 c1 04             	test   $0x4,%cl
   18000141f:	74 0d                	je     0x18000142e
   180001421:	48 83 e9 04          	sub    $0x4,%rcx
   180001425:	8b 04 0a             	mov    (%rdx,%rcx,1),%eax
   180001428:	49 83 e8 04          	sub    $0x4,%r8
   18000142c:	89 01                	mov    %eax,(%rcx)
   18000142e:	4d 8b c8             	mov    %r8,%r9
   180001431:	49 c1 e9 05          	shr    $0x5,%r9
   180001435:	75 50                	jne    0x180001487
   180001437:	4d 8b c8             	mov    %r8,%r9
   18000143a:	49 c1 e9 03          	shr    $0x3,%r9
   18000143e:	74 14                	je     0x180001454
   180001440:	48 83 e9 08          	sub    $0x8,%rcx
   180001444:	48 8b 04 0a          	mov    (%rdx,%rcx,1),%rax
   180001448:	49 ff c9             	dec    %r9
   18000144b:	48 89 01             	mov    %rax,(%rcx)
   18000144e:	75 f0                	jne    0x180001440
   180001450:	49 83 e0 07          	and    $0x7,%r8
   180001454:	4d 85 c0             	test   %r8,%r8
   180001457:	75 07                	jne    0x180001460
   180001459:	49 8b c3             	mov    %r11,%rax
   18000145c:	c3                   	retq   
   18000145d:	0f 1f 00             	nopl   (%rax)
   180001460:	48 ff c9             	dec    %rcx
   180001463:	8a 04 0a             	mov    (%rdx,%rcx,1),%al
   180001466:	49 ff c8             	dec    %r8
   180001469:	88 01                	mov    %al,(%rcx)
   18000146b:	75 f3                	jne    0x180001460
   18000146d:	49 8b c3             	mov    %r11,%rax
   180001470:	c3                   	retq   
   180001471:	66 66 66 66 66 66 66 	data16 data16 data16 data16 data16 data16 nopw 0x0(%rax,%rax,1)
   180001478:	0f 1f 84 00 00 00 00 
   18000147f:	00 
   180001480:	66 66 66 90          	data16 data16 xchg %ax,%ax
   180001484:	66 66 90             	data16 xchg %ax,%ax
   180001487:	49 81 f9 00 20 00 00 	cmp    $0x2000,%r9
   18000148e:	73 42                	jae    0x1800014d2
   180001490:	48 8b 44 0a f8       	mov    -0x8(%rdx,%rcx,1),%rax
   180001495:	4c 8b 54 0a f0       	mov    -0x10(%rdx,%rcx,1),%r10
   18000149a:	48 83 e9 20          	sub    $0x20,%rcx
   18000149e:	48 89 41 18          	mov    %rax,0x18(%rcx)
   1800014a2:	4c 89 51 10          	mov    %r10,0x10(%rcx)
   1800014a6:	48 8b 44 0a 08       	mov    0x8(%rdx,%rcx,1),%rax
   1800014ab:	4c 8b 14 0a          	mov    (%rdx,%rcx,1),%r10
   1800014af:	49 ff c9             	dec    %r9
   1800014b2:	48 89 41 08          	mov    %rax,0x8(%rcx)
   1800014b6:	4c 89 11             	mov    %r10,(%rcx)
   1800014b9:	75 d5                	jne    0x180001490
   1800014bb:	49 83 e0 1f          	and    $0x1f,%r8
   1800014bf:	e9 73 ff ff ff       	jmpq   0x180001437
   1800014c4:	66 66 66 66 0f 1f 84 	data16 data16 data16 nopw 0x0(%rax,%rax,1)
   1800014cb:	00 00 00 00 00 
   1800014d0:	66 90                	xchg   %ax,%ax
   1800014d2:	48 81 fa 00 f0 ff ff 	cmp    $0xfffffffffffff000,%rdx
   1800014d9:	77 b5                	ja     0x180001490
   1800014db:	b8 20 00 00 00       	mov    $0x20,%eax
   1800014e0:	48 81 e9 80 00 00 00 	sub    $0x80,%rcx
   1800014e7:	0f 18 04 0a          	prefetchnta (%rdx,%rcx,1)
   1800014eb:	0f 18 44 0a 40       	prefetchnta 0x40(%rdx,%rcx,1)
   1800014f0:	ff c8                	dec    %eax
   1800014f2:	75 ec                	jne    0x1800014e0
   1800014f4:	48 81 c1 00 10 00 00 	add    $0x1000,%rcx
   1800014fb:	b8 40 00 00 00       	mov    $0x40,%eax
   180001500:	4c 8b 4c 0a f8       	mov    -0x8(%rdx,%rcx,1),%r9
   180001505:	4c 8b 54 0a f0       	mov    -0x10(%rdx,%rcx,1),%r10
   18000150a:	4c 0f c3 49 f8       	movnti %r9,-0x8(%rcx)
   18000150f:	4c 0f c3 51 f0       	movnti %r10,-0x10(%rcx)
   180001514:	4c 8b 4c 0a e8       	mov    -0x18(%rdx,%rcx,1),%r9
   180001519:	4c 8b 54 0a e0       	mov    -0x20(%rdx,%rcx,1),%r10
   18000151e:	4c 0f c3 49 e8       	movnti %r9,-0x18(%rcx)
   180001523:	4c 0f c3 51 e0       	movnti %r10,-0x20(%rcx)
   180001528:	4c 8b 4c 0a d8       	mov    -0x28(%rdx,%rcx,1),%r9
   18000152d:	4c 8b 54 0a d0       	mov    -0x30(%rdx,%rcx,1),%r10
   180001532:	48 83 e9 40          	sub    $0x40,%rcx
   180001536:	4c 0f c3 49 18       	movnti %r9,0x18(%rcx)
   18000153b:	4c 0f c3 51 10       	movnti %r10,0x10(%rcx)
   180001540:	4c 8b 4c 0a 08       	mov    0x8(%rdx,%rcx,1),%r9
   180001545:	4c 8b 14 0a          	mov    (%rdx,%rcx,1),%r10
   180001549:	ff c8                	dec    %eax
   18000154b:	4c 0f c3 49 08       	movnti %r9,0x8(%rcx)
   180001550:	4c 0f c3 11          	movnti %r10,(%rcx)
   180001554:	75 aa                	jne    0x180001500
   180001556:	49 81 e8 00 10 00 00 	sub    $0x1000,%r8
   18000155d:	49 81 f8 00 10 00 00 	cmp    $0x1000,%r8
   180001564:	0f 83 71 ff ff ff    	jae    0x1800014db
   18000156a:	f0 80 0c 24 00       	lock orb $0x0,(%rsp)
   18000156f:	e9 ba fe ff ff       	jmpq   0x18000142e
   180001574:	40 53                	rex push %rbx
   180001576:	48 83 ec 20          	sub    $0x20,%rsp
   18000157a:	49 8b c0             	mov    %r8,%rax
   18000157d:	44 8a c2             	mov    %dl,%r8b
   180001580:	48 8b d9             	mov    %rcx,%rbx
   180001583:	48 8b d0             	mov    %rax,%rdx
   180001586:	ff 15 7c 2a 00 00    	callq  *0x2a7c(%rip)        # 0x180004008
   18000158c:	48 8b c3             	mov    %rbx,%rax
   18000158f:	48 83 c4 20          	add    $0x20,%rsp
   180001593:	5b                   	pop    %rbx
   180001594:	c3                   	retq   
   180001595:	cc                   	int3   
   180001596:	cc                   	int3   
   180001597:	cc                   	int3   
   180001598:	cc                   	int3   
   180001599:	cc                   	int3   
   18000159a:	cc                   	int3   
   18000159b:	cc                   	int3   
   18000159c:	cc                   	int3   
   18000159d:	cc                   	int3   
   18000159e:	cc                   	int3   
   18000159f:	cc                   	int3   
   1800015a0:	33 c0                	xor    %eax,%eax
   1800015a2:	c3                   	retq   
   1800015a3:	cc                   	int3   
   1800015a4:	48 89 5c 24 08       	mov    %rbx,0x8(%rsp)
   1800015a9:	55                   	push   %rbp
   1800015aa:	56                   	push   %rsi
   1800015ab:	57                   	push   %rdi
   1800015ac:	41 54                	push   %r12
   1800015ae:	41 55                	push   %r13
   1800015b0:	41 56                	push   %r14
   1800015b2:	41 57                	push   %r15
   1800015b4:	48 8b ec             	mov    %rsp,%rbp
   1800015b7:	48 83 ec 50          	sub    $0x50,%rsp
   1800015bb:	45 33 ed             	xor    %r13d,%r13d
   1800015be:	44 8b e1             	mov    %ecx,%r12d
   1800015c1:	44 89 6d 48          	mov    %r13d,0x48(%rbp)
   1800015c5:	44 89 6d 50          	mov    %r13d,0x50(%rbp)
   1800015c9:	44 89 6d fc          	mov    %r13d,-0x4(%rbp)
   1800015cd:	e8 4a 21 00 00       	callq  0x18000371c
   1800015d2:	8b d8                	mov    %eax,%ebx
   1800015d4:	85 c0                	test   %eax,%eax
   1800015d6:	75 0a                	jne    0x1800015e2
   1800015d8:	b8 43 06 00 00       	mov    $0x643,%eax
   1800015dd:	e9 45 04 00 00       	jmpq   0x180001a27
   1800015e2:	4c 8d 45 fc          	lea    -0x4(%rbp),%r8
   1800015e6:	48 8d 15 63 2b 00 00 	lea    0x2b63(%rip),%rdx        # 0x180004150
   1800015ed:	8b c8                	mov    %eax,%ecx
   1800015ef:	e8 ec 20 00 00       	callq  0x1800036e0
   1800015f4:	85 c0                	test   %eax,%eax
   1800015f6:	74 21                	je     0x180001619
   1800015f8:	3d 4f 06 00 00       	cmp    $0x64f,%eax
   1800015fd:	75 d9                	jne    0x1800015d8
   1800015ff:	48 8d 15 5a 2c 00 00 	lea    0x2c5a(%rip),%rdx        # 0x180004260
   180001606:	8b cb                	mov    %ebx,%ecx
   180001608:	e8 eb 20 00 00       	callq  0x1800036f8
   18000160d:	83 f8 02             	cmp    $0x2,%eax
   180001610:	75 c6                	jne    0x1800015d8
   180001612:	33 c0                	xor    %eax,%eax
   180001614:	e9 0e 04 00 00       	jmpq   0x180001a27
   180001619:	8b 4d fc             	mov    -0x4(%rbp),%ecx
   18000161c:	33 d2                	xor    %edx,%edx
   18000161e:	e8 c3 20 00 00       	callq  0x1800036e6
   180001623:	85 c0                	test   %eax,%eax
   180001625:	75 b1                	jne    0x1800015d8
   180001627:	8b 4d fc             	mov    -0x4(%rbp),%ecx
   18000162a:	48 8d 55 50          	lea    0x50(%rbp),%rdx
   18000162e:	e8 b9 20 00 00       	callq  0x1800036ec
   180001633:	8b c8                	mov    %eax,%ecx
   180001635:	85 c0                	test   %eax,%eax
   180001637:	0f 85 d8 03 00 00    	jne    0x180001a15
   18000163d:	41 bf ea 00 00 00    	mov    $0xea,%r15d
   180001643:	8b 4d 50             	mov    0x50(%rbp),%ecx
   180001646:	4c 8d 4d 58          	lea    0x58(%rbp),%r9
   18000164a:	4c 8d 05 07 2c 00 00 	lea    0x2c07(%rip),%r8        # 0x180004258
   180001651:	ba 01 00 00 00       	mov    $0x1,%edx
   180001656:	44 89 6d 58          	mov    %r13d,0x58(%rbp)
   18000165a:	44 89 6d f8          	mov    %r13d,-0x8(%rbp)
   18000165e:	44 89 6d f0          	mov    %r13d,-0x10(%rbp)
   180001662:	e8 a9 20 00 00       	callq  0x180003710
   180001667:	41 3b c7             	cmp    %r15d,%eax
   18000166a:	0f 85 68 ff ff ff    	jne    0x1800015d8
   180001670:	8b 45 58             	mov    0x58(%rbp),%eax
   180001673:	ff c0                	inc    %eax
   180001675:	89 45 58             	mov    %eax,0x58(%rbp)
   180001678:	8b d8                	mov    %eax,%ebx
   18000167a:	ff 15 c8 29 00 00    	callq  *0x29c8(%rip)        # 0x180004048
   180001680:	44 8b c3             	mov    %ebx,%r8d
   180001683:	33 d2                	xor    %edx,%edx
   180001685:	48 8b c8             	mov    %rax,%rcx
   180001688:	ff 15 ca 29 00 00    	callq  *0x29ca(%rip)        # 0x180004058
   18000168e:	48 8b f8             	mov    %rax,%rdi
   180001691:	48 85 c0             	test   %rax,%rax
   180001694:	0f 84 3e ff ff ff    	je     0x1800015d8
   18000169a:	8b 4d 50             	mov    0x50(%rbp),%ecx
   18000169d:	4c 8d 4d 58          	lea    0x58(%rbp),%r9
   1800016a1:	4c 8b c0             	mov    %rax,%r8
   1800016a4:	ba 01 00 00 00       	mov    $0x1,%edx
   1800016a9:	e8 62 20 00 00       	callq  0x180003710
   1800016ae:	85 c0                	test   %eax,%eax
   1800016b0:	0f 85 2d 07 00 00    	jne    0x180001de3
   1800016b6:	8b 4d 50             	mov    0x50(%rbp),%ecx
   1800016b9:	4c 8d 4d f8          	lea    -0x8(%rbp),%r9
   1800016bd:	4c 8d 05 94 2b 00 00 	lea    0x2b94(%rip),%r8        # 0x180004258
   1800016c4:	8d 50 02             	lea    0x2(%rax),%edx
   1800016c7:	e8 44 20 00 00       	callq  0x180003710
   1800016cc:	41 3b c7             	cmp    %r15d,%eax
   1800016cf:	0f 85 0e 07 00 00    	jne    0x180001de3
   1800016d5:	8b 45 f8             	mov    -0x8(%rbp),%eax
   1800016d8:	ff c0                	inc    %eax
   1800016da:	89 45 f8             	mov    %eax,-0x8(%rbp)
   1800016dd:	8b d8                	mov    %eax,%ebx
   1800016df:	ff 15 63 29 00 00    	callq  *0x2963(%rip)        # 0x180004048
   1800016e5:	44 8b c3             	mov    %ebx,%r8d
   1800016e8:	33 d2                	xor    %edx,%edx
   1800016ea:	48 8b c8             	mov    %rax,%rcx
   1800016ed:	ff 15 65 29 00 00    	callq  *0x2965(%rip)        # 0x180004058
   1800016f3:	4c 8b f0             	mov    %rax,%r14
   1800016f6:	48 85 c0             	test   %rax,%rax
   1800016f9:	0f 84 e4 06 00 00    	je     0x180001de3
   1800016ff:	8b 4d 50             	mov    0x50(%rbp),%ecx
   180001702:	4c 8d 4d f8          	lea    -0x8(%rbp),%r9
   180001706:	4c 8b c0             	mov    %rax,%r8
   180001709:	ba 02 00 00 00       	mov    $0x2,%edx
   18000170e:	e8 fd 1f 00 00       	callq  0x180003710
   180001713:	85 c0                	test   %eax,%eax
   180001715:	0f 85 a9 06 00 00    	jne    0x180001dc4
   18000171b:	4c 8d 4d 48          	lea    0x48(%rbp),%r9
   18000171f:	4c 8d 05 32 2b 00 00 	lea    0x2b32(%rip),%r8        # 0x180004258
   180001726:	49 8b d6             	mov    %r14,%rdx
   180001729:	41 8b cc             	mov    %r12d,%ecx
   18000172c:	e8 f7 1f 00 00       	callq  0x180003728
   180001731:	41 3b c7             	cmp    %r15d,%eax
   180001734:	0f 85 8a 06 00 00    	jne    0x180001dc4
   18000173a:	8b 45 48             	mov    0x48(%rbp),%eax
   18000173d:	ff c0                	inc    %eax
   18000173f:	89 45 48             	mov    %eax,0x48(%rbp)
   180001742:	8b d8                	mov    %eax,%ebx
   180001744:	ff 15 fe 28 00 00    	callq  *0x28fe(%rip)        # 0x180004048
   18000174a:	44 8b c3             	mov    %ebx,%r8d
   18000174d:	33 d2                	xor    %edx,%edx
   18000174f:	48 8b c8             	mov    %rax,%rcx
   180001752:	ff 15 00 29 00 00    	callq  *0x2900(%rip)        # 0x180004058
   180001758:	48 8b f0             	mov    %rax,%rsi
   18000175b:	48 85 c0             	test   %rax,%rax
   18000175e:	0f 84 60 06 00 00    	je     0x180001dc4
   180001764:	44 8b 45 48          	mov    0x48(%rbp),%r8d
   180001768:	33 d2                	xor    %edx,%edx
   18000176a:	48 8b c8             	mov    %rax,%rcx
   18000176d:	4d 03 c0             	add    %r8,%r8
   180001770:	e8 ff fd ff ff       	callq  0x180001574
   180001775:	4c 8d 4d 48          	lea    0x48(%rbp),%r9
   180001779:	4c 8b c6             	mov    %rsi,%r8
   18000177c:	49 8b d6             	mov    %r14,%rdx
   18000177f:	41 8b cc             	mov    %r12d,%ecx
   180001782:	e8 a1 1f 00 00       	callq  0x180003728
   180001787:	85 c0                	test   %eax,%eax
   180001789:	0f 85 0b 06 00 00    	jne    0x180001d9a
   18000178f:	66 44 39 2e          	cmp    %r13w,(%rsi)
   180001793:	0f 84 01 06 00 00    	je     0x180001d9a
   180001799:	8b 4d 50             	mov    0x50(%rbp),%ecx
   18000179c:	4c 8d 4d f0          	lea    -0x10(%rbp),%r9
   1800017a0:	4c 8d 05 b1 2a 00 00 	lea    0x2ab1(%rip),%r8        # 0x180004258
   1800017a7:	8d 50 03             	lea    0x3(%rax),%edx
   1800017aa:	e8 61 1f 00 00       	callq  0x180003710
   1800017af:	41 3b c7             	cmp    %r15d,%eax
   1800017b2:	0f 85 a4 05 00 00    	jne    0x180001d5c
   1800017b8:	8b 45 f0             	mov    -0x10(%rbp),%eax
   1800017bb:	ff c0                	inc    %eax
   1800017bd:	89 45 f0             	mov    %eax,-0x10(%rbp)
   1800017c0:	8b d8                	mov    %eax,%ebx
   1800017c2:	ff 15 80 28 00 00    	callq  *0x2880(%rip)        # 0x180004048
   1800017c8:	44 8b c3             	mov    %ebx,%r8d
   1800017cb:	33 d2                	xor    %edx,%edx
   1800017cd:	48 8b c8             	mov    %rax,%rcx
   1800017d0:	ff 15 82 28 00 00    	callq  *0x2882(%rip)        # 0x180004058
   1800017d6:	4c 8b f8             	mov    %rax,%r15
   1800017d9:	48 85 c0             	test   %rax,%rax
   1800017dc:	0f 84 30 05 00 00    	je     0x180001d12
   1800017e2:	8b 4d 50             	mov    0x50(%rbp),%ecx
   1800017e5:	4c 8d 4d f0          	lea    -0x10(%rbp),%r9
   1800017e9:	4c 8b c0             	mov    %rax,%r8
   1800017ec:	ba 03 00 00 00       	mov    $0x3,%edx
   1800017f1:	e8 1a 1f 00 00       	callq  0x180003710
   1800017f6:	85 c0                	test   %eax,%eax
   1800017f8:	0f 85 d6 04 00 00    	jne    0x180001cd4
   1800017fe:	44 8b 45 f0          	mov    -0x10(%rbp),%r8d
   180001802:	8b 45 48             	mov    0x48(%rbp),%eax
   180001805:	44 03 45 58          	add    0x58(%rbp),%r8d
   180001809:	83 c0 04             	add    $0x4,%eax
   18000180c:	41 03 c0             	add    %r8d,%eax
   18000180f:	89 45 f4             	mov    %eax,-0xc(%rbp)
   180001812:	8b d8                	mov    %eax,%ebx
   180001814:	ff 15 2e 28 00 00    	callq  *0x282e(%rip)        # 0x180004048
   18000181a:	44 8b c3             	mov    %ebx,%r8d
   18000181d:	33 d2                	xor    %edx,%edx
   18000181f:	48 8b c8             	mov    %rax,%rcx
   180001822:	ff 15 30 28 00 00    	callq  *0x2830(%rip)        # 0x180004058
   180001828:	33 db                	xor    %ebx,%ebx
   18000182a:	4c 8b e8             	mov    %rax,%r13
   18000182d:	48 85 c0             	test   %rax,%rax
   180001830:	0f 84 41 04 00 00    	je     0x180001c77
   180001836:	4c 89 7c 24 30       	mov    %r15,0x30(%rsp)
   18000183b:	44 8d 4b 01          	lea    0x1(%rbx),%r9d
   18000183f:	48 8d 15 42 2a 00 00 	lea    0x2a42(%rip),%rdx        # 0x180004288
   180001846:	4c 8b c7             	mov    %rdi,%r8
   180001849:	48 8b c8             	mov    %rax,%rcx
   18000184c:	c7 44 24 28 01 00 00 	movl   $0x1,0x28(%rsp)
   180001853:	00 
   180001854:	66 89 18             	mov    %bx,(%rax)
   180001857:	48 89 74 24 20       	mov    %rsi,0x20(%rsp)
   18000185c:	ff 15 0e 28 00 00    	callq  *0x280e(%rip)        # 0x180004070
   180001862:	85 c0                	test   %eax,%eax
   180001864:	0f 88 9c 03 00 00    	js     0x180001c06
   18000186a:	8b 45 48             	mov    0x48(%rbp),%eax
   18000186d:	48 8b ce             	mov    %rsi,%rcx
   180001870:	03 c0                	add    %eax,%eax
   180001872:	74 09                	je     0x18000187d
   180001874:	88 19                	mov    %bl,(%rcx)
   180001876:	48 ff c1             	inc    %rcx
   180001879:	ff c8                	dec    %eax
   18000187b:	75 f7                	jne    0x180001874
   18000187d:	b9 02 00 00 00       	mov    $0x2,%ecx
   180001882:	e8 77 1e 00 00       	callq  0x1800036fe
   180001887:	8b d8                	mov    %eax,%ebx
   180001889:	85 c0                	test   %eax,%eax
   18000188b:	0f 84 f1 02 00 00    	je     0x180001b82
   180001891:	4c 8b c7             	mov    %rdi,%r8
   180001894:	ba 01 00 00 00       	mov    $0x1,%edx
   180001899:	8b c8                	mov    %eax,%ecx
   18000189b:	e8 6a 1e 00 00       	callq  0x18000370a
   1800018a0:	85 c0                	test   %eax,%eax
   1800018a2:	0f 85 da 02 00 00    	jne    0x180001b82
   1800018a8:	8d 50 02             	lea    0x2(%rax),%edx
   1800018ab:	4d 8b c7             	mov    %r15,%r8
   1800018ae:	8b cb                	mov    %ebx,%ecx
   1800018b0:	e8 55 1e 00 00       	callq  0x18000370a
   1800018b5:	85 c0                	test   %eax,%eax
   1800018b7:	0f 85 c5 02 00 00    	jne    0x180001b82
   1800018bd:	44 8b c3             	mov    %ebx,%r8d
   1800018c0:	ba 00 00 00 09       	mov    $0x9000000,%edx
   1800018c5:	41 8b cc             	mov    %r12d,%ecx
   1800018c8:	e8 67 1e 00 00       	callq  0x180003734
   1800018cd:	83 f8 02             	cmp    $0x2,%eax
   1800018d0:	0f 84 41 02 00 00    	je     0x180001b17
   1800018d6:	83 f8 03             	cmp    $0x3,%eax
   1800018d9:	0f 84 38 02 00 00    	je     0x180001b17
   1800018df:	48 8d 15 4a 28 00 00 	lea    0x284a(%rip),%rdx        # 0x180004130
   1800018e6:	4c 8b c7             	mov    %rdi,%r8
   1800018e9:	41 8b cc             	mov    %r12d,%ecx
   1800018ec:	e8 31 1e 00 00       	callq  0x180003722
   1800018f1:	33 db                	xor    %ebx,%ebx
   1800018f3:	85 c0                	test   %eax,%eax
   1800018f5:	0f 85 b0 01 00 00    	jne    0x180001aab
   1800018fb:	48 8d 15 2e 28 00 00 	lea    0x282e(%rip),%rdx        # 0x180004130
   180001902:	41 8b cc             	mov    %r12d,%ecx
   180001905:	e8 24 1e 00 00       	callq  0x18000372e
   18000190a:	85 c0                	test   %eax,%eax
   18000190c:	0f 85 99 01 00 00    	jne    0x180001aab
   180001912:	4c 8d 05 3f 29 00 00 	lea    0x293f(%rip),%r8        # 0x180004258
   180001919:	48 8d 15 10 28 00 00 	lea    0x2810(%rip),%rdx        # 0x180004130
   180001920:	41 8b cc             	mov    %r12d,%ecx
   180001923:	e8 fa 1d 00 00       	callq  0x180003722
   180001928:	85 c0                	test   %eax,%eax
   18000192a:	0f 85 7b 01 00 00    	jne    0x180001aab
   180001930:	48 8d 15 d9 27 00 00 	lea    0x27d9(%rip),%rdx        # 0x180004110
   180001937:	4d 8b c5             	mov    %r13,%r8
   18000193a:	41 8b cc             	mov    %r12d,%ecx
   18000193d:	e8 e0 1d 00 00       	callq  0x180003722
   180001942:	85 c0                	test   %eax,%eax
   180001944:	0f 85 f5 00 00 00    	jne    0x180001a3f
   18000194a:	48 8d 15 bf 27 00 00 	lea    0x27bf(%rip),%rdx        # 0x180004110
   180001951:	41 8b cc             	mov    %r12d,%ecx
   180001954:	e8 d5 1d 00 00       	callq  0x18000372e
   180001959:	85 c0                	test   %eax,%eax
   18000195b:	0f 85 de 00 00 00    	jne    0x180001a3f
   180001961:	4c 8d 05 f0 28 00 00 	lea    0x28f0(%rip),%r8        # 0x180004258
   180001968:	48 8d 15 a1 27 00 00 	lea    0x27a1(%rip),%rdx        # 0x180004110
   18000196f:	41 8b cc             	mov    %r12d,%ecx
   180001972:	e8 ab 1d 00 00       	callq  0x180003722
   180001977:	85 c0                	test   %eax,%eax
   180001979:	0f 85 c0 00 00 00    	jne    0x180001a3f
   18000197f:	8b 4d f4             	mov    -0xc(%rbp),%ecx
   180001982:	49 8b c5             	mov    %r13,%rax
   180001985:	03 c9                	add    %ecx,%ecx
   180001987:	74 09                	je     0x180001992
   180001989:	88 18                	mov    %bl,(%rax)
   18000198b:	48 ff c0             	inc    %rax
   18000198e:	ff c9                	dec    %ecx
   180001990:	75 f7                	jne    0x180001989
   180001992:	ff 15 b0 26 00 00    	callq  *0x26b0(%rip)        # 0x180004048
   180001998:	4d 8b c5             	mov    %r13,%r8
   18000199b:	33 d2                	xor    %edx,%edx
   18000199d:	48 8b c8             	mov    %rax,%rcx
   1800019a0:	ff 15 aa 26 00 00    	callq  *0x26aa(%rip)        # 0x180004050
   1800019a6:	ff 15 9c 26 00 00    	callq  *0x269c(%rip)        # 0x180004048
   1800019ac:	4c 8b c7             	mov    %rdi,%r8
   1800019af:	48 8b c8             	mov    %rax,%rcx
   1800019b2:	33 d2                	xor    %edx,%edx
   1800019b4:	ff 15 96 26 00 00    	callq  *0x2696(%rip)        # 0x180004050
   1800019ba:	ff 15 88 26 00 00    	callq  *0x2688(%rip)        # 0x180004048
   1800019c0:	4d 8b c6             	mov    %r14,%r8
   1800019c3:	48 8b c8             	mov    %rax,%rcx
   1800019c6:	33 d2                	xor    %edx,%edx
   1800019c8:	ff 15 82 26 00 00    	callq  *0x2682(%rip)        # 0x180004050
   1800019ce:	ff 15 74 26 00 00    	callq  *0x2674(%rip)        # 0x180004048
   1800019d4:	4c 8b c6             	mov    %rsi,%r8
   1800019d7:	48 8b c8             	mov    %rax,%rcx
   1800019da:	33 d2                	xor    %edx,%edx
   1800019dc:	ff 15 6e 26 00 00    	callq  *0x266e(%rip)        # 0x180004050
   1800019e2:	ff 15 60 26 00 00    	callq  *0x2660(%rip)        # 0x180004048
   1800019e8:	4d 8b c7             	mov    %r15,%r8
   1800019eb:	48 8b c8             	mov    %rax,%rcx
   1800019ee:	33 d2                	xor    %edx,%edx
   1800019f0:	ff 15 5a 26 00 00    	callq  *0x265a(%rip)        # 0x180004050
   1800019f6:	8b 4d fc             	mov    -0x4(%rbp),%ecx
   1800019f9:	48 8d 55 50          	lea    0x50(%rbp),%rdx
   1800019fd:	e8 ea 1c 00 00       	callq  0x1800036ec
   180001a02:	45 33 ed             	xor    %r13d,%r13d
   180001a05:	41 bf ea 00 00 00    	mov    $0xea,%r15d
   180001a0b:	8b c8                	mov    %eax,%ecx
   180001a0d:	85 c0                	test   %eax,%eax
   180001a0f:	0f 84 2e fc ff ff    	je     0x180001643
   180001a15:	b8 03 01 00 00       	mov    $0x103,%eax
   180001a1a:	bb 43 06 00 00       	mov    $0x643,%ebx
   180001a1f:	2b c1                	sub    %ecx,%eax
   180001a21:	f7 d8                	neg    %eax
   180001a23:	1b c0                	sbb    %eax,%eax
   180001a25:	23 c3                	and    %ebx,%eax
   180001a27:	48 8b 9c 24 90 00 00 	mov    0x90(%rsp),%rbx
   180001a2e:	00 
   180001a2f:	48 83 c4 50          	add    $0x50,%rsp
   180001a33:	41 5f                	pop    %r15
   180001a35:	41 5e                	pop    %r14
   180001a37:	41 5d                	pop    %r13
   180001a39:	41 5c                	pop    %r12
   180001a3b:	5f                   	pop    %rdi
   180001a3c:	5e                   	pop    %rsi
   180001a3d:	5d                   	pop    %rbp
   180001a3e:	c3                   	retq   
   180001a3f:	ff 15 03 26 00 00    	callq  *0x2603(%rip)        # 0x180004048
   180001a45:	4c 8b c7             	mov    %rdi,%r8
   180001a48:	33 d2                	xor    %edx,%edx
   180001a4a:	48 8b c8             	mov    %rax,%rcx
   180001a4d:	ff 15 fd 25 00 00    	callq  *0x25fd(%rip)        # 0x180004050
   180001a53:	ff 15 ef 25 00 00    	callq  *0x25ef(%rip)        # 0x180004048
   180001a59:	4d 8b c6             	mov    %r14,%r8
   180001a5c:	48 8b c8             	mov    %rax,%rcx
   180001a5f:	33 d2                	xor    %edx,%edx
   180001a61:	ff 15 e9 25 00 00    	callq  *0x25e9(%rip)        # 0x180004050
   180001a67:	ff 15 db 25 00 00    	callq  *0x25db(%rip)        # 0x180004048
   180001a6d:	4c 8b c6             	mov    %rsi,%r8
   180001a70:	48 8b c8             	mov    %rax,%rcx
   180001a73:	33 d2                	xor    %edx,%edx
   180001a75:	ff 15 d5 25 00 00    	callq  *0x25d5(%rip)        # 0x180004050
   180001a7b:	ff 15 c7 25 00 00    	callq  *0x25c7(%rip)        # 0x180004048
   180001a81:	4d 8b c7             	mov    %r15,%r8
   180001a84:	48 8b c8             	mov    %rax,%rcx
   180001a87:	33 d2                	xor    %edx,%edx
   180001a89:	ff 15 c1 25 00 00    	callq  *0x25c1(%rip)        # 0x180004050
   180001a8f:	8b 4d f4             	mov    -0xc(%rbp),%ecx
   180001a92:	49 8b c5             	mov    %r13,%rax
   180001a95:	03 c9                	add    %ecx,%ecx
   180001a97:	0f 84 49 01 00 00    	je     0x180001be6
   180001a9d:	88 18                	mov    %bl,(%rax)
   180001a9f:	48 ff c0             	inc    %rax
   180001aa2:	ff c9                	dec    %ecx
   180001aa4:	75 f7                	jne    0x180001a9d
   180001aa6:	e9 3b 01 00 00       	jmpq   0x180001be6
   180001aab:	ff 15 97 25 00 00    	callq  *0x2597(%rip)        # 0x180004048
   180001ab1:	4c 8b c7             	mov    %rdi,%r8
   180001ab4:	33 d2                	xor    %edx,%edx
   180001ab6:	48 8b c8             	mov    %rax,%rcx
   180001ab9:	ff 15 91 25 00 00    	callq  *0x2591(%rip)        # 0x180004050
   180001abf:	ff 15 83 25 00 00    	callq  *0x2583(%rip)        # 0x180004048
   180001ac5:	4d 8b c6             	mov    %r14,%r8
   180001ac8:	48 8b c8             	mov    %rax,%rcx
   180001acb:	33 d2                	xor    %edx,%edx
   180001acd:	ff 15 7d 25 00 00    	callq  *0x257d(%rip)        # 0x180004050
   180001ad3:	ff 15 6f 25 00 00    	callq  *0x256f(%rip)        # 0x180004048
   180001ad9:	4c 8b c6             	mov    %rsi,%r8
   180001adc:	48 8b c8             	mov    %rax,%rcx
   180001adf:	33 d2                	xor    %edx,%edx
   180001ae1:	ff 15 69 25 00 00    	callq  *0x2569(%rip)        # 0x180004050
   180001ae7:	ff 15 5b 25 00 00    	callq  *0x255b(%rip)        # 0x180004048
   180001aed:	4d 8b c7             	mov    %r15,%r8
   180001af0:	48 8b c8             	mov    %rax,%rcx
   180001af3:	33 d2                	xor    %edx,%edx
   180001af5:	ff 15 55 25 00 00    	callq  *0x2555(%rip)        # 0x180004050
   180001afb:	8b 4d f4             	mov    -0xc(%rbp),%ecx
   180001afe:	49 8b c5             	mov    %r13,%rax
   180001b01:	03 c9                	add    %ecx,%ecx
   180001b03:	0f 84 dd 00 00 00    	je     0x180001be6
   180001b09:	88 18                	mov    %bl,(%rax)
   180001b0b:	48 ff c0             	inc    %rax
   180001b0e:	ff c9                	dec    %ecx
   180001b10:	75 f7                	jne    0x180001b09
   180001b12:	e9 cf 00 00 00       	jmpq   0x180001be6
   180001b17:	ff 15 2b 25 00 00    	callq  *0x252b(%rip)        # 0x180004048
   180001b1d:	4c 8b c7             	mov    %rdi,%r8
   180001b20:	33 d2                	xor    %edx,%edx
   180001b22:	48 8b c8             	mov    %rax,%rcx
   180001b25:	ff 15 25 25 00 00    	callq  *0x2525(%rip)        # 0x180004050
   180001b2b:	ff 15 17 25 00 00    	callq  *0x2517(%rip)        # 0x180004048
   180001b31:	4d 8b c6             	mov    %r14,%r8
   180001b34:	48 8b c8             	mov    %rax,%rcx
   180001b37:	33 d2                	xor    %edx,%edx
   180001b39:	ff 15 11 25 00 00    	callq  *0x2511(%rip)        # 0x180004050
   180001b3f:	ff 15 03 25 00 00    	callq  *0x2503(%rip)        # 0x180004048
   180001b45:	4c 8b c6             	mov    %rsi,%r8
   180001b48:	48 8b c8             	mov    %rax,%rcx
   180001b4b:	33 d2                	xor    %edx,%edx
   180001b4d:	ff 15 fd 24 00 00    	callq  *0x24fd(%rip)        # 0x180004050
   180001b53:	ff 15 ef 24 00 00    	callq  *0x24ef(%rip)        # 0x180004048
   180001b59:	4d 8b c7             	mov    %r15,%r8
   180001b5c:	48 8b c8             	mov    %rax,%rcx
   180001b5f:	33 d2                	xor    %edx,%edx
   180001b61:	ff 15 e9 24 00 00    	callq  *0x24e9(%rip)        # 0x180004050
   180001b67:	8b 4d f4             	mov    -0xc(%rbp),%ecx
   180001b6a:	49 8b c5             	mov    %r13,%rax
   180001b6d:	03 c9                	add    %ecx,%ecx
   180001b6f:	74 0a                	je     0x180001b7b
   180001b71:	c6 00 00             	movb   $0x0,(%rax)
   180001b74:	48 ff c0             	inc    %rax
   180001b77:	ff c9                	dec    %ecx
   180001b79:	75 f6                	jne    0x180001b71
   180001b7b:	bb 42 06 00 00       	mov    $0x642,%ebx
   180001b80:	eb 69                	jmp    0x180001beb
   180001b82:	ff 15 c0 24 00 00    	callq  *0x24c0(%rip)        # 0x180004048
   180001b88:	4c 8b c7             	mov    %rdi,%r8
   180001b8b:	33 d2                	xor    %edx,%edx
   180001b8d:	48 8b c8             	mov    %rax,%rcx
   180001b90:	ff 15 ba 24 00 00    	callq  *0x24ba(%rip)        # 0x180004050
   180001b96:	ff 15 ac 24 00 00    	callq  *0x24ac(%rip)        # 0x180004048
   180001b9c:	4d 8b c6             	mov    %r14,%r8
   180001b9f:	48 8b c8             	mov    %rax,%rcx
   180001ba2:	33 d2                	xor    %edx,%edx
   180001ba4:	ff 15 a6 24 00 00    	callq  *0x24a6(%rip)        # 0x180004050
   180001baa:	ff 15 98 24 00 00    	callq  *0x2498(%rip)        # 0x180004048
   180001bb0:	4c 8b c6             	mov    %rsi,%r8
   180001bb3:	48 8b c8             	mov    %rax,%rcx
   180001bb6:	33 d2                	xor    %edx,%edx
   180001bb8:	ff 15 92 24 00 00    	callq  *0x2492(%rip)        # 0x180004050
   180001bbe:	ff 15 84 24 00 00    	callq  *0x2484(%rip)        # 0x180004048
   180001bc4:	4d 8b c7             	mov    %r15,%r8
   180001bc7:	48 8b c8             	mov    %rax,%rcx
   180001bca:	33 d2                	xor    %edx,%edx
   180001bcc:	ff 15 7e 24 00 00    	callq  *0x247e(%rip)        # 0x180004050
   180001bd2:	8b 4d f4             	mov    -0xc(%rbp),%ecx
   180001bd5:	49 8b c5             	mov    %r13,%rax
   180001bd8:	03 c9                	add    %ecx,%ecx
   180001bda:	74 0a                	je     0x180001be6
   180001bdc:	c6 00 00             	movb   $0x0,(%rax)
   180001bdf:	48 ff c0             	inc    %rax
   180001be2:	ff c9                	dec    %ecx
   180001be4:	75 f6                	jne    0x180001bdc
   180001be6:	bb 43 06 00 00       	mov    $0x643,%ebx
   180001beb:	ff 15 57 24 00 00    	callq  *0x2457(%rip)        # 0x180004048
   180001bf1:	4d 8b c5             	mov    %r13,%r8
   180001bf4:	33 d2                	xor    %edx,%edx
   180001bf6:	48 8b c8             	mov    %rax,%rcx
   180001bf9:	ff 15 51 24 00 00    	callq  *0x2451(%rip)        # 0x180004050
   180001bff:	8b c3                	mov    %ebx,%eax
   180001c01:	e9 21 fe ff ff       	jmpq   0x180001a27
   180001c06:	ff 15 3c 24 00 00    	callq  *0x243c(%rip)        # 0x180004048
   180001c0c:	4c 8b c7             	mov    %rdi,%r8
   180001c0f:	33 d2                	xor    %edx,%edx
   180001c11:	48 8b c8             	mov    %rax,%rcx
   180001c14:	ff 15 36 24 00 00    	callq  *0x2436(%rip)        # 0x180004050
   180001c1a:	ff 15 28 24 00 00    	callq  *0x2428(%rip)        # 0x180004048
   180001c20:	4d 8b c6             	mov    %r14,%r8
   180001c23:	48 8b c8             	mov    %rax,%rcx
   180001c26:	33 d2                	xor    %edx,%edx
   180001c28:	ff 15 22 24 00 00    	callq  *0x2422(%rip)        # 0x180004050
   180001c2e:	8b 45 48             	mov    0x48(%rbp),%eax
   180001c31:	48 8b ce             	mov    %rsi,%rcx
   180001c34:	03 c0                	add    %eax,%eax
   180001c36:	74 09                	je     0x180001c41
   180001c38:	88 19                	mov    %bl,(%rcx)
   180001c3a:	48 ff c1             	inc    %rcx
   180001c3d:	ff c8                	dec    %eax
   180001c3f:	75 f7                	jne    0x180001c38
   180001c41:	ff 15 01 24 00 00    	callq  *0x2401(%rip)        # 0x180004048
   180001c47:	4c 8b c6             	mov    %rsi,%r8
   180001c4a:	33 d2                	xor    %edx,%edx
   180001c4c:	48 8b c8             	mov    %rax,%rcx
   180001c4f:	ff 15 fb 23 00 00    	callq  *0x23fb(%rip)        # 0x180004050
   180001c55:	ff 15 ed 23 00 00    	callq  *0x23ed(%rip)        # 0x180004048
   180001c5b:	4d 8b c7             	mov    %r15,%r8
   180001c5e:	48 8b c8             	mov    %rax,%rcx
   180001c61:	33 d2                	xor    %edx,%edx
   180001c63:	ff 15 e7 23 00 00    	callq  *0x23e7(%rip)        # 0x180004050
   180001c69:	ff 15 d9 23 00 00    	callq  *0x23d9(%rip)        # 0x180004048
   180001c6f:	4d 8b c5             	mov    %r13,%r8
   180001c72:	e9 75 01 00 00       	jmpq   0x180001dec
   180001c77:	ff 15 cb 23 00 00    	callq  *0x23cb(%rip)        # 0x180004048
   180001c7d:	4c 8b c7             	mov    %rdi,%r8
   180001c80:	33 d2                	xor    %edx,%edx
   180001c82:	48 8b c8             	mov    %rax,%rcx
   180001c85:	ff 15 c5 23 00 00    	callq  *0x23c5(%rip)        # 0x180004050
   180001c8b:	ff 15 b7 23 00 00    	callq  *0x23b7(%rip)        # 0x180004048
   180001c91:	4d 8b c6             	mov    %r14,%r8
   180001c94:	48 8b c8             	mov    %rax,%rcx
   180001c97:	33 d2                	xor    %edx,%edx
   180001c99:	ff 15 b1 23 00 00    	callq  *0x23b1(%rip)        # 0x180004050
   180001c9f:	8b 45 48             	mov    0x48(%rbp),%eax
   180001ca2:	48 8b ce             	mov    %rsi,%rcx
   180001ca5:	03 c0                	add    %eax,%eax
   180001ca7:	74 09                	je     0x180001cb2
   180001ca9:	88 19                	mov    %bl,(%rcx)
   180001cab:	48 ff c1             	inc    %rcx
   180001cae:	ff c8                	dec    %eax
   180001cb0:	75 f7                	jne    0x180001ca9
   180001cb2:	ff 15 90 23 00 00    	callq  *0x2390(%rip)        # 0x180004048
   180001cb8:	4c 8b c6             	mov    %rsi,%r8
   180001cbb:	33 d2                	xor    %edx,%edx
   180001cbd:	48 8b c8             	mov    %rax,%rcx
   180001cc0:	ff 15 8a 23 00 00    	callq  *0x238a(%rip)        # 0x180004050
   180001cc6:	ff 15 7c 23 00 00    	callq  *0x237c(%rip)        # 0x180004048
   180001ccc:	4d 8b c7             	mov    %r15,%r8
   180001ccf:	e9 18 01 00 00       	jmpq   0x180001dec
   180001cd4:	ff 15 6e 23 00 00    	callq  *0x236e(%rip)        # 0x180004048
   180001cda:	4c 8b c7             	mov    %rdi,%r8
   180001cdd:	33 d2                	xor    %edx,%edx
   180001cdf:	48 8b c8             	mov    %rax,%rcx
   180001ce2:	ff 15 68 23 00 00    	callq  *0x2368(%rip)        # 0x180004050
   180001ce8:	ff 15 5a 23 00 00    	callq  *0x235a(%rip)        # 0x180004048
   180001cee:	4d 8b c6             	mov    %r14,%r8
   180001cf1:	48 8b c8             	mov    %rax,%rcx
   180001cf4:	33 d2                	xor    %edx,%edx
   180001cf6:	ff 15 54 23 00 00    	callq  *0x2354(%rip)        # 0x180004050
   180001cfc:	8b 45 48             	mov    0x48(%rbp),%eax
   180001cff:	48 8b ce             	mov    %rsi,%rcx
   180001d02:	03 c0                	add    %eax,%eax
   180001d04:	74 ac                	je     0x180001cb2
   180001d06:	44 88 29             	mov    %r13b,(%rcx)
   180001d09:	48 ff c1             	inc    %rcx
   180001d0c:	ff c8                	dec    %eax
   180001d0e:	75 f6                	jne    0x180001d06
   180001d10:	eb a0                	jmp    0x180001cb2
   180001d12:	ff 15 30 23 00 00    	callq  *0x2330(%rip)        # 0x180004048
   180001d18:	4c 8b c7             	mov    %rdi,%r8
   180001d1b:	33 d2                	xor    %edx,%edx
   180001d1d:	48 8b c8             	mov    %rax,%rcx
   180001d20:	ff 15 2a 23 00 00    	callq  *0x232a(%rip)        # 0x180004050
   180001d26:	ff 15 1c 23 00 00    	callq  *0x231c(%rip)        # 0x180004048
   180001d2c:	4d 8b c6             	mov    %r14,%r8
   180001d2f:	48 8b c8             	mov    %rax,%rcx
   180001d32:	33 d2                	xor    %edx,%edx
   180001d34:	ff 15 16 23 00 00    	callq  *0x2316(%rip)        # 0x180004050
   180001d3a:	8b 45 48             	mov    0x48(%rbp),%eax
   180001d3d:	48 8b ce             	mov    %rsi,%rcx
   180001d40:	03 c0                	add    %eax,%eax
   180001d42:	74 0a                	je     0x180001d4e
   180001d44:	44 88 29             	mov    %r13b,(%rcx)
   180001d47:	48 ff c1             	inc    %rcx
   180001d4a:	ff c8                	dec    %eax
   180001d4c:	75 f6                	jne    0x180001d44
   180001d4e:	ff 15 f4 22 00 00    	callq  *0x22f4(%rip)        # 0x180004048
   180001d54:	4c 8b c6             	mov    %rsi,%r8
   180001d57:	e9 90 00 00 00       	jmpq   0x180001dec
   180001d5c:	ff 15 e6 22 00 00    	callq  *0x22e6(%rip)        # 0x180004048
   180001d62:	4c 8b c7             	mov    %rdi,%r8
   180001d65:	33 d2                	xor    %edx,%edx
   180001d67:	48 8b c8             	mov    %rax,%rcx
   180001d6a:	ff 15 e0 22 00 00    	callq  *0x22e0(%rip)        # 0x180004050
   180001d70:	ff 15 d2 22 00 00    	callq  *0x22d2(%rip)        # 0x180004048
   180001d76:	4d 8b c6             	mov    %r14,%r8
   180001d79:	48 8b c8             	mov    %rax,%rcx
   180001d7c:	33 d2                	xor    %edx,%edx
   180001d7e:	ff 15 cc 22 00 00    	callq  *0x22cc(%rip)        # 0x180004050
   180001d84:	8b 45 48             	mov    0x48(%rbp),%eax
   180001d87:	48 8b ce             	mov    %rsi,%rcx
   180001d8a:	03 c0                	add    %eax,%eax
   180001d8c:	74 c0                	je     0x180001d4e
   180001d8e:	44 88 29             	mov    %r13b,(%rcx)
   180001d91:	48 ff c1             	inc    %rcx
   180001d94:	ff c8                	dec    %eax
   180001d96:	75 f6                	jne    0x180001d8e
   180001d98:	eb b4                	jmp    0x180001d4e
   180001d9a:	ff 15 a8 22 00 00    	callq  *0x22a8(%rip)        # 0x180004048
   180001da0:	4c 8b c7             	mov    %rdi,%r8
   180001da3:	33 d2                	xor    %edx,%edx
   180001da5:	48 8b c8             	mov    %rax,%rcx
   180001da8:	ff 15 a2 22 00 00    	callq  *0x22a2(%rip)        # 0x180004050
   180001dae:	ff 15 94 22 00 00    	callq  *0x2294(%rip)        # 0x180004048
   180001db4:	4d 8b c6             	mov    %r14,%r8
   180001db7:	48 8b c8             	mov    %rax,%rcx
   180001dba:	33 d2                	xor    %edx,%edx
   180001dbc:	ff 15 8e 22 00 00    	callq  *0x228e(%rip)        # 0x180004050
   180001dc2:	eb 8a                	jmp    0x180001d4e
   180001dc4:	ff 15 7e 22 00 00    	callq  *0x227e(%rip)        # 0x180004048
   180001dca:	4c 8b c7             	mov    %rdi,%r8
   180001dcd:	33 d2                	xor    %edx,%edx
   180001dcf:	48 8b c8             	mov    %rax,%rcx
   180001dd2:	ff 15 78 22 00 00    	callq  *0x2278(%rip)        # 0x180004050
   180001dd8:	ff 15 6a 22 00 00    	callq  *0x226a(%rip)        # 0x180004048
   180001dde:	4d 8b c6             	mov    %r14,%r8
   180001de1:	eb 09                	jmp    0x180001dec
   180001de3:	ff 15 5f 22 00 00    	callq  *0x225f(%rip)        # 0x180004048
   180001de9:	4c 8b c7             	mov    %rdi,%r8
   180001dec:	48 8b c8             	mov    %rax,%rcx
   180001def:	33 d2                	xor    %edx,%edx
   180001df1:	ff 15 59 22 00 00    	callq  *0x2259(%rip)        # 0x180004050
   180001df7:	e9 dc f7 ff ff       	jmpq   0x1800015d8
   180001dfc:	48 8b c4             	mov    %rsp,%rax
   180001dff:	48 89 58 08          	mov    %rbx,0x8(%rax)
   180001e03:	48 89 70 18          	mov    %rsi,0x18(%rax)
   180001e07:	57                   	push   %rdi
   180001e08:	48 83 ec 50          	sub    $0x50,%rsp
   180001e0c:	4c 8d 48 10          	lea    0x10(%rax),%r9
   180001e10:	4c 8d 40 c8          	lea    -0x38(%rax),%r8
   180001e14:	48 8d 15 05 25 00 00 	lea    0x2505(%rip),%rdx        # 0x180004320
   180001e1b:	8b d9                	mov    %ecx,%ebx
   180001e1d:	c7 40 10 11 00 00 00 	movl   $0x11,0x10(%rax)
   180001e24:	e8 ff 18 00 00       	callq  0x180003728
   180001e29:	33 f6                	xor    %esi,%esi
   180001e2b:	85 c0                	test   %eax,%eax
   180001e2d:	75 68                	jne    0x180001e97
   180001e2f:	44 8b ce             	mov    %esi,%r9d
   180001e32:	8b d6                	mov    %esi,%edx
   180001e34:	48 8d 0d c5 31 00 00 	lea    0x31c5(%rip),%rcx        # 0x180005000
   180001e3b:	44 8d 46 10          	lea    0x10(%rsi),%r8d
   180001e3f:	66 39 74 54 20       	cmp    %si,0x20(%rsp,%rdx,2)
   180001e44:	74 12                	je     0x180001e58
   180001e46:	8a 44 54 20          	mov    0x20(%rsp,%rdx,2),%al
   180001e4a:	41 ff c1             	inc    %r9d
   180001e4d:	88 04 0a             	mov    %al,(%rdx,%rcx,1)
   180001e50:	48 ff c2             	inc    %rdx
   180001e53:	49 3b d0             	cmp    %r8,%rdx
   180001e56:	7c e7                	jl     0x180001e3f
   180001e58:	49 63 c1             	movslq %r9d,%rax
   180001e5b:	49 3b c0             	cmp    %r8,%rax
   180001e5e:	7d 0d                	jge    0x180001e6d
   180001e60:	48 03 c8             	add    %rax,%rcx
   180001e63:	4c 2b c0             	sub    %rax,%r8
   180001e66:	33 d2                	xor    %edx,%edx
   180001e68:	e8 07 f7 ff ff       	callq  0x180001574
   180001e6d:	8b cb                	mov    %ebx,%ecx
   180001e6f:	e8 a8 18 00 00       	callq  0x18000371c
   180001e74:	8b f8                	mov    %eax,%edi
   180001e76:	85 c0                	test   %eax,%eax
   180001e78:	74 1d                	je     0x180001e97
   180001e7a:	8b de                	mov    %esi,%ebx
   180001e7c:	8b d3                	mov    %ebx,%edx
   180001e7e:	8b cf                	mov    %edi,%ecx
   180001e80:	e8 33 16 00 00       	callq  0x1800034b8
   180001e85:	85 c0                	test   %eax,%eax
   180001e87:	74 07                	je     0x180001e90
   180001e89:	ff c3                	inc    %ebx
   180001e8b:	83 fb 08             	cmp    $0x8,%ebx
   180001e8e:	7c ec                	jl     0x180001e7c
   180001e90:	8b cf                	mov    %edi,%ecx
   180001e92:	e8 43 18 00 00       	callq  0x1800036da
   180001e97:	48 8b 5c 24 60       	mov    0x60(%rsp),%rbx
   180001e9c:	48 8b 74 24 70       	mov    0x70(%rsp),%rsi
   180001ea1:	b8 43 06 00 00       	mov    $0x643,%eax
   180001ea6:	48 83 c4 50          	add    $0x50,%rsp
   180001eaa:	5f                   	pop    %rdi
   180001eab:	c3                   	retq   
   180001eac:	48 89 5c 24 08       	mov    %rbx,0x8(%rsp)
   180001eb1:	55                   	push   %rbp
   180001eb2:	56                   	push   %rsi
   180001eb3:	57                   	push   %rdi
   180001eb4:	48 8b ec             	mov    %rsp,%rbp
   180001eb7:	48 83 ec 20          	sub    $0x20,%rsp
   180001ebb:	83 65 38 00          	andl   $0x0,0x38(%rbp)
   180001ebf:	83 65 30 00          	andl   $0x0,0x30(%rbp)
   180001ec3:	8b f9                	mov    %ecx,%edi
   180001ec5:	e8 52 18 00 00       	callq  0x18000371c
   180001eca:	8b d8                	mov    %eax,%ebx
   180001ecc:	85 c0                	test   %eax,%eax
   180001ece:	75 0a                	jne    0x180001eda
   180001ed0:	b8 43 06 00 00       	mov    $0x643,%eax
   180001ed5:	e9 91 01 00 00       	jmpq   0x18000206b
   180001eda:	4c 8d 45 38          	lea    0x38(%rbp),%r8
   180001ede:	48 8d 15 1b 23 00 00 	lea    0x231b(%rip),%rdx        # 0x180004200
   180001ee5:	8b c8                	mov    %eax,%ecx
   180001ee7:	e8 f4 17 00 00       	callq  0x1800036e0
   180001eec:	85 c0                	test   %eax,%eax
   180001eee:	74 21                	je     0x180001f11
   180001ef0:	3d 4f 06 00 00       	cmp    $0x64f,%eax
   180001ef5:	75 d9                	jne    0x180001ed0
   180001ef7:	48 8d 15 62 23 00 00 	lea    0x2362(%rip),%rdx        # 0x180004260
   180001efe:	8b cb                	mov    %ebx,%ecx
   180001f00:	e8 f3 17 00 00       	callq  0x1800036f8
   180001f05:	83 f8 02             	cmp    $0x2,%eax
   180001f08:	75 c6                	jne    0x180001ed0
   180001f0a:	33 c0                	xor    %eax,%eax
   180001f0c:	e9 5a 01 00 00       	jmpq   0x18000206b
   180001f11:	8b 4d 38             	mov    0x38(%rbp),%ecx
   180001f14:	33 d2                	xor    %edx,%edx
   180001f16:	e8 cb 17 00 00       	callq  0x1800036e6
   180001f1b:	85 c0                	test   %eax,%eax
   180001f1d:	75 b1                	jne    0x180001ed0
   180001f1f:	8b 4d 38             	mov    0x38(%rbp),%ecx
   180001f22:	48 8d 55 30          	lea    0x30(%rbp),%rdx
   180001f26:	e8 c1 17 00 00       	callq  0x1800036ec
   180001f2b:	8b c8                	mov    %eax,%ecx
   180001f2d:	85 c0                	test   %eax,%eax
   180001f2f:	0f 85 24 01 00 00    	jne    0x180002059
   180001f35:	8b 4d 30             	mov    0x30(%rbp),%ecx
   180001f38:	83 65 28 00          	andl   $0x0,0x28(%rbp)
   180001f3c:	4c 8d 4d 28          	lea    0x28(%rbp),%r9
   180001f40:	4c 8d 05 11 23 00 00 	lea    0x2311(%rip),%r8        # 0x180004258
   180001f47:	ba 01 00 00 00       	mov    $0x1,%edx
   180001f4c:	e8 bf 17 00 00       	callq  0x180003710
   180001f51:	3d ea 00 00 00       	cmp    $0xea,%eax
   180001f56:	0f 85 74 ff ff ff    	jne    0x180001ed0
   180001f5c:	8b 45 28             	mov    0x28(%rbp),%eax
   180001f5f:	ff c0                	inc    %eax
   180001f61:	89 45 28             	mov    %eax,0x28(%rbp)
   180001f64:	8b d8                	mov    %eax,%ebx
   180001f66:	ff 15 dc 20 00 00    	callq  *0x20dc(%rip)        # 0x180004048
   180001f6c:	44 8b c3             	mov    %ebx,%r8d
   180001f6f:	33 d2                	xor    %edx,%edx
   180001f71:	48 8b c8             	mov    %rax,%rcx
   180001f74:	ff 15 de 20 00 00    	callq  *0x20de(%rip)        # 0x180004058
   180001f7a:	48 8b f0             	mov    %rax,%rsi
   180001f7d:	48 85 c0             	test   %rax,%rax
   180001f80:	0f 84 4a ff ff ff    	je     0x180001ed0
   180001f86:	8b 4d 30             	mov    0x30(%rbp),%ecx
   180001f89:	4c 8d 4d 28          	lea    0x28(%rbp),%r9
   180001f8d:	4c 8b c0             	mov    %rax,%r8
   180001f90:	ba 01 00 00 00       	mov    $0x1,%edx
   180001f95:	e8 76 17 00 00       	callq  0x180003710
   180001f9a:	85 c0                	test   %eax,%eax
   180001f9c:	75 7e                	jne    0x18000201c
   180001f9e:	8d 48 01             	lea    0x1(%rax),%ecx
   180001fa1:	e8 58 17 00 00       	callq  0x1800036fe
   180001fa6:	8b d8                	mov    %eax,%ebx
   180001fa8:	85 c0                	test   %eax,%eax
   180001faa:	0f 84 8c 00 00 00    	je     0x18000203c
   180001fb0:	4c 8b c6             	mov    %rsi,%r8
   180001fb3:	ba 01 00 00 00       	mov    $0x1,%edx
   180001fb8:	8b c8                	mov    %eax,%ecx
   180001fba:	e8 4b 17 00 00       	callq  0x18000370a
   180001fbf:	85 c0                	test   %eax,%eax
   180001fc1:	75 79                	jne    0x18000203c
   180001fc3:	44 8b c3             	mov    %ebx,%r8d
   180001fc6:	ba 00 00 00 09       	mov    $0x9000000,%edx
   180001fcb:	8b cf                	mov    %edi,%ecx
   180001fcd:	e8 62 17 00 00       	callq  0x180003734
   180001fd2:	83 f8 02             	cmp    $0x2,%eax
   180001fd5:	74 5e                	je     0x180002035
   180001fd7:	83 f8 03             	cmp    $0x3,%eax
   180001fda:	74 59                	je     0x180002035
   180001fdc:	48 8d 15 fd 21 00 00 	lea    0x21fd(%rip),%rdx        # 0x1800041e0
   180001fe3:	4c 8b c6             	mov    %rsi,%r8
   180001fe6:	8b cf                	mov    %edi,%ecx
   180001fe8:	e8 35 17 00 00       	callq  0x180003722
   180001fed:	85 c0                	test   %eax,%eax
   180001fef:	75 4b                	jne    0x18000203c
   180001ff1:	48 8d 15 e8 21 00 00 	lea    0x21e8(%rip),%rdx        # 0x1800041e0
   180001ff8:	8b cf                	mov    %edi,%ecx
   180001ffa:	e8 2f 17 00 00       	callq  0x18000372e
   180001fff:	85 c0                	test   %eax,%eax
   180002001:	75 39                	jne    0x18000203c
   180002003:	4c 8d 05 4e 22 00 00 	lea    0x224e(%rip),%r8        # 0x180004258
   18000200a:	48 8d 15 cf 21 00 00 	lea    0x21cf(%rip),%rdx        # 0x1800041e0
   180002011:	8b cf                	mov    %edi,%ecx
   180002013:	e8 0a 17 00 00       	callq  0x180003722
   180002018:	85 c0                	test   %eax,%eax
   18000201a:	75 20                	jne    0x18000203c
   18000201c:	ff 15 26 20 00 00    	callq  *0x2026(%rip)        # 0x180004048
   180002022:	4c 8b c6             	mov    %rsi,%r8
   180002025:	33 d2                	xor    %edx,%edx
   180002027:	48 8b c8             	mov    %rax,%rcx
   18000202a:	ff 15 20 20 00 00    	callq  *0x2020(%rip)        # 0x180004050
   180002030:	e9 ea fe ff ff       	jmpq   0x180001f1f
   180002035:	bb 42 06 00 00       	mov    $0x642,%ebx
   18000203a:	eb 05                	jmp    0x180002041
   18000203c:	bb 43 06 00 00       	mov    $0x643,%ebx
   180002041:	ff 15 01 20 00 00    	callq  *0x2001(%rip)        # 0x180004048
   180002047:	4c 8b c6             	mov    %rsi,%r8
   18000204a:	33 d2                	xor    %edx,%edx
   18000204c:	48 8b c8             	mov    %rax,%rcx
   18000204f:	ff 15 fb 1f 00 00    	callq  *0x1ffb(%rip)        # 0x180004050
   180002055:	8b c3                	mov    %ebx,%eax
   180002057:	eb 12                	jmp    0x18000206b
   180002059:	b8 03 01 00 00       	mov    $0x103,%eax
   18000205e:	bb 43 06 00 00       	mov    $0x643,%ebx
   180002063:	2b c1                	sub    %ecx,%eax
   180002065:	f7 d8                	neg    %eax
   180002067:	1b c0                	sbb    %eax,%eax
   180002069:	23 c3                	and    %ebx,%eax
   18000206b:	48 8b 5c 24 40       	mov    0x40(%rsp),%rbx
   180002070:	48 83 c4 20          	add    $0x20,%rsp
   180002074:	5f                   	pop    %rdi
   180002075:	5e                   	pop    %rsi
   180002076:	5d                   	pop    %rbp
   180002077:	c3                   	retq   
   180002078:	b8 01 00 00 00       	mov    $0x1,%eax
   18000207d:	c3                   	retq   
   18000207e:	cc                   	int3   
   18000207f:	cc                   	int3   
   180002080:	48 89 5c 24 10       	mov    %rbx,0x10(%rsp)
   180002085:	48 89 6c 24 18       	mov    %rbp,0x18(%rsp)
   18000208a:	48 89 4c 24 08       	mov    %rcx,0x8(%rsp)
   18000208f:	56                   	push   %rsi
   180002090:	41 54                	push   %r12
   180002092:	41 55                	push   %r13
   180002094:	41 56                	push   %r14
   180002096:	41 57                	push   %r15
   180002098:	48 83 ec 30          	sub    $0x30,%rsp
   18000209c:	4d 8b f9             	mov    %r9,%r15
   18000209f:	44 8b e2             	mov    %edx,%r12d
   1800020a2:	4c 8b d1             	mov    %rcx,%r10
   1800020a5:	41 f6 c0 0f          	test   $0xf,%r8b
   1800020a9:	74 0a                	je     0x1800020b5
   1800020ab:	b8 de ff ff ff       	mov    $0xffffffde,%eax
   1800020b0:	e9 0d 01 00 00       	jmpq   0x1800021c2
   1800020b5:	85 d2                	test   %edx,%edx
   1800020b7:	75 76                	jne    0x18000212f
   1800020b9:	4d 85 c0             	test   %r8,%r8
   1800020bc:	0f 84 fe 00 00 00    	je     0x1800021c0
   1800020c2:	48 8b 9c 24 88 00 00 	mov    0x88(%rsp),%rbx
   1800020c9:	00 
   1800020ca:	48 8b ac 24 80 00 00 	mov    0x80(%rsp),%rbp
   1800020d1:	00 
   1800020d2:	49 8d 70 ff          	lea    -0x1(%r8),%rsi
   1800020d6:	4d 8b f1             	mov    %r9,%r14
   1800020d9:	48 c1 ee 04          	shr    $0x4,%rsi
   1800020dd:	4c 2b f3             	sub    %rbx,%r14
   1800020e0:	48 ff c6             	inc    %rsi
   1800020e3:	0f 10 45 00          	movups 0x0(%rbp),%xmm0
   1800020e7:	4c 8b cb             	mov    %rbx,%r9
   1800020ea:	4c 8b c5             	mov    %rbp,%r8
   1800020ed:	33 d2                	xor    %edx,%edx
   1800020ef:	49 8b ca             	mov    %r10,%rcx
   1800020f2:	0f 11 44 24 20       	movups %xmm0,0x20(%rsp)
   1800020f7:	e8 e0 00 00 00       	callq  0x1800021dc
   1800020fc:	b9 10 00 00 00       	mov    $0x10,%ecx
   180002101:	41 8a 04 1e          	mov    (%r14,%rbx,1),%al
   180002105:	30 03                	xor    %al,(%rbx)
   180002107:	48 ff c3             	inc    %rbx
   18000210a:	48 ff c9             	dec    %rcx
   18000210d:	75 f2                	jne    0x180002101
   18000210f:	0f 10 44 24 20       	movups 0x20(%rsp),%xmm0
   180002114:	4c 8b 54 24 60       	mov    0x60(%rsp),%r10
   180002119:	48 83 c5 10          	add    $0x10,%rbp
   18000211d:	49 83 ee 10          	sub    $0x10,%r14
   180002121:	41 0f 11 07          	movups %xmm0,(%r15)
   180002125:	48 ff ce             	dec    %rsi
   180002128:	75 b9                	jne    0x1800020e3
   18000212a:	e9 91 00 00 00       	jmpq   0x1800021c0
   18000212f:	4d 85 c0             	test   %r8,%r8
   180002132:	0f 84 88 00 00 00    	je     0x1800021c0
   180002138:	48 8b ac 24 80 00 00 	mov    0x80(%rsp),%rbp
   18000213f:	00 
   180002140:	48 8b 9c 24 88 00 00 	mov    0x88(%rsp),%rbx
   180002147:	00 
   180002148:	49 8d 70 ff          	lea    -0x1(%r8),%rsi
   18000214c:	4d 8b f1             	mov    %r9,%r14
   18000214f:	4d 8b e9             	mov    %r9,%r13
   180002152:	48 c1 ee 04          	shr    $0x4,%rsi
   180002156:	4c 2b f5             	sub    %rbp,%r14
   180002159:	49 f7 dd             	neg    %r13
   18000215c:	48 ff c6             	inc    %rsi
   18000215f:	48 8b d3             	mov    %rbx,%rdx
   180002162:	48 8b cd             	mov    %rbp,%rcx
   180002165:	41 b8 10 00 00 00    	mov    $0x10,%r8d
   18000216b:	48 2b d5             	sub    %rbp,%rdx
   18000216e:	41 8a 04 0e          	mov    (%r14,%rcx,1),%al
   180002172:	32 01                	xor    (%rcx),%al
   180002174:	88 04 0a             	mov    %al,(%rdx,%rcx,1)
   180002177:	48 ff c1             	inc    %rcx
   18000217a:	49 ff c8             	dec    %r8
   18000217d:	75 ef                	jne    0x18000216e
   18000217f:	4c 8b cb             	mov    %rbx,%r9
   180002182:	4c 8b c3             	mov    %rbx,%r8
   180002185:	41 8b d4             	mov    %r12d,%edx
   180002188:	49 8b ca             	mov    %r10,%rcx
   18000218b:	e8 4c 00 00 00       	callq  0x1800021dc
   180002190:	41 b8 10 00 00 00    	mov    $0x10,%r8d
   180002196:	49 8b d7             	mov    %r15,%rdx
   180002199:	4a 8d 04 2a          	lea    (%rdx,%r13,1),%rax
   18000219d:	8a 0c 18             	mov    (%rax,%rbx,1),%cl
   1800021a0:	88 0a                	mov    %cl,(%rdx)
   1800021a2:	48 ff c2             	inc    %rdx
   1800021a5:	49 ff c8             	dec    %r8
   1800021a8:	75 ef                	jne    0x180002199
   1800021aa:	4c 8b 54 24 60       	mov    0x60(%rsp),%r10
   1800021af:	48 83 c5 10          	add    $0x10,%rbp
   1800021b3:	49 83 ee 10          	sub    $0x10,%r14
   1800021b7:	48 83 c3 10          	add    $0x10,%rbx
   1800021bb:	48 ff ce             	dec    %rsi
   1800021be:	75 9f                	jne    0x18000215f
   1800021c0:	33 c0                	xor    %eax,%eax
   1800021c2:	48 8b 5c 24 68       	mov    0x68(%rsp),%rbx
   1800021c7:	48 8b 6c 24 70       	mov    0x70(%rsp),%rbp
   1800021cc:	48 83 c4 30          	add    $0x30,%rsp
   1800021d0:	41 5f                	pop    %r15
   1800021d2:	41 5e                	pop    %r14
   1800021d4:	41 5d                	pop    %r13
   1800021d6:	41 5c                	pop    %r12
   1800021d8:	5e                   	pop    %rsi
   1800021d9:	c3                   	retq   
   1800021da:	cc                   	int3   
   1800021db:	cc                   	int3   
   1800021dc:	48 89 5c 24 08       	mov    %rbx,0x8(%rsp)
   1800021e1:	48 89 6c 24 18       	mov    %rbp,0x18(%rsp)
   1800021e6:	4c 89 4c 24 20       	mov    %r9,0x20(%rsp)
   1800021eb:	56                   	push   %rsi
   1800021ec:	57                   	push   %rdi
   1800021ed:	41 54                	push   %r12
   1800021ef:	41 55                	push   %r13
   1800021f1:	41 56                	push   %r14
   1800021f3:	41 57                	push   %r15
   1800021f5:	48 8b 69 08          	mov    0x8(%rcx),%rbp
   1800021f9:	41 0f b6 40 02       	movzbl 0x2(%r8),%eax
   1800021fe:	41 0f b6 58 03       	movzbl 0x3(%r8),%ebx
   180002203:	45 0f b6 78 07       	movzbl 0x7(%r8),%r15d
   180002208:	45 0f b6 60 0b       	movzbl 0xb(%r8),%r12d
   18000220d:	c1 e3 08             	shl    $0x8,%ebx
   180002210:	0b d8                	or     %eax,%ebx
   180002212:	41 0f b6 40 01       	movzbl 0x1(%r8),%eax
   180002217:	41 c1 e7 08          	shl    $0x8,%r15d
   18000221b:	41 c1 e4 08          	shl    $0x8,%r12d
   18000221f:	c1 e3 08             	shl    $0x8,%ebx
   180002222:	4d 8b f1             	mov    %r9,%r14
   180002225:	0b d8                	or     %eax,%ebx
   180002227:	41 0f b6 00          	movzbl (%r8),%eax
   18000222b:	4c 8b c9             	mov    %rcx,%r9
   18000222e:	41 0f b6 48 0f       	movzbl 0xf(%r8),%ecx
   180002233:	c1 e3 08             	shl    $0x8,%ebx
   180002236:	4c 8d 2d c3 dd ff ff 	lea    -0x223d(%rip),%r13        # 0x180000000
   18000223d:	0b d8                	or     %eax,%ebx
   18000223f:	41 0f b6 40 06       	movzbl 0x6(%r8),%eax
   180002244:	c1 e1 08             	shl    $0x8,%ecx
   180002247:	33 5d 00             	xor    0x0(%rbp),%ebx
   18000224a:	44 0b f8             	or     %eax,%r15d
   18000224d:	41 0f b6 40 05       	movzbl 0x5(%r8),%eax
   180002252:	41 c1 e7 08          	shl    $0x8,%r15d
   180002256:	48 83 c5 10          	add    $0x10,%rbp
   18000225a:	44 0b f8             	or     %eax,%r15d
   18000225d:	41 0f b6 40 04       	movzbl 0x4(%r8),%eax
   180002262:	41 c1 e7 08          	shl    $0x8,%r15d
   180002266:	44 0b f8             	or     %eax,%r15d
   180002269:	41 0f b6 40 0a       	movzbl 0xa(%r8),%eax
   18000226e:	44 33 7d f4          	xor    -0xc(%rbp),%r15d
   180002272:	44 0b e0             	or     %eax,%r12d
   180002275:	41 0f b6 40 09       	movzbl 0x9(%r8),%eax
   18000227a:	41 c1 e4 08          	shl    $0x8,%r12d
   18000227e:	44 0b e0             	or     %eax,%r12d
   180002281:	41 0f b6 40 08       	movzbl 0x8(%r8),%eax
   180002286:	41 c1 e4 08          	shl    $0x8,%r12d
   18000228a:	44 0b e0             	or     %eax,%r12d
   18000228d:	41 0f b6 40 0e       	movzbl 0xe(%r8),%eax
   180002292:	44 33 65 f8          	xor    -0x8(%rbp),%r12d
   180002296:	0b c8                	or     %eax,%ecx
   180002298:	41 0f b6 40 0d       	movzbl 0xd(%r8),%eax
   18000229d:	c1 e1 08             	shl    $0x8,%ecx
   1800022a0:	0b c8                	or     %eax,%ecx
   1800022a2:	41 0f b6 40 0c       	movzbl 0xc(%r8),%eax
   1800022a7:	c1 e1 08             	shl    $0x8,%ecx
   1800022aa:	0b c8                	or     %eax,%ecx
   1800022ac:	41 8b 01             	mov    (%r9),%eax
   1800022af:	33 4d fc             	xor    -0x4(%rbp),%ecx
   1800022b2:	d1 f8                	sar    %eax
   1800022b4:	ff c8                	dec    %eax
   1800022b6:	85 d2                	test   %edx,%edx
   1800022b8:	0f 85 8a 04 00 00    	jne    0x180002748
   1800022be:	85 c0                	test   %eax,%eax
   1800022c0:	0f 8e 2b 02 00 00    	jle    0x1800024f1
   1800022c6:	44 8b f0             	mov    %eax,%r14d
   1800022c9:	8b fb                	mov    %ebx,%edi
   1800022cb:	8b f1                	mov    %ecx,%esi
   1800022cd:	41 8b c4             	mov    %r12d,%eax
   1800022d0:	48 c1 e8 10          	shr    $0x10,%rax
   1800022d4:	45 8b d7             	mov    %r15d,%r10d
   1800022d7:	45 8b dc             	mov    %r12d,%r11d
   1800022da:	0f b6 d0             	movzbl %al,%edx
   1800022dd:	8b c1                	mov    %ecx,%eax
   1800022df:	49 c1 ea 10          	shr    $0x10,%r10
   1800022e3:	41 8b 9c 95 20 6a 00 	mov    0x6a20(%r13,%rdx,4),%ebx
   1800022ea:	00 
   1800022eb:	48 c1 e8 08          	shr    $0x8,%rax
   1800022ef:	49 c1 eb 08          	shr    $0x8,%r11
   1800022f3:	0f b6 c8             	movzbl %al,%ecx
   1800022f6:	41 8b c7             	mov    %r15d,%eax
   1800022f9:	41 33 9c 8d 20 66 00 	xor    0x6620(%r13,%rcx,4),%ebx
   180002300:	00 
   180002301:	48 c1 e8 18          	shr    $0x18,%rax
   180002305:	41 33 9c 85 20 6e 00 	xor    0x6e20(%r13,%rax,4),%ebx
   18000230c:	00 
   18000230d:	40 0f b6 c7          	movzbl %dil,%eax
   180002311:	41 33 9c 85 20 62 00 	xor    0x6220(%r13,%rax,4),%ebx
   180002318:	00 
   180002319:	8b c7                	mov    %edi,%eax
   18000231b:	33 5d 00             	xor    0x0(%rbp),%ebx
   18000231e:	48 c1 e8 08          	shr    $0x8,%rax
   180002322:	0f b6 d0             	movzbl %al,%edx
   180002325:	8b c6                	mov    %esi,%eax
   180002327:	45 8b 8c 95 20 66 00 	mov    0x6620(%r13,%rdx,4),%r9d
   18000232e:	00 
   18000232f:	48 c1 e8 10          	shr    $0x10,%rax
   180002333:	0f b6 c8             	movzbl %al,%ecx
   180002336:	41 8b c4             	mov    %r12d,%eax
   180002339:	45 33 8c 8d 20 6a 00 	xor    0x6a20(%r13,%rcx,4),%r9d
   180002340:	00 
   180002341:	48 c1 e8 18          	shr    $0x18,%rax
   180002345:	45 33 8c 85 20 6e 00 	xor    0x6e20(%r13,%rax,4),%r9d
   18000234c:	00 
   18000234d:	41 0f b6 c7          	movzbl %r15b,%eax
   180002351:	45 33 8c 85 20 62 00 	xor    0x6220(%r13,%rax,4),%r9d
   180002358:	00 
   180002359:	41 8b c7             	mov    %r15d,%eax
   18000235c:	44 33 4d 04          	xor    0x4(%rbp),%r9d
   180002360:	48 c1 e8 08          	shr    $0x8,%rax
   180002364:	0f b6 d0             	movzbl %al,%edx
   180002367:	8b c7                	mov    %edi,%eax
   180002369:	48 c1 ef 18          	shr    $0x18,%rdi
   18000236d:	45 8b 84 95 20 66 00 	mov    0x6620(%r13,%rdx,4),%r8d
   180002374:	00 
   180002375:	48 c1 e8 10          	shr    $0x10,%rax
   180002379:	0f b6 c8             	movzbl %al,%ecx
   18000237c:	8b c6                	mov    %esi,%eax
   18000237e:	45 33 84 8d 20 6a 00 	xor    0x6a20(%r13,%rcx,4),%r8d
   180002385:	00 
   180002386:	48 c1 e8 18          	shr    $0x18,%rax
   18000238a:	41 0f b6 ca          	movzbl %r10b,%ecx
   18000238e:	45 33 84 85 20 6e 00 	xor    0x6e20(%r13,%rax,4),%r8d
   180002395:	00 
   180002396:	41 8b 94 8d 20 6a 00 	mov    0x6a20(%r13,%rcx,4),%edx
   18000239d:	00 
   18000239e:	41 0f b6 c4          	movzbl %r12b,%eax
   1800023a2:	45 33 84 85 20 62 00 	xor    0x6220(%r13,%rax,4),%r8d
   1800023a9:	00 
   1800023aa:	41 0f b6 c3          	movzbl %r11b,%eax
   1800023ae:	44 8b db             	mov    %ebx,%r11d
   1800023b1:	41 33 94 85 20 66 00 	xor    0x6620(%r13,%rax,4),%edx
   1800023b8:	00 
   1800023b9:	44 33 45 08          	xor    0x8(%rbp),%r8d
   1800023bd:	40 0f b6 c6          	movzbl %sil,%eax
   1800023c1:	41 33 94 bd 20 6e 00 	xor    0x6e20(%r13,%rdi,4),%edx
   1800023c8:	00 
   1800023c9:	45 8b d0             	mov    %r8d,%r10d
   1800023cc:	45 8b c1             	mov    %r9d,%r8d
   1800023cf:	41 33 94 85 20 62 00 	xor    0x6220(%r13,%rax,4),%edx
   1800023d6:	00 
   1800023d7:	41 8b c2             	mov    %r10d,%eax
   1800023da:	33 55 0c             	xor    0xc(%rbp),%edx
   1800023dd:	48 c1 e8 10          	shr    $0x10,%rax
   1800023e1:	8b fa                	mov    %edx,%edi
   1800023e3:	0f b6 d0             	movzbl %al,%edx
   1800023e6:	41 8b 9c 95 20 6a 00 	mov    0x6a20(%r13,%rdx,4),%ebx
   1800023ed:	00 
   1800023ee:	8b c7                	mov    %edi,%eax
   1800023f0:	48 c1 e8 08          	shr    $0x8,%rax
   1800023f4:	0f b6 c8             	movzbl %al,%ecx
   1800023f7:	41 8b c1             	mov    %r9d,%eax
   1800023fa:	41 33 9c 8d 20 66 00 	xor    0x6620(%r13,%rcx,4),%ebx
   180002401:	00 
   180002402:	48 c1 e8 18          	shr    $0x18,%rax
   180002406:	41 33 9c 85 20 6e 00 	xor    0x6e20(%r13,%rax,4),%ebx
   18000240d:	00 
   18000240e:	41 0f b6 c3          	movzbl %r11b,%eax
   180002412:	41 33 9c 85 20 62 00 	xor    0x6220(%r13,%rax,4),%ebx
   180002419:	00 
   18000241a:	41 8b c3             	mov    %r11d,%eax
   18000241d:	33 5d 10             	xor    0x10(%rbp),%ebx
   180002420:	48 c1 e8 08          	shr    $0x8,%rax
   180002424:	0f b6 d0             	movzbl %al,%edx
   180002427:	8b c7                	mov    %edi,%eax
   180002429:	48 c1 e8 10          	shr    $0x10,%rax
   18000242d:	0f b6 c8             	movzbl %al,%ecx
   180002430:	45 8b bc 95 20 66 00 	mov    0x6620(%r13,%rdx,4),%r15d
   180002437:	00 
   180002438:	41 8b c2             	mov    %r10d,%eax
   18000243b:	49 c1 e8 10          	shr    $0x10,%r8
   18000243f:	45 33 bc 8d 20 6a 00 	xor    0x6a20(%r13,%rcx,4),%r15d
   180002446:	00 
   180002447:	48 c1 e8 18          	shr    $0x18,%rax
   18000244b:	41 ff ce             	dec    %r14d
   18000244e:	45 33 bc 85 20 6e 00 	xor    0x6e20(%r13,%rax,4),%r15d
   180002455:	00 
   180002456:	41 0f b6 c1          	movzbl %r9b,%eax
   18000245a:	48 83 c5 20          	add    $0x20,%rbp
   18000245e:	45 33 bc 85 20 62 00 	xor    0x6220(%r13,%rax,4),%r15d
   180002465:	00 
   180002466:	41 8b c1             	mov    %r9d,%eax
   180002469:	44 33 7d f4          	xor    -0xc(%rbp),%r15d
   18000246d:	48 c1 e8 08          	shr    $0x8,%rax
   180002471:	0f b6 d0             	movzbl %al,%edx
   180002474:	41 8b c3             	mov    %r11d,%eax
   180002477:	49 c1 eb 18          	shr    $0x18,%r11
   18000247b:	45 8b a4 95 20 66 00 	mov    0x6620(%r13,%rdx,4),%r12d
   180002482:	00 
   180002483:	48 c1 e8 10          	shr    $0x10,%rax
   180002487:	0f b6 c8             	movzbl %al,%ecx
   18000248a:	8b c7                	mov    %edi,%eax
   18000248c:	45 33 a4 8d 20 6a 00 	xor    0x6a20(%r13,%rcx,4),%r12d
   180002493:	00 
   180002494:	48 c1 e8 18          	shr    $0x18,%rax
   180002498:	41 0f b6 c8          	movzbl %r8b,%ecx
   18000249c:	45 33 a4 85 20 6e 00 	xor    0x6e20(%r13,%rax,4),%r12d
   1800024a3:	00 
   1800024a4:	41 8b 8c 8d 20 6a 00 	mov    0x6a20(%r13,%rcx,4),%ecx
   1800024ab:	00 
   1800024ac:	41 0f b6 c2          	movzbl %r10b,%eax
   1800024b0:	45 33 a4 85 20 62 00 	xor    0x6220(%r13,%rax,4),%r12d
   1800024b7:	00 
   1800024b8:	49 c1 ea 08          	shr    $0x8,%r10
   1800024bc:	44 33 65 f8          	xor    -0x8(%rbp),%r12d
   1800024c0:	41 0f b6 c2          	movzbl %r10b,%eax
   1800024c4:	41 33 8c 85 20 66 00 	xor    0x6620(%r13,%rax,4),%ecx
   1800024cb:	00 
   1800024cc:	40 0f b6 c7          	movzbl %dil,%eax
   1800024d0:	43 33 8c 9d 20 6e 00 	xor    0x6e20(%r13,%r11,4),%ecx
   1800024d7:	00 
   1800024d8:	41 33 8c 85 20 62 00 	xor    0x6220(%r13,%rax,4),%ecx
   1800024df:	00 
   1800024e0:	33 4d fc             	xor    -0x4(%rbp),%ecx
   1800024e3:	45 85 f6             	test   %r14d,%r14d
   1800024e6:	0f 8f dd fd ff ff    	jg     0x1800022c9
   1800024ec:	4c 8b 74 24 50       	mov    0x50(%rsp),%r14
   1800024f1:	8b f1                	mov    %ecx,%esi
   1800024f3:	41 8b c4             	mov    %r12d,%eax
   1800024f6:	45 8b d7             	mov    %r15d,%r10d
   1800024f9:	48 c1 e8 10          	shr    $0x10,%rax
   1800024fd:	49 c1 ea 10          	shr    $0x10,%r10
   180002501:	45 8b dc             	mov    %r12d,%r11d
   180002504:	0f b6 d0             	movzbl %al,%edx
   180002507:	8b c1                	mov    %ecx,%eax
   180002509:	49 c1 eb 08          	shr    $0x8,%r11
   18000250d:	41 8b bc 95 20 6a 00 	mov    0x6a20(%r13,%rdx,4),%edi
   180002514:	00 
   180002515:	48 c1 e8 08          	shr    $0x8,%rax
   180002519:	0f b6 c8             	movzbl %al,%ecx
   18000251c:	41 8b c7             	mov    %r15d,%eax
   18000251f:	41 33 bc 8d 20 66 00 	xor    0x6620(%r13,%rcx,4),%edi
   180002526:	00 
   180002527:	48 c1 e8 18          	shr    $0x18,%rax
   18000252b:	41 33 bc 85 20 6e 00 	xor    0x6e20(%r13,%rax,4),%edi
   180002532:	00 
   180002533:	0f b6 c3             	movzbl %bl,%eax
   180002536:	41 33 bc 85 20 62 00 	xor    0x6220(%r13,%rax,4),%edi
   18000253d:	00 
   18000253e:	48 8b c3             	mov    %rbx,%rax
   180002541:	33 7d 00             	xor    0x0(%rbp),%edi
   180002544:	48 c1 e8 08          	shr    $0x8,%rax
   180002548:	0f b6 d0             	movzbl %al,%edx
   18000254b:	8b c6                	mov    %esi,%eax
   18000254d:	45 8b 8c 95 20 66 00 	mov    0x6620(%r13,%rdx,4),%r9d
   180002554:	00 
   180002555:	48 c1 e8 10          	shr    $0x10,%rax
   180002559:	0f b6 c8             	movzbl %al,%ecx
   18000255c:	41 8b c4             	mov    %r12d,%eax
   18000255f:	45 33 8c 8d 20 6a 00 	xor    0x6a20(%r13,%rcx,4),%r9d
   180002566:	00 
   180002567:	48 c1 e8 18          	shr    $0x18,%rax
   18000256b:	45 33 8c 85 20 6e 00 	xor    0x6e20(%r13,%rax,4),%r9d
   180002572:	00 
   180002573:	41 0f b6 c7          	movzbl %r15b,%eax
   180002577:	45 33 8c 85 20 62 00 	xor    0x6220(%r13,%rax,4),%r9d
   18000257e:	00 
   18000257f:	41 8b c7             	mov    %r15d,%eax
   180002582:	44 33 4d 04          	xor    0x4(%rbp),%r9d
   180002586:	48 c1 e8 08          	shr    $0x8,%rax
   18000258a:	0f b6 d0             	movzbl %al,%edx
   18000258d:	48 8b c3             	mov    %rbx,%rax
   180002590:	48 c1 eb 18          	shr    $0x18,%rbx
   180002594:	45 8b 84 95 20 66 00 	mov    0x6620(%r13,%rdx,4),%r8d
   18000259b:	00 
   18000259c:	48 c1 e8 10          	shr    $0x10,%rax
   1800025a0:	0f b6 c8             	movzbl %al,%ecx
   1800025a3:	8b c6                	mov    %esi,%eax
   1800025a5:	45 33 84 8d 20 6a 00 	xor    0x6a20(%r13,%rcx,4),%r8d
   1800025ac:	00 
   1800025ad:	48 c1 e8 18          	shr    $0x18,%rax
   1800025b1:	41 0f b6 ca          	movzbl %r10b,%ecx
   1800025b5:	45 33 84 85 20 6e 00 	xor    0x6e20(%r13,%rax,4),%r8d
   1800025bc:	00 
   1800025bd:	41 8b 94 8d 20 6a 00 	mov    0x6a20(%r13,%rcx,4),%edx
   1800025c4:	00 
   1800025c5:	41 0f b6 c4          	movzbl %r12b,%eax
   1800025c9:	45 33 84 85 20 62 00 	xor    0x6220(%r13,%rax,4),%r8d
   1800025d0:	00 
   1800025d1:	41 0f b6 c3          	movzbl %r11b,%eax
   1800025d5:	41 33 94 85 20 66 00 	xor    0x6620(%r13,%rax,4),%edx
   1800025dc:	00 
   1800025dd:	44 33 45 08          	xor    0x8(%rbp),%r8d
   1800025e1:	40 0f b6 c6          	movzbl %sil,%eax
   1800025e5:	41 33 94 9d 20 6e 00 	xor    0x6e20(%r13,%rbx,4),%edx
   1800025ec:	00 
   1800025ed:	45 8b d0             	mov    %r8d,%r10d
   1800025f0:	45 8b c1             	mov    %r9d,%r8d
   1800025f3:	41 33 94 85 20 62 00 	xor    0x6220(%r13,%rax,4),%edx
   1800025fa:	00 
   1800025fb:	41 8b c0             	mov    %r8d,%eax
   1800025fe:	33 55 0c             	xor    0xc(%rbp),%edx
   180002601:	48 c1 e8 18          	shr    $0x18,%rax
   180002605:	42 0f b6 9c 28 20 61 	movzbl 0x6120(%rax,%r13,1),%ebx
   18000260c:	00 00 
   18000260e:	44 8b ca             	mov    %edx,%r9d
   180002611:	41 8b c2             	mov    %r10d,%eax
   180002614:	48 c1 e8 10          	shr    $0x10,%rax
   180002618:	c1 e3 08             	shl    $0x8,%ebx
   18000261b:	8b d7                	mov    %edi,%edx
   18000261d:	0f b6 c8             	movzbl %al,%ecx
   180002620:	42 0f b6 84 29 20 61 	movzbl 0x6120(%rcx,%r13,1),%eax
   180002627:	00 00 
   180002629:	33 d8                	xor    %eax,%ebx
   18000262b:	41 8b c1             	mov    %r9d,%eax
   18000262e:	48 c1 e8 08          	shr    $0x8,%rax
   180002632:	c1 e3 08             	shl    $0x8,%ebx
   180002635:	0f b6 c8             	movzbl %al,%ecx
   180002638:	42 0f b6 84 29 20 61 	movzbl 0x6120(%rcx,%r13,1),%eax
   18000263f:	00 00 
   180002641:	33 d8                	xor    %eax,%ebx
   180002643:	40 0f b6 c7          	movzbl %dil,%eax
   180002647:	42 0f b6 84 28 20 61 	movzbl 0x6120(%rax,%r13,1),%eax
   18000264e:	00 00 
   180002650:	c1 e3 08             	shl    $0x8,%ebx
   180002653:	33 d8                	xor    %eax,%ebx
   180002655:	41 8b c1             	mov    %r9d,%eax
   180002658:	33 5d 10             	xor    0x10(%rbp),%ebx
   18000265b:	48 c1 e8 10          	shr    $0x10,%rax
   18000265f:	0f b6 c8             	movzbl %al,%ecx
   180002662:	41 8b c2             	mov    %r10d,%eax
   180002665:	42 0f b6 bc 29 20 61 	movzbl 0x6120(%rcx,%r13,1),%edi
   18000266c:	00 00 
   18000266e:	48 c1 e8 18          	shr    $0x18,%rax
   180002672:	42 0f b6 84 28 20 61 	movzbl 0x6120(%rax,%r13,1),%eax
   180002679:	00 00 
   18000267b:	c1 e0 08             	shl    $0x8,%eax
   18000267e:	33 f8                	xor    %eax,%edi
   180002680:	8b c2                	mov    %edx,%eax
   180002682:	48 c1 e8 08          	shr    $0x8,%rax
   180002686:	c1 e7 08             	shl    $0x8,%edi
   180002689:	0f b6 c8             	movzbl %al,%ecx
   18000268c:	42 0f b6 84 29 20 61 	movzbl 0x6120(%rcx,%r13,1),%eax
   180002693:	00 00 
   180002695:	33 f8                	xor    %eax,%edi
   180002697:	41 0f b6 c0          	movzbl %r8b,%eax
   18000269b:	42 0f b6 84 28 20 61 	movzbl 0x6120(%rax,%r13,1),%eax
   1800026a2:	00 00 
   1800026a4:	c1 e7 08             	shl    $0x8,%edi
   1800026a7:	33 f8                	xor    %eax,%edi
   1800026a9:	8b c2                	mov    %edx,%eax
   1800026ab:	48 c1 ea 18          	shr    $0x18,%rdx
   1800026af:	33 7d 14             	xor    0x14(%rbp),%edi
   1800026b2:	48 c1 e8 10          	shr    $0x10,%rax
   1800026b6:	0f b6 c8             	movzbl %al,%ecx
   1800026b9:	41 8b c1             	mov    %r9d,%eax
   1800026bc:	42 0f b6 b4 29 20 61 	movzbl 0x6120(%rcx,%r13,1),%esi
   1800026c3:	00 00 
   1800026c5:	48 c1 e8 18          	shr    $0x18,%rax
   1800026c9:	42 0f b6 84 28 20 61 	movzbl 0x6120(%rax,%r13,1),%eax
   1800026d0:	00 00 
   1800026d2:	c1 e0 08             	shl    $0x8,%eax
   1800026d5:	33 f0                	xor    %eax,%esi
   1800026d7:	41 8b c0             	mov    %r8d,%eax
   1800026da:	49 c1 e8 10          	shr    $0x10,%r8
   1800026de:	48 c1 e8 08          	shr    $0x8,%rax
   1800026e2:	c1 e6 08             	shl    $0x8,%esi
   1800026e5:	0f b6 c8             	movzbl %al,%ecx
   1800026e8:	42 0f b6 84 29 20 61 	movzbl 0x6120(%rcx,%r13,1),%eax
   1800026ef:	00 00 
   1800026f1:	33 f0                	xor    %eax,%esi
   1800026f3:	41 0f b6 c2          	movzbl %r10b,%eax
   1800026f7:	49 c1 ea 08          	shr    $0x8,%r10
   1800026fb:	42 0f b6 84 28 20 61 	movzbl 0x6120(%rax,%r13,1),%eax
   180002702:	00 00 
   180002704:	c1 e6 08             	shl    $0x8,%esi
   180002707:	33 f0                	xor    %eax,%esi
   180002709:	41 0f b6 c0          	movzbl %r8b,%eax
   18000270d:	42 0f b6 8c 28 20 61 	movzbl 0x6120(%rax,%r13,1),%ecx
   180002714:	00 00 
   180002716:	42 0f b6 84 2a 20 61 	movzbl 0x6120(%rdx,%r13,1),%eax
   18000271d:	00 00 
   18000271f:	c1 e0 08             	shl    $0x8,%eax
   180002722:	33 c8                	xor    %eax,%ecx
   180002724:	41 0f b6 c2          	movzbl %r10b,%eax
   180002728:	42 0f b6 84 28 20 61 	movzbl 0x6120(%rax,%r13,1),%eax
   18000272f:	00 00 
   180002731:	c1 e1 08             	shl    $0x8,%ecx
   180002734:	33 c8                	xor    %eax,%ecx
   180002736:	41 0f b6 c1          	movzbl %r9b,%eax
   18000273a:	42 0f b6 84 28 20 61 	movzbl 0x6120(%rax,%r13,1),%eax
   180002741:	00 00 
   180002743:	e9 8e 04 00 00       	jmpq   0x180002bd6
   180002748:	85 c0                	test   %eax,%eax
   18000274a:	0f 8e 30 02 00 00    	jle    0x180002980
   180002750:	44 8b f0             	mov    %eax,%r14d
   180002753:	44 8b db             	mov    %ebx,%r11d
   180002756:	8b f9                	mov    %ecx,%edi
   180002758:	41 8b c7             	mov    %r15d,%eax
   18000275b:	48 c1 e8 08          	shr    $0x8,%rax
   18000275f:	45 8b d7             	mov    %r15d,%r10d
   180002762:	41 8b f4             	mov    %r12d,%esi
   180002765:	0f b6 d0             	movzbl %al,%edx
   180002768:	49 c1 ea 10          	shr    $0x10,%r10
   18000276c:	41 8b c4             	mov    %r12d,%eax
   18000276f:	41 8b 9c 95 20 55 00 	mov    0x5520(%r13,%rdx,4),%ebx
   180002776:	00 
   180002777:	48 c1 e8 10          	shr    $0x10,%rax
   18000277b:	48 c1 ee 18          	shr    $0x18,%rsi
   18000277f:	0f b6 c8             	movzbl %al,%ecx
   180002782:	8b c7                	mov    %edi,%eax
   180002784:	41 33 9c 8d 20 59 00 	xor    0x5920(%r13,%rcx,4),%ebx
   18000278b:	00 
   18000278c:	48 c1 e8 18          	shr    $0x18,%rax
   180002790:	41 33 9c 85 20 5d 00 	xor    0x5d20(%r13,%rax,4),%ebx
   180002797:	00 
   180002798:	41 0f b6 c3          	movzbl %r11b,%eax
   18000279c:	41 33 9c 85 20 51 00 	xor    0x5120(%r13,%rax,4),%ebx
   1800027a3:	00 
   1800027a4:	41 8b c4             	mov    %r12d,%eax
   1800027a7:	33 5d 00             	xor    0x0(%rbp),%ebx
   1800027aa:	48 c1 e8 08          	shr    $0x8,%rax
   1800027ae:	0f b6 d0             	movzbl %al,%edx
   1800027b1:	8b c7                	mov    %edi,%eax
   1800027b3:	45 8b 8c 95 20 55 00 	mov    0x5520(%r13,%rdx,4),%r9d
   1800027ba:	00 
   1800027bb:	48 c1 e8 10          	shr    $0x10,%rax
   1800027bf:	0f b6 c8             	movzbl %al,%ecx
   1800027c2:	41 8b c3             	mov    %r11d,%eax
   1800027c5:	45 33 8c 8d 20 59 00 	xor    0x5920(%r13,%rcx,4),%r9d
   1800027cc:	00 
   1800027cd:	48 c1 e8 18          	shr    $0x18,%rax
   1800027d1:	45 33 8c 85 20 5d 00 	xor    0x5d20(%r13,%rax,4),%r9d
   1800027d8:	00 
   1800027d9:	41 0f b6 c7          	movzbl %r15b,%eax
   1800027dd:	45 33 8c 85 20 51 00 	xor    0x5120(%r13,%rax,4),%r9d
   1800027e4:	00 
   1800027e5:	41 8b c3             	mov    %r11d,%eax
   1800027e8:	49 c1 eb 08          	shr    $0x8,%r11
   1800027ec:	44 33 4d 04          	xor    0x4(%rbp),%r9d
   1800027f0:	48 c1 e8 10          	shr    $0x10,%rax
   1800027f4:	0f b6 d0             	movzbl %al,%edx
   1800027f7:	8b c7                	mov    %edi,%eax
   1800027f9:	45 8b 84 95 20 59 00 	mov    0x5920(%r13,%rdx,4),%r8d
   180002800:	00 
   180002801:	48 c1 e8 08          	shr    $0x8,%rax
   180002805:	0f b6 c8             	movzbl %al,%ecx
   180002808:	41 8b c7             	mov    %r15d,%eax
   18000280b:	45 33 84 8d 20 55 00 	xor    0x5520(%r13,%rcx,4),%r8d
   180002812:	00 
   180002813:	48 c1 e8 18          	shr    $0x18,%rax
   180002817:	41 0f b6 ca          	movzbl %r10b,%ecx
   18000281b:	45 33 84 85 20 5d 00 	xor    0x5d20(%r13,%rax,4),%r8d
   180002822:	00 
   180002823:	45 8b 94 8d 20 59 00 	mov    0x5920(%r13,%rcx,4),%r10d
   18000282a:	00 
   18000282b:	41 0f b6 c4          	movzbl %r12b,%eax
   18000282f:	45 33 84 85 20 51 00 	xor    0x5120(%r13,%rax,4),%r8d
   180002836:	00 
   180002837:	41 0f b6 c3          	movzbl %r11b,%eax
   18000283b:	45 33 94 85 20 55 00 	xor    0x5520(%r13,%rax,4),%r10d
   180002842:	00 
   180002843:	44 33 45 08          	xor    0x8(%rbp),%r8d
   180002847:	40 0f b6 c7          	movzbl %dil,%eax
   18000284b:	45 33 94 b5 20 5d 00 	xor    0x5d20(%r13,%rsi,4),%r10d
   180002852:	00 
   180002853:	45 8b d8             	mov    %r8d,%r11d
   180002856:	45 8b c1             	mov    %r9d,%r8d
   180002859:	45 33 94 85 20 51 00 	xor    0x5120(%r13,%rax,4),%r10d
   180002860:	00 
   180002861:	44 8b cb             	mov    %ebx,%r9d
   180002864:	41 8b c0             	mov    %r8d,%eax
   180002867:	44 33 55 0c          	xor    0xc(%rbp),%r10d
   18000286b:	48 c1 e8 08          	shr    $0x8,%rax
   18000286f:	0f b6 d0             	movzbl %al,%edx
   180002872:	41 8b c3             	mov    %r11d,%eax
   180002875:	41 8b 9c 95 20 55 00 	mov    0x5520(%r13,%rdx,4),%ebx
   18000287c:	00 
   18000287d:	48 c1 e8 10          	shr    $0x10,%rax
   180002881:	0f b6 c8             	movzbl %al,%ecx
   180002884:	41 8b c2             	mov    %r10d,%eax
   180002887:	41 33 9c 8d 20 59 00 	xor    0x5920(%r13,%rcx,4),%ebx
   18000288e:	00 
   18000288f:	48 c1 e8 18          	shr    $0x18,%rax
   180002893:	41 33 9c 85 20 5d 00 	xor    0x5d20(%r13,%rax,4),%ebx
   18000289a:	00 
   18000289b:	41 0f b6 c1          	movzbl %r9b,%eax
   18000289f:	41 33 9c 85 20 51 00 	xor    0x5120(%r13,%rax,4),%ebx
   1800028a6:	00 
   1800028a7:	41 8b c3             	mov    %r11d,%eax
   1800028aa:	33 5d 10             	xor    0x10(%rbp),%ebx
   1800028ad:	48 c1 e8 08          	shr    $0x8,%rax
   1800028b1:	0f b6 d0             	movzbl %al,%edx
   1800028b4:	41 8b c2             	mov    %r10d,%eax
   1800028b7:	45 8b bc 95 20 55 00 	mov    0x5520(%r13,%rdx,4),%r15d
   1800028be:	00 
   1800028bf:	48 c1 e8 10          	shr    $0x10,%rax
   1800028c3:	0f b6 c8             	movzbl %al,%ecx
   1800028c6:	45 33 bc 8d 20 59 00 	xor    0x5920(%r13,%rcx,4),%r15d
   1800028cd:	00 
   1800028ce:	41 8b c1             	mov    %r9d,%eax
   1800028d1:	41 ff ce             	dec    %r14d
   1800028d4:	48 c1 e8 18          	shr    $0x18,%rax
   1800028d8:	48 83 c5 20          	add    $0x20,%rbp
   1800028dc:	45 33 bc 85 20 5d 00 	xor    0x5d20(%r13,%rax,4),%r15d
   1800028e3:	00 
   1800028e4:	41 0f b6 c0          	movzbl %r8b,%eax
   1800028e8:	45 33 bc 85 20 51 00 	xor    0x5120(%r13,%rax,4),%r15d
   1800028ef:	00 
   1800028f0:	41 8b c1             	mov    %r9d,%eax
   1800028f3:	49 c1 e9 08          	shr    $0x8,%r9
   1800028f7:	44 33 7d f4          	xor    -0xc(%rbp),%r15d
   1800028fb:	48 c1 e8 10          	shr    $0x10,%rax
   1800028ff:	0f b6 d0             	movzbl %al,%edx
   180002902:	41 8b c2             	mov    %r10d,%eax
   180002905:	45 8b a4 95 20 59 00 	mov    0x5920(%r13,%rdx,4),%r12d
   18000290c:	00 
   18000290d:	48 c1 e8 08          	shr    $0x8,%rax
   180002911:	0f b6 c8             	movzbl %al,%ecx
   180002914:	41 8b c0             	mov    %r8d,%eax
   180002917:	49 c1 e8 10          	shr    $0x10,%r8
   18000291b:	45 33 a4 8d 20 55 00 	xor    0x5520(%r13,%rcx,4),%r12d
   180002922:	00 
   180002923:	48 c1 e8 18          	shr    $0x18,%rax
   180002927:	41 0f b6 c8          	movzbl %r8b,%ecx
   18000292b:	45 33 a4 85 20 5d 00 	xor    0x5d20(%r13,%rax,4),%r12d
   180002932:	00 
   180002933:	41 8b 8c 8d 20 59 00 	mov    0x5920(%r13,%rcx,4),%ecx
   18000293a:	00 
   18000293b:	41 0f b6 c3          	movzbl %r11b,%eax
   18000293f:	45 33 a4 85 20 51 00 	xor    0x5120(%r13,%rax,4),%r12d
   180002946:	00 
   180002947:	41 0f b6 c1          	movzbl %r9b,%eax
   18000294b:	49 c1 eb 18          	shr    $0x18,%r11
   18000294f:	41 33 8c 85 20 55 00 	xor    0x5520(%r13,%rax,4),%ecx
   180002956:	00 
   180002957:	44 33 65 f8          	xor    -0x8(%rbp),%r12d
   18000295b:	41 0f b6 c2          	movzbl %r10b,%eax
   18000295f:	43 33 8c 9d 20 5d 00 	xor    0x5d20(%r13,%r11,4),%ecx
   180002966:	00 
   180002967:	41 33 8c 85 20 51 00 	xor    0x5120(%r13,%rax,4),%ecx
   18000296e:	00 
   18000296f:	33 4d fc             	xor    -0x4(%rbp),%ecx
   180002972:	45 85 f6             	test   %r14d,%r14d
   180002975:	0f 8f d8 fd ff ff    	jg     0x180002753
   18000297b:	4c 8b 74 24 50       	mov    0x50(%rsp),%r14
   180002980:	44 8b db             	mov    %ebx,%r11d
   180002983:	8b f9                	mov    %ecx,%edi
   180002985:	41 8b c7             	mov    %r15d,%eax
   180002988:	48 c1 e8 08          	shr    $0x8,%rax
   18000298c:	45 8b d7             	mov    %r15d,%r10d
   18000298f:	41 8b f4             	mov    %r12d,%esi
   180002992:	0f b6 d0             	movzbl %al,%edx
   180002995:	41 8b c4             	mov    %r12d,%eax
   180002998:	49 c1 ea 10          	shr    $0x10,%r10
   18000299c:	41 8b 9c 95 20 55 00 	mov    0x5520(%r13,%rdx,4),%ebx
   1800029a3:	00 
   1800029a4:	48 c1 e8 10          	shr    $0x10,%rax
   1800029a8:	48 c1 ee 18          	shr    $0x18,%rsi
   1800029ac:	0f b6 c8             	movzbl %al,%ecx
   1800029af:	8b c7                	mov    %edi,%eax
   1800029b1:	41 33 9c 8d 20 59 00 	xor    0x5920(%r13,%rcx,4),%ebx
   1800029b8:	00 
   1800029b9:	48 c1 e8 18          	shr    $0x18,%rax
   1800029bd:	41 33 9c 85 20 5d 00 	xor    0x5d20(%r13,%rax,4),%ebx
   1800029c4:	00 
   1800029c5:	41 0f b6 c3          	movzbl %r11b,%eax
   1800029c9:	41 33 9c 85 20 51 00 	xor    0x5120(%r13,%rax,4),%ebx
   1800029d0:	00 
   1800029d1:	41 8b c4             	mov    %r12d,%eax
   1800029d4:	33 5d 00             	xor    0x0(%rbp),%ebx
   1800029d7:	48 c1 e8 08          	shr    $0x8,%rax
   1800029db:	0f b6 d0             	movzbl %al,%edx
   1800029de:	8b c7                	mov    %edi,%eax
   1800029e0:	45 8b 8c 95 20 55 00 	mov    0x5520(%r13,%rdx,4),%r9d
   1800029e7:	00 
   1800029e8:	48 c1 e8 10          	shr    $0x10,%rax
   1800029ec:	0f b6 c8             	movzbl %al,%ecx
   1800029ef:	41 8b c3             	mov    %r11d,%eax
   1800029f2:	45 33 8c 8d 20 59 00 	xor    0x5920(%r13,%rcx,4),%r9d
   1800029f9:	00 
   1800029fa:	48 c1 e8 18          	shr    $0x18,%rax
   1800029fe:	45 33 8c 85 20 5d 00 	xor    0x5d20(%r13,%rax,4),%r9d
   180002a05:	00 
   180002a06:	41 0f b6 c7          	movzbl %r15b,%eax
   180002a0a:	45 33 8c 85 20 51 00 	xor    0x5120(%r13,%rax,4),%r9d
   180002a11:	00 
   180002a12:	41 8b c3             	mov    %r11d,%eax
   180002a15:	49 c1 eb 08          	shr    $0x8,%r11
   180002a19:	44 33 4d 04          	xor    0x4(%rbp),%r9d
   180002a1d:	48 c1 e8 10          	shr    $0x10,%rax
   180002a21:	0f b6 d0             	movzbl %al,%edx
   180002a24:	8b c7                	mov    %edi,%eax
   180002a26:	45 8b 84 95 20 59 00 	mov    0x5920(%r13,%rdx,4),%r8d
   180002a2d:	00 
   180002a2e:	48 c1 e8 08          	shr    $0x8,%rax
   180002a32:	41 8b d1             	mov    %r9d,%edx
   180002a35:	0f b6 c8             	movzbl %al,%ecx
   180002a38:	41 8b c7             	mov    %r15d,%eax
   180002a3b:	45 33 84 8d 20 55 00 	xor    0x5520(%r13,%rcx,4),%r8d
   180002a42:	00 
   180002a43:	48 c1 e8 18          	shr    $0x18,%rax
   180002a47:	41 0f b6 ca          	movzbl %r10b,%ecx
   180002a4b:	45 33 84 85 20 5d 00 	xor    0x5d20(%r13,%rax,4),%r8d
   180002a52:	00 
   180002a53:	41 0f b6 c4          	movzbl %r12b,%eax
   180002a57:	45 33 84 85 20 51 00 	xor    0x5120(%r13,%rax,4),%r8d
   180002a5e:	00 
   180002a5f:	41 0f b6 c3          	movzbl %r11b,%eax
   180002a63:	45 8b 9c 8d 20 59 00 	mov    0x5920(%r13,%rcx,4),%r11d
   180002a6a:	00 
   180002a6b:	45 33 9c 85 20 55 00 	xor    0x5520(%r13,%rax,4),%r11d
   180002a72:	00 
   180002a73:	44 33 45 08          	xor    0x8(%rbp),%r8d
   180002a77:	40 0f b6 c7          	movzbl %dil,%eax
   180002a7b:	45 33 9c b5 20 5d 00 	xor    0x5d20(%r13,%rsi,4),%r11d
   180002a82:	00 
   180002a83:	45 8b d0             	mov    %r8d,%r10d
   180002a86:	44 8b c3             	mov    %ebx,%r8d
   180002a89:	45 33 9c 85 20 51 00 	xor    0x5120(%r13,%rax,4),%r11d
   180002a90:	00 
   180002a91:	41 8b c2             	mov    %r10d,%eax
   180002a94:	44 33 5d 0c          	xor    0xc(%rbp),%r11d
   180002a98:	48 c1 e8 10          	shr    $0x10,%rax
   180002a9c:	0f b6 c8             	movzbl %al,%ecx
   180002a9f:	41 8b c3             	mov    %r11d,%eax
   180002aa2:	42 0f b6 9c 29 20 50 	movzbl 0x5020(%rcx,%r13,1),%ebx
   180002aa9:	00 00 
   180002aab:	48 c1 e8 18          	shr    $0x18,%rax
   180002aaf:	42 0f b6 84 28 20 50 	movzbl 0x5020(%rax,%r13,1),%eax
   180002ab6:	00 00 
   180002ab8:	c1 e0 08             	shl    $0x8,%eax
   180002abb:	33 d8                	xor    %eax,%ebx
   180002abd:	41 8b c1             	mov    %r9d,%eax
   180002ac0:	48 c1 e8 08          	shr    $0x8,%rax
   180002ac4:	c1 e3 08             	shl    $0x8,%ebx
   180002ac7:	0f b6 c8             	movzbl %al,%ecx
   180002aca:	42 0f b6 84 29 20 50 	movzbl 0x5020(%rcx,%r13,1),%eax
   180002ad1:	00 00 
   180002ad3:	33 d8                	xor    %eax,%ebx
   180002ad5:	41 0f b6 c0          	movzbl %r8b,%eax
   180002ad9:	42 0f b6 84 28 20 50 	movzbl 0x5020(%rax,%r13,1),%eax
   180002ae0:	00 00 
   180002ae2:	c1 e3 08             	shl    $0x8,%ebx
   180002ae5:	33 d8                	xor    %eax,%ebx
   180002ae7:	41 8b c0             	mov    %r8d,%eax
   180002aea:	33 5d 10             	xor    0x10(%rbp),%ebx
   180002aed:	48 c1 e8 18          	shr    $0x18,%rax
   180002af1:	48 c1 ea 10          	shr    $0x10,%rdx
   180002af5:	42 0f b6 bc 28 20 50 	movzbl 0x5020(%rax,%r13,1),%edi
   180002afc:	00 00 
   180002afe:	41 8b c3             	mov    %r11d,%eax
   180002b01:	48 c1 e8 10          	shr    $0x10,%rax
   180002b05:	c1 e7 08             	shl    $0x8,%edi
   180002b08:	0f b6 c8             	movzbl %al,%ecx
   180002b0b:	42 0f b6 84 29 20 50 	movzbl 0x5020(%rcx,%r13,1),%eax
   180002b12:	00 00 
   180002b14:	33 f8                	xor    %eax,%edi
   180002b16:	41 8b c2             	mov    %r10d,%eax
   180002b19:	48 c1 e8 08          	shr    $0x8,%rax
   180002b1d:	c1 e7 08             	shl    $0x8,%edi
   180002b20:	0f b6 c8             	movzbl %al,%ecx
   180002b23:	42 0f b6 84 29 20 50 	movzbl 0x5020(%rcx,%r13,1),%eax
   180002b2a:	00 00 
   180002b2c:	33 f8                	xor    %eax,%edi
   180002b2e:	41 0f b6 c1          	movzbl %r9b,%eax
   180002b32:	42 0f b6 84 28 20 50 	movzbl 0x5020(%rax,%r13,1),%eax
   180002b39:	00 00 
   180002b3b:	c1 e7 08             	shl    $0x8,%edi
   180002b3e:	33 f8                	xor    %eax,%edi
   180002b40:	41 8b c0             	mov    %r8d,%eax
   180002b43:	49 c1 e8 08          	shr    $0x8,%r8
   180002b47:	33 7d 14             	xor    0x14(%rbp),%edi
   180002b4a:	48 c1 e8 10          	shr    $0x10,%rax
   180002b4e:	0f b6 c8             	movzbl %al,%ecx
   180002b51:	41 8b c1             	mov    %r9d,%eax
   180002b54:	42 0f b6 b4 29 20 50 	movzbl 0x5020(%rcx,%r13,1),%esi
   180002b5b:	00 00 
   180002b5d:	48 c1 e8 18          	shr    $0x18,%rax
   180002b61:	42 0f b6 84 28 20 50 	movzbl 0x5020(%rax,%r13,1),%eax
   180002b68:	00 00 
   180002b6a:	c1 e0 08             	shl    $0x8,%eax
   180002b6d:	33 f0                	xor    %eax,%esi
   180002b6f:	41 8b c3             	mov    %r11d,%eax
   180002b72:	48 c1 e8 08          	shr    $0x8,%rax
   180002b76:	c1 e6 08             	shl    $0x8,%esi
   180002b79:	0f b6 c8             	movzbl %al,%ecx
   180002b7c:	42 0f b6 84 29 20 50 	movzbl 0x5020(%rcx,%r13,1),%eax
   180002b83:	00 00 
   180002b85:	33 f0                	xor    %eax,%esi
   180002b87:	41 0f b6 c2          	movzbl %r10b,%eax
   180002b8b:	49 c1 ea 18          	shr    $0x18,%r10
   180002b8f:	42 0f b6 84 28 20 50 	movzbl 0x5020(%rax,%r13,1),%eax
   180002b96:	00 00 
   180002b98:	c1 e6 08             	shl    $0x8,%esi
   180002b9b:	33 f0                	xor    %eax,%esi
   180002b9d:	0f b6 c2             	movzbl %dl,%eax
   180002ba0:	42 0f b6 8c 28 20 50 	movzbl 0x5020(%rax,%r13,1),%ecx
   180002ba7:	00 00 
   180002ba9:	43 0f b6 84 2a 20 50 	movzbl 0x5020(%r10,%r13,1),%eax
   180002bb0:	00 00 
   180002bb2:	c1 e0 08             	shl    $0x8,%eax
   180002bb5:	33 c8                	xor    %eax,%ecx
   180002bb7:	41 0f b6 c0          	movzbl %r8b,%eax
   180002bbb:	42 0f b6 84 28 20 50 	movzbl 0x5020(%rax,%r13,1),%eax
   180002bc2:	00 00 
   180002bc4:	c1 e1 08             	shl    $0x8,%ecx
   180002bc7:	33 c8                	xor    %eax,%ecx
   180002bc9:	41 0f b6 c3          	movzbl %r11b,%eax
   180002bcd:	42 0f b6 84 28 20 50 	movzbl 0x5020(%rax,%r13,1),%eax
   180002bd4:	00 00 
   180002bd6:	33 75 18             	xor    0x18(%rbp),%esi
   180002bd9:	c1 e1 08             	shl    $0x8,%ecx
   180002bdc:	33 c8                	xor    %eax,%ecx
   180002bde:	8b c3                	mov    %ebx,%eax
   180002be0:	33 4d 1c             	xor    0x1c(%rbp),%ecx
   180002be3:	48 8b 6c 24 48       	mov    0x48(%rsp),%rbp
   180002be8:	c1 e8 08             	shr    $0x8,%eax
   180002beb:	41 88 46 01          	mov    %al,0x1(%r14)
   180002bef:	8b c3                	mov    %ebx,%eax
   180002bf1:	41 88 1e             	mov    %bl,(%r14)
   180002bf4:	c1 e8 10             	shr    $0x10,%eax
   180002bf7:	c1 eb 18             	shr    $0x18,%ebx
   180002bfa:	41 88 7e 04          	mov    %dil,0x4(%r14)
   180002bfe:	41 88 46 02          	mov    %al,0x2(%r14)
   180002c02:	8b c7                	mov    %edi,%eax
   180002c04:	41 88 76 08          	mov    %sil,0x8(%r14)
   180002c08:	c1 e8 08             	shr    $0x8,%eax
   180002c0b:	41 88 4e 0c          	mov    %cl,0xc(%r14)
   180002c0f:	41 88 5e 03          	mov    %bl,0x3(%r14)
   180002c13:	48 8b 5c 24 38       	mov    0x38(%rsp),%rbx
   180002c18:	41 88 46 05          	mov    %al,0x5(%r14)
   180002c1c:	8b c7                	mov    %edi,%eax
   180002c1e:	c1 e8 10             	shr    $0x10,%eax
   180002c21:	c1 ef 18             	shr    $0x18,%edi
   180002c24:	41 88 46 06          	mov    %al,0x6(%r14)
   180002c28:	8b c6                	mov    %esi,%eax
   180002c2a:	41 88 7e 07          	mov    %dil,0x7(%r14)
   180002c2e:	c1 e8 08             	shr    $0x8,%eax
   180002c31:	41 88 46 09          	mov    %al,0x9(%r14)
   180002c35:	8b c6                	mov    %esi,%eax
   180002c37:	c1 ee 18             	shr    $0x18,%esi
   180002c3a:	c1 e8 10             	shr    $0x10,%eax
   180002c3d:	41 88 76 0b          	mov    %sil,0xb(%r14)
   180002c41:	41 88 46 0a          	mov    %al,0xa(%r14)
   180002c45:	8b c1                	mov    %ecx,%eax
   180002c47:	c1 e8 08             	shr    $0x8,%eax
   180002c4a:	41 88 46 0d          	mov    %al,0xd(%r14)
   180002c4e:	8b c1                	mov    %ecx,%eax
   180002c50:	c1 e9 18             	shr    $0x18,%ecx
   180002c53:	c1 e8 10             	shr    $0x10,%eax
   180002c56:	41 88 4e 0f          	mov    %cl,0xf(%r14)
   180002c5a:	41 88 46 0e          	mov    %al,0xe(%r14)
   180002c5e:	33 c0                	xor    %eax,%eax
   180002c60:	41 5f                	pop    %r15
   180002c62:	41 5e                	pop    %r14
   180002c64:	41 5d                	pop    %r13
   180002c66:	41 5c                	pop    %r12
   180002c68:	5f                   	pop    %rdi
   180002c69:	5e                   	pop    %rsi
   180002c6a:	c3                   	retq   
   180002c6b:	cc                   	int3   
   180002c6c:	48 8b c4             	mov    %rsp,%rax
   180002c6f:	48 89 58 08          	mov    %rbx,0x8(%rax)
   180002c73:	48 89 70 10          	mov    %rsi,0x10(%rax)
   180002c77:	48 89 78 18          	mov    %rdi,0x18(%rax)
   180002c7b:	55                   	push   %rbp
   180002c7c:	41 54                	push   %r12
   180002c7e:	41 55                	push   %r13
   180002c80:	41 56                	push   %r14
   180002c82:	41 57                	push   %r15
   180002c84:	48 8d a8 d8 f8 ff ff 	lea    -0x728(%rax),%rbp
   180002c8b:	48 81 ec 00 08 00 00 	sub    $0x800,%rsp
   180002c92:	45 33 c0             	xor    %r8d,%r8d
   180002c95:	4c 8d 8d 00 03 00 00 	lea    0x300(%rbp),%r9
   180002c9c:	bb 00 01 00 00       	mov    $0x100,%ebx
   180002ca1:	41 8d 78 01          	lea    0x1(%r8),%edi
   180002ca5:	8b d7                	mov    %edi,%edx
   180002ca7:	48 63 c2             	movslq %edx,%rax
   180002caa:	41 89 11             	mov    %edx,(%r9)
   180002cad:	4d 8d 49 04          	lea    0x4(%r9),%r9
   180002cb1:	44 89 04 84          	mov    %r8d,(%rsp,%rax,4)
   180002cb5:	8b c2                	mov    %edx,%eax
   180002cb7:	24 80                	and    $0x80,%al
   180002cb9:	f6 d8                	neg    %al
   180002cbb:	8d 04 12             	lea    (%rdx,%rdx,1),%eax
   180002cbe:	1b c9                	sbb    %ecx,%ecx
   180002cc0:	44 03 c7             	add    %edi,%r8d
   180002cc3:	83 e1 1b             	and    $0x1b,%ecx
   180002cc6:	33 c8                	xor    %eax,%ecx
   180002cc8:	33 ca                	xor    %edx,%ecx
   180002cca:	0f b6 d1             	movzbl %cl,%edx
   180002ccd:	44 3b c3             	cmp    %ebx,%r8d
   180002cd0:	7c d5                	jl     0x180002ca7
   180002cd2:	8b d7                	mov    %edi,%edx
   180002cd4:	4c 8d 05 45 45 00 00 	lea    0x4545(%rip),%r8        # 0x180007220
   180002cdb:	41 b9 0a 00 00 00    	mov    $0xa,%r9d
   180002ce1:	8b c2                	mov    %edx,%eax
   180002ce3:	41 89 10             	mov    %edx,(%r8)
   180002ce6:	4d 8d 40 04          	lea    0x4(%r8),%r8
   180002cea:	24 80                	and    $0x80,%al
   180002cec:	f6 d8                	neg    %al
   180002cee:	8d 04 12             	lea    (%rdx,%rdx,1),%eax
   180002cf1:	1b c9                	sbb    %ecx,%ecx
   180002cf3:	83 e1 1b             	and    $0x1b,%ecx
   180002cf6:	33 c8                	xor    %eax,%ecx
   180002cf8:	0f b6 d1             	movzbl %cl,%edx
   180002cfb:	4c 2b cf             	sub    %rdi,%r9
   180002cfe:	75 e1                	jne    0x180002ce1
   180002d00:	44 88 0d 7c 34 00 00 	mov    %r9b,0x347c(%rip)        # 0x180006183
   180002d07:	c6 05 12 23 00 00 63 	movb   $0x63,0x2312(%rip)        # 0x180005020
   180002d0e:	4c 8d 15 0c 23 00 00 	lea    0x230c(%rip),%r10        # 0x180005021
   180002d15:	44 8b cf             	mov    %edi,%r9d
   180002d18:	4c 8d 5c 24 04       	lea    0x4(%rsp),%r11
   180002d1d:	48 8d 35 dc d2 ff ff 	lea    -0x2d24(%rip),%rsi        # 0x180000000
   180002d24:	49 63 0b             	movslq (%r11),%rcx
   180002d27:	48 8d 85 fc 06 00 00 	lea    0x6fc(%rbp),%rax
   180002d2e:	4d 8d 5b 04          	lea    0x4(%r11),%r11
   180002d32:	48 c1 e1 02          	shl    $0x2,%rcx
   180002d36:	48 2b c1             	sub    %rcx,%rax
   180002d39:	44 8b 00             	mov    (%rax),%r8d
   180002d3c:	41 8b c8             	mov    %r8d,%ecx
   180002d3f:	c1 f9 07             	sar    $0x7,%ecx
   180002d42:	43 8d 04 00          	lea    (%r8,%r8,1),%eax
   180002d46:	0b c8                	or     %eax,%ecx
   180002d48:	0f b6 c1             	movzbl %cl,%eax
   180002d4b:	44 33 c0             	xor    %eax,%r8d
   180002d4e:	8b c8                	mov    %eax,%ecx
   180002d50:	03 c0                	add    %eax,%eax
   180002d52:	c1 f9 07             	sar    $0x7,%ecx
   180002d55:	0b c8                	or     %eax,%ecx
   180002d57:	0f b6 c1             	movzbl %cl,%eax
   180002d5a:	44 33 c0             	xor    %eax,%r8d
   180002d5d:	8b c8                	mov    %eax,%ecx
   180002d5f:	03 c0                	add    %eax,%eax
   180002d61:	c1 f9 07             	sar    $0x7,%ecx
   180002d64:	0b c8                	or     %eax,%ecx
   180002d66:	0f b6 d1             	movzbl %cl,%edx
   180002d69:	8b ca                	mov    %edx,%ecx
   180002d6b:	8d 04 12             	lea    (%rdx,%rdx,1),%eax
   180002d6e:	c1 f9 07             	sar    $0x7,%ecx
   180002d71:	0b c8                	or     %eax,%ecx
   180002d73:	83 f1 63             	xor    $0x63,%ecx
   180002d76:	0f b6 c1             	movzbl %cl,%eax
   180002d79:	33 c2                	xor    %edx,%eax
   180002d7b:	44 33 c0             	xor    %eax,%r8d
   180002d7e:	49 63 c0             	movslq %r8d,%rax
   180002d81:	45 88 02             	mov    %r8b,(%r10)
   180002d84:	4c 03 d7             	add    %rdi,%r10
   180002d87:	44 88 8c 30 20 61 00 	mov    %r9b,0x6120(%rax,%rsi,1)
   180002d8e:	00 
   180002d8f:	44 03 cf             	add    %edi,%r9d
   180002d92:	44 3b cb             	cmp    %ebx,%r9d
   180002d95:	7c 8d                	jl     0x180002d24
   180002d97:	44 8b 74 24 38       	mov    0x38(%rsp),%r14d
   180002d9c:	44 8b 64 24 34       	mov    0x34(%rsp),%r12d
   180002da1:	44 8b 6c 24 2c       	mov    0x2c(%rsp),%r13d
   180002da6:	44 8b 7c 24 24       	mov    0x24(%rsp),%r15d
   180002dab:	45 33 d2             	xor    %r10d,%r10d
   180002dae:	41 0f b6 94 32 20 50 	movzbl 0x5020(%r10,%rsi,1),%edx
   180002db5:	00 00 
   180002db7:	45 0f b6 8c 32 20 61 	movzbl 0x6120(%r10,%rsi,1),%r9d
   180002dbe:	00 00 
   180002dc0:	8b c2                	mov    %edx,%eax
   180002dc2:	24 80                	and    $0x80,%al
   180002dc4:	f6 d8                	neg    %al
   180002dc6:	8d 04 12             	lea    (%rdx,%rdx,1),%eax
   180002dc9:	1b c9                	sbb    %ecx,%ecx
   180002dcb:	83 e1 1b             	and    $0x1b,%ecx
   180002dce:	33 c8                	xor    %eax,%ecx
   180002dd0:	0f b6 c1             	movzbl %cl,%eax
   180002dd3:	8b c8                	mov    %eax,%ecx
   180002dd5:	33 ca                	xor    %edx,%ecx
   180002dd7:	c1 e1 08             	shl    $0x8,%ecx
   180002dda:	33 ca                	xor    %edx,%ecx
   180002ddc:	c1 e1 08             	shl    $0x8,%ecx
   180002ddf:	33 ca                	xor    %edx,%ecx
   180002de1:	c1 e1 08             	shl    $0x8,%ecx
   180002de4:	33 c8                	xor    %eax,%ecx
   180002de6:	42 89 8c 96 20 51 00 	mov    %ecx,0x5120(%rsi,%r10,4)
   180002ded:	00 
   180002dee:	c1 c1 08             	rol    $0x8,%ecx
   180002df1:	42 89 8c 96 20 55 00 	mov    %ecx,0x5520(%rsi,%r10,4)
   180002df8:	00 
   180002df9:	c1 c1 08             	rol    $0x8,%ecx
   180002dfc:	42 89 8c 96 20 59 00 	mov    %ecx,0x5920(%rsi,%r10,4)
   180002e03:	00 
   180002e04:	c1 c1 08             	rol    $0x8,%ecx
   180002e07:	42 89 8c 96 20 5d 00 	mov    %ecx,0x5d20(%rsi,%r10,4)
   180002e0e:	00 
   180002e0f:	45 85 c9             	test   %r9d,%r9d
   180002e12:	74 34                	je     0x180002e48
   180002e14:	49 63 c1             	movslq %r9d,%rax
   180002e17:	44 8b 04 84          	mov    (%rsp,%rax,4),%r8d
   180002e1b:	b8 81 80 80 80       	mov    $0x80808081,%eax
   180002e20:	45 03 c6             	add    %r14d,%r8d
   180002e23:	41 f7 e8             	imul   %r8d
   180002e26:	41 03 d0             	add    %r8d,%edx
   180002e29:	c1 fa 07             	sar    $0x7,%edx
   180002e2c:	8b c2                	mov    %edx,%eax
   180002e2e:	c1 e8 1f             	shr    $0x1f,%eax
   180002e31:	03 d0                	add    %eax,%edx
   180002e33:	69 c2 ff 00 00 00    	imul   $0xff,%edx,%eax
   180002e39:	44 2b c0             	sub    %eax,%r8d
   180002e3c:	49 63 c0             	movslq %r8d,%rax
   180002e3f:	8b b4 85 00 03 00 00 	mov    0x300(%rbp,%rax,4),%esi
   180002e46:	eb 02                	jmp    0x180002e4a
   180002e48:	33 f6                	xor    %esi,%esi
   180002e4a:	45 85 c9             	test   %r9d,%r9d
   180002e4d:	74 34                	je     0x180002e83
   180002e4f:	49 63 c1             	movslq %r9d,%rax
   180002e52:	44 8b 04 84          	mov    (%rsp,%rax,4),%r8d
   180002e56:	b8 81 80 80 80       	mov    $0x80808081,%eax
   180002e5b:	45 03 c7             	add    %r15d,%r8d
   180002e5e:	41 f7 e8             	imul   %r8d
   180002e61:	41 03 d0             	add    %r8d,%edx
   180002e64:	c1 fa 07             	sar    $0x7,%edx
   180002e67:	8b c2                	mov    %edx,%eax
   180002e69:	c1 e8 1f             	shr    $0x1f,%eax
   180002e6c:	03 d0                	add    %eax,%edx
   180002e6e:	69 c2 ff 00 00 00    	imul   $0xff,%edx,%eax
   180002e74:	44 2b c0             	sub    %eax,%r8d
   180002e77:	49 63 c0             	movslq %r8d,%rax
   180002e7a:	8b bc 85 00 03 00 00 	mov    0x300(%rbp,%rax,4),%edi
   180002e81:	eb 02                	jmp    0x180002e85
   180002e83:	33 ff                	xor    %edi,%edi
   180002e85:	45 85 c9             	test   %r9d,%r9d
   180002e88:	74 35                	je     0x180002ebf
   180002e8a:	49 63 c1             	movslq %r9d,%rax
   180002e8d:	44 8b 04 84          	mov    (%rsp,%rax,4),%r8d
   180002e91:	b8 81 80 80 80       	mov    $0x80808081,%eax
   180002e96:	45 03 c4             	add    %r12d,%r8d
   180002e99:	41 f7 e8             	imul   %r8d
   180002e9c:	41 03 d0             	add    %r8d,%edx
   180002e9f:	c1 fa 07             	sar    $0x7,%edx
   180002ea2:	8b c2                	mov    %edx,%eax
   180002ea4:	c1 e8 1f             	shr    $0x1f,%eax
   180002ea7:	03 d0                	add    %eax,%edx
   180002ea9:	69 c2 ff 00 00 00    	imul   $0xff,%edx,%eax
   180002eaf:	44 2b c0             	sub    %eax,%r8d
   180002eb2:	49 63 c0             	movslq %r8d,%rax
   180002eb5:	44 8b 9c 85 00 03 00 	mov    0x300(%rbp,%rax,4),%r11d
   180002ebc:	00 
   180002ebd:	eb 03                	jmp    0x180002ec2
   180002ebf:	45 33 db             	xor    %r11d,%r11d
   180002ec2:	45 85 c9             	test   %r9d,%r9d
   180002ec5:	74 31                	je     0x180002ef8
   180002ec7:	46 8b 04 8c          	mov    (%rsp,%r9,4),%r8d
   180002ecb:	b8 81 80 80 80       	mov    $0x80808081,%eax
   180002ed0:	45 03 c5             	add    %r13d,%r8d
   180002ed3:	41 f7 e8             	imul   %r8d
   180002ed6:	41 03 d0             	add    %r8d,%edx
   180002ed9:	c1 fa 07             	sar    $0x7,%edx
   180002edc:	8b c2                	mov    %edx,%eax
   180002ede:	c1 e8 1f             	shr    $0x1f,%eax
   180002ee1:	03 d0                	add    %eax,%edx
   180002ee3:	69 c2 ff 00 00 00    	imul   $0xff,%edx,%eax
   180002ee9:	44 2b c0             	sub    %eax,%r8d
   180002eec:	49 63 c0             	movslq %r8d,%rax
   180002eef:	8b 8c 85 00 03 00 00 	mov    0x300(%rbp,%rax,4),%ecx
   180002ef6:	eb 02                	jmp    0x180002efa
   180002ef8:	33 c9                	xor    %ecx,%ecx
   180002efa:	c1 e1 08             	shl    $0x8,%ecx
   180002efd:	49 ff c2             	inc    %r10
   180002f00:	41 33 cb             	xor    %r11d,%ecx
   180002f03:	c1 e1 08             	shl    $0x8,%ecx
   180002f06:	33 cf                	xor    %edi,%ecx
   180002f08:	c1 e1 08             	shl    $0x8,%ecx
   180002f0b:	33 ce                	xor    %esi,%ecx
   180002f0d:	48 8d 35 ec d0 ff ff 	lea    -0x2f14(%rip),%rsi        # 0x180000000
   180002f14:	42 89 8c 96 1c 62 00 	mov    %ecx,0x621c(%rsi,%r10,4)
   180002f1b:	00 
   180002f1c:	c1 c1 08             	rol    $0x8,%ecx
   180002f1f:	42 89 8c 96 1c 66 00 	mov    %ecx,0x661c(%rsi,%r10,4)
   180002f26:	00 
   180002f27:	c1 c1 08             	rol    $0x8,%ecx
   180002f2a:	42 89 8c 96 1c 6a 00 	mov    %ecx,0x6a1c(%rsi,%r10,4)
   180002f31:	00 
   180002f32:	c1 c1 08             	rol    $0x8,%ecx
   180002f35:	42 89 8c 96 1c 6e 00 	mov    %ecx,0x6e1c(%rsi,%r10,4)
   180002f3c:	00 
   180002f3d:	48 ff cb             	dec    %rbx
   180002f40:	0f 85 68 fe ff ff    	jne    0x180002dae
   180002f46:	4c 8d 9c 24 00 08 00 	lea    0x800(%rsp),%r11
   180002f4d:	00 
   180002f4e:	49 8b 5b 30          	mov    0x30(%r11),%rbx
   180002f52:	49 8b 73 38          	mov    0x38(%r11),%rsi
   180002f56:	49 8b 7b 40          	mov    0x40(%r11),%rdi
   180002f5a:	49 8b e3             	mov    %r11,%rsp
   180002f5d:	41 5f                	pop    %r15
   180002f5f:	41 5e                	pop    %r14
   180002f61:	41 5d                	pop    %r13
   180002f63:	41 5c                	pop    %r12
   180002f65:	5d                   	pop    %rbp
   180002f66:	c3                   	retq   
   180002f67:	cc                   	int3   
   180002f68:	48 89 5c 24 08       	mov    %rbx,0x8(%rsp)
   180002f6d:	48 89 74 24 10       	mov    %rsi,0x10(%rsp)
   180002f72:	57                   	push   %rdi
   180002f73:	48 81 ec 40 01 00 00 	sub    $0x140,%rsp
   180002f7a:	41 8b c0             	mov    %r8d,%eax
   180002f7d:	48 8b f9             	mov    %rcx,%rdi
   180002f80:	2d 80 00 00 00       	sub    $0x80,%eax
   180002f85:	74 24                	je     0x180002fab
   180002f87:	83 e8 40             	sub    $0x40,%eax
   180002f8a:	74 17                	je     0x180002fa3
   180002f8c:	83 f8 40             	cmp    $0x40,%eax
   180002f8f:	74 0a                	je     0x180002f9b
   180002f91:	b8 e0 ff ff ff       	mov    $0xffffffe0,%eax
   180002f96:	e9 19 01 00 00       	jmpq   0x1800030b4
   180002f9b:	c7 01 0e 00 00 00    	movl   $0xe,(%rcx)
   180002fa1:	eb 0e                	jmp    0x180002fb1
   180002fa3:	c7 01 0c 00 00 00    	movl   $0xc,(%rcx)
   180002fa9:	eb 06                	jmp    0x180002fb1
   180002fab:	c7 01 0a 00 00 00    	movl   $0xa,(%rcx)
   180002fb1:	48 8d 59 10          	lea    0x10(%rcx),%rbx
   180002fb5:	48 89 59 08          	mov    %rbx,0x8(%rcx)
   180002fb9:	48 8d 4c 24 20       	lea    0x20(%rsp),%rcx
   180002fbe:	e8 09 01 00 00       	callq  0x1800030cc
   180002fc3:	85 c0                	test   %eax,%eax
   180002fc5:	0f 85 e9 00 00 00    	jne    0x1800030b4
   180002fcb:	8b 44 24 20          	mov    0x20(%rsp),%eax
   180002fcf:	be 04 00 00 00       	mov    $0x4,%esi
   180002fd4:	c1 e0 02             	shl    $0x2,%eax
   180002fd7:	48 63 c8             	movslq %eax,%rcx
   180002fda:	48 8b 44 24 28       	mov    0x28(%rsp),%rax
   180002fdf:	4c 8d 0c 88          	lea    (%rax,%rcx,4),%r9
   180002fe3:	41 8b 01             	mov    (%r9),%eax
   180002fe6:	4c 03 ce             	add    %rsi,%r9
   180002fe9:	89 03                	mov    %eax,(%rbx)
   180002feb:	41 8b 01             	mov    (%r9),%eax
   180002fee:	48 03 de             	add    %rsi,%rbx
   180002ff1:	89 03                	mov    %eax,(%rbx)
   180002ff3:	4c 03 ce             	add    %rsi,%r9
   180002ff6:	48 03 de             	add    %rsi,%rbx
   180002ff9:	41 8b 01             	mov    (%r9),%eax
   180002ffc:	4c 03 ce             	add    %rsi,%r9
   180002fff:	89 03                	mov    %eax,(%rbx)
   180003001:	41 8b 01             	mov    (%r9),%eax
   180003004:	48 03 de             	add    %rsi,%rbx
   180003007:	89 03                	mov    %eax,(%rbx)
   180003009:	44 8b 17             	mov    (%rdi),%r10d
   18000300c:	48 03 de             	add    %rsi,%rbx
   18000300f:	41 ff ca             	dec    %r10d
   180003012:	49 83 e9 1c          	sub    $0x1c,%r9
   180003016:	45 85 d2             	test   %r10d,%r10d
   180003019:	7e 77                	jle    0x180003092
   18000301b:	48 8d 3d de cf ff ff 	lea    -0x3022(%rip),%rdi        # 0x180000000
   180003022:	4c 8b de             	mov    %rsi,%r11
   180003025:	41 0f b6 01          	movzbl (%r9),%eax
   180003029:	0f b6 94 38 20 50 00 	movzbl 0x5020(%rax,%rdi,1),%edx
   180003030:	00 
   180003031:	41 0f b6 41 03       	movzbl 0x3(%r9),%eax
   180003036:	0f b6 8c 38 20 50 00 	movzbl 0x5020(%rax,%rdi,1),%ecx
   18000303d:	00 
   18000303e:	41 0f b6 41 02       	movzbl 0x2(%r9),%eax
   180003043:	44 8b 84 97 20 62 00 	mov    0x6220(%rdi,%rdx,4),%r8d
   18000304a:	00 
   18000304b:	44 33 84 8f 20 6e 00 	xor    0x6e20(%rdi,%rcx,4),%r8d
   180003052:	00 
   180003053:	0f b6 8c 38 20 50 00 	movzbl 0x5020(%rax,%rdi,1),%ecx
   18000305a:	00 
   18000305b:	41 0f b6 41 01       	movzbl 0x1(%r9),%eax
   180003060:	44 33 84 8f 20 6a 00 	xor    0x6a20(%rdi,%rcx,4),%r8d
   180003067:	00 
   180003068:	0f b6 8c 38 20 50 00 	movzbl 0x5020(%rax,%rdi,1),%ecx
   18000306f:	00 
   180003070:	4c 03 ce             	add    %rsi,%r9
   180003073:	44 33 84 8f 20 66 00 	xor    0x6620(%rdi,%rcx,4),%r8d
   18000307a:	00 
   18000307b:	44 89 03             	mov    %r8d,(%rbx)
   18000307e:	48 03 de             	add    %rsi,%rbx
   180003081:	49 ff cb             	dec    %r11
   180003084:	75 9f                	jne    0x180003025
   180003086:	41 ff ca             	dec    %r10d
   180003089:	49 83 e9 20          	sub    $0x20,%r9
   18000308d:	45 85 d2             	test   %r10d,%r10d
   180003090:	7f 90                	jg     0x180003022
   180003092:	41 8b 01             	mov    (%r9),%eax
   180003095:	4c 03 ce             	add    %rsi,%r9
   180003098:	89 03                	mov    %eax,(%rbx)
   18000309a:	41 8b 01             	mov    (%r9),%eax
   18000309d:	48 03 de             	add    %rsi,%rbx
   1800030a0:	89 03                	mov    %eax,(%rbx)
   1800030a2:	41 8b 04 31          	mov    (%r9,%rsi,1),%eax
   1800030a6:	89 04 33             	mov    %eax,(%rbx,%rsi,1)
   1800030a9:	41 8b 44 31 04       	mov    0x4(%r9,%rsi,1),%eax
   1800030ae:	89 44 33 04          	mov    %eax,0x4(%rbx,%rsi,1)
   1800030b2:	33 c0                	xor    %eax,%eax
   1800030b4:	4c 8d 9c 24 40 01 00 	lea    0x140(%rsp),%r11
   1800030bb:	00 
   1800030bc:	49 8b 5b 10          	mov    0x10(%r11),%rbx
   1800030c0:	49 8b 73 18          	mov    0x18(%r11),%rsi
   1800030c4:	49 8b e3             	mov    %r11,%rsp
   1800030c7:	5f                   	pop    %rdi
   1800030c8:	c3                   	retq   
   1800030c9:	cc                   	int3   
   1800030ca:	cc                   	int3   
   1800030cb:	cc                   	int3   
   1800030cc:	48 89 5c 24 08       	mov    %rbx,0x8(%rsp)
   1800030d1:	48 89 6c 24 10       	mov    %rbp,0x10(%rsp)
   1800030d6:	48 89 74 24 18       	mov    %rsi,0x18(%rsp)
   1800030db:	57                   	push   %rdi
   1800030dc:	48 83 ec 20          	sub    $0x20,%rsp
   1800030e0:	33 ff                	xor    %edi,%edi
   1800030e2:	41 8b f0             	mov    %r8d,%esi
   1800030e5:	48 8b ea             	mov    %rdx,%rbp
   1800030e8:	39 3d 22 1f 00 00    	cmp    %edi,0x1f22(%rip)        # 0x180005010
   1800030ee:	48 8b d9             	mov    %rcx,%rbx
   1800030f1:	75 0f                	jne    0x180003102
   1800030f3:	e8 74 fb ff ff       	callq  0x180002c6c
   1800030f8:	c7 05 0e 1f 00 00 01 	movl   $0x1,0x1f0e(%rip)        # 0x180005010
   1800030ff:	00 00 00 
   180003102:	8b c6                	mov    %esi,%eax
   180003104:	41 b9 0a 00 00 00    	mov    $0xa,%r9d
   18000310a:	2d 80 00 00 00       	sub    $0x80,%eax
   18000310f:	74 23                	je     0x180003134
   180003111:	83 e8 40             	sub    $0x40,%eax
   180003114:	74 16                	je     0x18000312c
   180003116:	83 f8 40             	cmp    $0x40,%eax
   180003119:	74 09                	je     0x180003124
   18000311b:	41 8d 41 d6          	lea    -0x2a(%r9),%eax
   18000311f:	e9 7f 02 00 00       	jmpq   0x1800033a3
   180003124:	c7 03 0e 00 00 00    	movl   $0xe,(%rbx)
   18000312a:	eb 0b                	jmp    0x180003137
   18000312c:	c7 03 0c 00 00 00    	movl   $0xc,(%rbx)
   180003132:	eb 03                	jmp    0x180003137
   180003134:	44 89 0b             	mov    %r9d,(%rbx)
   180003137:	4c 8d 53 10          	lea    0x10(%rbx),%r10
   18000313b:	c1 ee 05             	shr    $0x5,%esi
   18000313e:	4c 89 53 08          	mov    %r10,0x8(%rbx)
   180003142:	85 f6                	test   %esi,%esi
   180003144:	74 3e                	je     0x180003184
   180003146:	4d 8b da             	mov    %r10,%r11
   180003149:	4c 8d 45 02          	lea    0x2(%rbp),%r8
   18000314d:	41 0f b6 00          	movzbl (%r8),%eax
   180003151:	41 0f b6 50 01       	movzbl 0x1(%r8),%edx
   180003156:	4d 8d 40 04          	lea    0x4(%r8),%r8
   18000315a:	c1 e2 08             	shl    $0x8,%edx
   18000315d:	0b d0                	or     %eax,%edx
   18000315f:	41 0f b6 40 fb       	movzbl -0x5(%r8),%eax
   180003164:	c1 e2 08             	shl    $0x8,%edx
   180003167:	0b d0                	or     %eax,%edx
   180003169:	8b c7                	mov    %edi,%eax
   18000316b:	ff c7                	inc    %edi
   18000316d:	c1 e0 02             	shl    $0x2,%eax
   180003170:	c1 e2 08             	shl    $0x8,%edx
   180003173:	0f b6 04 28          	movzbl (%rax,%rbp,1),%eax
   180003177:	0b d0                	or     %eax,%edx
   180003179:	41 89 13             	mov    %edx,(%r11)
   18000317c:	4d 8d 5b 04          	lea    0x4(%r11),%r11
   180003180:	3b fe                	cmp    %esi,%edi
   180003182:	72 c9                	jb     0x18000314d
   180003184:	44 39 0b             	cmp    %r9d,(%rbx)
   180003187:	0f 84 96 01 00 00    	je     0x180003323
   18000318d:	83 3b 0c             	cmpl   $0xc,(%rbx)
   180003190:	0f 84 ef 00 00 00    	je     0x180003285
   180003196:	83 3b 0e             	cmpl   $0xe,(%rbx)
   180003199:	0f 85 02 02 00 00    	jne    0x1800033a1
   18000319f:	48 8d 1d 7a 40 00 00 	lea    0x407a(%rip),%rbx        # 0x180007220
   1800031a6:	bf 07 00 00 00       	mov    $0x7,%edi
   1800031ab:	4c 8d 1d 6e 1e 00 00 	lea    0x1e6e(%rip),%r11        # 0x180005020
   1800031b2:	41 0f b6 42 1c       	movzbl 0x1c(%r10),%eax
   1800031b7:	42 0f b6 14 18       	movzbl (%rax,%r11,1),%edx
   1800031bc:	41 0f b6 42 1f       	movzbl 0x1f(%r10),%eax
   1800031c1:	42 0f b6 0c 18       	movzbl (%rax,%r11,1),%ecx
   1800031c6:	41 0f b6 42 1e       	movzbl 0x1e(%r10),%eax
   1800031cb:	c1 e2 08             	shl    $0x8,%edx
   1800031ce:	33 d1                	xor    %ecx,%edx
   1800031d0:	42 0f b6 0c 18       	movzbl (%rax,%r11,1),%ecx
   1800031d5:	41 0f b6 42 1d       	movzbl 0x1d(%r10),%eax
   1800031da:	c1 e2 08             	shl    $0x8,%edx
   1800031dd:	33 d1                	xor    %ecx,%edx
   1800031df:	42 0f b6 0c 18       	movzbl (%rax,%r11,1),%ecx
   1800031e4:	41 8b 42 04          	mov    0x4(%r10),%eax
   1800031e8:	c1 e2 08             	shl    $0x8,%edx
   1800031eb:	33 d1                	xor    %ecx,%edx
   1800031ed:	41 8b 4a 08          	mov    0x8(%r10),%ecx
   1800031f1:	33 13                	xor    (%rbx),%edx
   1800031f3:	48 8d 5b 04          	lea    0x4(%rbx),%rbx
   1800031f7:	41 33 12             	xor    (%r10),%edx
   1800031fa:	4d 8d 52 20          	lea    0x20(%r10),%r10
   1800031fe:	33 c2                	xor    %edx,%eax
   180003200:	41 89 12             	mov    %edx,(%r10)
   180003203:	41 8b 52 ec          	mov    -0x14(%r10),%edx
   180003207:	33 c8                	xor    %eax,%ecx
   180003209:	41 89 42 04          	mov    %eax,0x4(%r10)
   18000320d:	33 d1                	xor    %ecx,%edx
   18000320f:	41 89 4a 08          	mov    %ecx,0x8(%r10)
   180003213:	41 89 52 0c          	mov    %edx,0xc(%r10)
   180003217:	41 0f b6 42 0f       	movzbl 0xf(%r10),%eax
   18000321c:	46 0f b6 04 18       	movzbl (%rax,%r11,1),%r8d
   180003221:	41 0f b6 42 0e       	movzbl 0xe(%r10),%eax
   180003226:	42 0f b6 0c 18       	movzbl (%rax,%r11,1),%ecx
   18000322b:	41 0f b6 42 0d       	movzbl 0xd(%r10),%eax
   180003230:	41 c1 e0 08          	shl    $0x8,%r8d
   180003234:	44 33 c1             	xor    %ecx,%r8d
   180003237:	42 0f b6 0c 18       	movzbl (%rax,%r11,1),%ecx
   18000323c:	0f b6 c2             	movzbl %dl,%eax
   18000323f:	41 c1 e0 08          	shl    $0x8,%r8d
   180003243:	44 33 c1             	xor    %ecx,%r8d
   180003246:	42 0f b6 0c 18       	movzbl (%rax,%r11,1),%ecx
   18000324b:	41 8b 42 f4          	mov    -0xc(%r10),%eax
   18000324f:	41 c1 e0 08          	shl    $0x8,%r8d
   180003253:	44 33 c1             	xor    %ecx,%r8d
   180003256:	41 8b 4a f8          	mov    -0x8(%r10),%ecx
   18000325a:	45 33 42 f0          	xor    -0x10(%r10),%r8d
   18000325e:	41 33 c0             	xor    %r8d,%eax
   180003261:	45 89 42 10          	mov    %r8d,0x10(%r10)
   180003265:	33 c8                	xor    %eax,%ecx
   180003267:	41 89 42 14          	mov    %eax,0x14(%r10)
   18000326b:	41 89 4a 18          	mov    %ecx,0x18(%r10)
   18000326f:	41 33 4a fc          	xor    -0x4(%r10),%ecx
   180003273:	41 89 4a 1c          	mov    %ecx,0x1c(%r10)
   180003277:	48 ff cf             	dec    %rdi
   18000327a:	0f 85 32 ff ff ff    	jne    0x1800031b2
   180003280:	e9 1c 01 00 00       	jmpq   0x1800033a1
   180003285:	48 8d 1d 94 3f 00 00 	lea    0x3f94(%rip),%rbx        # 0x180007220
   18000328c:	41 b9 08 00 00 00    	mov    $0x8,%r9d
   180003292:	4c 8d 1d 87 1d 00 00 	lea    0x1d87(%rip),%r11        # 0x180005020
   180003299:	41 0f b6 42 14       	movzbl 0x14(%r10),%eax
   18000329e:	46 0f b6 04 18       	movzbl (%rax,%r11,1),%r8d
   1800032a3:	41 0f b6 42 17       	movzbl 0x17(%r10),%eax
   1800032a8:	42 0f b6 0c 18       	movzbl (%rax,%r11,1),%ecx
   1800032ad:	41 0f b6 42 16       	movzbl 0x16(%r10),%eax
   1800032b2:	41 c1 e0 08          	shl    $0x8,%r8d
   1800032b6:	44 33 c1             	xor    %ecx,%r8d
   1800032b9:	42 0f b6 0c 18       	movzbl (%rax,%r11,1),%ecx
   1800032be:	41 0f b6 42 15       	movzbl 0x15(%r10),%eax
   1800032c3:	41 c1 e0 08          	shl    $0x8,%r8d
   1800032c7:	44 33 c1             	xor    %ecx,%r8d
   1800032ca:	42 0f b6 0c 18       	movzbl (%rax,%r11,1),%ecx
   1800032cf:	41 8b 42 04          	mov    0x4(%r10),%eax
   1800032d3:	41 c1 e0 08          	shl    $0x8,%r8d
   1800032d7:	44 33 c1             	xor    %ecx,%r8d
   1800032da:	41 8b 4a 08          	mov    0x8(%r10),%ecx
   1800032de:	45 33 02             	xor    (%r10),%r8d
   1800032e1:	4d 8d 52 18          	lea    0x18(%r10),%r10
   1800032e5:	44 33 03             	xor    (%rbx),%r8d
   1800032e8:	48 8d 5b 04          	lea    0x4(%rbx),%rbx
   1800032ec:	41 33 c0             	xor    %r8d,%eax
   1800032ef:	45 89 02             	mov    %r8d,(%r10)
   1800032f2:	33 c8                	xor    %eax,%ecx
   1800032f4:	41 89 42 04          	mov    %eax,0x4(%r10)
   1800032f8:	41 8b 42 f4          	mov    -0xc(%r10),%eax
   1800032fc:	33 c1                	xor    %ecx,%eax
   1800032fe:	41 89 4a 08          	mov    %ecx,0x8(%r10)
   180003302:	41 8b 4a f8          	mov    -0x8(%r10),%ecx
   180003306:	33 c8                	xor    %eax,%ecx
   180003308:	41 89 42 0c          	mov    %eax,0xc(%r10)
   18000330c:	41 89 4a 10          	mov    %ecx,0x10(%r10)
   180003310:	41 33 4a fc          	xor    -0x4(%r10),%ecx
   180003314:	41 89 4a 14          	mov    %ecx,0x14(%r10)
   180003318:	49 ff c9             	dec    %r9
   18000331b:	0f 85 78 ff ff ff    	jne    0x180003299
   180003321:	eb 7e                	jmp    0x1800033a1
   180003323:	48 8d 1d f6 3e 00 00 	lea    0x3ef6(%rip),%rbx        # 0x180007220
   18000332a:	4c 8d 1d ef 1c 00 00 	lea    0x1cef(%rip),%r11        # 0x180005020
   180003331:	41 0f b6 42 0c       	movzbl 0xc(%r10),%eax
   180003336:	46 0f b6 04 18       	movzbl (%rax,%r11,1),%r8d
   18000333b:	41 0f b6 42 0f       	movzbl 0xf(%r10),%eax
   180003340:	42 0f b6 0c 18       	movzbl (%rax,%r11,1),%ecx
   180003345:	41 0f b6 42 0e       	movzbl 0xe(%r10),%eax
   18000334a:	41 c1 e0 08          	shl    $0x8,%r8d
   18000334e:	44 33 c1             	xor    %ecx,%r8d
   180003351:	42 0f b6 0c 18       	movzbl (%rax,%r11,1),%ecx
   180003356:	41 0f b6 42 0d       	movzbl 0xd(%r10),%eax
   18000335b:	41 c1 e0 08          	shl    $0x8,%r8d
   18000335f:	44 33 c1             	xor    %ecx,%r8d
   180003362:	42 0f b6 0c 18       	movzbl (%rax,%r11,1),%ecx
   180003367:	41 8b 42 04          	mov    0x4(%r10),%eax
   18000336b:	41 c1 e0 08          	shl    $0x8,%r8d
   18000336f:	44 33 c1             	xor    %ecx,%r8d
   180003372:	41 8b 4a 08          	mov    0x8(%r10),%ecx
   180003376:	45 33 02             	xor    (%r10),%r8d
   180003379:	4d 8d 52 10          	lea    0x10(%r10),%r10
   18000337d:	44 33 03             	xor    (%rbx),%r8d
   180003380:	48 8d 5b 04          	lea    0x4(%rbx),%rbx
   180003384:	41 33 c0             	xor    %r8d,%eax
   180003387:	45 89 02             	mov    %r8d,(%r10)
   18000338a:	33 c8                	xor    %eax,%ecx
   18000338c:	41 89 42 04          	mov    %eax,0x4(%r10)
   180003390:	41 89 4a 08          	mov    %ecx,0x8(%r10)
   180003394:	41 33 4a fc          	xor    -0x4(%r10),%ecx
   180003398:	41 89 4a 0c          	mov    %ecx,0xc(%r10)
   18000339c:	49 ff c9             	dec    %r9
   18000339f:	75 90                	jne    0x180003331
   1800033a1:	33 c0                	xor    %eax,%eax
   1800033a3:	48 8b 5c 24 30       	mov    0x30(%rsp),%rbx
   1800033a8:	48 8b 6c 24 38       	mov    0x38(%rsp),%rbp
   1800033ad:	48 8b 74 24 40       	mov    0x40(%rsp),%rsi
   1800033b2:	48 83 c4 20          	add    $0x20,%rsp
   1800033b6:	5f                   	pop    %rdi
   1800033b7:	c3                   	retq   
   1800033b8:	48 8b c4             	mov    %rsp,%rax
   1800033bb:	48 89 58 08          	mov    %rbx,0x8(%rax)
   1800033bf:	48 89 70 10          	mov    %rsi,0x10(%rax)
   1800033c3:	48 89 78 18          	mov    %rdi,0x18(%rax)
   1800033c7:	4c 89 70 20          	mov    %r14,0x20(%rax)
   1800033cb:	41 57                	push   %r15
   1800033cd:	48 81 ec 60 01 00 00 	sub    $0x160,%rsp
   1800033d4:	4d 8b f9             	mov    %r9,%r15
   1800033d7:	4d 8b f0             	mov    %r8,%r14
   1800033da:	8b fa                	mov    %edx,%edi
   1800033dc:	48 8b d9             	mov    %rcx,%rbx
   1800033df:	81 fa c8 00 00 00    	cmp    $0xc8,%edx
   1800033e5:	73 07                	jae    0x1800033ee
   1800033e7:	33 c0                	xor    %eax,%eax
   1800033e9:	e9 ab 00 00 00       	jmpq   0x180003499
   1800033ee:	48 8d 15 0b 1c 00 00 	lea    0x1c0b(%rip),%rdx        # 0x180005000
   1800033f5:	41 b8 10 00 00 00    	mov    $0x10,%r8d
   1800033fb:	48 2b d1             	sub    %rcx,%rdx
   1800033fe:	8a 04 0a             	mov    (%rdx,%rcx,1),%al
   180003401:	30 01                	xor    %al,(%rcx)
   180003403:	48 ff c1             	inc    %rcx
   180003406:	49 ff c8             	dec    %r8
   180003409:	75 f3                	jne    0x1800033fe
   18000340b:	48 8d 4c 24 40       	lea    0x40(%rsp),%rcx
   180003410:	41 b8 00 01 00 00    	mov    $0x100,%r8d
   180003416:	48 8b d3             	mov    %rbx,%rdx
   180003419:	e8 4a fb ff ff       	callq  0x180002f68
   18000341e:	85 c0                	test   %eax,%eax
   180003420:	75 c5                	jne    0x1800033e7
   180003422:	48 83 c3 20          	add    $0x20,%rbx
   180003426:	83 c7 e0             	add    $0xffffffe0,%edi
   180003429:	49 89 1e             	mov    %rbx,(%r14)
   18000342c:	41 89 3f             	mov    %edi,(%r15)
   18000342f:	40 f6 c7 0f          	test   $0xf,%dil
   180003433:	75 b2                	jne    0x1800033e7
   180003435:	48 8d 4c 24 30       	lea    0x30(%rsp),%rcx
   18000343a:	88 01                	mov    %al,(%rcx)
   18000343c:	fe c0                	inc    %al
   18000343e:	48 ff c1             	inc    %rcx
   180003441:	3c 10                	cmp    $0x10,%al
   180003443:	72 f5                	jb     0x18000343a
   180003445:	33 f6                	xor    %esi,%esi
   180003447:	85 ff                	test   %edi,%edi
   180003449:	74 32                	je     0x18000347d
   18000344b:	33 d2                	xor    %edx,%edx
   18000344d:	4c 8d 4c 24 30       	lea    0x30(%rsp),%r9
   180003452:	48 8d 4c 24 40       	lea    0x40(%rsp),%rcx
   180003457:	44 8d 42 10          	lea    0x10(%rdx),%r8d
   18000345b:	48 89 5c 24 28       	mov    %rbx,0x28(%rsp)
   180003460:	48 89 5c 24 20       	mov    %rbx,0x20(%rsp)
   180003465:	e8 16 ec ff ff       	callq  0x180002080
   18000346a:	85 c0                	test   %eax,%eax
   18000346c:	0f 85 75 ff ff ff    	jne    0x1800033e7
   180003472:	83 c6 10             	add    $0x10,%esi
   180003475:	48 83 c3 10          	add    $0x10,%rbx
   180003479:	3b f7                	cmp    %edi,%esi
   18000347b:	72 ce                	jb     0x18000344b
   18000347d:	49 8b 0e             	mov    (%r14),%rcx
   180003480:	83 39 00             	cmpl   $0x0,(%rcx)
   180003483:	0f 85 5e ff ff ff    	jne    0x1800033e7
   180003489:	48 83 c1 04          	add    $0x4,%rcx
   18000348d:	b8 01 00 00 00       	mov    $0x1,%eax
   180003492:	49 89 0e             	mov    %rcx,(%r14)
   180003495:	41 83 07 fc          	addl   $0xfffffffc,(%r15)
   180003499:	4c 8d 9c 24 60 01 00 	lea    0x160(%rsp),%r11
   1800034a0:	00 
   1800034a1:	49 8b 5b 10          	mov    0x10(%r11),%rbx
   1800034a5:	49 8b 73 18          	mov    0x18(%r11),%rsi
   1800034a9:	49 8b 7b 20          	mov    0x20(%r11),%rdi
   1800034ad:	4d 8b 73 28          	mov    0x28(%r11),%r14
   1800034b1:	49 8b e3             	mov    %r11,%rsp
   1800034b4:	41 5f                	pop    %r15
   1800034b6:	c3                   	retq   
   1800034b7:	cc                   	int3   
   1800034b8:	48 89 5c 24 08       	mov    %rbx,0x8(%rsp)
   1800034bd:	48 89 74 24 10       	mov    %rsi,0x10(%rsp)
   1800034c2:	55                   	push   %rbp
   1800034c3:	57                   	push   %rdi
   1800034c4:	41 56                	push   %r14
   1800034c6:	48 8d ac 24 b0 f8 ff 	lea    -0x750(%rsp),%rbp
   1800034cd:	ff 
   1800034ce:	48 81 ec 50 08 00 00 	sub    $0x850,%rsp
   1800034d5:	83 a5 80 07 00 00 00 	andl   $0x0,0x780(%rbp)
   1800034dc:	83 a5 88 07 00 00 00 	andl   $0x0,0x788(%rbp)
   1800034e3:	44 8b f1             	mov    %ecx,%r14d
   1800034e6:	44 8b c2             	mov    %edx,%r8d
   1800034e9:	33 f6                	xor    %esi,%esi
   1800034eb:	48 8d 4c 24 50       	lea    0x50(%rsp),%rcx
   1800034f0:	21 74 24 30          	and    %esi,0x30(%rsp)
   1800034f4:	21 74 24 38          	and    %esi,0x38(%rsp)
   1800034f8:	48 8d 15 a1 0d 00 00 	lea    0xda1(%rip),%rdx        # 0x1800042a0
   1800034ff:	33 db                	xor    %ebx,%ebx
   180003501:	33 ff                	xor    %edi,%edi
   180003503:	21 5c 24 34          	and    %ebx,0x34(%rsp)
   180003507:	ff 15 63 0b 00 00    	callq  *0xb63(%rip)        # 0x180004070
   18000350d:	4c 8d 85 80 07 00 00 	lea    0x780(%rbp),%r8
   180003514:	48 8d 15 f5 0d 00 00 	lea    0xdf5(%rip),%rdx        # 0x180004310
   18000351b:	41 8b ce             	mov    %r14d,%ecx
   18000351e:	e8 cf 01 00 00       	callq  0x1800036f2
   180003523:	85 c0                	test   %eax,%eax
   180003525:	0f 85 27 01 00 00    	jne    0x180003652
   18000352b:	33 c9                	xor    %ecx,%ecx
   18000352d:	ff 15 ed 0a 00 00    	callq  *0xaed(%rip)        # 0x180004020
   180003533:	4c 8d 85 88 07 00 00 	lea    0x788(%rbp),%r8
   18000353a:	48 8d 54 24 50       	lea    0x50(%rsp),%rdx
   18000353f:	41 8b ce             	mov    %r14d,%ecx
   180003542:	e8 99 01 00 00       	callq  0x1800036e0
   180003547:	85 c0                	test   %eax,%eax
   180003549:	0f 85 03 01 00 00    	jne    0x180003652
   18000354f:	8b 8d 88 07 00 00    	mov    0x788(%rbp),%ecx
   180003555:	33 d2                	xor    %edx,%edx
   180003557:	e8 8a 01 00 00       	callq  0x1800036e6
   18000355c:	85 c0                	test   %eax,%eax
   18000355e:	0f 85 ee 00 00 00    	jne    0x180003652
   180003564:	8b 8d 80 07 00 00    	mov    0x780(%rbp),%ecx
   18000356a:	e8 6b 01 00 00       	callq  0x1800036da
   18000356f:	8b 8d 88 07 00 00    	mov    0x788(%rbp),%ecx
   180003575:	21 9d 80 07 00 00    	and    %ebx,0x780(%rbp)
   18000357b:	48 8d 95 80 07 00 00 	lea    0x780(%rbp),%rdx
   180003582:	e8 65 01 00 00       	callq  0x1800036ec
   180003587:	85 c0                	test   %eax,%eax
   180003589:	0f 85 c3 00 00 00    	jne    0x180003652
   18000358f:	8b 8d 80 07 00 00    	mov    0x780(%rbp),%ecx
   180003595:	44 8d 76 01          	lea    0x1(%rsi),%r14d
   180003599:	41 8b d6             	mov    %r14d,%edx
   18000359c:	e8 63 01 00 00       	callq  0x180003704
   1800035a1:	89 44 24 30          	mov    %eax,0x30(%rsp)
   1800035a5:	85 c0                	test   %eax,%eax
   1800035a7:	0f 84 a5 00 00 00    	je     0x180003652
   1800035ad:	44 8d 4e 40          	lea    0x40(%rsi),%r9d
   1800035b1:	8b d0                	mov    %eax,%edx
   1800035b3:	33 c9                	xor    %ecx,%ecx
   1800035b5:	41 b8 00 30 00 00    	mov    $0x3000,%r8d
   1800035bb:	ff 15 6f 0a 00 00    	callq  *0xa6f(%rip)        # 0x180004030
   1800035c1:	48 8b d8             	mov    %rax,%rbx
   1800035c4:	48 85 c0             	test   %rax,%rax
   1800035c7:	0f 84 85 00 00 00    	je     0x180003652
   1800035cd:	8b 8d 80 07 00 00    	mov    0x780(%rbp),%ecx
   1800035d3:	4c 8d 4c 24 30       	lea    0x30(%rsp),%r9
   1800035d8:	4c 8b c0             	mov    %rax,%r8
   1800035db:	41 8b d6             	mov    %r14d,%edx
   1800035de:	e8 33 01 00 00       	callq  0x180003716
   1800035e3:	85 c0                	test   %eax,%eax
   1800035e5:	75 6b                	jne    0x180003652
   1800035e7:	8b 54 24 30          	mov    0x30(%rsp),%edx
   1800035eb:	4c 8d 4c 24 38       	lea    0x38(%rsp),%r9
   1800035f0:	4c 8d 44 24 40       	lea    0x40(%rsp),%r8
   1800035f5:	48 8b cb             	mov    %rbx,%rcx
   1800035f8:	e8 bb fd ff ff       	callq  0x1800033b8
   1800035fd:	85 c0                	test   %eax,%eax
   1800035ff:	74 51                	je     0x180003652
   180003601:	4c 8b 4c 24 40       	mov    0x40(%rsp),%r9
   180003606:	48 8d 44 24 34       	lea    0x34(%rsp),%rax
   18000360b:	4c 8d 05 b2 00 00 00 	lea    0xb2(%rip),%r8        # 0x1800036c4
   180003612:	48 89 44 24 28       	mov    %rax,0x28(%rsp)
   180003617:	21 74 24 20          	and    %esi,0x20(%rsp)
   18000361b:	33 d2                	xor    %edx,%edx
   18000361d:	33 c9                	xor    %ecx,%ecx
   18000361f:	ff 15 1b 0a 00 00    	callq  *0xa1b(%rip)        # 0x180004040
   180003625:	48 8b f8             	mov    %rax,%rdi
   180003628:	48 85 c0             	test   %rax,%rax
   18000362b:	74 25                	je     0x180003652
   18000362d:	ba c0 d4 01 00       	mov    $0x1d4c0,%edx
   180003632:	48 8b c8             	mov    %rax,%rcx
   180003635:	ff 15 ed 09 00 00    	callq  *0x9ed(%rip)        # 0x180004028
   18000363b:	85 c0                	test   %eax,%eax
   18000363d:	74 0e                	je     0x18000364d
   18000363f:	83 ca ff             	or     $0xffffffff,%edx
   180003642:	48 8b cf             	mov    %rdi,%rcx
   180003645:	ff 15 ed 09 00 00    	callq  *0x9ed(%rip)        # 0x180004038
   18000364b:	eb 12                	jmp    0x18000365f
   18000364d:	41 8b f6             	mov    %r14d,%esi
   180003650:	eb 0d                	jmp    0x18000365f
   180003652:	ff 15 a8 09 00 00    	callq  *0x9a8(%rip)        # 0x180004000
   180003658:	3d ca 32 00 00       	cmp    $0x32ca,%eax
   18000365d:	75 09                	jne    0x180003668
   18000365f:	48 8b cf             	mov    %rdi,%rcx
   180003662:	ff 15 b0 09 00 00    	callq  *0x9b0(%rip)        # 0x180004018
   180003668:	ff 15 92 09 00 00    	callq  *0x992(%rip)        # 0x180004000
   18000366e:	3d b5 06 00 00       	cmp    $0x6b5,%eax
   180003673:	74 0f                	je     0x180003684
   180003675:	8b 8d 80 07 00 00    	mov    0x780(%rbp),%ecx
   18000367b:	85 c9                	test   %ecx,%ecx
   18000367d:	74 05                	je     0x180003684
   18000367f:	e8 56 00 00 00       	callq  0x1800036da
   180003684:	8b 8d 88 07 00 00    	mov    0x788(%rbp),%ecx
   18000368a:	85 c9                	test   %ecx,%ecx
   18000368c:	74 05                	je     0x180003693
   18000368e:	e8 47 00 00 00       	callq  0x1800036da
   180003693:	48 85 db             	test   %rbx,%rbx
   180003696:	74 11                	je     0x1800036a9
   180003698:	33 d2                	xor    %edx,%edx
   18000369a:	41 b8 00 80 00 00    	mov    $0x8000,%r8d
   1800036a0:	48 8b cb             	mov    %rbx,%rcx
   1800036a3:	ff 15 b7 09 00 00    	callq  *0x9b7(%rip)        # 0x180004060
   1800036a9:	4c 8d 9c 24 50 08 00 	lea    0x850(%rsp),%r11
   1800036b0:	00 
   1800036b1:	8b c6                	mov    %esi,%eax
   1800036b3:	49 8b 5b 20          	mov    0x20(%r11),%rbx
   1800036b7:	49 8b 73 28          	mov    0x28(%r11),%rsi
   1800036bb:	49 8b e3             	mov    %r11,%rsp
   1800036be:	41 5e                	pop    %r14
   1800036c0:	5f                   	pop    %rdi
   1800036c1:	5d                   	pop    %rbp
   1800036c2:	c3                   	retq   
   1800036c3:	cc                   	int3   
   1800036c4:	48 83 ec 28          	sub    $0x28,%rsp
   1800036c8:	ff d1                	callq  *%rcx
   1800036ca:	90                   	nop
   1800036cb:	33 c0                	xor    %eax,%eax
   1800036cd:	eb 05                	jmp    0x1800036d4
   1800036cf:	b8 fe ff ff ff       	mov    $0xfffffffe,%eax
   1800036d4:	48 83 c4 28          	add    $0x28,%rsp
   1800036d8:	c3                   	retq   
   1800036d9:	cc                   	int3   
   1800036da:	ff 25 18 0a 00 00    	jmpq   *0xa18(%rip)        # 0x1800040f8
   1800036e0:	ff 25 0a 0a 00 00    	jmpq   *0xa0a(%rip)        # 0x1800040f0
   1800036e6:	ff 25 fc 09 00 00    	jmpq   *0x9fc(%rip)        # 0x1800040e8
   1800036ec:	ff 25 ee 09 00 00    	jmpq   *0x9ee(%rip)        # 0x1800040e0
   1800036f2:	ff 25 e0 09 00 00    	jmpq   *0x9e0(%rip)        # 0x1800040d8
   1800036f8:	ff 25 d2 09 00 00    	jmpq   *0x9d2(%rip)        # 0x1800040d0
   1800036fe:	ff 25 c4 09 00 00    	jmpq   *0x9c4(%rip)        # 0x1800040c8
   180003704:	ff 25 b6 09 00 00    	jmpq   *0x9b6(%rip)        # 0x1800040c0
   18000370a:	ff 25 a8 09 00 00    	jmpq   *0x9a8(%rip)        # 0x1800040b8
   180003710:	ff 25 9a 09 00 00    	jmpq   *0x99a(%rip)        # 0x1800040b0
   180003716:	ff 25 8c 09 00 00    	jmpq   *0x98c(%rip)        # 0x1800040a8
   18000371c:	ff 25 7e 09 00 00    	jmpq   *0x97e(%rip)        # 0x1800040a0
   180003722:	ff 25 70 09 00 00    	jmpq   *0x970(%rip)        # 0x180004098
   180003728:	ff 25 62 09 00 00    	jmpq   *0x962(%rip)        # 0x180004090
   18000372e:	ff 25 54 09 00 00    	jmpq   *0x954(%rip)        # 0x180004088
   180003734:	ff 25 46 09 00 00    	jmpq   *0x946(%rip)        # 0x180004080
   18000373a:	ff 25 d0 08 00 00    	jmpq   *0x8d0(%rip)        # 0x180004010
