
6de1bb58ae3c37876c6372208366f5548fcc647ffd19ad1d31cebd9069b8a559:     file format pei-x86-64


Disassembly of section .text:

0000000180001000 <.text>:
   180001000:	cc                   	int3   
   180001001:	cc                   	int3   
   180001002:	cc                   	int3   
   180001003:	cc                   	int3   
   180001004:	cc                   	int3   
   180001005:	cc                   	int3   
   180001006:	66 66 0f 1f 84 00 00 	data16 nopw 0x0(%rax,%rax,1)
   18000100d:	00 00 00 
   180001010:	48 3b 0d f1 5f 00 00 	cmp    0x5ff1(%rip),%rcx        # 0x180007008
   180001017:	75 12                	jne    0x18000102b
   180001019:	48 c1 c1 10          	rol    $0x10,%rcx
   18000101d:	66 f7 c1 ff ff       	test   $0xffff,%cx
   180001022:	75 03                	jne    0x180001027
   180001024:	c2 00 00             	retq   $0x0
   180001027:	48 c1 c9 10          	ror    $0x10,%rcx
   18000102b:	e9 38 04 00 00       	jmpq   0x180001468
   180001030:	48 83 ec 28          	sub    $0x28,%rsp
   180001034:	b9 00 01 00 00       	mov    $0x100,%ecx
   180001039:	ff 15 29 50 00 00    	callq  *0x5029(%rip)        # 0x180006068
   18000103f:	48 89 05 82 71 00 00 	mov    %rax,0x7182(%rip)        # 0x1800081c8
   180001046:	48 89 05 73 71 00 00 	mov    %rax,0x7173(%rip)        # 0x1800081c0
   18000104d:	48 85 c0             	test   %rax,%rax
   180001050:	75 07                	jne    0x180001059
   180001052:	b8 01 00 00 00       	mov    $0x1,%eax
   180001057:	eb 06                	jmp    0x18000105f
   180001059:	48 83 20 00          	andq   $0x0,(%rax)
   18000105d:	33 c0                	xor    %eax,%eax
   18000105f:	48 83 c4 28          	add    $0x28,%rsp
   180001063:	c3                   	retq   
   180001064:	48 89 5c 24 08       	mov    %rbx,0x8(%rsp)
   180001069:	48 89 6c 24 10       	mov    %rbp,0x10(%rsp)
   18000106e:	56                   	push   %rsi
   18000106f:	57                   	push   %rdi
   180001070:	41 54                	push   %r12
   180001072:	41 55                	push   %r13
   180001074:	41 56                	push   %r14
   180001076:	48 83 ec 20          	sub    $0x20,%rsp
   18000107a:	33 db                	xor    %ebx,%ebx
   18000107c:	4d 8b e0             	mov    %r8,%r12
   18000107f:	4c 8b e9             	mov    %rcx,%r13
   180001082:	3b d3                	cmp    %ebx,%edx
   180001084:	0f 85 a9 00 00 00    	jne    0x180001133
   18000108a:	8b 05 44 69 00 00    	mov    0x6944(%rip),%eax        # 0x1800079d4
   180001090:	3b c3                	cmp    %ebx,%eax
   180001092:	0f 8e 94 00 00 00    	jle    0x18000112c
   180001098:	8d 7b 01             	lea    0x1(%rbx),%edi
   18000109b:	2b c7                	sub    %edi,%eax
   18000109d:	89 05 31 69 00 00    	mov    %eax,0x6931(%rip)        # 0x1800079d4
   1800010a3:	eb 0b                	jmp    0x1800010b0
   1800010a5:	b9 e8 03 00 00       	mov    $0x3e8,%ecx
   1800010aa:	ff 15 96 62 00 00    	callq  *0x6296(%rip)        # 0x180007346
   1800010b0:	33 c0                	xor    %eax,%eax
   1800010b2:	f0 48 0f b1 3d ed 70 	lock cmpxchg %rdi,0x70ed(%rip)        # 0x1800081a8
   1800010b9:	00 00 
   1800010bb:	75 e8                	jne    0x1800010a5
   1800010bd:	8b 05 dd 70 00 00    	mov    0x70dd(%rip),%eax        # 0x1800081a0
   1800010c3:	83 f8 02             	cmp    $0x2,%eax
   1800010c6:	74 0f                	je     0x1800010d7
   1800010c8:	b9 1f 00 00 00       	mov    $0x1f,%ecx
   1800010cd:	e8 08 40 00 00       	callq  0x1800050da
   1800010d2:	e9 46 01 00 00       	jmpq   0x18000121d
   1800010d7:	48 8b 2d ea 70 00 00 	mov    0x70ea(%rip),%rbp        # 0x1800081c8
   1800010de:	48 3b eb             	cmp    %rbx,%rbp
   1800010e1:	74 37                	je     0x18000111a
   1800010e3:	48 8b 35 d6 70 00 00 	mov    0x70d6(%rip),%rsi        # 0x1800081c0
   1800010ea:	48 83 c6 f8          	add    $0xfffffffffffffff8,%rsi
   1800010ee:	eb 0e                	jmp    0x1800010fe
   1800010f0:	48 8b 06             	mov    (%rsi),%rax
   1800010f3:	48 3b c3             	cmp    %rbx,%rax
   1800010f6:	74 02                	je     0x1800010fa
   1800010f8:	ff d0                	callq  *%rax
   1800010fa:	48 83 ee 08          	sub    $0x8,%rsi
   1800010fe:	48 3b f5             	cmp    %rbp,%rsi
   180001101:	73 ed                	jae    0x1800010f0
   180001103:	48 8b cd             	mov    %rbp,%rcx
   180001106:	ff 15 84 4f 00 00    	callq  *0x4f84(%rip)        # 0x180006090
   18000110c:	48 89 1d ad 70 00 00 	mov    %rbx,0x70ad(%rip)        # 0x1800081c0
   180001113:	48 89 1d ae 70 00 00 	mov    %rbx,0x70ae(%rip)        # 0x1800081c8
   18000111a:	89 1d 80 70 00 00    	mov    %ebx,0x7080(%rip)        # 0x1800081a0
   180001120:	48 87 1d 81 70 00 00 	xchg   %rbx,0x7081(%rip)        # 0x1800081a8
   180001127:	e9 f1 00 00 00       	jmpq   0x18000121d
   18000112c:	33 c0                	xor    %eax,%eax
   18000112e:	e9 ec 00 00 00       	jmpq   0x18000121f
   180001133:	bf 01 00 00 00       	mov    $0x1,%edi
   180001138:	3b d7                	cmp    %edi,%edx
   18000113a:	0f 85 dd 00 00 00    	jne    0x18000121d
   180001140:	65 48 8b 04 25 30 00 	mov    %gs:0x30,%rax
   180001147:	00 00 
   180001149:	8b eb                	mov    %ebx,%ebp
   18000114b:	48 8b 70 08          	mov    0x8(%rax),%rsi
   18000114f:	eb 10                	jmp    0x180001161
   180001151:	48 3b c6             	cmp    %rsi,%rax
   180001154:	74 1a                	je     0x180001170
   180001156:	b9 e8 03 00 00       	mov    $0x3e8,%ecx
   18000115b:	ff 15 e5 61 00 00    	callq  *0x61e5(%rip)        # 0x180007346
   180001161:	33 c0                	xor    %eax,%eax
   180001163:	f0 48 0f b1 35 3c 70 	lock cmpxchg %rsi,0x703c(%rip)        # 0x1800081a8
   18000116a:	00 00 
   18000116c:	75 e3                	jne    0x180001151
   18000116e:	eb 02                	jmp    0x180001172
   180001170:	8b ef                	mov    %edi,%ebp
   180001172:	8b 05 28 70 00 00    	mov    0x7028(%rip),%eax        # 0x1800081a0
   180001178:	3b c3                	cmp    %ebx,%eax
   18000117a:	74 0c                	je     0x180001188
   18000117c:	b9 1f 00 00 00       	mov    $0x1f,%ecx
   180001181:	e8 54 3f 00 00       	callq  0x1800050da
   180001186:	eb 57                	jmp    0x1800011df
   180001188:	48 8d 35 21 4f 00 00 	lea    0x4f21(%rip),%rsi        # 0x1800060b0
   18000118f:	4c 8d 35 2a 4f 00 00 	lea    0x4f2a(%rip),%r14        # 0x1800060c0
   180001196:	89 3d 04 70 00 00    	mov    %edi,0x7004(%rip)        # 0x1800081a0
   18000119c:	8b c3                	mov    %ebx,%eax
   18000119e:	49 3b f6             	cmp    %r14,%rsi
   1800011a1:	73 1f                	jae    0x1800011c2
   1800011a3:	3b c3                	cmp    %ebx,%eax
   1800011a5:	75 85                	jne    0x18000112c
   1800011a7:	48 8b 0e             	mov    (%rsi),%rcx
   1800011aa:	48 3b cb             	cmp    %rbx,%rcx
   1800011ad:	74 02                	je     0x1800011b1
   1800011af:	ff d1                	callq  *%rcx
   1800011b1:	48 83 c6 08          	add    $0x8,%rsi
   1800011b5:	49 3b f6             	cmp    %r14,%rsi
   1800011b8:	72 e9                	jb     0x1800011a3
   1800011ba:	3b c3                	cmp    %ebx,%eax
   1800011bc:	0f 85 6a ff ff ff    	jne    0x18000112c
   1800011c2:	48 8d 15 df 4e 00 00 	lea    0x4edf(%rip),%rdx        # 0x1800060a8
   1800011c9:	48 8d 0d d0 4e 00 00 	lea    0x4ed0(%rip),%rcx        # 0x1800060a0
   1800011d0:	e8 ff 3e 00 00       	callq  0x1800050d4
   1800011d5:	c7 05 c1 6f 00 00 02 	movl   $0x2,0x6fc1(%rip)        # 0x1800081a0
   1800011dc:	00 00 00 
   1800011df:	3b eb                	cmp    %ebx,%ebp
   1800011e1:	75 0a                	jne    0x1800011ed
   1800011e3:	48 8b c3             	mov    %rbx,%rax
   1800011e6:	48 87 05 bb 6f 00 00 	xchg   %rax,0x6fbb(%rip)        # 0x1800081a8
   1800011ed:	48 39 1d c4 6f 00 00 	cmp    %rbx,0x6fc4(%rip)        # 0x1800081b8
   1800011f4:	74 21                	je     0x180001217
   1800011f6:	48 8d 0d bb 6f 00 00 	lea    0x6fbb(%rip),%rcx        # 0x1800081b8
   1800011fd:	e8 06 04 00 00       	callq  0x180001608
   180001202:	3b c3                	cmp    %ebx,%eax
   180001204:	74 11                	je     0x180001217
   180001206:	4d 8b c4             	mov    %r12,%r8
   180001209:	ba 02 00 00 00       	mov    $0x2,%edx
   18000120e:	49 8b cd             	mov    %r13,%rcx
   180001211:	ff 15 a1 6f 00 00    	callq  *0x6fa1(%rip)        # 0x1800081b8
   180001217:	01 3d b7 67 00 00    	add    %edi,0x67b7(%rip)        # 0x1800079d4
   18000121d:	8b c7                	mov    %edi,%eax
   18000121f:	48 8b 5c 24 50       	mov    0x50(%rsp),%rbx
   180001224:	48 8b 6c 24 58       	mov    0x58(%rsp),%rbp
   180001229:	48 83 c4 20          	add    $0x20,%rsp
   18000122d:	41 5e                	pop    %r14
   18000122f:	41 5d                	pop    %r13
   180001231:	41 5c                	pop    %r12
   180001233:	5f                   	pop    %rdi
   180001234:	5e                   	pop    %rsi
   180001235:	c3                   	retq   
   180001236:	cc                   	int3   
   180001237:	cc                   	int3   
   180001238:	4c 89 44 24 18       	mov    %r8,0x18(%rsp)
   18000123d:	89 54 24 10          	mov    %edx,0x10(%rsp)
   180001241:	48 89 4c 24 08       	mov    %rcx,0x8(%rsp)
   180001246:	53                   	push   %rbx
   180001247:	56                   	push   %rsi
   180001248:	57                   	push   %rdi
   180001249:	48 81 ec 40 01 00 00 	sub    $0x140,%rsp
   180001250:	8b fa                	mov    %edx,%edi
   180001252:	48 8b f1             	mov    %rcx,%rsi
   180001255:	bb 01 00 00 00       	mov    $0x1,%ebx
   18000125a:	89 5c 24 20          	mov    %ebx,0x20(%rsp)
   18000125e:	89 15 bc 5d 00 00    	mov    %edx,0x5dbc(%rip)        # 0x180007020
   180001264:	85 d2                	test   %edx,%edx
   180001266:	75 13                	jne    0x18000127b
   180001268:	39 15 66 67 00 00    	cmp    %edx,0x6766(%rip)        # 0x1800079d4
   18000126e:	75 0b                	jne    0x18000127b
   180001270:	33 db                	xor    %ebx,%ebx
   180001272:	89 5c 24 20          	mov    %ebx,0x20(%rsp)
   180001276:	e9 93 01 00 00       	jmpq   0x18000140e
   18000127b:	83 fa 01             	cmp    $0x1,%edx
   18000127e:	74 05                	je     0x180001285
   180001280:	83 fa 02             	cmp    $0x2,%edx
   180001283:	75 78                	jne    0x1800012fd
   180001285:	48 8b 05 24 6f 00 00 	mov    0x6f24(%rip),%rax        # 0x1800081b0
   18000128c:	48 85 c0             	test   %rax,%rax
   18000128f:	74 31                	je     0x1800012c2
   180001291:	c7 05 3d 67 00 00 01 	movl   $0x1,0x673d(%rip)        # 0x1800079d8
   180001298:	00 00 00 
   18000129b:	4c 8b 84 24 70 01 00 	mov    0x170(%rsp),%r8
   1800012a2:	00 
   1800012a3:	ff d0                	callq  *%rax
   1800012a5:	8b d8                	mov    %eax,%ebx
   1800012a7:	89 44 24 20          	mov    %eax,0x20(%rsp)
   1800012ab:	eb 15                	jmp    0x1800012c2
   1800012ad:	33 db                	xor    %ebx,%ebx
   1800012af:	89 5c 24 20          	mov    %ebx,0x20(%rsp)
   1800012b3:	8b bc 24 68 01 00 00 	mov    0x168(%rsp),%edi
   1800012ba:	48 8b b4 24 60 01 00 	mov    0x160(%rsp),%rsi
   1800012c1:	00 
   1800012c2:	85 db                	test   %ebx,%ebx
   1800012c4:	74 2f                	je     0x1800012f5
   1800012c6:	4c 8b 84 24 70 01 00 	mov    0x170(%rsp),%r8
   1800012cd:	00 
   1800012ce:	8b d7                	mov    %edi,%edx
   1800012d0:	48 8b ce             	mov    %rsi,%rcx
   1800012d3:	e8 8c fd ff ff       	callq  0x180001064
   1800012d8:	8b d8                	mov    %eax,%ebx
   1800012da:	89 44 24 20          	mov    %eax,0x20(%rsp)
   1800012de:	eb 15                	jmp    0x1800012f5
   1800012e0:	33 db                	xor    %ebx,%ebx
   1800012e2:	89 5c 24 20          	mov    %ebx,0x20(%rsp)
   1800012e6:	8b bc 24 68 01 00 00 	mov    0x168(%rsp),%edi
   1800012ed:	48 8b b4 24 60 01 00 	mov    0x160(%rsp),%rsi
   1800012f4:	00 
   1800012f5:	85 db                	test   %ebx,%ebx
   1800012f7:	0f 84 11 01 00 00    	je     0x18000140e
   1800012fd:	4c 8b 84 24 70 01 00 	mov    0x170(%rsp),%r8
   180001304:	00 
   180001305:	8b d7                	mov    %edi,%edx
   180001307:	48 8b ce             	mov    %rsi,%rcx
   18000130a:	e8 15 31 00 00       	callq  0x180004424
   18000130f:	8b d8                	mov    %eax,%ebx
   180001311:	89 44 24 20          	mov    %eax,0x20(%rsp)
   180001315:	eb 15                	jmp    0x18000132c
   180001317:	33 db                	xor    %ebx,%ebx
   180001319:	89 5c 24 20          	mov    %ebx,0x20(%rsp)
   18000131d:	8b bc 24 68 01 00 00 	mov    0x168(%rsp),%edi
   180001324:	48 8b b4 24 60 01 00 	mov    0x160(%rsp),%rsi
   18000132b:	00 
   18000132c:	83 ff 01             	cmp    $0x1,%edi
   18000132f:	75 73                	jne    0x1800013a4
   180001331:	85 db                	test   %ebx,%ebx
   180001333:	75 6f                	jne    0x1800013a4
   180001335:	45 33 c0             	xor    %r8d,%r8d
   180001338:	33 d2                	xor    %edx,%edx
   18000133a:	48 8b ce             	mov    %rsi,%rcx
   18000133d:	e8 e2 30 00 00       	callq  0x180004424
   180001342:	eb 13                	jmp    0x180001357
   180001344:	8b bc 24 68 01 00 00 	mov    0x168(%rsp),%edi
   18000134b:	48 8b b4 24 60 01 00 	mov    0x160(%rsp),%rsi
   180001352:	00 
   180001353:	8b 5c 24 20          	mov    0x20(%rsp),%ebx
   180001357:	45 33 c0             	xor    %r8d,%r8d
   18000135a:	33 d2                	xor    %edx,%edx
   18000135c:	48 8b ce             	mov    %rsi,%rcx
   18000135f:	e8 00 fd ff ff       	callq  0x180001064
   180001364:	eb 13                	jmp    0x180001379
   180001366:	8b bc 24 68 01 00 00 	mov    0x168(%rsp),%edi
   18000136d:	48 8b b4 24 60 01 00 	mov    0x160(%rsp),%rsi
   180001374:	00 
   180001375:	8b 5c 24 20          	mov    0x20(%rsp),%ebx
   180001379:	48 8b 05 30 6e 00 00 	mov    0x6e30(%rip),%rax        # 0x1800081b0
   180001380:	48 85 c0             	test   %rax,%rax
   180001383:	74 1f                	je     0x1800013a4
   180001385:	45 33 c0             	xor    %r8d,%r8d
   180001388:	33 d2                	xor    %edx,%edx
   18000138a:	48 8b ce             	mov    %rsi,%rcx
   18000138d:	ff d0                	callq  *%rax
   18000138f:	eb 13                	jmp    0x1800013a4
   180001391:	8b bc 24 68 01 00 00 	mov    0x168(%rsp),%edi
   180001398:	48 8b b4 24 60 01 00 	mov    0x160(%rsp),%rsi
   18000139f:	00 
   1800013a0:	8b 5c 24 20          	mov    0x20(%rsp),%ebx
   1800013a4:	85 ff                	test   %edi,%edi
   1800013a6:	74 05                	je     0x1800013ad
   1800013a8:	83 ff 03             	cmp    $0x3,%edi
   1800013ab:	75 61                	jne    0x18000140e
   1800013ad:	4c 8b 84 24 70 01 00 	mov    0x170(%rsp),%r8
   1800013b4:	00 
   1800013b5:	8b d7                	mov    %edi,%edx
   1800013b7:	48 8b ce             	mov    %rsi,%rcx
   1800013ba:	e8 a5 fc ff ff       	callq  0x180001064
   1800013bf:	8b d8                	mov    %eax,%ebx
   1800013c1:	89 44 24 20          	mov    %eax,0x20(%rsp)
   1800013c5:	eb 15                	jmp    0x1800013dc
   1800013c7:	33 db                	xor    %ebx,%ebx
   1800013c9:	89 5c 24 20          	mov    %ebx,0x20(%rsp)
   1800013cd:	8b bc 24 68 01 00 00 	mov    0x168(%rsp),%edi
   1800013d4:	48 8b b4 24 60 01 00 	mov    0x160(%rsp),%rsi
   1800013db:	00 
   1800013dc:	48 8b 05 cd 6d 00 00 	mov    0x6dcd(%rip),%rax        # 0x1800081b0
   1800013e3:	48 85 c0             	test   %rax,%rax
   1800013e6:	74 26                	je     0x18000140e
   1800013e8:	83 3d e9 65 00 00 00 	cmpl   $0x0,0x65e9(%rip)        # 0x1800079d8
   1800013ef:	74 1d                	je     0x18000140e
   1800013f1:	4c 8b 84 24 70 01 00 	mov    0x170(%rsp),%r8
   1800013f8:	00 
   1800013f9:	8b d7                	mov    %edi,%edx
   1800013fb:	48 8b ce             	mov    %rsi,%rcx
   1800013fe:	ff d0                	callq  *%rax
   180001400:	8b d8                	mov    %eax,%ebx
   180001402:	89 44 24 20          	mov    %eax,0x20(%rsp)
   180001406:	eb 06                	jmp    0x18000140e
   180001408:	33 db                	xor    %ebx,%ebx
   18000140a:	89 5c 24 20          	mov    %ebx,0x20(%rsp)
   18000140e:	c7 05 08 5c 00 00 ff 	movl   $0xffffffff,0x5c08(%rip)        # 0x180007020
   180001415:	ff ff ff 
   180001418:	8b c3                	mov    %ebx,%eax
   18000141a:	48 81 c4 40 01 00 00 	add    $0x140,%rsp
   180001421:	5f                   	pop    %rdi
   180001422:	5e                   	pop    %rsi
   180001423:	5b                   	pop    %rbx
   180001424:	c3                   	retq   
   180001425:	cc                   	int3   
   180001426:	cc                   	int3   
   180001427:	cc                   	int3   
   180001428:	48 89 5c 24 08       	mov    %rbx,0x8(%rsp)
   18000142d:	48 89 74 24 10       	mov    %rsi,0x10(%rsp)
   180001432:	57                   	push   %rdi
   180001433:	48 83 ec 20          	sub    $0x20,%rsp
   180001437:	49 8b f8             	mov    %r8,%rdi
   18000143a:	8b da                	mov    %edx,%ebx
   18000143c:	48 8b f1             	mov    %rcx,%rsi
   18000143f:	83 fa 01             	cmp    $0x1,%edx
   180001442:	75 05                	jne    0x180001449
   180001444:	e8 03 02 00 00       	callq  0x18000164c
   180001449:	4c 8b c7             	mov    %rdi,%r8
   18000144c:	8b d3                	mov    %ebx,%edx
   18000144e:	48 8b ce             	mov    %rsi,%rcx
   180001451:	48 8b 5c 24 30       	mov    0x30(%rsp),%rbx
   180001456:	48 8b 74 24 38       	mov    0x38(%rsp),%rsi
   18000145b:	48 83 c4 20          	add    $0x20,%rsp
   18000145f:	5f                   	pop    %rdi
   180001460:	e9 d3 fd ff ff       	jmpq   0x180001238
   180001465:	cc                   	int3   
   180001466:	cc                   	int3   
   180001467:	cc                   	int3   
   180001468:	48 89 4c 24 08       	mov    %rcx,0x8(%rsp)
   18000146d:	48 81 ec 88 00 00 00 	sub    $0x88,%rsp
   180001474:	48 8d 0d 05 66 00 00 	lea    0x6605(%rip),%rcx        # 0x180007a80
   18000147b:	ff 15 9f 4b 00 00    	callq  *0x4b9f(%rip)        # 0x180006020
   180001481:	4c 8b 1d f0 66 00 00 	mov    0x66f0(%rip),%r11        # 0x180007b78
   180001488:	4c 89 5c 24 58       	mov    %r11,0x58(%rsp)
   18000148d:	45 33 c0             	xor    %r8d,%r8d
   180001490:	48 8d 54 24 60       	lea    0x60(%rsp),%rdx
   180001495:	48 8b 4c 24 58       	mov    0x58(%rsp),%rcx
   18000149a:	e8 47 3c 00 00       	callq  0x1800050e6
   18000149f:	48 89 44 24 50       	mov    %rax,0x50(%rsp)
   1800014a4:	48 83 7c 24 50 00    	cmpq   $0x0,0x50(%rsp)
   1800014aa:	74 41                	je     0x1800014ed
   1800014ac:	48 c7 44 24 38 00 00 	movq   $0x0,0x38(%rsp)
   1800014b3:	00 00 
   1800014b5:	48 8d 44 24 48       	lea    0x48(%rsp),%rax
   1800014ba:	48 89 44 24 30       	mov    %rax,0x30(%rsp)
   1800014bf:	48 8d 44 24 40       	lea    0x40(%rsp),%rax
   1800014c4:	48 89 44 24 28       	mov    %rax,0x28(%rsp)
   1800014c9:	48 8d 05 b0 65 00 00 	lea    0x65b0(%rip),%rax        # 0x180007a80
   1800014d0:	48 89 44 24 20       	mov    %rax,0x20(%rsp)
   1800014d5:	4c 8b 4c 24 50       	mov    0x50(%rsp),%r9
   1800014da:	4c 8b 44 24 58       	mov    0x58(%rsp),%r8
   1800014df:	48 8b 54 24 60       	mov    0x60(%rsp),%rdx
   1800014e4:	33 c9                	xor    %ecx,%ecx
   1800014e6:	e8 f5 3b 00 00       	callq  0x1800050e0
   1800014eb:	eb 22                	jmp    0x18000150f
   1800014ed:	48 8b 84 24 88 00 00 	mov    0x88(%rsp),%rax
   1800014f4:	00 
   1800014f5:	48 89 05 7c 66 00 00 	mov    %rax,0x667c(%rip)        # 0x180007b78
   1800014fc:	48 8d 84 24 88 00 00 	lea    0x88(%rsp),%rax
   180001503:	00 
   180001504:	48 83 c0 08          	add    $0x8,%rax
   180001508:	48 89 05 09 66 00 00 	mov    %rax,0x6609(%rip)        # 0x180007b18
   18000150f:	48 8b 05 62 66 00 00 	mov    0x6662(%rip),%rax        # 0x180007b78
   180001516:	48 89 05 d3 64 00 00 	mov    %rax,0x64d3(%rip)        # 0x1800079f0
   18000151d:	48 8b 84 24 90 00 00 	mov    0x90(%rsp),%rax
   180001524:	00 
   180001525:	48 89 05 d4 65 00 00 	mov    %rax,0x65d4(%rip)        # 0x180007b00
   18000152c:	c7 05 aa 64 00 00 09 	movl   $0xc0000409,0x64aa(%rip)        # 0x1800079e0
   180001533:	04 00 c0 
   180001536:	c7 05 a4 64 00 00 01 	movl   $0x1,0x64a4(%rip)        # 0x1800079e4
   18000153d:	00 00 00 
   180001540:	48 8b 05 c1 5a 00 00 	mov    0x5ac1(%rip),%rax        # 0x180007008
   180001547:	48 89 44 24 68       	mov    %rax,0x68(%rsp)
   18000154c:	48 8b 05 bd 5a 00 00 	mov    0x5abd(%rip),%rax        # 0x180007010
   180001553:	48 89 44 24 70       	mov    %rax,0x70(%rsp)
   180001558:	33 c9                	xor    %ecx,%ecx
   18000155a:	ff 15 dc 63 00 00    	callq  *0x63dc(%rip)        # 0x18000793c
   180001560:	48 8d 0d b9 4b 00 00 	lea    0x4bb9(%rip),%rcx        # 0x180006120
   180001567:	ff 15 9c 63 00 00    	callq  *0x639c(%rip)        # 0x180007909
   18000156d:	ff 15 6f 63 00 00    	callq  *0x636f(%rip)        # 0x1800078e2
   180001573:	ba 09 04 00 c0       	mov    $0xc0000409,%edx
   180001578:	48 8b c8             	mov    %rax,%rcx
   18000157b:	ff 15 40 63 00 00    	callq  *0x6340(%rip)        # 0x1800078c1
   180001581:	48 81 c4 88 00 00 00 	add    $0x88,%rsp
   180001588:	c3                   	retq   
   180001589:	cc                   	int3   
   18000158a:	cc                   	int3   
   18000158b:	cc                   	int3   
   18000158c:	cc                   	int3   
   18000158d:	cc                   	int3   
   18000158e:	cc                   	int3   
   18000158f:	cc                   	int3   
   180001590:	48 8b c1             	mov    %rcx,%rax
   180001593:	b9 4d 5a 00 00       	mov    $0x5a4d,%ecx
   180001598:	66 39 08             	cmp    %cx,(%rax)
   18000159b:	74 03                	je     0x1800015a0
   18000159d:	33 c0                	xor    %eax,%eax
   18000159f:	c3                   	retq   
   1800015a0:	48 63 48 3c          	movslq 0x3c(%rax),%rcx
   1800015a4:	48 03 c8             	add    %rax,%rcx
   1800015a7:	33 c0                	xor    %eax,%eax
   1800015a9:	81 39 50 45 00 00    	cmpl   $0x4550,(%rcx)
   1800015af:	75 0c                	jne    0x1800015bd
   1800015b1:	ba 0b 02 00 00       	mov    $0x20b,%edx
   1800015b6:	66 39 51 18          	cmp    %dx,0x18(%rcx)
   1800015ba:	0f 94 c0             	sete   %al
   1800015bd:	f3 c3                	repz retq 
   1800015bf:	cc                   	int3   
   1800015c0:	4c 63 41 3c          	movslq 0x3c(%rcx),%r8
   1800015c4:	45 33 c9             	xor    %r9d,%r9d
   1800015c7:	4c 8b d2             	mov    %rdx,%r10
   1800015ca:	4c 03 c1             	add    %rcx,%r8
   1800015cd:	41 0f b7 40 14       	movzwl 0x14(%r8),%eax
   1800015d2:	45 0f b7 58 06       	movzwl 0x6(%r8),%r11d
   1800015d7:	4a 8d 4c 00 18       	lea    0x18(%rax,%r8,1),%rcx
   1800015dc:	45 85 db             	test   %r11d,%r11d
   1800015df:	74 1e                	je     0x1800015ff
   1800015e1:	8b 51 0c             	mov    0xc(%rcx),%edx
   1800015e4:	4c 3b d2             	cmp    %rdx,%r10
   1800015e7:	72 0a                	jb     0x1800015f3
   1800015e9:	8b 41 08             	mov    0x8(%rcx),%eax
   1800015ec:	03 c2                	add    %edx,%eax
   1800015ee:	4c 3b d0             	cmp    %rax,%r10
   1800015f1:	72 0f                	jb     0x180001602
   1800015f3:	41 ff c1             	inc    %r9d
   1800015f6:	48 83 c1 28          	add    $0x28,%rcx
   1800015fa:	45 3b cb             	cmp    %r11d,%r9d
   1800015fd:	72 e2                	jb     0x1800015e1
   1800015ff:	33 c0                	xor    %eax,%eax
   180001601:	c3                   	retq   
   180001602:	48 8b c1             	mov    %rcx,%rax
   180001605:	c3                   	retq   
   180001606:	cc                   	int3   
   180001607:	cc                   	int3   
   180001608:	48 83 ec 28          	sub    $0x28,%rsp
   18000160c:	4c 8b c1             	mov    %rcx,%r8
   18000160f:	4c 8d 0d ea e9 ff ff 	lea    -0x1616(%rip),%r9        # 0x180000000
   180001616:	49 8b c9             	mov    %r9,%rcx
   180001619:	e8 72 ff ff ff       	callq  0x180001590
   18000161e:	85 c0                	test   %eax,%eax
   180001620:	74 22                	je     0x180001644
   180001622:	4d 2b c1             	sub    %r9,%r8
   180001625:	49 8b d0             	mov    %r8,%rdx
   180001628:	49 8b c9             	mov    %r9,%rcx
   18000162b:	e8 90 ff ff ff       	callq  0x1800015c0
   180001630:	48 85 c0             	test   %rax,%rax
   180001633:	74 0f                	je     0x180001644
   180001635:	8b 40 24             	mov    0x24(%rax),%eax
   180001638:	c1 e8 1f             	shr    $0x1f,%eax
   18000163b:	f7 d0                	not    %eax
   18000163d:	83 e0 01             	and    $0x1,%eax
   180001640:	eb 02                	jmp    0x180001644
   180001642:	33 c0                	xor    %eax,%eax
   180001644:	48 83 c4 28          	add    $0x28,%rsp
   180001648:	c3                   	retq   
   180001649:	cc                   	int3   
   18000164a:	cc                   	int3   
   18000164b:	cc                   	int3   
   18000164c:	48 89 5c 24 18       	mov    %rbx,0x18(%rsp)
   180001651:	57                   	push   %rdi
   180001652:	48 83 ec 20          	sub    $0x20,%rsp
   180001656:	48 8b 05 ab 59 00 00 	mov    0x59ab(%rip),%rax        # 0x180007008
   18000165d:	48 83 64 24 30 00    	andq   $0x0,0x30(%rsp)
   180001663:	48 bf 32 a2 df 2d 99 	movabs $0x2b992ddfa232,%rdi
   18000166a:	2b 00 00 
   18000166d:	48 3b c7             	cmp    %rdi,%rax
   180001670:	74 0c                	je     0x18000167e
   180001672:	48 f7 d0             	not    %rax
   180001675:	48 89 05 94 59 00 00 	mov    %rax,0x5994(%rip)        # 0x180007010
   18000167c:	eb 76                	jmp    0x1800016f4
   18000167e:	48 8d 4c 24 30       	lea    0x30(%rsp),%rcx
   180001683:	ff 15 ff 62 00 00    	callq  *0x62ff(%rip)        # 0x180007988
   180001689:	48 8b 5c 24 30       	mov    0x30(%rsp),%rbx
   18000168e:	ff 15 90 5d 00 00    	callq  *0x5d90(%rip)        # 0x180007424
   180001694:	44 8b d8             	mov    %eax,%r11d
   180001697:	49 33 db             	xor    %r11,%rbx
   18000169a:	ff 15 a3 5e 00 00    	callq  *0x5ea3(%rip)        # 0x180007543
   1800016a0:	44 8b d8             	mov    %eax,%r11d
   1800016a3:	49 33 db             	xor    %r11,%rbx
   1800016a6:	ff 15 f1 5d 00 00    	callq  *0x5df1(%rip)        # 0x18000749d
   1800016ac:	48 8d 4c 24 38       	lea    0x38(%rsp),%rcx
   1800016b1:	44 8b d8             	mov    %eax,%r11d
   1800016b4:	49 33 db             	xor    %r11,%rbx
   1800016b7:	ff 15 ab 62 00 00    	callq  *0x62ab(%rip)        # 0x180007968
   1800016bd:	4c 8b 5c 24 38       	mov    0x38(%rsp),%r11
   1800016c2:	4c 33 db             	xor    %rbx,%r11
   1800016c5:	48 b8 ff ff ff ff ff 	movabs $0xffffffffffff,%rax
   1800016cc:	ff 00 00 
   1800016cf:	4c 23 d8             	and    %rax,%r11
   1800016d2:	48 b8 33 a2 df 2d 99 	movabs $0x2b992ddfa233,%rax
   1800016d9:	2b 00 00 
   1800016dc:	4c 3b df             	cmp    %rdi,%r11
   1800016df:	4c 0f 44 d8          	cmove  %rax,%r11
   1800016e3:	4c 89 1d 1e 59 00 00 	mov    %r11,0x591e(%rip)        # 0x180007008
   1800016ea:	49 f7 d3             	not    %r11
   1800016ed:	4c 89 1d 1c 59 00 00 	mov    %r11,0x591c(%rip)        # 0x180007010
   1800016f4:	48 8b 5c 24 40       	mov    0x40(%rsp),%rbx
   1800016f9:	48 83 c4 20          	add    $0x20,%rsp
   1800016fd:	5f                   	pop    %rdi
   1800016fe:	c3                   	retq   
   1800016ff:	cc                   	int3   
   180001700:	48 81 ec 08 01 00 00 	sub    $0x108,%rsp
   180001707:	48 89 4c 24 30       	mov    %rcx,0x30(%rsp)
   18000170c:	48 89 54 24 38       	mov    %rdx,0x38(%rsp)
   180001711:	4c 89 44 24 40       	mov    %r8,0x40(%rsp)
   180001716:	4c 89 4c 24 48       	mov    %r9,0x48(%rsp)
   18000171b:	f3 0f 7f 44 24 50    	movdqu %xmm0,0x50(%rsp)
   180001721:	f3 0f 7f 4c 24 60    	movdqu %xmm1,0x60(%rsp)
   180001727:	f3 0f 7f 54 24 70    	movdqu %xmm2,0x70(%rsp)
   18000172d:	f3 0f 7f 9c 24 80 00 	movdqu %xmm3,0x80(%rsp)
   180001734:	00 00 
   180001736:	f3 0f 7f a4 24 90 00 	movdqu %xmm4,0x90(%rsp)
   18000173d:	00 00 
   18000173f:	f3 0f 7f ac 24 a0 00 	movdqu %xmm5,0xa0(%rsp)
   180001746:	00 00 
   180001748:	48 8d 0d 41 62 00 00 	lea    0x6241(%rip),%rcx        # 0x180007990
   18000174f:	e8 9e 39 00 00       	callq  0x1800050f2
   180001754:	48 85 c0             	test   %rax,%rax
   180001757:	75 0c                	jne    0x180001765
   180001759:	48 8d 0d 30 62 00 00 	lea    0x6230(%rip),%rcx        # 0x180007990
   180001760:	e8 87 39 00 00       	callq  0x1800050ec
   180001765:	48 8b c8             	mov    %rax,%rcx
   180001768:	48 8d 15 b1 5b 00 00 	lea    0x5bb1(%rip),%rdx        # 0x180007320
   18000176f:	e8 84 39 00 00       	callq  0x1800050f8
   180001774:	48 8b 4c 24 30       	mov    0x30(%rsp),%rcx
   180001779:	48 8b 54 24 38       	mov    0x38(%rsp),%rdx
   18000177e:	4c 8b 44 24 40       	mov    0x40(%rsp),%r8
   180001783:	4c 8b 4c 24 48       	mov    0x48(%rsp),%r9
   180001788:	f3 0f 6f 44 24 50    	movdqu 0x50(%rsp),%xmm0
   18000178e:	f3 0f 6f 4c 24 60    	movdqu 0x60(%rsp),%xmm1
   180001794:	f3 0f 6f 54 24 70    	movdqu 0x70(%rsp),%xmm2
   18000179a:	f3 0f 6f 9c 24 80 00 	movdqu 0x80(%rsp),%xmm3
   1800017a1:	00 00 
   1800017a3:	f3 0f 6f a4 24 90 00 	movdqu 0x90(%rsp),%xmm4
   1800017aa:	00 00 
   1800017ac:	f3 0f 6f ac 24 a0 00 	movdqu 0xa0(%rsp),%xmm5
   1800017b3:	00 00 
   1800017b5:	48 81 c4 08 01 00 00 	add    $0x108,%rsp
   1800017bc:	ff e0                	jmpq   *%rax
   1800017be:	66 90                	xchg   %ax,%ax
   1800017c0:	48 81 ec 08 01 00 00 	sub    $0x108,%rsp
   1800017c7:	48 89 4c 24 30       	mov    %rcx,0x30(%rsp)
   1800017cc:	48 89 54 24 38       	mov    %rdx,0x38(%rsp)
   1800017d1:	4c 89 44 24 40       	mov    %r8,0x40(%rsp)
   1800017d6:	4c 89 4c 24 48       	mov    %r9,0x48(%rsp)
   1800017db:	f3 0f 7f 44 24 50    	movdqu %xmm0,0x50(%rsp)
   1800017e1:	f3 0f 7f 4c 24 60    	movdqu %xmm1,0x60(%rsp)
   1800017e7:	f3 0f 7f 54 24 70    	movdqu %xmm2,0x70(%rsp)
   1800017ed:	f3 0f 7f 9c 24 80 00 	movdqu %xmm3,0x80(%rsp)
   1800017f4:	00 00 
   1800017f6:	f3 0f 7f a4 24 90 00 	movdqu %xmm4,0x90(%rsp)
   1800017fd:	00 00 
   1800017ff:	f3 0f 7f ac 24 a0 00 	movdqu %xmm5,0xa0(%rsp)
   180001806:	00 00 
   180001808:	48 8d 0d 81 61 00 00 	lea    0x6181(%rip),%rcx        # 0x180007990
   18000180f:	e8 de 38 00 00       	callq  0x1800050f2
   180001814:	48 85 c0             	test   %rax,%rax
   180001817:	75 0c                	jne    0x180001825
   180001819:	48 8d 0d 70 61 00 00 	lea    0x6170(%rip),%rcx        # 0x180007990
   180001820:	e8 c7 38 00 00       	callq  0x1800050ec
   180001825:	48 8b c8             	mov    %rax,%rcx
   180001828:	48 8d 15 11 5b 00 00 	lea    0x5b11(%rip),%rdx        # 0x180007340
   18000182f:	e8 c4 38 00 00       	callq  0x1800050f8
   180001834:	48 8b 4c 24 30       	mov    0x30(%rsp),%rcx
   180001839:	48 8b 54 24 38       	mov    0x38(%rsp),%rdx
   18000183e:	4c 8b 44 24 40       	mov    0x40(%rsp),%r8
   180001843:	4c 8b 4c 24 48       	mov    0x48(%rsp),%r9
   180001848:	f3 0f 6f 44 24 50    	movdqu 0x50(%rsp),%xmm0
   18000184e:	f3 0f 6f 4c 24 60    	movdqu 0x60(%rsp),%xmm1
   180001854:	f3 0f 6f 54 24 70    	movdqu 0x70(%rsp),%xmm2
   18000185a:	f3 0f 6f 9c 24 80 00 	movdqu 0x80(%rsp),%xmm3
   180001861:	00 00 
   180001863:	f3 0f 6f a4 24 90 00 	movdqu 0x90(%rsp),%xmm4
   18000186a:	00 00 
   18000186c:	f3 0f 6f ac 24 a0 00 	movdqu 0xa0(%rsp),%xmm5
   180001873:	00 00 
   180001875:	48 81 c4 08 01 00 00 	add    $0x108,%rsp
   18000187c:	ff e0                	jmpq   *%rax
   18000187e:	66 90                	xchg   %ax,%ax
   180001880:	48 81 ec 08 01 00 00 	sub    $0x108,%rsp
   180001887:	48 89 4c 24 30       	mov    %rcx,0x30(%rsp)
   18000188c:	48 89 54 24 38       	mov    %rdx,0x38(%rsp)
   180001891:	4c 89 44 24 40       	mov    %r8,0x40(%rsp)
   180001896:	4c 89 4c 24 48       	mov    %r9,0x48(%rsp)
   18000189b:	f3 0f 7f 44 24 50    	movdqu %xmm0,0x50(%rsp)
   1800018a1:	f3 0f 7f 4c 24 60    	movdqu %xmm1,0x60(%rsp)
   1800018a7:	f3 0f 7f 54 24 70    	movdqu %xmm2,0x70(%rsp)
   1800018ad:	f3 0f 7f 9c 24 80 00 	movdqu %xmm3,0x80(%rsp)
   1800018b4:	00 00 
   1800018b6:	f3 0f 7f a4 24 90 00 	movdqu %xmm4,0x90(%rsp)
   1800018bd:	00 00 
   1800018bf:	f3 0f 7f ac 24 a0 00 	movdqu %xmm5,0xa0(%rsp)
   1800018c6:	00 00 
   1800018c8:	48 8d 0d c1 60 00 00 	lea    0x60c1(%rip),%rcx        # 0x180007990
   1800018cf:	e8 1e 38 00 00       	callq  0x1800050f2
   1800018d4:	48 85 c0             	test   %rax,%rax
   1800018d7:	75 0c                	jne    0x1800018e5
   1800018d9:	48 8d 0d b0 60 00 00 	lea    0x60b0(%rip),%rcx        # 0x180007990
   1800018e0:	e8 07 38 00 00       	callq  0x1800050ec
   1800018e5:	48 8b c8             	mov    %rax,%rcx
   1800018e8:	48 8d 15 61 5a 00 00 	lea    0x5a61(%rip),%rdx        # 0x180007350
   1800018ef:	e8 04 38 00 00       	callq  0x1800050f8
   1800018f4:	48 8b 4c 24 30       	mov    0x30(%rsp),%rcx
   1800018f9:	48 8b 54 24 38       	mov    0x38(%rsp),%rdx
   1800018fe:	4c 8b 44 24 40       	mov    0x40(%rsp),%r8
   180001903:	4c 8b 4c 24 48       	mov    0x48(%rsp),%r9
   180001908:	f3 0f 6f 44 24 50    	movdqu 0x50(%rsp),%xmm0
   18000190e:	f3 0f 6f 4c 24 60    	movdqu 0x60(%rsp),%xmm1
   180001914:	f3 0f 6f 54 24 70    	movdqu 0x70(%rsp),%xmm2
   18000191a:	f3 0f 6f 9c 24 80 00 	movdqu 0x80(%rsp),%xmm3
   180001921:	00 00 
   180001923:	f3 0f 6f a4 24 90 00 	movdqu 0x90(%rsp),%xmm4
   18000192a:	00 00 
   18000192c:	f3 0f 6f ac 24 a0 00 	movdqu 0xa0(%rsp),%xmm5
   180001933:	00 00 
   180001935:	48 81 c4 08 01 00 00 	add    $0x108,%rsp
   18000193c:	ff e0                	jmpq   *%rax
   18000193e:	66 90                	xchg   %ax,%ax
   180001940:	48 81 ec 08 01 00 00 	sub    $0x108,%rsp
   180001947:	48 89 4c 24 30       	mov    %rcx,0x30(%rsp)
   18000194c:	48 89 54 24 38       	mov    %rdx,0x38(%rsp)
   180001951:	4c 89 44 24 40       	mov    %r8,0x40(%rsp)
   180001956:	4c 89 4c 24 48       	mov    %r9,0x48(%rsp)
   18000195b:	f3 0f 7f 44 24 50    	movdqu %xmm0,0x50(%rsp)
   180001961:	f3 0f 7f 4c 24 60    	movdqu %xmm1,0x60(%rsp)
   180001967:	f3 0f 7f 54 24 70    	movdqu %xmm2,0x70(%rsp)
   18000196d:	f3 0f 7f 9c 24 80 00 	movdqu %xmm3,0x80(%rsp)
   180001974:	00 00 
   180001976:	f3 0f 7f a4 24 90 00 	movdqu %xmm4,0x90(%rsp)
   18000197d:	00 00 
   18000197f:	f3 0f 7f ac 24 a0 00 	movdqu %xmm5,0xa0(%rsp)
   180001986:	00 00 
   180001988:	48 8d 0d 01 60 00 00 	lea    0x6001(%rip),%rcx        # 0x180007990
   18000198f:	e8 5e 37 00 00       	callq  0x1800050f2
   180001994:	48 85 c0             	test   %rax,%rax
   180001997:	75 0c                	jne    0x1800019a5
   180001999:	48 8d 0d f0 5f 00 00 	lea    0x5ff0(%rip),%rcx        # 0x180007990
   1800019a0:	e8 47 37 00 00       	callq  0x1800050ec
   1800019a5:	48 8b c8             	mov    %rax,%rcx
   1800019a8:	48 8d 15 c1 59 00 00 	lea    0x59c1(%rip),%rdx        # 0x180007370
   1800019af:	e8 44 37 00 00       	callq  0x1800050f8
   1800019b4:	48 8b 4c 24 30       	mov    0x30(%rsp),%rcx
   1800019b9:	48 8b 54 24 38       	mov    0x38(%rsp),%rdx
   1800019be:	4c 8b 44 24 40       	mov    0x40(%rsp),%r8
   1800019c3:	4c 8b 4c 24 48       	mov    0x48(%rsp),%r9
   1800019c8:	f3 0f 6f 44 24 50    	movdqu 0x50(%rsp),%xmm0
   1800019ce:	f3 0f 6f 4c 24 60    	movdqu 0x60(%rsp),%xmm1
   1800019d4:	f3 0f 6f 54 24 70    	movdqu 0x70(%rsp),%xmm2
   1800019da:	f3 0f 6f 9c 24 80 00 	movdqu 0x80(%rsp),%xmm3
   1800019e1:	00 00 
   1800019e3:	f3 0f 6f a4 24 90 00 	movdqu 0x90(%rsp),%xmm4
   1800019ea:	00 00 
   1800019ec:	f3 0f 6f ac 24 a0 00 	movdqu 0xa0(%rsp),%xmm5
   1800019f3:	00 00 
   1800019f5:	48 81 c4 08 01 00 00 	add    $0x108,%rsp
   1800019fc:	ff e0                	jmpq   *%rax
   1800019fe:	66 90                	xchg   %ax,%ax
   180001a00:	48 81 ec 08 01 00 00 	sub    $0x108,%rsp
   180001a07:	48 89 4c 24 30       	mov    %rcx,0x30(%rsp)
   180001a0c:	48 89 54 24 38       	mov    %rdx,0x38(%rsp)
   180001a11:	4c 89 44 24 40       	mov    %r8,0x40(%rsp)
   180001a16:	4c 89 4c 24 48       	mov    %r9,0x48(%rsp)
   180001a1b:	f3 0f 7f 44 24 50    	movdqu %xmm0,0x50(%rsp)
   180001a21:	f3 0f 7f 4c 24 60    	movdqu %xmm1,0x60(%rsp)
   180001a27:	f3 0f 7f 54 24 70    	movdqu %xmm2,0x70(%rsp)
   180001a2d:	f3 0f 7f 9c 24 80 00 	movdqu %xmm3,0x80(%rsp)
   180001a34:	00 00 
   180001a36:	f3 0f 7f a4 24 90 00 	movdqu %xmm4,0x90(%rsp)
   180001a3d:	00 00 
   180001a3f:	f3 0f 7f ac 24 a0 00 	movdqu %xmm5,0xa0(%rsp)
   180001a46:	00 00 
   180001a48:	48 8d 0d 41 5f 00 00 	lea    0x5f41(%rip),%rcx        # 0x180007990
   180001a4f:	e8 9e 36 00 00       	callq  0x1800050f2
   180001a54:	48 85 c0             	test   %rax,%rax
   180001a57:	75 0c                	jne    0x180001a65
   180001a59:	48 8d 0d 30 5f 00 00 	lea    0x5f30(%rip),%rcx        # 0x180007990
   180001a60:	e8 87 36 00 00       	callq  0x1800050ec
   180001a65:	48 8b c8             	mov    %rax,%rcx
   180001a68:	48 8d 15 21 59 00 00 	lea    0x5921(%rip),%rdx        # 0x180007390
   180001a6f:	e8 84 36 00 00       	callq  0x1800050f8
   180001a74:	48 8b 4c 24 30       	mov    0x30(%rsp),%rcx
   180001a79:	48 8b 54 24 38       	mov    0x38(%rsp),%rdx
   180001a7e:	4c 8b 44 24 40       	mov    0x40(%rsp),%r8
   180001a83:	4c 8b 4c 24 48       	mov    0x48(%rsp),%r9
   180001a88:	f3 0f 6f 44 24 50    	movdqu 0x50(%rsp),%xmm0
   180001a8e:	f3 0f 6f 4c 24 60    	movdqu 0x60(%rsp),%xmm1
   180001a94:	f3 0f 6f 54 24 70    	movdqu 0x70(%rsp),%xmm2
   180001a9a:	f3 0f 6f 9c 24 80 00 	movdqu 0x80(%rsp),%xmm3
   180001aa1:	00 00 
   180001aa3:	f3 0f 6f a4 24 90 00 	movdqu 0x90(%rsp),%xmm4
   180001aaa:	00 00 
   180001aac:	f3 0f 6f ac 24 a0 00 	movdqu 0xa0(%rsp),%xmm5
   180001ab3:	00 00 
   180001ab5:	48 81 c4 08 01 00 00 	add    $0x108,%rsp
   180001abc:	ff e0                	jmpq   *%rax
   180001abe:	66 90                	xchg   %ax,%ax
   180001ac0:	48 81 ec 08 01 00 00 	sub    $0x108,%rsp
   180001ac7:	48 89 4c 24 30       	mov    %rcx,0x30(%rsp)
   180001acc:	48 89 54 24 38       	mov    %rdx,0x38(%rsp)
   180001ad1:	4c 89 44 24 40       	mov    %r8,0x40(%rsp)
   180001ad6:	4c 89 4c 24 48       	mov    %r9,0x48(%rsp)
   180001adb:	f3 0f 7f 44 24 50    	movdqu %xmm0,0x50(%rsp)
   180001ae1:	f3 0f 7f 4c 24 60    	movdqu %xmm1,0x60(%rsp)
   180001ae7:	f3 0f 7f 54 24 70    	movdqu %xmm2,0x70(%rsp)
   180001aed:	f3 0f 7f 9c 24 80 00 	movdqu %xmm3,0x80(%rsp)
   180001af4:	00 00 
   180001af6:	f3 0f 7f a4 24 90 00 	movdqu %xmm4,0x90(%rsp)
   180001afd:	00 00 
   180001aff:	f3 0f 7f ac 24 a0 00 	movdqu %xmm5,0xa0(%rsp)
   180001b06:	00 00 
   180001b08:	48 8d 0d 81 5e 00 00 	lea    0x5e81(%rip),%rcx        # 0x180007990
   180001b0f:	e8 de 35 00 00       	callq  0x1800050f2
   180001b14:	48 85 c0             	test   %rax,%rax
   180001b17:	75 0c                	jne    0x180001b25
   180001b19:	48 8d 0d 70 5e 00 00 	lea    0x5e70(%rip),%rcx        # 0x180007990
   180001b20:	e8 c7 35 00 00       	callq  0x1800050ec
   180001b25:	48 8b c8             	mov    %rax,%rcx
   180001b28:	48 8d 15 81 58 00 00 	lea    0x5881(%rip),%rdx        # 0x1800073b0
   180001b2f:	e8 c4 35 00 00       	callq  0x1800050f8
   180001b34:	48 8b 4c 24 30       	mov    0x30(%rsp),%rcx
   180001b39:	48 8b 54 24 38       	mov    0x38(%rsp),%rdx
   180001b3e:	4c 8b 44 24 40       	mov    0x40(%rsp),%r8
   180001b43:	4c 8b 4c 24 48       	mov    0x48(%rsp),%r9
   180001b48:	f3 0f 6f 44 24 50    	movdqu 0x50(%rsp),%xmm0
   180001b4e:	f3 0f 6f 4c 24 60    	movdqu 0x60(%rsp),%xmm1
   180001b54:	f3 0f 6f 54 24 70    	movdqu 0x70(%rsp),%xmm2
   180001b5a:	f3 0f 6f 9c 24 80 00 	movdqu 0x80(%rsp),%xmm3
   180001b61:	00 00 
   180001b63:	f3 0f 6f a4 24 90 00 	movdqu 0x90(%rsp),%xmm4
   180001b6a:	00 00 
   180001b6c:	f3 0f 6f ac 24 a0 00 	movdqu 0xa0(%rsp),%xmm5
   180001b73:	00 00 
   180001b75:	48 81 c4 08 01 00 00 	add    $0x108,%rsp
   180001b7c:	ff e0                	jmpq   *%rax
   180001b7e:	66 90                	xchg   %ax,%ax
   180001b80:	48 81 ec 08 01 00 00 	sub    $0x108,%rsp
   180001b87:	48 89 4c 24 30       	mov    %rcx,0x30(%rsp)
   180001b8c:	48 89 54 24 38       	mov    %rdx,0x38(%rsp)
   180001b91:	4c 89 44 24 40       	mov    %r8,0x40(%rsp)
   180001b96:	4c 89 4c 24 48       	mov    %r9,0x48(%rsp)
   180001b9b:	f3 0f 7f 44 24 50    	movdqu %xmm0,0x50(%rsp)
   180001ba1:	f3 0f 7f 4c 24 60    	movdqu %xmm1,0x60(%rsp)
   180001ba7:	f3 0f 7f 54 24 70    	movdqu %xmm2,0x70(%rsp)
   180001bad:	f3 0f 7f 9c 24 80 00 	movdqu %xmm3,0x80(%rsp)
   180001bb4:	00 00 
   180001bb6:	f3 0f 7f a4 24 90 00 	movdqu %xmm4,0x90(%rsp)
   180001bbd:	00 00 
   180001bbf:	f3 0f 7f ac 24 a0 00 	movdqu %xmm5,0xa0(%rsp)
   180001bc6:	00 00 
   180001bc8:	48 8d 0d c1 5d 00 00 	lea    0x5dc1(%rip),%rcx        # 0x180007990
   180001bcf:	e8 1e 35 00 00       	callq  0x1800050f2
   180001bd4:	48 85 c0             	test   %rax,%rax
   180001bd7:	75 0c                	jne    0x180001be5
   180001bd9:	48 8d 0d b0 5d 00 00 	lea    0x5db0(%rip),%rcx        # 0x180007990
   180001be0:	e8 07 35 00 00       	callq  0x1800050ec
   180001be5:	48 8b c8             	mov    %rax,%rcx
   180001be8:	48 8d 15 e1 57 00 00 	lea    0x57e1(%rip),%rdx        # 0x1800073d0
   180001bef:	e8 04 35 00 00       	callq  0x1800050f8
   180001bf4:	48 8b 4c 24 30       	mov    0x30(%rsp),%rcx
   180001bf9:	48 8b 54 24 38       	mov    0x38(%rsp),%rdx
   180001bfe:	4c 8b 44 24 40       	mov    0x40(%rsp),%r8
   180001c03:	4c 8b 4c 24 48       	mov    0x48(%rsp),%r9
   180001c08:	f3 0f 6f 44 24 50    	movdqu 0x50(%rsp),%xmm0
   180001c0e:	f3 0f 6f 4c 24 60    	movdqu 0x60(%rsp),%xmm1
   180001c14:	f3 0f 6f 54 24 70    	movdqu 0x70(%rsp),%xmm2
   180001c1a:	f3 0f 6f 9c 24 80 00 	movdqu 0x80(%rsp),%xmm3
   180001c21:	00 00 
   180001c23:	f3 0f 6f a4 24 90 00 	movdqu 0x90(%rsp),%xmm4
   180001c2a:	00 00 
   180001c2c:	f3 0f 6f ac 24 a0 00 	movdqu 0xa0(%rsp),%xmm5
   180001c33:	00 00 
   180001c35:	48 81 c4 08 01 00 00 	add    $0x108,%rsp
   180001c3c:	ff e0                	jmpq   *%rax
   180001c3e:	66 90                	xchg   %ax,%ax
   180001c40:	48 81 ec 08 01 00 00 	sub    $0x108,%rsp
   180001c47:	48 89 4c 24 30       	mov    %rcx,0x30(%rsp)
   180001c4c:	48 89 54 24 38       	mov    %rdx,0x38(%rsp)
   180001c51:	4c 89 44 24 40       	mov    %r8,0x40(%rsp)
   180001c56:	4c 89 4c 24 48       	mov    %r9,0x48(%rsp)
   180001c5b:	f3 0f 7f 44 24 50    	movdqu %xmm0,0x50(%rsp)
   180001c61:	f3 0f 7f 4c 24 60    	movdqu %xmm1,0x60(%rsp)
   180001c67:	f3 0f 7f 54 24 70    	movdqu %xmm2,0x70(%rsp)
   180001c6d:	f3 0f 7f 9c 24 80 00 	movdqu %xmm3,0x80(%rsp)
   180001c74:	00 00 
   180001c76:	f3 0f 7f a4 24 90 00 	movdqu %xmm4,0x90(%rsp)
   180001c7d:	00 00 
   180001c7f:	f3 0f 7f ac 24 a0 00 	movdqu %xmm5,0xa0(%rsp)
   180001c86:	00 00 
   180001c88:	48 8d 0d 01 5d 00 00 	lea    0x5d01(%rip),%rcx        # 0x180007990
   180001c8f:	e8 5e 34 00 00       	callq  0x1800050f2
   180001c94:	48 85 c0             	test   %rax,%rax
   180001c97:	75 0c                	jne    0x180001ca5
   180001c99:	48 8d 0d f0 5c 00 00 	lea    0x5cf0(%rip),%rcx        # 0x180007990
   180001ca0:	e8 47 34 00 00       	callq  0x1800050ec
   180001ca5:	48 8b c8             	mov    %rax,%rcx
   180001ca8:	48 8d 15 41 57 00 00 	lea    0x5741(%rip),%rdx        # 0x1800073f0
   180001caf:	e8 44 34 00 00       	callq  0x1800050f8
   180001cb4:	48 8b 4c 24 30       	mov    0x30(%rsp),%rcx
   180001cb9:	48 8b 54 24 38       	mov    0x38(%rsp),%rdx
   180001cbe:	4c 8b 44 24 40       	mov    0x40(%rsp),%r8
   180001cc3:	4c 8b 4c 24 48       	mov    0x48(%rsp),%r9
   180001cc8:	f3 0f 6f 44 24 50    	movdqu 0x50(%rsp),%xmm0
   180001cce:	f3 0f 6f 4c 24 60    	movdqu 0x60(%rsp),%xmm1
   180001cd4:	f3 0f 6f 54 24 70    	movdqu 0x70(%rsp),%xmm2
   180001cda:	f3 0f 6f 9c 24 80 00 	movdqu 0x80(%rsp),%xmm3
   180001ce1:	00 00 
   180001ce3:	f3 0f 6f a4 24 90 00 	movdqu 0x90(%rsp),%xmm4
   180001cea:	00 00 
   180001cec:	f3 0f 6f ac 24 a0 00 	movdqu 0xa0(%rsp),%xmm5
   180001cf3:	00 00 
   180001cf5:	48 81 c4 08 01 00 00 	add    $0x108,%rsp
   180001cfc:	ff e0                	jmpq   *%rax
   180001cfe:	66 90                	xchg   %ax,%ax
   180001d00:	48 81 ec 08 01 00 00 	sub    $0x108,%rsp
   180001d07:	48 89 4c 24 30       	mov    %rcx,0x30(%rsp)
   180001d0c:	48 89 54 24 38       	mov    %rdx,0x38(%rsp)
   180001d11:	4c 89 44 24 40       	mov    %r8,0x40(%rsp)
   180001d16:	4c 89 4c 24 48       	mov    %r9,0x48(%rsp)
   180001d1b:	f3 0f 7f 44 24 50    	movdqu %xmm0,0x50(%rsp)
   180001d21:	f3 0f 7f 4c 24 60    	movdqu %xmm1,0x60(%rsp)
   180001d27:	f3 0f 7f 54 24 70    	movdqu %xmm2,0x70(%rsp)
   180001d2d:	f3 0f 7f 9c 24 80 00 	movdqu %xmm3,0x80(%rsp)
   180001d34:	00 00 
   180001d36:	f3 0f 7f a4 24 90 00 	movdqu %xmm4,0x90(%rsp)
   180001d3d:	00 00 
   180001d3f:	f3 0f 7f ac 24 a0 00 	movdqu %xmm5,0xa0(%rsp)
   180001d46:	00 00 
   180001d48:	48 8d 0d 41 5c 00 00 	lea    0x5c41(%rip),%rcx        # 0x180007990
   180001d4f:	e8 9e 33 00 00       	callq  0x1800050f2
   180001d54:	48 85 c0             	test   %rax,%rax
   180001d57:	75 0c                	jne    0x180001d65
   180001d59:	48 8d 0d 30 5c 00 00 	lea    0x5c30(%rip),%rcx        # 0x180007990
   180001d60:	e8 87 33 00 00       	callq  0x1800050ec
   180001d65:	48 8b c8             	mov    %rax,%rcx
   180001d68:	48 8d 15 a1 56 00 00 	lea    0x56a1(%rip),%rdx        # 0x180007410
   180001d6f:	e8 84 33 00 00       	callq  0x1800050f8
   180001d74:	48 8b 4c 24 30       	mov    0x30(%rsp),%rcx
   180001d79:	48 8b 54 24 38       	mov    0x38(%rsp),%rdx
   180001d7e:	4c 8b 44 24 40       	mov    0x40(%rsp),%r8
   180001d83:	4c 8b 4c 24 48       	mov    0x48(%rsp),%r9
   180001d88:	f3 0f 6f 44 24 50    	movdqu 0x50(%rsp),%xmm0
   180001d8e:	f3 0f 6f 4c 24 60    	movdqu 0x60(%rsp),%xmm1
   180001d94:	f3 0f 6f 54 24 70    	movdqu 0x70(%rsp),%xmm2
   180001d9a:	f3 0f 6f 9c 24 80 00 	movdqu 0x80(%rsp),%xmm3
   180001da1:	00 00 
   180001da3:	f3 0f 6f a4 24 90 00 	movdqu 0x90(%rsp),%xmm4
   180001daa:	00 00 
   180001dac:	f3 0f 6f ac 24 a0 00 	movdqu 0xa0(%rsp),%xmm5
   180001db3:	00 00 
   180001db5:	48 81 c4 08 01 00 00 	add    $0x108,%rsp
   180001dbc:	ff e0                	jmpq   *%rax
   180001dbe:	66 90                	xchg   %ax,%ax
   180001dc0:	48 81 ec 08 01 00 00 	sub    $0x108,%rsp
   180001dc7:	48 89 4c 24 30       	mov    %rcx,0x30(%rsp)
   180001dcc:	48 89 54 24 38       	mov    %rdx,0x38(%rsp)
   180001dd1:	4c 89 44 24 40       	mov    %r8,0x40(%rsp)
   180001dd6:	4c 89 4c 24 48       	mov    %r9,0x48(%rsp)
   180001ddb:	f3 0f 7f 44 24 50    	movdqu %xmm0,0x50(%rsp)
   180001de1:	f3 0f 7f 4c 24 60    	movdqu %xmm1,0x60(%rsp)
   180001de7:	f3 0f 7f 54 24 70    	movdqu %xmm2,0x70(%rsp)
   180001ded:	f3 0f 7f 9c 24 80 00 	movdqu %xmm3,0x80(%rsp)
   180001df4:	00 00 
   180001df6:	f3 0f 7f a4 24 90 00 	movdqu %xmm4,0x90(%rsp)
   180001dfd:	00 00 
   180001dff:	f3 0f 7f ac 24 a0 00 	movdqu %xmm5,0xa0(%rsp)
   180001e06:	00 00 
   180001e08:	48 8d 0d 81 5b 00 00 	lea    0x5b81(%rip),%rcx        # 0x180007990
   180001e0f:	e8 de 32 00 00       	callq  0x1800050f2
   180001e14:	48 85 c0             	test   %rax,%rax
   180001e17:	75 0c                	jne    0x180001e25
   180001e19:	48 8d 0d 70 5b 00 00 	lea    0x5b70(%rip),%rcx        # 0x180007990
   180001e20:	e8 c7 32 00 00       	callq  0x1800050ec
   180001e25:	48 8b c8             	mov    %rax,%rcx
   180001e28:	48 8d 15 01 56 00 00 	lea    0x5601(%rip),%rdx        # 0x180007430
   180001e2f:	e8 c4 32 00 00       	callq  0x1800050f8
   180001e34:	48 8b 4c 24 30       	mov    0x30(%rsp),%rcx
   180001e39:	48 8b 54 24 38       	mov    0x38(%rsp),%rdx
   180001e3e:	4c 8b 44 24 40       	mov    0x40(%rsp),%r8
   180001e43:	4c 8b 4c 24 48       	mov    0x48(%rsp),%r9
   180001e48:	f3 0f 6f 44 24 50    	movdqu 0x50(%rsp),%xmm0
   180001e4e:	f3 0f 6f 4c 24 60    	movdqu 0x60(%rsp),%xmm1
   180001e54:	f3 0f 6f 54 24 70    	movdqu 0x70(%rsp),%xmm2
   180001e5a:	f3 0f 6f 9c 24 80 00 	movdqu 0x80(%rsp),%xmm3
   180001e61:	00 00 
   180001e63:	f3 0f 6f a4 24 90 00 	movdqu 0x90(%rsp),%xmm4
   180001e6a:	00 00 
   180001e6c:	f3 0f 6f ac 24 a0 00 	movdqu 0xa0(%rsp),%xmm5
   180001e73:	00 00 
   180001e75:	48 81 c4 08 01 00 00 	add    $0x108,%rsp
   180001e7c:	ff e0                	jmpq   *%rax
   180001e7e:	66 90                	xchg   %ax,%ax
   180001e80:	48 81 ec 08 01 00 00 	sub    $0x108,%rsp
   180001e87:	48 89 4c 24 30       	mov    %rcx,0x30(%rsp)
   180001e8c:	48 89 54 24 38       	mov    %rdx,0x38(%rsp)
   180001e91:	4c 89 44 24 40       	mov    %r8,0x40(%rsp)
   180001e96:	4c 89 4c 24 48       	mov    %r9,0x48(%rsp)
   180001e9b:	f3 0f 7f 44 24 50    	movdqu %xmm0,0x50(%rsp)
   180001ea1:	f3 0f 7f 4c 24 60    	movdqu %xmm1,0x60(%rsp)
   180001ea7:	f3 0f 7f 54 24 70    	movdqu %xmm2,0x70(%rsp)
   180001ead:	f3 0f 7f 9c 24 80 00 	movdqu %xmm3,0x80(%rsp)
   180001eb4:	00 00 
   180001eb6:	f3 0f 7f a4 24 90 00 	movdqu %xmm4,0x90(%rsp)
   180001ebd:	00 00 
   180001ebf:	f3 0f 7f ac 24 a0 00 	movdqu %xmm5,0xa0(%rsp)
   180001ec6:	00 00 
   180001ec8:	48 8d 0d c1 5a 00 00 	lea    0x5ac1(%rip),%rcx        # 0x180007990
   180001ecf:	e8 1e 32 00 00       	callq  0x1800050f2
   180001ed4:	48 85 c0             	test   %rax,%rax
   180001ed7:	75 0c                	jne    0x180001ee5
   180001ed9:	48 8d 0d b0 5a 00 00 	lea    0x5ab0(%rip),%rcx        # 0x180007990
   180001ee0:	e8 07 32 00 00       	callq  0x1800050ec
   180001ee5:	48 8b c8             	mov    %rax,%rcx
   180001ee8:	48 8d 15 61 55 00 00 	lea    0x5561(%rip),%rdx        # 0x180007450
   180001eef:	e8 04 32 00 00       	callq  0x1800050f8
   180001ef4:	48 8b 4c 24 30       	mov    0x30(%rsp),%rcx
   180001ef9:	48 8b 54 24 38       	mov    0x38(%rsp),%rdx
   180001efe:	4c 8b 44 24 40       	mov    0x40(%rsp),%r8
   180001f03:	4c 8b 4c 24 48       	mov    0x48(%rsp),%r9
   180001f08:	f3 0f 6f 44 24 50    	movdqu 0x50(%rsp),%xmm0
   180001f0e:	f3 0f 6f 4c 24 60    	movdqu 0x60(%rsp),%xmm1
   180001f14:	f3 0f 6f 54 24 70    	movdqu 0x70(%rsp),%xmm2
   180001f1a:	f3 0f 6f 9c 24 80 00 	movdqu 0x80(%rsp),%xmm3
   180001f21:	00 00 
   180001f23:	f3 0f 6f a4 24 90 00 	movdqu 0x90(%rsp),%xmm4
   180001f2a:	00 00 
   180001f2c:	f3 0f 6f ac 24 a0 00 	movdqu 0xa0(%rsp),%xmm5
   180001f33:	00 00 
   180001f35:	48 81 c4 08 01 00 00 	add    $0x108,%rsp
   180001f3c:	ff e0                	jmpq   *%rax
   180001f3e:	66 90                	xchg   %ax,%ax
   180001f40:	48 81 ec 08 01 00 00 	sub    $0x108,%rsp
   180001f47:	48 89 4c 24 30       	mov    %rcx,0x30(%rsp)
   180001f4c:	48 89 54 24 38       	mov    %rdx,0x38(%rsp)
   180001f51:	4c 89 44 24 40       	mov    %r8,0x40(%rsp)
   180001f56:	4c 89 4c 24 48       	mov    %r9,0x48(%rsp)
   180001f5b:	f3 0f 7f 44 24 50    	movdqu %xmm0,0x50(%rsp)
   180001f61:	f3 0f 7f 4c 24 60    	movdqu %xmm1,0x60(%rsp)
   180001f67:	f3 0f 7f 54 24 70    	movdqu %xmm2,0x70(%rsp)
   180001f6d:	f3 0f 7f 9c 24 80 00 	movdqu %xmm3,0x80(%rsp)
   180001f74:	00 00 
   180001f76:	f3 0f 7f a4 24 90 00 	movdqu %xmm4,0x90(%rsp)
   180001f7d:	00 00 
   180001f7f:	f3 0f 7f ac 24 a0 00 	movdqu %xmm5,0xa0(%rsp)
   180001f86:	00 00 
   180001f88:	48 8d 0d 01 5a 00 00 	lea    0x5a01(%rip),%rcx        # 0x180007990
   180001f8f:	e8 5e 31 00 00       	callq  0x1800050f2
   180001f94:	48 85 c0             	test   %rax,%rax
   180001f97:	75 0c                	jne    0x180001fa5
   180001f99:	48 8d 0d f0 59 00 00 	lea    0x59f0(%rip),%rcx        # 0x180007990
   180001fa0:	e8 47 31 00 00       	callq  0x1800050ec
   180001fa5:	48 8b c8             	mov    %rax,%rcx
   180001fa8:	48 8d 15 c1 54 00 00 	lea    0x54c1(%rip),%rdx        # 0x180007470
   180001faf:	e8 44 31 00 00       	callq  0x1800050f8
   180001fb4:	48 8b 4c 24 30       	mov    0x30(%rsp),%rcx
   180001fb9:	48 8b 54 24 38       	mov    0x38(%rsp),%rdx
   180001fbe:	4c 8b 44 24 40       	mov    0x40(%rsp),%r8
   180001fc3:	4c 8b 4c 24 48       	mov    0x48(%rsp),%r9
   180001fc8:	f3 0f 6f 44 24 50    	movdqu 0x50(%rsp),%xmm0
   180001fce:	f3 0f 6f 4c 24 60    	movdqu 0x60(%rsp),%xmm1
   180001fd4:	f3 0f 6f 54 24 70    	movdqu 0x70(%rsp),%xmm2
   180001fda:	f3 0f 6f 9c 24 80 00 	movdqu 0x80(%rsp),%xmm3
   180001fe1:	00 00 
   180001fe3:	f3 0f 6f a4 24 90 00 	movdqu 0x90(%rsp),%xmm4
   180001fea:	00 00 
   180001fec:	f3 0f 6f ac 24 a0 00 	movdqu 0xa0(%rsp),%xmm5
   180001ff3:	00 00 
   180001ff5:	48 81 c4 08 01 00 00 	add    $0x108,%rsp
   180001ffc:	ff e0                	jmpq   *%rax
   180001ffe:	66 90                	xchg   %ax,%ax
   180002000:	48 81 ec 08 01 00 00 	sub    $0x108,%rsp
   180002007:	48 89 4c 24 30       	mov    %rcx,0x30(%rsp)
   18000200c:	48 89 54 24 38       	mov    %rdx,0x38(%rsp)
   180002011:	4c 89 44 24 40       	mov    %r8,0x40(%rsp)
   180002016:	4c 89 4c 24 48       	mov    %r9,0x48(%rsp)
   18000201b:	f3 0f 7f 44 24 50    	movdqu %xmm0,0x50(%rsp)
   180002021:	f3 0f 7f 4c 24 60    	movdqu %xmm1,0x60(%rsp)
   180002027:	f3 0f 7f 54 24 70    	movdqu %xmm2,0x70(%rsp)
   18000202d:	f3 0f 7f 9c 24 80 00 	movdqu %xmm3,0x80(%rsp)
   180002034:	00 00 
   180002036:	f3 0f 7f a4 24 90 00 	movdqu %xmm4,0x90(%rsp)
   18000203d:	00 00 
   18000203f:	f3 0f 7f ac 24 a0 00 	movdqu %xmm5,0xa0(%rsp)
   180002046:	00 00 
   180002048:	48 8d 0d 41 59 00 00 	lea    0x5941(%rip),%rcx        # 0x180007990
   18000204f:	e8 9e 30 00 00       	callq  0x1800050f2
   180002054:	48 85 c0             	test   %rax,%rax
   180002057:	75 0c                	jne    0x180002065
   180002059:	48 8d 0d 30 59 00 00 	lea    0x5930(%rip),%rcx        # 0x180007990
   180002060:	e8 87 30 00 00       	callq  0x1800050ec
   180002065:	48 8b c8             	mov    %rax,%rcx
   180002068:	48 8d 15 21 54 00 00 	lea    0x5421(%rip),%rdx        # 0x180007490
   18000206f:	e8 84 30 00 00       	callq  0x1800050f8
   180002074:	48 8b 4c 24 30       	mov    0x30(%rsp),%rcx
   180002079:	48 8b 54 24 38       	mov    0x38(%rsp),%rdx
   18000207e:	4c 8b 44 24 40       	mov    0x40(%rsp),%r8
   180002083:	4c 8b 4c 24 48       	mov    0x48(%rsp),%r9
   180002088:	f3 0f 6f 44 24 50    	movdqu 0x50(%rsp),%xmm0
   18000208e:	f3 0f 6f 4c 24 60    	movdqu 0x60(%rsp),%xmm1
   180002094:	f3 0f 6f 54 24 70    	movdqu 0x70(%rsp),%xmm2
   18000209a:	f3 0f 6f 9c 24 80 00 	movdqu 0x80(%rsp),%xmm3
   1800020a1:	00 00 
   1800020a3:	f3 0f 6f a4 24 90 00 	movdqu 0x90(%rsp),%xmm4
   1800020aa:	00 00 
   1800020ac:	f3 0f 6f ac 24 a0 00 	movdqu 0xa0(%rsp),%xmm5
   1800020b3:	00 00 
   1800020b5:	48 81 c4 08 01 00 00 	add    $0x108,%rsp
   1800020bc:	ff e0                	jmpq   *%rax
   1800020be:	66 90                	xchg   %ax,%ax
   1800020c0:	48 81 ec 08 01 00 00 	sub    $0x108,%rsp
   1800020c7:	48 89 4c 24 30       	mov    %rcx,0x30(%rsp)
   1800020cc:	48 89 54 24 38       	mov    %rdx,0x38(%rsp)
   1800020d1:	4c 89 44 24 40       	mov    %r8,0x40(%rsp)
   1800020d6:	4c 89 4c 24 48       	mov    %r9,0x48(%rsp)
   1800020db:	f3 0f 7f 44 24 50    	movdqu %xmm0,0x50(%rsp)
   1800020e1:	f3 0f 7f 4c 24 60    	movdqu %xmm1,0x60(%rsp)
   1800020e7:	f3 0f 7f 54 24 70    	movdqu %xmm2,0x70(%rsp)
   1800020ed:	f3 0f 7f 9c 24 80 00 	movdqu %xmm3,0x80(%rsp)
   1800020f4:	00 00 
   1800020f6:	f3 0f 7f a4 24 90 00 	movdqu %xmm4,0x90(%rsp)
   1800020fd:	00 00 
   1800020ff:	f3 0f 7f ac 24 a0 00 	movdqu %xmm5,0xa0(%rsp)
   180002106:	00 00 
   180002108:	48 8d 0d 81 58 00 00 	lea    0x5881(%rip),%rcx        # 0x180007990
   18000210f:	e8 de 2f 00 00       	callq  0x1800050f2
   180002114:	48 85 c0             	test   %rax,%rax
   180002117:	75 0c                	jne    0x180002125
   180002119:	48 8d 0d 70 58 00 00 	lea    0x5870(%rip),%rcx        # 0x180007990
   180002120:	e8 c7 2f 00 00       	callq  0x1800050ec
   180002125:	48 8b c8             	mov    %rax,%rcx
   180002128:	48 8d 15 81 53 00 00 	lea    0x5381(%rip),%rdx        # 0x1800074b0
   18000212f:	e8 c4 2f 00 00       	callq  0x1800050f8
   180002134:	48 8b 4c 24 30       	mov    0x30(%rsp),%rcx
   180002139:	48 8b 54 24 38       	mov    0x38(%rsp),%rdx
   18000213e:	4c 8b 44 24 40       	mov    0x40(%rsp),%r8
   180002143:	4c 8b 4c 24 48       	mov    0x48(%rsp),%r9
   180002148:	f3 0f 6f 44 24 50    	movdqu 0x50(%rsp),%xmm0
   18000214e:	f3 0f 6f 4c 24 60    	movdqu 0x60(%rsp),%xmm1
   180002154:	f3 0f 6f 54 24 70    	movdqu 0x70(%rsp),%xmm2
   18000215a:	f3 0f 6f 9c 24 80 00 	movdqu 0x80(%rsp),%xmm3
   180002161:	00 00 
   180002163:	f3 0f 6f a4 24 90 00 	movdqu 0x90(%rsp),%xmm4
   18000216a:	00 00 
   18000216c:	f3 0f 6f ac 24 a0 00 	movdqu 0xa0(%rsp),%xmm5
   180002173:	00 00 
   180002175:	48 81 c4 08 01 00 00 	add    $0x108,%rsp
   18000217c:	ff e0                	jmpq   *%rax
   18000217e:	66 90                	xchg   %ax,%ax
   180002180:	48 81 ec 08 01 00 00 	sub    $0x108,%rsp
   180002187:	48 89 4c 24 30       	mov    %rcx,0x30(%rsp)
   18000218c:	48 89 54 24 38       	mov    %rdx,0x38(%rsp)
   180002191:	4c 89 44 24 40       	mov    %r8,0x40(%rsp)
   180002196:	4c 89 4c 24 48       	mov    %r9,0x48(%rsp)
   18000219b:	f3 0f 7f 44 24 50    	movdqu %xmm0,0x50(%rsp)
   1800021a1:	f3 0f 7f 4c 24 60    	movdqu %xmm1,0x60(%rsp)
   1800021a7:	f3 0f 7f 54 24 70    	movdqu %xmm2,0x70(%rsp)
   1800021ad:	f3 0f 7f 9c 24 80 00 	movdqu %xmm3,0x80(%rsp)
   1800021b4:	00 00 
   1800021b6:	f3 0f 7f a4 24 90 00 	movdqu %xmm4,0x90(%rsp)
   1800021bd:	00 00 
   1800021bf:	f3 0f 7f ac 24 a0 00 	movdqu %xmm5,0xa0(%rsp)
   1800021c6:	00 00 
   1800021c8:	48 8d 0d c1 57 00 00 	lea    0x57c1(%rip),%rcx        # 0x180007990
   1800021cf:	e8 1e 2f 00 00       	callq  0x1800050f2
   1800021d4:	48 85 c0             	test   %rax,%rax
   1800021d7:	75 0c                	jne    0x1800021e5
   1800021d9:	48 8d 0d b0 57 00 00 	lea    0x57b0(%rip),%rcx        # 0x180007990
   1800021e0:	e8 07 2f 00 00       	callq  0x1800050ec
   1800021e5:	48 8b c8             	mov    %rax,%rcx
   1800021e8:	48 8d 15 e1 52 00 00 	lea    0x52e1(%rip),%rdx        # 0x1800074d0
   1800021ef:	e8 04 2f 00 00       	callq  0x1800050f8
   1800021f4:	48 8b 4c 24 30       	mov    0x30(%rsp),%rcx
   1800021f9:	48 8b 54 24 38       	mov    0x38(%rsp),%rdx
   1800021fe:	4c 8b 44 24 40       	mov    0x40(%rsp),%r8
   180002203:	4c 8b 4c 24 48       	mov    0x48(%rsp),%r9
   180002208:	f3 0f 6f 44 24 50    	movdqu 0x50(%rsp),%xmm0
   18000220e:	f3 0f 6f 4c 24 60    	movdqu 0x60(%rsp),%xmm1
   180002214:	f3 0f 6f 54 24 70    	movdqu 0x70(%rsp),%xmm2
   18000221a:	f3 0f 6f 9c 24 80 00 	movdqu 0x80(%rsp),%xmm3
   180002221:	00 00 
   180002223:	f3 0f 6f a4 24 90 00 	movdqu 0x90(%rsp),%xmm4
   18000222a:	00 00 
   18000222c:	f3 0f 6f ac 24 a0 00 	movdqu 0xa0(%rsp),%xmm5
   180002233:	00 00 
   180002235:	48 81 c4 08 01 00 00 	add    $0x108,%rsp
   18000223c:	ff e0                	jmpq   *%rax
   18000223e:	66 90                	xchg   %ax,%ax
   180002240:	48 81 ec 08 01 00 00 	sub    $0x108,%rsp
   180002247:	48 89 4c 24 30       	mov    %rcx,0x30(%rsp)
   18000224c:	48 89 54 24 38       	mov    %rdx,0x38(%rsp)
   180002251:	4c 89 44 24 40       	mov    %r8,0x40(%rsp)
   180002256:	4c 89 4c 24 48       	mov    %r9,0x48(%rsp)
   18000225b:	f3 0f 7f 44 24 50    	movdqu %xmm0,0x50(%rsp)
   180002261:	f3 0f 7f 4c 24 60    	movdqu %xmm1,0x60(%rsp)
   180002267:	f3 0f 7f 54 24 70    	movdqu %xmm2,0x70(%rsp)
   18000226d:	f3 0f 7f 9c 24 80 00 	movdqu %xmm3,0x80(%rsp)
   180002274:	00 00 
   180002276:	f3 0f 7f a4 24 90 00 	movdqu %xmm4,0x90(%rsp)
   18000227d:	00 00 
   18000227f:	f3 0f 7f ac 24 a0 00 	movdqu %xmm5,0xa0(%rsp)
   180002286:	00 00 
   180002288:	48 8d 0d 01 57 00 00 	lea    0x5701(%rip),%rcx        # 0x180007990
   18000228f:	e8 5e 2e 00 00       	callq  0x1800050f2
   180002294:	48 85 c0             	test   %rax,%rax
   180002297:	75 0c                	jne    0x1800022a5
   180002299:	48 8d 0d f0 56 00 00 	lea    0x56f0(%rip),%rcx        # 0x180007990
   1800022a0:	e8 47 2e 00 00       	callq  0x1800050ec
   1800022a5:	48 8b c8             	mov    %rax,%rcx
   1800022a8:	48 8d 15 41 52 00 00 	lea    0x5241(%rip),%rdx        # 0x1800074f0
   1800022af:	e8 44 2e 00 00       	callq  0x1800050f8
   1800022b4:	48 8b 4c 24 30       	mov    0x30(%rsp),%rcx
   1800022b9:	48 8b 54 24 38       	mov    0x38(%rsp),%rdx
   1800022be:	4c 8b 44 24 40       	mov    0x40(%rsp),%r8
   1800022c3:	4c 8b 4c 24 48       	mov    0x48(%rsp),%r9
   1800022c8:	f3 0f 6f 44 24 50    	movdqu 0x50(%rsp),%xmm0
   1800022ce:	f3 0f 6f 4c 24 60    	movdqu 0x60(%rsp),%xmm1
   1800022d4:	f3 0f 6f 54 24 70    	movdqu 0x70(%rsp),%xmm2
   1800022da:	f3 0f 6f 9c 24 80 00 	movdqu 0x80(%rsp),%xmm3
   1800022e1:	00 00 
   1800022e3:	f3 0f 6f a4 24 90 00 	movdqu 0x90(%rsp),%xmm4
   1800022ea:	00 00 
   1800022ec:	f3 0f 6f ac 24 a0 00 	movdqu 0xa0(%rsp),%xmm5
   1800022f3:	00 00 
   1800022f5:	48 81 c4 08 01 00 00 	add    $0x108,%rsp
   1800022fc:	ff e0                	jmpq   *%rax
   1800022fe:	66 90                	xchg   %ax,%ax
   180002300:	48 81 ec 08 01 00 00 	sub    $0x108,%rsp
   180002307:	48 89 4c 24 30       	mov    %rcx,0x30(%rsp)
   18000230c:	48 89 54 24 38       	mov    %rdx,0x38(%rsp)
   180002311:	4c 89 44 24 40       	mov    %r8,0x40(%rsp)
   180002316:	4c 89 4c 24 48       	mov    %r9,0x48(%rsp)
   18000231b:	f3 0f 7f 44 24 50    	movdqu %xmm0,0x50(%rsp)
   180002321:	f3 0f 7f 4c 24 60    	movdqu %xmm1,0x60(%rsp)
   180002327:	f3 0f 7f 54 24 70    	movdqu %xmm2,0x70(%rsp)
   18000232d:	f3 0f 7f 9c 24 80 00 	movdqu %xmm3,0x80(%rsp)
   180002334:	00 00 
   180002336:	f3 0f 7f a4 24 90 00 	movdqu %xmm4,0x90(%rsp)
   18000233d:	00 00 
   18000233f:	f3 0f 7f ac 24 a0 00 	movdqu %xmm5,0xa0(%rsp)
   180002346:	00 00 
   180002348:	48 8d 0d 41 56 00 00 	lea    0x5641(%rip),%rcx        # 0x180007990
   18000234f:	e8 9e 2d 00 00       	callq  0x1800050f2
   180002354:	48 85 c0             	test   %rax,%rax
   180002357:	75 0c                	jne    0x180002365
   180002359:	48 8d 0d 30 56 00 00 	lea    0x5630(%rip),%rcx        # 0x180007990
   180002360:	e8 87 2d 00 00       	callq  0x1800050ec
   180002365:	48 8b c8             	mov    %rax,%rcx
   180002368:	48 8d 15 a1 51 00 00 	lea    0x51a1(%rip),%rdx        # 0x180007510
   18000236f:	e8 84 2d 00 00       	callq  0x1800050f8
   180002374:	48 8b 4c 24 30       	mov    0x30(%rsp),%rcx
   180002379:	48 8b 54 24 38       	mov    0x38(%rsp),%rdx
   18000237e:	4c 8b 44 24 40       	mov    0x40(%rsp),%r8
   180002383:	4c 8b 4c 24 48       	mov    0x48(%rsp),%r9
   180002388:	f3 0f 6f 44 24 50    	movdqu 0x50(%rsp),%xmm0
   18000238e:	f3 0f 6f 4c 24 60    	movdqu 0x60(%rsp),%xmm1
   180002394:	f3 0f 6f 54 24 70    	movdqu 0x70(%rsp),%xmm2
   18000239a:	f3 0f 6f 9c 24 80 00 	movdqu 0x80(%rsp),%xmm3
   1800023a1:	00 00 
   1800023a3:	f3 0f 6f a4 24 90 00 	movdqu 0x90(%rsp),%xmm4
   1800023aa:	00 00 
   1800023ac:	f3 0f 6f ac 24 a0 00 	movdqu 0xa0(%rsp),%xmm5
   1800023b3:	00 00 
   1800023b5:	48 81 c4 08 01 00 00 	add    $0x108,%rsp
   1800023bc:	ff e0                	jmpq   *%rax
   1800023be:	66 90                	xchg   %ax,%ax
   1800023c0:	48 81 ec 08 01 00 00 	sub    $0x108,%rsp
   1800023c7:	48 89 4c 24 30       	mov    %rcx,0x30(%rsp)
   1800023cc:	48 89 54 24 38       	mov    %rdx,0x38(%rsp)
   1800023d1:	4c 89 44 24 40       	mov    %r8,0x40(%rsp)
   1800023d6:	4c 89 4c 24 48       	mov    %r9,0x48(%rsp)
   1800023db:	f3 0f 7f 44 24 50    	movdqu %xmm0,0x50(%rsp)
   1800023e1:	f3 0f 7f 4c 24 60    	movdqu %xmm1,0x60(%rsp)
   1800023e7:	f3 0f 7f 54 24 70    	movdqu %xmm2,0x70(%rsp)
   1800023ed:	f3 0f 7f 9c 24 80 00 	movdqu %xmm3,0x80(%rsp)
   1800023f4:	00 00 
   1800023f6:	f3 0f 7f a4 24 90 00 	movdqu %xmm4,0x90(%rsp)
   1800023fd:	00 00 
   1800023ff:	f3 0f 7f ac 24 a0 00 	movdqu %xmm5,0xa0(%rsp)
   180002406:	00 00 
   180002408:	48 8d 0d 81 55 00 00 	lea    0x5581(%rip),%rcx        # 0x180007990
   18000240f:	e8 de 2c 00 00       	callq  0x1800050f2
   180002414:	48 85 c0             	test   %rax,%rax
   180002417:	75 0c                	jne    0x180002425
   180002419:	48 8d 0d 70 55 00 00 	lea    0x5570(%rip),%rcx        # 0x180007990
   180002420:	e8 c7 2c 00 00       	callq  0x1800050ec
   180002425:	48 8b c8             	mov    %rax,%rcx
   180002428:	48 8d 15 01 51 00 00 	lea    0x5101(%rip),%rdx        # 0x180007530
   18000242f:	e8 c4 2c 00 00       	callq  0x1800050f8
   180002434:	48 8b 4c 24 30       	mov    0x30(%rsp),%rcx
   180002439:	48 8b 54 24 38       	mov    0x38(%rsp),%rdx
   18000243e:	4c 8b 44 24 40       	mov    0x40(%rsp),%r8
   180002443:	4c 8b 4c 24 48       	mov    0x48(%rsp),%r9
   180002448:	f3 0f 6f 44 24 50    	movdqu 0x50(%rsp),%xmm0
   18000244e:	f3 0f 6f 4c 24 60    	movdqu 0x60(%rsp),%xmm1
   180002454:	f3 0f 6f 54 24 70    	movdqu 0x70(%rsp),%xmm2
   18000245a:	f3 0f 6f 9c 24 80 00 	movdqu 0x80(%rsp),%xmm3
   180002461:	00 00 
   180002463:	f3 0f 6f a4 24 90 00 	movdqu 0x90(%rsp),%xmm4
   18000246a:	00 00 
   18000246c:	f3 0f 6f ac 24 a0 00 	movdqu 0xa0(%rsp),%xmm5
   180002473:	00 00 
   180002475:	48 81 c4 08 01 00 00 	add    $0x108,%rsp
   18000247c:	ff e0                	jmpq   *%rax
   18000247e:	66 90                	xchg   %ax,%ax
   180002480:	48 81 ec 08 01 00 00 	sub    $0x108,%rsp
   180002487:	48 89 4c 24 30       	mov    %rcx,0x30(%rsp)
   18000248c:	48 89 54 24 38       	mov    %rdx,0x38(%rsp)
   180002491:	4c 89 44 24 40       	mov    %r8,0x40(%rsp)
   180002496:	4c 89 4c 24 48       	mov    %r9,0x48(%rsp)
   18000249b:	f3 0f 7f 44 24 50    	movdqu %xmm0,0x50(%rsp)
   1800024a1:	f3 0f 7f 4c 24 60    	movdqu %xmm1,0x60(%rsp)
   1800024a7:	f3 0f 7f 54 24 70    	movdqu %xmm2,0x70(%rsp)
   1800024ad:	f3 0f 7f 9c 24 80 00 	movdqu %xmm3,0x80(%rsp)
   1800024b4:	00 00 
   1800024b6:	f3 0f 7f a4 24 90 00 	movdqu %xmm4,0x90(%rsp)
   1800024bd:	00 00 
   1800024bf:	f3 0f 7f ac 24 a0 00 	movdqu %xmm5,0xa0(%rsp)
   1800024c6:	00 00 
   1800024c8:	48 8d 0d c1 54 00 00 	lea    0x54c1(%rip),%rcx        # 0x180007990
   1800024cf:	e8 1e 2c 00 00       	callq  0x1800050f2
   1800024d4:	48 85 c0             	test   %rax,%rax
   1800024d7:	75 0c                	jne    0x1800024e5
   1800024d9:	48 8d 0d b0 54 00 00 	lea    0x54b0(%rip),%rcx        # 0x180007990
   1800024e0:	e8 07 2c 00 00       	callq  0x1800050ec
   1800024e5:	48 8b c8             	mov    %rax,%rcx
   1800024e8:	48 8d 15 61 50 00 00 	lea    0x5061(%rip),%rdx        # 0x180007550
   1800024ef:	e8 04 2c 00 00       	callq  0x1800050f8
   1800024f4:	48 8b 4c 24 30       	mov    0x30(%rsp),%rcx
   1800024f9:	48 8b 54 24 38       	mov    0x38(%rsp),%rdx
   1800024fe:	4c 8b 44 24 40       	mov    0x40(%rsp),%r8
   180002503:	4c 8b 4c 24 48       	mov    0x48(%rsp),%r9
   180002508:	f3 0f 6f 44 24 50    	movdqu 0x50(%rsp),%xmm0
   18000250e:	f3 0f 6f 4c 24 60    	movdqu 0x60(%rsp),%xmm1
   180002514:	f3 0f 6f 54 24 70    	movdqu 0x70(%rsp),%xmm2
   18000251a:	f3 0f 6f 9c 24 80 00 	movdqu 0x80(%rsp),%xmm3
   180002521:	00 00 
   180002523:	f3 0f 6f a4 24 90 00 	movdqu 0x90(%rsp),%xmm4
   18000252a:	00 00 
   18000252c:	f3 0f 6f ac 24 a0 00 	movdqu 0xa0(%rsp),%xmm5
   180002533:	00 00 
   180002535:	48 81 c4 08 01 00 00 	add    $0x108,%rsp
   18000253c:	ff e0                	jmpq   *%rax
   18000253e:	66 90                	xchg   %ax,%ax
   180002540:	48 81 ec 08 01 00 00 	sub    $0x108,%rsp
   180002547:	48 89 4c 24 30       	mov    %rcx,0x30(%rsp)
   18000254c:	48 89 54 24 38       	mov    %rdx,0x38(%rsp)
   180002551:	4c 89 44 24 40       	mov    %r8,0x40(%rsp)
   180002556:	4c 89 4c 24 48       	mov    %r9,0x48(%rsp)
   18000255b:	f3 0f 7f 44 24 50    	movdqu %xmm0,0x50(%rsp)
   180002561:	f3 0f 7f 4c 24 60    	movdqu %xmm1,0x60(%rsp)
   180002567:	f3 0f 7f 54 24 70    	movdqu %xmm2,0x70(%rsp)
   18000256d:	f3 0f 7f 9c 24 80 00 	movdqu %xmm3,0x80(%rsp)
   180002574:	00 00 
   180002576:	f3 0f 7f a4 24 90 00 	movdqu %xmm4,0x90(%rsp)
   18000257d:	00 00 
   18000257f:	f3 0f 7f ac 24 a0 00 	movdqu %xmm5,0xa0(%rsp)
   180002586:	00 00 
   180002588:	48 8d 0d 01 54 00 00 	lea    0x5401(%rip),%rcx        # 0x180007990
   18000258f:	e8 5e 2b 00 00       	callq  0x1800050f2
   180002594:	48 85 c0             	test   %rax,%rax
   180002597:	75 0c                	jne    0x1800025a5
   180002599:	48 8d 0d f0 53 00 00 	lea    0x53f0(%rip),%rcx        # 0x180007990
   1800025a0:	e8 47 2b 00 00       	callq  0x1800050ec
   1800025a5:	48 8b c8             	mov    %rax,%rcx
   1800025a8:	48 8d 15 c1 4f 00 00 	lea    0x4fc1(%rip),%rdx        # 0x180007570
   1800025af:	e8 44 2b 00 00       	callq  0x1800050f8
   1800025b4:	48 8b 4c 24 30       	mov    0x30(%rsp),%rcx
   1800025b9:	48 8b 54 24 38       	mov    0x38(%rsp),%rdx
   1800025be:	4c 8b 44 24 40       	mov    0x40(%rsp),%r8
   1800025c3:	4c 8b 4c 24 48       	mov    0x48(%rsp),%r9
   1800025c8:	f3 0f 6f 44 24 50    	movdqu 0x50(%rsp),%xmm0
   1800025ce:	f3 0f 6f 4c 24 60    	movdqu 0x60(%rsp),%xmm1
   1800025d4:	f3 0f 6f 54 24 70    	movdqu 0x70(%rsp),%xmm2
   1800025da:	f3 0f 6f 9c 24 80 00 	movdqu 0x80(%rsp),%xmm3
   1800025e1:	00 00 
   1800025e3:	f3 0f 6f a4 24 90 00 	movdqu 0x90(%rsp),%xmm4
   1800025ea:	00 00 
   1800025ec:	f3 0f 6f ac 24 a0 00 	movdqu 0xa0(%rsp),%xmm5
   1800025f3:	00 00 
   1800025f5:	48 81 c4 08 01 00 00 	add    $0x108,%rsp
   1800025fc:	ff e0                	jmpq   *%rax
   1800025fe:	66 90                	xchg   %ax,%ax
   180002600:	48 81 ec 08 01 00 00 	sub    $0x108,%rsp
   180002607:	48 89 4c 24 30       	mov    %rcx,0x30(%rsp)
   18000260c:	48 89 54 24 38       	mov    %rdx,0x38(%rsp)
   180002611:	4c 89 44 24 40       	mov    %r8,0x40(%rsp)
   180002616:	4c 89 4c 24 48       	mov    %r9,0x48(%rsp)
   18000261b:	f3 0f 7f 44 24 50    	movdqu %xmm0,0x50(%rsp)
   180002621:	f3 0f 7f 4c 24 60    	movdqu %xmm1,0x60(%rsp)
   180002627:	f3 0f 7f 54 24 70    	movdqu %xmm2,0x70(%rsp)
   18000262d:	f3 0f 7f 9c 24 80 00 	movdqu %xmm3,0x80(%rsp)
   180002634:	00 00 
   180002636:	f3 0f 7f a4 24 90 00 	movdqu %xmm4,0x90(%rsp)
   18000263d:	00 00 
   18000263f:	f3 0f 7f ac 24 a0 00 	movdqu %xmm5,0xa0(%rsp)
   180002646:	00 00 
   180002648:	48 8d 0d 41 53 00 00 	lea    0x5341(%rip),%rcx        # 0x180007990
   18000264f:	e8 9e 2a 00 00       	callq  0x1800050f2
   180002654:	48 85 c0             	test   %rax,%rax
   180002657:	75 0c                	jne    0x180002665
   180002659:	48 8d 0d 30 53 00 00 	lea    0x5330(%rip),%rcx        # 0x180007990
   180002660:	e8 87 2a 00 00       	callq  0x1800050ec
   180002665:	48 8b c8             	mov    %rax,%rcx
   180002668:	48 8d 15 21 4f 00 00 	lea    0x4f21(%rip),%rdx        # 0x180007590
   18000266f:	e8 84 2a 00 00       	callq  0x1800050f8
   180002674:	48 8b 4c 24 30       	mov    0x30(%rsp),%rcx
   180002679:	48 8b 54 24 38       	mov    0x38(%rsp),%rdx
   18000267e:	4c 8b 44 24 40       	mov    0x40(%rsp),%r8
   180002683:	4c 8b 4c 24 48       	mov    0x48(%rsp),%r9
   180002688:	f3 0f 6f 44 24 50    	movdqu 0x50(%rsp),%xmm0
   18000268e:	f3 0f 6f 4c 24 60    	movdqu 0x60(%rsp),%xmm1
   180002694:	f3 0f 6f 54 24 70    	movdqu 0x70(%rsp),%xmm2
   18000269a:	f3 0f 6f 9c 24 80 00 	movdqu 0x80(%rsp),%xmm3
   1800026a1:	00 00 
   1800026a3:	f3 0f 6f a4 24 90 00 	movdqu 0x90(%rsp),%xmm4
   1800026aa:	00 00 
   1800026ac:	f3 0f 6f ac 24 a0 00 	movdqu 0xa0(%rsp),%xmm5
   1800026b3:	00 00 
   1800026b5:	48 81 c4 08 01 00 00 	add    $0x108,%rsp
   1800026bc:	ff e0                	jmpq   *%rax
   1800026be:	66 90                	xchg   %ax,%ax
   1800026c0:	48 81 ec 08 01 00 00 	sub    $0x108,%rsp
   1800026c7:	48 89 4c 24 30       	mov    %rcx,0x30(%rsp)
   1800026cc:	48 89 54 24 38       	mov    %rdx,0x38(%rsp)
   1800026d1:	4c 89 44 24 40       	mov    %r8,0x40(%rsp)
   1800026d6:	4c 89 4c 24 48       	mov    %r9,0x48(%rsp)
   1800026db:	f3 0f 7f 44 24 50    	movdqu %xmm0,0x50(%rsp)
   1800026e1:	f3 0f 7f 4c 24 60    	movdqu %xmm1,0x60(%rsp)
   1800026e7:	f3 0f 7f 54 24 70    	movdqu %xmm2,0x70(%rsp)
   1800026ed:	f3 0f 7f 9c 24 80 00 	movdqu %xmm3,0x80(%rsp)
   1800026f4:	00 00 
   1800026f6:	f3 0f 7f a4 24 90 00 	movdqu %xmm4,0x90(%rsp)
   1800026fd:	00 00 
   1800026ff:	f3 0f 7f ac 24 a0 00 	movdqu %xmm5,0xa0(%rsp)
   180002706:	00 00 
   180002708:	48 8d 0d 81 52 00 00 	lea    0x5281(%rip),%rcx        # 0x180007990
   18000270f:	e8 de 29 00 00       	callq  0x1800050f2
   180002714:	48 85 c0             	test   %rax,%rax
   180002717:	75 0c                	jne    0x180002725
   180002719:	48 8d 0d 70 52 00 00 	lea    0x5270(%rip),%rcx        # 0x180007990
   180002720:	e8 c7 29 00 00       	callq  0x1800050ec
   180002725:	48 8b c8             	mov    %rax,%rcx
   180002728:	48 8d 15 81 4e 00 00 	lea    0x4e81(%rip),%rdx        # 0x1800075b0
   18000272f:	e8 c4 29 00 00       	callq  0x1800050f8
   180002734:	48 8b 4c 24 30       	mov    0x30(%rsp),%rcx
   180002739:	48 8b 54 24 38       	mov    0x38(%rsp),%rdx
   18000273e:	4c 8b 44 24 40       	mov    0x40(%rsp),%r8
   180002743:	4c 8b 4c 24 48       	mov    0x48(%rsp),%r9
   180002748:	f3 0f 6f 44 24 50    	movdqu 0x50(%rsp),%xmm0
   18000274e:	f3 0f 6f 4c 24 60    	movdqu 0x60(%rsp),%xmm1
   180002754:	f3 0f 6f 54 24 70    	movdqu 0x70(%rsp),%xmm2
   18000275a:	f3 0f 6f 9c 24 80 00 	movdqu 0x80(%rsp),%xmm3
   180002761:	00 00 
   180002763:	f3 0f 6f a4 24 90 00 	movdqu 0x90(%rsp),%xmm4
   18000276a:	00 00 
   18000276c:	f3 0f 6f ac 24 a0 00 	movdqu 0xa0(%rsp),%xmm5
   180002773:	00 00 
   180002775:	48 81 c4 08 01 00 00 	add    $0x108,%rsp
   18000277c:	ff e0                	jmpq   *%rax
   18000277e:	66 90                	xchg   %ax,%ax
   180002780:	48 81 ec 08 01 00 00 	sub    $0x108,%rsp
   180002787:	48 89 4c 24 30       	mov    %rcx,0x30(%rsp)
   18000278c:	48 89 54 24 38       	mov    %rdx,0x38(%rsp)
   180002791:	4c 89 44 24 40       	mov    %r8,0x40(%rsp)
   180002796:	4c 89 4c 24 48       	mov    %r9,0x48(%rsp)
   18000279b:	f3 0f 7f 44 24 50    	movdqu %xmm0,0x50(%rsp)
   1800027a1:	f3 0f 7f 4c 24 60    	movdqu %xmm1,0x60(%rsp)
   1800027a7:	f3 0f 7f 54 24 70    	movdqu %xmm2,0x70(%rsp)
   1800027ad:	f3 0f 7f 9c 24 80 00 	movdqu %xmm3,0x80(%rsp)
   1800027b4:	00 00 
   1800027b6:	f3 0f 7f a4 24 90 00 	movdqu %xmm4,0x90(%rsp)
   1800027bd:	00 00 
   1800027bf:	f3 0f 7f ac 24 a0 00 	movdqu %xmm5,0xa0(%rsp)
   1800027c6:	00 00 
   1800027c8:	48 8d 0d c1 51 00 00 	lea    0x51c1(%rip),%rcx        # 0x180007990
   1800027cf:	e8 1e 29 00 00       	callq  0x1800050f2
   1800027d4:	48 85 c0             	test   %rax,%rax
   1800027d7:	75 0c                	jne    0x1800027e5
   1800027d9:	48 8d 0d b0 51 00 00 	lea    0x51b0(%rip),%rcx        # 0x180007990
   1800027e0:	e8 07 29 00 00       	callq  0x1800050ec
   1800027e5:	48 8b c8             	mov    %rax,%rcx
   1800027e8:	48 8d 15 e1 4d 00 00 	lea    0x4de1(%rip),%rdx        # 0x1800075d0
   1800027ef:	e8 04 29 00 00       	callq  0x1800050f8
   1800027f4:	48 8b 4c 24 30       	mov    0x30(%rsp),%rcx
   1800027f9:	48 8b 54 24 38       	mov    0x38(%rsp),%rdx
   1800027fe:	4c 8b 44 24 40       	mov    0x40(%rsp),%r8
   180002803:	4c 8b 4c 24 48       	mov    0x48(%rsp),%r9
   180002808:	f3 0f 6f 44 24 50    	movdqu 0x50(%rsp),%xmm0
   18000280e:	f3 0f 6f 4c 24 60    	movdqu 0x60(%rsp),%xmm1
   180002814:	f3 0f 6f 54 24 70    	movdqu 0x70(%rsp),%xmm2
   18000281a:	f3 0f 6f 9c 24 80 00 	movdqu 0x80(%rsp),%xmm3
   180002821:	00 00 
   180002823:	f3 0f 6f a4 24 90 00 	movdqu 0x90(%rsp),%xmm4
   18000282a:	00 00 
   18000282c:	f3 0f 6f ac 24 a0 00 	movdqu 0xa0(%rsp),%xmm5
   180002833:	00 00 
   180002835:	48 81 c4 08 01 00 00 	add    $0x108,%rsp
   18000283c:	ff e0                	jmpq   *%rax
   18000283e:	66 90                	xchg   %ax,%ax
   180002840:	48 81 ec 08 01 00 00 	sub    $0x108,%rsp
   180002847:	48 89 4c 24 30       	mov    %rcx,0x30(%rsp)
   18000284c:	48 89 54 24 38       	mov    %rdx,0x38(%rsp)
   180002851:	4c 89 44 24 40       	mov    %r8,0x40(%rsp)
   180002856:	4c 89 4c 24 48       	mov    %r9,0x48(%rsp)
   18000285b:	f3 0f 7f 44 24 50    	movdqu %xmm0,0x50(%rsp)
   180002861:	f3 0f 7f 4c 24 60    	movdqu %xmm1,0x60(%rsp)
   180002867:	f3 0f 7f 54 24 70    	movdqu %xmm2,0x70(%rsp)
   18000286d:	f3 0f 7f 9c 24 80 00 	movdqu %xmm3,0x80(%rsp)
   180002874:	00 00 
   180002876:	f3 0f 7f a4 24 90 00 	movdqu %xmm4,0x90(%rsp)
   18000287d:	00 00 
   18000287f:	f3 0f 7f ac 24 a0 00 	movdqu %xmm5,0xa0(%rsp)
   180002886:	00 00 
   180002888:	48 8d 0d 11 51 00 00 	lea    0x5111(%rip),%rcx        # 0x1800079a0
   18000288f:	e8 5e 28 00 00       	callq  0x1800050f2
   180002894:	48 85 c0             	test   %rax,%rax
   180002897:	75 0c                	jne    0x1800028a5
   180002899:	48 8d 0d 00 51 00 00 	lea    0x5100(%rip),%rcx        # 0x1800079a0
   1800028a0:	e8 47 28 00 00       	callq  0x1800050ec
   1800028a5:	48 8b c8             	mov    %rax,%rcx
   1800028a8:	48 8d 15 41 4d 00 00 	lea    0x4d41(%rip),%rdx        # 0x1800075f0
   1800028af:	e8 44 28 00 00       	callq  0x1800050f8
   1800028b4:	48 8b 4c 24 30       	mov    0x30(%rsp),%rcx
   1800028b9:	48 8b 54 24 38       	mov    0x38(%rsp),%rdx
   1800028be:	4c 8b 44 24 40       	mov    0x40(%rsp),%r8
   1800028c3:	4c 8b 4c 24 48       	mov    0x48(%rsp),%r9
   1800028c8:	f3 0f 6f 44 24 50    	movdqu 0x50(%rsp),%xmm0
   1800028ce:	f3 0f 6f 4c 24 60    	movdqu 0x60(%rsp),%xmm1
   1800028d4:	f3 0f 6f 54 24 70    	movdqu 0x70(%rsp),%xmm2
   1800028da:	f3 0f 6f 9c 24 80 00 	movdqu 0x80(%rsp),%xmm3
   1800028e1:	00 00 
   1800028e3:	f3 0f 6f a4 24 90 00 	movdqu 0x90(%rsp),%xmm4
   1800028ea:	00 00 
   1800028ec:	f3 0f 6f ac 24 a0 00 	movdqu 0xa0(%rsp),%xmm5
   1800028f3:	00 00 
   1800028f5:	48 81 c4 08 01 00 00 	add    $0x108,%rsp
   1800028fc:	ff e0                	jmpq   *%rax
   1800028fe:	66 90                	xchg   %ax,%ax
   180002900:	48 81 ec 08 01 00 00 	sub    $0x108,%rsp
   180002907:	48 89 4c 24 30       	mov    %rcx,0x30(%rsp)
   18000290c:	48 89 54 24 38       	mov    %rdx,0x38(%rsp)
   180002911:	4c 89 44 24 40       	mov    %r8,0x40(%rsp)
   180002916:	4c 89 4c 24 48       	mov    %r9,0x48(%rsp)
   18000291b:	f3 0f 7f 44 24 50    	movdqu %xmm0,0x50(%rsp)
   180002921:	f3 0f 7f 4c 24 60    	movdqu %xmm1,0x60(%rsp)
   180002927:	f3 0f 7f 54 24 70    	movdqu %xmm2,0x70(%rsp)
   18000292d:	f3 0f 7f 9c 24 80 00 	movdqu %xmm3,0x80(%rsp)
   180002934:	00 00 
   180002936:	f3 0f 7f a4 24 90 00 	movdqu %xmm4,0x90(%rsp)
   18000293d:	00 00 
   18000293f:	f3 0f 7f ac 24 a0 00 	movdqu %xmm5,0xa0(%rsp)
   180002946:	00 00 
   180002948:	48 8d 0d 41 50 00 00 	lea    0x5041(%rip),%rcx        # 0x180007990
   18000294f:	e8 9e 27 00 00       	callq  0x1800050f2
   180002954:	48 85 c0             	test   %rax,%rax
   180002957:	75 0c                	jne    0x180002965
   180002959:	48 8d 0d 30 50 00 00 	lea    0x5030(%rip),%rcx        # 0x180007990
   180002960:	e8 87 27 00 00       	callq  0x1800050ec
   180002965:	48 8b c8             	mov    %rax,%rcx
   180002968:	48 8d 15 a1 4c 00 00 	lea    0x4ca1(%rip),%rdx        # 0x180007610
   18000296f:	e8 84 27 00 00       	callq  0x1800050f8
   180002974:	48 8b 4c 24 30       	mov    0x30(%rsp),%rcx
   180002979:	48 8b 54 24 38       	mov    0x38(%rsp),%rdx
   18000297e:	4c 8b 44 24 40       	mov    0x40(%rsp),%r8
   180002983:	4c 8b 4c 24 48       	mov    0x48(%rsp),%r9
   180002988:	f3 0f 6f 44 24 50    	movdqu 0x50(%rsp),%xmm0
   18000298e:	f3 0f 6f 4c 24 60    	movdqu 0x60(%rsp),%xmm1
   180002994:	f3 0f 6f 54 24 70    	movdqu 0x70(%rsp),%xmm2
   18000299a:	f3 0f 6f 9c 24 80 00 	movdqu 0x80(%rsp),%xmm3
   1800029a1:	00 00 
   1800029a3:	f3 0f 6f a4 24 90 00 	movdqu 0x90(%rsp),%xmm4
   1800029aa:	00 00 
   1800029ac:	f3 0f 6f ac 24 a0 00 	movdqu 0xa0(%rsp),%xmm5
   1800029b3:	00 00 
   1800029b5:	48 81 c4 08 01 00 00 	add    $0x108,%rsp
   1800029bc:	ff e0                	jmpq   *%rax
   1800029be:	66 90                	xchg   %ax,%ax
   1800029c0:	48 81 ec 08 01 00 00 	sub    $0x108,%rsp
   1800029c7:	48 89 4c 24 30       	mov    %rcx,0x30(%rsp)
   1800029cc:	48 89 54 24 38       	mov    %rdx,0x38(%rsp)
   1800029d1:	4c 89 44 24 40       	mov    %r8,0x40(%rsp)
   1800029d6:	4c 89 4c 24 48       	mov    %r9,0x48(%rsp)
   1800029db:	f3 0f 7f 44 24 50    	movdqu %xmm0,0x50(%rsp)
   1800029e1:	f3 0f 7f 4c 24 60    	movdqu %xmm1,0x60(%rsp)
   1800029e7:	f3 0f 7f 54 24 70    	movdqu %xmm2,0x70(%rsp)
   1800029ed:	f3 0f 7f 9c 24 80 00 	movdqu %xmm3,0x80(%rsp)
   1800029f4:	00 00 
   1800029f6:	f3 0f 7f a4 24 90 00 	movdqu %xmm4,0x90(%rsp)
   1800029fd:	00 00 
   1800029ff:	f3 0f 7f ac 24 a0 00 	movdqu %xmm5,0xa0(%rsp)
   180002a06:	00 00 
   180002a08:	48 8d 0d 81 4f 00 00 	lea    0x4f81(%rip),%rcx        # 0x180007990
   180002a0f:	e8 de 26 00 00       	callq  0x1800050f2
   180002a14:	48 85 c0             	test   %rax,%rax
   180002a17:	75 0c                	jne    0x180002a25
   180002a19:	48 8d 0d 70 4f 00 00 	lea    0x4f70(%rip),%rcx        # 0x180007990
   180002a20:	e8 c7 26 00 00       	callq  0x1800050ec
   180002a25:	48 8b c8             	mov    %rax,%rcx
   180002a28:	48 8d 15 01 4c 00 00 	lea    0x4c01(%rip),%rdx        # 0x180007630
   180002a2f:	e8 c4 26 00 00       	callq  0x1800050f8
   180002a34:	48 8b 4c 24 30       	mov    0x30(%rsp),%rcx
   180002a39:	48 8b 54 24 38       	mov    0x38(%rsp),%rdx
   180002a3e:	4c 8b 44 24 40       	mov    0x40(%rsp),%r8
   180002a43:	4c 8b 4c 24 48       	mov    0x48(%rsp),%r9
   180002a48:	f3 0f 6f 44 24 50    	movdqu 0x50(%rsp),%xmm0
   180002a4e:	f3 0f 6f 4c 24 60    	movdqu 0x60(%rsp),%xmm1
   180002a54:	f3 0f 6f 54 24 70    	movdqu 0x70(%rsp),%xmm2
   180002a5a:	f3 0f 6f 9c 24 80 00 	movdqu 0x80(%rsp),%xmm3
   180002a61:	00 00 
   180002a63:	f3 0f 6f a4 24 90 00 	movdqu 0x90(%rsp),%xmm4
   180002a6a:	00 00 
   180002a6c:	f3 0f 6f ac 24 a0 00 	movdqu 0xa0(%rsp),%xmm5
   180002a73:	00 00 
   180002a75:	48 81 c4 08 01 00 00 	add    $0x108,%rsp
   180002a7c:	ff e0                	jmpq   *%rax
   180002a7e:	66 90                	xchg   %ax,%ax
   180002a80:	48 81 ec 08 01 00 00 	sub    $0x108,%rsp
   180002a87:	48 89 4c 24 30       	mov    %rcx,0x30(%rsp)
   180002a8c:	48 89 54 24 38       	mov    %rdx,0x38(%rsp)
   180002a91:	4c 89 44 24 40       	mov    %r8,0x40(%rsp)
   180002a96:	4c 89 4c 24 48       	mov    %r9,0x48(%rsp)
   180002a9b:	f3 0f 7f 44 24 50    	movdqu %xmm0,0x50(%rsp)
   180002aa1:	f3 0f 7f 4c 24 60    	movdqu %xmm1,0x60(%rsp)
   180002aa7:	f3 0f 7f 54 24 70    	movdqu %xmm2,0x70(%rsp)
   180002aad:	f3 0f 7f 9c 24 80 00 	movdqu %xmm3,0x80(%rsp)
   180002ab4:	00 00 
   180002ab6:	f3 0f 7f a4 24 90 00 	movdqu %xmm4,0x90(%rsp)
   180002abd:	00 00 
   180002abf:	f3 0f 7f ac 24 a0 00 	movdqu %xmm5,0xa0(%rsp)
   180002ac6:	00 00 
   180002ac8:	48 8d 0d c1 4e 00 00 	lea    0x4ec1(%rip),%rcx        # 0x180007990
   180002acf:	e8 1e 26 00 00       	callq  0x1800050f2
   180002ad4:	48 85 c0             	test   %rax,%rax
   180002ad7:	75 0c                	jne    0x180002ae5
   180002ad9:	48 8d 0d b0 4e 00 00 	lea    0x4eb0(%rip),%rcx        # 0x180007990
   180002ae0:	e8 07 26 00 00       	callq  0x1800050ec
   180002ae5:	48 8b c8             	mov    %rax,%rcx
   180002ae8:	48 8d 15 61 4b 00 00 	lea    0x4b61(%rip),%rdx        # 0x180007650
   180002aef:	e8 04 26 00 00       	callq  0x1800050f8
   180002af4:	48 8b 4c 24 30       	mov    0x30(%rsp),%rcx
   180002af9:	48 8b 54 24 38       	mov    0x38(%rsp),%rdx
   180002afe:	4c 8b 44 24 40       	mov    0x40(%rsp),%r8
   180002b03:	4c 8b 4c 24 48       	mov    0x48(%rsp),%r9
   180002b08:	f3 0f 6f 44 24 50    	movdqu 0x50(%rsp),%xmm0
   180002b0e:	f3 0f 6f 4c 24 60    	movdqu 0x60(%rsp),%xmm1
   180002b14:	f3 0f 6f 54 24 70    	movdqu 0x70(%rsp),%xmm2
   180002b1a:	f3 0f 6f 9c 24 80 00 	movdqu 0x80(%rsp),%xmm3
   180002b21:	00 00 
   180002b23:	f3 0f 6f a4 24 90 00 	movdqu 0x90(%rsp),%xmm4
   180002b2a:	00 00 
   180002b2c:	f3 0f 6f ac 24 a0 00 	movdqu 0xa0(%rsp),%xmm5
   180002b33:	00 00 
   180002b35:	48 81 c4 08 01 00 00 	add    $0x108,%rsp
   180002b3c:	ff e0                	jmpq   *%rax
   180002b3e:	66 90                	xchg   %ax,%ax
   180002b40:	48 81 ec 08 01 00 00 	sub    $0x108,%rsp
   180002b47:	48 89 4c 24 30       	mov    %rcx,0x30(%rsp)
   180002b4c:	48 89 54 24 38       	mov    %rdx,0x38(%rsp)
   180002b51:	4c 89 44 24 40       	mov    %r8,0x40(%rsp)
   180002b56:	4c 89 4c 24 48       	mov    %r9,0x48(%rsp)
   180002b5b:	f3 0f 7f 44 24 50    	movdqu %xmm0,0x50(%rsp)
   180002b61:	f3 0f 7f 4c 24 60    	movdqu %xmm1,0x60(%rsp)
   180002b67:	f3 0f 7f 54 24 70    	movdqu %xmm2,0x70(%rsp)
   180002b6d:	f3 0f 7f 9c 24 80 00 	movdqu %xmm3,0x80(%rsp)
   180002b74:	00 00 
   180002b76:	f3 0f 7f a4 24 90 00 	movdqu %xmm4,0x90(%rsp)
   180002b7d:	00 00 
   180002b7f:	f3 0f 7f ac 24 a0 00 	movdqu %xmm5,0xa0(%rsp)
   180002b86:	00 00 
   180002b88:	48 8d 0d 01 4e 00 00 	lea    0x4e01(%rip),%rcx        # 0x180007990
   180002b8f:	e8 5e 25 00 00       	callq  0x1800050f2
   180002b94:	48 85 c0             	test   %rax,%rax
   180002b97:	75 0c                	jne    0x180002ba5
   180002b99:	48 8d 0d f0 4d 00 00 	lea    0x4df0(%rip),%rcx        # 0x180007990
   180002ba0:	e8 47 25 00 00       	callq  0x1800050ec
   180002ba5:	48 8b c8             	mov    %rax,%rcx
   180002ba8:	48 8d 15 c1 4a 00 00 	lea    0x4ac1(%rip),%rdx        # 0x180007670
   180002baf:	e8 44 25 00 00       	callq  0x1800050f8
   180002bb4:	48 8b 4c 24 30       	mov    0x30(%rsp),%rcx
   180002bb9:	48 8b 54 24 38       	mov    0x38(%rsp),%rdx
   180002bbe:	4c 8b 44 24 40       	mov    0x40(%rsp),%r8
   180002bc3:	4c 8b 4c 24 48       	mov    0x48(%rsp),%r9
   180002bc8:	f3 0f 6f 44 24 50    	movdqu 0x50(%rsp),%xmm0
   180002bce:	f3 0f 6f 4c 24 60    	movdqu 0x60(%rsp),%xmm1
   180002bd4:	f3 0f 6f 54 24 70    	movdqu 0x70(%rsp),%xmm2
   180002bda:	f3 0f 6f 9c 24 80 00 	movdqu 0x80(%rsp),%xmm3
   180002be1:	00 00 
   180002be3:	f3 0f 6f a4 24 90 00 	movdqu 0x90(%rsp),%xmm4
   180002bea:	00 00 
   180002bec:	f3 0f 6f ac 24 a0 00 	movdqu 0xa0(%rsp),%xmm5
   180002bf3:	00 00 
   180002bf5:	48 81 c4 08 01 00 00 	add    $0x108,%rsp
   180002bfc:	ff e0                	jmpq   *%rax
   180002bfe:	66 90                	xchg   %ax,%ax
   180002c00:	48 81 ec 08 01 00 00 	sub    $0x108,%rsp
   180002c07:	48 89 4c 24 30       	mov    %rcx,0x30(%rsp)
   180002c0c:	48 89 54 24 38       	mov    %rdx,0x38(%rsp)
   180002c11:	4c 89 44 24 40       	mov    %r8,0x40(%rsp)
   180002c16:	4c 89 4c 24 48       	mov    %r9,0x48(%rsp)
   180002c1b:	f3 0f 7f 44 24 50    	movdqu %xmm0,0x50(%rsp)
   180002c21:	f3 0f 7f 4c 24 60    	movdqu %xmm1,0x60(%rsp)
   180002c27:	f3 0f 7f 54 24 70    	movdqu %xmm2,0x70(%rsp)
   180002c2d:	f3 0f 7f 9c 24 80 00 	movdqu %xmm3,0x80(%rsp)
   180002c34:	00 00 
   180002c36:	f3 0f 7f a4 24 90 00 	movdqu %xmm4,0x90(%rsp)
   180002c3d:	00 00 
   180002c3f:	f3 0f 7f ac 24 a0 00 	movdqu %xmm5,0xa0(%rsp)
   180002c46:	00 00 
   180002c48:	48 8d 0d 51 4d 00 00 	lea    0x4d51(%rip),%rcx        # 0x1800079a0
   180002c4f:	e8 9e 24 00 00       	callq  0x1800050f2
   180002c54:	48 85 c0             	test   %rax,%rax
   180002c57:	75 0c                	jne    0x180002c65
   180002c59:	48 8d 0d 40 4d 00 00 	lea    0x4d40(%rip),%rcx        # 0x1800079a0
   180002c60:	e8 87 24 00 00       	callq  0x1800050ec
   180002c65:	48 8b c8             	mov    %rax,%rcx
   180002c68:	48 8d 15 21 4a 00 00 	lea    0x4a21(%rip),%rdx        # 0x180007690
   180002c6f:	e8 84 24 00 00       	callq  0x1800050f8
   180002c74:	48 8b 4c 24 30       	mov    0x30(%rsp),%rcx
   180002c79:	48 8b 54 24 38       	mov    0x38(%rsp),%rdx
   180002c7e:	4c 8b 44 24 40       	mov    0x40(%rsp),%r8
   180002c83:	4c 8b 4c 24 48       	mov    0x48(%rsp),%r9
   180002c88:	f3 0f 6f 44 24 50    	movdqu 0x50(%rsp),%xmm0
   180002c8e:	f3 0f 6f 4c 24 60    	movdqu 0x60(%rsp),%xmm1
   180002c94:	f3 0f 6f 54 24 70    	movdqu 0x70(%rsp),%xmm2
   180002c9a:	f3 0f 6f 9c 24 80 00 	movdqu 0x80(%rsp),%xmm3
   180002ca1:	00 00 
   180002ca3:	f3 0f 6f a4 24 90 00 	movdqu 0x90(%rsp),%xmm4
   180002caa:	00 00 
   180002cac:	f3 0f 6f ac 24 a0 00 	movdqu 0xa0(%rsp),%xmm5
   180002cb3:	00 00 
   180002cb5:	48 81 c4 08 01 00 00 	add    $0x108,%rsp
   180002cbc:	ff e0                	jmpq   *%rax
   180002cbe:	66 90                	xchg   %ax,%ax
   180002cc0:	48 81 ec 08 01 00 00 	sub    $0x108,%rsp
   180002cc7:	48 89 4c 24 30       	mov    %rcx,0x30(%rsp)
   180002ccc:	48 89 54 24 38       	mov    %rdx,0x38(%rsp)
   180002cd1:	4c 89 44 24 40       	mov    %r8,0x40(%rsp)
   180002cd6:	4c 89 4c 24 48       	mov    %r9,0x48(%rsp)
   180002cdb:	f3 0f 7f 44 24 50    	movdqu %xmm0,0x50(%rsp)
   180002ce1:	f3 0f 7f 4c 24 60    	movdqu %xmm1,0x60(%rsp)
   180002ce7:	f3 0f 7f 54 24 70    	movdqu %xmm2,0x70(%rsp)
   180002ced:	f3 0f 7f 9c 24 80 00 	movdqu %xmm3,0x80(%rsp)
   180002cf4:	00 00 
   180002cf6:	f3 0f 7f a4 24 90 00 	movdqu %xmm4,0x90(%rsp)
   180002cfd:	00 00 
   180002cff:	f3 0f 7f ac 24 a0 00 	movdqu %xmm5,0xa0(%rsp)
   180002d06:	00 00 
   180002d08:	48 8d 0d 81 4c 00 00 	lea    0x4c81(%rip),%rcx        # 0x180007990
   180002d0f:	e8 de 23 00 00       	callq  0x1800050f2
   180002d14:	48 85 c0             	test   %rax,%rax
   180002d17:	75 0c                	jne    0x180002d25
   180002d19:	48 8d 0d 70 4c 00 00 	lea    0x4c70(%rip),%rcx        # 0x180007990
   180002d20:	e8 c7 23 00 00       	callq  0x1800050ec
   180002d25:	48 8b c8             	mov    %rax,%rcx
   180002d28:	48 8d 15 81 49 00 00 	lea    0x4981(%rip),%rdx        # 0x1800076b0
   180002d2f:	e8 c4 23 00 00       	callq  0x1800050f8
   180002d34:	48 8b 4c 24 30       	mov    0x30(%rsp),%rcx
   180002d39:	48 8b 54 24 38       	mov    0x38(%rsp),%rdx
   180002d3e:	4c 8b 44 24 40       	mov    0x40(%rsp),%r8
   180002d43:	4c 8b 4c 24 48       	mov    0x48(%rsp),%r9
   180002d48:	f3 0f 6f 44 24 50    	movdqu 0x50(%rsp),%xmm0
   180002d4e:	f3 0f 6f 4c 24 60    	movdqu 0x60(%rsp),%xmm1
   180002d54:	f3 0f 6f 54 24 70    	movdqu 0x70(%rsp),%xmm2
   180002d5a:	f3 0f 6f 9c 24 80 00 	movdqu 0x80(%rsp),%xmm3
   180002d61:	00 00 
   180002d63:	f3 0f 6f a4 24 90 00 	movdqu 0x90(%rsp),%xmm4
   180002d6a:	00 00 
   180002d6c:	f3 0f 6f ac 24 a0 00 	movdqu 0xa0(%rsp),%xmm5
   180002d73:	00 00 
   180002d75:	48 81 c4 08 01 00 00 	add    $0x108,%rsp
   180002d7c:	ff e0                	jmpq   *%rax
   180002d7e:	66 90                	xchg   %ax,%ax
   180002d80:	48 81 ec 08 01 00 00 	sub    $0x108,%rsp
   180002d87:	48 89 4c 24 30       	mov    %rcx,0x30(%rsp)
   180002d8c:	48 89 54 24 38       	mov    %rdx,0x38(%rsp)
   180002d91:	4c 89 44 24 40       	mov    %r8,0x40(%rsp)
   180002d96:	4c 89 4c 24 48       	mov    %r9,0x48(%rsp)
   180002d9b:	f3 0f 7f 44 24 50    	movdqu %xmm0,0x50(%rsp)
   180002da1:	f3 0f 7f 4c 24 60    	movdqu %xmm1,0x60(%rsp)
   180002da7:	f3 0f 7f 54 24 70    	movdqu %xmm2,0x70(%rsp)
   180002dad:	f3 0f 7f 9c 24 80 00 	movdqu %xmm3,0x80(%rsp)
   180002db4:	00 00 
   180002db6:	f3 0f 7f a4 24 90 00 	movdqu %xmm4,0x90(%rsp)
   180002dbd:	00 00 
   180002dbf:	f3 0f 7f ac 24 a0 00 	movdqu %xmm5,0xa0(%rsp)
   180002dc6:	00 00 
   180002dc8:	48 8d 0d c1 4b 00 00 	lea    0x4bc1(%rip),%rcx        # 0x180007990
   180002dcf:	e8 1e 23 00 00       	callq  0x1800050f2
   180002dd4:	48 85 c0             	test   %rax,%rax
   180002dd7:	75 0c                	jne    0x180002de5
   180002dd9:	48 8d 0d b0 4b 00 00 	lea    0x4bb0(%rip),%rcx        # 0x180007990
   180002de0:	e8 07 23 00 00       	callq  0x1800050ec
   180002de5:	48 8b c8             	mov    %rax,%rcx
   180002de8:	48 8d 15 e1 48 00 00 	lea    0x48e1(%rip),%rdx        # 0x1800076d0
   180002def:	e8 04 23 00 00       	callq  0x1800050f8
   180002df4:	48 8b 4c 24 30       	mov    0x30(%rsp),%rcx
   180002df9:	48 8b 54 24 38       	mov    0x38(%rsp),%rdx
   180002dfe:	4c 8b 44 24 40       	mov    0x40(%rsp),%r8
   180002e03:	4c 8b 4c 24 48       	mov    0x48(%rsp),%r9
   180002e08:	f3 0f 6f 44 24 50    	movdqu 0x50(%rsp),%xmm0
   180002e0e:	f3 0f 6f 4c 24 60    	movdqu 0x60(%rsp),%xmm1
   180002e14:	f3 0f 6f 54 24 70    	movdqu 0x70(%rsp),%xmm2
   180002e1a:	f3 0f 6f 9c 24 80 00 	movdqu 0x80(%rsp),%xmm3
   180002e21:	00 00 
   180002e23:	f3 0f 6f a4 24 90 00 	movdqu 0x90(%rsp),%xmm4
   180002e2a:	00 00 
   180002e2c:	f3 0f 6f ac 24 a0 00 	movdqu 0xa0(%rsp),%xmm5
   180002e33:	00 00 
   180002e35:	48 81 c4 08 01 00 00 	add    $0x108,%rsp
   180002e3c:	ff e0                	jmpq   *%rax
   180002e3e:	66 90                	xchg   %ax,%ax
   180002e40:	48 81 ec 08 01 00 00 	sub    $0x108,%rsp
   180002e47:	48 89 4c 24 30       	mov    %rcx,0x30(%rsp)
   180002e4c:	48 89 54 24 38       	mov    %rdx,0x38(%rsp)
   180002e51:	4c 89 44 24 40       	mov    %r8,0x40(%rsp)
   180002e56:	4c 89 4c 24 48       	mov    %r9,0x48(%rsp)
   180002e5b:	f3 0f 7f 44 24 50    	movdqu %xmm0,0x50(%rsp)
   180002e61:	f3 0f 7f 4c 24 60    	movdqu %xmm1,0x60(%rsp)
   180002e67:	f3 0f 7f 54 24 70    	movdqu %xmm2,0x70(%rsp)
   180002e6d:	f3 0f 7f 9c 24 80 00 	movdqu %xmm3,0x80(%rsp)
   180002e74:	00 00 
   180002e76:	f3 0f 7f a4 24 90 00 	movdqu %xmm4,0x90(%rsp)
   180002e7d:	00 00 
   180002e7f:	f3 0f 7f ac 24 a0 00 	movdqu %xmm5,0xa0(%rsp)
   180002e86:	00 00 
   180002e88:	48 8d 0d 01 4b 00 00 	lea    0x4b01(%rip),%rcx        # 0x180007990
   180002e8f:	e8 5e 22 00 00       	callq  0x1800050f2
   180002e94:	48 85 c0             	test   %rax,%rax
   180002e97:	75 0c                	jne    0x180002ea5
   180002e99:	48 8d 0d f0 4a 00 00 	lea    0x4af0(%rip),%rcx        # 0x180007990
   180002ea0:	e8 47 22 00 00       	callq  0x1800050ec
   180002ea5:	48 8b c8             	mov    %rax,%rcx
   180002ea8:	48 8d 15 41 48 00 00 	lea    0x4841(%rip),%rdx        # 0x1800076f0
   180002eaf:	e8 44 22 00 00       	callq  0x1800050f8
   180002eb4:	48 8b 4c 24 30       	mov    0x30(%rsp),%rcx
   180002eb9:	48 8b 54 24 38       	mov    0x38(%rsp),%rdx
   180002ebe:	4c 8b 44 24 40       	mov    0x40(%rsp),%r8
   180002ec3:	4c 8b 4c 24 48       	mov    0x48(%rsp),%r9
   180002ec8:	f3 0f 6f 44 24 50    	movdqu 0x50(%rsp),%xmm0
   180002ece:	f3 0f 6f 4c 24 60    	movdqu 0x60(%rsp),%xmm1
   180002ed4:	f3 0f 6f 54 24 70    	movdqu 0x70(%rsp),%xmm2
   180002eda:	f3 0f 6f 9c 24 80 00 	movdqu 0x80(%rsp),%xmm3
   180002ee1:	00 00 
   180002ee3:	f3 0f 6f a4 24 90 00 	movdqu 0x90(%rsp),%xmm4
   180002eea:	00 00 
   180002eec:	f3 0f 6f ac 24 a0 00 	movdqu 0xa0(%rsp),%xmm5
   180002ef3:	00 00 
   180002ef5:	48 81 c4 08 01 00 00 	add    $0x108,%rsp
   180002efc:	ff e0                	jmpq   *%rax
   180002efe:	66 90                	xchg   %ax,%ax
   180002f00:	48 81 ec 08 01 00 00 	sub    $0x108,%rsp
   180002f07:	48 89 4c 24 30       	mov    %rcx,0x30(%rsp)
   180002f0c:	48 89 54 24 38       	mov    %rdx,0x38(%rsp)
   180002f11:	4c 89 44 24 40       	mov    %r8,0x40(%rsp)
   180002f16:	4c 89 4c 24 48       	mov    %r9,0x48(%rsp)
   180002f1b:	f3 0f 7f 44 24 50    	movdqu %xmm0,0x50(%rsp)
   180002f21:	f3 0f 7f 4c 24 60    	movdqu %xmm1,0x60(%rsp)
   180002f27:	f3 0f 7f 54 24 70    	movdqu %xmm2,0x70(%rsp)
   180002f2d:	f3 0f 7f 9c 24 80 00 	movdqu %xmm3,0x80(%rsp)
   180002f34:	00 00 
   180002f36:	f3 0f 7f a4 24 90 00 	movdqu %xmm4,0x90(%rsp)
   180002f3d:	00 00 
   180002f3f:	f3 0f 7f ac 24 a0 00 	movdqu %xmm5,0xa0(%rsp)
   180002f46:	00 00 
   180002f48:	48 8d 0d 61 4a 00 00 	lea    0x4a61(%rip),%rcx        # 0x1800079b0
   180002f4f:	e8 9e 21 00 00       	callq  0x1800050f2
   180002f54:	48 85 c0             	test   %rax,%rax
   180002f57:	75 0c                	jne    0x180002f65
   180002f59:	48 8d 0d 50 4a 00 00 	lea    0x4a50(%rip),%rcx        # 0x1800079b0
   180002f60:	e8 87 21 00 00       	callq  0x1800050ec
   180002f65:	48 8b c8             	mov    %rax,%rcx
   180002f68:	48 8d 15 a1 47 00 00 	lea    0x47a1(%rip),%rdx        # 0x180007710
   180002f6f:	e8 84 21 00 00       	callq  0x1800050f8
   180002f74:	48 8b 4c 24 30       	mov    0x30(%rsp),%rcx
   180002f79:	48 8b 54 24 38       	mov    0x38(%rsp),%rdx
   180002f7e:	4c 8b 44 24 40       	mov    0x40(%rsp),%r8
   180002f83:	4c 8b 4c 24 48       	mov    0x48(%rsp),%r9
   180002f88:	f3 0f 6f 44 24 50    	movdqu 0x50(%rsp),%xmm0
   180002f8e:	f3 0f 6f 4c 24 60    	movdqu 0x60(%rsp),%xmm1
   180002f94:	f3 0f 6f 54 24 70    	movdqu 0x70(%rsp),%xmm2
   180002f9a:	f3 0f 6f 9c 24 80 00 	movdqu 0x80(%rsp),%xmm3
   180002fa1:	00 00 
   180002fa3:	f3 0f 6f a4 24 90 00 	movdqu 0x90(%rsp),%xmm4
   180002faa:	00 00 
   180002fac:	f3 0f 6f ac 24 a0 00 	movdqu 0xa0(%rsp),%xmm5
   180002fb3:	00 00 
   180002fb5:	48 81 c4 08 01 00 00 	add    $0x108,%rsp
   180002fbc:	ff e0                	jmpq   *%rax
   180002fbe:	66 90                	xchg   %ax,%ax
   180002fc0:	48 81 ec 08 01 00 00 	sub    $0x108,%rsp
   180002fc7:	48 89 4c 24 30       	mov    %rcx,0x30(%rsp)
   180002fcc:	48 89 54 24 38       	mov    %rdx,0x38(%rsp)
   180002fd1:	4c 89 44 24 40       	mov    %r8,0x40(%rsp)
   180002fd6:	4c 89 4c 24 48       	mov    %r9,0x48(%rsp)
   180002fdb:	f3 0f 7f 44 24 50    	movdqu %xmm0,0x50(%rsp)
   180002fe1:	f3 0f 7f 4c 24 60    	movdqu %xmm1,0x60(%rsp)
   180002fe7:	f3 0f 7f 54 24 70    	movdqu %xmm2,0x70(%rsp)
   180002fed:	f3 0f 7f 9c 24 80 00 	movdqu %xmm3,0x80(%rsp)
   180002ff4:	00 00 
   180002ff6:	f3 0f 7f a4 24 90 00 	movdqu %xmm4,0x90(%rsp)
   180002ffd:	00 00 
   180002fff:	f3 0f 7f ac 24 a0 00 	movdqu %xmm5,0xa0(%rsp)
   180003006:	00 00 
   180003008:	48 8d 0d a1 49 00 00 	lea    0x49a1(%rip),%rcx        # 0x1800079b0
   18000300f:	e8 de 20 00 00       	callq  0x1800050f2
   180003014:	48 85 c0             	test   %rax,%rax
   180003017:	75 0c                	jne    0x180003025
   180003019:	48 8d 0d 90 49 00 00 	lea    0x4990(%rip),%rcx        # 0x1800079b0
   180003020:	e8 c7 20 00 00       	callq  0x1800050ec
   180003025:	48 8b c8             	mov    %rax,%rcx
   180003028:	48 8d 15 11 47 00 00 	lea    0x4711(%rip),%rdx        # 0x180007740
   18000302f:	e8 c4 20 00 00       	callq  0x1800050f8
   180003034:	48 8b 4c 24 30       	mov    0x30(%rsp),%rcx
   180003039:	48 8b 54 24 38       	mov    0x38(%rsp),%rdx
   18000303e:	4c 8b 44 24 40       	mov    0x40(%rsp),%r8
   180003043:	4c 8b 4c 24 48       	mov    0x48(%rsp),%r9
   180003048:	f3 0f 6f 44 24 50    	movdqu 0x50(%rsp),%xmm0
   18000304e:	f3 0f 6f 4c 24 60    	movdqu 0x60(%rsp),%xmm1
   180003054:	f3 0f 6f 54 24 70    	movdqu 0x70(%rsp),%xmm2
   18000305a:	f3 0f 6f 9c 24 80 00 	movdqu 0x80(%rsp),%xmm3
   180003061:	00 00 
   180003063:	f3 0f 6f a4 24 90 00 	movdqu 0x90(%rsp),%xmm4
   18000306a:	00 00 
   18000306c:	f3 0f 6f ac 24 a0 00 	movdqu 0xa0(%rsp),%xmm5
   180003073:	00 00 
   180003075:	48 81 c4 08 01 00 00 	add    $0x108,%rsp
   18000307c:	ff e0                	jmpq   *%rax
   18000307e:	66 90                	xchg   %ax,%ax
   180003080:	48 81 ec 08 01 00 00 	sub    $0x108,%rsp
   180003087:	48 89 4c 24 30       	mov    %rcx,0x30(%rsp)
   18000308c:	48 89 54 24 38       	mov    %rdx,0x38(%rsp)
   180003091:	4c 89 44 24 40       	mov    %r8,0x40(%rsp)
   180003096:	4c 89 4c 24 48       	mov    %r9,0x48(%rsp)
   18000309b:	f3 0f 7f 44 24 50    	movdqu %xmm0,0x50(%rsp)
   1800030a1:	f3 0f 7f 4c 24 60    	movdqu %xmm1,0x60(%rsp)
   1800030a7:	f3 0f 7f 54 24 70    	movdqu %xmm2,0x70(%rsp)
   1800030ad:	f3 0f 7f 9c 24 80 00 	movdqu %xmm3,0x80(%rsp)
   1800030b4:	00 00 
   1800030b6:	f3 0f 7f a4 24 90 00 	movdqu %xmm4,0x90(%rsp)
   1800030bd:	00 00 
   1800030bf:	f3 0f 7f ac 24 a0 00 	movdqu %xmm5,0xa0(%rsp)
   1800030c6:	00 00 
   1800030c8:	48 8d 0d e1 48 00 00 	lea    0x48e1(%rip),%rcx        # 0x1800079b0
   1800030cf:	e8 1e 20 00 00       	callq  0x1800050f2
   1800030d4:	48 85 c0             	test   %rax,%rax
   1800030d7:	75 0c                	jne    0x1800030e5
   1800030d9:	48 8d 0d d0 48 00 00 	lea    0x48d0(%rip),%rcx        # 0x1800079b0
   1800030e0:	e8 07 20 00 00       	callq  0x1800050ec
   1800030e5:	48 8b c8             	mov    %rax,%rcx
   1800030e8:	48 8d 15 81 46 00 00 	lea    0x4681(%rip),%rdx        # 0x180007770
   1800030ef:	e8 04 20 00 00       	callq  0x1800050f8
   1800030f4:	48 8b 4c 24 30       	mov    0x30(%rsp),%rcx
   1800030f9:	48 8b 54 24 38       	mov    0x38(%rsp),%rdx
   1800030fe:	4c 8b 44 24 40       	mov    0x40(%rsp),%r8
   180003103:	4c 8b 4c 24 48       	mov    0x48(%rsp),%r9
   180003108:	f3 0f 6f 44 24 50    	movdqu 0x50(%rsp),%xmm0
   18000310e:	f3 0f 6f 4c 24 60    	movdqu 0x60(%rsp),%xmm1
   180003114:	f3 0f 6f 54 24 70    	movdqu 0x70(%rsp),%xmm2
   18000311a:	f3 0f 6f 9c 24 80 00 	movdqu 0x80(%rsp),%xmm3
   180003121:	00 00 
   180003123:	f3 0f 6f a4 24 90 00 	movdqu 0x90(%rsp),%xmm4
   18000312a:	00 00 
   18000312c:	f3 0f 6f ac 24 a0 00 	movdqu 0xa0(%rsp),%xmm5
   180003133:	00 00 
   180003135:	48 81 c4 08 01 00 00 	add    $0x108,%rsp
   18000313c:	ff e0                	jmpq   *%rax
   18000313e:	66 90                	xchg   %ax,%ax
   180003140:	48 81 ec 08 01 00 00 	sub    $0x108,%rsp
   180003147:	48 89 4c 24 30       	mov    %rcx,0x30(%rsp)
   18000314c:	48 89 54 24 38       	mov    %rdx,0x38(%rsp)
   180003151:	4c 89 44 24 40       	mov    %r8,0x40(%rsp)
   180003156:	4c 89 4c 24 48       	mov    %r9,0x48(%rsp)
   18000315b:	f3 0f 7f 44 24 50    	movdqu %xmm0,0x50(%rsp)
   180003161:	f3 0f 7f 4c 24 60    	movdqu %xmm1,0x60(%rsp)
   180003167:	f3 0f 7f 54 24 70    	movdqu %xmm2,0x70(%rsp)
   18000316d:	f3 0f 7f 9c 24 80 00 	movdqu %xmm3,0x80(%rsp)
   180003174:	00 00 
   180003176:	f3 0f 7f a4 24 90 00 	movdqu %xmm4,0x90(%rsp)
   18000317d:	00 00 
   18000317f:	f3 0f 7f ac 24 a0 00 	movdqu %xmm5,0xa0(%rsp)
   180003186:	00 00 
   180003188:	48 8d 0d 21 48 00 00 	lea    0x4821(%rip),%rcx        # 0x1800079b0
   18000318f:	e8 5e 1f 00 00       	callq  0x1800050f2
   180003194:	48 85 c0             	test   %rax,%rax
   180003197:	75 0c                	jne    0x1800031a5
   180003199:	48 8d 0d 10 48 00 00 	lea    0x4810(%rip),%rcx        # 0x1800079b0
   1800031a0:	e8 47 1f 00 00       	callq  0x1800050ec
   1800031a5:	48 8b c8             	mov    %rax,%rcx
   1800031a8:	48 8d 15 01 46 00 00 	lea    0x4601(%rip),%rdx        # 0x1800077b0
   1800031af:	e8 44 1f 00 00       	callq  0x1800050f8
   1800031b4:	48 8b 4c 24 30       	mov    0x30(%rsp),%rcx
   1800031b9:	48 8b 54 24 38       	mov    0x38(%rsp),%rdx
   1800031be:	4c 8b 44 24 40       	mov    0x40(%rsp),%r8
   1800031c3:	4c 8b 4c 24 48       	mov    0x48(%rsp),%r9
   1800031c8:	f3 0f 6f 44 24 50    	movdqu 0x50(%rsp),%xmm0
   1800031ce:	f3 0f 6f 4c 24 60    	movdqu 0x60(%rsp),%xmm1
   1800031d4:	f3 0f 6f 54 24 70    	movdqu 0x70(%rsp),%xmm2
   1800031da:	f3 0f 6f 9c 24 80 00 	movdqu 0x80(%rsp),%xmm3
   1800031e1:	00 00 
   1800031e3:	f3 0f 6f a4 24 90 00 	movdqu 0x90(%rsp),%xmm4
   1800031ea:	00 00 
   1800031ec:	f3 0f 6f ac 24 a0 00 	movdqu 0xa0(%rsp),%xmm5
   1800031f3:	00 00 
   1800031f5:	48 81 c4 08 01 00 00 	add    $0x108,%rsp
   1800031fc:	ff e0                	jmpq   *%rax
   1800031fe:	66 90                	xchg   %ax,%ax
   180003200:	48 81 ec 08 01 00 00 	sub    $0x108,%rsp
   180003207:	48 89 4c 24 30       	mov    %rcx,0x30(%rsp)
   18000320c:	48 89 54 24 38       	mov    %rdx,0x38(%rsp)
   180003211:	4c 89 44 24 40       	mov    %r8,0x40(%rsp)
   180003216:	4c 89 4c 24 48       	mov    %r9,0x48(%rsp)
   18000321b:	f3 0f 7f 44 24 50    	movdqu %xmm0,0x50(%rsp)
   180003221:	f3 0f 7f 4c 24 60    	movdqu %xmm1,0x60(%rsp)
   180003227:	f3 0f 7f 54 24 70    	movdqu %xmm2,0x70(%rsp)
   18000322d:	f3 0f 7f 9c 24 80 00 	movdqu %xmm3,0x80(%rsp)
   180003234:	00 00 
   180003236:	f3 0f 7f a4 24 90 00 	movdqu %xmm4,0x90(%rsp)
   18000323d:	00 00 
   18000323f:	f3 0f 7f ac 24 a0 00 	movdqu %xmm5,0xa0(%rsp)
   180003246:	00 00 
   180003248:	48 8d 0d 61 47 00 00 	lea    0x4761(%rip),%rcx        # 0x1800079b0
   18000324f:	e8 9e 1e 00 00       	callq  0x1800050f2
   180003254:	48 85 c0             	test   %rax,%rax
   180003257:	75 0c                	jne    0x180003265
   180003259:	48 8d 0d 50 47 00 00 	lea    0x4750(%rip),%rcx        # 0x1800079b0
   180003260:	e8 87 1e 00 00       	callq  0x1800050ec
   180003265:	48 8b c8             	mov    %rax,%rcx
   180003268:	48 8d 15 71 45 00 00 	lea    0x4571(%rip),%rdx        # 0x1800077e0
   18000326f:	e8 84 1e 00 00       	callq  0x1800050f8
   180003274:	48 8b 4c 24 30       	mov    0x30(%rsp),%rcx
   180003279:	48 8b 54 24 38       	mov    0x38(%rsp),%rdx
   18000327e:	4c 8b 44 24 40       	mov    0x40(%rsp),%r8
   180003283:	4c 8b 4c 24 48       	mov    0x48(%rsp),%r9
   180003288:	f3 0f 6f 44 24 50    	movdqu 0x50(%rsp),%xmm0
   18000328e:	f3 0f 6f 4c 24 60    	movdqu 0x60(%rsp),%xmm1
   180003294:	f3 0f 6f 54 24 70    	movdqu 0x70(%rsp),%xmm2
   18000329a:	f3 0f 6f 9c 24 80 00 	movdqu 0x80(%rsp),%xmm3
   1800032a1:	00 00 
   1800032a3:	f3 0f 6f a4 24 90 00 	movdqu 0x90(%rsp),%xmm4
   1800032aa:	00 00 
   1800032ac:	f3 0f 6f ac 24 a0 00 	movdqu 0xa0(%rsp),%xmm5
   1800032b3:	00 00 
   1800032b5:	48 81 c4 08 01 00 00 	add    $0x108,%rsp
   1800032bc:	ff e0                	jmpq   *%rax
   1800032be:	66 90                	xchg   %ax,%ax
   1800032c0:	48 81 ec 08 01 00 00 	sub    $0x108,%rsp
   1800032c7:	48 89 4c 24 30       	mov    %rcx,0x30(%rsp)
   1800032cc:	48 89 54 24 38       	mov    %rdx,0x38(%rsp)
   1800032d1:	4c 89 44 24 40       	mov    %r8,0x40(%rsp)
   1800032d6:	4c 89 4c 24 48       	mov    %r9,0x48(%rsp)
   1800032db:	f3 0f 7f 44 24 50    	movdqu %xmm0,0x50(%rsp)
   1800032e1:	f3 0f 7f 4c 24 60    	movdqu %xmm1,0x60(%rsp)
   1800032e7:	f3 0f 7f 54 24 70    	movdqu %xmm2,0x70(%rsp)
   1800032ed:	f3 0f 7f 9c 24 80 00 	movdqu %xmm3,0x80(%rsp)
   1800032f4:	00 00 
   1800032f6:	f3 0f 7f a4 24 90 00 	movdqu %xmm4,0x90(%rsp)
   1800032fd:	00 00 
   1800032ff:	f3 0f 7f ac 24 a0 00 	movdqu %xmm5,0xa0(%rsp)
   180003306:	00 00 
   180003308:	48 8d 0d 81 46 00 00 	lea    0x4681(%rip),%rcx        # 0x180007990
   18000330f:	e8 de 1d 00 00       	callq  0x1800050f2
   180003314:	48 85 c0             	test   %rax,%rax
   180003317:	75 0c                	jne    0x180003325
   180003319:	48 8d 0d 70 46 00 00 	lea    0x4670(%rip),%rcx        # 0x180007990
   180003320:	e8 c7 1d 00 00       	callq  0x1800050ec
   180003325:	48 8b c8             	mov    %rax,%rcx
   180003328:	48 8d 15 e1 44 00 00 	lea    0x44e1(%rip),%rdx        # 0x180007810
   18000332f:	e8 c4 1d 00 00       	callq  0x1800050f8
   180003334:	48 8b 4c 24 30       	mov    0x30(%rsp),%rcx
   180003339:	48 8b 54 24 38       	mov    0x38(%rsp),%rdx
   18000333e:	4c 8b 44 24 40       	mov    0x40(%rsp),%r8
   180003343:	4c 8b 4c 24 48       	mov    0x48(%rsp),%r9
   180003348:	f3 0f 6f 44 24 50    	movdqu 0x50(%rsp),%xmm0
   18000334e:	f3 0f 6f 4c 24 60    	movdqu 0x60(%rsp),%xmm1
   180003354:	f3 0f 6f 54 24 70    	movdqu 0x70(%rsp),%xmm2
   18000335a:	f3 0f 6f 9c 24 80 00 	movdqu 0x80(%rsp),%xmm3
   180003361:	00 00 
   180003363:	f3 0f 6f a4 24 90 00 	movdqu 0x90(%rsp),%xmm4
   18000336a:	00 00 
   18000336c:	f3 0f 6f ac 24 a0 00 	movdqu 0xa0(%rsp),%xmm5
   180003373:	00 00 
   180003375:	48 81 c4 08 01 00 00 	add    $0x108,%rsp
   18000337c:	ff e0                	jmpq   *%rax
   18000337e:	66 90                	xchg   %ax,%ax
   180003380:	48 81 ec 08 01 00 00 	sub    $0x108,%rsp
   180003387:	48 89 4c 24 30       	mov    %rcx,0x30(%rsp)
   18000338c:	48 89 54 24 38       	mov    %rdx,0x38(%rsp)
   180003391:	4c 89 44 24 40       	mov    %r8,0x40(%rsp)
   180003396:	4c 89 4c 24 48       	mov    %r9,0x48(%rsp)
   18000339b:	f3 0f 7f 44 24 50    	movdqu %xmm0,0x50(%rsp)
   1800033a1:	f3 0f 7f 4c 24 60    	movdqu %xmm1,0x60(%rsp)
   1800033a7:	f3 0f 7f 54 24 70    	movdqu %xmm2,0x70(%rsp)
   1800033ad:	f3 0f 7f 9c 24 80 00 	movdqu %xmm3,0x80(%rsp)
   1800033b4:	00 00 
   1800033b6:	f3 0f 7f a4 24 90 00 	movdqu %xmm4,0x90(%rsp)
   1800033bd:	00 00 
   1800033bf:	f3 0f 7f ac 24 a0 00 	movdqu %xmm5,0xa0(%rsp)
   1800033c6:	00 00 
   1800033c8:	48 8d 0d c1 45 00 00 	lea    0x45c1(%rip),%rcx        # 0x180007990
   1800033cf:	e8 1e 1d 00 00       	callq  0x1800050f2
   1800033d4:	48 85 c0             	test   %rax,%rax
   1800033d7:	75 0c                	jne    0x1800033e5
   1800033d9:	48 8d 0d b0 45 00 00 	lea    0x45b0(%rip),%rcx        # 0x180007990
   1800033e0:	e8 07 1d 00 00       	callq  0x1800050ec
   1800033e5:	48 8b c8             	mov    %rax,%rcx
   1800033e8:	48 8d 15 41 44 00 00 	lea    0x4441(%rip),%rdx        # 0x180007830
   1800033ef:	e8 04 1d 00 00       	callq  0x1800050f8
   1800033f4:	48 8b 4c 24 30       	mov    0x30(%rsp),%rcx
   1800033f9:	48 8b 54 24 38       	mov    0x38(%rsp),%rdx
   1800033fe:	4c 8b 44 24 40       	mov    0x40(%rsp),%r8
   180003403:	4c 8b 4c 24 48       	mov    0x48(%rsp),%r9
   180003408:	f3 0f 6f 44 24 50    	movdqu 0x50(%rsp),%xmm0
   18000340e:	f3 0f 6f 4c 24 60    	movdqu 0x60(%rsp),%xmm1
   180003414:	f3 0f 6f 54 24 70    	movdqu 0x70(%rsp),%xmm2
   18000341a:	f3 0f 6f 9c 24 80 00 	movdqu 0x80(%rsp),%xmm3
   180003421:	00 00 
   180003423:	f3 0f 6f a4 24 90 00 	movdqu 0x90(%rsp),%xmm4
   18000342a:	00 00 
   18000342c:	f3 0f 6f ac 24 a0 00 	movdqu 0xa0(%rsp),%xmm5
   180003433:	00 00 
   180003435:	48 81 c4 08 01 00 00 	add    $0x108,%rsp
   18000343c:	ff e0                	jmpq   *%rax
   18000343e:	66 90                	xchg   %ax,%ax
   180003440:	48 81 ec 08 01 00 00 	sub    $0x108,%rsp
   180003447:	48 89 4c 24 30       	mov    %rcx,0x30(%rsp)
   18000344c:	48 89 54 24 38       	mov    %rdx,0x38(%rsp)
   180003451:	4c 89 44 24 40       	mov    %r8,0x40(%rsp)
   180003456:	4c 89 4c 24 48       	mov    %r9,0x48(%rsp)
   18000345b:	f3 0f 7f 44 24 50    	movdqu %xmm0,0x50(%rsp)
   180003461:	f3 0f 7f 4c 24 60    	movdqu %xmm1,0x60(%rsp)
   180003467:	f3 0f 7f 54 24 70    	movdqu %xmm2,0x70(%rsp)
   18000346d:	f3 0f 7f 9c 24 80 00 	movdqu %xmm3,0x80(%rsp)
   180003474:	00 00 
   180003476:	f3 0f 7f a4 24 90 00 	movdqu %xmm4,0x90(%rsp)
   18000347d:	00 00 
   18000347f:	f3 0f 7f ac 24 a0 00 	movdqu %xmm5,0xa0(%rsp)
   180003486:	00 00 
   180003488:	48 8d 0d 01 45 00 00 	lea    0x4501(%rip),%rcx        # 0x180007990
   18000348f:	e8 5e 1c 00 00       	callq  0x1800050f2
   180003494:	48 85 c0             	test   %rax,%rax
   180003497:	75 0c                	jne    0x1800034a5
   180003499:	48 8d 0d f0 44 00 00 	lea    0x44f0(%rip),%rcx        # 0x180007990
   1800034a0:	e8 47 1c 00 00       	callq  0x1800050ec
   1800034a5:	48 8b c8             	mov    %rax,%rcx
   1800034a8:	48 8d 15 a1 43 00 00 	lea    0x43a1(%rip),%rdx        # 0x180007850
   1800034af:	e8 44 1c 00 00       	callq  0x1800050f8
   1800034b4:	48 8b 4c 24 30       	mov    0x30(%rsp),%rcx
   1800034b9:	48 8b 54 24 38       	mov    0x38(%rsp),%rdx
   1800034be:	4c 8b 44 24 40       	mov    0x40(%rsp),%r8
   1800034c3:	4c 8b 4c 24 48       	mov    0x48(%rsp),%r9
   1800034c8:	f3 0f 6f 44 24 50    	movdqu 0x50(%rsp),%xmm0
   1800034ce:	f3 0f 6f 4c 24 60    	movdqu 0x60(%rsp),%xmm1
   1800034d4:	f3 0f 6f 54 24 70    	movdqu 0x70(%rsp),%xmm2
   1800034da:	f3 0f 6f 9c 24 80 00 	movdqu 0x80(%rsp),%xmm3
   1800034e1:	00 00 
   1800034e3:	f3 0f 6f a4 24 90 00 	movdqu 0x90(%rsp),%xmm4
   1800034ea:	00 00 
   1800034ec:	f3 0f 6f ac 24 a0 00 	movdqu 0xa0(%rsp),%xmm5
   1800034f3:	00 00 
   1800034f5:	48 81 c4 08 01 00 00 	add    $0x108,%rsp
   1800034fc:	ff e0                	jmpq   *%rax
   1800034fe:	66 90                	xchg   %ax,%ax
   180003500:	48 81 ec 08 01 00 00 	sub    $0x108,%rsp
   180003507:	48 89 4c 24 30       	mov    %rcx,0x30(%rsp)
   18000350c:	48 89 54 24 38       	mov    %rdx,0x38(%rsp)
   180003511:	4c 89 44 24 40       	mov    %r8,0x40(%rsp)
   180003516:	4c 89 4c 24 48       	mov    %r9,0x48(%rsp)
   18000351b:	f3 0f 7f 44 24 50    	movdqu %xmm0,0x50(%rsp)
   180003521:	f3 0f 7f 4c 24 60    	movdqu %xmm1,0x60(%rsp)
   180003527:	f3 0f 7f 54 24 70    	movdqu %xmm2,0x70(%rsp)
   18000352d:	f3 0f 7f 9c 24 80 00 	movdqu %xmm3,0x80(%rsp)
   180003534:	00 00 
   180003536:	f3 0f 7f a4 24 90 00 	movdqu %xmm4,0x90(%rsp)
   18000353d:	00 00 
   18000353f:	f3 0f 7f ac 24 a0 00 	movdqu %xmm5,0xa0(%rsp)
   180003546:	00 00 
   180003548:	48 8d 0d 41 44 00 00 	lea    0x4441(%rip),%rcx        # 0x180007990
   18000354f:	e8 9e 1b 00 00       	callq  0x1800050f2
   180003554:	48 85 c0             	test   %rax,%rax
   180003557:	75 0c                	jne    0x180003565
   180003559:	48 8d 0d 30 44 00 00 	lea    0x4430(%rip),%rcx        # 0x180007990
   180003560:	e8 87 1b 00 00       	callq  0x1800050ec
   180003565:	48 8b c8             	mov    %rax,%rcx
   180003568:	48 8d 15 01 43 00 00 	lea    0x4301(%rip),%rdx        # 0x180007870
   18000356f:	e8 84 1b 00 00       	callq  0x1800050f8
   180003574:	48 8b 4c 24 30       	mov    0x30(%rsp),%rcx
   180003579:	48 8b 54 24 38       	mov    0x38(%rsp),%rdx
   18000357e:	4c 8b 44 24 40       	mov    0x40(%rsp),%r8
   180003583:	4c 8b 4c 24 48       	mov    0x48(%rsp),%r9
   180003588:	f3 0f 6f 44 24 50    	movdqu 0x50(%rsp),%xmm0
   18000358e:	f3 0f 6f 4c 24 60    	movdqu 0x60(%rsp),%xmm1
   180003594:	f3 0f 6f 54 24 70    	movdqu 0x70(%rsp),%xmm2
   18000359a:	f3 0f 6f 9c 24 80 00 	movdqu 0x80(%rsp),%xmm3
   1800035a1:	00 00 
   1800035a3:	f3 0f 6f a4 24 90 00 	movdqu 0x90(%rsp),%xmm4
   1800035aa:	00 00 
   1800035ac:	f3 0f 6f ac 24 a0 00 	movdqu 0xa0(%rsp),%xmm5
   1800035b3:	00 00 
   1800035b5:	48 81 c4 08 01 00 00 	add    $0x108,%rsp
   1800035bc:	ff e0                	jmpq   *%rax
   1800035be:	66 90                	xchg   %ax,%ax
   1800035c0:	48 81 ec 08 01 00 00 	sub    $0x108,%rsp
   1800035c7:	48 89 4c 24 30       	mov    %rcx,0x30(%rsp)
   1800035cc:	48 89 54 24 38       	mov    %rdx,0x38(%rsp)
   1800035d1:	4c 89 44 24 40       	mov    %r8,0x40(%rsp)
   1800035d6:	4c 89 4c 24 48       	mov    %r9,0x48(%rsp)
   1800035db:	f3 0f 7f 44 24 50    	movdqu %xmm0,0x50(%rsp)
   1800035e1:	f3 0f 7f 4c 24 60    	movdqu %xmm1,0x60(%rsp)
   1800035e7:	f3 0f 7f 54 24 70    	movdqu %xmm2,0x70(%rsp)
   1800035ed:	f3 0f 7f 9c 24 80 00 	movdqu %xmm3,0x80(%rsp)
   1800035f4:	00 00 
   1800035f6:	f3 0f 7f a4 24 90 00 	movdqu %xmm4,0x90(%rsp)
   1800035fd:	00 00 
   1800035ff:	f3 0f 7f ac 24 a0 00 	movdqu %xmm5,0xa0(%rsp)
   180003606:	00 00 
   180003608:	48 8d 0d 81 43 00 00 	lea    0x4381(%rip),%rcx        # 0x180007990
   18000360f:	e8 de 1a 00 00       	callq  0x1800050f2
   180003614:	48 85 c0             	test   %rax,%rax
   180003617:	75 0c                	jne    0x180003625
   180003619:	48 8d 0d 70 43 00 00 	lea    0x4370(%rip),%rcx        # 0x180007990
   180003620:	e8 c7 1a 00 00       	callq  0x1800050ec
   180003625:	48 8b c8             	mov    %rax,%rcx
   180003628:	48 8d 15 61 42 00 00 	lea    0x4261(%rip),%rdx        # 0x180007890
   18000362f:	e8 c4 1a 00 00       	callq  0x1800050f8
   180003634:	48 8b 4c 24 30       	mov    0x30(%rsp),%rcx
   180003639:	48 8b 54 24 38       	mov    0x38(%rsp),%rdx
   18000363e:	4c 8b 44 24 40       	mov    0x40(%rsp),%r8
   180003643:	4c 8b 4c 24 48       	mov    0x48(%rsp),%r9
   180003648:	f3 0f 6f 44 24 50    	movdqu 0x50(%rsp),%xmm0
   18000364e:	f3 0f 6f 4c 24 60    	movdqu 0x60(%rsp),%xmm1
   180003654:	f3 0f 6f 54 24 70    	movdqu 0x70(%rsp),%xmm2
   18000365a:	f3 0f 6f 9c 24 80 00 	movdqu 0x80(%rsp),%xmm3
   180003661:	00 00 
   180003663:	f3 0f 6f a4 24 90 00 	movdqu 0x90(%rsp),%xmm4
   18000366a:	00 00 
   18000366c:	f3 0f 6f ac 24 a0 00 	movdqu 0xa0(%rsp),%xmm5
   180003673:	00 00 
   180003675:	48 81 c4 08 01 00 00 	add    $0x108,%rsp
   18000367c:	ff e0                	jmpq   *%rax
   18000367e:	66 90                	xchg   %ax,%ax
   180003680:	48 81 ec 08 01 00 00 	sub    $0x108,%rsp
   180003687:	48 89 4c 24 30       	mov    %rcx,0x30(%rsp)
   18000368c:	48 89 54 24 38       	mov    %rdx,0x38(%rsp)
   180003691:	4c 89 44 24 40       	mov    %r8,0x40(%rsp)
   180003696:	4c 89 4c 24 48       	mov    %r9,0x48(%rsp)
   18000369b:	f3 0f 7f 44 24 50    	movdqu %xmm0,0x50(%rsp)
   1800036a1:	f3 0f 7f 4c 24 60    	movdqu %xmm1,0x60(%rsp)
   1800036a7:	f3 0f 7f 54 24 70    	movdqu %xmm2,0x70(%rsp)
   1800036ad:	f3 0f 7f 9c 24 80 00 	movdqu %xmm3,0x80(%rsp)
   1800036b4:	00 00 
   1800036b6:	f3 0f 7f a4 24 90 00 	movdqu %xmm4,0x90(%rsp)
   1800036bd:	00 00 
   1800036bf:	f3 0f 7f ac 24 a0 00 	movdqu %xmm5,0xa0(%rsp)
   1800036c6:	00 00 
   1800036c8:	48 8d 0d c1 42 00 00 	lea    0x42c1(%rip),%rcx        # 0x180007990
   1800036cf:	e8 1e 1a 00 00       	callq  0x1800050f2
   1800036d4:	48 85 c0             	test   %rax,%rax
   1800036d7:	75 0c                	jne    0x1800036e5
   1800036d9:	48 8d 0d b0 42 00 00 	lea    0x42b0(%rip),%rcx        # 0x180007990
   1800036e0:	e8 07 1a 00 00       	callq  0x1800050ec
   1800036e5:	48 8b c8             	mov    %rax,%rcx
   1800036e8:	48 8d 15 c1 41 00 00 	lea    0x41c1(%rip),%rdx        # 0x1800078b0
   1800036ef:	e8 04 1a 00 00       	callq  0x1800050f8
   1800036f4:	48 8b 4c 24 30       	mov    0x30(%rsp),%rcx
   1800036f9:	48 8b 54 24 38       	mov    0x38(%rsp),%rdx
   1800036fe:	4c 8b 44 24 40       	mov    0x40(%rsp),%r8
   180003703:	4c 8b 4c 24 48       	mov    0x48(%rsp),%r9
   180003708:	f3 0f 6f 44 24 50    	movdqu 0x50(%rsp),%xmm0
   18000370e:	f3 0f 6f 4c 24 60    	movdqu 0x60(%rsp),%xmm1
   180003714:	f3 0f 6f 54 24 70    	movdqu 0x70(%rsp),%xmm2
   18000371a:	f3 0f 6f 9c 24 80 00 	movdqu 0x80(%rsp),%xmm3
   180003721:	00 00 
   180003723:	f3 0f 6f a4 24 90 00 	movdqu 0x90(%rsp),%xmm4
   18000372a:	00 00 
   18000372c:	f3 0f 6f ac 24 a0 00 	movdqu 0xa0(%rsp),%xmm5
   180003733:	00 00 
   180003735:	48 81 c4 08 01 00 00 	add    $0x108,%rsp
   18000373c:	ff e0                	jmpq   *%rax
   18000373e:	66 90                	xchg   %ax,%ax
   180003740:	48 81 ec 08 01 00 00 	sub    $0x108,%rsp
   180003747:	48 89 4c 24 30       	mov    %rcx,0x30(%rsp)
   18000374c:	48 89 54 24 38       	mov    %rdx,0x38(%rsp)
   180003751:	4c 89 44 24 40       	mov    %r8,0x40(%rsp)
   180003756:	4c 89 4c 24 48       	mov    %r9,0x48(%rsp)
   18000375b:	f3 0f 7f 44 24 50    	movdqu %xmm0,0x50(%rsp)
   180003761:	f3 0f 7f 4c 24 60    	movdqu %xmm1,0x60(%rsp)
   180003767:	f3 0f 7f 54 24 70    	movdqu %xmm2,0x70(%rsp)
   18000376d:	f3 0f 7f 9c 24 80 00 	movdqu %xmm3,0x80(%rsp)
   180003774:	00 00 
   180003776:	f3 0f 7f a4 24 90 00 	movdqu %xmm4,0x90(%rsp)
   18000377d:	00 00 
   18000377f:	f3 0f 7f ac 24 a0 00 	movdqu %xmm5,0xa0(%rsp)
   180003786:	00 00 
   180003788:	48 8d 0d 01 42 00 00 	lea    0x4201(%rip),%rcx        # 0x180007990
   18000378f:	e8 5e 19 00 00       	callq  0x1800050f2
   180003794:	48 85 c0             	test   %rax,%rax
   180003797:	75 0c                	jne    0x1800037a5
   180003799:	48 8d 0d f0 41 00 00 	lea    0x41f0(%rip),%rcx        # 0x180007990
   1800037a0:	e8 47 19 00 00       	callq  0x1800050ec
   1800037a5:	48 8b c8             	mov    %rax,%rcx
   1800037a8:	48 8d 15 21 41 00 00 	lea    0x4121(%rip),%rdx        # 0x1800078d0
   1800037af:	e8 44 19 00 00       	callq  0x1800050f8
   1800037b4:	48 8b 4c 24 30       	mov    0x30(%rsp),%rcx
   1800037b9:	48 8b 54 24 38       	mov    0x38(%rsp),%rdx
   1800037be:	4c 8b 44 24 40       	mov    0x40(%rsp),%r8
   1800037c3:	4c 8b 4c 24 48       	mov    0x48(%rsp),%r9
   1800037c8:	f3 0f 6f 44 24 50    	movdqu 0x50(%rsp),%xmm0
   1800037ce:	f3 0f 6f 4c 24 60    	movdqu 0x60(%rsp),%xmm1
   1800037d4:	f3 0f 6f 54 24 70    	movdqu 0x70(%rsp),%xmm2
   1800037da:	f3 0f 6f 9c 24 80 00 	movdqu 0x80(%rsp),%xmm3
   1800037e1:	00 00 
   1800037e3:	f3 0f 6f a4 24 90 00 	movdqu 0x90(%rsp),%xmm4
   1800037ea:	00 00 
   1800037ec:	f3 0f 6f ac 24 a0 00 	movdqu 0xa0(%rsp),%xmm5
   1800037f3:	00 00 
   1800037f5:	48 81 c4 08 01 00 00 	add    $0x108,%rsp
   1800037fc:	ff e0                	jmpq   *%rax
   1800037fe:	66 90                	xchg   %ax,%ax
   180003800:	48 81 ec 08 01 00 00 	sub    $0x108,%rsp
   180003807:	48 89 4c 24 30       	mov    %rcx,0x30(%rsp)
   18000380c:	48 89 54 24 38       	mov    %rdx,0x38(%rsp)
   180003811:	4c 89 44 24 40       	mov    %r8,0x40(%rsp)
   180003816:	4c 89 4c 24 48       	mov    %r9,0x48(%rsp)
   18000381b:	f3 0f 7f 44 24 50    	movdqu %xmm0,0x50(%rsp)
   180003821:	f3 0f 7f 4c 24 60    	movdqu %xmm1,0x60(%rsp)
   180003827:	f3 0f 7f 54 24 70    	movdqu %xmm2,0x70(%rsp)
   18000382d:	f3 0f 7f 9c 24 80 00 	movdqu %xmm3,0x80(%rsp)
   180003834:	00 00 
   180003836:	f3 0f 7f a4 24 90 00 	movdqu %xmm4,0x90(%rsp)
   18000383d:	00 00 
   18000383f:	f3 0f 7f ac 24 a0 00 	movdqu %xmm5,0xa0(%rsp)
   180003846:	00 00 
   180003848:	48 8d 0d 41 41 00 00 	lea    0x4141(%rip),%rcx        # 0x180007990
   18000384f:	e8 9e 18 00 00       	callq  0x1800050f2
   180003854:	48 85 c0             	test   %rax,%rax
   180003857:	75 0c                	jne    0x180003865
   180003859:	48 8d 0d 30 41 00 00 	lea    0x4130(%rip),%rcx        # 0x180007990
   180003860:	e8 87 18 00 00       	callq  0x1800050ec
   180003865:	48 8b c8             	mov    %rax,%rcx
   180003868:	48 8d 15 81 40 00 00 	lea    0x4081(%rip),%rdx        # 0x1800078f0
   18000386f:	e8 84 18 00 00       	callq  0x1800050f8
   180003874:	48 8b 4c 24 30       	mov    0x30(%rsp),%rcx
   180003879:	48 8b 54 24 38       	mov    0x38(%rsp),%rdx
   18000387e:	4c 8b 44 24 40       	mov    0x40(%rsp),%r8
   180003883:	4c 8b 4c 24 48       	mov    0x48(%rsp),%r9
   180003888:	f3 0f 6f 44 24 50    	movdqu 0x50(%rsp),%xmm0
   18000388e:	f3 0f 6f 4c 24 60    	movdqu 0x60(%rsp),%xmm1
   180003894:	f3 0f 6f 54 24 70    	movdqu 0x70(%rsp),%xmm2
   18000389a:	f3 0f 6f 9c 24 80 00 	movdqu 0x80(%rsp),%xmm3
   1800038a1:	00 00 
   1800038a3:	f3 0f 6f a4 24 90 00 	movdqu 0x90(%rsp),%xmm4
   1800038aa:	00 00 
   1800038ac:	f3 0f 6f ac 24 a0 00 	movdqu 0xa0(%rsp),%xmm5
   1800038b3:	00 00 
   1800038b5:	48 81 c4 08 01 00 00 	add    $0x108,%rsp
   1800038bc:	ff e0                	jmpq   *%rax
   1800038be:	66 90                	xchg   %ax,%ax
   1800038c0:	48 81 ec 08 01 00 00 	sub    $0x108,%rsp
   1800038c7:	48 89 4c 24 30       	mov    %rcx,0x30(%rsp)
   1800038cc:	48 89 54 24 38       	mov    %rdx,0x38(%rsp)
   1800038d1:	4c 89 44 24 40       	mov    %r8,0x40(%rsp)
   1800038d6:	4c 89 4c 24 48       	mov    %r9,0x48(%rsp)
   1800038db:	f3 0f 7f 44 24 50    	movdqu %xmm0,0x50(%rsp)
   1800038e1:	f3 0f 7f 4c 24 60    	movdqu %xmm1,0x60(%rsp)
   1800038e7:	f3 0f 7f 54 24 70    	movdqu %xmm2,0x70(%rsp)
   1800038ed:	f3 0f 7f 9c 24 80 00 	movdqu %xmm3,0x80(%rsp)
   1800038f4:	00 00 
   1800038f6:	f3 0f 7f a4 24 90 00 	movdqu %xmm4,0x90(%rsp)
   1800038fd:	00 00 
   1800038ff:	f3 0f 7f ac 24 a0 00 	movdqu %xmm5,0xa0(%rsp)
   180003906:	00 00 
   180003908:	48 8d 0d 81 40 00 00 	lea    0x4081(%rip),%rcx        # 0x180007990
   18000390f:	e8 de 17 00 00       	callq  0x1800050f2
   180003914:	48 85 c0             	test   %rax,%rax
   180003917:	75 0c                	jne    0x180003925
   180003919:	48 8d 0d 70 40 00 00 	lea    0x4070(%rip),%rcx        # 0x180007990
   180003920:	e8 c7 17 00 00       	callq  0x1800050ec
   180003925:	48 8b c8             	mov    %rax,%rcx
   180003928:	48 8d 15 f1 3f 00 00 	lea    0x3ff1(%rip),%rdx        # 0x180007920
   18000392f:	e8 c4 17 00 00       	callq  0x1800050f8
   180003934:	48 8b 4c 24 30       	mov    0x30(%rsp),%rcx
   180003939:	48 8b 54 24 38       	mov    0x38(%rsp),%rdx
   18000393e:	4c 8b 44 24 40       	mov    0x40(%rsp),%r8
   180003943:	4c 8b 4c 24 48       	mov    0x48(%rsp),%r9
   180003948:	f3 0f 6f 44 24 50    	movdqu 0x50(%rsp),%xmm0
   18000394e:	f3 0f 6f 4c 24 60    	movdqu 0x60(%rsp),%xmm1
   180003954:	f3 0f 6f 54 24 70    	movdqu 0x70(%rsp),%xmm2
   18000395a:	f3 0f 6f 9c 24 80 00 	movdqu 0x80(%rsp),%xmm3
   180003961:	00 00 
   180003963:	f3 0f 6f a4 24 90 00 	movdqu 0x90(%rsp),%xmm4
   18000396a:	00 00 
   18000396c:	f3 0f 6f ac 24 a0 00 	movdqu 0xa0(%rsp),%xmm5
   180003973:	00 00 
   180003975:	48 81 c4 08 01 00 00 	add    $0x108,%rsp
   18000397c:	ff e0                	jmpq   *%rax
   18000397e:	66 90                	xchg   %ax,%ax
   180003980:	48 81 ec 08 01 00 00 	sub    $0x108,%rsp
   180003987:	48 89 4c 24 30       	mov    %rcx,0x30(%rsp)
   18000398c:	48 89 54 24 38       	mov    %rdx,0x38(%rsp)
   180003991:	4c 89 44 24 40       	mov    %r8,0x40(%rsp)
   180003996:	4c 89 4c 24 48       	mov    %r9,0x48(%rsp)
   18000399b:	f3 0f 7f 44 24 50    	movdqu %xmm0,0x50(%rsp)
   1800039a1:	f3 0f 7f 4c 24 60    	movdqu %xmm1,0x60(%rsp)
   1800039a7:	f3 0f 7f 54 24 70    	movdqu %xmm2,0x70(%rsp)
   1800039ad:	f3 0f 7f 9c 24 80 00 	movdqu %xmm3,0x80(%rsp)
   1800039b4:	00 00 
   1800039b6:	f3 0f 7f a4 24 90 00 	movdqu %xmm4,0x90(%rsp)
   1800039bd:	00 00 
   1800039bf:	f3 0f 7f ac 24 a0 00 	movdqu %xmm5,0xa0(%rsp)
   1800039c6:	00 00 
   1800039c8:	48 8d 0d c1 3f 00 00 	lea    0x3fc1(%rip),%rcx        # 0x180007990
   1800039cf:	e8 1e 17 00 00       	callq  0x1800050f2
   1800039d4:	48 85 c0             	test   %rax,%rax
   1800039d7:	75 0c                	jne    0x1800039e5
   1800039d9:	48 8d 0d b0 3f 00 00 	lea    0x3fb0(%rip),%rcx        # 0x180007990
   1800039e0:	e8 07 17 00 00       	callq  0x1800050ec
   1800039e5:	48 8b c8             	mov    %rax,%rcx
   1800039e8:	48 8d 15 61 3f 00 00 	lea    0x3f61(%rip),%rdx        # 0x180007950
   1800039ef:	e8 04 17 00 00       	callq  0x1800050f8
   1800039f4:	48 8b 4c 24 30       	mov    0x30(%rsp),%rcx
   1800039f9:	48 8b 54 24 38       	mov    0x38(%rsp),%rdx
   1800039fe:	4c 8b 44 24 40       	mov    0x40(%rsp),%r8
   180003a03:	4c 8b 4c 24 48       	mov    0x48(%rsp),%r9
   180003a08:	f3 0f 6f 44 24 50    	movdqu 0x50(%rsp),%xmm0
   180003a0e:	f3 0f 6f 4c 24 60    	movdqu 0x60(%rsp),%xmm1
   180003a14:	f3 0f 6f 54 24 70    	movdqu 0x70(%rsp),%xmm2
   180003a1a:	f3 0f 6f 9c 24 80 00 	movdqu 0x80(%rsp),%xmm3
   180003a21:	00 00 
   180003a23:	f3 0f 6f a4 24 90 00 	movdqu 0x90(%rsp),%xmm4
   180003a2a:	00 00 
   180003a2c:	f3 0f 6f ac 24 a0 00 	movdqu 0xa0(%rsp),%xmm5
   180003a33:	00 00 
   180003a35:	48 81 c4 08 01 00 00 	add    $0x108,%rsp
   180003a3c:	ff e0                	jmpq   *%rax
   180003a3e:	66 90                	xchg   %ax,%ax
   180003a40:	48 81 ec 08 01 00 00 	sub    $0x108,%rsp
   180003a47:	48 89 4c 24 30       	mov    %rcx,0x30(%rsp)
   180003a4c:	48 89 54 24 38       	mov    %rdx,0x38(%rsp)
   180003a51:	4c 89 44 24 40       	mov    %r8,0x40(%rsp)
   180003a56:	4c 89 4c 24 48       	mov    %r9,0x48(%rsp)
   180003a5b:	f3 0f 7f 44 24 50    	movdqu %xmm0,0x50(%rsp)
   180003a61:	f3 0f 7f 4c 24 60    	movdqu %xmm1,0x60(%rsp)
   180003a67:	f3 0f 7f 54 24 70    	movdqu %xmm2,0x70(%rsp)
   180003a6d:	f3 0f 7f 9c 24 80 00 	movdqu %xmm3,0x80(%rsp)
   180003a74:	00 00 
   180003a76:	f3 0f 7f a4 24 90 00 	movdqu %xmm4,0x90(%rsp)
   180003a7d:	00 00 
   180003a7f:	f3 0f 7f ac 24 a0 00 	movdqu %xmm5,0xa0(%rsp)
   180003a86:	00 00 
   180003a88:	48 8d 0d 01 3f 00 00 	lea    0x3f01(%rip),%rcx        # 0x180007990
   180003a8f:	e8 5e 16 00 00       	callq  0x1800050f2
   180003a94:	48 85 c0             	test   %rax,%rax
   180003a97:	75 0c                	jne    0x180003aa5
   180003a99:	48 8d 0d f0 3e 00 00 	lea    0x3ef0(%rip),%rcx        # 0x180007990
   180003aa0:	e8 47 16 00 00       	callq  0x1800050ec
   180003aa5:	48 8b c8             	mov    %rax,%rcx
   180003aa8:	48 8d 15 c1 3e 00 00 	lea    0x3ec1(%rip),%rdx        # 0x180007970
   180003aaf:	e8 44 16 00 00       	callq  0x1800050f8
   180003ab4:	48 8b 4c 24 30       	mov    0x30(%rsp),%rcx
   180003ab9:	48 8b 54 24 38       	mov    0x38(%rsp),%rdx
   180003abe:	4c 8b 44 24 40       	mov    0x40(%rsp),%r8
   180003ac3:	4c 8b 4c 24 48       	mov    0x48(%rsp),%r9
   180003ac8:	f3 0f 6f 44 24 50    	movdqu 0x50(%rsp),%xmm0
   180003ace:	f3 0f 6f 4c 24 60    	movdqu 0x60(%rsp),%xmm1
   180003ad4:	f3 0f 6f 54 24 70    	movdqu 0x70(%rsp),%xmm2
   180003ada:	f3 0f 6f 9c 24 80 00 	movdqu 0x80(%rsp),%xmm3
   180003ae1:	00 00 
   180003ae3:	f3 0f 6f a4 24 90 00 	movdqu 0x90(%rsp),%xmm4
   180003aea:	00 00 
   180003aec:	f3 0f 6f ac 24 a0 00 	movdqu 0xa0(%rsp),%xmm5
   180003af3:	00 00 
   180003af5:	48 81 c4 08 01 00 00 	add    $0x108,%rsp
   180003afc:	ff e0                	jmpq   *%rax
   180003afe:	66 90                	xchg   %ax,%ax
   180003b00:	48 8d 05 e9 44 00 00 	lea    0x44e9(%rip),%rax        # 0x180007ff0
   180003b07:	c3                   	retq   
   180003b08:	48 89 5c 24 08       	mov    %rbx,0x8(%rsp)
   180003b0d:	48 89 74 24 10       	mov    %rsi,0x10(%rsp)
   180003b12:	57                   	push   %rdi
   180003b13:	48 81 ec 10 02 00 00 	sub    $0x210,%rsp
   180003b1a:	65 48 8b 04 25 60 00 	mov    %gs:0x60,%rax
   180003b21:	00 00 
   180003b23:	be 20 00 00 00       	mov    $0x20,%esi
   180003b28:	8b d9                	mov    %ecx,%ebx
   180003b2a:	4c 8b 40 18          	mov    0x18(%rax),%r8
   180003b2e:	4c 03 c6             	add    %rsi,%r8
   180003b31:	49 8b 00             	mov    (%r8),%rax
   180003b34:	49 3b c0             	cmp    %r8,%rax
   180003b37:	0f 84 f7 00 00 00    	je     0x180003c34
   180003b3d:	33 ff                	xor    %edi,%edi
   180003b3f:	4c 8d 48 f0          	lea    -0x10(%rax),%r9
   180003b43:	41 ba c6 4f f8 67    	mov    $0x67f84fc6,%r10d
   180003b49:	49 8b 51 60          	mov    0x60(%r9),%rdx
   180003b4d:	4c 8b da             	mov    %rdx,%r11
   180003b50:	0f b7 0a             	movzwl (%rdx),%ecx
   180003b53:	eb 2e                	jmp    0x180003b83
   180003b55:	8d 41 bf             	lea    -0x41(%rcx),%eax
   180003b58:	66 83 f8 19          	cmp    $0x19,%ax
   180003b5c:	77 03                	ja     0x180003b61
   180003b5e:	66 03 ce             	add    %si,%cx
   180003b61:	0f b7 c9             	movzwl %cx,%ecx
   180003b64:	8b c1                	mov    %ecx,%eax
   180003b66:	83 e0 07             	and    $0x7,%eax
   180003b69:	0f af c9             	imul   %ecx,%ecx
   180003b6c:	c1 e0 09             	shl    $0x9,%eax
   180003b6f:	05 27 0c a2 08       	add    $0x8a20c27,%eax
   180003b74:	44 0f af d0          	imul   %eax,%r10d
   180003b78:	44 33 d1             	xor    %ecx,%r10d
   180003b7b:	49 83 c3 02          	add    $0x2,%r11
   180003b7f:	41 0f b7 0b          	movzwl (%r11),%ecx
   180003b83:	66 85 c9             	test   %cx,%cx
   180003b86:	75 cd                	jne    0x180003b55
   180003b88:	44 3b d3             	cmp    %ebx,%r10d
   180003b8b:	0f 84 ba 00 00 00    	je     0x180003c4b
   180003b91:	b8 08 02 00 00       	mov    $0x208,%eax
   180003b96:	66 41 39 41 58       	cmp    %ax,0x58(%r9)
   180003b9b:	0f 83 86 00 00 00    	jae    0x180003c27
   180003ba1:	0f b7 0a             	movzwl (%rdx),%ecx
   180003ba4:	66 89 0c 24          	mov    %cx,(%rsp)
   180003ba8:	66 85 c9             	test   %cx,%cx
   180003bab:	74 1b                	je     0x180003bc8
   180003bad:	48 8d 0c 24          	lea    (%rsp),%rcx
   180003bb1:	48 2b ca             	sub    %rdx,%rcx
   180003bb4:	48 8d 52 02          	lea    0x2(%rdx),%rdx
   180003bb8:	0f b7 02             	movzwl (%rdx),%eax
   180003bbb:	66 89 04 11          	mov    %ax,(%rcx,%rdx,1)
   180003bbf:	66 85 c0             	test   %ax,%ax
   180003bc2:	75 f0                	jne    0x180003bb4
   180003bc4:	0f b7 0c 24          	movzwl (%rsp),%ecx
   180003bc8:	48 8d 04 24          	lea    (%rsp),%rax
   180003bcc:	66 85 c9             	test   %cx,%cx
   180003bcf:	74 0f                	je     0x180003be0
   180003bd1:	66 83 38 2e          	cmpw   $0x2e,(%rax)
   180003bd5:	74 09                	je     0x180003be0
   180003bd7:	48 83 c0 02          	add    $0x2,%rax
   180003bdb:	66 39 38             	cmp    %di,(%rax)
   180003bde:	75 f1                	jne    0x180003bd1
   180003be0:	66 89 38             	mov    %di,(%rax)
   180003be3:	0f b7 0c 24          	movzwl (%rsp),%ecx
   180003be7:	4c 8d 14 24          	lea    (%rsp),%r10
   180003beb:	ba c6 4f f8 67       	mov    $0x67f84fc6,%edx
   180003bf0:	eb 2c                	jmp    0x180003c1e
   180003bf2:	8d 41 bf             	lea    -0x41(%rcx),%eax
   180003bf5:	66 83 f8 19          	cmp    $0x19,%ax
   180003bf9:	77 03                	ja     0x180003bfe
   180003bfb:	66 03 ce             	add    %si,%cx
   180003bfe:	0f b7 c9             	movzwl %cx,%ecx
   180003c01:	8b c1                	mov    %ecx,%eax
   180003c03:	83 e0 07             	and    $0x7,%eax
   180003c06:	0f af c9             	imul   %ecx,%ecx
   180003c09:	c1 e0 09             	shl    $0x9,%eax
   180003c0c:	05 27 0c a2 08       	add    $0x8a20c27,%eax
   180003c11:	0f af d0             	imul   %eax,%edx
   180003c14:	33 d1                	xor    %ecx,%edx
   180003c16:	49 83 c2 02          	add    $0x2,%r10
   180003c1a:	41 0f b7 0a          	movzwl (%r10),%ecx
   180003c1e:	66 85 c9             	test   %cx,%cx
   180003c21:	75 cf                	jne    0x180003bf2
   180003c23:	3b d3                	cmp    %ebx,%edx
   180003c25:	74 24                	je     0x180003c4b
   180003c27:	49 8b 41 10          	mov    0x10(%r9),%rax
   180003c2b:	49 3b c0             	cmp    %r8,%rax
   180003c2e:	0f 85 0b ff ff ff    	jne    0x180003b3f
   180003c34:	33 c0                	xor    %eax,%eax
   180003c36:	4c 8d 9c 24 10 02 00 	lea    0x210(%rsp),%r11
   180003c3d:	00 
   180003c3e:	49 8b 5b 10          	mov    0x10(%r11),%rbx
   180003c42:	49 8b 73 18          	mov    0x18(%r11),%rsi
   180003c46:	49 8b e3             	mov    %r11,%rsp
   180003c49:	5f                   	pop    %rdi
   180003c4a:	c3                   	retq   
   180003c4b:	49 8b 41 30          	mov    0x30(%r9),%rax
   180003c4f:	eb e5                	jmp    0x180003c36
   180003c51:	cc                   	int3   
   180003c52:	cc                   	int3   
   180003c53:	cc                   	int3   
   180003c54:	48 89 5c 24 08       	mov    %rbx,0x8(%rsp)
   180003c59:	48 89 6c 24 10       	mov    %rbp,0x10(%rsp)
   180003c5e:	48 89 74 24 18       	mov    %rsi,0x18(%rsp)
   180003c63:	57                   	push   %rdi
   180003c64:	48 81 ec 30 02 00 00 	sub    $0x230,%rsp
   180003c6b:	e8 90 fe ff ff       	callq  0x180003b00
   180003c70:	48 8b d8             	mov    %rax,%rbx
   180003c73:	81 38 40 b7 5e 07    	cmpl   $0x75eb740,(%rax)
   180003c79:	75 0a                	jne    0x180003c85
   180003c7b:	b8 01 00 00 00       	mov    $0x1,%eax
   180003c80:	e9 aa 00 00 00       	jmpq   0x180003d2f
   180003c85:	8b 05 45 26 00 00    	mov    0x2645(%rip),%eax        # 0x1800062d0
   180003c8b:	be f1 86 f1 86       	mov    $0x86f186f1,%esi
   180003c90:	33 ff                	xor    %edi,%edi
   180003c92:	33 c6                	xor    %esi,%eax
   180003c94:	48 8d 2d 65 c3 ff ff 	lea    -0x3c9b(%rip),%rbp        # 0x180000000
   180003c9b:	89 44 24 20          	mov    %eax,0x20(%rsp)
   180003c9f:	66 3b c7             	cmp    %di,%ax
   180003ca2:	74 1f                	je     0x180003cc3
   180003ca4:	8b cf                	mov    %edi,%ecx
   180003ca6:	66 39 7c 0c 22       	cmp    %di,0x22(%rsp,%rcx,1)
   180003cab:	74 16                	je     0x180003cc3
   180003cad:	8b 84 29 d4 62 00 00 	mov    0x62d4(%rcx,%rbp,1),%eax
   180003cb4:	48 83 c1 04          	add    $0x4,%rcx
   180003cb8:	33 c6                	xor    %esi,%eax
   180003cba:	89 44 0c 20          	mov    %eax,0x20(%rsp,%rcx,1)
   180003cbe:	66 85 c0             	test   %ax,%ax
   180003cc1:	75 e3                	jne    0x180003ca6
   180003cc3:	48 8d 4c 24 20       	lea    0x20(%rsp),%rcx
   180003cc8:	ff 15 7a 23 00 00    	callq  *0x237a(%rip)        # 0x180006048
   180003cce:	48 89 83 a8 01 00 00 	mov    %rax,0x1a8(%rbx)
   180003cd5:	8b 05 b5 25 00 00    	mov    0x25b5(%rip),%eax        # 0x180006290
   180003cdb:	33 c6                	xor    %esi,%eax
   180003cdd:	89 44 24 20          	mov    %eax,0x20(%rsp)
   180003ce1:	66 3b c7             	cmp    %di,%ax
   180003ce4:	74 20                	je     0x180003d06
   180003ce6:	48 8b cf             	mov    %rdi,%rcx
   180003ce9:	66 39 7c 0c 22       	cmp    %di,0x22(%rsp,%rcx,1)
   180003cee:	74 16                	je     0x180003d06
   180003cf0:	8b 84 29 94 62 00 00 	mov    0x6294(%rcx,%rbp,1),%eax
   180003cf7:	48 83 c1 04          	add    $0x4,%rcx
   180003cfb:	33 c6                	xor    %esi,%eax
   180003cfd:	89 44 0c 20          	mov    %eax,0x20(%rsp,%rcx,1)
   180003d01:	66 85 c0             	test   %ax,%ax
   180003d04:	75 e3                	jne    0x180003ce9
   180003d06:	48 8d 4c 24 20       	lea    0x20(%rsp),%rcx
   180003d0b:	ff 15 37 23 00 00    	callq  *0x2337(%rip)        # 0x180006048
   180003d11:	48 89 83 a0 01 00 00 	mov    %rax,0x1a0(%rbx)
   180003d18:	48 39 bb a8 01 00 00 	cmp    %rdi,0x1a8(%rbx)
   180003d1f:	74 0c                	je     0x180003d2d
   180003d21:	48 85 c0             	test   %rax,%rax
   180003d24:	74 07                	je     0x180003d2d
   180003d26:	e8 1d 00 00 00       	callq  0x180003d48
   180003d2b:	eb 02                	jmp    0x180003d2f
   180003d2d:	33 c0                	xor    %eax,%eax
   180003d2f:	4c 8d 9c 24 30 02 00 	lea    0x230(%rsp),%r11
   180003d36:	00 
   180003d37:	49 8b 5b 10          	mov    0x10(%r11),%rbx
   180003d3b:	49 8b 6b 18          	mov    0x18(%r11),%rbp
   180003d3f:	49 8b 73 20          	mov    0x20(%r11),%rsi
   180003d43:	49 8b e3             	mov    %r11,%rsp
   180003d46:	5f                   	pop    %rdi
   180003d47:	c3                   	retq   
   180003d48:	48 89 5c 24 08       	mov    %rbx,0x8(%rsp)
   180003d4d:	48 89 74 24 10       	mov    %rsi,0x10(%rsp)
   180003d52:	57                   	push   %rdi
   180003d53:	48 83 ec 20          	sub    $0x20,%rsp
   180003d57:	e8 a4 fd ff ff       	callq  0x180003b00
   180003d5c:	ba 5b 55 3f bc       	mov    $0xbc3f555b,%edx
   180003d61:	48 8b 88 a0 01 00 00 	mov    0x1a0(%rax),%rcx
   180003d68:	48 83 a0 98 01 00 00 	andq   $0x0,0x198(%rax)
   180003d6f:	00 
   180003d70:	48 83 60 28 00       	andq   $0x0,0x28(%rax)
   180003d75:	48 8b d8             	mov    %rax,%rbx
   180003d78:	e8 3b 04 00 00       	callq  0x1800041b8
   180003d7d:	48 8d 35 4c 25 00 00 	lea    0x254c(%rip),%rsi        # 0x1800062d0
   180003d84:	48 8b ce             	mov    %rsi,%rcx
   180003d87:	ba b8 2b 05 c9       	mov    $0xc9052bb8,%edx
   180003d8c:	48 89 83 10 01 00 00 	mov    %rax,0x110(%rbx)
   180003d93:	e8 98 03 00 00       	callq  0x180004130
   180003d98:	ba 5c 86 f3 ea       	mov    $0xeaf3865c,%edx
   180003d9d:	48 8b ce             	mov    %rsi,%rcx
   180003da0:	48 89 43 68          	mov    %rax,0x68(%rbx)
   180003da4:	e8 87 03 00 00       	callq  0x180004130
   180003da9:	48 89 43 70          	mov    %rax,0x70(%rbx)
   180003dad:	48 85 c0             	test   %rax,%rax
   180003db0:	0f 84 67 03 00 00    	je     0x18000411d
   180003db6:	ba 74 fb 32 af       	mov    $0xaf32fb74,%edx
   180003dbb:	48 8b ce             	mov    %rsi,%rcx
   180003dbe:	e8 6d 03 00 00       	callq  0x180004130
   180003dc3:	ba 94 1c ee c9       	mov    $0xc9ee1c94,%edx
   180003dc8:	48 8b ce             	mov    %rsi,%rcx
   180003dcb:	48 89 83 b0 00 00 00 	mov    %rax,0xb0(%rbx)
   180003dd2:	e8 59 03 00 00       	callq  0x180004130
   180003dd7:	ba 27 60 f0 46       	mov    $0x46f06027,%edx
   180003ddc:	48 8b ce             	mov    %rsi,%rcx
   180003ddf:	48 89 43 78          	mov    %rax,0x78(%rbx)
   180003de3:	e8 48 03 00 00       	callq  0x180004130
   180003de8:	48 89 83 80 00 00 00 	mov    %rax,0x80(%rbx)
   180003def:	48 85 c0             	test   %rax,%rax
   180003df2:	0f 84 25 03 00 00    	je     0x18000411d
   180003df8:	ba cf 0d 74 4c       	mov    $0x4c740dcf,%edx
   180003dfd:	48 8b ce             	mov    %rsi,%rcx
   180003e00:	e8 2b 03 00 00       	callq  0x180004130
   180003e05:	48 89 43 20          	mov    %rax,0x20(%rbx)
   180003e09:	48 85 c0             	test   %rax,%rax
   180003e0c:	0f 84 0b 03 00 00    	je     0x18000411d
   180003e12:	ba 10 ee 27 d3       	mov    $0xd327ee10,%edx
   180003e17:	48 8b ce             	mov    %rsi,%rcx
   180003e1a:	e8 11 03 00 00       	callq  0x180004130
   180003e1f:	48 89 43 48          	mov    %rax,0x48(%rbx)
   180003e23:	48 85 c0             	test   %rax,%rax
   180003e26:	0f 84 f1 02 00 00    	je     0x18000411d
   180003e2c:	ba f7 1a d5 00       	mov    $0xd51af7,%edx
   180003e31:	48 8b ce             	mov    %rsi,%rcx
   180003e34:	e8 f7 02 00 00       	callq  0x180004130
   180003e39:	48 8d 3d 50 24 00 00 	lea    0x2450(%rip),%rdi        # 0x180006290
   180003e40:	ba 0d ed 35 15       	mov    $0x1535ed0d,%edx
   180003e45:	48 8b cf             	mov    %rdi,%rcx
   180003e48:	48 89 83 a0 00 00 00 	mov    %rax,0xa0(%rbx)
   180003e4f:	e8 dc 02 00 00       	callq  0x180004130
   180003e54:	ba 0b 7b b6 ba       	mov    $0xbab67b0b,%edx
   180003e59:	48 8b cf             	mov    %rdi,%rcx
   180003e5c:	48 89 43 08          	mov    %rax,0x8(%rbx)
   180003e60:	e8 cb 02 00 00       	callq  0x180004130
   180003e65:	48 89 43 10          	mov    %rax,0x10(%rbx)
   180003e69:	48 85 c0             	test   %rax,%rax
   180003e6c:	0f 84 ab 02 00 00    	je     0x18000411d
   180003e72:	ba 86 0a bf ae       	mov    $0xaebf0a86,%edx
   180003e77:	48 8b cf             	mov    %rdi,%rcx
   180003e7a:	e8 b1 02 00 00       	callq  0x180004130
   180003e7f:	ba 66 15 ed 66       	mov    $0x66ed1566,%edx
   180003e84:	48 8b cf             	mov    %rdi,%rcx
   180003e87:	48 89 43 30          	mov    %rax,0x30(%rbx)
   180003e8b:	e8 a0 02 00 00       	callq  0x180004130
   180003e90:	ba 19 72 9c 9f       	mov    $0x9f9c7219,%edx
   180003e95:	48 8b cf             	mov    %rdi,%rcx
   180003e98:	48 89 43 38          	mov    %rax,0x38(%rbx)
   180003e9c:	e8 8f 02 00 00       	callq  0x180004130
   180003ea1:	ba 4c 12 41 f2       	mov    $0xf241124c,%edx
   180003ea6:	48 8b cf             	mov    %rdi,%rcx
   180003ea9:	48 89 43 60          	mov    %rax,0x60(%rbx)
   180003ead:	e8 7e 02 00 00       	callq  0x180004130
   180003eb2:	48 89 43 40          	mov    %rax,0x40(%rbx)
   180003eb6:	48 85 c0             	test   %rax,%rax
   180003eb9:	0f 84 5e 02 00 00    	je     0x18000411d
   180003ebf:	ba ec 8c e1 54       	mov    $0x54e18cec,%edx
   180003ec4:	48 8b cf             	mov    %rdi,%rcx
   180003ec7:	e8 64 02 00 00       	callq  0x180004130
   180003ecc:	ba 8e ac ac 75       	mov    $0x75acac8e,%edx
   180003ed1:	48 8b cf             	mov    %rdi,%rcx
   180003ed4:	48 89 43 50          	mov    %rax,0x50(%rbx)
   180003ed8:	e8 53 02 00 00       	callq  0x180004130
   180003edd:	ba 12 25 33 9c       	mov    $0x9c332512,%edx
   180003ee2:	48 8b cf             	mov    %rdi,%rcx
   180003ee5:	48 89 43 58          	mov    %rax,0x58(%rbx)
   180003ee9:	e8 42 02 00 00       	callq  0x180004130
   180003eee:	48 89 83 d8 00 00 00 	mov    %rax,0xd8(%rbx)
   180003ef5:	48 85 c0             	test   %rax,%rax
   180003ef8:	0f 84 1f 02 00 00    	je     0x18000411d
   180003efe:	ba 6e 3d c9 22       	mov    $0x22c93d6e,%edx
   180003f03:	48 8b cf             	mov    %rdi,%rcx
   180003f06:	e8 25 02 00 00       	callq  0x180004130
   180003f0b:	48 89 83 08 01 00 00 	mov    %rax,0x108(%rbx)
   180003f12:	48 85 c0             	test   %rax,%rax
   180003f15:	0f 84 02 02 00 00    	je     0x18000411d
   180003f1b:	ba 03 41 0d 2c       	mov    $0x2c0d4103,%edx
   180003f20:	48 8b cf             	mov    %rdi,%rcx
   180003f23:	e8 08 02 00 00       	callq  0x180004130
   180003f28:	ba 4f a0 60 28       	mov    $0x2860a04f,%edx
   180003f2d:	48 8b cf             	mov    %rdi,%rcx
   180003f30:	48 89 83 e0 00 00 00 	mov    %rax,0xe0(%rbx)
   180003f37:	e8 f4 01 00 00       	callq  0x180004130
   180003f3c:	ba 10 8e da b3       	mov    $0xb3da8e10,%edx
   180003f41:	48 8b cf             	mov    %rdi,%rcx
   180003f44:	48 89 83 88 00 00 00 	mov    %rax,0x88(%rbx)
   180003f4b:	e8 e0 01 00 00       	callq  0x180004130
   180003f50:	ba fa 67 93 7e       	mov    $0x7e9367fa,%edx
   180003f55:	48 8b ce             	mov    %rsi,%rcx
   180003f58:	48 89 83 90 00 00 00 	mov    %rax,0x90(%rbx)
   180003f5f:	e8 cc 01 00 00       	callq  0x180004130
   180003f64:	ba b5 d8 4a 64       	mov    $0x644ad8b5,%edx
   180003f69:	48 8b cf             	mov    %rdi,%rcx
   180003f6c:	48 89 83 c0 00 00 00 	mov    %rax,0xc0(%rbx)
   180003f73:	e8 b8 01 00 00       	callq  0x180004130
   180003f78:	ba cd c1 85 ad       	mov    $0xad85c1cd,%edx
   180003f7d:	48 8b cf             	mov    %rdi,%rcx
   180003f80:	48 89 83 98 00 00 00 	mov    %rax,0x98(%rbx)
   180003f87:	e8 a4 01 00 00       	callq  0x180004130
   180003f8c:	48 89 83 b8 00 00 00 	mov    %rax,0xb8(%rbx)
   180003f93:	48 85 c0             	test   %rax,%rax
   180003f96:	0f 84 81 01 00 00    	je     0x18000411d
   180003f9c:	ba 3d 18 50 1d       	mov    $0x1d50183d,%edx
   180003fa1:	48 8b cf             	mov    %rdi,%rcx
   180003fa4:	e8 87 01 00 00       	callq  0x180004130
   180003fa9:	48 89 83 a8 00 00 00 	mov    %rax,0xa8(%rbx)
   180003fb0:	48 85 c0             	test   %rax,%rax
   180003fb3:	0f 84 64 01 00 00    	je     0x18000411d
   180003fb9:	ba 6b 87 b4 1c       	mov    $0x1cb4876b,%edx
   180003fbe:	48 8b cf             	mov    %rdi,%rcx
   180003fc1:	e8 6a 01 00 00       	callq  0x180004130
   180003fc6:	ba db 8b 08 4a       	mov    $0x4a088bdb,%edx
   180003fcb:	48 8b cf             	mov    %rdi,%rcx
   180003fce:	48 89 83 c8 00 00 00 	mov    %rax,0xc8(%rbx)
   180003fd5:	e8 56 01 00 00       	callq  0x180004130
   180003fda:	ba 7c 78 b8 b1       	mov    $0xb1b8787c,%edx
   180003fdf:	48 8b cf             	mov    %rdi,%rcx
   180003fe2:	48 89 83 d0 00 00 00 	mov    %rax,0xd0(%rbx)
   180003fe9:	e8 42 01 00 00       	callq  0x180004130
   180003fee:	ba 56 f0 66 5d       	mov    $0x5d66f056,%edx
   180003ff3:	48 8b cf             	mov    %rdi,%rcx
   180003ff6:	48 89 83 e8 00 00 00 	mov    %rax,0xe8(%rbx)
   180003ffd:	e8 2e 01 00 00       	callq  0x180004130
   180004002:	ba 24 41 35 d1       	mov    $0xd1354124,%edx
   180004007:	48 8b cf             	mov    %rdi,%rcx
   18000400a:	48 89 83 00 01 00 00 	mov    %rax,0x100(%rbx)
   180004011:	e8 1a 01 00 00       	callq  0x180004130
   180004016:	48 89 83 f0 00 00 00 	mov    %rax,0xf0(%rbx)
   18000401d:	48 85 c0             	test   %rax,%rax
   180004020:	0f 84 f7 00 00 00    	je     0x18000411d
   180004026:	ba 73 80 73 49       	mov    $0x49738073,%edx
   18000402b:	48 8b cf             	mov    %rdi,%rcx
   18000402e:	e8 fd 00 00 00       	callq  0x180004130
   180004033:	48 89 83 f8 00 00 00 	mov    %rax,0xf8(%rbx)
   18000403a:	48 85 c0             	test   %rax,%rax
   18000403d:	0f 84 da 00 00 00    	je     0x18000411d
   180004043:	ba cf 3f cf 8d       	mov    $0x8dcf3fcf,%edx
   180004048:	48 8b ce             	mov    %rsi,%rcx
   18000404b:	e8 e0 00 00 00       	callq  0x180004130
   180004050:	ba 68 63 ff 1e       	mov    $0x1eff6368,%edx
   180004055:	48 8b ce             	mov    %rsi,%rcx
   180004058:	48 89 83 20 01 00 00 	mov    %rax,0x120(%rbx)
   18000405f:	e8 cc 00 00 00       	callq  0x180004130
   180004064:	ba 36 44 2d ba       	mov    $0xba2d4436,%edx
   180004069:	48 8b cf             	mov    %rdi,%rcx
   18000406c:	48 89 83 18 01 00 00 	mov    %rax,0x118(%rbx)
   180004073:	e8 b8 00 00 00       	callq  0x180004130
   180004078:	ba 09 bf ee e9       	mov    $0xe9eebf09,%edx
   18000407d:	48 8b cf             	mov    %rdi,%rcx
   180004080:	48 89 43 18          	mov    %rax,0x18(%rbx)
   180004084:	e8 a7 00 00 00       	callq  0x180004130
   180004089:	ba ea a2 b8 ee       	mov    $0xeeb8a2ea,%edx
   18000408e:	48 8b cf             	mov    %rdi,%rcx
   180004091:	48 89 83 48 01 00 00 	mov    %rax,0x148(%rbx)
   180004098:	e8 93 00 00 00       	callq  0x180004130
   18000409d:	48 8d 0d 9c 21 00 00 	lea    0x219c(%rip),%rcx        # 0x180006240
   1800040a4:	ba c0 ed 4c 61       	mov    $0x614cedc0,%edx
   1800040a9:	48 89 83 28 01 00 00 	mov    %rax,0x128(%rbx)
   1800040b0:	e8 7b 00 00 00       	callq  0x180004130
   1800040b5:	48 8d 0d 84 21 00 00 	lea    0x2184(%rip),%rcx        # 0x180006240
   1800040bc:	ba fe f5 47 ab       	mov    $0xab47f5fe,%edx
   1800040c1:	48 89 83 30 01 00 00 	mov    %rax,0x130(%rbx)
   1800040c8:	e8 63 00 00 00       	callq  0x180004130
   1800040cd:	ba 78 97 8b 33       	mov    $0x338b9778,%edx
   1800040d2:	48 8b cf             	mov    %rdi,%rcx
   1800040d5:	48 89 83 38 01 00 00 	mov    %rax,0x138(%rbx)
   1800040dc:	e8 4f 00 00 00       	callq  0x180004130
   1800040e1:	ba 58 59 00 4e       	mov    $0x4e005958,%edx
   1800040e6:	48 8b cf             	mov    %rdi,%rcx
   1800040e9:	48 89 83 40 01 00 00 	mov    %rax,0x140(%rbx)
   1800040f0:	e8 3b 00 00 00       	callq  0x180004130
   1800040f5:	ba 00 51 7b a1       	mov    $0xa17b5100,%edx
   1800040fa:	48 8b cf             	mov    %rdi,%rcx
   1800040fd:	48 89 83 50 01 00 00 	mov    %rax,0x150(%rbx)
   180004104:	e8 27 00 00 00       	callq  0x180004130
   180004109:	c7 03 40 b7 5e 07    	movl   $0x75eb740,(%rbx)
   18000410f:	48 89 83 58 01 00 00 	mov    %rax,0x158(%rbx)
   180004116:	b8 01 00 00 00       	mov    $0x1,%eax
   18000411b:	eb 02                	jmp    0x18000411f
   18000411d:	33 c0                	xor    %eax,%eax
   18000411f:	48 8b 5c 24 30       	mov    0x30(%rsp),%rbx
   180004124:	48 8b 74 24 38       	mov    0x38(%rsp),%rsi
   180004129:	48 83 c4 20          	add    $0x20,%rsp
   18000412d:	5f                   	pop    %rdi
   18000412e:	c3                   	retq   
   18000412f:	cc                   	int3   
   180004130:	40 53                	rex push %rbx
   180004132:	48 81 ec 30 02 00 00 	sub    $0x230,%rsp
   180004139:	45 33 c9             	xor    %r9d,%r9d
   18000413c:	8b da                	mov    %edx,%ebx
   18000413e:	4c 8d 44 24 20       	lea    0x20(%rsp),%r8
   180004143:	48 85 c9             	test   %rcx,%rcx
   180004146:	75 08                	jne    0x180004150
   180004148:	66 44 89 4c 24 20    	mov    %r9w,0x20(%rsp)
   18000414e:	eb 43                	jmp    0x180004193
   180004150:	8b 01                	mov    (%rcx),%eax
   180004152:	41 ba f1 86 f1 86    	mov    $0x86f186f1,%r10d
   180004158:	41 33 c2             	xor    %r10d,%eax
   18000415b:	89 44 24 20          	mov    %eax,0x20(%rsp)
   18000415f:	66 41 3b c1          	cmp    %r9w,%ax
   180004163:	74 2e                	je     0x180004193
   180004165:	48 8d 54 24 22       	lea    0x22(%rsp),%rdx
   18000416a:	48 8d 44 24 20       	lea    0x20(%rsp),%rax
   18000416f:	48 2b d1             	sub    %rcx,%rdx
   180004172:	48 2b c8             	sub    %rax,%rcx
   180004175:	48 8d 04 0a          	lea    (%rdx,%rcx,1),%rax
   180004179:	66 46 39 0c 00       	cmp    %r9w,(%rax,%r8,1)
   18000417e:	74 13                	je     0x180004193
   180004180:	49 83 c0 04          	add    $0x4,%r8
   180004184:	42 8b 04 01          	mov    (%rcx,%r8,1),%eax
   180004188:	41 33 c2             	xor    %r10d,%eax
   18000418b:	41 89 00             	mov    %eax,(%r8)
   18000418e:	66 85 c0             	test   %ax,%ax
   180004191:	75 e2                	jne    0x180004175
   180004193:	e8 68 f9 ff ff       	callq  0x180003b00
   180004198:	48 8d 4c 24 20       	lea    0x20(%rsp),%rcx
   18000419d:	ff 90 10 01 00 00    	callq  *0x110(%rax)
   1800041a3:	8b d3                	mov    %ebx,%edx
   1800041a5:	48 8b c8             	mov    %rax,%rcx
   1800041a8:	e8 0b 00 00 00       	callq  0x1800041b8
   1800041ad:	48 81 c4 30 02 00 00 	add    $0x230,%rsp
   1800041b4:	5b                   	pop    %rbx
   1800041b5:	c3                   	retq   
   1800041b6:	cc                   	int3   
   1800041b7:	cc                   	int3   
   1800041b8:	89 54 24 10          	mov    %edx,0x10(%rsp)
   1800041bc:	55                   	push   %rbp
   1800041bd:	53                   	push   %rbx
   1800041be:	56                   	push   %rsi
   1800041bf:	57                   	push   %rdi
   1800041c0:	48 8b ec             	mov    %rsp,%rbp
   1800041c3:	48 83 ec 48          	sub    $0x48,%rsp
   1800041c7:	4c 8b c1             	mov    %rcx,%r8
   1800041ca:	33 c9                	xor    %ecx,%ecx
   1800041cc:	4d 85 c0             	test   %r8,%r8
   1800041cf:	0f 84 db 00 00 00    	je     0x1800042b0
   1800041d5:	41 0f b7 00          	movzwl (%r8),%eax
   1800041d9:	41 ba ab 4f 5e cd    	mov    $0xcd5e4fab,%r10d
   1800041df:	41 33 c2             	xor    %r10d,%eax
   1800041e2:	3d e6 15 5e cd       	cmp    $0xcd5e15e6,%eax
   1800041e7:	0f 85 c3 00 00 00    	jne    0x1800042b0
   1800041ed:	4d 63 48 3c          	movslq 0x3c(%r8),%r9
   1800041f1:	4d 03 c8             	add    %r8,%r9
   1800041f4:	4c 89 4d 40          	mov    %r9,0x40(%rbp)
   1800041f8:	41 8b 01             	mov    (%r9),%eax
   1800041fb:	41 8b 91 88 00 00 00 	mov    0x88(%r9),%edx
   180004202:	41 33 c2             	xor    %r10d,%eax
   180004205:	49 03 d0             	add    %r8,%rdx
   180004208:	3d fb 0a 5e cd       	cmp    $0xcd5e0afb,%eax
   18000420d:	0f 85 9d 00 00 00    	jne    0x1800042b0
   180004213:	49 3b d0             	cmp    %r8,%rdx
   180004216:	0f 84 94 00 00 00    	je     0x1800042b0
   18000421c:	8b 42 1c             	mov    0x1c(%rdx),%eax
   18000421f:	44 8b 52 20          	mov    0x20(%rdx),%r10d
   180004223:	8b 7a 24             	mov    0x24(%rdx),%edi
   180004226:	49 03 c0             	add    %r8,%rax
   180004229:	4d 03 d0             	add    %r8,%r10
   18000422c:	49 03 f8             	add    %r8,%rdi
   18000422f:	48 89 45 d8          	mov    %rax,-0x28(%rbp)
   180004233:	44 8b d9             	mov    %ecx,%r11d
   180004236:	39 4a 18             	cmp    %ecx,0x18(%rdx)
   180004239:	76 75                	jbe    0x1800042b0
   18000423b:	b8 ff ff 3f 00       	mov    $0x3fffff,%eax
   180004240:	be c6 4f f8 67       	mov    $0x67f84fc6,%esi
   180004245:	41 8b 1a             	mov    (%r10),%ebx
   180004248:	4c 8b 4d 40          	mov    0x40(%rbp),%r9
   18000424c:	8b c8                	mov    %eax,%ecx
   18000424e:	49 03 d8             	add    %r8,%rbx
   180004251:	89 45 38             	mov    %eax,0x38(%rbp)
   180004254:	8b c6                	mov    %esi,%eax
   180004256:	80 3b 00             	cmpb   $0x0,(%rbx)
   180004259:	89 45 28             	mov    %eax,0x28(%rbp)
   18000425c:	74 3b                	je     0x180004299
   18000425e:	44 8a 0b             	mov    (%rbx),%r9b
   180004261:	85 c9                	test   %ecx,%ecx
   180004263:	7e 30                	jle    0x180004295
   180004265:	41 0f b6 c1          	movzbl %r9b,%eax
   180004269:	48 ff c3             	inc    %rbx
   18000426c:	44 8a 0b             	mov    (%rbx),%r9b
   18000426f:	8b c8                	mov    %eax,%ecx
   180004271:	83 e0 07             	and    $0x7,%eax
   180004274:	c1 e0 09             	shl    $0x9,%eax
   180004277:	0f af c9             	imul   %ecx,%ecx
   18000427a:	05 27 0c a2 08       	add    $0x8a20c27,%eax
   18000427f:	0f af 45 28          	imul   0x28(%rbp),%eax
   180004283:	33 c1                	xor    %ecx,%eax
   180004285:	8b 4d 38             	mov    0x38(%rbp),%ecx
   180004288:	ff c9                	dec    %ecx
   18000428a:	89 45 28             	mov    %eax,0x28(%rbp)
   18000428d:	89 4d 38             	mov    %ecx,0x38(%rbp)
   180004290:	45 84 c9             	test   %r9b,%r9b
   180004293:	75 cc                	jne    0x180004261
   180004295:	4c 8b 4d 40          	mov    0x40(%rbp),%r9
   180004299:	39 45 30             	cmp    %eax,0x30(%rbp)
   18000429c:	74 1d                	je     0x1800042bb
   18000429e:	41 ff c3             	inc    %r11d
   1800042a1:	49 83 c2 04          	add    $0x4,%r10
   1800042a5:	b8 ff ff 3f 00       	mov    $0x3fffff,%eax
   1800042aa:	44 3b 5a 18          	cmp    0x18(%rdx),%r11d
   1800042ae:	72 95                	jb     0x180004245
   1800042b0:	33 c0                	xor    %eax,%eax
   1800042b2:	48 83 c4 48          	add    $0x48,%rsp
   1800042b6:	5f                   	pop    %rdi
   1800042b7:	5e                   	pop    %rsi
   1800042b8:	5b                   	pop    %rbx
   1800042b9:	5d                   	pop    %rbp
   1800042ba:	c3                   	retq   
   1800042bb:	41 8b c3             	mov    %r11d,%eax
   1800042be:	0f b7 0c 47          	movzwl (%rdi,%rax,2),%ecx
   1800042c2:	48 8b 45 d8          	mov    -0x28(%rbp),%rax
   1800042c6:	8b 1c 88             	mov    (%rax,%rcx,4),%ebx
   1800042c9:	49 03 d8             	add    %r8,%rbx
   1800042cc:	48 3b da             	cmp    %rdx,%rbx
   1800042cf:	0f 82 45 01 00 00    	jb     0x18000441a
   1800042d5:	41 8b 81 8c 00 00 00 	mov    0x8c(%r9),%eax
   1800042dc:	48 03 c2             	add    %rdx,%rax
   1800042df:	48 3b d8             	cmp    %rax,%rbx
   1800042e2:	0f 83 32 01 00 00    	jae    0x18000441a
   1800042e8:	8a 03                	mov    (%rbx),%al
   1800042ea:	45 33 db             	xor    %r11d,%r11d
   1800042ed:	48 8b cb             	mov    %rbx,%rcx
   1800042f0:	41 8b fb             	mov    %r11d,%edi
   1800042f3:	84 c0                	test   %al,%al
   1800042f5:	74 b9                	je     0x1800042b0
   1800042f7:	3c 2e                	cmp    $0x2e,%al
   1800042f9:	75 04                	jne    0x1800042ff
   1800042fb:	8b f9                	mov    %ecx,%edi
   1800042fd:	2b fb                	sub    %ebx,%edi
   1800042ff:	48 ff c1             	inc    %rcx
   180004302:	8a 01                	mov    (%rcx),%al
   180004304:	84 c0                	test   %al,%al
   180004306:	75 ef                	jne    0x1800042f7
   180004308:	85 ff                	test   %edi,%edi
   18000430a:	7e a4                	jle    0x1800042b0
   18000430c:	44 8b d7             	mov    %edi,%r10d
   18000430f:	4c 8b cb             	mov    %rbx,%r9
   180004312:	44 8b c6             	mov    %esi,%r8d
   180004315:	45 85 d2             	test   %r10d,%r10d
   180004318:	7e 36                	jle    0x180004350
   18000431a:	41 0f b6 09          	movzbl (%r9),%ecx
   18000431e:	8d 41 bf             	lea    -0x41(%rcx),%eax
   180004321:	66 83 f8 19          	cmp    $0x19,%ax
   180004325:	77 04                	ja     0x18000432b
   180004327:	66 83 c1 20          	add    $0x20,%cx
   18000432b:	0f b7 d1             	movzwl %cx,%edx
   18000432e:	49 ff c1             	inc    %r9
   180004331:	41 ff ca             	dec    %r10d
   180004334:	8b c2                	mov    %edx,%eax
   180004336:	83 e0 07             	and    $0x7,%eax
   180004339:	c1 e0 09             	shl    $0x9,%eax
   18000433c:	05 27 0c a2 08       	add    $0x8a20c27,%eax
   180004341:	0f af d2             	imul   %edx,%edx
   180004344:	44 0f af c0          	imul   %eax,%r8d
   180004348:	44 33 c2             	xor    %edx,%r8d
   18000434b:	45 38 19             	cmp    %r11b,(%r9)
   18000434e:	75 c5                	jne    0x180004315
   180004350:	41 8b c8             	mov    %r8d,%ecx
   180004353:	e8 b0 f7 ff ff       	callq  0x180003b08
   180004358:	4c 8b c0             	mov    %rax,%r8
   18000435b:	48 89 45 28          	mov    %rax,0x28(%rbp)
   18000435f:	48 85 c0             	test   %rax,%rax
   180004362:	75 66                	jne    0x1800043ca
   180004364:	48 89 5d e0          	mov    %rbx,-0x20(%rbp)
   180004368:	66 89 7d d8          	mov    %di,-0x28(%rbp)
   18000436c:	66 89 7d da          	mov    %di,-0x26(%rbp)
   180004370:	e8 8b f7 ff ff       	callq  0x180003b00
   180004375:	48 8d 55 d8          	lea    -0x28(%rbp),%rdx
   180004379:	48 8d 4d e8          	lea    -0x18(%rbp),%rcx
   18000437d:	41 b0 01             	mov    $0x1,%r8b
   180004380:	48 89 45 38          	mov    %rax,0x38(%rbp)
   180004384:	ff 50 20             	callq  *0x20(%rax)
   180004387:	85 c0                	test   %eax,%eax
   180004389:	0f 85 21 ff ff ff    	jne    0x1800042b0
   18000438f:	48 8b 45 38          	mov    0x38(%rbp),%rax
   180004393:	4c 8d 4d 28          	lea    0x28(%rbp),%r9
   180004397:	4c 8d 45 e8          	lea    -0x18(%rbp),%r8
   18000439b:	33 d2                	xor    %edx,%edx
   18000439d:	33 c9                	xor    %ecx,%ecx
   18000439f:	ff 50 68             	callq  *0x68(%rax)
   1800043a2:	48 8b 4d 28          	mov    0x28(%rbp),%rcx
   1800043a6:	33 d2                	xor    %edx,%edx
   1800043a8:	85 c0                	test   %eax,%eax
   1800043aa:	48 8b 45 38          	mov    0x38(%rbp),%rax
   1800043ae:	48 0f 45 ca          	cmovne %rdx,%rcx
   1800043b2:	48 89 4d 28          	mov    %rcx,0x28(%rbp)
   1800043b6:	48 8d 4d e8          	lea    -0x18(%rbp),%rcx
   1800043ba:	ff 50 48             	callq  *0x48(%rax)
   1800043bd:	4c 8b 45 28          	mov    0x28(%rbp),%r8
   1800043c1:	4d 85 c0             	test   %r8,%r8
   1800043c4:	0f 84 e6 fe ff ff    	je     0x1800042b0
   1800043ca:	48 63 c7             	movslq %edi,%rax
   1800043cd:	48 8d 53 01          	lea    0x1(%rbx),%rdx
   1800043d1:	48 03 d0             	add    %rax,%rdx
   1800043d4:	8a 02                	mov    (%rdx),%al
   1800043d6:	84 c0                	test   %al,%al
   1800043d8:	74 31                	je     0x18000440b
   1800043da:	41 b9 ff ff 3f 00    	mov    $0x3fffff,%r9d
   1800043e0:	45 85 c9             	test   %r9d,%r9d
   1800043e3:	7e 26                	jle    0x18000440b
   1800043e5:	0f b6 c0             	movzbl %al,%eax
   1800043e8:	48 ff c2             	inc    %rdx
   1800043eb:	41 ff c9             	dec    %r9d
   1800043ee:	8b c8                	mov    %eax,%ecx
   1800043f0:	83 e0 07             	and    $0x7,%eax
   1800043f3:	c1 e0 09             	shl    $0x9,%eax
   1800043f6:	05 27 0c a2 08       	add    $0x8a20c27,%eax
   1800043fb:	0f af c9             	imul   %ecx,%ecx
   1800043fe:	0f af c6             	imul   %esi,%eax
   180004401:	8b f0                	mov    %eax,%esi
   180004403:	8a 02                	mov    (%rdx),%al
   180004405:	33 f1                	xor    %ecx,%esi
   180004407:	84 c0                	test   %al,%al
   180004409:	75 d5                	jne    0x1800043e0
   18000440b:	8b d6                	mov    %esi,%edx
   18000440d:	49 8b c8             	mov    %r8,%rcx
   180004410:	e8 a3 fd ff ff       	callq  0x1800041b8
   180004415:	e9 98 fe ff ff       	jmpq   0x1800042b2
   18000441a:	48 8b c3             	mov    %rbx,%rax
   18000441d:	e9 90 fe ff ff       	jmpq   0x1800042b2
   180004422:	cc                   	int3   
   180004423:	cc                   	int3   
   180004424:	48 83 ec 38          	sub    $0x38,%rsp
   180004428:	83 fa 01             	cmp    $0x1,%edx
   18000442b:	75 25                	jne    0x180004452
   18000442d:	ff 15 f1 2f 00 00    	callq  *0x2ff1(%rip)        # 0x180007424
   180004433:	ba f2 c9 dd 2d       	mov    $0x2dddc9f2,%edx
   180004438:	41 b9 c9 86 63 ae    	mov    $0xae6386c9,%r9d
   18000443e:	41 b8 43 51 a9 12    	mov    $0x12a95143,%r8d
   180004444:	b9 02 00 00 00       	mov    $0x2,%ecx
   180004449:	89 44 24 20          	mov    %eax,0x20(%rsp)
   18000444d:	e8 32 08 00 00       	callq  0x180004c84
   180004452:	b8 01 00 00 00       	mov    $0x1,%eax
   180004457:	48 83 c4 38          	add    $0x38,%rsp
   18000445b:	c3                   	retq   
   18000445c:	48 83 ec 38          	sub    $0x38,%rsp
   180004460:	ff c9                	dec    %ecx
   180004462:	75 5a                	jne    0x1800044be
   180004464:	21 0d f6 3a 00 00    	and    %ecx,0x3af6(%rip)        # 0x180007f60
   18000446a:	c7 05 e8 3a 00 00 20 	movl   $0x20,0x3ae8(%rip)        # 0x180007f5c
   180004471:	00 00 00 
   180004474:	21 0d ea 3a 00 00    	and    %ecx,0x3aea(%rip)        # 0x180007f64
   18000447a:	c7 05 e8 3a 00 00 04 	movl   $0x4,0x3ae8(%rip)        # 0x180007f6c
   180004481:	00 00 00 
   180004484:	48 8d 15 cd 3a 00 00 	lea    0x3acd(%rip),%rdx        # 0x180007f58
   18000448b:	48 8b 0d be 3a 00 00 	mov    0x3abe(%rip),%rcx        # 0x180007f50
   180004492:	ff 15 78 1b 00 00    	callq  *0x1b78(%rip)        # 0x180006010
   180004498:	85 c0                	test   %eax,%eax
   18000449a:	75 22                	jne    0x1800044be
   18000449c:	ff 15 1b 2f 00 00    	callq  *0x2f1b(%rip)        # 0x1800073bd
   1800044a2:	89 44 24 20          	mov    %eax,0x20(%rsp)
   1800044a6:	ba f2 cf 51 93       	mov    $0x9351cff2,%edx
   1800044ab:	33 c9                	xor    %ecx,%ecx
   1800044ad:	41 b9 c9 86 63 ae    	mov    $0xae6386c9,%r9d
   1800044b3:	41 b8 43 51 a9 12    	mov    $0x12a95143,%r8d
   1800044b9:	e8 c6 07 00 00       	callq  0x180004c84
   1800044be:	eb 19                	jmp    0x1800044d9
   1800044c0:	ba 73 e2 0d e4       	mov    $0xe40de273,%edx
   1800044c5:	33 c9                	xor    %ecx,%ecx
   1800044c7:	41 b9 c9 86 63 ae    	mov    $0xae6386c9,%r9d
   1800044cd:	41 b8 41 51 a9 12    	mov    $0x12a95141,%r8d
   1800044d3:	e8 ac 07 00 00       	callq  0x180004c84
   1800044d8:	90                   	nop
   1800044d9:	48 83 c4 38          	add    $0x38,%rsp
   1800044dd:	c3                   	retq   
   1800044de:	cc                   	int3   
   1800044df:	cc                   	int3   
   1800044e0:	48 89 5c 24 08       	mov    %rbx,0x8(%rsp)
   1800044e5:	56                   	push   %rsi
   1800044e6:	48 83 ec 40          	sub    $0x40,%rsp
   1800044ea:	33 db                	xor    %ebx,%ebx
   1800044ec:	c7 05 6a 3a 00 00 01 	movl   $0x1,0x3a6a(%rip)        # 0x180007f60
   1800044f3:	00 00 00 
   1800044f6:	c7 05 5c 3a 00 00 04 	movl   $0x4,0x3a5c(%rip)        # 0x180007f5c
   1800044fd:	00 00 00 
   180004500:	21 1d 5e 3a 00 00    	and    %ebx,0x3a5e(%rip)        # 0x180007f64
   180004506:	21 1d 60 3a 00 00    	and    %ebx,0x3a60(%rip)        # 0x180007f6c
   18000450c:	be c9 86 63 ae       	mov    $0xae6386c9,%esi
   180004511:	44 8b ce             	mov    %esi,%r9d
   180004514:	ba 5d af 14 a9       	mov    $0xa914af5d,%edx
   180004519:	8d 4b 02             	lea    0x2(%rbx),%ecx
   18000451c:	41 b8 41 51 a9 12    	mov    $0x12a95141,%r8d
   180004522:	e8 5d 07 00 00       	callq  0x180004c84
   180004527:	48 8d 15 2e ff ff ff 	lea    -0xd2(%rip),%rdx        # 0x18000445c
   18000452e:	48 8d 0d 5b 1c 00 00 	lea    0x1c5b(%rip),%rcx        # 0x180006190
   180004535:	ff 15 cd 1a 00 00    	callq  *0x1acd(%rip)        # 0x180006008
   18000453b:	48 89 05 0e 3a 00 00 	mov    %rax,0x3a0e(%rip)        # 0x180007f50
   180004542:	48 85 c0             	test   %rax,%rax
   180004545:	75 24                	jne    0x18000456b
   180004547:	ff 15 70 2e 00 00    	callq  *0x2e70(%rip)        # 0x1800073bd
   18000454d:	ba 07 10 ac 12       	mov    $0x12ac1007,%edx
   180004552:	44 8b ce             	mov    %esi,%r9d
   180004555:	89 44 24 20          	mov    %eax,0x20(%rsp)
   180004559:	33 c9                	xor    %ecx,%ecx
   18000455b:	41 b8 43 51 a9 12    	mov    $0x12a95143,%r8d
   180004561:	e8 1e 07 00 00       	callq  0x180004c84
   180004566:	e9 eb 00 00 00       	jmpq   0x180004656
   18000456b:	48 8d 15 e6 39 00 00 	lea    0x39e6(%rip),%rdx        # 0x180007f58
   180004572:	48 8b c8             	mov    %rax,%rcx
   180004575:	ff 15 95 1a 00 00    	callq  *0x1a95(%rip)        # 0x180006010
   18000457b:	85 c0                	test   %eax,%eax
   18000457d:	75 0d                	jne    0x18000458c
   18000457f:	ff 15 38 2e 00 00    	callq  *0x2e38(%rip)        # 0x1800073bd
   180004585:	ba 67 14 f0 90       	mov    $0x90f01467,%edx
   18000458a:	eb c6                	jmp    0x180004552
   18000458c:	83 25 cd 39 00 00 00 	andl   $0x0,0x39cd(%rip)        # 0x180007f60
   180004593:	c7 05 bf 39 00 00 01 	movl   $0x1,0x39bf(%rip)        # 0x180007f5c
   18000459a:	00 00 00 
   18000459d:	83 25 c0 39 00 00 00 	andl   $0x0,0x39c0(%rip)        # 0x180007f64
   1800045a4:	c7 05 be 39 00 00 03 	movl   $0x3,0x39be(%rip)        # 0x180007f6c
   1800045ab:	00 00 00 
   1800045ae:	b9 10 27 00 00       	mov    $0x2710,%ecx
   1800045b3:	ff 15 8d 2d 00 00    	callq  *0x2d8d(%rip)        # 0x180007346
   1800045b9:	48 8d 15 98 39 00 00 	lea    0x3998(%rip),%rdx        # 0x180007f58
   1800045c0:	48 8b 0d 89 39 00 00 	mov    0x3989(%rip),%rcx        # 0x180007f50
   1800045c7:	ff 15 43 1a 00 00    	callq  *0x1a43(%rip)        # 0x180006010
   1800045cd:	85 c0                	test   %eax,%eax
   1800045cf:	75 1f                	jne    0x1800045f0
   1800045d1:	ff 15 e6 2d 00 00    	callq  *0x2de6(%rip)        # 0x1800073bd
   1800045d7:	89 44 24 20          	mov    %eax,0x20(%rsp)
   1800045db:	44 8b ce             	mov    %esi,%r9d
   1800045de:	ba 11 d1 ce a7       	mov    $0xa7ced111,%edx
   1800045e3:	33 c9                	xor    %ecx,%ecx
   1800045e5:	41 b8 43 51 a9 12    	mov    $0x12a95143,%r8d
   1800045eb:	e8 94 06 00 00       	callq  0x180004c84
   1800045f0:	83 3d c9 33 00 00 00 	cmpl   $0x0,0x33c9(%rip)        # 0x1800079c0
   1800045f7:	74 14                	je     0x18000460d
   1800045f9:	e8 06 0a 00 00       	callq  0x180005004
   1800045fe:	85 c0                	test   %eax,%eax
   180004600:	75 04                	jne    0x180004606
   180004602:	33 c9                	xor    %ecx,%ecx
   180004604:	eb 0e                	jmp    0x180004614
   180004606:	83 25 b3 33 00 00 00 	andl   $0x0,0x33b3(%rip)        # 0x1800079c0
   18000460d:	48 8d 0d 94 39 00 00 	lea    0x3994(%rip),%rcx        # 0x180007fa8
   180004614:	4c 8d 0d 95 1b 00 00 	lea    0x1b95(%rip),%r9        # 0x1800061b0
   18000461b:	45 33 c0             	xor    %r8d,%r8d
   18000461e:	41 8d 50 01          	lea    0x1(%r8),%edx
   180004622:	ff 15 b5 2d 00 00    	callq  *0x2db5(%rip)        # 0x1800073dd
   180004628:	48 8b d8             	mov    %rax,%rbx
   18000462b:	48 89 44 24 30       	mov    %rax,0x30(%rsp)
   180004630:	48 85 c0             	test   %rax,%rax
   180004633:	74 21                	je     0x180004656
   180004635:	44 8b ce             	mov    %esi,%r9d
   180004638:	ba 48 78 cf 29       	mov    $0x29cf7848,%edx
   18000463d:	b9 02 00 00 00       	mov    $0x2,%ecx
   180004642:	41 b8 41 51 a9 12    	mov    $0x12a95141,%r8d
   180004648:	e8 37 06 00 00       	callq  0x180004c84
   18000464d:	48 8b cb             	mov    %rbx,%rcx
   180004650:	ff 15 43 2d 00 00    	callq  *0x2d43(%rip)        # 0x180007399
   180004656:	48 85 db             	test   %rbx,%rbx
   180004659:	74 09                	je     0x180004664
   18000465b:	48 8b cb             	mov    %rbx,%rcx
   18000465e:	ff 15 98 2d 00 00    	callq  *0x2d98(%rip)        # 0x1800073fc
   180004664:	eb 19                	jmp    0x18000467f
   180004666:	ba 73 e2 0d e4       	mov    $0xe40de273,%edx
   18000466b:	33 c9                	xor    %ecx,%ecx
   18000466d:	41 b9 c9 86 63 ae    	mov    $0xae6386c9,%r9d
   180004673:	41 b8 41 51 a9 12    	mov    $0x12a95141,%r8d
   180004679:	e8 06 06 00 00       	callq  0x180004c84
   18000467e:	90                   	nop
   18000467f:	48 8b 5c 24 50       	mov    0x50(%rsp),%rbx
   180004684:	48 83 c4 40          	add    $0x40,%rsp
   180004688:	5e                   	pop    %rsi
   180004689:	c3                   	retq   
   18000468a:	cc                   	int3   
   18000468b:	cc                   	int3   
   18000468c:	4c 8b dc             	mov    %rsp,%r11
   18000468f:	49 89 73 08          	mov    %rsi,0x8(%r11)
   180004693:	49 89 7b 10          	mov    %rdi,0x10(%r11)
   180004697:	41 57                	push   %r15
   180004699:	48 83 ec 40          	sub    $0x40,%rsp
   18000469d:	49 83 63 d8 00       	andq   $0x0,-0x28(%r11)
   1800046a2:	48 8d 05 37 fe ff ff 	lea    -0x1c9(%rip),%rax        # 0x1800044e0
   1800046a9:	49 89 43 e0          	mov    %rax,-0x20(%r11)
   1800046ad:	49 83 63 e8 00       	andq   $0x0,-0x18(%r11)
   1800046b2:	49 83 63 f0 00       	andq   $0x0,-0x10(%r11)
   1800046b7:	33 f6                	xor    %esi,%esi
   1800046b9:	c7 05 95 38 00 00 10 	movl   $0x10,0x3895(%rip)        # 0x180007f58
   1800046c0:	00 00 00 
   1800046c3:	44 8d 7e 02          	lea    0x2(%rsi),%r15d
   1800046c7:	44 89 3d 8e 38 00 00 	mov    %r15d,0x388e(%rip)        # 0x180007f5c
   1800046ce:	48 8d 05 bb 1a 00 00 	lea    0x1abb(%rip),%rax        # 0x180006190
   1800046d5:	49 89 43 d8          	mov    %rax,-0x28(%r11)
   1800046d9:	ff 15 81 2c 00 00    	callq  *0x2c81(%rip)        # 0x180007360
   1800046df:	48 8b c8             	mov    %rax,%rcx
   1800046e2:	48 8d 15 27 1b 00 00 	lea    0x1b27(%rip),%rdx        # 0x180006210
   1800046e9:	e8 92 08 00 00       	callq  0x180004f80
   1800046ee:	48 85 c0             	test   %rax,%rax
   1800046f1:	74 20                	je     0x180004713
   1800046f3:	bf 41 51 a9 12       	mov    $0x12a95141,%edi
   1800046f8:	41 b9 c9 86 63 ae    	mov    $0xae6386c9,%r9d
   1800046fe:	44 8b c7             	mov    %edi,%r8d
   180004701:	ba d0 26 5f 1a       	mov    $0x1a5f26d0,%edx
   180004706:	41 8b cf             	mov    %r15d,%ecx
   180004709:	e8 76 05 00 00       	callq  0x180004c84
   18000470e:	e9 ca 00 00 00       	jmpq   0x1800047dd
   180004713:	ff 15 47 2c 00 00    	callq  *0x2c47(%rip)        # 0x180007360
   180004719:	48 8b c8             	mov    %rax,%rcx
   18000471c:	48 8d 15 fd 1a 00 00 	lea    0x1afd(%rip),%rdx        # 0x180006220
   180004723:	e8 58 08 00 00       	callq  0x180004f80
   180004728:	bf 41 51 a9 12       	mov    $0x12a95141,%edi
   18000472d:	41 b9 c9 86 63 ae    	mov    $0xae6386c9,%r9d
   180004733:	41 8b cf             	mov    %r15d,%ecx
   180004736:	44 8b c7             	mov    %edi,%r8d
   180004739:	48 85 c0             	test   %rax,%rax
   18000473c:	0f 84 a8 00 00 00    	je     0x1800047ea
   180004742:	ba 24 2d 14 be       	mov    $0xbe142d24,%edx
   180004747:	e8 38 05 00 00       	callq  0x180004c84
   18000474c:	83 3d 6d 32 00 00 00 	cmpl   $0x0,0x326d(%rip)        # 0x1800079c0
   180004753:	74 14                	je     0x180004769
   180004755:	e8 aa 08 00 00       	callq  0x180005004
   18000475a:	85 c0                	test   %eax,%eax
   18000475c:	75 04                	jne    0x180004762
   18000475e:	33 c9                	xor    %ecx,%ecx
   180004760:	eb 0e                	jmp    0x180004770
   180004762:	83 25 57 32 00 00 00 	andl   $0x0,0x3257(%rip)        # 0x1800079c0
   180004769:	48 8d 0d 38 38 00 00 	lea    0x3838(%rip),%rcx        # 0x180007fa8
   180004770:	4c 8d 0d 39 1a 00 00 	lea    0x1a39(%rip),%r9        # 0x1800061b0
   180004777:	45 33 c0             	xor    %r8d,%r8d
   18000477a:	41 8d 50 01          	lea    0x1(%r8),%edx
   18000477e:	ff 15 59 2c 00 00    	callq  *0x2c59(%rip)        # 0x1800073dd
   180004784:	48 8b f0             	mov    %rax,%rsi
   180004787:	48 85 c0             	test   %rax,%rax
   18000478a:	75 1c                	jne    0x1800047a8
   18000478c:	41 b9 c9 86 63 ae    	mov    $0xae6386c9,%r9d
   180004792:	4c 8b c7             	mov    %rdi,%r8
   180004795:	ba 60 3c 9a 05       	mov    $0x59a3c60,%edx
   18000479a:	33 c9                	xor    %ecx,%ecx
   18000479c:	e8 e3 04 00 00       	callq  0x180004c84
   1800047a1:	33 c0                	xor    %eax,%eax
   1800047a3:	e9 8e 00 00 00       	jmpq   0x180004836
   1800047a8:	ba 20 4e 00 00       	mov    $0x4e20,%edx
   1800047ad:	48 8b c8             	mov    %rax,%rcx
   1800047b0:	ff 15 ce 2b 00 00    	callq  *0x2bce(%rip)        # 0x180007384
   1800047b6:	3d 02 01 00 00       	cmp    $0x102,%eax
   1800047bb:	75 37                	jne    0x1800047f4
   1800047bd:	41 b9 c9 86 63 ae    	mov    $0xae6386c9,%r9d
   1800047c3:	4c 8b c7             	mov    %rdi,%r8
   1800047c6:	ba 1b c9 a4 d1       	mov    $0xd1a4c91b,%edx
   1800047cb:	33 c9                	xor    %ecx,%ecx
   1800047cd:	e8 b2 04 00 00       	callq  0x180004c84
   1800047d2:	48 8b ce             	mov    %rsi,%rcx
   1800047d5:	ff 15 21 2c 00 00    	callq  *0x2c21(%rip)        # 0x1800073fc
   1800047db:	33 f6                	xor    %esi,%esi
   1800047dd:	48 8d 4c 24 20       	lea    0x20(%rsp),%rcx
   1800047e2:	ff 15 18 18 00 00    	callq  *0x1818(%rip)        # 0x180006000
   1800047e8:	eb 0a                	jmp    0x1800047f4
   1800047ea:	ba db cc a3 dd       	mov    $0xdda3ccdb,%edx
   1800047ef:	e8 90 04 00 00       	callq  0x180004c84
   1800047f4:	41 b9 c9 86 63 ae    	mov    $0xae6386c9,%r9d
   1800047fa:	4c 8b c7             	mov    %rdi,%r8
   1800047fd:	ba db 4b 5b d9       	mov    $0xd95b4bdb,%edx
   180004802:	41 8b cf             	mov    %r15d,%ecx
   180004805:	e8 7a 04 00 00       	callq  0x180004c84
   18000480a:	48 85 f6             	test   %rsi,%rsi
   18000480d:	74 09                	je     0x180004818
   18000480f:	48 8b ce             	mov    %rsi,%rcx
   180004812:	ff 15 e4 2b 00 00    	callq  *0x2be4(%rip)        # 0x1800073fc
   180004818:	33 c0                	xor    %eax,%eax
   18000481a:	eb 1a                	jmp    0x180004836
   18000481c:	ba 10 9d 28 7a       	mov    $0x7a289d10,%edx
   180004821:	33 c9                	xor    %ecx,%ecx
   180004823:	41 b9 c9 86 63 ae    	mov    $0xae6386c9,%r9d
   180004829:	41 b8 41 51 a9 12    	mov    $0x12a95141,%r8d
   18000482f:	e8 50 04 00 00       	callq  0x180004c84
   180004834:	33 c0                	xor    %eax,%eax
   180004836:	48 8b 74 24 50       	mov    0x50(%rsp),%rsi
   18000483b:	48 8b 7c 24 58       	mov    0x58(%rsp),%rdi
   180004840:	48 83 c4 40          	add    $0x40,%rsp
   180004844:	41 5f                	pop    %r15
   180004846:	c3                   	retq   
   180004847:	cc                   	int3   
   180004848:	48 89 5c 24 10       	mov    %rbx,0x10(%rsp)
   18000484d:	48 89 74 24 18       	mov    %rsi,0x18(%rsp)
   180004852:	33 f6                	xor    %esi,%esi
   180004854:	48 89 4c 24 08       	mov    %rcx,0x8(%rsp)
   180004859:	48 8b da             	mov    %rdx,%rbx
   18000485c:	44 8b d6             	mov    %esi,%r10d
   18000485f:	44 8b ce             	mov    %esi,%r9d
   180004862:	44 8b de             	mov    %esi,%r11d
   180004865:	45 85 db             	test   %r11d,%r11d
   180004868:	74 36                	je     0x1800048a0
   18000486a:	41 83 fb 10          	cmp    $0x10,%r11d
   18000486e:	74 1e                	je     0x18000488e
   180004870:	41 83 fb 20          	cmp    $0x20,%r11d
   180004874:	75 3a                	jne    0x1800048b0
   180004876:	44 69 4c 24 0c 84 ae 	imul   $0x402fae84,0xc(%rsp),%r9d
   18000487d:	2f 40 
   18000487f:	44 69 d1 f9 d2 18 b9 	imul   $0xb918d2f9,%ecx,%r10d
   180004886:	41 f7 d2             	not    %r10d
   180004889:	41 f7 d1             	not    %r9d
   18000488c:	eb 22                	jmp    0x1800048b0
   18000488e:	44 69 4c 24 0c f9 d2 	imul   $0xb918d2f9,0xc(%rsp),%r9d
   180004895:	18 b9 
   180004897:	44 69 d1 84 ae 2f 40 	imul   $0x402fae84,%ecx,%r10d
   18000489e:	eb 10                	jmp    0x1800048b0
   1800048a0:	44 69 4c 24 0c 84 ae 	imul   $0x402fae84,0xc(%rsp),%r9d
   1800048a7:	2f 40 
   1800048a9:	44 69 d1 f9 d2 18 b9 	imul   $0xb918d2f9,%ecx,%r10d
   1800048b0:	45 8b c1             	mov    %r9d,%r8d
   1800048b3:	41 83 e0 0f          	and    $0xf,%r8d
   1800048b7:	41 83 f8 0a          	cmp    $0xa,%r8d
   1800048bb:	73 07                	jae    0x1800048c4
   1800048bd:	66 41 83 c0 30       	add    $0x30,%r8w
   1800048c2:	eb 0d                	jmp    0x1800048d1
   1800048c4:	b8 50 00 00 00       	mov    $0x50,%eax
   1800048c9:	66 41 2b c0          	sub    %r8w,%ax
   1800048cd:	44 0f b7 c0          	movzwl %ax,%r8d
   1800048d1:	66 44 89 03          	mov    %r8w,(%rbx)
   1800048d5:	45 8b c2             	mov    %r10d,%r8d
   1800048d8:	41 83 e0 0f          	and    $0xf,%r8d
   1800048dc:	41 83 f8 0a          	cmp    $0xa,%r8d
   1800048e0:	73 07                	jae    0x1800048e9
   1800048e2:	66 41 83 c0 30       	add    $0x30,%r8w
   1800048e7:	eb 0d                	jmp    0x1800048f6
   1800048e9:	b8 50 00 00 00       	mov    $0x50,%eax
   1800048ee:	66 41 2b c0          	sub    %r8w,%ax
   1800048f2:	44 0f b7 c0          	movzwl %ax,%r8d
   1800048f6:	41 83 c3 02          	add    $0x2,%r11d
   1800048fa:	66 44 89 43 02       	mov    %r8w,0x2(%rbx)
   1800048ff:	41 c1 e9 04          	shr    $0x4,%r9d
   180004903:	41 c1 ea 04          	shr    $0x4,%r10d
   180004907:	48 83 c3 04          	add    $0x4,%rbx
   18000490b:	41 83 fb 26          	cmp    $0x26,%r11d
   18000490f:	0f 8c 50 ff ff ff    	jl     0x180004865
   180004915:	48 8b 5c 24 10       	mov    0x10(%rsp),%rbx
   18000491a:	48 8b 74 24 18       	mov    0x18(%rsp),%rsi
   18000491f:	b8 7b 00 00 00       	mov    $0x7b,%eax
   180004924:	66 89 02             	mov    %ax,(%rdx)
   180004927:	b8 2d 00 00 00       	mov    $0x2d,%eax
   18000492c:	c7 42 4a 7d 00 00 00 	movl   $0x7d,0x4a(%rdx)
   180004933:	66 89 42 12          	mov    %ax,0x12(%rdx)
   180004937:	66 89 42 1c          	mov    %ax,0x1c(%rdx)
   18000493b:	66 89 42 26          	mov    %ax,0x26(%rdx)
   18000493f:	66 89 42 30          	mov    %ax,0x30(%rdx)
   180004943:	33 c0                	xor    %eax,%eax
   180004945:	c3                   	retq   
   180004946:	cc                   	int3   
   180004947:	cc                   	int3   
   180004948:	40 53                	rex push %rbx
   18000494a:	48 83 ec 30          	sub    $0x30,%rsp
   18000494e:	83 64 24 40 00       	andl   $0x0,0x40(%rsp)
   180004953:	48 83 39 ff          	cmpq   $0xffffffffffffffff,(%rcx)
   180004957:	48 8b d9             	mov    %rcx,%rbx
   18000495a:	74 25                	je     0x180004981
   18000495c:	48 8b 09             	mov    (%rcx),%rcx
   18000495f:	48 83 64 24 20 00    	andq   $0x0,0x20(%rsp)
   180004965:	4c 8d 4c 24 40       	lea    0x40(%rsp),%r9
   18000496a:	ff 15 4a 2b 00 00    	callq  *0x2b4a(%rip)        # 0x1800074ba
   180004970:	85 c0                	test   %eax,%eax
   180004972:	75 0d                	jne    0x180004981
   180004974:	48 8b 0b             	mov    (%rbx),%rcx
   180004977:	ff 15 7f 2a 00 00    	callq  *0x2a7f(%rip)        # 0x1800073fc
   18000497d:	48 83 0b ff          	orq    $0xffffffffffffffff,(%rbx)
   180004981:	48 83 c4 30          	add    $0x30,%rsp
   180004985:	5b                   	pop    %rbx
   180004986:	c3                   	retq   
   180004987:	cc                   	int3   
   180004988:	48 8b c4             	mov    %rsp,%rax
   18000498b:	48 89 58 08          	mov    %rbx,0x8(%rax)
   18000498f:	48 89 70 10          	mov    %rsi,0x10(%rax)
   180004993:	57                   	push   %rdi
   180004994:	48 83 ec 20          	sub    $0x20,%rsp
   180004998:	41 8b d8             	mov    %r8d,%ebx
   18000499b:	48 8b fa             	mov    %rdx,%rdi
   18000499e:	48 8d 50 18          	lea    0x18(%rax),%rdx
   1800049a2:	41 b8 04 00 00 00    	mov    $0x4,%r8d
   1800049a8:	48 8b f1             	mov    %rcx,%rsi
   1800049ab:	89 58 18             	mov    %ebx,0x18(%rax)
   1800049ae:	e8 95 ff ff ff       	callq  0x180004948
   1800049b3:	44 8b c3             	mov    %ebx,%r8d
   1800049b6:	48 8b d7             	mov    %rdi,%rdx
   1800049b9:	48 8b ce             	mov    %rsi,%rcx
   1800049bc:	48 8b 5c 24 30       	mov    0x30(%rsp),%rbx
   1800049c1:	48 8b 74 24 38       	mov    0x38(%rsp),%rsi
   1800049c6:	48 83 c4 20          	add    $0x20,%rsp
   1800049ca:	5f                   	pop    %rdi
   1800049cb:	e9 78 ff ff ff       	jmpq   0x180004948
   1800049d0:	48 89 5c 24 08       	mov    %rbx,0x8(%rsp)
   1800049d5:	48 89 7c 24 10       	mov    %rdi,0x10(%rsp)
   1800049da:	55                   	push   %rbp
   1800049db:	48 8d 6c 24 a9       	lea    -0x57(%rsp),%rbp
   1800049e0:	48 81 ec 90 00 00 00 	sub    $0x90,%rsp
   1800049e7:	8a d9                	mov    %cl,%bl
   1800049e9:	b8 70 00 00 00       	mov    $0x70,%eax
   1800049ee:	48 8d 4d e7          	lea    -0x19(%rbp),%rcx
   1800049f2:	33 ff                	xor    %edi,%edi
   1800049f4:	c7 45 eb 2e 00 5c 00 	movl   $0x5c002e,-0x15(%rbp)
   1800049fb:	c7 45 f1 69 00 70 00 	movl   $0x700069,-0xf(%rbp)
   180004a02:	c7 45 e7 5c 00 5c 00 	movl   $0x5c005c,-0x19(%rbp)
   180004a09:	c7 45 f5 65 00 5c 00 	movl   $0x5c0065,-0xb(%rbp)
   180004a10:	66 89 45 ef          	mov    %ax,-0x11(%rbp)
   180004a14:	66 89 7d f9          	mov    %di,-0x7(%rbp)
   180004a18:	ff 15 db 2a 00 00    	callq  *0x2adb(%rip)        # 0x1800074f9
   180004a1e:	48 8d 55 e7          	lea    -0x19(%rbp),%rdx
   180004a22:	48 63 c8             	movslq %eax,%rcx
   180004a25:	48 8d 14 4a          	lea    (%rdx,%rcx,2),%rdx
   180004a29:	8a cb                	mov    %bl,%cl
   180004a2b:	e8 b4 00 00 00       	callq  0x180004ae4
   180004a30:	85 c0                	test   %eax,%eax
   180004a32:	74 2b                	je     0x180004a5f
   180004a34:	48 8d 4d e7          	lea    -0x19(%rbp),%rcx
   180004a38:	33 d2                	xor    %edx,%edx
   180004a3a:	ff 15 f8 15 00 00    	callq  *0x15f8(%rip)        # 0x180006038
   180004a40:	8b d8                	mov    %eax,%ebx
   180004a42:	ff 15 75 29 00 00    	callq  *0x2975(%rip)        # 0x1800073bd
   180004a48:	85 db                	test   %ebx,%ebx
   180004a4a:	75 0c                	jne    0x180004a58
   180004a4c:	83 f8 79             	cmp    $0x79,%eax
   180004a4f:	74 07                	je     0x180004a58
   180004a51:	3d e7 00 00 00       	cmp    $0xe7,%eax
   180004a56:	75 05                	jne    0x180004a5d
   180004a58:	bf 01 00 00 00       	mov    $0x1,%edi
   180004a5d:	8b c7                	mov    %edi,%eax
   180004a5f:	4c 8d 9c 24 90 00 00 	lea    0x90(%rsp),%r11
   180004a66:	00 
   180004a67:	49 8b 5b 10          	mov    0x10(%r11),%rbx
   180004a6b:	49 8b 7b 18          	mov    0x18(%r11),%rdi
   180004a6f:	49 8b e3             	mov    %r11,%rsp
   180004a72:	5d                   	pop    %rbp
   180004a73:	c3                   	retq   
   180004a74:	48 89 5c 24 08       	mov    %rbx,0x8(%rsp)
   180004a79:	48 89 74 24 10       	mov    %rsi,0x10(%rsp)
   180004a7e:	57                   	push   %rdi
   180004a7f:	48 83 ec 20          	sub    $0x20,%rsp
   180004a83:	0f b6 f9             	movzbl %cl,%edi
   180004a86:	48 8d 35 eb 34 00 00 	lea    0x34eb(%rip),%rsi        # 0x180007f78
   180004a8d:	83 3c be 00          	cmpl   $0x0,(%rsi,%rdi,4)
   180004a91:	8b df                	mov    %edi,%ebx
   180004a93:	74 1b                	je     0x180004ab0
   180004a95:	ff 15 02 2a 00 00    	callq  *0x2a02(%rip)        # 0x18000749d
   180004a9b:	3b 04 9e             	cmp    (%rsi,%rbx,4),%eax
   180004a9e:	73 06                	jae    0x180004aa6
   180004aa0:	83 24 9e 00          	andl   $0x0,(%rsi,%rbx,4)
   180004aa4:	eb 0a                	jmp    0x180004ab0
   180004aa6:	2b 04 9e             	sub    (%rsi,%rbx,4),%eax
   180004aa9:	3d 30 75 00 00       	cmp    $0x7530,%eax
   180004aae:	72 20                	jb     0x180004ad0
   180004ab0:	40 8a cf             	mov    %dil,%cl
   180004ab3:	e8 18 ff ff ff       	callq  0x1800049d0
   180004ab8:	85 c0                	test   %eax,%eax
   180004aba:	74 0b                	je     0x180004ac7
   180004abc:	83 24 9e 00          	andl   $0x0,(%rsi,%rbx,4)
   180004ac0:	b8 01 00 00 00       	mov    $0x1,%eax
   180004ac5:	eb 0b                	jmp    0x180004ad2
   180004ac7:	ff 15 d0 29 00 00    	callq  *0x29d0(%rip)        # 0x18000749d
   180004acd:	89 04 9e             	mov    %eax,(%rsi,%rbx,4)
   180004ad0:	33 c0                	xor    %eax,%eax
   180004ad2:	48 8b 5c 24 30       	mov    0x30(%rsp),%rbx
   180004ad7:	48 8b 74 24 38       	mov    0x38(%rsp),%rsi
   180004adc:	48 83 c4 20          	add    $0x20,%rsp
   180004ae0:	5f                   	pop    %rdi
   180004ae1:	c3                   	retq   
   180004ae2:	cc                   	int3   
   180004ae3:	cc                   	int3   
   180004ae4:	48 8b c4             	mov    %rsp,%rax
   180004ae7:	48 89 58 08          	mov    %rbx,0x8(%rax)
   180004aeb:	48 89 70 10          	mov    %rsi,0x10(%rax)
   180004aef:	57                   	push   %rdi
   180004af0:	48 83 ec 40          	sub    $0x40,%rsp
   180004af4:	48 8b fa             	mov    %rdx,%rdi
   180004af7:	40 8a f1             	mov    %cl,%sil
   180004afa:	48 8d 50 18          	lea    0x18(%rax),%rdx
   180004afe:	48 8d 48 d8          	lea    -0x28(%rax),%rcx
   180004b02:	c7 40 18 10 00 00 00 	movl   $0x10,0x18(%rax)
   180004b09:	ff 15 72 29 00 00    	callq  *0x2972(%rip)        # 0x180007481
   180004b0f:	33 db                	xor    %ebx,%ebx
   180004b11:	85 c0                	test   %eax,%eax
   180004b13:	74 6e                	je     0x180004b83
   180004b15:	0f b7 4c 24 20       	movzwl 0x20(%rsp),%ecx
   180004b1a:	48 8d 54 24 20       	lea    0x20(%rsp),%rdx
   180004b1f:	41 b8 c6 4f f8 67    	mov    $0x67f84fc6,%r8d
   180004b25:	eb 2e                	jmp    0x180004b55
   180004b27:	8d 41 bf             	lea    -0x41(%rcx),%eax
   180004b2a:	66 83 f8 19          	cmp    $0x19,%ax
   180004b2e:	77 04                	ja     0x180004b34
   180004b30:	66 83 c1 20          	add    $0x20,%cx
   180004b34:	0f b7 c9             	movzwl %cx,%ecx
   180004b37:	8b c1                	mov    %ecx,%eax
   180004b39:	83 e0 07             	and    $0x7,%eax
   180004b3c:	0f af c9             	imul   %ecx,%ecx
   180004b3f:	c1 e0 09             	shl    $0x9,%eax
   180004b42:	05 27 0c a2 08       	add    $0x8a20c27,%eax
   180004b47:	44 0f af c0          	imul   %eax,%r8d
   180004b4b:	44 33 c1             	xor    %ecx,%r8d
   180004b4e:	48 83 c2 02          	add    $0x2,%rdx
   180004b52:	0f b7 0a             	movzwl (%rdx),%ecx
   180004b55:	66 85 c9             	test   %cx,%cx
   180004b58:	75 cd                	jne    0x180004b27
   180004b5a:	40 0f b6 d6          	movzbl %sil,%edx
   180004b5e:	42 8d 0c 02          	lea    (%rdx,%r8,1),%ecx
   180004b62:	44 2b c2             	sub    %edx,%r8d
   180004b65:	48 8b d7             	mov    %rdi,%rdx
   180004b68:	44 89 44 24 64       	mov    %r8d,0x64(%rsp)
   180004b6d:	89 4c 24 60          	mov    %ecx,0x60(%rsp)
   180004b71:	48 8b 4c 24 60       	mov    0x60(%rsp),%rcx
   180004b76:	e8 cd fc ff ff       	callq  0x180004848
   180004b7b:	83 f8 ff             	cmp    $0xffffffff,%eax
   180004b7e:	0f 95 c3             	setne  %bl
   180004b81:	8b c3                	mov    %ebx,%eax
   180004b83:	48 8b 5c 24 50       	mov    0x50(%rsp),%rbx
   180004b88:	48 8b 74 24 58       	mov    0x58(%rsp),%rsi
   180004b8d:	48 83 c4 40          	add    $0x40,%rsp
   180004b91:	5f                   	pop    %rdi
   180004b92:	c3                   	retq   
   180004b93:	cc                   	int3   
   180004b94:	48 8b c4             	mov    %rsp,%rax
   180004b97:	48 89 58 08          	mov    %rbx,0x8(%rax)
   180004b9b:	48 89 70 10          	mov    %rsi,0x10(%rax)
   180004b9f:	48 89 78 18          	mov    %rdi,0x18(%rax)
   180004ba3:	55                   	push   %rbp
   180004ba4:	48 8d 68 a1          	lea    -0x5f(%rax),%rbp
   180004ba8:	48 81 ec b0 00 00 00 	sub    $0xb0,%rsp
   180004baf:	8a d9                	mov    %cl,%bl
   180004bb1:	48 83 cf ff          	or     $0xffffffffffffffff,%rdi
   180004bb5:	33 f6                	xor    %esi,%esi
   180004bb7:	8d 4f 71             	lea    0x71(%rdi),%ecx
   180004bba:	c7 45 eb 2e 00 5c 00 	movl   $0x5c002e,-0x15(%rbp)
   180004bc1:	c7 45 f1 69 00 70 00 	movl   $0x700069,-0xf(%rbp)
   180004bc8:	66 89 4d ef          	mov    %cx,-0x11(%rbp)
   180004bcc:	48 8d 4d e7          	lea    -0x19(%rbp),%rcx
   180004bd0:	c7 45 e7 5c 00 5c 00 	movl   $0x5c005c,-0x19(%rbp)
   180004bd7:	c7 45 f5 65 00 5c 00 	movl   $0x5c0065,-0xb(%rbp)
   180004bde:	66 89 75 f9          	mov    %si,-0x7(%rbp)
   180004be2:	ff 15 11 29 00 00    	callq  *0x2911(%rip)        # 0x1800074f9
   180004be8:	48 63 c8             	movslq %eax,%rcx
   180004beb:	48 8d 55 e7          	lea    -0x19(%rbp),%rdx
   180004bef:	48 8d 14 4a          	lea    (%rdx,%rcx,2),%rdx
   180004bf3:	8a cb                	mov    %bl,%cl
   180004bf5:	e8 ea fe ff ff       	callq  0x180004ae4
   180004bfa:	85 c0                	test   %eax,%eax
   180004bfc:	75 05                	jne    0x180004c03
   180004bfe:	48 0b c7             	or     %rdi,%rax
   180004c01:	eb 68                	jmp    0x180004c6b
   180004c03:	8b de                	mov    %esi,%ebx
   180004c05:	48 8d 4d e7          	lea    -0x19(%rbp),%rcx
   180004c09:	ba 32 00 00 00       	mov    $0x32,%edx
   180004c0e:	ff 15 24 14 00 00    	callq  *0x1424(%rip)        # 0x180006038
   180004c14:	85 c0                	test   %eax,%eax
   180004c16:	75 1a                	jne    0x180004c32
   180004c18:	ff 15 9f 27 00 00    	callq  *0x279f(%rip)        # 0x1800073bd
   180004c1e:	3d e7 00 00 00       	cmp    $0xe7,%eax
   180004c23:	75 43                	jne    0x180004c68
   180004c25:	b9 32 00 00 00       	mov    $0x32,%ecx
   180004c2a:	ff 15 16 27 00 00    	callq  *0x2716(%rip)        # 0x180007346
   180004c30:	eb 2f                	jmp    0x180004c61
   180004c32:	48 89 74 24 30       	mov    %rsi,0x30(%rsp)
   180004c37:	48 8d 4d e7          	lea    -0x19(%rbp),%rcx
   180004c3b:	45 33 c9             	xor    %r9d,%r9d
   180004c3e:	45 33 c0             	xor    %r8d,%r8d
   180004c41:	ba 00 00 00 40       	mov    $0x40000000,%edx
   180004c46:	89 74 24 28          	mov    %esi,0x28(%rsp)
   180004c4a:	c7 44 24 20 03 00 00 	movl   $0x3,0x20(%rsp)
   180004c51:	00 
   180004c52:	ff 15 84 28 00 00    	callq  *0x2884(%rip)        # 0x1800074dc
   180004c58:	48 8b f8             	mov    %rax,%rdi
   180004c5b:	48 83 f8 ff          	cmp    $0xffffffffffffffff,%rax
   180004c5f:	75 07                	jne    0x180004c68
   180004c61:	ff c3                	inc    %ebx
   180004c63:	83 fb 05             	cmp    $0x5,%ebx
   180004c66:	72 9d                	jb     0x180004c05
   180004c68:	48 8b c7             	mov    %rdi,%rax
   180004c6b:	4c 8d 9c 24 b0 00 00 	lea    0xb0(%rsp),%r11
   180004c72:	00 
   180004c73:	49 8b 5b 10          	mov    0x10(%r11),%rbx
   180004c77:	49 8b 73 18          	mov    0x18(%r11),%rsi
   180004c7b:	49 8b 7b 20          	mov    0x20(%r11),%rdi
   180004c7f:	49 8b e3             	mov    %r11,%rsp
   180004c82:	5d                   	pop    %rbp
   180004c83:	c3                   	retq   
   180004c84:	44 89 4c 24 20       	mov    %r9d,0x20(%rsp)
   180004c89:	53                   	push   %rbx
   180004c8a:	56                   	push   %rsi
   180004c8b:	57                   	push   %rdi
   180004c8c:	41 54                	push   %r12
   180004c8e:	41 55                	push   %r13
   180004c90:	41 56                	push   %r14
   180004c92:	48 81 ec b8 00 00 00 	sub    $0xb8,%rsp
   180004c99:	49 8b f0             	mov    %r8,%rsi
   180004c9c:	44 8b f2             	mov    %edx,%r14d
   180004c9f:	8a d9                	mov    %cl,%bl
   180004ca1:	48 83 4c 24 20 ff    	orq    $0xffffffffffffffff,0x20(%rsp)
   180004ca7:	83 64 24 48 00       	andl   $0x0,0x48(%rsp)
   180004cac:	48 83 64 24 40 00    	andq   $0x0,0x40(%rsp)
   180004cb2:	48 81 f6 41 51 a9 12 	xor    $0x12a95141,%rsi
   180004cb9:	80 f9 0b             	cmp    $0xb,%cl
   180004cbc:	0f 87 ac 02 00 00    	ja     0x180004f6e
   180004cc2:	e8 8d ef ff ff       	callq  0x180003c54
   180004cc7:	85 c0                	test   %eax,%eax
   180004cc9:	0f 84 9f 02 00 00    	je     0x180004f6e
   180004ccf:	8a cb                	mov    %bl,%cl
   180004cd1:	e8 9e fd ff ff       	callq  0x180004a74
   180004cd6:	85 c0                	test   %eax,%eax
   180004cd8:	0f 84 90 02 00 00    	je     0x180004f6e
   180004cde:	8a cb                	mov    %bl,%cl
   180004ce0:	e8 af fe ff ff       	callq  0x180004b94
   180004ce5:	48 89 44 24 20       	mov    %rax,0x20(%rsp)
   180004cea:	48 83 f8 ff          	cmp    $0xffffffffffffffff,%rax
   180004cee:	0f 84 7a 02 00 00    	je     0x180004f6e
   180004cf4:	48 8d bc 24 10 01 00 	lea    0x110(%rsp),%rdi
   180004cfb:	00 
   180004cfc:	c6 44 24 30 00       	movb   $0x0,0x30(%rsp)
   180004d01:	41 bd 01 00 00 00    	mov    $0x1,%r13d
   180004d07:	45 8b c5             	mov    %r13d,%r8d
   180004d0a:	48 8d 54 24 30       	lea    0x30(%rsp),%rdx
   180004d0f:	48 8d 4c 24 20       	lea    0x20(%rsp),%rcx
   180004d14:	e8 2f fc ff ff       	callq  0x180004948
   180004d19:	44 89 ac 24 98 00 00 	mov    %r13d,0x98(%rsp)
   180004d20:	00 
   180004d21:	45 8d 65 03          	lea    0x3(%r13),%r12d
   180004d25:	45 8b c4             	mov    %r12d,%r8d
   180004d28:	48 8d 94 24 98 00 00 	lea    0x98(%rsp),%rdx
   180004d2f:	00 
   180004d30:	48 8d 4c 24 20       	lea    0x20(%rsp),%rcx
   180004d35:	e8 0e fc ff ff       	callq  0x180004948
   180004d3a:	44 88 6c 24 38       	mov    %r13b,0x38(%rsp)
   180004d3f:	45 8b c5             	mov    %r13d,%r8d
   180004d42:	48 8d 54 24 38       	lea    0x38(%rsp),%rdx
   180004d47:	48 8d 4c 24 20       	lea    0x20(%rsp),%rcx
   180004d4c:	e8 f7 fb ff ff       	callq  0x180004948
   180004d51:	ff 15 cd 26 00 00    	callq  *0x26cd(%rip)        # 0x180007424
   180004d57:	89 44 24 60          	mov    %eax,0x60(%rsp)
   180004d5b:	45 8b c4             	mov    %r12d,%r8d
   180004d5e:	48 8d 54 24 60       	lea    0x60(%rsp),%rdx
   180004d63:	48 8d 4c 24 20       	lea    0x20(%rsp),%rcx
   180004d68:	e8 db fb ff ff       	callq  0x180004948
   180004d6d:	ff 15 d0 27 00 00    	callq  *0x27d0(%rip)        # 0x180007543
   180004d73:	89 44 24 68          	mov    %eax,0x68(%rsp)
   180004d77:	45 8b c4             	mov    %r12d,%r8d
   180004d7a:	48 8d 54 24 68       	lea    0x68(%rsp),%rdx
   180004d7f:	48 8d 4c 24 20       	lea    0x20(%rsp),%rcx
   180004d84:	e8 bf fb ff ff       	callq  0x180004948
   180004d89:	8b 84 24 08 01 00 00 	mov    0x108(%rsp),%eax
   180004d90:	35 41 51 a9 12       	xor    $0x12a95141,%eax
   180004d95:	89 44 24 78          	mov    %eax,0x78(%rsp)
   180004d99:	45 8b c4             	mov    %r12d,%r8d
   180004d9c:	48 8d 54 24 78       	lea    0x78(%rsp),%rdx
   180004da1:	48 8d 4c 24 20       	lea    0x20(%rsp),%rcx
   180004da6:	e8 9d fb ff ff       	callq  0x180004948
   180004dab:	83 64 24 58 00       	andl   $0x0,0x58(%rsp)
   180004db0:	45 8b c4             	mov    %r12d,%r8d
   180004db3:	48 8d 54 24 58       	lea    0x58(%rsp),%rdx
   180004db8:	48 8d 4c 24 20       	lea    0x20(%rsp),%rcx
   180004dbd:	e8 86 fb ff ff       	callq  0x180004948
   180004dc2:	41 81 f6 41 51 a9 12 	xor    $0x12a95141,%r14d
   180004dc9:	44 89 74 24 70       	mov    %r14d,0x70(%rsp)
   180004dce:	45 8b c4             	mov    %r12d,%r8d
   180004dd1:	48 8d 54 24 70       	lea    0x70(%rsp),%rdx
   180004dd6:	48 8d 4c 24 20       	lea    0x20(%rsp),%rcx
   180004ddb:	e8 68 fb ff ff       	callq  0x180004948
   180004de0:	88 5c 24 28          	mov    %bl,0x28(%rsp)
   180004de4:	45 8b c5             	mov    %r13d,%r8d
   180004de7:	48 8d 54 24 28       	lea    0x28(%rsp),%rdx
   180004dec:	48 8d 4c 24 20       	lea    0x20(%rsp),%rcx
   180004df1:	e8 52 fb ff ff       	callq  0x180004948
   180004df6:	48 8b ce             	mov    %rsi,%rcx
   180004df9:	33 d2                	xor    %edx,%edx
   180004dfb:	89 54 24 48          	mov    %edx,0x48(%rsp)
   180004dff:	48 89 8c 24 88 00 00 	mov    %rcx,0x88(%rsp)
   180004e06:	00 
   180004e07:	48 85 c9             	test   %rcx,%rcx
   180004e0a:	74 10                	je     0x180004e1c
   180004e0c:	8b c1                	mov    %ecx,%eax
   180004e0e:	83 e0 0f             	and    $0xf,%eax
   180004e11:	74 09                	je     0x180004e1c
   180004e13:	48 c1 e9 04          	shr    $0x4,%rcx
   180004e17:	41 03 d5             	add    %r13d,%edx
   180004e1a:	eb df                	jmp    0x180004dfb
   180004e1c:	89 94 24 90 00 00 00 	mov    %edx,0x90(%rsp)
   180004e23:	45 8b c4             	mov    %r12d,%r8d
   180004e26:	48 8d 94 24 90 00 00 	lea    0x90(%rsp),%rdx
   180004e2d:	00 
   180004e2e:	48 8d 4c 24 20       	lea    0x20(%rsp),%rcx
   180004e33:	e8 10 fb ff ff       	callq  0x180004948
   180004e38:	41 be 08 00 00 00    	mov    $0x8,%r14d
   180004e3e:	48 89 b4 24 88 00 00 	mov    %rsi,0x88(%rsp)
   180004e45:	00 
   180004e46:	48 85 f6             	test   %rsi,%rsi
   180004e49:	0f 84 fa 00 00 00    	je     0x180004f49
   180004e4f:	8b de                	mov    %esi,%ebx
   180004e51:	83 e3 0f             	and    $0xf,%ebx
   180004e54:	0f 84 ef 00 00 00    	je     0x180004f49
   180004e5a:	89 9c 24 80 00 00 00 	mov    %ebx,0x80(%rsp)
   180004e61:	45 8b c4             	mov    %r12d,%r8d
   180004e64:	48 8d 94 24 80 00 00 	lea    0x80(%rsp),%rdx
   180004e6b:	00 
   180004e6c:	48 8d 4c 24 20       	lea    0x20(%rsp),%rcx
   180004e71:	e8 d2 fa ff ff       	callq  0x180004948
   180004e76:	41 3b dd             	cmp    %r13d,%ebx
   180004e79:	0f 84 9b 00 00 00    	je     0x180004f1a
   180004e7f:	83 fb 02             	cmp    $0x2,%ebx
   180004e82:	74 7d                	je     0x180004f01
   180004e84:	83 fb 03             	cmp    $0x3,%ebx
   180004e87:	74 5e                	je     0x180004ee7
   180004e89:	41 3b dc             	cmp    %r12d,%ebx
   180004e8c:	74 38                	je     0x180004ec6
   180004e8e:	83 fb 05             	cmp    $0x5,%ebx
   180004e91:	74 6e                	je     0x180004f01
   180004e93:	83 fb 06             	cmp    $0x6,%ebx
   180004e96:	74 0d                	je     0x180004ea5
   180004e98:	8d 43 f9             	lea    -0x7(%rbx),%eax
   180004e9b:	41 3b c5             	cmp    %r13d,%eax
   180004e9e:	76 61                	jbe    0x180004f01
   180004ea0:	e9 9b 00 00 00       	jmpq   0x180004f40
   180004ea5:	49 03 fe             	add    %r14,%rdi
   180004ea8:	48 89 7c 24 40       	mov    %rdi,0x40(%rsp)
   180004ead:	48 8b 47 f8          	mov    -0x8(%rdi),%rax
   180004eb1:	48 89 84 24 a0 00 00 	mov    %rax,0xa0(%rsp)
   180004eb8:	00 
   180004eb9:	45 8b c6             	mov    %r14d,%r8d
   180004ebc:	48 8d 94 24 a0 00 00 	lea    0xa0(%rsp),%rdx
   180004ec3:	00 
   180004ec4:	eb 70                	jmp    0x180004f36
   180004ec6:	49 03 fe             	add    %r14,%rdi
   180004ec9:	48 89 7c 24 40       	mov    %rdi,0x40(%rsp)
   180004ece:	48 8b 47 f8          	mov    -0x8(%rdi),%rax
   180004ed2:	48 89 84 24 a8 00 00 	mov    %rax,0xa8(%rsp)
   180004ed9:	00 
   180004eda:	45 8b c6             	mov    %r14d,%r8d
   180004edd:	48 8d 94 24 a8 00 00 	lea    0xa8(%rsp),%rdx
   180004ee4:	00 
   180004ee5:	eb 4f                	jmp    0x180004f36
   180004ee7:	49 03 fe             	add    %r14,%rdi
   180004eea:	48 89 7c 24 40       	mov    %rdi,0x40(%rsp)
   180004eef:	48 8b 5f f8          	mov    -0x8(%rdi),%rbx
   180004ef3:	48 8b cb             	mov    %rbx,%rcx
   180004ef6:	ff 15 3d 25 00 00    	callq  *0x253d(%rip)        # 0x180007439
   180004efc:	44 8b c0             	mov    %eax,%r8d
   180004eff:	eb 32                	jmp    0x180004f33
   180004f01:	49 03 fe             	add    %r14,%rdi
   180004f04:	48 89 7c 24 40       	mov    %rdi,0x40(%rsp)
   180004f09:	8b 47 f8             	mov    -0x8(%rdi),%eax
   180004f0c:	89 44 24 50          	mov    %eax,0x50(%rsp)
   180004f10:	45 8b c4             	mov    %r12d,%r8d
   180004f13:	48 8d 54 24 50       	lea    0x50(%rsp),%rdx
   180004f18:	eb 1c                	jmp    0x180004f36
   180004f1a:	49 03 fe             	add    %r14,%rdi
   180004f1d:	48 89 7c 24 40       	mov    %rdi,0x40(%rsp)
   180004f22:	48 8b 5f f8          	mov    -0x8(%rdi),%rbx
   180004f26:	48 8b cb             	mov    %rbx,%rcx
   180004f29:	ff 15 ca 25 00 00    	callq  *0x25ca(%rip)        # 0x1800074f9
   180004f2f:	44 8d 04 00          	lea    (%rax,%rax,1),%r8d
   180004f33:	48 8b d3             	mov    %rbx,%rdx
   180004f36:	48 8d 4c 24 20       	lea    0x20(%rsp),%rcx
   180004f3b:	e8 48 fa ff ff       	callq  0x180004988
   180004f40:	48 c1 ee 04          	shr    $0x4,%rsi
   180004f44:	e9 f5 fe ff ff       	jmpq   0x180004e3e
   180004f49:	48 8b 5c 24 20       	mov    0x20(%rsp),%rbx
   180004f4e:	48 83 fb ff          	cmp    $0xffffffffffffffff,%rbx
   180004f52:	74 12                	je     0x180004f66
   180004f54:	48 8b cb             	mov    %rbx,%rcx
   180004f57:	ff 15 c4 25 00 00    	callq  *0x25c4(%rip)        # 0x180007521
   180004f5d:	48 8b cb             	mov    %rbx,%rcx
   180004f60:	ff 15 96 24 00 00    	callq  *0x2496(%rip)        # 0x1800073fc
   180004f66:	48 83 64 24 40 00    	andq   $0x0,0x40(%rsp)
   180004f6c:	eb 00                	jmp    0x180004f6e
   180004f6e:	48 81 c4 b8 00 00 00 	add    $0xb8,%rsp
   180004f75:	41 5e                	pop    %r14
   180004f77:	41 5d                	pop    %r13
   180004f79:	41 5c                	pop    %r12
   180004f7b:	5f                   	pop    %rdi
   180004f7c:	5e                   	pop    %rsi
   180004f7d:	5b                   	pop    %rbx
   180004f7e:	c3                   	retq   
   180004f7f:	cc                   	int3   
   180004f80:	66 83 3a 00          	cmpw   $0x0,(%rdx)
   180004f84:	4c 8b da             	mov    %rdx,%r11
   180004f87:	4c 8b c1             	mov    %rcx,%r8
   180004f8a:	75 04                	jne    0x180004f90
   180004f8c:	48 8b c1             	mov    %rcx,%rax
   180004f8f:	c3                   	retq   
   180004f90:	0f b7 01             	movzwl (%rcx),%eax
   180004f93:	66 85 c0             	test   %ax,%ax
   180004f96:	74 64                	je     0x180004ffc
   180004f98:	4c 8b c9             	mov    %rcx,%r9
   180004f9b:	4c 2b ca             	sub    %rdx,%r9
   180004f9e:	49 8b d3             	mov    %r11,%rdx
   180004fa1:	66 85 c0             	test   %ax,%ax
   180004fa4:	74 3f                	je     0x180004fe5
   180004fa6:	0f b7 0a             	movzwl (%rdx),%ecx
   180004fa9:	66 85 c9             	test   %cx,%cx
   180004fac:	74 51                	je     0x180004fff
   180004fae:	45 0f b7 14 11       	movzwl (%r9,%rdx,1),%r10d
   180004fb3:	41 8d 42 bf          	lea    -0x41(%r10),%eax
   180004fb7:	66 83 f8 19          	cmp    $0x19,%ax
   180004fbb:	77 05                	ja     0x180004fc2
   180004fbd:	66 41 83 c2 20       	add    $0x20,%r10w
   180004fc2:	8d 41 bf             	lea    -0x41(%rcx),%eax
   180004fc5:	66 83 f8 19          	cmp    $0x19,%ax
   180004fc9:	77 04                	ja     0x180004fcf
   180004fcb:	66 83 c1 20          	add    $0x20,%cx
   180004fcf:	0f b7 c9             	movzwl %cx,%ecx
   180004fd2:	41 0f b7 c2          	movzwl %r10w,%eax
   180004fd6:	2b c1                	sub    %ecx,%eax
   180004fd8:	75 0b                	jne    0x180004fe5
   180004fda:	48 83 c2 02          	add    $0x2,%rdx
   180004fde:	66 41 39 04 11       	cmp    %ax,(%r9,%rdx,1)
   180004fe3:	75 c1                	jne    0x180004fa6
   180004fe5:	66 83 3a 00          	cmpw   $0x0,(%rdx)
   180004fe9:	74 14                	je     0x180004fff
   180004feb:	49 83 c0 02          	add    $0x2,%r8
   180004fef:	49 83 c1 02          	add    $0x2,%r9
   180004ff3:	41 0f b7 00          	movzwl (%r8),%eax
   180004ff7:	66 85 c0             	test   %ax,%ax
   180004ffa:	75 a2                	jne    0x180004f9e
   180004ffc:	33 c0                	xor    %eax,%eax
   180004ffe:	c3                   	retq   
   180004fff:	49 8b c0             	mov    %r8,%rax
   180005002:	c3                   	retq   
   180005003:	cc                   	int3   
   180005004:	48 89 54 24 10       	mov    %rdx,0x10(%rsp)
   180005009:	48 89 4c 24 08       	mov    %rcx,0x8(%rsp)
   18000500e:	56                   	push   %rsi
   18000500f:	57                   	push   %rdi
   180005010:	48 83 ec 28          	sub    $0x28,%rsp
   180005014:	48 8d 35 a5 2f 00 00 	lea    0x2fa5(%rip),%rsi        # 0x180007fc0
   18000501b:	bf 01 00 00 00       	mov    $0x1,%edi
   180005020:	48 8b ce             	mov    %rsi,%rcx
   180005023:	8b d7                	mov    %edi,%edx
   180005025:	ff 15 02 27 00 00    	callq  *0x2702(%rip)        # 0x18000772d
   18000502b:	85 c0                	test   %eax,%eax
   18000502d:	75 07                	jne    0x180005036
   18000502f:	33 c0                	xor    %eax,%eax
   180005031:	e9 8a 00 00 00       	jmpq   0x1800050c0
   180005036:	45 33 c9             	xor    %r9d,%r9d
   180005039:	45 33 c0             	xor    %r8d,%r8d
   18000503c:	8b d7                	mov    %edi,%edx
   18000503e:	48 8b ce             	mov    %rsi,%rcx
   180005041:	ff 15 13 27 00 00    	callq  *0x2713(%rip)        # 0x18000775a
   180005047:	85 c0                	test   %eax,%eax
   180005049:	74 e4                	je     0x18000502f
   18000504b:	48 83 64 24 50 00    	andq   $0x0,0x50(%rsp)
   180005051:	4c 8d 44 24 50       	lea    0x50(%rsp),%r8
   180005056:	48 8d 0d 8b 12 00 00 	lea    0x128b(%rip),%rcx        # 0x1800062e8
   18000505d:	45 33 c9             	xor    %r9d,%r9d
   180005060:	8b d7                	mov    %edi,%edx
   180005062:	e8 19 e0 ff ff       	callq  0x180003080
   180005067:	83 64 24 40 00       	andl   $0x0,0x40(%rsp)
   18000506c:	83 64 24 48 00       	andl   $0x0,0x48(%rsp)
   180005071:	85 c0                	test   %eax,%eax
   180005073:	74 31                	je     0x1800050a6
   180005075:	48 8b 4c 24 50       	mov    0x50(%rsp),%rcx
   18000507a:	4c 8d 4c 24 48       	lea    0x48(%rsp),%r9
   18000507f:	4c 8d 44 24 58       	lea    0x58(%rsp),%r8
   180005084:	48 8d 54 24 40       	lea    0x40(%rsp),%rdx
   180005089:	ff 15 3b 27 00 00    	callq  *0x273b(%rip)        # 0x1800077ca
   18000508f:	85 c0                	test   %eax,%eax
   180005091:	74 13                	je     0x1800050a6
   180005093:	4c 8b 44 24 58       	mov    0x58(%rsp),%r8
   180005098:	45 33 c9             	xor    %r9d,%r9d
   18000509b:	8b d7                	mov    %edi,%edx
   18000509d:	48 8b ce             	mov    %rsi,%rcx
   1800050a0:	ff 15 54 27 00 00    	callq  *0x2754(%rip)        # 0x1800077fa
   1800050a6:	83 25 0b 2f 00 00 00 	andl   $0x0,0x2f0b(%rip)        # 0x180007fb8
   1800050ad:	c7 05 f1 2e 00 00 18 	movl   $0x18,0x2ef1(%rip)        # 0x180007fa8
   1800050b4:	00 00 00 
   1800050b7:	48 89 35 f2 2e 00 00 	mov    %rsi,0x2ef2(%rip)        # 0x180007fb0
   1800050be:	8b c7                	mov    %edi,%eax
   1800050c0:	48 83 c4 28          	add    $0x28,%rsp
   1800050c4:	5f                   	pop    %rdi
   1800050c5:	5e                   	pop    %rsi
   1800050c6:	c3                   	retq   
   1800050c7:	cc                   	int3   
   1800050c8:	ff 25 a2 0f 00 00    	jmpq   *0xfa2(%rip)        # 0x180006070
   1800050ce:	ff 25 a4 0f 00 00    	jmpq   *0xfa4(%rip)        # 0x180006078
   1800050d4:	ff 25 a6 0f 00 00    	jmpq   *0xfa6(%rip)        # 0x180006080
   1800050da:	ff 25 a8 0f 00 00    	jmpq   *0xfa8(%rip)        # 0x180006088
   1800050e0:	ff 25 4a 0f 00 00    	jmpq   *0xf4a(%rip)        # 0x180006030
   1800050e6:	ff 25 3c 0f 00 00    	jmpq   *0xf3c(%rip)        # 0x180006028
   1800050ec:	ff 25 4e 0f 00 00    	jmpq   *0xf4e(%rip)        # 0x180006040
   1800050f2:	ff 25 60 0f 00 00    	jmpq   *0xf60(%rip)        # 0x180006058
   1800050f8:	ff 25 52 0f 00 00    	jmpq   *0xf52(%rip)        # 0x180006050
   1800050fe:	40 55                	rex push %rbp
   180005100:	48 83 ec 20          	sub    $0x20,%rsp
   180005104:	48 8b ea             	mov    %rdx,%rbp
   180005107:	48 89 8d 00 01 00 00 	mov    %rcx,0x100(%rbp)
   18000510e:	48 8b 01             	mov    (%rcx),%rax
   180005111:	8b 10                	mov    (%rax),%edx
   180005113:	89 95 a8 00 00 00    	mov    %edx,0xa8(%rbp)
   180005119:	48 89 8d f8 00 00 00 	mov    %rcx,0xf8(%rbp)
   180005120:	89 55 50             	mov    %edx,0x50(%rbp)
   180005123:	8b 45 50             	mov    0x50(%rbp),%eax
   180005126:	3d 63 73 6d e0       	cmp    $0xe06d7363,%eax
   18000512b:	75 14                	jne    0x180005141
   18000512d:	48 8b 95 f8 00 00 00 	mov    0xf8(%rbp),%rdx
   180005134:	8b 4d 50             	mov    0x50(%rbp),%ecx
   180005137:	e8 92 ff ff ff       	callq  0x1800050ce
   18000513c:	89 45 30             	mov    %eax,0x30(%rbp)
   18000513f:	eb 07                	jmp    0x180005148
   180005141:	c7 45 30 00 00 00 00 	movl   $0x0,0x30(%rbp)
   180005148:	8b 45 30             	mov    0x30(%rbp),%eax
   18000514b:	48 83 c4 20          	add    $0x20,%rsp
   18000514f:	5d                   	pop    %rbp
   180005150:	c3                   	retq   
   180005151:	cc                   	int3   
   180005152:	cc                   	int3   
   180005153:	cc                   	int3   
   180005154:	cc                   	int3   
   180005155:	cc                   	int3   
   180005156:	cc                   	int3   
   180005157:	cc                   	int3   
   180005158:	cc                   	int3   
   180005159:	cc                   	int3   
   18000515a:	cc                   	int3   
   18000515b:	cc                   	int3   
   18000515c:	cc                   	int3   
   18000515d:	cc                   	int3   
   18000515e:	40 55                	rex push %rbp
   180005160:	48 83 ec 20          	sub    $0x20,%rsp
   180005164:	48 8b ea             	mov    %rdx,%rbp
   180005167:	48 89 8d 10 01 00 00 	mov    %rcx,0x110(%rbp)
   18000516e:	48 8b 01             	mov    (%rcx),%rax
   180005171:	8b 10                	mov    (%rax),%edx
   180005173:	89 95 98 00 00 00    	mov    %edx,0x98(%rbp)
   180005179:	48 89 8d d0 00 00 00 	mov    %rcx,0xd0(%rbp)
   180005180:	89 55 70             	mov    %edx,0x70(%rbp)
   180005183:	8b 45 70             	mov    0x70(%rbp),%eax
   180005186:	3d 63 73 6d e0       	cmp    $0xe06d7363,%eax
   18000518b:	75 14                	jne    0x1800051a1
   18000518d:	48 8b 95 d0 00 00 00 	mov    0xd0(%rbp),%rdx
   180005194:	8b 4d 70             	mov    0x70(%rbp),%ecx
   180005197:	e8 32 ff ff ff       	callq  0x1800050ce
   18000519c:	89 45 38             	mov    %eax,0x38(%rbp)
   18000519f:	eb 07                	jmp    0x1800051a8
   1800051a1:	c7 45 38 00 00 00 00 	movl   $0x0,0x38(%rbp)
   1800051a8:	8b 45 38             	mov    0x38(%rbp),%eax
   1800051ab:	48 83 c4 20          	add    $0x20,%rsp
   1800051af:	5d                   	pop    %rbp
   1800051b0:	c3                   	retq   
   1800051b1:	cc                   	int3   
   1800051b2:	cc                   	int3   
   1800051b3:	cc                   	int3   
   1800051b4:	cc                   	int3   
   1800051b5:	cc                   	int3   
   1800051b6:	cc                   	int3   
   1800051b7:	cc                   	int3   
   1800051b8:	cc                   	int3   
   1800051b9:	cc                   	int3   
   1800051ba:	cc                   	int3   
   1800051bb:	cc                   	int3   
   1800051bc:	cc                   	int3   
   1800051bd:	cc                   	int3   
   1800051be:	40 55                	rex push %rbp
   1800051c0:	48 83 ec 20          	sub    $0x20,%rsp
   1800051c4:	48 8b ea             	mov    %rdx,%rbp
   1800051c7:	48 89 8d 30 01 00 00 	mov    %rcx,0x130(%rbp)
   1800051ce:	48 8b 01             	mov    (%rcx),%rax
   1800051d1:	8b 10                	mov    (%rax),%edx
   1800051d3:	89 95 cc 00 00 00    	mov    %edx,0xcc(%rbp)
   1800051d9:	48 89 8d f0 00 00 00 	mov    %rcx,0xf0(%rbp)
   1800051e0:	89 55 60             	mov    %edx,0x60(%rbp)
   1800051e3:	8b 45 60             	mov    0x60(%rbp),%eax
   1800051e6:	3d 63 73 6d e0       	cmp    $0xe06d7363,%eax
   1800051eb:	75 14                	jne    0x180005201
   1800051ed:	48 8b 95 f0 00 00 00 	mov    0xf0(%rbp),%rdx
   1800051f4:	8b 4d 60             	mov    0x60(%rbp),%ecx
   1800051f7:	e8 d2 fe ff ff       	callq  0x1800050ce
   1800051fc:	89 45 48             	mov    %eax,0x48(%rbp)
   1800051ff:	eb 07                	jmp    0x180005208
   180005201:	c7 45 48 00 00 00 00 	movl   $0x0,0x48(%rbp)
   180005208:	8b 45 48             	mov    0x48(%rbp),%eax
   18000520b:	48 83 c4 20          	add    $0x20,%rsp
   18000520f:	5d                   	pop    %rbp
   180005210:	c3                   	retq   
   180005211:	cc                   	int3   
   180005212:	cc                   	int3   
   180005213:	cc                   	int3   
   180005214:	cc                   	int3   
   180005215:	cc                   	int3   
   180005216:	cc                   	int3   
   180005217:	cc                   	int3   
   180005218:	cc                   	int3   
   180005219:	cc                   	int3   
   18000521a:	cc                   	int3   
   18000521b:	cc                   	int3   
   18000521c:	cc                   	int3   
   18000521d:	cc                   	int3   
   18000521e:	40 55                	rex push %rbp
   180005220:	48 83 ec 20          	sub    $0x20,%rsp
   180005224:	48 8b ea             	mov    %rdx,%rbp
   180005227:	48 89 8d 20 01 00 00 	mov    %rcx,0x120(%rbp)
   18000522e:	48 8b 01             	mov    (%rcx),%rax
   180005231:	8b 10                	mov    (%rax),%edx
   180005233:	89 95 8c 00 00 00    	mov    %edx,0x8c(%rbp)
   180005239:	48 89 8d e0 00 00 00 	mov    %rcx,0xe0(%rbp)
   180005240:	89 95 80 00 00 00    	mov    %edx,0x80(%rbp)
   180005246:	8b 85 80 00 00 00    	mov    0x80(%rbp),%eax
   18000524c:	3d 63 73 6d e0       	cmp    $0xe06d7363,%eax
   180005251:	75 17                	jne    0x18000526a
   180005253:	48 8b 95 e0 00 00 00 	mov    0xe0(%rbp),%rdx
   18000525a:	8b 8d 80 00 00 00    	mov    0x80(%rbp),%ecx
   180005260:	e8 69 fe ff ff       	callq  0x1800050ce
   180005265:	89 45 24             	mov    %eax,0x24(%rbp)
   180005268:	eb 07                	jmp    0x180005271
   18000526a:	c7 45 24 00 00 00 00 	movl   $0x0,0x24(%rbp)
   180005271:	8b 45 24             	mov    0x24(%rbp),%eax
   180005274:	48 83 c4 20          	add    $0x20,%rsp
   180005278:	5d                   	pop    %rbp
   180005279:	c3                   	retq   
   18000527a:	cc                   	int3   
   18000527b:	cc                   	int3   
   18000527c:	cc                   	int3   
   18000527d:	cc                   	int3   
   18000527e:	40 55                	rex push %rbp
   180005280:	48 83 ec 20          	sub    $0x20,%rsp
   180005284:	48 8b ea             	mov    %rdx,%rbp
   180005287:	48 89 8d 08 01 00 00 	mov    %rcx,0x108(%rbp)
   18000528e:	48 8b 01             	mov    (%rcx),%rax
   180005291:	8b 10                	mov    (%rax),%edx
   180005293:	89 95 d8 00 00 00    	mov    %edx,0xd8(%rbp)
   180005299:	48 89 8d 90 00 00 00 	mov    %rcx,0x90(%rbp)
   1800052a0:	89 55 28             	mov    %edx,0x28(%rbp)
   1800052a3:	8b 45 28             	mov    0x28(%rbp),%eax
   1800052a6:	3d 63 73 6d e0       	cmp    $0xe06d7363,%eax
   1800052ab:	75 14                	jne    0x1800052c1
   1800052ad:	48 8b 95 90 00 00 00 	mov    0x90(%rbp),%rdx
   1800052b4:	8b 4d 28             	mov    0x28(%rbp),%ecx
   1800052b7:	e8 12 fe ff ff       	callq  0x1800050ce
   1800052bc:	89 45 34             	mov    %eax,0x34(%rbp)
   1800052bf:	eb 07                	jmp    0x1800052c8
   1800052c1:	c7 45 34 00 00 00 00 	movl   $0x0,0x34(%rbp)
   1800052c8:	8b 45 34             	mov    0x34(%rbp),%eax
   1800052cb:	48 83 c4 20          	add    $0x20,%rsp
   1800052cf:	5d                   	pop    %rbp
   1800052d0:	c3                   	retq   
   1800052d1:	cc                   	int3   
   1800052d2:	cc                   	int3   
   1800052d3:	cc                   	int3   
   1800052d4:	cc                   	int3   
   1800052d5:	cc                   	int3   
   1800052d6:	cc                   	int3   
   1800052d7:	cc                   	int3   
   1800052d8:	cc                   	int3   
   1800052d9:	cc                   	int3   
   1800052da:	cc                   	int3   
   1800052db:	cc                   	int3   
   1800052dc:	cc                   	int3   
   1800052dd:	cc                   	int3   
   1800052de:	40 55                	rex push %rbp
   1800052e0:	48 83 ec 20          	sub    $0x20,%rsp
   1800052e4:	48 8b ea             	mov    %rdx,%rbp
   1800052e7:	48 89 8d 18 01 00 00 	mov    %rcx,0x118(%rbp)
   1800052ee:	48 8b 01             	mov    (%rcx),%rax
   1800052f1:	8b 10                	mov    (%rax),%edx
   1800052f3:	89 95 b8 00 00 00    	mov    %edx,0xb8(%rbp)
   1800052f9:	48 89 8d a0 00 00 00 	mov    %rcx,0xa0(%rbp)
   180005300:	89 55 40             	mov    %edx,0x40(%rbp)
   180005303:	8b 45 40             	mov    0x40(%rbp),%eax
   180005306:	3d 63 73 6d e0       	cmp    $0xe06d7363,%eax
   18000530b:	75 14                	jne    0x180005321
   18000530d:	48 8b 95 a0 00 00 00 	mov    0xa0(%rbp),%rdx
   180005314:	8b 4d 40             	mov    0x40(%rbp),%ecx
   180005317:	e8 b2 fd ff ff       	callq  0x1800050ce
   18000531c:	89 45 4c             	mov    %eax,0x4c(%rbp)
   18000531f:	eb 07                	jmp    0x180005328
   180005321:	c7 45 4c 00 00 00 00 	movl   $0x0,0x4c(%rbp)
   180005328:	8b 45 4c             	mov    0x4c(%rbp),%eax
   18000532b:	48 83 c4 20          	add    $0x20,%rsp
   18000532f:	5d                   	pop    %rbp
   180005330:	c3                   	retq   
   180005331:	cc                   	int3   
   180005332:	cc                   	int3   
   180005333:	cc                   	int3   
   180005334:	cc                   	int3   
   180005335:	cc                   	int3   
   180005336:	cc                   	int3   
   180005337:	cc                   	int3   
   180005338:	cc                   	int3   
   180005339:	cc                   	int3   
   18000533a:	cc                   	int3   
   18000533b:	cc                   	int3   
   18000533c:	cc                   	int3   
   18000533d:	cc                   	int3   
   18000533e:	40 55                	rex push %rbp
   180005340:	48 83 ec 20          	sub    $0x20,%rsp
   180005344:	48 8b ea             	mov    %rdx,%rbp
   180005347:	48 89 8d 28 01 00 00 	mov    %rcx,0x128(%rbp)
   18000534e:	48 8b 01             	mov    (%rcx),%rax
   180005351:	8b 10                	mov    (%rax),%edx
   180005353:	89 95 e8 00 00 00    	mov    %edx,0xe8(%rbp)
   180005359:	48 89 8d b0 00 00 00 	mov    %rcx,0xb0(%rbp)
   180005360:	89 55 58             	mov    %edx,0x58(%rbp)
   180005363:	8b 45 58             	mov    0x58(%rbp),%eax
   180005366:	3d 63 73 6d e0       	cmp    $0xe06d7363,%eax
   18000536b:	75 14                	jne    0x180005381
   18000536d:	48 8b 95 b0 00 00 00 	mov    0xb0(%rbp),%rdx
   180005374:	8b 4d 58             	mov    0x58(%rbp),%ecx
   180005377:	e8 52 fd ff ff       	callq  0x1800050ce
   18000537c:	89 45 68             	mov    %eax,0x68(%rbp)
   18000537f:	eb 07                	jmp    0x180005388
   180005381:	c7 45 68 00 00 00 00 	movl   $0x0,0x68(%rbp)
   180005388:	8b 45 68             	mov    0x68(%rbp),%eax
   18000538b:	48 83 c4 20          	add    $0x20,%rsp
   18000538f:	5d                   	pop    %rbp
   180005390:	c3                   	retq   
   180005391:	cc                   	int3   
   180005392:	cc                   	int3   
   180005393:	cc                   	int3   
   180005394:	cc                   	int3   
   180005395:	cc                   	int3   
   180005396:	cc                   	int3   
   180005397:	cc                   	int3   
   180005398:	cc                   	int3   
   180005399:	cc                   	int3   
   18000539a:	cc                   	int3   
   18000539b:	cc                   	int3   
   18000539c:	cc                   	int3   
   18000539d:	cc                   	int3   
   18000539e:	40 55                	rex push %rbp
   1800053a0:	48 83 ec 20          	sub    $0x20,%rsp
   1800053a4:	48 8b ea             	mov    %rdx,%rbp
   1800053a7:	48 89 8d 38 01 00 00 	mov    %rcx,0x138(%rbp)
   1800053ae:	48 8b 01             	mov    (%rcx),%rax
   1800053b1:	8b 10                	mov    (%rax),%edx
   1800053b3:	89 95 c8 00 00 00    	mov    %edx,0xc8(%rbp)
   1800053b9:	48 89 8d c0 00 00 00 	mov    %rcx,0xc0(%rbp)
   1800053c0:	89 55 78             	mov    %edx,0x78(%rbp)
   1800053c3:	8b 45 78             	mov    0x78(%rbp),%eax
   1800053c6:	3d 63 73 6d e0       	cmp    $0xe06d7363,%eax
   1800053cb:	75 17                	jne    0x1800053e4
   1800053cd:	48 8b 95 c0 00 00 00 	mov    0xc0(%rbp),%rdx
   1800053d4:	8b 4d 78             	mov    0x78(%rbp),%ecx
   1800053d7:	e8 f2 fc ff ff       	callq  0x1800050ce
   1800053dc:	89 85 88 00 00 00    	mov    %eax,0x88(%rbp)
   1800053e2:	eb 0a                	jmp    0x1800053ee
   1800053e4:	c7 85 88 00 00 00 00 	movl   $0x0,0x88(%rbp)
   1800053eb:	00 00 00 
   1800053ee:	8b 85 88 00 00 00    	mov    0x88(%rbp),%eax
   1800053f4:	48 83 c4 20          	add    $0x20,%rsp
   1800053f8:	5d                   	pop    %rbp
   1800053f9:	c3                   	retq   
   1800053fa:	cc                   	int3   
   1800053fb:	cc                   	int3   
   1800053fc:	cc                   	int3   
   1800053fd:	cc                   	int3   
   1800053fe:	40 55                	rex push %rbp
   180005400:	48 83 ec 20          	sub    $0x20,%rsp
   180005404:	48 8b ea             	mov    %rdx,%rbp
   180005407:	c7 05 0f 1c 00 00 ff 	movl   $0xffffffff,0x1c0f(%rip)        # 0x180007020
   18000540e:	ff ff ff 
   180005411:	48 83 c4 20          	add    $0x20,%rsp
   180005415:	5d                   	pop    %rbp
   180005416:	c3                   	retq   
   180005417:	40 55                	rex push %rbp
   180005419:	48 83 ec 20          	sub    $0x20,%rsp
   18000541d:	48 8b ea             	mov    %rdx,%rbp
   180005420:	48 8b 01             	mov    (%rcx),%rax
   180005423:	33 c9                	xor    %ecx,%ecx
   180005425:	81 38 05 00 00 c0    	cmpl   $0xc0000005,(%rax)
   18000542b:	0f 94 c1             	sete   %cl
   18000542e:	8b c1                	mov    %ecx,%eax
   180005430:	8b c1                	mov    %ecx,%eax
   180005432:	48 83 c4 20          	add    $0x20,%rsp
   180005436:	5d                   	pop    %rbp
   180005437:	c3                   	retq   
