
2c9c3ddd4d93e687eb095444cef7668b21636b364bff55de953bdd1df40071da:     file format pei-i386


Disassembly of section .text:

10001000 <.text>:
10001000:	3b 0d 04 50 00 10    	cmp    0x10005004,%ecx
10001006:	75 03                	jne    0x1000100b
10001008:	c2 00 00             	ret    $0x0
1000100b:	e9 61 07 00 00       	jmp    0x10001771
10001010:	51                   	push   %ecx
10001011:	8d 4c 24 04          	lea    0x4(%esp),%ecx
10001015:	2b c8                	sub    %eax,%ecx
10001017:	1b c0                	sbb    %eax,%eax
10001019:	f7 d0                	not    %eax
1000101b:	23 c8                	and    %eax,%ecx
1000101d:	8b c4                	mov    %esp,%eax
1000101f:	25 00 f0 ff ff       	and    $0xfffff000,%eax
10001024:	3b c8                	cmp    %eax,%ecx
10001026:	72 0a                	jb     0x10001032
10001028:	8b c1                	mov    %ecx,%eax
1000102a:	59                   	pop    %ecx
1000102b:	94                   	xchg   %eax,%esp
1000102c:	8b 00                	mov    (%eax),%eax
1000102e:	89 04 24             	mov    %eax,(%esp)
10001031:	c3                   	ret    
10001032:	2d 00 10 00 00       	sub    $0x1000,%eax
10001037:	85 00                	test   %eax,(%eax)
10001039:	eb e9                	jmp    0x10001024
1000103b:	cc                   	int3   
1000103c:	53                   	push   %ebx
1000103d:	56                   	push   %esi
1000103e:	57                   	push   %edi
1000103f:	8b 54 24 10          	mov    0x10(%esp),%edx
10001043:	8b 44 24 14          	mov    0x14(%esp),%eax
10001047:	8b 4c 24 18          	mov    0x18(%esp),%ecx
1000104b:	55                   	push   %ebp
1000104c:	52                   	push   %edx
1000104d:	50                   	push   %eax
1000104e:	51                   	push   %ecx
1000104f:	51                   	push   %ecx
10001050:	68 cc 10 00 10       	push   $0x100010cc
10001055:	64 ff 35 00 00 00 00 	pushl  %fs:0x0
1000105c:	a1 04 50 00 10       	mov    0x10005004,%eax
10001061:	33 c4                	xor    %esp,%eax
10001063:	89 44 24 08          	mov    %eax,0x8(%esp)
10001067:	64 89 25 00 00 00 00 	mov    %esp,%fs:0x0
1000106e:	8b 44 24 30          	mov    0x30(%esp),%eax
10001072:	8b 58 08             	mov    0x8(%eax),%ebx
10001075:	8b 4c 24 2c          	mov    0x2c(%esp),%ecx
10001079:	33 19                	xor    (%ecx),%ebx
1000107b:	8b 70 0c             	mov    0xc(%eax),%esi
1000107e:	83 fe fe             	cmp    $0xfffffffe,%esi
10001081:	74 3b                	je     0x100010be
10001083:	8b 54 24 34          	mov    0x34(%esp),%edx
10001087:	83 fa fe             	cmp    $0xfffffffe,%edx
1000108a:	74 04                	je     0x10001090
1000108c:	3b f2                	cmp    %edx,%esi
1000108e:	76 2e                	jbe    0x100010be
10001090:	8d 34 76             	lea    (%esi,%esi,2),%esi
10001093:	8d 5c b3 10          	lea    0x10(%ebx,%esi,4),%ebx
10001097:	8b 0b                	mov    (%ebx),%ecx
10001099:	89 48 0c             	mov    %ecx,0xc(%eax)
1000109c:	83 7b 04 00          	cmpl   $0x0,0x4(%ebx)
100010a0:	75 cc                	jne    0x1000106e
100010a2:	68 01 01 00 00       	push   $0x101
100010a7:	8b 43 08             	mov    0x8(%ebx),%eax
100010aa:	e8 52 08 00 00       	call   0x10001901
100010af:	b9 01 00 00 00       	mov    $0x1,%ecx
100010b4:	8b 43 08             	mov    0x8(%ebx),%eax
100010b7:	e8 64 08 00 00       	call   0x10001920
100010bc:	eb b0                	jmp    0x1000106e
100010be:	64 8f 05 00 00 00 00 	popl   %fs:0x0
100010c5:	83 c4 18             	add    $0x18,%esp
100010c8:	5f                   	pop    %edi
100010c9:	5e                   	pop    %esi
100010ca:	5b                   	pop    %ebx
100010cb:	c3                   	ret    
100010cc:	8b 4c 24 04          	mov    0x4(%esp),%ecx
100010d0:	f7 41 04 06 00 00 00 	testl  $0x6,0x4(%ecx)
100010d7:	b8 01 00 00 00       	mov    $0x1,%eax
100010dc:	74 33                	je     0x10001111
100010de:	8b 44 24 08          	mov    0x8(%esp),%eax
100010e2:	8b 48 08             	mov    0x8(%eax),%ecx
100010e5:	33 c8                	xor    %eax,%ecx
100010e7:	e8 14 ff ff ff       	call   0x10001000
100010ec:	55                   	push   %ebp
100010ed:	8b 68 18             	mov    0x18(%eax),%ebp
100010f0:	ff 70 0c             	pushl  0xc(%eax)
100010f3:	ff 70 10             	pushl  0x10(%eax)
100010f6:	ff 70 14             	pushl  0x14(%eax)
100010f9:	e8 3e ff ff ff       	call   0x1000103c
100010fe:	83 c4 0c             	add    $0xc,%esp
10001101:	5d                   	pop    %ebp
10001102:	8b 44 24 08          	mov    0x8(%esp),%eax
10001106:	8b 54 24 10          	mov    0x10(%esp),%edx
1000110a:	89 02                	mov    %eax,(%edx)
1000110c:	b8 03 00 00 00       	mov    $0x3,%eax
10001111:	c3                   	ret    
10001112:	55                   	push   %ebp
10001113:	8b 4c 24 08          	mov    0x8(%esp),%ecx
10001117:	8b 29                	mov    (%ecx),%ebp
10001119:	ff 71 1c             	pushl  0x1c(%ecx)
1000111c:	ff 71 18             	pushl  0x18(%ecx)
1000111f:	ff 71 28             	pushl  0x28(%ecx)
10001122:	e8 15 ff ff ff       	call   0x1000103c
10001127:	83 c4 0c             	add    $0xc,%esp
1000112a:	5d                   	pop    %ebp
1000112b:	c2 04 00             	ret    $0x4
1000112e:	55                   	push   %ebp
1000112f:	56                   	push   %esi
10001130:	57                   	push   %edi
10001131:	53                   	push   %ebx
10001132:	8b ea                	mov    %edx,%ebp
10001134:	33 c0                	xor    %eax,%eax
10001136:	33 db                	xor    %ebx,%ebx
10001138:	33 d2                	xor    %edx,%edx
1000113a:	33 f6                	xor    %esi,%esi
1000113c:	33 ff                	xor    %edi,%edi
1000113e:	ff d1                	call   *%ecx
10001140:	5b                   	pop    %ebx
10001141:	5f                   	pop    %edi
10001142:	5e                   	pop    %esi
10001143:	5d                   	pop    %ebp
10001144:	c3                   	ret    
10001145:	8b ea                	mov    %edx,%ebp
10001147:	8b f1                	mov    %ecx,%esi
10001149:	8b c1                	mov    %ecx,%eax
1000114b:	6a 01                	push   $0x1
1000114d:	e8 af 07 00 00       	call   0x10001901
10001152:	33 c0                	xor    %eax,%eax
10001154:	33 db                	xor    %ebx,%ebx
10001156:	33 c9                	xor    %ecx,%ecx
10001158:	33 d2                	xor    %edx,%edx
1000115a:	33 ff                	xor    %edi,%edi
1000115c:	ff e6                	jmp    *%esi
1000115e:	55                   	push   %ebp
1000115f:	8b ec                	mov    %esp,%ebp
10001161:	53                   	push   %ebx
10001162:	56                   	push   %esi
10001163:	57                   	push   %edi
10001164:	6a 00                	push   $0x0
10001166:	6a 00                	push   $0x0
10001168:	68 73 11 00 10       	push   $0x10001173
1000116d:	51                   	push   %ecx
1000116e:	e8 8f 26 00 00       	call   0x10003802
10001173:	5f                   	pop    %edi
10001174:	5e                   	pop    %esi
10001175:	5b                   	pop    %ebx
10001176:	5d                   	pop    %ebp
10001177:	c3                   	ret    
10001178:	55                   	push   %ebp
10001179:	8b 6c 24 08          	mov    0x8(%esp),%ebp
1000117d:	52                   	push   %edx
1000117e:	51                   	push   %ecx
1000117f:	ff 74 24 14          	pushl  0x14(%esp)
10001183:	e8 b4 fe ff ff       	call   0x1000103c
10001188:	83 c4 0c             	add    $0xc,%esp
1000118b:	5d                   	pop    %ebp
1000118c:	c2 08 00             	ret    $0x8
1000118f:	cc                   	int3   
10001190:	8b ff                	mov    %edi,%edi
10001192:	55                   	push   %ebp
10001193:	8b ec                	mov    %esp,%ebp
10001195:	83 ec 18             	sub    $0x18,%esp
10001198:	8b 45 08             	mov    0x8(%ebp),%eax
1000119b:	53                   	push   %ebx
1000119c:	8b 5d 14             	mov    0x14(%ebp),%ebx
1000119f:	56                   	push   %esi
100011a0:	8b 73 08             	mov    0x8(%ebx),%esi
100011a3:	33 30                	xor    (%eax),%esi
100011a5:	57                   	push   %edi
100011a6:	8b 06                	mov    (%esi),%eax
100011a8:	c6 45 ff 00          	movb   $0x0,-0x1(%ebp)
100011ac:	c7 45 f4 01 00 00 00 	movl   $0x1,-0xc(%ebp)
100011b3:	8d 7b 10             	lea    0x10(%ebx),%edi
100011b6:	83 f8 fe             	cmp    $0xfffffffe,%eax
100011b9:	74 0b                	je     0x100011c6
100011bb:	8b 4e 04             	mov    0x4(%esi),%ecx
100011be:	03 cf                	add    %edi,%ecx
100011c0:	33 0c 38             	xor    (%eax,%edi,1),%ecx
100011c3:	ff 55 0c             	call   *0xc(%ebp)
100011c6:	8b 4e 0c             	mov    0xc(%esi),%ecx
100011c9:	8b 56 08             	mov    0x8(%esi),%edx
100011cc:	03 cf                	add    %edi,%ecx
100011ce:	33 0c 3a             	xor    (%edx,%edi,1),%ecx
100011d1:	ff 55 0c             	call   *0xc(%ebp)
100011d4:	8b 45 10             	mov    0x10(%ebp),%eax
100011d7:	f6 40 04 66          	testb  $0x66,0x4(%eax)
100011db:	0f 85 12 01 00 00    	jne    0x100012f3
100011e1:	8d 4d e8             	lea    -0x18(%ebp),%ecx
100011e4:	89 4b fc             	mov    %ecx,-0x4(%ebx)
100011e7:	8b 5b 0c             	mov    0xc(%ebx),%ebx
100011ea:	89 45 e8             	mov    %eax,-0x18(%ebp)
100011ed:	8b 45 18             	mov    0x18(%ebp),%eax
100011f0:	89 45 ec             	mov    %eax,-0x14(%ebp)
100011f3:	83 fb fe             	cmp    $0xfffffffe,%ebx
100011f6:	74 60                	je     0x10001258
100011f8:	eb 06                	jmp    0x10001200
100011fa:	8d 9b 00 00 00 00    	lea    0x0(%ebx),%ebx
10001200:	8d 14 5b             	lea    (%ebx,%ebx,2),%edx
10001203:	8b 4c 96 14          	mov    0x14(%esi,%edx,4),%ecx
10001207:	8d 44 96 10          	lea    0x10(%esi,%edx,4),%eax
1000120b:	89 45 f0             	mov    %eax,-0x10(%ebp)
1000120e:	8b 00                	mov    (%eax),%eax
10001210:	89 45 f8             	mov    %eax,-0x8(%ebp)
10001213:	85 c9                	test   %ecx,%ecx
10001215:	74 14                	je     0x1000122b
10001217:	8b d7                	mov    %edi,%edx
10001219:	e8 10 ff ff ff       	call   0x1000112e
1000121e:	c6 45 ff 01          	movb   $0x1,-0x1(%ebp)
10001222:	85 c0                	test   %eax,%eax
10001224:	7c 3c                	jl     0x10001262
10001226:	7f 43                	jg     0x1000126b
10001228:	8b 45 f8             	mov    -0x8(%ebp),%eax
1000122b:	8b d8                	mov    %eax,%ebx
1000122d:	83 f8 fe             	cmp    $0xfffffffe,%eax
10001230:	75 ce                	jne    0x10001200
10001232:	80 7d ff 00          	cmpb   $0x0,-0x1(%ebp)
10001236:	74 20                	je     0x10001258
10001238:	8b 06                	mov    (%esi),%eax
1000123a:	83 f8 fe             	cmp    $0xfffffffe,%eax
1000123d:	74 0b                	je     0x1000124a
1000123f:	8b 4e 04             	mov    0x4(%esi),%ecx
10001242:	03 cf                	add    %edi,%ecx
10001244:	33 0c 38             	xor    (%eax,%edi,1),%ecx
10001247:	ff 55 0c             	call   *0xc(%ebp)
1000124a:	8b 4e 0c             	mov    0xc(%esi),%ecx
1000124d:	8b 56 08             	mov    0x8(%esi),%edx
10001250:	03 cf                	add    %edi,%ecx
10001252:	33 0c 3a             	xor    (%edx,%edi,1),%ecx
10001255:	ff 55 0c             	call   *0xc(%ebp)
10001258:	8b 45 f4             	mov    -0xc(%ebp),%eax
1000125b:	5f                   	pop    %edi
1000125c:	5e                   	pop    %esi
1000125d:	5b                   	pop    %ebx
1000125e:	8b e5                	mov    %ebp,%esp
10001260:	5d                   	pop    %ebp
10001261:	c3                   	ret    
10001262:	c7 45 f4 00 00 00 00 	movl   $0x0,-0xc(%ebp)
10001269:	eb cd                	jmp    0x10001238
1000126b:	8b 45 10             	mov    0x10(%ebp),%eax
1000126e:	81 38 63 73 6d e0    	cmpl   $0xe06d7363,(%eax)
10001274:	75 29                	jne    0x1000129f
10001276:	83 3d 48 5d 00 10 00 	cmpl   $0x0,0x10005d48
1000127d:	74 20                	je     0x1000129f
1000127f:	68 48 5d 00 10       	push   $0x10005d48
10001284:	e8 2b 07 00 00       	call   0x100019b4
10001289:	83 c4 04             	add    $0x4,%esp
1000128c:	85 c0                	test   %eax,%eax
1000128e:	74 0f                	je     0x1000129f
10001290:	8b 4d 10             	mov    0x10(%ebp),%ecx
10001293:	6a 01                	push   $0x1
10001295:	51                   	push   %ecx
10001296:	ff 15 48 5d 00 10    	call   *0x10005d48
1000129c:	83 c4 08             	add    $0x8,%esp
1000129f:	8b 4d 14             	mov    0x14(%ebp),%ecx
100012a2:	e8 b7 fe ff ff       	call   0x1000115e
100012a7:	8b 45 14             	mov    0x14(%ebp),%eax
100012aa:	39 58 0c             	cmp    %ebx,0xc(%eax)
100012ad:	74 11                	je     0x100012c0
100012af:	8b 55 08             	mov    0x8(%ebp),%edx
100012b2:	52                   	push   %edx
100012b3:	57                   	push   %edi
100012b4:	8b d3                	mov    %ebx,%edx
100012b6:	8b c8                	mov    %eax,%ecx
100012b8:	e8 bb fe ff ff       	call   0x10001178
100012bd:	8b 45 14             	mov    0x14(%ebp),%eax
100012c0:	8b 4d f8             	mov    -0x8(%ebp),%ecx
100012c3:	89 48 0c             	mov    %ecx,0xc(%eax)
100012c6:	8b 06                	mov    (%esi),%eax
100012c8:	83 f8 fe             	cmp    $0xfffffffe,%eax
100012cb:	74 0b                	je     0x100012d8
100012cd:	8b 4e 04             	mov    0x4(%esi),%ecx
100012d0:	03 cf                	add    %edi,%ecx
100012d2:	33 0c 38             	xor    (%eax,%edi,1),%ecx
100012d5:	ff 55 0c             	call   *0xc(%ebp)
100012d8:	8b 4e 0c             	mov    0xc(%esi),%ecx
100012db:	8b 56 08             	mov    0x8(%esi),%edx
100012de:	03 cf                	add    %edi,%ecx
100012e0:	33 0c 3a             	xor    (%edx,%edi,1),%ecx
100012e3:	ff 55 0c             	call   *0xc(%ebp)
100012e6:	8b 45 f0             	mov    -0x10(%ebp),%eax
100012e9:	8b 48 08             	mov    0x8(%eax),%ecx
100012ec:	8b d7                	mov    %edi,%edx
100012ee:	e8 52 fe ff ff       	call   0x10001145
100012f3:	ba fe ff ff ff       	mov    $0xfffffffe,%edx
100012f8:	39 53 0c             	cmp    %edx,0xc(%ebx)
100012fb:	0f 84 57 ff ff ff    	je     0x10001258
10001301:	8b 4d 08             	mov    0x8(%ebp),%ecx
10001304:	51                   	push   %ecx
10001305:	57                   	push   %edi
10001306:	8b cb                	mov    %ebx,%ecx
10001308:	e8 6b fe ff ff       	call   0x10001178
1000130d:	e9 26 ff ff ff       	jmp    0x10001238
10001312:	8b ff                	mov    %edi,%edi
10001314:	55                   	push   %ebp
10001315:	8b ec                	mov    %esp,%ebp
10001317:	b8 63 73 6d e0       	mov    $0xe06d7363,%eax
1000131c:	39 45 08             	cmp    %eax,0x8(%ebp)
1000131f:	75 0d                	jne    0x1000132e
10001321:	ff 75 0c             	pushl  0xc(%ebp)
10001324:	50                   	push   %eax
10001325:	e8 c0 24 00 00       	call   0x100037ea
1000132a:	59                   	pop    %ecx
1000132b:	59                   	pop    %ecx
1000132c:	5d                   	pop    %ebp
1000132d:	c3                   	ret    
1000132e:	33 c0                	xor    %eax,%eax
10001330:	5d                   	pop    %ebp
10001331:	c3                   	ret    
10001332:	8b ff                	mov    %edi,%edi
10001334:	55                   	push   %ebp
10001335:	8b ec                	mov    %esp,%ebp
10001337:	56                   	push   %esi
10001338:	8b 75 08             	mov    0x8(%ebp),%esi
1000133b:	33 c0                	xor    %eax,%eax
1000133d:	eb 0f                	jmp    0x1000134e
1000133f:	85 c0                	test   %eax,%eax
10001341:	75 10                	jne    0x10001353
10001343:	8b 0e                	mov    (%esi),%ecx
10001345:	85 c9                	test   %ecx,%ecx
10001347:	74 02                	je     0x1000134b
10001349:	ff d1                	call   *%ecx
1000134b:	83 c6 04             	add    $0x4,%esi
1000134e:	3b 75 0c             	cmp    0xc(%ebp),%esi
10001351:	72 ec                	jb     0x1000133f
10001353:	5e                   	pop    %esi
10001354:	5d                   	pop    %ebp
10001355:	c3                   	ret    
10001356:	68 80 00 00 00       	push   $0x80
1000135b:	ff 15 38 40 00 10    	call   *0x10004038
10001361:	59                   	pop    %ecx
10001362:	a3 44 5d 00 10       	mov    %eax,0x10005d44
10001367:	a3 40 5d 00 10       	mov    %eax,0x10005d40
1000136c:	85 c0                	test   %eax,%eax
1000136e:	75 02                	jne    0x10001372
10001370:	40                   	inc    %eax
10001371:	c3                   	ret    
10001372:	83 20 00             	andl   $0x0,(%eax)
10001375:	33 c0                	xor    %eax,%eax
10001377:	c3                   	ret    
10001378:	8b ff                	mov    %edi,%edi
1000137a:	55                   	push   %ebp
1000137b:	8b ec                	mov    %esp,%ebp
1000137d:	53                   	push   %ebx
1000137e:	33 c0                	xor    %eax,%eax
10001380:	56                   	push   %esi
10001381:	57                   	push   %edi
10001382:	39 45 0c             	cmp    %eax,0xc(%ebp)
10001385:	75 26                	jne    0x100013ad
10001387:	39 05 b8 58 00 10    	cmp    %eax,0x100058b8
1000138d:	7e 17                	jle    0x100013a6
1000138f:	ff 0d b8 58 00 10    	decl   0x100058b8
10001395:	8b 3d 24 40 00 10    	mov    0x10004024,%edi
1000139b:	50                   	push   %eax
1000139c:	be 34 5d 00 10       	mov    $0x10005d34,%esi
100013a1:	e9 e5 00 00 00       	jmp    0x1000148b
100013a6:	33 c0                	xor    %eax,%eax
100013a8:	e9 4b 01 00 00       	jmp    0x100014f8
100013ad:	83 7d 0c 01          	cmpl   $0x1,0xc(%ebp)
100013b1:	0f 85 3e 01 00 00    	jne    0x100014f5
100013b7:	64 8b 0d 18 00 00 00 	mov    %fs:0x18,%ecx
100013be:	8b 59 04             	mov    0x4(%ecx),%ebx
100013c1:	8b 3d 24 40 00 10    	mov    0x10004024,%edi
100013c7:	89 45 0c             	mov    %eax,0xc(%ebp)
100013ca:	50                   	push   %eax
100013cb:	be 34 5d 00 10       	mov    $0x10005d34,%esi
100013d0:	eb 11                	jmp    0x100013e3
100013d2:	3b c3                	cmp    %ebx,%eax
100013d4:	74 17                	je     0x100013ed
100013d6:	68 e8 03 00 00       	push   $0x3e8
100013db:	ff 15 96 54 00 10    	call   *0x10005496
100013e1:	6a 00                	push   $0x0
100013e3:	53                   	push   %ebx
100013e4:	56                   	push   %esi
100013e5:	ff d7                	call   *%edi
100013e7:	85 c0                	test   %eax,%eax
100013e9:	75 e7                	jne    0x100013d2
100013eb:	eb 07                	jmp    0x100013f4
100013ed:	c7 45 0c 01 00 00 00 	movl   $0x1,0xc(%ebp)
100013f4:	a1 30 5d 00 10       	mov    0x10005d30,%eax
100013f9:	6a 02                	push   $0x2
100013fb:	5f                   	pop    %edi
100013fc:	85 c0                	test   %eax,%eax
100013fe:	74 09                	je     0x10001409
10001400:	6a 1f                	push   $0x1f
10001402:	e8 ef 23 00 00       	call   0x100037f6
10001407:	eb 39                	jmp    0x10001442
10001409:	68 60 40 00 10       	push   $0x10004060
1000140e:	68 58 40 00 10       	push   $0x10004058
10001413:	c7 05 30 5d 00 10 01 	movl   $0x1,0x10005d30
1000141a:	00 00 00 
1000141d:	e8 10 ff ff ff       	call   0x10001332
10001422:	59                   	pop    %ecx
10001423:	59                   	pop    %ecx
10001424:	85 c0                	test   %eax,%eax
10001426:	0f 85 7a ff ff ff    	jne    0x100013a6
1000142c:	68 54 40 00 10       	push   $0x10004054
10001431:	68 50 40 00 10       	push   $0x10004050
10001436:	e8 b5 23 00 00       	call   0x100037f0
1000143b:	59                   	pop    %ecx
1000143c:	89 3d 30 5d 00 10    	mov    %edi,0x10005d30
10001442:	33 db                	xor    %ebx,%ebx
10001444:	59                   	pop    %ecx
10001445:	39 5d 0c             	cmp    %ebx,0xc(%ebp)
10001448:	75 08                	jne    0x10001452
1000144a:	53                   	push   %ebx
1000144b:	56                   	push   %esi
1000144c:	ff 15 10 40 00 10    	call   *0x10004010
10001452:	39 1d 3c 5d 00 10    	cmp    %ebx,0x10005d3c
10001458:	74 1c                	je     0x10001476
1000145a:	68 3c 5d 00 10       	push   $0x10005d3c
1000145f:	e8 50 05 00 00       	call   0x100019b4
10001464:	59                   	pop    %ecx
10001465:	85 c0                	test   %eax,%eax
10001467:	74 0d                	je     0x10001476
10001469:	ff 75 10             	pushl  0x10(%ebp)
1000146c:	57                   	push   %edi
1000146d:	ff 75 08             	pushl  0x8(%ebp)
10001470:	ff 15 3c 5d 00 10    	call   *0x10005d3c
10001476:	ff 05 b8 58 00 10    	incl   0x100058b8
1000147c:	eb 77                	jmp    0x100014f5
1000147e:	68 e8 03 00 00       	push   $0x3e8
10001483:	ff 15 96 54 00 10    	call   *0x10005496
10001489:	6a 00                	push   $0x0
1000148b:	6a 01                	push   $0x1
1000148d:	56                   	push   %esi
1000148e:	ff d7                	call   *%edi
10001490:	85 c0                	test   %eax,%eax
10001492:	75 ea                	jne    0x1000147e
10001494:	a1 30 5d 00 10       	mov    0x10005d30,%eax
10001499:	83 f8 02             	cmp    $0x2,%eax
1000149c:	74 0a                	je     0x100014a8
1000149e:	6a 1f                	push   $0x1f
100014a0:	e8 51 23 00 00       	call   0x100037f6
100014a5:	59                   	pop    %ecx
100014a6:	eb 4d                	jmp    0x100014f5
100014a8:	8b 1d 44 5d 00 10    	mov    0x10005d44,%ebx
100014ae:	85 db                	test   %ebx,%ebx
100014b0:	74 30                	je     0x100014e2
100014b2:	8b 3d 40 5d 00 10    	mov    0x10005d40,%edi
100014b8:	83 c7 fc             	add    $0xfffffffc,%edi
100014bb:	eb 0b                	jmp    0x100014c8
100014bd:	8b 07                	mov    (%edi),%eax
100014bf:	85 c0                	test   %eax,%eax
100014c1:	74 02                	je     0x100014c5
100014c3:	ff d0                	call   *%eax
100014c5:	83 ef 04             	sub    $0x4,%edi
100014c8:	3b fb                	cmp    %ebx,%edi
100014ca:	73 f1                	jae    0x100014bd
100014cc:	53                   	push   %ebx
100014cd:	ff 15 34 40 00 10    	call   *0x10004034
100014d3:	83 25 40 5d 00 10 00 	andl   $0x0,0x10005d40
100014da:	83 25 44 5d 00 10 00 	andl   $0x0,0x10005d44
100014e1:	59                   	pop    %ecx
100014e2:	6a 00                	push   $0x0
100014e4:	56                   	push   %esi
100014e5:	c7 05 30 5d 00 10 00 	movl   $0x0,0x10005d30
100014ec:	00 00 00 
100014ef:	ff 15 10 40 00 10    	call   *0x10004010
100014f5:	33 c0                	xor    %eax,%eax
100014f7:	40                   	inc    %eax
100014f8:	5f                   	pop    %edi
100014f9:	5e                   	pop    %esi
100014fa:	5b                   	pop    %ebx
100014fb:	5d                   	pop    %ebp
100014fc:	c2 0c 00             	ret    $0xc
100014ff:	6a 2c                	push   $0x2c
10001501:	68 b0 43 00 10       	push   $0x100043b0
10001506:	e8 49 05 00 00       	call   0x10001a54
1000150b:	8b 4d 0c             	mov    0xc(%ebp),%ecx
1000150e:	33 d2                	xor    %edx,%edx
10001510:	42                   	inc    %edx
10001511:	89 55 e4             	mov    %edx,-0x1c(%ebp)
10001514:	33 f6                	xor    %esi,%esi
10001516:	89 75 fc             	mov    %esi,-0x4(%ebp)
10001519:	89 0d 20 50 00 10    	mov    %ecx,0x10005020
1000151f:	3b ce                	cmp    %esi,%ecx
10001521:	75 10                	jne    0x10001533
10001523:	39 35 b8 58 00 10    	cmp    %esi,0x100058b8
10001529:	75 08                	jne    0x10001533
1000152b:	89 75 e4             	mov    %esi,-0x1c(%ebp)
1000152e:	e9 06 02 00 00       	jmp    0x10001739
10001533:	3b ca                	cmp    %edx,%ecx
10001535:	74 09                	je     0x10001540
10001537:	83 f9 02             	cmp    $0x2,%ecx
1000153a:	0f 85 8d 00 00 00    	jne    0x100015cd
10001540:	a1 38 5d 00 10       	mov    0x10005d38,%eax
10001545:	3b c6                	cmp    %esi,%eax
10001547:	74 36                	je     0x1000157f
10001549:	89 55 fc             	mov    %edx,-0x4(%ebp)
1000154c:	89 15 bc 58 00 10    	mov    %edx,0x100058bc
10001552:	ff 75 10             	pushl  0x10(%ebp)
10001555:	51                   	push   %ecx
10001556:	ff 75 08             	pushl  0x8(%ebp)
10001559:	ff d0                	call   *%eax
1000155b:	89 45 e4             	mov    %eax,-0x1c(%ebp)
1000155e:	eb 1c                	jmp    0x1000157c
10001560:	8b 45 ec             	mov    -0x14(%ebp),%eax
10001563:	8b 08                	mov    (%eax),%ecx
10001565:	8b 09                	mov    (%ecx),%ecx
10001567:	89 4d e0             	mov    %ecx,-0x20(%ebp)
1000156a:	50                   	push   %eax
1000156b:	51                   	push   %ecx
1000156c:	e8 a1 fd ff ff       	call   0x10001312
10001571:	59                   	pop    %ecx
10001572:	59                   	pop    %ecx
10001573:	c3                   	ret    
10001574:	8b 65 e8             	mov    -0x18(%ebp),%esp
10001577:	33 f6                	xor    %esi,%esi
10001579:	89 75 e4             	mov    %esi,-0x1c(%ebp)
1000157c:	89 75 fc             	mov    %esi,-0x4(%ebp)
1000157f:	39 75 e4             	cmp    %esi,-0x1c(%ebp)
10001582:	0f 84 b1 01 00 00    	je     0x10001739
10001588:	c7 45 fc 02 00 00 00 	movl   $0x2,-0x4(%ebp)
1000158f:	ff 75 10             	pushl  0x10(%ebp)
10001592:	ff 75 0c             	pushl  0xc(%ebp)
10001595:	ff 75 08             	pushl  0x8(%ebp)
10001598:	e8 db fd ff ff       	call   0x10001378
1000159d:	89 45 e4             	mov    %eax,-0x1c(%ebp)
100015a0:	eb 1c                	jmp    0x100015be
100015a2:	8b 45 ec             	mov    -0x14(%ebp),%eax
100015a5:	8b 08                	mov    (%eax),%ecx
100015a7:	8b 09                	mov    (%ecx),%ecx
100015a9:	89 4d dc             	mov    %ecx,-0x24(%ebp)
100015ac:	50                   	push   %eax
100015ad:	51                   	push   %ecx
100015ae:	e8 5f fd ff ff       	call   0x10001312
100015b3:	59                   	pop    %ecx
100015b4:	59                   	pop    %ecx
100015b5:	c3                   	ret    
100015b6:	8b 65 e8             	mov    -0x18(%ebp),%esp
100015b9:	33 f6                	xor    %esi,%esi
100015bb:	89 75 e4             	mov    %esi,-0x1c(%ebp)
100015be:	89 75 fc             	mov    %esi,-0x4(%ebp)
100015c1:	39 75 e4             	cmp    %esi,-0x1c(%ebp)
100015c4:	0f 84 6f 01 00 00    	je     0x10001739
100015ca:	8b 4d 0c             	mov    0xc(%ebp),%ecx
100015cd:	c7 45 fc 03 00 00 00 	movl   $0x3,-0x4(%ebp)
100015d4:	ff 75 10             	pushl  0x10(%ebp)
100015d7:	51                   	push   %ecx
100015d8:	ff 75 08             	pushl  0x8(%ebp)
100015db:	e8 22 17 00 00       	call   0x10002d02
100015e0:	89 45 e4             	mov    %eax,-0x1c(%ebp)
100015e3:	eb 1c                	jmp    0x10001601
100015e5:	8b 45 ec             	mov    -0x14(%ebp),%eax
100015e8:	8b 08                	mov    (%eax),%ecx
100015ea:	8b 09                	mov    (%ecx),%ecx
100015ec:	89 4d d8             	mov    %ecx,-0x28(%ebp)
100015ef:	50                   	push   %eax
100015f0:	51                   	push   %ecx
100015f1:	e8 1c fd ff ff       	call   0x10001312
100015f6:	59                   	pop    %ecx
100015f7:	59                   	pop    %ecx
100015f8:	c3                   	ret    
100015f9:	8b 65 e8             	mov    -0x18(%ebp),%esp
100015fc:	33 f6                	xor    %esi,%esi
100015fe:	89 75 e4             	mov    %esi,-0x1c(%ebp)
10001601:	89 75 fc             	mov    %esi,-0x4(%ebp)
10001604:	83 7d 0c 01          	cmpl   $0x1,0xc(%ebp)
10001608:	0f 85 9c 00 00 00    	jne    0x100016aa
1000160e:	39 75 e4             	cmp    %esi,-0x1c(%ebp)
10001611:	0f 85 93 00 00 00    	jne    0x100016aa
10001617:	c7 45 fc 04 00 00 00 	movl   $0x4,-0x4(%ebp)
1000161e:	56                   	push   %esi
1000161f:	56                   	push   %esi
10001620:	ff 75 08             	pushl  0x8(%ebp)
10001623:	e8 da 16 00 00       	call   0x10002d02
10001628:	eb 19                	jmp    0x10001643
1000162a:	8b 45 ec             	mov    -0x14(%ebp),%eax
1000162d:	8b 08                	mov    (%eax),%ecx
1000162f:	8b 09                	mov    (%ecx),%ecx
10001631:	89 4d d4             	mov    %ecx,-0x2c(%ebp)
10001634:	50                   	push   %eax
10001635:	51                   	push   %ecx
10001636:	e8 d7 fc ff ff       	call   0x10001312
1000163b:	59                   	pop    %ecx
1000163c:	59                   	pop    %ecx
1000163d:	c3                   	ret    
1000163e:	8b 65 e8             	mov    -0x18(%ebp),%esp
10001641:	33 f6                	xor    %esi,%esi
10001643:	89 75 fc             	mov    %esi,-0x4(%ebp)
10001646:	c7 45 fc 05 00 00 00 	movl   $0x5,-0x4(%ebp)
1000164d:	56                   	push   %esi
1000164e:	56                   	push   %esi
1000164f:	ff 75 08             	pushl  0x8(%ebp)
10001652:	e8 21 fd ff ff       	call   0x10001378
10001657:	eb 19                	jmp    0x10001672
10001659:	8b 45 ec             	mov    -0x14(%ebp),%eax
1000165c:	8b 08                	mov    (%eax),%ecx
1000165e:	8b 09                	mov    (%ecx),%ecx
10001660:	89 4d d0             	mov    %ecx,-0x30(%ebp)
10001663:	50                   	push   %eax
10001664:	51                   	push   %ecx
10001665:	e8 a8 fc ff ff       	call   0x10001312
1000166a:	59                   	pop    %ecx
1000166b:	59                   	pop    %ecx
1000166c:	c3                   	ret    
1000166d:	8b 65 e8             	mov    -0x18(%ebp),%esp
10001670:	33 f6                	xor    %esi,%esi
10001672:	89 75 fc             	mov    %esi,-0x4(%ebp)
10001675:	a1 38 5d 00 10       	mov    0x10005d38,%eax
1000167a:	3b c6                	cmp    %esi,%eax
1000167c:	74 2c                	je     0x100016aa
1000167e:	c7 45 fc 06 00 00 00 	movl   $0x6,-0x4(%ebp)
10001685:	56                   	push   %esi
10001686:	56                   	push   %esi
10001687:	ff 75 08             	pushl  0x8(%ebp)
1000168a:	ff d0                	call   *%eax
1000168c:	eb 19                	jmp    0x100016a7
1000168e:	8b 45 ec             	mov    -0x14(%ebp),%eax
10001691:	8b 08                	mov    (%eax),%ecx
10001693:	8b 09                	mov    (%ecx),%ecx
10001695:	89 4d cc             	mov    %ecx,-0x34(%ebp)
10001698:	50                   	push   %eax
10001699:	51                   	push   %ecx
1000169a:	e8 73 fc ff ff       	call   0x10001312
1000169f:	59                   	pop    %ecx
100016a0:	59                   	pop    %ecx
100016a1:	c3                   	ret    
100016a2:	8b 65 e8             	mov    -0x18(%ebp),%esp
100016a5:	33 f6                	xor    %esi,%esi
100016a7:	89 75 fc             	mov    %esi,-0x4(%ebp)
100016aa:	39 75 0c             	cmp    %esi,0xc(%ebp)
100016ad:	74 0a                	je     0x100016b9
100016af:	83 7d 0c 03          	cmpl   $0x3,0xc(%ebp)
100016b3:	0f 85 80 00 00 00    	jne    0x10001739
100016b9:	c7 45 fc 07 00 00 00 	movl   $0x7,-0x4(%ebp)
100016c0:	ff 75 10             	pushl  0x10(%ebp)
100016c3:	ff 75 0c             	pushl  0xc(%ebp)
100016c6:	ff 75 08             	pushl  0x8(%ebp)
100016c9:	e8 aa fc ff ff       	call   0x10001378
100016ce:	89 45 e4             	mov    %eax,-0x1c(%ebp)
100016d1:	eb 1c                	jmp    0x100016ef
100016d3:	8b 45 ec             	mov    -0x14(%ebp),%eax
100016d6:	8b 08                	mov    (%eax),%ecx
100016d8:	8b 09                	mov    (%ecx),%ecx
100016da:	89 4d c8             	mov    %ecx,-0x38(%ebp)
100016dd:	50                   	push   %eax
100016de:	51                   	push   %ecx
100016df:	e8 2e fc ff ff       	call   0x10001312
100016e4:	59                   	pop    %ecx
100016e5:	59                   	pop    %ecx
100016e6:	c3                   	ret    
100016e7:	8b 65 e8             	mov    -0x18(%ebp),%esp
100016ea:	33 f6                	xor    %esi,%esi
100016ec:	89 75 e4             	mov    %esi,-0x1c(%ebp)
100016ef:	89 75 fc             	mov    %esi,-0x4(%ebp)
100016f2:	a1 38 5d 00 10       	mov    0x10005d38,%eax
100016f7:	3b c6                	cmp    %esi,%eax
100016f9:	74 3e                	je     0x10001739
100016fb:	39 35 bc 58 00 10    	cmp    %esi,0x100058bc
10001701:	74 36                	je     0x10001739
10001703:	c7 45 fc 08 00 00 00 	movl   $0x8,-0x4(%ebp)
1000170a:	ff 75 10             	pushl  0x10(%ebp)
1000170d:	ff 75 0c             	pushl  0xc(%ebp)
10001710:	ff 75 08             	pushl  0x8(%ebp)
10001713:	ff d0                	call   *%eax
10001715:	89 45 e4             	mov    %eax,-0x1c(%ebp)
10001718:	eb 1c                	jmp    0x10001736
1000171a:	8b 45 ec             	mov    -0x14(%ebp),%eax
1000171d:	8b 08                	mov    (%eax),%ecx
1000171f:	8b 09                	mov    (%ecx),%ecx
10001721:	89 4d c4             	mov    %ecx,-0x3c(%ebp)
10001724:	50                   	push   %eax
10001725:	51                   	push   %ecx
10001726:	e8 e7 fb ff ff       	call   0x10001312
1000172b:	59                   	pop    %ecx
1000172c:	59                   	pop    %ecx
1000172d:	c3                   	ret    
1000172e:	8b 65 e8             	mov    -0x18(%ebp),%esp
10001731:	33 f6                	xor    %esi,%esi
10001733:	89 75 e4             	mov    %esi,-0x1c(%ebp)
10001736:	89 75 fc             	mov    %esi,-0x4(%ebp)
10001739:	c7 45 fc fe ff ff ff 	movl   $0xfffffffe,-0x4(%ebp)
10001740:	e8 0b 00 00 00       	call   0x10001750
10001745:	8b 45 e4             	mov    -0x1c(%ebp),%eax
10001748:	e8 4c 03 00 00       	call   0x10001a99
1000174d:	c2 0c 00             	ret    $0xc
10001750:	c7 05 20 50 00 10 ff 	movl   $0xffffffff,0x10005020
10001757:	ff ff ff 
1000175a:	c3                   	ret    
1000175b:	8b ff                	mov    %edi,%edi
1000175d:	55                   	push   %ebp
1000175e:	8b ec                	mov    %esp,%ebp
10001760:	83 7d 0c 01          	cmpl   $0x1,0xc(%ebp)
10001764:	75 05                	jne    0x1000176b
10001766:	e8 67 03 00 00       	call   0x10001ad2
1000176b:	5d                   	pop    %ebp
1000176c:	e9 8e fd ff ff       	jmp    0x100014ff
10001771:	8b ff                	mov    %edi,%edi
10001773:	55                   	push   %ebp
10001774:	8b ec                	mov    %esp,%ebp
10001776:	81 ec 28 03 00 00    	sub    $0x328,%esp
1000177c:	a3 c0 59 00 10       	mov    %eax,0x100059c0
10001781:	89 0d bc 59 00 10    	mov    %ecx,0x100059bc
10001787:	89 15 b8 59 00 10    	mov    %edx,0x100059b8
1000178d:	89 1d b4 59 00 10    	mov    %ebx,0x100059b4
10001793:	89 35 b0 59 00 10    	mov    %esi,0x100059b0
10001799:	89 3d ac 59 00 10    	mov    %edi,0x100059ac
1000179f:	66 8c 15 d8 59 00 10 	data16 mov %ss,0x100059d8
100017a6:	66 8c 0d cc 59 00 10 	data16 mov %cs,0x100059cc
100017ad:	66 8c 1d a8 59 00 10 	data16 mov %ds,0x100059a8
100017b4:	66 8c 05 a4 59 00 10 	data16 mov %es,0x100059a4
100017bb:	66 8c 25 a0 59 00 10 	data16 mov %fs,0x100059a0
100017c2:	66 8c 2d 9c 59 00 10 	data16 mov %gs,0x1000599c
100017c9:	9c                   	pushf  
100017ca:	8f 05 d0 59 00 10    	popl   0x100059d0
100017d0:	8b 45 00             	mov    0x0(%ebp),%eax
100017d3:	a3 c4 59 00 10       	mov    %eax,0x100059c4
100017d8:	8b 45 04             	mov    0x4(%ebp),%eax
100017db:	a3 c8 59 00 10       	mov    %eax,0x100059c8
100017e0:	8d 45 08             	lea    0x8(%ebp),%eax
100017e3:	a3 d4 59 00 10       	mov    %eax,0x100059d4
100017e8:	8b 85 e0 fc ff ff    	mov    -0x320(%ebp),%eax
100017ee:	c7 05 10 59 00 10 01 	movl   $0x10001,0x10005910
100017f5:	00 01 00 
100017f8:	a1 c8 59 00 10       	mov    0x100059c8,%eax
100017fd:	a3 cc 58 00 10       	mov    %eax,0x100058cc
10001802:	c7 05 c0 58 00 10 09 	movl   $0xc0000409,0x100058c0
10001809:	04 00 c0 
1000180c:	c7 05 c4 58 00 10 01 	movl   $0x1,0x100058c4
10001813:	00 00 00 
10001816:	a1 04 50 00 10       	mov    0x10005004,%eax
1000181b:	89 85 d8 fc ff ff    	mov    %eax,-0x328(%ebp)
10001821:	a1 08 50 00 10       	mov    0x10005008,%eax
10001826:	89 85 dc fc ff ff    	mov    %eax,-0x324(%ebp)
1000182c:	6a 00                	push   $0x0
1000182e:	ff 15 3c 58 00 10    	call   *0x1000583c
10001834:	68 bc 40 00 10       	push   $0x100040bc
10001839:	ff 15 19 58 00 10    	call   *0x10005819
1000183f:	68 09 04 00 c0       	push   $0xc0000409
10001844:	ff 15 f2 57 00 10    	call   *0x100057f2
1000184a:	50                   	push   %eax
1000184b:	ff 15 d1 57 00 10    	call   *0x100057d1
10001851:	c9                   	leave  
10001852:	c3                   	ret    
10001853:	cc                   	int3   
10001854:	cc                   	int3   
10001855:	cc                   	int3   
10001856:	cc                   	int3   
10001857:	cc                   	int3   
10001858:	cc                   	int3   
10001859:	cc                   	int3   
1000185a:	cc                   	int3   
1000185b:	cc                   	int3   
1000185c:	cc                   	int3   
1000185d:	cc                   	int3   
1000185e:	cc                   	int3   
1000185f:	cc                   	int3   
10001860:	56                   	push   %esi
10001861:	8b 44 24 14          	mov    0x14(%esp),%eax
10001865:	0b c0                	or     %eax,%eax
10001867:	75 28                	jne    0x10001891
10001869:	8b 4c 24 10          	mov    0x10(%esp),%ecx
1000186d:	8b 44 24 0c          	mov    0xc(%esp),%eax
10001871:	33 d2                	xor    %edx,%edx
10001873:	f7 f1                	div    %ecx
10001875:	8b d8                	mov    %eax,%ebx
10001877:	8b 44 24 08          	mov    0x8(%esp),%eax
1000187b:	f7 f1                	div    %ecx
1000187d:	8b f0                	mov    %eax,%esi
1000187f:	8b c3                	mov    %ebx,%eax
10001881:	f7 64 24 10          	mull   0x10(%esp)
10001885:	8b c8                	mov    %eax,%ecx
10001887:	8b c6                	mov    %esi,%eax
10001889:	f7 64 24 10          	mull   0x10(%esp)
1000188d:	03 d1                	add    %ecx,%edx
1000188f:	eb 47                	jmp    0x100018d8
10001891:	8b c8                	mov    %eax,%ecx
10001893:	8b 5c 24 10          	mov    0x10(%esp),%ebx
10001897:	8b 54 24 0c          	mov    0xc(%esp),%edx
1000189b:	8b 44 24 08          	mov    0x8(%esp),%eax
1000189f:	d1 e9                	shr    %ecx
100018a1:	d1 db                	rcr    %ebx
100018a3:	d1 ea                	shr    %edx
100018a5:	d1 d8                	rcr    %eax
100018a7:	0b c9                	or     %ecx,%ecx
100018a9:	75 f4                	jne    0x1000189f
100018ab:	f7 f3                	div    %ebx
100018ad:	8b f0                	mov    %eax,%esi
100018af:	f7 64 24 14          	mull   0x14(%esp)
100018b3:	8b c8                	mov    %eax,%ecx
100018b5:	8b 44 24 10          	mov    0x10(%esp),%eax
100018b9:	f7 e6                	mul    %esi
100018bb:	03 d1                	add    %ecx,%edx
100018bd:	72 0e                	jb     0x100018cd
100018bf:	3b 54 24 0c          	cmp    0xc(%esp),%edx
100018c3:	77 08                	ja     0x100018cd
100018c5:	72 0f                	jb     0x100018d6
100018c7:	3b 44 24 08          	cmp    0x8(%esp),%eax
100018cb:	76 09                	jbe    0x100018d6
100018cd:	4e                   	dec    %esi
100018ce:	2b 44 24 10          	sub    0x10(%esp),%eax
100018d2:	1b 54 24 14          	sbb    0x14(%esp),%edx
100018d6:	33 db                	xor    %ebx,%ebx
100018d8:	2b 44 24 08          	sub    0x8(%esp),%eax
100018dc:	1b 54 24 0c          	sbb    0xc(%esp),%edx
100018e0:	f7 da                	neg    %edx
100018e2:	f7 d8                	neg    %eax
100018e4:	83 da 00             	sbb    $0x0,%edx
100018e7:	8b ca                	mov    %edx,%ecx
100018e9:	8b d3                	mov    %ebx,%edx
100018eb:	8b d9                	mov    %ecx,%ebx
100018ed:	8b c8                	mov    %eax,%ecx
100018ef:	8b c6                	mov    %esi,%eax
100018f1:	5e                   	pop    %esi
100018f2:	c2 10 00             	ret    $0x10
100018f5:	cc                   	int3   
100018f6:	cc                   	int3   
100018f7:	cc                   	int3   
100018f8:	53                   	push   %ebx
100018f9:	51                   	push   %ecx
100018fa:	bb 10 50 00 10       	mov    $0x10005010,%ebx
100018ff:	eb 0b                	jmp    0x1000190c
10001901:	53                   	push   %ebx
10001902:	51                   	push   %ecx
10001903:	bb 10 50 00 10       	mov    $0x10005010,%ebx
10001908:	8b 4c 24 0c          	mov    0xc(%esp),%ecx
1000190c:	89 4b 08             	mov    %ecx,0x8(%ebx)
1000190f:	89 43 04             	mov    %eax,0x4(%ebx)
10001912:	89 6b 0c             	mov    %ebp,0xc(%ebx)
10001915:	55                   	push   %ebp
10001916:	51                   	push   %ecx
10001917:	50                   	push   %eax
10001918:	58                   	pop    %eax
10001919:	59                   	pop    %ecx
1000191a:	5d                   	pop    %ebp
1000191b:	59                   	pop    %ecx
1000191c:	5b                   	pop    %ebx
1000191d:	c2 04 00             	ret    $0x4
10001920:	ff d0                	call   *%eax
10001922:	c3                   	ret    
10001923:	cc                   	int3   
10001924:	cc                   	int3   
10001925:	cc                   	int3   
10001926:	cc                   	int3   
10001927:	cc                   	int3   
10001928:	cc                   	int3   
10001929:	cc                   	int3   
1000192a:	cc                   	int3   
1000192b:	cc                   	int3   
1000192c:	cc                   	int3   
1000192d:	cc                   	int3   
1000192e:	cc                   	int3   
1000192f:	cc                   	int3   
10001930:	8b ff                	mov    %edi,%edi
10001932:	55                   	push   %ebp
10001933:	8b ec                	mov    %esp,%ebp
10001935:	8b 4d 08             	mov    0x8(%ebp),%ecx
10001938:	b8 4d 5a 00 00       	mov    $0x5a4d,%eax
1000193d:	66 39 01             	cmp    %ax,(%ecx)
10001940:	74 04                	je     0x10001946
10001942:	33 c0                	xor    %eax,%eax
10001944:	5d                   	pop    %ebp
10001945:	c3                   	ret    
10001946:	8b 41 3c             	mov    0x3c(%ecx),%eax
10001949:	03 c1                	add    %ecx,%eax
1000194b:	81 38 50 45 00 00    	cmpl   $0x4550,(%eax)
10001951:	75 ef                	jne    0x10001942
10001953:	33 d2                	xor    %edx,%edx
10001955:	b9 0b 01 00 00       	mov    $0x10b,%ecx
1000195a:	66 39 48 18          	cmp    %cx,0x18(%eax)
1000195e:	0f 94 c2             	sete   %dl
10001961:	8b c2                	mov    %edx,%eax
10001963:	5d                   	pop    %ebp
10001964:	c3                   	ret    
10001965:	cc                   	int3   
10001966:	cc                   	int3   
10001967:	cc                   	int3   
10001968:	cc                   	int3   
10001969:	cc                   	int3   
1000196a:	cc                   	int3   
1000196b:	cc                   	int3   
1000196c:	cc                   	int3   
1000196d:	cc                   	int3   
1000196e:	cc                   	int3   
1000196f:	cc                   	int3   
10001970:	8b ff                	mov    %edi,%edi
10001972:	55                   	push   %ebp
10001973:	8b ec                	mov    %esp,%ebp
10001975:	8b 45 08             	mov    0x8(%ebp),%eax
10001978:	8b 48 3c             	mov    0x3c(%eax),%ecx
1000197b:	03 c8                	add    %eax,%ecx
1000197d:	0f b7 41 14          	movzwl 0x14(%ecx),%eax
10001981:	53                   	push   %ebx
10001982:	56                   	push   %esi
10001983:	0f b7 71 06          	movzwl 0x6(%ecx),%esi
10001987:	33 d2                	xor    %edx,%edx
10001989:	57                   	push   %edi
1000198a:	8d 44 08 18          	lea    0x18(%eax,%ecx,1),%eax
1000198e:	85 f6                	test   %esi,%esi
10001990:	76 1b                	jbe    0x100019ad
10001992:	8b 7d 0c             	mov    0xc(%ebp),%edi
10001995:	8b 48 0c             	mov    0xc(%eax),%ecx
10001998:	3b f9                	cmp    %ecx,%edi
1000199a:	72 09                	jb     0x100019a5
1000199c:	8b 58 08             	mov    0x8(%eax),%ebx
1000199f:	03 d9                	add    %ecx,%ebx
100019a1:	3b fb                	cmp    %ebx,%edi
100019a3:	72 0a                	jb     0x100019af
100019a5:	42                   	inc    %edx
100019a6:	83 c0 28             	add    $0x28,%eax
100019a9:	3b d6                	cmp    %esi,%edx
100019ab:	72 e8                	jb     0x10001995
100019ad:	33 c0                	xor    %eax,%eax
100019af:	5f                   	pop    %edi
100019b0:	5e                   	pop    %esi
100019b1:	5b                   	pop    %ebx
100019b2:	5d                   	pop    %ebp
100019b3:	c3                   	ret    
100019b4:	6a 08                	push   $0x8
100019b6:	68 30 44 00 10       	push   $0x10004430
100019bb:	e8 94 00 00 00       	call   0x10001a54
100019c0:	83 65 fc 00          	andl   $0x0,-0x4(%ebp)
100019c4:	be 00 00 00 10       	mov    $0x10000000,%esi
100019c9:	56                   	push   %esi
100019ca:	e8 61 ff ff ff       	call   0x10001930
100019cf:	59                   	pop    %ecx
100019d0:	85 c0                	test   %eax,%eax
100019d2:	74 3d                	je     0x10001a11
100019d4:	8b 45 08             	mov    0x8(%ebp),%eax
100019d7:	2b c6                	sub    %esi,%eax
100019d9:	50                   	push   %eax
100019da:	56                   	push   %esi
100019db:	e8 90 ff ff ff       	call   0x10001970
100019e0:	59                   	pop    %ecx
100019e1:	59                   	pop    %ecx
100019e2:	85 c0                	test   %eax,%eax
100019e4:	74 2b                	je     0x10001a11
100019e6:	8b 40 24             	mov    0x24(%eax),%eax
100019e9:	c1 e8 1f             	shr    $0x1f,%eax
100019ec:	f7 d0                	not    %eax
100019ee:	83 e0 01             	and    $0x1,%eax
100019f1:	c7 45 fc fe ff ff ff 	movl   $0xfffffffe,-0x4(%ebp)
100019f8:	eb 20                	jmp    0x10001a1a
100019fa:	8b 45 ec             	mov    -0x14(%ebp),%eax
100019fd:	8b 00                	mov    (%eax),%eax
100019ff:	8b 00                	mov    (%eax),%eax
10001a01:	33 c9                	xor    %ecx,%ecx
10001a03:	3d 05 00 00 c0       	cmp    $0xc0000005,%eax
10001a08:	0f 94 c1             	sete   %cl
10001a0b:	8b c1                	mov    %ecx,%eax
10001a0d:	c3                   	ret    
10001a0e:	8b 65 e8             	mov    -0x18(%ebp),%esp
10001a11:	c7 45 fc fe ff ff ff 	movl   $0xfffffffe,-0x4(%ebp)
10001a18:	33 c0                	xor    %eax,%eax
10001a1a:	e8 7a 00 00 00       	call   0x10001a99
10001a1f:	c3                   	ret    
10001a20:	8b 44 24 08          	mov    0x8(%esp),%eax
10001a24:	8b 4c 24 10          	mov    0x10(%esp),%ecx
10001a28:	0b c8                	or     %eax,%ecx
10001a2a:	8b 4c 24 0c          	mov    0xc(%esp),%ecx
10001a2e:	75 09                	jne    0x10001a39
10001a30:	8b 44 24 04          	mov    0x4(%esp),%eax
10001a34:	f7 e1                	mul    %ecx
10001a36:	c2 10 00             	ret    $0x10
10001a39:	53                   	push   %ebx
10001a3a:	f7 e1                	mul    %ecx
10001a3c:	8b d8                	mov    %eax,%ebx
10001a3e:	8b 44 24 08          	mov    0x8(%esp),%eax
10001a42:	f7 64 24 14          	mull   0x14(%esp)
10001a46:	03 d8                	add    %eax,%ebx
10001a48:	8b 44 24 08          	mov    0x8(%esp),%eax
10001a4c:	f7 e1                	mul    %ecx
10001a4e:	03 d3                	add    %ebx,%edx
10001a50:	5b                   	pop    %ebx
10001a51:	c2 10 00             	ret    $0x10
10001a54:	68 ad 1a 00 10       	push   $0x10001aad
10001a59:	64 ff 35 00 00 00 00 	pushl  %fs:0x0
10001a60:	8b 44 24 10          	mov    0x10(%esp),%eax
10001a64:	89 6c 24 10          	mov    %ebp,0x10(%esp)
10001a68:	8d 6c 24 10          	lea    0x10(%esp),%ebp
10001a6c:	2b e0                	sub    %eax,%esp
10001a6e:	53                   	push   %ebx
10001a6f:	56                   	push   %esi
10001a70:	57                   	push   %edi
10001a71:	a1 04 50 00 10       	mov    0x10005004,%eax
10001a76:	31 45 fc             	xor    %eax,-0x4(%ebp)
10001a79:	33 c5                	xor    %ebp,%eax
10001a7b:	50                   	push   %eax
10001a7c:	89 65 e8             	mov    %esp,-0x18(%ebp)
10001a7f:	ff 75 f8             	pushl  -0x8(%ebp)
10001a82:	8b 45 fc             	mov    -0x4(%ebp),%eax
10001a85:	c7 45 fc fe ff ff ff 	movl   $0xfffffffe,-0x4(%ebp)
10001a8c:	89 45 f8             	mov    %eax,-0x8(%ebp)
10001a8f:	8d 45 f0             	lea    -0x10(%ebp),%eax
10001a92:	64 a3 00 00 00 00    	mov    %eax,%fs:0x0
10001a98:	c3                   	ret    
10001a99:	8b 4d f0             	mov    -0x10(%ebp),%ecx
10001a9c:	64 89 0d 00 00 00 00 	mov    %ecx,%fs:0x0
10001aa3:	59                   	pop    %ecx
10001aa4:	5f                   	pop    %edi
10001aa5:	5f                   	pop    %edi
10001aa6:	5e                   	pop    %esi
10001aa7:	5b                   	pop    %ebx
10001aa8:	8b e5                	mov    %ebp,%esp
10001aaa:	5d                   	pop    %ebp
10001aab:	51                   	push   %ecx
10001aac:	c3                   	ret    
10001aad:	8b ff                	mov    %edi,%edi
10001aaf:	55                   	push   %ebp
10001ab0:	8b ec                	mov    %esp,%ebp
10001ab2:	ff 75 14             	pushl  0x14(%ebp)
10001ab5:	ff 75 10             	pushl  0x10(%ebp)
10001ab8:	ff 75 0c             	pushl  0xc(%ebp)
10001abb:	ff 75 08             	pushl  0x8(%ebp)
10001abe:	68 00 10 00 10       	push   $0x10001000
10001ac3:	68 04 50 00 10       	push   $0x10005004
10001ac8:	e8 c3 f6 ff ff       	call   0x10001190
10001acd:	83 c4 18             	add    $0x18,%esp
10001ad0:	5d                   	pop    %ebp
10001ad1:	c3                   	ret    
10001ad2:	8b ff                	mov    %edi,%edi
10001ad4:	55                   	push   %ebp
10001ad5:	8b ec                	mov    %esp,%ebp
10001ad7:	83 ec 10             	sub    $0x10,%esp
10001ada:	a1 04 50 00 10       	mov    0x10005004,%eax
10001adf:	83 65 f8 00          	andl   $0x0,-0x8(%ebp)
10001ae3:	83 65 fc 00          	andl   $0x0,-0x4(%ebp)
10001ae7:	53                   	push   %ebx
10001ae8:	57                   	push   %edi
10001ae9:	bf 4e e6 40 bb       	mov    $0xbb40e64e,%edi
10001aee:	bb 00 00 ff ff       	mov    $0xffff0000,%ebx
10001af3:	3b c7                	cmp    %edi,%eax
10001af5:	74 0d                	je     0x10001b04
10001af7:	85 c3                	test   %eax,%ebx
10001af9:	74 09                	je     0x10001b04
10001afb:	f7 d0                	not    %eax
10001afd:	a3 08 50 00 10       	mov    %eax,0x10005008
10001b02:	eb 5b                	jmp    0x10001b5f
10001b04:	56                   	push   %esi
10001b05:	8d 45 f8             	lea    -0x8(%ebp),%eax
10001b08:	50                   	push   %eax
10001b09:	ff 15 78 58 00 10    	call   *0x10005878
10001b0f:	8b 75 fc             	mov    -0x4(%ebp),%esi
10001b12:	33 75 f8             	xor    -0x8(%ebp),%esi
10001b15:	ff 15 04 55 00 10    	call   *0x10005504
10001b1b:	33 f0                	xor    %eax,%esi
10001b1d:	ff 15 c3 55 00 10    	call   *0x100055c3
10001b23:	33 f0                	xor    %eax,%esi
10001b25:	ff 15 4d 55 00 10    	call   *0x1000554d
10001b2b:	33 f0                	xor    %eax,%esi
10001b2d:	8d 45 f0             	lea    -0x10(%ebp),%eax
10001b30:	50                   	push   %eax
10001b31:	ff 15 58 58 00 10    	call   *0x10005858
10001b37:	8b 45 f4             	mov    -0xc(%ebp),%eax
10001b3a:	33 45 f0             	xor    -0x10(%ebp),%eax
10001b3d:	33 f0                	xor    %eax,%esi
10001b3f:	3b f7                	cmp    %edi,%esi
10001b41:	74 08                	je     0x10001b4b
10001b43:	85 1d 04 50 00 10    	test   %ebx,0x10005004
10001b49:	75 05                	jne    0x10001b50
10001b4b:	be 4f e6 40 bb       	mov    $0xbb40e64f,%esi
10001b50:	89 35 04 50 00 10    	mov    %esi,0x10005004
10001b56:	f7 d6                	not    %esi
10001b58:	89 35 08 50 00 10    	mov    %esi,0x10005008
10001b5e:	5e                   	pop    %esi
10001b5f:	5f                   	pop    %edi
10001b60:	5b                   	pop    %ebx
10001b61:	c9                   	leave  
10001b62:	c3                   	ret    
10001b63:	cc                   	int3   
10001b64:	cc                   	int3   
10001b65:	cc                   	int3   
10001b66:	cc                   	int3   
10001b67:	cc                   	int3   
10001b68:	cc                   	int3   
10001b69:	cc                   	int3   
10001b6a:	cc                   	int3   
10001b6b:	cc                   	int3   
10001b6c:	cc                   	int3   
10001b6d:	cc                   	int3   
10001b6e:	cc                   	int3   
10001b6f:	cc                   	int3   
10001b70:	68 80 58 00 10       	push   $0x10005880
10001b75:	e8 94 1c 00 00       	call   0x1000380e
10001b7a:	85 c0                	test   %eax,%eax
10001b7c:	75 0a                	jne    0x10001b88
10001b7e:	68 80 58 00 10       	push   $0x10005880
10001b83:	e8 80 1c 00 00       	call   0x10003808
10001b88:	68 20 53 00 10       	push   $0x10005320
10001b8d:	50                   	push   %eax
10001b8e:	e8 69 1c 00 00       	call   0x100037fc
10001b93:	ff e0                	jmp    *%eax
10001b95:	8d 49 00             	lea    0x0(%ecx),%ecx
10001b98:	cc                   	int3   
10001b99:	cc                   	int3   
10001b9a:	cc                   	int3   
10001b9b:	cc                   	int3   
10001b9c:	cc                   	int3   
10001b9d:	cc                   	int3   
10001b9e:	cc                   	int3   
10001b9f:	cc                   	int3   
10001ba0:	68 80 58 00 10       	push   $0x10005880
10001ba5:	e8 64 1c 00 00       	call   0x1000380e
10001baa:	85 c0                	test   %eax,%eax
10001bac:	75 0a                	jne    0x10001bb8
10001bae:	68 80 58 00 10       	push   $0x10005880
10001bb3:	e8 50 1c 00 00       	call   0x10003808
10001bb8:	68 30 53 00 10       	push   $0x10005330
10001bbd:	50                   	push   %eax
10001bbe:	e8 39 1c 00 00       	call   0x100037fc
10001bc3:	ff e0                	jmp    *%eax
10001bc5:	8d 49 00             	lea    0x0(%ecx),%ecx
10001bc8:	cc                   	int3   
10001bc9:	cc                   	int3   
10001bca:	cc                   	int3   
10001bcb:	cc                   	int3   
10001bcc:	cc                   	int3   
10001bcd:	cc                   	int3   
10001bce:	cc                   	int3   
10001bcf:	cc                   	int3   
10001bd0:	68 80 58 00 10       	push   $0x10005880
10001bd5:	e8 34 1c 00 00       	call   0x1000380e
10001bda:	85 c0                	test   %eax,%eax
10001bdc:	75 0a                	jne    0x10001be8
10001bde:	68 80 58 00 10       	push   $0x10005880
10001be3:	e8 20 1c 00 00       	call   0x10003808
10001be8:	68 40 53 00 10       	push   $0x10005340
10001bed:	50                   	push   %eax
10001bee:	e8 09 1c 00 00       	call   0x100037fc
10001bf3:	ff e0                	jmp    *%eax
10001bf5:	8d 49 00             	lea    0x0(%ecx),%ecx
10001bf8:	cc                   	int3   
10001bf9:	cc                   	int3   
10001bfa:	cc                   	int3   
10001bfb:	cc                   	int3   
10001bfc:	cc                   	int3   
10001bfd:	cc                   	int3   
10001bfe:	cc                   	int3   
10001bff:	cc                   	int3   
10001c00:	68 80 58 00 10       	push   $0x10005880
10001c05:	e8 04 1c 00 00       	call   0x1000380e
10001c0a:	85 c0                	test   %eax,%eax
10001c0c:	75 0a                	jne    0x10001c18
10001c0e:	68 80 58 00 10       	push   $0x10005880
10001c13:	e8 f0 1b 00 00       	call   0x10003808
10001c18:	68 60 53 00 10       	push   $0x10005360
10001c1d:	50                   	push   %eax
10001c1e:	e8 d9 1b 00 00       	call   0x100037fc
10001c23:	ff e0                	jmp    *%eax
10001c25:	8d 49 00             	lea    0x0(%ecx),%ecx
10001c28:	cc                   	int3   
10001c29:	cc                   	int3   
10001c2a:	cc                   	int3   
10001c2b:	cc                   	int3   
10001c2c:	cc                   	int3   
10001c2d:	cc                   	int3   
10001c2e:	cc                   	int3   
10001c2f:	cc                   	int3   
10001c30:	68 80 58 00 10       	push   $0x10005880
10001c35:	e8 d4 1b 00 00       	call   0x1000380e
10001c3a:	85 c0                	test   %eax,%eax
10001c3c:	75 0a                	jne    0x10001c48
10001c3e:	68 80 58 00 10       	push   $0x10005880
10001c43:	e8 c0 1b 00 00       	call   0x10003808
10001c48:	68 80 53 00 10       	push   $0x10005380
10001c4d:	50                   	push   %eax
10001c4e:	e8 a9 1b 00 00       	call   0x100037fc
10001c53:	ff e0                	jmp    *%eax
10001c55:	8d 49 00             	lea    0x0(%ecx),%ecx
10001c58:	cc                   	int3   
10001c59:	cc                   	int3   
10001c5a:	cc                   	int3   
10001c5b:	cc                   	int3   
10001c5c:	cc                   	int3   
10001c5d:	cc                   	int3   
10001c5e:	cc                   	int3   
10001c5f:	cc                   	int3   
10001c60:	68 80 58 00 10       	push   $0x10005880
10001c65:	e8 a4 1b 00 00       	call   0x1000380e
10001c6a:	85 c0                	test   %eax,%eax
10001c6c:	75 0a                	jne    0x10001c78
10001c6e:	68 80 58 00 10       	push   $0x10005880
10001c73:	e8 90 1b 00 00       	call   0x10003808
10001c78:	68 a0 53 00 10       	push   $0x100053a0
10001c7d:	50                   	push   %eax
10001c7e:	e8 79 1b 00 00       	call   0x100037fc
10001c83:	ff e0                	jmp    *%eax
10001c85:	8d 49 00             	lea    0x0(%ecx),%ecx
10001c88:	cc                   	int3   
10001c89:	cc                   	int3   
10001c8a:	cc                   	int3   
10001c8b:	cc                   	int3   
10001c8c:	cc                   	int3   
10001c8d:	cc                   	int3   
10001c8e:	cc                   	int3   
10001c8f:	cc                   	int3   
10001c90:	68 80 58 00 10       	push   $0x10005880
10001c95:	e8 74 1b 00 00       	call   0x1000380e
10001c9a:	85 c0                	test   %eax,%eax
10001c9c:	75 0a                	jne    0x10001ca8
10001c9e:	68 80 58 00 10       	push   $0x10005880
10001ca3:	e8 60 1b 00 00       	call   0x10003808
10001ca8:	68 c0 53 00 10       	push   $0x100053c0
10001cad:	50                   	push   %eax
10001cae:	e8 49 1b 00 00       	call   0x100037fc
10001cb3:	ff e0                	jmp    *%eax
10001cb5:	8d 49 00             	lea    0x0(%ecx),%ecx
10001cb8:	cc                   	int3   
10001cb9:	cc                   	int3   
10001cba:	cc                   	int3   
10001cbb:	cc                   	int3   
10001cbc:	cc                   	int3   
10001cbd:	cc                   	int3   
10001cbe:	cc                   	int3   
10001cbf:	cc                   	int3   
10001cc0:	68 80 58 00 10       	push   $0x10005880
10001cc5:	e8 44 1b 00 00       	call   0x1000380e
10001cca:	85 c0                	test   %eax,%eax
10001ccc:	75 0a                	jne    0x10001cd8
10001cce:	68 80 58 00 10       	push   $0x10005880
10001cd3:	e8 30 1b 00 00       	call   0x10003808
10001cd8:	68 e0 53 00 10       	push   $0x100053e0
10001cdd:	50                   	push   %eax
10001cde:	e8 19 1b 00 00       	call   0x100037fc
10001ce3:	ff e0                	jmp    *%eax
10001ce5:	8d 49 00             	lea    0x0(%ecx),%ecx
10001ce8:	cc                   	int3   
10001ce9:	cc                   	int3   
10001cea:	cc                   	int3   
10001ceb:	cc                   	int3   
10001cec:	cc                   	int3   
10001ced:	cc                   	int3   
10001cee:	cc                   	int3   
10001cef:	cc                   	int3   
10001cf0:	68 80 58 00 10       	push   $0x10005880
10001cf5:	e8 14 1b 00 00       	call   0x1000380e
10001cfa:	85 c0                	test   %eax,%eax
10001cfc:	75 0a                	jne    0x10001d08
10001cfe:	68 80 58 00 10       	push   $0x10005880
10001d03:	e8 00 1b 00 00       	call   0x10003808
10001d08:	68 00 54 00 10       	push   $0x10005400
10001d0d:	50                   	push   %eax
10001d0e:	e8 e9 1a 00 00       	call   0x100037fc
10001d13:	ff e0                	jmp    *%eax
10001d15:	8d 49 00             	lea    0x0(%ecx),%ecx
10001d18:	cc                   	int3   
10001d19:	cc                   	int3   
10001d1a:	cc                   	int3   
10001d1b:	cc                   	int3   
10001d1c:	cc                   	int3   
10001d1d:	cc                   	int3   
10001d1e:	cc                   	int3   
10001d1f:	cc                   	int3   
10001d20:	68 80 58 00 10       	push   $0x10005880
10001d25:	e8 e4 1a 00 00       	call   0x1000380e
10001d2a:	85 c0                	test   %eax,%eax
10001d2c:	75 0a                	jne    0x10001d38
10001d2e:	68 80 58 00 10       	push   $0x10005880
10001d33:	e8 d0 1a 00 00       	call   0x10003808
10001d38:	68 20 54 00 10       	push   $0x10005420
10001d3d:	50                   	push   %eax
10001d3e:	e8 b9 1a 00 00       	call   0x100037fc
10001d43:	ff e0                	jmp    *%eax
10001d45:	8d 49 00             	lea    0x0(%ecx),%ecx
10001d48:	cc                   	int3   
10001d49:	cc                   	int3   
10001d4a:	cc                   	int3   
10001d4b:	cc                   	int3   
10001d4c:	cc                   	int3   
10001d4d:	cc                   	int3   
10001d4e:	cc                   	int3   
10001d4f:	cc                   	int3   
10001d50:	68 80 58 00 10       	push   $0x10005880
10001d55:	e8 b4 1a 00 00       	call   0x1000380e
10001d5a:	85 c0                	test   %eax,%eax
10001d5c:	75 0a                	jne    0x10001d68
10001d5e:	68 80 58 00 10       	push   $0x10005880
10001d63:	e8 a0 1a 00 00       	call   0x10003808
10001d68:	68 40 54 00 10       	push   $0x10005440
10001d6d:	50                   	push   %eax
10001d6e:	e8 89 1a 00 00       	call   0x100037fc
10001d73:	ff e0                	jmp    *%eax
10001d75:	8d 49 00             	lea    0x0(%ecx),%ecx
10001d78:	cc                   	int3   
10001d79:	cc                   	int3   
10001d7a:	cc                   	int3   
10001d7b:	cc                   	int3   
10001d7c:	cc                   	int3   
10001d7d:	cc                   	int3   
10001d7e:	cc                   	int3   
10001d7f:	cc                   	int3   
10001d80:	68 80 58 00 10       	push   $0x10005880
10001d85:	e8 84 1a 00 00       	call   0x1000380e
10001d8a:	85 c0                	test   %eax,%eax
10001d8c:	75 0a                	jne    0x10001d98
10001d8e:	68 80 58 00 10       	push   $0x10005880
10001d93:	e8 70 1a 00 00       	call   0x10003808
10001d98:	68 60 54 00 10       	push   $0x10005460
10001d9d:	50                   	push   %eax
10001d9e:	e8 59 1a 00 00       	call   0x100037fc
10001da3:	ff e0                	jmp    *%eax
10001da5:	8d 49 00             	lea    0x0(%ecx),%ecx
10001da8:	cc                   	int3   
10001da9:	cc                   	int3   
10001daa:	cc                   	int3   
10001dab:	cc                   	int3   
10001dac:	cc                   	int3   
10001dad:	cc                   	int3   
10001dae:	cc                   	int3   
10001daf:	cc                   	int3   
10001db0:	68 80 58 00 10       	push   $0x10005880
10001db5:	e8 54 1a 00 00       	call   0x1000380e
10001dba:	85 c0                	test   %eax,%eax
10001dbc:	75 0a                	jne    0x10001dc8
10001dbe:	68 80 58 00 10       	push   $0x10005880
10001dc3:	e8 40 1a 00 00       	call   0x10003808
10001dc8:	68 80 54 00 10       	push   $0x10005480
10001dcd:	50                   	push   %eax
10001dce:	e8 29 1a 00 00       	call   0x100037fc
10001dd3:	ff e0                	jmp    *%eax
10001dd5:	8d 49 00             	lea    0x0(%ecx),%ecx
10001dd8:	cc                   	int3   
10001dd9:	cc                   	int3   
10001dda:	cc                   	int3   
10001ddb:	cc                   	int3   
10001ddc:	cc                   	int3   
10001ddd:	cc                   	int3   
10001dde:	cc                   	int3   
10001ddf:	cc                   	int3   
10001de0:	68 80 58 00 10       	push   $0x10005880
10001de5:	e8 24 1a 00 00       	call   0x1000380e
10001dea:	85 c0                	test   %eax,%eax
10001dec:	75 0a                	jne    0x10001df8
10001dee:	68 80 58 00 10       	push   $0x10005880
10001df3:	e8 10 1a 00 00       	call   0x10003808
10001df8:	68 90 54 00 10       	push   $0x10005490
10001dfd:	50                   	push   %eax
10001dfe:	e8 f9 19 00 00       	call   0x100037fc
10001e03:	ff e0                	jmp    *%eax
10001e05:	8d 49 00             	lea    0x0(%ecx),%ecx
10001e08:	cc                   	int3   
10001e09:	cc                   	int3   
10001e0a:	cc                   	int3   
10001e0b:	cc                   	int3   
10001e0c:	cc                   	int3   
10001e0d:	cc                   	int3   
10001e0e:	cc                   	int3   
10001e0f:	cc                   	int3   
10001e10:	68 80 58 00 10       	push   $0x10005880
10001e15:	e8 f4 19 00 00       	call   0x1000380e
10001e1a:	85 c0                	test   %eax,%eax
10001e1c:	75 0a                	jne    0x10001e28
10001e1e:	68 80 58 00 10       	push   $0x10005880
10001e23:	e8 e0 19 00 00       	call   0x10003808
10001e28:	68 a0 54 00 10       	push   $0x100054a0
10001e2d:	50                   	push   %eax
10001e2e:	e8 c9 19 00 00       	call   0x100037fc
10001e33:	ff e0                	jmp    *%eax
10001e35:	8d 49 00             	lea    0x0(%ecx),%ecx
10001e38:	cc                   	int3   
10001e39:	cc                   	int3   
10001e3a:	cc                   	int3   
10001e3b:	cc                   	int3   
10001e3c:	cc                   	int3   
10001e3d:	cc                   	int3   
10001e3e:	cc                   	int3   
10001e3f:	cc                   	int3   
10001e40:	68 80 58 00 10       	push   $0x10005880
10001e45:	e8 c4 19 00 00       	call   0x1000380e
10001e4a:	85 c0                	test   %eax,%eax
10001e4c:	75 0a                	jne    0x10001e58
10001e4e:	68 80 58 00 10       	push   $0x10005880
10001e53:	e8 b0 19 00 00       	call   0x10003808
10001e58:	68 c0 54 00 10       	push   $0x100054c0
10001e5d:	50                   	push   %eax
10001e5e:	e8 99 19 00 00       	call   0x100037fc
10001e63:	ff e0                	jmp    *%eax
10001e65:	8d 49 00             	lea    0x0(%ecx),%ecx
10001e68:	cc                   	int3   
10001e69:	cc                   	int3   
10001e6a:	cc                   	int3   
10001e6b:	cc                   	int3   
10001e6c:	cc                   	int3   
10001e6d:	cc                   	int3   
10001e6e:	cc                   	int3   
10001e6f:	cc                   	int3   
10001e70:	68 80 58 00 10       	push   $0x10005880
10001e75:	e8 94 19 00 00       	call   0x1000380e
10001e7a:	85 c0                	test   %eax,%eax
10001e7c:	75 0a                	jne    0x10001e88
10001e7e:	68 80 58 00 10       	push   $0x10005880
10001e83:	e8 80 19 00 00       	call   0x10003808
10001e88:	68 e0 54 00 10       	push   $0x100054e0
10001e8d:	50                   	push   %eax
10001e8e:	e8 69 19 00 00       	call   0x100037fc
10001e93:	ff e0                	jmp    *%eax
10001e95:	8d 49 00             	lea    0x0(%ecx),%ecx
10001e98:	cc                   	int3   
10001e99:	cc                   	int3   
10001e9a:	cc                   	int3   
10001e9b:	cc                   	int3   
10001e9c:	cc                   	int3   
10001e9d:	cc                   	int3   
10001e9e:	cc                   	int3   
10001e9f:	cc                   	int3   
10001ea0:	68 80 58 00 10       	push   $0x10005880
10001ea5:	e8 64 19 00 00       	call   0x1000380e
10001eaa:	85 c0                	test   %eax,%eax
10001eac:	75 0a                	jne    0x10001eb8
10001eae:	68 80 58 00 10       	push   $0x10005880
10001eb3:	e8 50 19 00 00       	call   0x10003808
10001eb8:	68 f0 54 00 10       	push   $0x100054f0
10001ebd:	50                   	push   %eax
10001ebe:	e8 39 19 00 00       	call   0x100037fc
10001ec3:	ff e0                	jmp    *%eax
10001ec5:	8d 49 00             	lea    0x0(%ecx),%ecx
10001ec8:	cc                   	int3   
10001ec9:	cc                   	int3   
10001eca:	cc                   	int3   
10001ecb:	cc                   	int3   
10001ecc:	cc                   	int3   
10001ecd:	cc                   	int3   
10001ece:	cc                   	int3   
10001ecf:	cc                   	int3   
10001ed0:	68 80 58 00 10       	push   $0x10005880
10001ed5:	e8 34 19 00 00       	call   0x1000380e
10001eda:	85 c0                	test   %eax,%eax
10001edc:	75 0a                	jne    0x10001ee8
10001ede:	68 80 58 00 10       	push   $0x10005880
10001ee3:	e8 20 19 00 00       	call   0x10003808
10001ee8:	68 10 55 00 10       	push   $0x10005510
10001eed:	50                   	push   %eax
10001eee:	e8 09 19 00 00       	call   0x100037fc
10001ef3:	ff e0                	jmp    *%eax
10001ef5:	8d 49 00             	lea    0x0(%ecx),%ecx
10001ef8:	cc                   	int3   
10001ef9:	cc                   	int3   
10001efa:	cc                   	int3   
10001efb:	cc                   	int3   
10001efc:	cc                   	int3   
10001efd:	cc                   	int3   
10001efe:	cc                   	int3   
10001eff:	cc                   	int3   
10001f00:	68 80 58 00 10       	push   $0x10005880
10001f05:	e8 04 19 00 00       	call   0x1000380e
10001f0a:	85 c0                	test   %eax,%eax
10001f0c:	75 0a                	jne    0x10001f18
10001f0e:	68 80 58 00 10       	push   $0x10005880
10001f13:	e8 f0 18 00 00       	call   0x10003808
10001f18:	68 20 55 00 10       	push   $0x10005520
10001f1d:	50                   	push   %eax
10001f1e:	e8 d9 18 00 00       	call   0x100037fc
10001f23:	ff e0                	jmp    *%eax
10001f25:	8d 49 00             	lea    0x0(%ecx),%ecx
10001f28:	cc                   	int3   
10001f29:	cc                   	int3   
10001f2a:	cc                   	int3   
10001f2b:	cc                   	int3   
10001f2c:	cc                   	int3   
10001f2d:	cc                   	int3   
10001f2e:	cc                   	int3   
10001f2f:	cc                   	int3   
10001f30:	68 80 58 00 10       	push   $0x10005880
10001f35:	e8 d4 18 00 00       	call   0x1000380e
10001f3a:	85 c0                	test   %eax,%eax
10001f3c:	75 0a                	jne    0x10001f48
10001f3e:	68 80 58 00 10       	push   $0x10005880
10001f43:	e8 c0 18 00 00       	call   0x10003808
10001f48:	68 40 55 00 10       	push   $0x10005540
10001f4d:	50                   	push   %eax
10001f4e:	e8 a9 18 00 00       	call   0x100037fc
10001f53:	ff e0                	jmp    *%eax
10001f55:	8d 49 00             	lea    0x0(%ecx),%ecx
10001f58:	cc                   	int3   
10001f59:	cc                   	int3   
10001f5a:	cc                   	int3   
10001f5b:	cc                   	int3   
10001f5c:	cc                   	int3   
10001f5d:	cc                   	int3   
10001f5e:	cc                   	int3   
10001f5f:	cc                   	int3   
10001f60:	68 80 58 00 10       	push   $0x10005880
10001f65:	e8 a4 18 00 00       	call   0x1000380e
10001f6a:	85 c0                	test   %eax,%eax
10001f6c:	75 0a                	jne    0x10001f78
10001f6e:	68 80 58 00 10       	push   $0x10005880
10001f73:	e8 90 18 00 00       	call   0x10003808
10001f78:	68 60 55 00 10       	push   $0x10005560
10001f7d:	50                   	push   %eax
10001f7e:	e8 79 18 00 00       	call   0x100037fc
10001f83:	ff e0                	jmp    *%eax
10001f85:	8d 49 00             	lea    0x0(%ecx),%ecx
10001f88:	cc                   	int3   
10001f89:	cc                   	int3   
10001f8a:	cc                   	int3   
10001f8b:	cc                   	int3   
10001f8c:	cc                   	int3   
10001f8d:	cc                   	int3   
10001f8e:	cc                   	int3   
10001f8f:	cc                   	int3   
10001f90:	68 80 58 00 10       	push   $0x10005880
10001f95:	e8 74 18 00 00       	call   0x1000380e
10001f9a:	85 c0                	test   %eax,%eax
10001f9c:	75 0a                	jne    0x10001fa8
10001f9e:	68 80 58 00 10       	push   $0x10005880
10001fa3:	e8 60 18 00 00       	call   0x10003808
10001fa8:	68 70 55 00 10       	push   $0x10005570
10001fad:	50                   	push   %eax
10001fae:	e8 49 18 00 00       	call   0x100037fc
10001fb3:	ff e0                	jmp    *%eax
10001fb5:	8d 49 00             	lea    0x0(%ecx),%ecx
10001fb8:	cc                   	int3   
10001fb9:	cc                   	int3   
10001fba:	cc                   	int3   
10001fbb:	cc                   	int3   
10001fbc:	cc                   	int3   
10001fbd:	cc                   	int3   
10001fbe:	cc                   	int3   
10001fbf:	cc                   	int3   
10001fc0:	68 80 58 00 10       	push   $0x10005880
10001fc5:	e8 44 18 00 00       	call   0x1000380e
10001fca:	85 c0                	test   %eax,%eax
10001fcc:	75 0a                	jne    0x10001fd8
10001fce:	68 80 58 00 10       	push   $0x10005880
10001fd3:	e8 30 18 00 00       	call   0x10003808
10001fd8:	68 80 55 00 10       	push   $0x10005580
10001fdd:	50                   	push   %eax
10001fde:	e8 19 18 00 00       	call   0x100037fc
10001fe3:	ff e0                	jmp    *%eax
10001fe5:	8d 49 00             	lea    0x0(%ecx),%ecx
10001fe8:	cc                   	int3   
10001fe9:	cc                   	int3   
10001fea:	cc                   	int3   
10001feb:	cc                   	int3   
10001fec:	cc                   	int3   
10001fed:	cc                   	int3   
10001fee:	cc                   	int3   
10001fef:	cc                   	int3   
10001ff0:	cc                   	int3   
10001ff1:	cc                   	int3   
10001ff2:	cc                   	int3   
10001ff3:	cc                   	int3   
10001ff4:	cc                   	int3   
10001ff5:	cc                   	int3   
10001ff6:	cc                   	int3   
10001ff7:	cc                   	int3   
10001ff8:	cc                   	int3   
10001ff9:	cc                   	int3   
10001ffa:	cc                   	int3   
10001ffb:	cc                   	int3   
10001ffc:	cc                   	int3   
10001ffd:	cc                   	int3   
10001ffe:	cc                   	int3   
10001fff:	cc                   	int3   
10002000:	68 80 58 00 10       	push   $0x10005880
10002005:	e8 04 18 00 00       	call   0x1000380e
1000200a:	85 c0                	test   %eax,%eax
1000200c:	75 0a                	jne    0x10002018
1000200e:	68 80 58 00 10       	push   $0x10005880
10002013:	e8 f0 17 00 00       	call   0x10003808
10002018:	68 90 55 00 10       	push   $0x10005590
1000201d:	50                   	push   %eax
1000201e:	e8 d9 17 00 00       	call   0x100037fc
10002023:	ff e0                	jmp    *%eax
10002025:	8d 49 00             	lea    0x0(%ecx),%ecx
10002028:	cc                   	int3   
10002029:	cc                   	int3   
1000202a:	cc                   	int3   
1000202b:	cc                   	int3   
1000202c:	cc                   	int3   
1000202d:	cc                   	int3   
1000202e:	cc                   	int3   
1000202f:	cc                   	int3   
10002030:	68 80 58 00 10       	push   $0x10005880
10002035:	e8 d4 17 00 00       	call   0x1000380e
1000203a:	85 c0                	test   %eax,%eax
1000203c:	75 0a                	jne    0x10002048
1000203e:	68 80 58 00 10       	push   $0x10005880
10002043:	e8 c0 17 00 00       	call   0x10003808
10002048:	68 b0 55 00 10       	push   $0x100055b0
1000204d:	50                   	push   %eax
1000204e:	e8 a9 17 00 00       	call   0x100037fc
10002053:	ff e0                	jmp    *%eax
10002055:	8d 49 00             	lea    0x0(%ecx),%ecx
10002058:	cc                   	int3   
10002059:	cc                   	int3   
1000205a:	cc                   	int3   
1000205b:	cc                   	int3   
1000205c:	cc                   	int3   
1000205d:	cc                   	int3   
1000205e:	cc                   	int3   
1000205f:	cc                   	int3   
10002060:	68 80 58 00 10       	push   $0x10005880
10002065:	e8 a4 17 00 00       	call   0x1000380e
1000206a:	85 c0                	test   %eax,%eax
1000206c:	75 0a                	jne    0x10002078
1000206e:	68 80 58 00 10       	push   $0x10005880
10002073:	e8 90 17 00 00       	call   0x10003808
10002078:	68 d0 55 00 10       	push   $0x100055d0
1000207d:	50                   	push   %eax
1000207e:	e8 79 17 00 00       	call   0x100037fc
10002083:	ff e0                	jmp    *%eax
10002085:	8d 49 00             	lea    0x0(%ecx),%ecx
10002088:	cc                   	int3   
10002089:	cc                   	int3   
1000208a:	cc                   	int3   
1000208b:	cc                   	int3   
1000208c:	cc                   	int3   
1000208d:	cc                   	int3   
1000208e:	cc                   	int3   
1000208f:	cc                   	int3   
10002090:	68 80 58 00 10       	push   $0x10005880
10002095:	e8 74 17 00 00       	call   0x1000380e
1000209a:	85 c0                	test   %eax,%eax
1000209c:	75 0a                	jne    0x100020a8
1000209e:	68 80 58 00 10       	push   $0x10005880
100020a3:	e8 60 17 00 00       	call   0x10003808
100020a8:	68 e0 55 00 10       	push   $0x100055e0
100020ad:	50                   	push   %eax
100020ae:	e8 49 17 00 00       	call   0x100037fc
100020b3:	ff e0                	jmp    *%eax
100020b5:	8d 49 00             	lea    0x0(%ecx),%ecx
100020b8:	cc                   	int3   
100020b9:	cc                   	int3   
100020ba:	cc                   	int3   
100020bb:	cc                   	int3   
100020bc:	cc                   	int3   
100020bd:	cc                   	int3   
100020be:	cc                   	int3   
100020bf:	cc                   	int3   
100020c0:	68 80 58 00 10       	push   $0x10005880
100020c5:	e8 44 17 00 00       	call   0x1000380e
100020ca:	85 c0                	test   %eax,%eax
100020cc:	75 0a                	jne    0x100020d8
100020ce:	68 80 58 00 10       	push   $0x10005880
100020d3:	e8 30 17 00 00       	call   0x10003808
100020d8:	68 f0 55 00 10       	push   $0x100055f0
100020dd:	50                   	push   %eax
100020de:	e8 19 17 00 00       	call   0x100037fc
100020e3:	ff e0                	jmp    *%eax
100020e5:	8d 49 00             	lea    0x0(%ecx),%ecx
100020e8:	cc                   	int3   
100020e9:	cc                   	int3   
100020ea:	cc                   	int3   
100020eb:	cc                   	int3   
100020ec:	cc                   	int3   
100020ed:	cc                   	int3   
100020ee:	cc                   	int3   
100020ef:	cc                   	int3   
100020f0:	68 80 58 00 10       	push   $0x10005880
100020f5:	e8 14 17 00 00       	call   0x1000380e
100020fa:	85 c0                	test   %eax,%eax
100020fc:	75 0a                	jne    0x10002108
100020fe:	68 80 58 00 10       	push   $0x10005880
10002103:	e8 00 17 00 00       	call   0x10003808
10002108:	68 00 56 00 10       	push   $0x10005600
1000210d:	50                   	push   %eax
1000210e:	e8 e9 16 00 00       	call   0x100037fc
10002113:	ff e0                	jmp    *%eax
10002115:	8d 49 00             	lea    0x0(%ecx),%ecx
10002118:	cc                   	int3   
10002119:	cc                   	int3   
1000211a:	cc                   	int3   
1000211b:	cc                   	int3   
1000211c:	cc                   	int3   
1000211d:	cc                   	int3   
1000211e:	cc                   	int3   
1000211f:	cc                   	int3   
10002120:	68 90 58 00 10       	push   $0x10005890
10002125:	e8 e4 16 00 00       	call   0x1000380e
1000212a:	85 c0                	test   %eax,%eax
1000212c:	75 0a                	jne    0x10002138
1000212e:	68 90 58 00 10       	push   $0x10005890
10002133:	e8 d0 16 00 00       	call   0x10003808
10002138:	68 10 56 00 10       	push   $0x10005610
1000213d:	50                   	push   %eax
1000213e:	e8 b9 16 00 00       	call   0x100037fc
10002143:	ff e0                	jmp    *%eax
10002145:	8d 49 00             	lea    0x0(%ecx),%ecx
10002148:	cc                   	int3   
10002149:	cc                   	int3   
1000214a:	cc                   	int3   
1000214b:	cc                   	int3   
1000214c:	cc                   	int3   
1000214d:	cc                   	int3   
1000214e:	cc                   	int3   
1000214f:	cc                   	int3   
10002150:	68 80 58 00 10       	push   $0x10005880
10002155:	e8 b4 16 00 00       	call   0x1000380e
1000215a:	85 c0                	test   %eax,%eax
1000215c:	75 0a                	jne    0x10002168
1000215e:	68 80 58 00 10       	push   $0x10005880
10002163:	e8 a0 16 00 00       	call   0x10003808
10002168:	68 20 56 00 10       	push   $0x10005620
1000216d:	50                   	push   %eax
1000216e:	e8 89 16 00 00       	call   0x100037fc
10002173:	ff e0                	jmp    *%eax
10002175:	8d 49 00             	lea    0x0(%ecx),%ecx
10002178:	cc                   	int3   
10002179:	cc                   	int3   
1000217a:	cc                   	int3   
1000217b:	cc                   	int3   
1000217c:	cc                   	int3   
1000217d:	cc                   	int3   
1000217e:	cc                   	int3   
1000217f:	cc                   	int3   
10002180:	68 80 58 00 10       	push   $0x10005880
10002185:	e8 84 16 00 00       	call   0x1000380e
1000218a:	85 c0                	test   %eax,%eax
1000218c:	75 0a                	jne    0x10002198
1000218e:	68 80 58 00 10       	push   $0x10005880
10002193:	e8 70 16 00 00       	call   0x10003808
10002198:	68 40 56 00 10       	push   $0x10005640
1000219d:	50                   	push   %eax
1000219e:	e8 59 16 00 00       	call   0x100037fc
100021a3:	ff e0                	jmp    *%eax
100021a5:	8d 49 00             	lea    0x0(%ecx),%ecx
100021a8:	cc                   	int3   
100021a9:	cc                   	int3   
100021aa:	cc                   	int3   
100021ab:	cc                   	int3   
100021ac:	cc                   	int3   
100021ad:	cc                   	int3   
100021ae:	cc                   	int3   
100021af:	cc                   	int3   
100021b0:	68 80 58 00 10       	push   $0x10005880
100021b5:	e8 54 16 00 00       	call   0x1000380e
100021ba:	85 c0                	test   %eax,%eax
100021bc:	75 0a                	jne    0x100021c8
100021be:	68 80 58 00 10       	push   $0x10005880
100021c3:	e8 40 16 00 00       	call   0x10003808
100021c8:	68 50 56 00 10       	push   $0x10005650
100021cd:	50                   	push   %eax
100021ce:	e8 29 16 00 00       	call   0x100037fc
100021d3:	ff e0                	jmp    *%eax
100021d5:	8d 49 00             	lea    0x0(%ecx),%ecx
100021d8:	cc                   	int3   
100021d9:	cc                   	int3   
100021da:	cc                   	int3   
100021db:	cc                   	int3   
100021dc:	cc                   	int3   
100021dd:	cc                   	int3   
100021de:	cc                   	int3   
100021df:	cc                   	int3   
100021e0:	68 90 58 00 10       	push   $0x10005890
100021e5:	e8 24 16 00 00       	call   0x1000380e
100021ea:	85 c0                	test   %eax,%eax
100021ec:	75 0a                	jne    0x100021f8
100021ee:	68 90 58 00 10       	push   $0x10005890
100021f3:	e8 10 16 00 00       	call   0x10003808
100021f8:	68 70 56 00 10       	push   $0x10005670
100021fd:	50                   	push   %eax
100021fe:	e8 f9 15 00 00       	call   0x100037fc
10002203:	ff e0                	jmp    *%eax
10002205:	8d 49 00             	lea    0x0(%ecx),%ecx
10002208:	cc                   	int3   
10002209:	cc                   	int3   
1000220a:	cc                   	int3   
1000220b:	cc                   	int3   
1000220c:	cc                   	int3   
1000220d:	cc                   	int3   
1000220e:	cc                   	int3   
1000220f:	cc                   	int3   
10002210:	68 80 58 00 10       	push   $0x10005880
10002215:	e8 f4 15 00 00       	call   0x1000380e
1000221a:	85 c0                	test   %eax,%eax
1000221c:	75 0a                	jne    0x10002228
1000221e:	68 80 58 00 10       	push   $0x10005880
10002223:	e8 e0 15 00 00       	call   0x10003808
10002228:	68 80 56 00 10       	push   $0x10005680
1000222d:	50                   	push   %eax
1000222e:	e8 c9 15 00 00       	call   0x100037fc
10002233:	ff e0                	jmp    *%eax
10002235:	8d 49 00             	lea    0x0(%ecx),%ecx
10002238:	cc                   	int3   
10002239:	cc                   	int3   
1000223a:	cc                   	int3   
1000223b:	cc                   	int3   
1000223c:	cc                   	int3   
1000223d:	cc                   	int3   
1000223e:	cc                   	int3   
1000223f:	cc                   	int3   
10002240:	68 80 58 00 10       	push   $0x10005880
10002245:	e8 c4 15 00 00       	call   0x1000380e
1000224a:	85 c0                	test   %eax,%eax
1000224c:	75 0a                	jne    0x10002258
1000224e:	68 80 58 00 10       	push   $0x10005880
10002253:	e8 b0 15 00 00       	call   0x10003808
10002258:	68 90 56 00 10       	push   $0x10005690
1000225d:	50                   	push   %eax
1000225e:	e8 99 15 00 00       	call   0x100037fc
10002263:	ff e0                	jmp    *%eax
10002265:	8d 49 00             	lea    0x0(%ecx),%ecx
10002268:	cc                   	int3   
10002269:	cc                   	int3   
1000226a:	cc                   	int3   
1000226b:	cc                   	int3   
1000226c:	cc                   	int3   
1000226d:	cc                   	int3   
1000226e:	cc                   	int3   
1000226f:	cc                   	int3   
10002270:	68 80 58 00 10       	push   $0x10005880
10002275:	e8 94 15 00 00       	call   0x1000380e
1000227a:	85 c0                	test   %eax,%eax
1000227c:	75 0a                	jne    0x10002288
1000227e:	68 80 58 00 10       	push   $0x10005880
10002283:	e8 80 15 00 00       	call   0x10003808
10002288:	68 b0 56 00 10       	push   $0x100056b0
1000228d:	50                   	push   %eax
1000228e:	e8 69 15 00 00       	call   0x100037fc
10002293:	ff e0                	jmp    *%eax
10002295:	8d 49 00             	lea    0x0(%ecx),%ecx
10002298:	cc                   	int3   
10002299:	cc                   	int3   
1000229a:	cc                   	int3   
1000229b:	cc                   	int3   
1000229c:	cc                   	int3   
1000229d:	cc                   	int3   
1000229e:	cc                   	int3   
1000229f:	cc                   	int3   
100022a0:	68 a0 58 00 10       	push   $0x100058a0
100022a5:	e8 64 15 00 00       	call   0x1000380e
100022aa:	85 c0                	test   %eax,%eax
100022ac:	75 0a                	jne    0x100022b8
100022ae:	68 a0 58 00 10       	push   $0x100058a0
100022b3:	e8 50 15 00 00       	call   0x10003808
100022b8:	68 c0 56 00 10       	push   $0x100056c0
100022bd:	50                   	push   %eax
100022be:	e8 39 15 00 00       	call   0x100037fc
100022c3:	ff e0                	jmp    *%eax
100022c5:	8d 49 00             	lea    0x0(%ecx),%ecx
100022c8:	cc                   	int3   
100022c9:	cc                   	int3   
100022ca:	cc                   	int3   
100022cb:	cc                   	int3   
100022cc:	cc                   	int3   
100022cd:	cc                   	int3   
100022ce:	cc                   	int3   
100022cf:	cc                   	int3   
100022d0:	68 a0 58 00 10       	push   $0x100058a0
100022d5:	e8 34 15 00 00       	call   0x1000380e
100022da:	85 c0                	test   %eax,%eax
100022dc:	75 0a                	jne    0x100022e8
100022de:	68 a0 58 00 10       	push   $0x100058a0
100022e3:	e8 20 15 00 00       	call   0x10003808
100022e8:	68 f0 56 00 10       	push   $0x100056f0
100022ed:	50                   	push   %eax
100022ee:	e8 09 15 00 00       	call   0x100037fc
100022f3:	ff e0                	jmp    *%eax
100022f5:	8d 49 00             	lea    0x0(%ecx),%ecx
100022f8:	cc                   	int3   
100022f9:	cc                   	int3   
100022fa:	cc                   	int3   
100022fb:	cc                   	int3   
100022fc:	cc                   	int3   
100022fd:	cc                   	int3   
100022fe:	cc                   	int3   
100022ff:	cc                   	int3   
10002300:	68 a0 58 00 10       	push   $0x100058a0
10002305:	e8 04 15 00 00       	call   0x1000380e
1000230a:	85 c0                	test   %eax,%eax
1000230c:	75 0a                	jne    0x10002318
1000230e:	68 a0 58 00 10       	push   $0x100058a0
10002313:	e8 f0 14 00 00       	call   0x10003808
10002318:	68 10 57 00 10       	push   $0x10005710
1000231d:	50                   	push   %eax
1000231e:	e8 d9 14 00 00       	call   0x100037fc
10002323:	ff e0                	jmp    *%eax
10002325:	8d 49 00             	lea    0x0(%ecx),%ecx
10002328:	cc                   	int3   
10002329:	cc                   	int3   
1000232a:	cc                   	int3   
1000232b:	cc                   	int3   
1000232c:	cc                   	int3   
1000232d:	cc                   	int3   
1000232e:	cc                   	int3   
1000232f:	cc                   	int3   
10002330:	68 a0 58 00 10       	push   $0x100058a0
10002335:	e8 d4 14 00 00       	call   0x1000380e
1000233a:	85 c0                	test   %eax,%eax
1000233c:	75 0a                	jne    0x10002348
1000233e:	68 a0 58 00 10       	push   $0x100058a0
10002343:	e8 c0 14 00 00       	call   0x10003808
10002348:	68 50 57 00 10       	push   $0x10005750
1000234d:	50                   	push   %eax
1000234e:	e8 a9 14 00 00       	call   0x100037fc
10002353:	ff e0                	jmp    *%eax
10002355:	8d 49 00             	lea    0x0(%ecx),%ecx
10002358:	cc                   	int3   
10002359:	cc                   	int3   
1000235a:	cc                   	int3   
1000235b:	cc                   	int3   
1000235c:	cc                   	int3   
1000235d:	cc                   	int3   
1000235e:	cc                   	int3   
1000235f:	cc                   	int3   
10002360:	68 a0 58 00 10       	push   $0x100058a0
10002365:	e8 a4 14 00 00       	call   0x1000380e
1000236a:	85 c0                	test   %eax,%eax
1000236c:	75 0a                	jne    0x10002378
1000236e:	68 a0 58 00 10       	push   $0x100058a0
10002373:	e8 90 14 00 00       	call   0x10003808
10002378:	68 70 57 00 10       	push   $0x10005770
1000237d:	50                   	push   %eax
1000237e:	e8 79 14 00 00       	call   0x100037fc
10002383:	ff e0                	jmp    *%eax
10002385:	8d 49 00             	lea    0x0(%ecx),%ecx
10002388:	cc                   	int3   
10002389:	cc                   	int3   
1000238a:	cc                   	int3   
1000238b:	cc                   	int3   
1000238c:	cc                   	int3   
1000238d:	cc                   	int3   
1000238e:	cc                   	int3   
1000238f:	cc                   	int3   
10002390:	68 80 58 00 10       	push   $0x10005880
10002395:	e8 74 14 00 00       	call   0x1000380e
1000239a:	85 c0                	test   %eax,%eax
1000239c:	75 0a                	jne    0x100023a8
1000239e:	68 80 58 00 10       	push   $0x10005880
100023a3:	e8 60 14 00 00       	call   0x10003808
100023a8:	68 90 57 00 10       	push   $0x10005790
100023ad:	50                   	push   %eax
100023ae:	e8 49 14 00 00       	call   0x100037fc
100023b3:	ff e0                	jmp    *%eax
100023b5:	8d 49 00             	lea    0x0(%ecx),%ecx
100023b8:	cc                   	int3   
100023b9:	cc                   	int3   
100023ba:	cc                   	int3   
100023bb:	cc                   	int3   
100023bc:	cc                   	int3   
100023bd:	cc                   	int3   
100023be:	cc                   	int3   
100023bf:	cc                   	int3   
100023c0:	68 80 58 00 10       	push   $0x10005880
100023c5:	e8 44 14 00 00       	call   0x1000380e
100023ca:	85 c0                	test   %eax,%eax
100023cc:	75 0a                	jne    0x100023d8
100023ce:	68 80 58 00 10       	push   $0x10005880
100023d3:	e8 30 14 00 00       	call   0x10003808
100023d8:	68 a0 57 00 10       	push   $0x100057a0
100023dd:	50                   	push   %eax
100023de:	e8 19 14 00 00       	call   0x100037fc
100023e3:	ff e0                	jmp    *%eax
100023e5:	8d 49 00             	lea    0x0(%ecx),%ecx
100023e8:	cc                   	int3   
100023e9:	cc                   	int3   
100023ea:	cc                   	int3   
100023eb:	cc                   	int3   
100023ec:	cc                   	int3   
100023ed:	cc                   	int3   
100023ee:	cc                   	int3   
100023ef:	cc                   	int3   
100023f0:	68 80 58 00 10       	push   $0x10005880
100023f5:	e8 14 14 00 00       	call   0x1000380e
100023fa:	85 c0                	test   %eax,%eax
100023fc:	75 0a                	jne    0x10002408
100023fe:	68 80 58 00 10       	push   $0x10005880
10002403:	e8 00 14 00 00       	call   0x10003808
10002408:	68 c0 57 00 10       	push   $0x100057c0
1000240d:	50                   	push   %eax
1000240e:	e8 e9 13 00 00       	call   0x100037fc
10002413:	ff e0                	jmp    *%eax
10002415:	8d 49 00             	lea    0x0(%ecx),%ecx
10002418:	cc                   	int3   
10002419:	cc                   	int3   
1000241a:	cc                   	int3   
1000241b:	cc                   	int3   
1000241c:	cc                   	int3   
1000241d:	cc                   	int3   
1000241e:	cc                   	int3   
1000241f:	cc                   	int3   
10002420:	68 80 58 00 10       	push   $0x10005880
10002425:	e8 e4 13 00 00       	call   0x1000380e
1000242a:	85 c0                	test   %eax,%eax
1000242c:	75 0a                	jne    0x10002438
1000242e:	68 80 58 00 10       	push   $0x10005880
10002433:	e8 d0 13 00 00       	call   0x10003808
10002438:	68 e0 57 00 10       	push   $0x100057e0
1000243d:	50                   	push   %eax
1000243e:	e8 b9 13 00 00       	call   0x100037fc
10002443:	ff e0                	jmp    *%eax
10002445:	8d 49 00             	lea    0x0(%ecx),%ecx
10002448:	cc                   	int3   
10002449:	cc                   	int3   
1000244a:	cc                   	int3   
1000244b:	cc                   	int3   
1000244c:	cc                   	int3   
1000244d:	cc                   	int3   
1000244e:	cc                   	int3   
1000244f:	cc                   	int3   
10002450:	68 80 58 00 10       	push   $0x10005880
10002455:	e8 b4 13 00 00       	call   0x1000380e
1000245a:	85 c0                	test   %eax,%eax
1000245c:	75 0a                	jne    0x10002468
1000245e:	68 80 58 00 10       	push   $0x10005880
10002463:	e8 a0 13 00 00       	call   0x10003808
10002468:	68 00 58 00 10       	push   $0x10005800
1000246d:	50                   	push   %eax
1000246e:	e8 89 13 00 00       	call   0x100037fc
10002473:	ff e0                	jmp    *%eax
10002475:	8d 49 00             	lea    0x0(%ecx),%ecx
10002478:	cc                   	int3   
10002479:	cc                   	int3   
1000247a:	cc                   	int3   
1000247b:	cc                   	int3   
1000247c:	cc                   	int3   
1000247d:	cc                   	int3   
1000247e:	cc                   	int3   
1000247f:	cc                   	int3   
10002480:	68 80 58 00 10       	push   $0x10005880
10002485:	e8 84 13 00 00       	call   0x1000380e
1000248a:	85 c0                	test   %eax,%eax
1000248c:	75 0a                	jne    0x10002498
1000248e:	68 80 58 00 10       	push   $0x10005880
10002493:	e8 70 13 00 00       	call   0x10003808
10002498:	68 20 58 00 10       	push   $0x10005820
1000249d:	50                   	push   %eax
1000249e:	e8 59 13 00 00       	call   0x100037fc
100024a3:	ff e0                	jmp    *%eax
100024a5:	8d 49 00             	lea    0x0(%ecx),%ecx
100024a8:	cc                   	int3   
100024a9:	cc                   	int3   
100024aa:	cc                   	int3   
100024ab:	cc                   	int3   
100024ac:	cc                   	int3   
100024ad:	cc                   	int3   
100024ae:	cc                   	int3   
100024af:	cc                   	int3   
100024b0:	68 80 58 00 10       	push   $0x10005880
100024b5:	e8 54 13 00 00       	call   0x1000380e
100024ba:	85 c0                	test   %eax,%eax
100024bc:	75 0a                	jne    0x100024c8
100024be:	68 80 58 00 10       	push   $0x10005880
100024c3:	e8 40 13 00 00       	call   0x10003808
100024c8:	68 40 58 00 10       	push   $0x10005840
100024cd:	50                   	push   %eax
100024ce:	e8 29 13 00 00       	call   0x100037fc
100024d3:	ff e0                	jmp    *%eax
100024d5:	8d 49 00             	lea    0x0(%ecx),%ecx
100024d8:	cc                   	int3   
100024d9:	cc                   	int3   
100024da:	cc                   	int3   
100024db:	cc                   	int3   
100024dc:	cc                   	int3   
100024dd:	cc                   	int3   
100024de:	cc                   	int3   
100024df:	cc                   	int3   
100024e0:	68 80 58 00 10       	push   $0x10005880
100024e5:	e8 24 13 00 00       	call   0x1000380e
100024ea:	85 c0                	test   %eax,%eax
100024ec:	75 0a                	jne    0x100024f8
100024ee:	68 80 58 00 10       	push   $0x10005880
100024f3:	e8 10 13 00 00       	call   0x10003808
100024f8:	68 60 58 00 10       	push   $0x10005860
100024fd:	50                   	push   %eax
100024fe:	e8 f9 12 00 00       	call   0x100037fc
10002503:	ff e0                	jmp    *%eax
10002505:	8d 49 00             	lea    0x0(%ecx),%ecx
10002508:	cc                   	int3   
10002509:	cc                   	int3   
1000250a:	cc                   	int3   
1000250b:	cc                   	int3   
1000250c:	cc                   	int3   
1000250d:	cc                   	int3   
1000250e:	cc                   	int3   
1000250f:	cc                   	int3   
10002510:	68 14 38 00 10       	push   $0x10003814
10002515:	64 a1 00 00 00 00    	mov    %fs:0x0,%eax
1000251b:	50                   	push   %eax
1000251c:	8b 44 24 10          	mov    0x10(%esp),%eax
10002520:	89 6c 24 10          	mov    %ebp,0x10(%esp)
10002524:	8d 6c 24 10          	lea    0x10(%esp),%ebp
10002528:	2b e0                	sub    %eax,%esp
1000252a:	53                   	push   %ebx
1000252b:	56                   	push   %esi
1000252c:	57                   	push   %edi
1000252d:	8b 45 f8             	mov    -0x8(%ebp),%eax
10002530:	89 65 e8             	mov    %esp,-0x18(%ebp)
10002533:	50                   	push   %eax
10002534:	8b 45 fc             	mov    -0x4(%ebp),%eax
10002537:	c7 45 fc ff ff ff ff 	movl   $0xffffffff,-0x4(%ebp)
1000253e:	89 45 f8             	mov    %eax,-0x8(%ebp)
10002541:	8d 45 f0             	lea    -0x10(%ebp),%eax
10002544:	64 a3 00 00 00 00    	mov    %eax,%fs:0x0
1000254a:	c3                   	ret    
1000254b:	8b 4d f0             	mov    -0x10(%ebp),%ecx
1000254e:	64 89 0d 00 00 00 00 	mov    %ecx,%fs:0x0
10002555:	59                   	pop    %ecx
10002556:	5f                   	pop    %edi
10002557:	5e                   	pop    %esi
10002558:	5b                   	pop    %ebx
10002559:	c9                   	leave  
1000255a:	51                   	push   %ecx
1000255b:	c3                   	ret    
1000255c:	b8 58 5c 00 10       	mov    $0x10005c58,%eax
10002561:	c3                   	ret    
10002562:	55                   	push   %ebp
10002563:	8b ec                	mov    %esp,%ebp
10002565:	81 ec 18 02 00 00    	sub    $0x218,%esp
1000256b:	64 a1 30 00 00 00    	mov    %fs:0x30,%eax
10002571:	53                   	push   %ebx
10002572:	56                   	push   %esi
10002573:	57                   	push   %edi
10002574:	8b 70 0c             	mov    0xc(%eax),%esi
10002577:	83 c6 14             	add    $0x14,%esi
1000257a:	89 4d f8             	mov    %ecx,-0x8(%ebp)
1000257d:	89 75 f0             	mov    %esi,-0x10(%ebp)
10002580:	8b 06                	mov    (%esi),%eax
10002582:	3b c6                	cmp    %esi,%eax
10002584:	0f 84 19 01 00 00    	je     0x100026a3
1000258a:	c7 45 f4 19 00 00 00 	movl   $0x19,-0xc(%ebp)
10002591:	8d 78 f8             	lea    -0x8(%eax),%edi
10002594:	b9 c6 4f f8 67       	mov    $0x67f84fc6,%ecx
10002599:	8b 57 30             	mov    0x30(%edi),%edx
1000259c:	8b da                	mov    %edx,%ebx
1000259e:	0f b7 03             	movzwl (%ebx),%eax
100025a1:	66 85 c0             	test   %ax,%ax
100025a4:	74 3d                	je     0x100025e3
100025a6:	8b f1                	mov    %ecx,%esi
100025a8:	0f b7 c8             	movzwl %ax,%ecx
100025ab:	8d 41 bf             	lea    -0x41(%ecx),%eax
100025ae:	66 3b 45 f4          	cmp    -0xc(%ebp),%ax
100025b2:	77 03                	ja     0x100025b7
100025b4:	83 c1 20             	add    $0x20,%ecx
100025b7:	0f b7 c9             	movzwl %cx,%ecx
100025ba:	83 c3 02             	add    $0x2,%ebx
100025bd:	8b c1                	mov    %ecx,%eax
100025bf:	0f af c9             	imul   %ecx,%ecx
100025c2:	83 e0 07             	and    $0x7,%eax
100025c5:	c1 e0 09             	shl    $0x9,%eax
100025c8:	05 27 0c a2 08       	add    $0x8a20c27,%eax
100025cd:	0f af f0             	imul   %eax,%esi
100025d0:	0f b7 03             	movzwl (%ebx),%eax
100025d3:	33 f1                	xor    %ecx,%esi
100025d5:	66 85 c0             	test   %ax,%ax
100025d8:	75 ce                	jne    0x100025a8
100025da:	89 75 fc             	mov    %esi,-0x4(%ebp)
100025dd:	8b 75 f0             	mov    -0x10(%ebp),%esi
100025e0:	8b 4d fc             	mov    -0x4(%ebp),%ecx
100025e3:	3b 4d f8             	cmp    -0x8(%ebp),%ecx
100025e6:	0f 84 c0 00 00 00    	je     0x100026ac
100025ec:	b8 08 02 00 00       	mov    $0x208,%eax
100025f1:	66 39 47 2c          	cmp    %ax,0x2c(%edi)
100025f5:	0f 83 9d 00 00 00    	jae    0x10002698
100025fb:	66 8b 0a             	mov    (%edx),%cx
100025fe:	66 89 8d e8 fd ff ff 	mov    %cx,-0x218(%ebp)
10002605:	66 85 c9             	test   %cx,%cx
10002608:	74 1e                	je     0x10002628
1000260a:	8d 8d e8 fd ff ff    	lea    -0x218(%ebp),%ecx
10002610:	2b ca                	sub    %edx,%ecx
10002612:	8d 52 02             	lea    0x2(%edx),%edx
10002615:	0f b7 02             	movzwl (%edx),%eax
10002618:	66 89 04 11          	mov    %ax,(%ecx,%edx,1)
1000261c:	66 85 c0             	test   %ax,%ax
1000261f:	75 f1                	jne    0x10002612
10002621:	66 8b 8d e8 fd ff ff 	mov    -0x218(%ebp),%cx
10002628:	8d 85 e8 fd ff ff    	lea    -0x218(%ebp),%eax
1000262e:	66 85 c9             	test   %cx,%cx
10002631:	74 0f                	je     0x10002642
10002633:	66 83 38 2e          	cmpw   $0x2e,(%eax)
10002637:	74 09                	je     0x10002642
10002639:	83 c0 02             	add    $0x2,%eax
1000263c:	66 83 38 00          	cmpw   $0x0,(%eax)
10002640:	75 f1                	jne    0x10002633
10002642:	33 c9                	xor    %ecx,%ecx
10002644:	8d 9d e8 fd ff ff    	lea    -0x218(%ebp),%ebx
1000264a:	66 89 08             	mov    %cx,(%eax)
1000264d:	ba c6 4f f8 67       	mov    $0x67f84fc6,%edx
10002652:	66 8b 85 e8 fd ff ff 	mov    -0x218(%ebp),%ax
10002659:	66 85 c0             	test   %ax,%ax
1000265c:	74 35                	je     0x10002693
1000265e:	0f b7 c0             	movzwl %ax,%eax
10002661:	0f b7 c8             	movzwl %ax,%ecx
10002664:	8d 41 bf             	lea    -0x41(%ecx),%eax
10002667:	66 3b 45 f4          	cmp    -0xc(%ebp),%ax
1000266b:	77 03                	ja     0x10002670
1000266d:	83 c1 20             	add    $0x20,%ecx
10002670:	0f b7 c9             	movzwl %cx,%ecx
10002673:	83 c3 02             	add    $0x2,%ebx
10002676:	8b c1                	mov    %ecx,%eax
10002678:	0f af c9             	imul   %ecx,%ecx
1000267b:	83 e0 07             	and    $0x7,%eax
1000267e:	c1 e0 09             	shl    $0x9,%eax
10002681:	05 27 0c a2 08       	add    $0x8a20c27,%eax
10002686:	0f af d0             	imul   %eax,%edx
10002689:	0f b7 03             	movzwl (%ebx),%eax
1000268c:	33 d1                	xor    %ecx,%edx
1000268e:	66 85 c0             	test   %ax,%ax
10002691:	75 ce                	jne    0x10002661
10002693:	3b 55 f8             	cmp    -0x8(%ebp),%edx
10002696:	74 14                	je     0x100026ac
10002698:	8b 47 08             	mov    0x8(%edi),%eax
1000269b:	3b c6                	cmp    %esi,%eax
1000269d:	0f 85 ee fe ff ff    	jne    0x10002591
100026a3:	33 c0                	xor    %eax,%eax
100026a5:	5f                   	pop    %edi
100026a6:	5e                   	pop    %esi
100026a7:	5b                   	pop    %ebx
100026a8:	8b e5                	mov    %ebp,%esp
100026aa:	5d                   	pop    %ebp
100026ab:	c3                   	ret    
100026ac:	8b 47 18             	mov    0x18(%edi),%eax
100026af:	eb f4                	jmp    0x100026a5
100026b1:	55                   	push   %ebp
100026b2:	8b ec                	mov    %esp,%ebp
100026b4:	81 ec 08 02 00 00    	sub    $0x208,%esp
100026ba:	57                   	push   %edi
100026bb:	e8 9c fe ff ff       	call   0x1000255c
100026c0:	8b f8                	mov    %eax,%edi
100026c2:	81 3f 40 b7 5e 07    	cmpl   $0x75eb740,(%edi)
100026c8:	75 05                	jne    0x100026cf
100026ca:	33 c0                	xor    %eax,%eax
100026cc:	40                   	inc    %eax
100026cd:	eb 5c                	jmp    0x1000272b
100026cf:	8d 95 f8 fd ff ff    	lea    -0x208(%ebp),%edx
100026d5:	b9 60 42 00 10       	mov    $0x10004260,%ecx
100026da:	e8 7d 0f 00 00       	call   0x1000365c
100026df:	8d 85 f8 fd ff ff    	lea    -0x208(%ebp),%eax
100026e5:	50                   	push   %eax
100026e6:	ff 15 1c 40 00 10    	call   *0x1000401c
100026ec:	8d 95 f8 fd ff ff    	lea    -0x208(%ebp),%edx
100026f2:	89 87 d4 00 00 00    	mov    %eax,0xd4(%edi)
100026f8:	b9 20 42 00 10       	mov    $0x10004220,%ecx
100026fd:	e8 5a 0f 00 00       	call   0x1000365c
10002702:	8d 85 f8 fd ff ff    	lea    -0x208(%ebp),%eax
10002708:	50                   	push   %eax
10002709:	ff 15 1c 40 00 10    	call   *0x1000401c
1000270f:	83 bf d4 00 00 00 00 	cmpl   $0x0,0xd4(%edi)
10002716:	89 87 d0 00 00 00    	mov    %eax,0xd0(%edi)
1000271c:	74 0b                	je     0x10002729
1000271e:	85 c0                	test   %eax,%eax
10002720:	74 07                	je     0x10002729
10002722:	e8 09 00 00 00       	call   0x10002730
10002727:	eb 02                	jmp    0x1000272b
10002729:	33 c0                	xor    %eax,%eax
1000272b:	5f                   	pop    %edi
1000272c:	8b e5                	mov    %ebp,%esp
1000272e:	5d                   	pop    %ebp
1000272f:	c3                   	ret    
10002730:	53                   	push   %ebx
10002731:	56                   	push   %esi
10002732:	57                   	push   %edi
10002733:	e8 24 fe ff ff       	call   0x1000255c
10002738:	8b f0                	mov    %eax,%esi
1000273a:	ba 5b 55 3f bc       	mov    $0xbc3f555b,%edx
1000273f:	8b 8e d0 00 00 00    	mov    0xd0(%esi),%ecx
10002745:	83 a6 cc 00 00 00 00 	andl   $0x0,0xcc(%esi)
1000274c:	83 66 14 00          	andl   $0x0,0x14(%esi)
10002750:	e8 45 03 00 00       	call   0x10002a9a
10002755:	bf 60 42 00 10       	mov    $0x10004260,%edi
1000275a:	89 86 88 00 00 00    	mov    %eax,0x88(%esi)
10002760:	ba b8 2b 05 c9       	mov    $0xc9052bb8,%edx
10002765:	8b cf                	mov    %edi,%ecx
10002767:	e8 f7 02 00 00       	call   0x10002a63
1000276c:	ba 5c 86 f3 ea       	mov    $0xeaf3865c,%edx
10002771:	89 46 34             	mov    %eax,0x34(%esi)
10002774:	8b cf                	mov    %edi,%ecx
10002776:	e8 e8 02 00 00       	call   0x10002a63
1000277b:	89 46 38             	mov    %eax,0x38(%esi)
1000277e:	85 c0                	test   %eax,%eax
10002780:	0f 84 d7 02 00 00    	je     0x10002a5d
10002786:	ba 74 fb 32 af       	mov    $0xaf32fb74,%edx
1000278b:	8b cf                	mov    %edi,%ecx
1000278d:	e8 d1 02 00 00       	call   0x10002a63
10002792:	ba 94 1c ee c9       	mov    $0xc9ee1c94,%edx
10002797:	89 46 58             	mov    %eax,0x58(%esi)
1000279a:	8b cf                	mov    %edi,%ecx
1000279c:	e8 c2 02 00 00       	call   0x10002a63
100027a1:	ba 27 60 f0 46       	mov    $0x46f06027,%edx
100027a6:	89 46 3c             	mov    %eax,0x3c(%esi)
100027a9:	8b cf                	mov    %edi,%ecx
100027ab:	e8 b3 02 00 00       	call   0x10002a63
100027b0:	89 46 40             	mov    %eax,0x40(%esi)
100027b3:	85 c0                	test   %eax,%eax
100027b5:	0f 84 a2 02 00 00    	je     0x10002a5d
100027bb:	ba cf 0d 74 4c       	mov    $0x4c740dcf,%edx
100027c0:	8b cf                	mov    %edi,%ecx
100027c2:	e8 9c 02 00 00       	call   0x10002a63
100027c7:	89 46 10             	mov    %eax,0x10(%esi)
100027ca:	85 c0                	test   %eax,%eax
100027cc:	0f 84 8b 02 00 00    	je     0x10002a5d
100027d2:	ba 10 ee 27 d3       	mov    $0xd327ee10,%edx
100027d7:	8b cf                	mov    %edi,%ecx
100027d9:	e8 85 02 00 00       	call   0x10002a63
100027de:	89 46 24             	mov    %eax,0x24(%esi)
100027e1:	85 c0                	test   %eax,%eax
100027e3:	0f 84 74 02 00 00    	je     0x10002a5d
100027e9:	ba f7 1a d5 00       	mov    $0xd51af7,%edx
100027ee:	8b cf                	mov    %edi,%ecx
100027f0:	e8 6e 02 00 00       	call   0x10002a63
100027f5:	bb 20 42 00 10       	mov    $0x10004220,%ebx
100027fa:	89 46 50             	mov    %eax,0x50(%esi)
100027fd:	ba 0d ed 35 15       	mov    $0x1535ed0d,%edx
10002802:	8b cb                	mov    %ebx,%ecx
10002804:	e8 5a 02 00 00       	call   0x10002a63
10002809:	ba 0b 7b b6 ba       	mov    $0xbab67b0b,%edx
1000280e:	89 46 04             	mov    %eax,0x4(%esi)
10002811:	8b cb                	mov    %ebx,%ecx
10002813:	e8 4b 02 00 00       	call   0x10002a63
10002818:	89 46 08             	mov    %eax,0x8(%esi)
1000281b:	85 c0                	test   %eax,%eax
1000281d:	0f 84 3a 02 00 00    	je     0x10002a5d
10002823:	ba 86 0a bf ae       	mov    $0xaebf0a86,%edx
10002828:	8b cb                	mov    %ebx,%ecx
1000282a:	e8 34 02 00 00       	call   0x10002a63
1000282f:	ba 66 15 ed 66       	mov    $0x66ed1566,%edx
10002834:	89 46 18             	mov    %eax,0x18(%esi)
10002837:	8b cb                	mov    %ebx,%ecx
10002839:	e8 25 02 00 00       	call   0x10002a63
1000283e:	ba 19 72 9c 9f       	mov    $0x9f9c7219,%edx
10002843:	89 46 1c             	mov    %eax,0x1c(%esi)
10002846:	8b cb                	mov    %ebx,%ecx
10002848:	e8 16 02 00 00       	call   0x10002a63
1000284d:	ba 4c 12 41 f2       	mov    $0xf241124c,%edx
10002852:	89 46 30             	mov    %eax,0x30(%esi)
10002855:	8b cb                	mov    %ebx,%ecx
10002857:	e8 07 02 00 00       	call   0x10002a63
1000285c:	89 46 20             	mov    %eax,0x20(%esi)
1000285f:	85 c0                	test   %eax,%eax
10002861:	0f 84 f6 01 00 00    	je     0x10002a5d
10002867:	ba ec 8c e1 54       	mov    $0x54e18cec,%edx
1000286c:	8b cb                	mov    %ebx,%ecx
1000286e:	e8 f0 01 00 00       	call   0x10002a63
10002873:	ba 8e ac ac 75       	mov    $0x75acac8e,%edx
10002878:	89 46 28             	mov    %eax,0x28(%esi)
1000287b:	8b cb                	mov    %ebx,%ecx
1000287d:	e8 e1 01 00 00       	call   0x10002a63
10002882:	ba 12 25 33 9c       	mov    $0x9c332512,%edx
10002887:	89 46 2c             	mov    %eax,0x2c(%esi)
1000288a:	8b cb                	mov    %ebx,%ecx
1000288c:	e8 d2 01 00 00       	call   0x10002a63
10002891:	89 46 6c             	mov    %eax,0x6c(%esi)
10002894:	85 c0                	test   %eax,%eax
10002896:	0f 84 c1 01 00 00    	je     0x10002a5d
1000289c:	ba 6e 3d c9 22       	mov    $0x22c93d6e,%edx
100028a1:	8b cb                	mov    %ebx,%ecx
100028a3:	e8 bb 01 00 00       	call   0x10002a63
100028a8:	89 86 84 00 00 00    	mov    %eax,0x84(%esi)
100028ae:	85 c0                	test   %eax,%eax
100028b0:	0f 84 a7 01 00 00    	je     0x10002a5d
100028b6:	ba 03 41 0d 2c       	mov    $0x2c0d4103,%edx
100028bb:	8b cb                	mov    %ebx,%ecx
100028bd:	e8 a1 01 00 00       	call   0x10002a63
100028c2:	ba 4f a0 60 28       	mov    $0x2860a04f,%edx
100028c7:	89 46 70             	mov    %eax,0x70(%esi)
100028ca:	8b cb                	mov    %ebx,%ecx
100028cc:	e8 92 01 00 00       	call   0x10002a63
100028d1:	ba 10 8e da b3       	mov    $0xb3da8e10,%edx
100028d6:	89 46 44             	mov    %eax,0x44(%esi)
100028d9:	8b cb                	mov    %ebx,%ecx
100028db:	e8 83 01 00 00       	call   0x10002a63
100028e0:	ba fa 67 93 7e       	mov    $0x7e9367fa,%edx
100028e5:	89 46 48             	mov    %eax,0x48(%esi)
100028e8:	8b cf                	mov    %edi,%ecx
100028ea:	e8 74 01 00 00       	call   0x10002a63
100028ef:	ba b5 d8 4a 64       	mov    $0x644ad8b5,%edx
100028f4:	89 46 60             	mov    %eax,0x60(%esi)
100028f7:	8b cb                	mov    %ebx,%ecx
100028f9:	e8 65 01 00 00       	call   0x10002a63
100028fe:	ba cd c1 85 ad       	mov    $0xad85c1cd,%edx
10002903:	89 46 4c             	mov    %eax,0x4c(%esi)
10002906:	8b cb                	mov    %ebx,%ecx
10002908:	e8 56 01 00 00       	call   0x10002a63
1000290d:	89 46 5c             	mov    %eax,0x5c(%esi)
10002910:	85 c0                	test   %eax,%eax
10002912:	0f 84 45 01 00 00    	je     0x10002a5d
10002918:	ba 3d 18 50 1d       	mov    $0x1d50183d,%edx
1000291d:	8b cb                	mov    %ebx,%ecx
1000291f:	e8 3f 01 00 00       	call   0x10002a63
10002924:	89 46 54             	mov    %eax,0x54(%esi)
10002927:	85 c0                	test   %eax,%eax
10002929:	0f 84 2e 01 00 00    	je     0x10002a5d
1000292f:	ba 6b 87 b4 1c       	mov    $0x1cb4876b,%edx
10002934:	8b cb                	mov    %ebx,%ecx
10002936:	e8 28 01 00 00       	call   0x10002a63
1000293b:	ba db 8b 08 4a       	mov    $0x4a088bdb,%edx
10002940:	89 46 64             	mov    %eax,0x64(%esi)
10002943:	8b cb                	mov    %ebx,%ecx
10002945:	e8 19 01 00 00       	call   0x10002a63
1000294a:	ba 7c 78 b8 b1       	mov    $0xb1b8787c,%edx
1000294f:	89 46 68             	mov    %eax,0x68(%esi)
10002952:	8b cb                	mov    %ebx,%ecx
10002954:	e8 0a 01 00 00       	call   0x10002a63
10002959:	ba 56 f0 66 5d       	mov    $0x5d66f056,%edx
1000295e:	89 46 74             	mov    %eax,0x74(%esi)
10002961:	8b cb                	mov    %ebx,%ecx
10002963:	e8 fb 00 00 00       	call   0x10002a63
10002968:	ba 24 41 35 d1       	mov    $0xd1354124,%edx
1000296d:	89 86 80 00 00 00    	mov    %eax,0x80(%esi)
10002973:	8b cb                	mov    %ebx,%ecx
10002975:	e8 e9 00 00 00       	call   0x10002a63
1000297a:	89 46 78             	mov    %eax,0x78(%esi)
1000297d:	85 c0                	test   %eax,%eax
1000297f:	0f 84 d8 00 00 00    	je     0x10002a5d
10002985:	ba 73 80 73 49       	mov    $0x49738073,%edx
1000298a:	8b cb                	mov    %ebx,%ecx
1000298c:	e8 d2 00 00 00       	call   0x10002a63
10002991:	89 46 7c             	mov    %eax,0x7c(%esi)
10002994:	85 c0                	test   %eax,%eax
10002996:	0f 84 c1 00 00 00    	je     0x10002a5d
1000299c:	ba cf 3f cf 8d       	mov    $0x8dcf3fcf,%edx
100029a1:	8b cf                	mov    %edi,%ecx
100029a3:	e8 bb 00 00 00       	call   0x10002a63
100029a8:	ba 68 63 ff 1e       	mov    $0x1eff6368,%edx
100029ad:	89 86 90 00 00 00    	mov    %eax,0x90(%esi)
100029b3:	8b cf                	mov    %edi,%ecx
100029b5:	e8 a9 00 00 00       	call   0x10002a63
100029ba:	ba 36 44 2d ba       	mov    $0xba2d4436,%edx
100029bf:	89 86 8c 00 00 00    	mov    %eax,0x8c(%esi)
100029c5:	8b cb                	mov    %ebx,%ecx
100029c7:	e8 97 00 00 00       	call   0x10002a63
100029cc:	ba 09 bf ee e9       	mov    $0xe9eebf09,%edx
100029d1:	89 46 0c             	mov    %eax,0xc(%esi)
100029d4:	8b cb                	mov    %ebx,%ecx
100029d6:	e8 88 00 00 00       	call   0x10002a63
100029db:	ba ea a2 b8 ee       	mov    $0xeeb8a2ea,%edx
100029e0:	89 86 a4 00 00 00    	mov    %eax,0xa4(%esi)
100029e6:	8b cb                	mov    %ebx,%ecx
100029e8:	e8 76 00 00 00       	call   0x10002a63
100029ed:	bf d0 41 00 10       	mov    $0x100041d0,%edi
100029f2:	89 86 94 00 00 00    	mov    %eax,0x94(%esi)
100029f8:	ba c0 ed 4c 61       	mov    $0x614cedc0,%edx
100029fd:	8b cf                	mov    %edi,%ecx
100029ff:	e8 5f 00 00 00       	call   0x10002a63
10002a04:	ba fe f5 47 ab       	mov    $0xab47f5fe,%edx
10002a09:	89 86 98 00 00 00    	mov    %eax,0x98(%esi)
10002a0f:	8b cf                	mov    %edi,%ecx
10002a11:	e8 4d 00 00 00       	call   0x10002a63
10002a16:	ba 78 97 8b 33       	mov    $0x338b9778,%edx
10002a1b:	89 86 9c 00 00 00    	mov    %eax,0x9c(%esi)
10002a21:	8b cb                	mov    %ebx,%ecx
10002a23:	e8 3b 00 00 00       	call   0x10002a63
10002a28:	ba 58 59 00 4e       	mov    $0x4e005958,%edx
10002a2d:	89 86 a0 00 00 00    	mov    %eax,0xa0(%esi)
10002a33:	8b cb                	mov    %ebx,%ecx
10002a35:	e8 29 00 00 00       	call   0x10002a63
10002a3a:	ba 00 51 7b a1       	mov    $0xa17b5100,%edx
10002a3f:	89 86 a8 00 00 00    	mov    %eax,0xa8(%esi)
10002a45:	8b cb                	mov    %ebx,%ecx
10002a47:	e8 17 00 00 00       	call   0x10002a63
10002a4c:	89 86 ac 00 00 00    	mov    %eax,0xac(%esi)
10002a52:	33 c0                	xor    %eax,%eax
10002a54:	c7 06 40 b7 5e 07    	movl   $0x75eb740,(%esi)
10002a5a:	40                   	inc    %eax
10002a5b:	eb 02                	jmp    0x10002a5f
10002a5d:	33 c0                	xor    %eax,%eax
10002a5f:	5f                   	pop    %edi
10002a60:	5e                   	pop    %esi
10002a61:	5b                   	pop    %ebx
10002a62:	c3                   	ret    
10002a63:	55                   	push   %ebp
10002a64:	8b ec                	mov    %esp,%ebp
10002a66:	81 ec 08 02 00 00    	sub    $0x208,%esp
10002a6c:	56                   	push   %esi
10002a6d:	8b f2                	mov    %edx,%esi
10002a6f:	8d 95 f8 fd ff ff    	lea    -0x208(%ebp),%edx
10002a75:	e8 e2 0b 00 00       	call   0x1000365c
10002a7a:	e8 dd fa ff ff       	call   0x1000255c
10002a7f:	8d 8d f8 fd ff ff    	lea    -0x208(%ebp),%ecx
10002a85:	51                   	push   %ecx
10002a86:	ff 90 88 00 00 00    	call   *0x88(%eax)
10002a8c:	8b d6                	mov    %esi,%edx
10002a8e:	8b c8                	mov    %eax,%ecx
10002a90:	e8 05 00 00 00       	call   0x10002a9a
10002a95:	5e                   	pop    %esi
10002a96:	8b e5                	mov    %ebp,%esp
10002a98:	5d                   	pop    %ebp
10002a99:	c3                   	ret    
10002a9a:	55                   	push   %ebp
10002a9b:	8b ec                	mov    %esp,%ebp
10002a9d:	83 e4 f8             	and    $0xfffffff8,%esp
10002aa0:	83 ec 34             	sub    $0x34,%esp
10002aa3:	53                   	push   %ebx
10002aa4:	56                   	push   %esi
10002aa5:	8b f1                	mov    %ecx,%esi
10002aa7:	89 54 24 24          	mov    %edx,0x24(%esp)
10002aab:	57                   	push   %edi
10002aac:	85 f6                	test   %esi,%esi
10002aae:	0f 84 f7 00 00 00    	je     0x10002bab
10002ab4:	0f b7 06             	movzwl (%esi),%eax
10002ab7:	b9 ab 4f 5e cd       	mov    $0xcd5e4fab,%ecx
10002abc:	33 c1                	xor    %ecx,%eax
10002abe:	3d e6 15 5e cd       	cmp    $0xcd5e15e6,%eax
10002ac3:	0f 85 e2 00 00 00    	jne    0x10002bab
10002ac9:	8b 5e 3c             	mov    0x3c(%esi),%ebx
10002acc:	03 de                	add    %esi,%ebx
10002ace:	89 5c 24 2c          	mov    %ebx,0x2c(%esp)
10002ad2:	8b 03                	mov    (%ebx),%eax
10002ad4:	8b 53 78             	mov    0x78(%ebx),%edx
10002ad7:	33 c1                	xor    %ecx,%eax
10002ad9:	03 d6                	add    %esi,%edx
10002adb:	3d fb 0a 5e cd       	cmp    $0xcd5e0afb,%eax
10002ae0:	0f 85 c5 00 00 00    	jne    0x10002bab
10002ae6:	3b d6                	cmp    %esi,%edx
10002ae8:	0f 84 bd 00 00 00    	je     0x10002bab
10002aee:	8b 42 24             	mov    0x24(%edx),%eax
10002af1:	8b 7a 20             	mov    0x20(%edx),%edi
10002af4:	03 c6                	add    %esi,%eax
10002af6:	89 44 24 30          	mov    %eax,0x30(%esp)
10002afa:	03 fe                	add    %esi,%edi
10002afc:	8b 42 1c             	mov    0x1c(%edx),%eax
10002aff:	03 c6                	add    %esi,%eax
10002b01:	89 44 24 38          	mov    %eax,0x38(%esp)
10002b05:	33 c0                	xor    %eax,%eax
10002b07:	89 44 24 1c          	mov    %eax,0x1c(%esp)
10002b0b:	39 42 18             	cmp    %eax,0x18(%edx)
10002b0e:	0f 86 97 00 00 00    	jbe    0x10002bab
10002b14:	b9 c6 4f f8 67       	mov    $0x67f84fc6,%ecx
10002b19:	89 4c 24 24          	mov    %ecx,0x24(%esp)
10002b1d:	8b 07                	mov    (%edi),%eax
10002b1f:	03 c6                	add    %esi,%eax
10002b21:	c7 44 24 14 ff ff 3f 	movl   $0x3fffff,0x14(%esp)
10002b28:	00 
10002b29:	89 44 24 20          	mov    %eax,0x20(%esp)
10002b2d:	89 4c 24 18          	mov    %ecx,0x18(%esp)
10002b31:	8a 00                	mov    (%eax),%al
10002b33:	88 44 24 13          	mov    %al,0x13(%esp)
10002b37:	84 c0                	test   %al,%al
10002b39:	8b 44 24 1c          	mov    0x1c(%esp),%eax
10002b3d:	74 4d                	je     0x10002b8c
10002b3f:	8b 4c 24 14          	mov    0x14(%esp),%ecx
10002b43:	8a 44 24 13          	mov    0x13(%esp),%al
10002b47:	8b 5c 24 18          	mov    0x18(%esp),%ebx
10002b4b:	85 c9                	test   %ecx,%ecx
10002b4d:	7e 30                	jle    0x10002b7f
10002b4f:	0f b6 c8             	movzbl %al,%ecx
10002b52:	8b c1                	mov    %ecx,%eax
10002b54:	0f af c9             	imul   %ecx,%ecx
10002b57:	83 e0 07             	and    $0x7,%eax
10002b5a:	c1 e0 09             	shl    $0x9,%eax
10002b5d:	05 27 0c a2 08       	add    $0x8a20c27,%eax
10002b62:	0f af d8             	imul   %eax,%ebx
10002b65:	8b 44 24 20          	mov    0x20(%esp),%eax
10002b69:	33 d9                	xor    %ecx,%ebx
10002b6b:	8b 4c 24 14          	mov    0x14(%esp),%ecx
10002b6f:	40                   	inc    %eax
10002b70:	49                   	dec    %ecx
10002b71:	89 44 24 20          	mov    %eax,0x20(%esp)
10002b75:	89 4c 24 14          	mov    %ecx,0x14(%esp)
10002b79:	8a 00                	mov    (%eax),%al
10002b7b:	84 c0                	test   %al,%al
10002b7d:	75 cc                	jne    0x10002b4b
10002b7f:	8b 44 24 1c          	mov    0x1c(%esp),%eax
10002b83:	b9 c6 4f f8 67       	mov    $0x67f84fc6,%ecx
10002b88:	89 5c 24 18          	mov    %ebx,0x18(%esp)
10002b8c:	8b 5c 24 28          	mov    0x28(%esp),%ebx
10002b90:	3b 5c 24 18          	cmp    0x18(%esp),%ebx
10002b94:	8b 5c 24 2c          	mov    0x2c(%esp),%ebx
10002b98:	74 1a                	je     0x10002bb4
10002b9a:	40                   	inc    %eax
10002b9b:	83 c7 04             	add    $0x4,%edi
10002b9e:	89 44 24 1c          	mov    %eax,0x1c(%esp)
10002ba2:	3b 42 18             	cmp    0x18(%edx),%eax
10002ba5:	0f 82 72 ff ff ff    	jb     0x10002b1d
10002bab:	33 c0                	xor    %eax,%eax
10002bad:	5f                   	pop    %edi
10002bae:	5e                   	pop    %esi
10002baf:	5b                   	pop    %ebx
10002bb0:	8b e5                	mov    %ebp,%esp
10002bb2:	5d                   	pop    %ebp
10002bb3:	c3                   	ret    
10002bb4:	8b 4c 24 30          	mov    0x30(%esp),%ecx
10002bb8:	8b 7c 24 38          	mov    0x38(%esp),%edi
10002bbc:	0f b7 04 41          	movzwl (%ecx,%eax,2),%eax
10002bc0:	8b 3c 87             	mov    (%edi,%eax,4),%edi
10002bc3:	03 fe                	add    %esi,%edi
10002bc5:	3b fa                	cmp    %edx,%edi
10002bc7:	0f 82 2d 01 00 00    	jb     0x10002cfa
10002bcd:	8b 43 7c             	mov    0x7c(%ebx),%eax
10002bd0:	03 c2                	add    %edx,%eax
10002bd2:	3b f8                	cmp    %eax,%edi
10002bd4:	0f 83 20 01 00 00    	jae    0x10002cfa
10002bda:	8a 07                	mov    (%edi),%al
10002bdc:	33 f6                	xor    %esi,%esi
10002bde:	8b d7                	mov    %edi,%edx
10002be0:	84 c0                	test   %al,%al
10002be2:	74 c7                	je     0x10002bab
10002be4:	33 c9                	xor    %ecx,%ecx
10002be6:	3c 2e                	cmp    $0x2e,%al
10002be8:	75 02                	jne    0x10002bec
10002bea:	8b f1                	mov    %ecx,%esi
10002bec:	42                   	inc    %edx
10002bed:	41                   	inc    %ecx
10002bee:	8a 02                	mov    (%edx),%al
10002bf0:	84 c0                	test   %al,%al
10002bf2:	75 f2                	jne    0x10002be6
10002bf4:	85 f6                	test   %esi,%esi
10002bf6:	7e b3                	jle    0x10002bab
10002bf8:	b8 c6 4f f8 67       	mov    $0x67f84fc6,%eax
10002bfd:	8b de                	mov    %esi,%ebx
10002bff:	8b d7                	mov    %edi,%edx
10002c01:	89 44 24 20          	mov    %eax,0x20(%esp)
10002c05:	85 db                	test   %ebx,%ebx
10002c07:	7e 34                	jle    0x10002c3d
10002c09:	0f b6 0a             	movzbl (%edx),%ecx
10002c0c:	8d 41 bf             	lea    -0x41(%ecx),%eax
10002c0f:	66 83 f8 19          	cmp    $0x19,%ax
10002c13:	77 03                	ja     0x10002c18
10002c15:	83 c1 20             	add    $0x20,%ecx
10002c18:	0f b7 c9             	movzwl %cx,%ecx
10002c1b:	8b c1                	mov    %ecx,%eax
10002c1d:	0f af c9             	imul   %ecx,%ecx
10002c20:	83 e0 07             	and    $0x7,%eax
10002c23:	c1 e0 09             	shl    $0x9,%eax
10002c26:	05 27 0c a2 08       	add    $0x8a20c27,%eax
10002c2b:	0f af 44 24 20       	imul   0x20(%esp),%eax
10002c30:	33 c1                	xor    %ecx,%eax
10002c32:	42                   	inc    %edx
10002c33:	4b                   	dec    %ebx
10002c34:	89 44 24 20          	mov    %eax,0x20(%esp)
10002c38:	80 3a 00             	cmpb   $0x0,(%edx)
10002c3b:	75 c8                	jne    0x10002c05
10002c3d:	8b c8                	mov    %eax,%ecx
10002c3f:	e8 1e f9 ff ff       	call   0x10002562
10002c44:	8b d8                	mov    %eax,%ebx
10002c46:	89 5c 24 14          	mov    %ebx,0x14(%esp)
10002c4a:	85 db                	test   %ebx,%ebx
10002c4c:	75 5b                	jne    0x10002ca9
10002c4e:	89 7c 24 3c          	mov    %edi,0x3c(%esp)
10002c52:	66 89 74 24 38       	mov    %si,0x38(%esp)
10002c57:	66 89 74 24 3a       	mov    %si,0x3a(%esp)
10002c5c:	e8 fb f8 ff ff       	call   0x1000255c
10002c61:	8b d8                	mov    %eax,%ebx
10002c63:	8d 44 24 38          	lea    0x38(%esp),%eax
10002c67:	6a 01                	push   $0x1
10002c69:	50                   	push   %eax
10002c6a:	8d 44 24 38          	lea    0x38(%esp),%eax
10002c6e:	50                   	push   %eax
10002c6f:	ff 53 10             	call   *0x10(%ebx)
10002c72:	85 c0                	test   %eax,%eax
10002c74:	0f 85 31 ff ff ff    	jne    0x10002bab
10002c7a:	8d 44 24 14          	lea    0x14(%esp),%eax
10002c7e:	50                   	push   %eax
10002c7f:	8d 44 24 34          	lea    0x34(%esp),%eax
10002c83:	50                   	push   %eax
10002c84:	6a 00                	push   $0x0
10002c86:	6a 00                	push   $0x0
10002c88:	ff 53 34             	call   *0x34(%ebx)
10002c8b:	f7 d8                	neg    %eax
10002c8d:	1b c0                	sbb    %eax,%eax
10002c8f:	f7 d0                	not    %eax
10002c91:	21 44 24 14          	and    %eax,0x14(%esp)
10002c95:	8d 44 24 30          	lea    0x30(%esp),%eax
10002c99:	50                   	push   %eax
10002c9a:	ff 53 24             	call   *0x24(%ebx)
10002c9d:	8b 5c 24 14          	mov    0x14(%esp),%ebx
10002ca1:	85 db                	test   %ebx,%ebx
10002ca3:	0f 84 02 ff ff ff    	je     0x10002bab
10002ca9:	46                   	inc    %esi
10002caa:	03 f7                	add    %edi,%esi
10002cac:	8a 06                	mov    (%esi),%al
10002cae:	84 c0                	test   %al,%al
10002cb0:	74 38                	je     0x10002cea
10002cb2:	bb c6 4f f8 67       	mov    $0x67f84fc6,%ebx
10002cb7:	ba ff ff 3f 00       	mov    $0x3fffff,%edx
10002cbc:	85 d2                	test   %edx,%edx
10002cbe:	7e 22                	jle    0x10002ce2
10002cc0:	0f b6 c8             	movzbl %al,%ecx
10002cc3:	8b c1                	mov    %ecx,%eax
10002cc5:	0f af c9             	imul   %ecx,%ecx
10002cc8:	83 e0 07             	and    $0x7,%eax
10002ccb:	c1 e0 09             	shl    $0x9,%eax
10002cce:	05 27 0c a2 08       	add    $0x8a20c27,%eax
10002cd3:	0f af c3             	imul   %ebx,%eax
10002cd6:	33 c1                	xor    %ecx,%eax
10002cd8:	46                   	inc    %esi
10002cd9:	8b d8                	mov    %eax,%ebx
10002cdb:	4a                   	dec    %edx
10002cdc:	8a 06                	mov    (%esi),%al
10002cde:	84 c0                	test   %al,%al
10002ce0:	75 da                	jne    0x10002cbc
10002ce2:	89 5c 24 24          	mov    %ebx,0x24(%esp)
10002ce6:	8b 5c 24 14          	mov    0x14(%esp),%ebx
10002cea:	8b 54 24 24          	mov    0x24(%esp),%edx
10002cee:	8b cb                	mov    %ebx,%ecx
10002cf0:	e8 a5 fd ff ff       	call   0x10002a9a
10002cf5:	e9 b3 fe ff ff       	jmp    0x10002bad
10002cfa:	8b c7                	mov    %edi,%eax
10002cfc:	e9 ac fe ff ff       	jmp    0x10002bad
10002d01:	cc                   	int3   
10002d02:	55                   	push   %ebp
10002d03:	8b ec                	mov    %esp,%ebp
10002d05:	83 e4 f8             	and    $0xfffffff8,%esp
10002d08:	83 7d 0c 01          	cmpl   $0x1,0xc(%ebp)
10002d0c:	75 22                	jne    0x10002d30
10002d0e:	ff 15 04 55 00 10    	call   *0x10005504
10002d14:	50                   	push   %eax
10002d15:	68 c9 86 63 ae       	push   $0xae6386c9
10002d1a:	6a 00                	push   $0x0
10002d1c:	68 43 51 a9 12       	push   $0x12a95143
10002d21:	68 f2 c9 dd 2d       	push   $0x2dddc9f2
10002d26:	6a 02                	push   $0x2
10002d28:	e8 cf 06 00 00       	call   0x100033fc
10002d2d:	83 c4 18             	add    $0x18,%esp
10002d30:	33 c0                	xor    %eax,%eax
10002d32:	40                   	inc    %eax
10002d33:	8b e5                	mov    %ebp,%esp
10002d35:	5d                   	pop    %ebp
10002d36:	c2 0c 00             	ret    $0xc
10002d39:	6a 08                	push   $0x8
10002d3b:	68 70 43 00 10       	push   $0x10004370
10002d40:	e8 cb f7 ff ff       	call   0x10002510
10002d45:	33 f6                	xor    %esi,%esi
10002d47:	89 75 fc             	mov    %esi,-0x4(%ebp)
10002d4a:	ff 4d 08             	decl   0x8(%ebp)
10002d4d:	75 79                	jne    0x10002dc8
10002d4f:	89 35 ec 5b 00 10    	mov    %esi,0x10005bec
10002d55:	c7 05 e8 5b 00 10 20 	movl   $0x20,0x10005be8
10002d5c:	00 00 00 
10002d5f:	89 35 f0 5b 00 10    	mov    %esi,0x10005bf0
10002d65:	c7 05 f8 5b 00 10 04 	movl   $0x4,0x10005bf8
10002d6c:	00 00 00 
10002d6f:	68 e4 5b 00 10       	push   $0x10005be4
10002d74:	ff 35 e0 5b 00 10    	pushl  0x10005be0
10002d7a:	ff 15 08 40 00 10    	call   *0x10004008
10002d80:	85 c0                	test   %eax,%eax
10002d82:	75 44                	jne    0x10002dc8
10002d84:	ff 15 ad 54 00 10    	call   *0x100054ad
10002d8a:	50                   	push   %eax
10002d8b:	68 c9 86 63 ae       	push   $0xae6386c9
10002d90:	56                   	push   %esi
10002d91:	68 43 51 a9 12       	push   $0x12a95143
10002d96:	68 f2 cf 51 93       	push   $0x9351cff2
10002d9b:	56                   	push   %esi
10002d9c:	e8 5b 06 00 00       	call   0x100033fc
10002da1:	83 c4 18             	add    $0x18,%esp
10002da4:	eb 22                	jmp    0x10002dc8
10002da6:	33 c0                	xor    %eax,%eax
10002da8:	40                   	inc    %eax
10002da9:	c3                   	ret    
10002daa:	8b 65 e8             	mov    -0x18(%ebp),%esp
10002dad:	68 c9 86 63 ae       	push   $0xae6386c9
10002db2:	33 f6                	xor    %esi,%esi
10002db4:	56                   	push   %esi
10002db5:	68 41 51 a9 12       	push   $0x12a95141
10002dba:	68 73 e2 0d e4       	push   $0xe40de273
10002dbf:	56                   	push   %esi
10002dc0:	e8 37 06 00 00       	call   0x100033fc
10002dc5:	83 c4 14             	add    $0x14,%esp
10002dc8:	83 4d fc ff          	orl    $0xffffffff,-0x4(%ebp)
10002dcc:	e8 7a f7 ff ff       	call   0x1000254b
10002dd1:	c2 04 00             	ret    $0x4
10002dd4:	6a 0c                	push   $0xc
10002dd6:	68 80 43 00 10       	push   $0x10004380
10002ddb:	e8 30 f7 ff ff       	call   0x10002510
10002de0:	33 f6                	xor    %esi,%esi
10002de2:	8b fe                	mov    %esi,%edi
10002de4:	89 75 fc             	mov    %esi,-0x4(%ebp)
10002de7:	c7 05 ec 5b 00 10 01 	movl   $0x1,0x10005bec
10002dee:	00 00 00 
10002df1:	c7 05 e8 5b 00 10 04 	movl   $0x4,0x10005be8
10002df8:	00 00 00 
10002dfb:	89 35 f0 5b 00 10    	mov    %esi,0x10005bf0
10002e01:	89 35 f8 5b 00 10    	mov    %esi,0x10005bf8
10002e07:	bb c9 86 63 ae       	mov    $0xae6386c9,%ebx
10002e0c:	53                   	push   %ebx
10002e0d:	56                   	push   %esi
10002e0e:	68 41 51 a9 12       	push   $0x12a95141
10002e13:	68 5d af 14 a9       	push   $0xa914af5d
10002e18:	6a 02                	push   $0x2
10002e1a:	e8 dd 05 00 00       	call   0x100033fc
10002e1f:	83 c4 14             	add    $0x14,%esp
10002e22:	68 39 2d 00 10       	push   $0x10002d39
10002e27:	68 24 41 00 10       	push   $0x10004124
10002e2c:	ff 15 04 40 00 10    	call   *0x10004004
10002e32:	a3 e0 5b 00 10       	mov    %eax,0x10005be0
10002e37:	85 c0                	test   %eax,%eax
10002e39:	75 21                	jne    0x10002e5c
10002e3b:	ff 15 ad 54 00 10    	call   *0x100054ad
10002e41:	50                   	push   %eax
10002e42:	53                   	push   %ebx
10002e43:	56                   	push   %esi
10002e44:	68 43 51 a9 12       	push   $0x12a95143
10002e49:	68 07 10 ac 12       	push   $0x12ac1007
10002e4e:	56                   	push   %esi
10002e4f:	e8 a8 05 00 00       	call   0x100033fc
10002e54:	83 c4 18             	add    $0x18,%esp
10002e57:	e9 c3 00 00 00       	jmp    0x10002f1f
10002e5c:	68 e4 5b 00 10       	push   $0x10005be4
10002e61:	50                   	push   %eax
10002e62:	8b 1d 08 40 00 10    	mov    0x10004008,%ebx
10002e68:	ff d3                	call   *%ebx
10002e6a:	85 c0                	test   %eax,%eax
10002e6c:	75 19                	jne    0x10002e87
10002e6e:	ff 15 ad 54 00 10    	call   *0x100054ad
10002e74:	50                   	push   %eax
10002e75:	68 c9 86 63 ae       	push   $0xae6386c9
10002e7a:	56                   	push   %esi
10002e7b:	68 43 51 a9 12       	push   $0x12a95143
10002e80:	68 67 14 f0 90       	push   $0x90f01467
10002e85:	eb c7                	jmp    0x10002e4e
10002e87:	89 35 ec 5b 00 10    	mov    %esi,0x10005bec
10002e8d:	33 ff                	xor    %edi,%edi
10002e8f:	47                   	inc    %edi
10002e90:	89 3d e8 5b 00 10    	mov    %edi,0x10005be8
10002e96:	89 35 f0 5b 00 10    	mov    %esi,0x10005bf0
10002e9c:	c7 05 f8 5b 00 10 03 	movl   $0x3,0x10005bf8
10002ea3:	00 00 00 
10002ea6:	68 10 27 00 00       	push   $0x2710
10002eab:	ff 15 96 54 00 10    	call   *0x10005496
10002eb1:	68 e4 5b 00 10       	push   $0x10005be4
10002eb6:	ff 35 e0 5b 00 10    	pushl  0x10005be0
10002ebc:	ff d3                	call   *%ebx
10002ebe:	85 c0                	test   %eax,%eax
10002ec0:	75 20                	jne    0x10002ee2
10002ec2:	ff 15 ad 54 00 10    	call   *0x100054ad
10002ec8:	50                   	push   %eax
10002ec9:	68 c9 86 63 ae       	push   $0xae6386c9
10002ece:	56                   	push   %esi
10002ecf:	68 43 51 a9 12       	push   $0x12a95143
10002ed4:	68 11 d1 ce a7       	push   $0xa7ced111
10002ed9:	56                   	push   %esi
10002eda:	e8 1d 05 00 00       	call   0x100033fc
10002edf:	83 c4 18             	add    $0x18,%esp
10002ee2:	68 40 41 00 10       	push   $0x10004140
10002ee7:	56                   	push   %esi
10002ee8:	57                   	push   %edi
10002ee9:	e8 dc 08 00 00       	call   0x100037ca
10002eee:	50                   	push   %eax
10002eef:	ff 15 cd 54 00 10    	call   *0x100054cd
10002ef5:	8b f8                	mov    %eax,%edi
10002ef7:	89 7d e4             	mov    %edi,-0x1c(%ebp)
10002efa:	85 ff                	test   %edi,%edi
10002efc:	74 50                	je     0x10002f4e
10002efe:	68 c9 86 63 ae       	push   $0xae6386c9
10002f03:	56                   	push   %esi
10002f04:	68 41 51 a9 12       	push   $0x12a95141
10002f09:	68 48 78 cf 29       	push   $0x29cf7848
10002f0e:	6a 02                	push   $0x2
10002f10:	e8 e7 04 00 00       	call   0x100033fc
10002f15:	83 c4 14             	add    $0x14,%esp
10002f18:	57                   	push   %edi
10002f19:	ff 15 89 54 00 10    	call   *0x10005489
10002f1f:	85 ff                	test   %edi,%edi
10002f21:	74 2b                	je     0x10002f4e
10002f23:	57                   	push   %edi
10002f24:	ff 15 ec 54 00 10    	call   *0x100054ec
10002f2a:	eb 22                	jmp    0x10002f4e
10002f2c:	33 c0                	xor    %eax,%eax
10002f2e:	40                   	inc    %eax
10002f2f:	c3                   	ret    
10002f30:	8b 65 e8             	mov    -0x18(%ebp),%esp
10002f33:	68 c9 86 63 ae       	push   $0xae6386c9
10002f38:	33 f6                	xor    %esi,%esi
10002f3a:	56                   	push   %esi
10002f3b:	68 41 51 a9 12       	push   $0x12a95141
10002f40:	68 73 e2 0d e4       	push   $0xe40de273
10002f45:	56                   	push   %esi
10002f46:	e8 b1 04 00 00       	call   0x100033fc
10002f4b:	83 c4 14             	add    $0x14,%esp
10002f4e:	83 4d fc ff          	orl    $0xffffffff,-0x4(%ebp)
10002f52:	e8 f4 f5 ff ff       	call   0x1000254b
10002f57:	c2 08 00             	ret    $0x8
10002f5a:	6a 1c                	push   $0x1c
10002f5c:	68 90 43 00 10       	push   $0x10004390
10002f61:	e8 aa f5 ff ff       	call   0x10002510
10002f66:	33 f6                	xor    %esi,%esi
10002f68:	89 75 d4             	mov    %esi,-0x2c(%ebp)
10002f6b:	c7 45 d8 d4 2d 00 10 	movl   $0x10002dd4,-0x28(%ebp)
10002f72:	89 75 dc             	mov    %esi,-0x24(%ebp)
10002f75:	89 75 e0             	mov    %esi,-0x20(%ebp)
10002f78:	8b c6                	mov    %esi,%eax
10002f7a:	89 45 e4             	mov    %eax,-0x1c(%ebp)
10002f7d:	89 75 fc             	mov    %esi,-0x4(%ebp)
10002f80:	c7 05 e4 5b 00 10 10 	movl   $0x10,0x10005be4
10002f87:	00 00 00 
10002f8a:	c7 05 e8 5b 00 10 02 	movl   $0x2,0x10005be8
10002f91:	00 00 00 
10002f94:	c7 45 d4 24 41 00 10 	movl   $0x10004124,-0x2c(%ebp)
10002f9b:	8b 3d 50 54 00 10    	mov    0x10005450,%edi
10002fa1:	ff d7                	call   *%edi
10002fa3:	ba 9c 41 00 10       	mov    $0x1000419c,%edx
10002fa8:	8b c8                	mov    %eax,%ecx
10002faa:	e8 e5 06 00 00       	call   0x10003694
10002faf:	85 c0                	test   %eax,%eax
10002fb1:	74 21                	je     0x10002fd4
10002fb3:	bf c9 86 63 ae       	mov    $0xae6386c9,%edi
10002fb8:	57                   	push   %edi
10002fb9:	56                   	push   %esi
10002fba:	bb 41 51 a9 12       	mov    $0x12a95141,%ebx
10002fbf:	53                   	push   %ebx
10002fc0:	68 d0 26 5f 1a       	push   $0x1a5f26d0
10002fc5:	6a 02                	push   $0x2
10002fc7:	e8 30 04 00 00       	call   0x100033fc
10002fcc:	83 c4 14             	add    $0x14,%esp
10002fcf:	e9 89 00 00 00       	jmp    0x1000305d
10002fd4:	ff d7                	call   *%edi
10002fd6:	ba b0 41 00 10       	mov    $0x100041b0,%edx
10002fdb:	8b c8                	mov    %eax,%ecx
10002fdd:	e8 b2 06 00 00       	call   0x10003694
10002fe2:	bf c9 86 63 ae       	mov    $0xae6386c9,%edi
10002fe7:	bb 41 51 a9 12       	mov    $0x12a95141,%ebx
10002fec:	57                   	push   %edi
10002fed:	56                   	push   %esi
10002fee:	53                   	push   %ebx
10002fef:	85 c0                	test   %eax,%eax
10002ff1:	74 76                	je     0x10003069
10002ff3:	68 24 2d 14 be       	push   $0xbe142d24
10002ff8:	6a 02                	push   $0x2
10002ffa:	e8 fd 03 00 00       	call   0x100033fc
10002fff:	83 c4 14             	add    $0x14,%esp
10003002:	68 40 41 00 10       	push   $0x10004140
10003007:	56                   	push   %esi
10003008:	6a 01                	push   $0x1
1000300a:	e8 bb 07 00 00       	call   0x100037ca
1000300f:	50                   	push   %eax
10003010:	ff 15 cd 54 00 10    	call   *0x100054cd
10003016:	89 45 e4             	mov    %eax,-0x1c(%ebp)
10003019:	85 c0                	test   %eax,%eax
1000301b:	75 0d                	jne    0x1000302a
1000301d:	57                   	push   %edi
1000301e:	56                   	push   %esi
1000301f:	53                   	push   %ebx
10003020:	68 60 3c 9a 05       	push   $0x59a3c60
10003025:	e9 89 00 00 00       	jmp    0x100030b3
1000302a:	68 20 4e 00 00       	push   $0x4e20
1000302f:	50                   	push   %eax
10003030:	ff 15 74 54 00 10    	call   *0x10005474
10003036:	3d 02 01 00 00       	cmp    $0x102,%eax
1000303b:	75 3b                	jne    0x10003078
1000303d:	57                   	push   %edi
1000303e:	56                   	push   %esi
1000303f:	53                   	push   %ebx
10003040:	68 1b c9 a4 d1       	push   $0xd1a4c91b
10003045:	56                   	push   %esi
10003046:	e8 b1 03 00 00       	call   0x100033fc
1000304b:	83 c4 14             	add    $0x14,%esp
1000304e:	8b 45 e4             	mov    -0x1c(%ebp),%eax
10003051:	50                   	push   %eax
10003052:	ff 15 ec 54 00 10    	call   *0x100054ec
10003058:	8b c6                	mov    %esi,%eax
1000305a:	89 45 e4             	mov    %eax,-0x1c(%ebp)
1000305d:	8d 45 d4             	lea    -0x2c(%ebp),%eax
10003060:	50                   	push   %eax
10003061:	ff 15 00 40 00 10    	call   *0x10004000
10003067:	eb 0f                	jmp    0x10003078
10003069:	68 db cc a3 dd       	push   $0xdda3ccdb
1000306e:	6a 02                	push   $0x2
10003070:	e8 87 03 00 00       	call   0x100033fc
10003075:	83 c4 14             	add    $0x14,%esp
10003078:	57                   	push   %edi
10003079:	56                   	push   %esi
1000307a:	53                   	push   %ebx
1000307b:	68 db 4b 5b d9       	push   $0xd95b4bdb
10003080:	6a 02                	push   $0x2
10003082:	e8 75 03 00 00       	call   0x100033fc
10003087:	83 c4 14             	add    $0x14,%esp
1000308a:	8b 45 e4             	mov    -0x1c(%ebp),%eax
1000308d:	85 c0                	test   %eax,%eax
1000308f:	74 2b                	je     0x100030bc
10003091:	50                   	push   %eax
10003092:	ff 15 ec 54 00 10    	call   *0x100054ec
10003098:	eb 22                	jmp    0x100030bc
1000309a:	33 c0                	xor    %eax,%eax
1000309c:	40                   	inc    %eax
1000309d:	c3                   	ret    
1000309e:	8b 65 e8             	mov    -0x18(%ebp),%esp
100030a1:	68 c9 86 63 ae       	push   $0xae6386c9
100030a6:	33 f6                	xor    %esi,%esi
100030a8:	56                   	push   %esi
100030a9:	68 41 51 a9 12       	push   $0x12a95141
100030ae:	68 10 9d 28 7a       	push   $0x7a289d10
100030b3:	56                   	push   %esi
100030b4:	e8 43 03 00 00       	call   0x100033fc
100030b9:	83 c4 14             	add    $0x14,%esp
100030bc:	83 4d fc ff          	orl    $0xffffffff,-0x4(%ebp)
100030c0:	33 c0                	xor    %eax,%eax
100030c2:	e8 84 f4 ff ff       	call   0x1000254b
100030c7:	c3                   	ret    
100030c8:	55                   	push   %ebp
100030c9:	8b ec                	mov    %esp,%ebp
100030cb:	53                   	push   %ebx
100030cc:	56                   	push   %esi
100030cd:	33 d2                	xor    %edx,%edx
100030cf:	57                   	push   %edi
100030d0:	8b fa                	mov    %edx,%edi
100030d2:	8b f2                	mov    %edx,%esi
100030d4:	85 f6                	test   %esi,%esi
100030d6:	74 2e                	je     0x10003106
100030d8:	83 fe 10             	cmp    $0x10,%esi
100030db:	74 19                	je     0x100030f6
100030dd:	83 fe 20             	cmp    $0x20,%esi
100030e0:	75 32                	jne    0x10003114
100030e2:	69 7d 0c 84 ae 2f 40 	imul   $0x402fae84,0xc(%ebp),%edi
100030e9:	69 55 08 f9 d2 18 b9 	imul   $0xb918d2f9,0x8(%ebp),%edx
100030f0:	f7 d7                	not    %edi
100030f2:	f7 d2                	not    %edx
100030f4:	eb 1e                	jmp    0x10003114
100030f6:	69 7d 0c f9 d2 18 b9 	imul   $0xb918d2f9,0xc(%ebp),%edi
100030fd:	69 55 08 84 ae 2f 40 	imul   $0x402fae84,0x8(%ebp),%edx
10003104:	eb 0e                	jmp    0x10003114
10003106:	69 7d 0c 84 ae 2f 40 	imul   $0x402fae84,0xc(%ebp),%edi
1000310d:	69 55 08 f9 d2 18 b9 	imul   $0xb918d2f9,0x8(%ebp),%edx
10003114:	8b df                	mov    %edi,%ebx
10003116:	83 e3 0f             	and    $0xf,%ebx
10003119:	83 fb 0a             	cmp    $0xa,%ebx
1000311c:	73 05                	jae    0x10003123
1000311e:	8d 43 30             	lea    0x30(%ebx),%eax
10003121:	eb 05                	jmp    0x10003128
10003123:	6a 50                	push   $0x50
10003125:	58                   	pop    %eax
10003126:	2b c3                	sub    %ebx,%eax
10003128:	8b da                	mov    %edx,%ebx
1000312a:	0f b7 c0             	movzwl %ax,%eax
1000312d:	83 e3 0f             	and    $0xf,%ebx
10003130:	66 89 04 71          	mov    %ax,(%ecx,%esi,2)
10003134:	83 fb 0a             	cmp    $0xa,%ebx
10003137:	73 05                	jae    0x1000313e
10003139:	8d 43 30             	lea    0x30(%ebx),%eax
1000313c:	eb 05                	jmp    0x10003143
1000313e:	6a 50                	push   $0x50
10003140:	58                   	pop    %eax
10003141:	2b c3                	sub    %ebx,%eax
10003143:	0f b7 c0             	movzwl %ax,%eax
10003146:	66 89 44 71 02       	mov    %ax,0x2(%ecx,%esi,2)
1000314b:	83 c6 02             	add    $0x2,%esi
1000314e:	c1 ef 04             	shr    $0x4,%edi
10003151:	c1 ea 04             	shr    $0x4,%edx
10003154:	83 fe 26             	cmp    $0x26,%esi
10003157:	0f 8c 77 ff ff ff    	jl     0x100030d4
1000315d:	6a 7d                	push   $0x7d
1000315f:	33 c0                	xor    %eax,%eax
10003161:	66 89 41 4c          	mov    %ax,0x4c(%ecx)
10003165:	58                   	pop    %eax
10003166:	6a 7b                	push   $0x7b
10003168:	66 89 41 4a          	mov    %ax,0x4a(%ecx)
1000316c:	58                   	pop    %eax
1000316d:	6a 2d                	push   $0x2d
1000316f:	66 89 01             	mov    %ax,(%ecx)
10003172:	58                   	pop    %eax
10003173:	5f                   	pop    %edi
10003174:	5e                   	pop    %esi
10003175:	66 89 41 12          	mov    %ax,0x12(%ecx)
10003179:	66 89 41 1c          	mov    %ax,0x1c(%ecx)
1000317d:	66 89 41 26          	mov    %ax,0x26(%ecx)
10003181:	66 89 41 30          	mov    %ax,0x30(%ecx)
10003185:	33 c0                	xor    %eax,%eax
10003187:	5b                   	pop    %ebx
10003188:	5d                   	pop    %ebp
10003189:	c3                   	ret    
1000318a:	55                   	push   %ebp
1000318b:	8b ec                	mov    %esp,%ebp
1000318d:	51                   	push   %ecx
1000318e:	83 65 fc 00          	andl   $0x0,-0x4(%ebp)
10003192:	56                   	push   %esi
10003193:	8b f1                	mov    %ecx,%esi
10003195:	83 3e ff             	cmpl   $0xffffffff,(%esi)
10003198:	74 21                	je     0x100031bb
1000319a:	6a 00                	push   $0x0
1000319c:	8d 45 fc             	lea    -0x4(%ebp),%eax
1000319f:	50                   	push   %eax
100031a0:	ff 75 08             	pushl  0x8(%ebp)
100031a3:	52                   	push   %edx
100031a4:	ff 36                	pushl  (%esi)
100031a6:	ff 15 6a 55 00 10    	call   *0x1000556a
100031ac:	85 c0                	test   %eax,%eax
100031ae:	75 0b                	jne    0x100031bb
100031b0:	ff 36                	pushl  (%esi)
100031b2:	ff 15 ec 54 00 10    	call   *0x100054ec
100031b8:	83 0e ff             	orl    $0xffffffff,(%esi)
100031bb:	5e                   	pop    %esi
100031bc:	8b e5                	mov    %ebp,%esp
100031be:	5d                   	pop    %ebp
100031bf:	c3                   	ret    
100031c0:	55                   	push   %ebp
100031c1:	8b ec                	mov    %esp,%ebp
100031c3:	53                   	push   %ebx
100031c4:	56                   	push   %esi
100031c5:	8b 75 08             	mov    0x8(%ebp),%esi
100031c8:	8b d9                	mov    %ecx,%ebx
100031ca:	57                   	push   %edi
100031cb:	8b fa                	mov    %edx,%edi
100031cd:	89 75 08             	mov    %esi,0x8(%ebp)
100031d0:	6a 04                	push   $0x4
100031d2:	8d 55 08             	lea    0x8(%ebp),%edx
100031d5:	e8 b0 ff ff ff       	call   0x1000318a
100031da:	56                   	push   %esi
100031db:	8b d7                	mov    %edi,%edx
100031dd:	8b cb                	mov    %ebx,%ecx
100031df:	e8 a6 ff ff ff       	call   0x1000318a
100031e4:	59                   	pop    %ecx
100031e5:	59                   	pop    %ecx
100031e6:	5f                   	pop    %edi
100031e7:	5e                   	pop    %esi
100031e8:	5b                   	pop    %ebx
100031e9:	5d                   	pop    %ebp
100031ea:	c3                   	ret    
100031eb:	56                   	push   %esi
100031ec:	6a 2e                	push   $0x2e
100031ee:	58                   	pop    %eax
100031ef:	6a 69                	push   $0x69
100031f1:	66 89 41 04          	mov    %ax,0x4(%ecx)
100031f5:	58                   	pop    %eax
100031f6:	6a 5c                	push   $0x5c
100031f8:	5e                   	pop    %esi
100031f9:	6a 65                	push   $0x65
100031fb:	66 89 41 0a          	mov    %ax,0xa(%ecx)
100031ff:	58                   	pop    %eax
10003200:	6a 70                	push   $0x70
10003202:	5a                   	pop    %edx
10003203:	66 89 41 0e          	mov    %ax,0xe(%ecx)
10003207:	33 c0                	xor    %eax,%eax
10003209:	66 89 31             	mov    %si,(%ecx)
1000320c:	66 89 71 06          	mov    %si,0x6(%ecx)
10003210:	66 89 71 02          	mov    %si,0x2(%ecx)
10003214:	66 89 71 10          	mov    %si,0x10(%ecx)
10003218:	66 89 51 0c          	mov    %dx,0xc(%ecx)
1000321c:	66 89 41 12          	mov    %ax,0x12(%ecx)
10003220:	66 89 51 08          	mov    %dx,0x8(%ecx)
10003224:	5e                   	pop    %esi
10003225:	c3                   	ret    
10003226:	55                   	push   %ebp
10003227:	8b ec                	mov    %esp,%ebp
10003229:	83 ec 64             	sub    $0x64,%esp
1000322c:	53                   	push   %ebx
1000322d:	8a d9                	mov    %cl,%bl
1000322f:	8d 4d 9c             	lea    -0x64(%ebp),%ecx
10003232:	e8 b4 ff ff ff       	call   0x100031eb
10003237:	8b c1                	mov    %ecx,%eax
10003239:	50                   	push   %eax
1000323a:	ff 15 89 55 00 10    	call   *0x10005589
10003240:	8d 55 9c             	lea    -0x64(%ebp),%edx
10003243:	8a cb                	mov    %bl,%cl
10003245:	8d 14 42             	lea    (%edx,%eax,2),%edx
10003248:	e8 96 00 00 00       	call   0x100032e3
1000324d:	5b                   	pop    %ebx
1000324e:	85 c0                	test   %eax,%eax
10003250:	74 2e                	je     0x10003280
10003252:	56                   	push   %esi
10003253:	57                   	push   %edi
10003254:	33 ff                	xor    %edi,%edi
10003256:	8d 45 9c             	lea    -0x64(%ebp),%eax
10003259:	57                   	push   %edi
1000325a:	50                   	push   %eax
1000325b:	ff 15 18 40 00 10    	call   *0x10004018
10003261:	8b f0                	mov    %eax,%esi
10003263:	ff 15 ad 54 00 10    	call   *0x100054ad
10003269:	85 f6                	test   %esi,%esi
1000326b:	75 0c                	jne    0x10003279
1000326d:	83 f8 79             	cmp    $0x79,%eax
10003270:	74 07                	je     0x10003279
10003272:	3d e7 00 00 00       	cmp    $0xe7,%eax
10003277:	75 03                	jne    0x1000327c
10003279:	33 ff                	xor    %edi,%edi
1000327b:	47                   	inc    %edi
1000327c:	8b c7                	mov    %edi,%eax
1000327e:	5f                   	pop    %edi
1000327f:	5e                   	pop    %esi
10003280:	8b e5                	mov    %ebp,%esp
10003282:	5d                   	pop    %ebp
10003283:	c3                   	ret    
10003284:	53                   	push   %ebx
10003285:	8a d9                	mov    %cl,%bl
10003287:	56                   	push   %esi
10003288:	0f b6 f3             	movzbl %bl,%esi
1000328b:	83 3c b5 00 5c 00 10 	cmpl   $0x0,0x10005c00(,%esi,4)
10003292:	00 
10003293:	74 24                	je     0x100032b9
10003295:	ff 15 4d 55 00 10    	call   *0x1000554d
1000329b:	8b 0c b5 00 5c 00 10 	mov    0x10005c00(,%esi,4),%ecx
100032a2:	3b c1                	cmp    %ecx,%eax
100032a4:	73 0a                	jae    0x100032b0
100032a6:	83 24 b5 00 5c 00 10 	andl   $0x0,0x10005c00(,%esi,4)
100032ad:	00 
100032ae:	eb 09                	jmp    0x100032b9
100032b0:	2b c1                	sub    %ecx,%eax
100032b2:	3d 30 75 00 00       	cmp    $0x7530,%eax
100032b7:	72 25                	jb     0x100032de
100032b9:	8a cb                	mov    %bl,%cl
100032bb:	e8 66 ff ff ff       	call   0x10003226
100032c0:	85 c0                	test   %eax,%eax
100032c2:	74 0d                	je     0x100032d1
100032c4:	83 24 b5 00 5c 00 10 	andl   $0x0,0x10005c00(,%esi,4)
100032cb:	00 
100032cc:	33 c0                	xor    %eax,%eax
100032ce:	40                   	inc    %eax
100032cf:	eb 0f                	jmp    0x100032e0
100032d1:	ff 15 4d 55 00 10    	call   *0x1000554d
100032d7:	89 04 b5 00 5c 00 10 	mov    %eax,0x10005c00(,%esi,4)
100032de:	33 c0                	xor    %eax,%eax
100032e0:	5e                   	pop    %esi
100032e1:	5b                   	pop    %ebx
100032e2:	c3                   	ret    
100032e3:	55                   	push   %ebp
100032e4:	8b ec                	mov    %esp,%ebp
100032e6:	83 ec 24             	sub    $0x24,%esp
100032e9:	53                   	push   %ebx
100032ea:	57                   	push   %edi
100032eb:	8d 45 fc             	lea    -0x4(%ebp),%eax
100032ee:	c7 45 fc 10 00 00 00 	movl   $0x10,-0x4(%ebp)
100032f5:	50                   	push   %eax
100032f6:	8d 45 dc             	lea    -0x24(%ebp),%eax
100032f9:	8b fa                	mov    %edx,%edi
100032fb:	50                   	push   %eax
100032fc:	8a d9                	mov    %cl,%bl
100032fe:	ff 15 31 55 00 10    	call   *0x10005531
10003304:	85 c0                	test   %eax,%eax
10003306:	74 66                	je     0x1000336e
10003308:	66 8b 45 dc          	mov    -0x24(%ebp),%ax
1000330c:	ba c6 4f f8 67       	mov    $0x67f84fc6,%edx
10003311:	56                   	push   %esi
10003312:	8d 75 dc             	lea    -0x24(%ebp),%esi
10003315:	66 85 c0             	test   %ax,%ax
10003318:	74 35                	je     0x1000334f
1000331a:	0f b7 c0             	movzwl %ax,%eax
1000331d:	0f b7 c8             	movzwl %ax,%ecx
10003320:	8d 41 bf             	lea    -0x41(%ecx),%eax
10003323:	66 83 f8 19          	cmp    $0x19,%ax
10003327:	77 03                	ja     0x1000332c
10003329:	83 c1 20             	add    $0x20,%ecx
1000332c:	0f b7 c9             	movzwl %cx,%ecx
1000332f:	83 c6 02             	add    $0x2,%esi
10003332:	8b c1                	mov    %ecx,%eax
10003334:	0f af c9             	imul   %ecx,%ecx
10003337:	83 e0 07             	and    $0x7,%eax
1000333a:	c1 e0 09             	shl    $0x9,%eax
1000333d:	05 27 0c a2 08       	add    $0x8a20c27,%eax
10003342:	0f af d0             	imul   %eax,%edx
10003345:	0f b7 06             	movzwl (%esi),%eax
10003348:	33 d1                	xor    %ecx,%edx
1000334a:	66 85 c0             	test   %ax,%ax
1000334d:	75 ce                	jne    0x1000331d
1000334f:	0f b6 c3             	movzbl %bl,%eax
10003352:	8d 0c 10             	lea    (%eax,%edx,1),%ecx
10003355:	2b d0                	sub    %eax,%edx
10003357:	52                   	push   %edx
10003358:	51                   	push   %ecx
10003359:	8b cf                	mov    %edi,%ecx
1000335b:	e8 68 fd ff ff       	call   0x100030c8
10003360:	33 c9                	xor    %ecx,%ecx
10003362:	83 c4 08             	add    $0x8,%esp
10003365:	83 f8 ff             	cmp    $0xffffffff,%eax
10003368:	0f 95 c1             	setne  %cl
1000336b:	8b c1                	mov    %ecx,%eax
1000336d:	5e                   	pop    %esi
1000336e:	5f                   	pop    %edi
1000336f:	5b                   	pop    %ebx
10003370:	8b e5                	mov    %ebp,%esp
10003372:	5d                   	pop    %ebp
10003373:	c3                   	ret    
10003374:	55                   	push   %ebp
10003375:	8b ec                	mov    %esp,%ebp
10003377:	83 ec 64             	sub    $0x64,%esp
1000337a:	53                   	push   %ebx
1000337b:	56                   	push   %esi
1000337c:	8a d9                	mov    %cl,%bl
1000337e:	83 ce ff             	or     $0xffffffff,%esi
10003381:	8d 4d 9c             	lea    -0x64(%ebp),%ecx
10003384:	e8 62 fe ff ff       	call   0x100031eb
10003389:	51                   	push   %ecx
1000338a:	ff 15 89 55 00 10    	call   *0x10005589
10003390:	8d 55 9c             	lea    -0x64(%ebp),%edx
10003393:	8a cb                	mov    %bl,%cl
10003395:	8d 14 42             	lea    (%edx,%eax,2),%edx
10003398:	e8 46 ff ff ff       	call   0x100032e3
1000339d:	85 c0                	test   %eax,%eax
1000339f:	75 04                	jne    0x100033a5
100033a1:	0b c6                	or     %esi,%eax
100033a3:	eb 51                	jmp    0x100033f6
100033a5:	33 db                	xor    %ebx,%ebx
100033a7:	57                   	push   %edi
100033a8:	8b fb                	mov    %ebx,%edi
100033aa:	6a 32                	push   $0x32
100033ac:	8d 45 9c             	lea    -0x64(%ebp),%eax
100033af:	50                   	push   %eax
100033b0:	ff 15 18 40 00 10    	call   *0x10004018
100033b6:	85 c0                	test   %eax,%eax
100033b8:	75 17                	jne    0x100033d1
100033ba:	ff 15 ad 54 00 10    	call   *0x100054ad
100033c0:	3d e7 00 00 00       	cmp    $0xe7,%eax
100033c5:	75 2c                	jne    0x100033f3
100033c7:	6a 32                	push   $0x32
100033c9:	ff 15 96 54 00 10    	call   *0x10005496
100033cf:	eb 1c                	jmp    0x100033ed
100033d1:	53                   	push   %ebx
100033d2:	53                   	push   %ebx
100033d3:	6a 03                	push   $0x3
100033d5:	53                   	push   %ebx
100033d6:	53                   	push   %ebx
100033d7:	68 00 00 00 40       	push   $0x40000000
100033dc:	8d 45 9c             	lea    -0x64(%ebp),%eax
100033df:	50                   	push   %eax
100033e0:	ff 15 7c 55 00 10    	call   *0x1000557c
100033e6:	8b f0                	mov    %eax,%esi
100033e8:	83 fe ff             	cmp    $0xffffffff,%esi
100033eb:	75 06                	jne    0x100033f3
100033ed:	47                   	inc    %edi
100033ee:	83 ff 05             	cmp    $0x5,%edi
100033f1:	72 b7                	jb     0x100033aa
100033f3:	8b c6                	mov    %esi,%eax
100033f5:	5f                   	pop    %edi
100033f6:	5e                   	pop    %esi
100033f7:	5b                   	pop    %ebx
100033f8:	8b e5                	mov    %ebp,%esp
100033fa:	5d                   	pop    %ebp
100033fb:	c3                   	ret    
100033fc:	6a 58                	push   $0x58
100033fe:	68 a0 43 00 10       	push   $0x100043a0
10003403:	e8 08 f1 ff ff       	call   0x10002510
10003408:	33 c0                	xor    %eax,%eax
1000340a:	89 45 fc             	mov    %eax,-0x4(%ebp)
1000340d:	83 ce ff             	or     $0xffffffff,%esi
10003410:	89 75 d8             	mov    %esi,-0x28(%ebp)
10003413:	89 45 d0             	mov    %eax,-0x30(%ebp)
10003416:	89 45 d4             	mov    %eax,-0x2c(%ebp)
10003419:	8b 5d 10             	mov    0x10(%ebp),%ebx
1000341c:	81 f3 41 51 a9 12    	xor    $0x12a95141,%ebx
10003422:	8b 7d 14             	mov    0x14(%ebp),%edi
10003425:	33 f8                	xor    %eax,%edi
10003427:	80 7d 08 0b          	cmpb   $0xb,0x8(%ebp)
1000342b:	76 08                	jbe    0x10003435
1000342d:	89 75 fc             	mov    %esi,-0x4(%ebp)
10003430:	e9 ff 01 00 00       	jmp    0x10003634
10003435:	e8 77 f2 ff ff       	call   0x100026b1
1000343a:	85 c0                	test   %eax,%eax
1000343c:	74 ef                	je     0x1000342d
1000343e:	8a 4d 08             	mov    0x8(%ebp),%cl
10003441:	e8 3e fe ff ff       	call   0x10003284
10003446:	85 c0                	test   %eax,%eax
10003448:	74 e3                	je     0x1000342d
1000344a:	8a 4d 08             	mov    0x8(%ebp),%cl
1000344d:	e8 22 ff ff ff       	call   0x10003374
10003452:	89 45 d8             	mov    %eax,-0x28(%ebp)
10003455:	3b c6                	cmp    %esi,%eax
10003457:	74 d4                	je     0x1000342d
10003459:	8d 75 1c             	lea    0x1c(%ebp),%esi
1000345c:	89 75 d4             	mov    %esi,-0x2c(%ebp)
1000345f:	c6 45 e4 00          	movb   $0x0,-0x1c(%ebp)
10003463:	6a 01                	push   $0x1
10003465:	8d 55 e4             	lea    -0x1c(%ebp),%edx
10003468:	8d 4d d8             	lea    -0x28(%ebp),%ecx
1000346b:	e8 1a fd ff ff       	call   0x1000318a
10003470:	c7 45 cc 01 00 00 00 	movl   $0x1,-0x34(%ebp)
10003477:	6a 04                	push   $0x4
10003479:	8d 55 cc             	lea    -0x34(%ebp),%edx
1000347c:	8d 4d d8             	lea    -0x28(%ebp),%ecx
1000347f:	e8 06 fd ff ff       	call   0x1000318a
10003484:	c6 45 e0 00          	movb   $0x0,-0x20(%ebp)
10003488:	6a 01                	push   $0x1
1000348a:	8d 55 e0             	lea    -0x20(%ebp),%edx
1000348d:	8d 4d d8             	lea    -0x28(%ebp),%ecx
10003490:	e8 f5 fc ff ff       	call   0x1000318a
10003495:	83 c4 0c             	add    $0xc,%esp
10003498:	ff 15 04 55 00 10    	call   *0x10005504
1000349e:	89 45 c8             	mov    %eax,-0x38(%ebp)
100034a1:	6a 04                	push   $0x4
100034a3:	8d 55 c8             	lea    -0x38(%ebp),%edx
100034a6:	8d 4d d8             	lea    -0x28(%ebp),%ecx
100034a9:	e8 dc fc ff ff       	call   0x1000318a
100034ae:	59                   	pop    %ecx
100034af:	ff 15 c3 55 00 10    	call   *0x100055c3
100034b5:	89 45 c4             	mov    %eax,-0x3c(%ebp)
100034b8:	6a 04                	push   $0x4
100034ba:	8d 55 c4             	lea    -0x3c(%ebp),%edx
100034bd:	8d 4d d8             	lea    -0x28(%ebp),%ecx
100034c0:	e8 c5 fc ff ff       	call   0x1000318a
100034c5:	8b 45 18             	mov    0x18(%ebp),%eax
100034c8:	35 41 51 a9 12       	xor    $0x12a95141,%eax
100034cd:	89 45 c0             	mov    %eax,-0x40(%ebp)
100034d0:	6a 04                	push   $0x4
100034d2:	8d 55 c0             	lea    -0x40(%ebp),%edx
100034d5:	8d 4d d8             	lea    -0x28(%ebp),%ecx
100034d8:	e8 ad fc ff ff       	call   0x1000318a
100034dd:	83 65 bc 00          	andl   $0x0,-0x44(%ebp)
100034e1:	6a 04                	push   $0x4
100034e3:	8d 55 bc             	lea    -0x44(%ebp),%edx
100034e6:	8d 4d d8             	lea    -0x28(%ebp),%ecx
100034e9:	e8 9c fc ff ff       	call   0x1000318a
100034ee:	8b 45 0c             	mov    0xc(%ebp),%eax
100034f1:	35 41 51 a9 12       	xor    $0x12a95141,%eax
100034f6:	89 45 b8             	mov    %eax,-0x48(%ebp)
100034f9:	6a 04                	push   $0x4
100034fb:	8d 55 b8             	lea    -0x48(%ebp),%edx
100034fe:	8d 4d d8             	lea    -0x28(%ebp),%ecx
10003501:	e8 84 fc ff ff       	call   0x1000318a
10003506:	8a 45 08             	mov    0x8(%ebp),%al
10003509:	88 45 dc             	mov    %al,-0x24(%ebp)
1000350c:	6a 01                	push   $0x1
1000350e:	8d 55 dc             	lea    -0x24(%ebp),%edx
10003511:	8d 4d d8             	lea    -0x28(%ebp),%ecx
10003514:	e8 71 fc ff ff       	call   0x1000318a
10003519:	83 c4 14             	add    $0x14,%esp
1000351c:	8b d3                	mov    %ebx,%edx
1000351e:	8b cf                	mov    %edi,%ecx
10003520:	33 c0                	xor    %eax,%eax
10003522:	89 45 d0             	mov    %eax,-0x30(%ebp)
10003525:	89 4d a4             	mov    %ecx,-0x5c(%ebp)
10003528:	89 55 a0             	mov    %edx,-0x60(%ebp)
1000352b:	85 c9                	test   %ecx,%ecx
1000352d:	75 04                	jne    0x10003533
1000352f:	85 d2                	test   %edx,%edx
10003531:	74 14                	je     0x10003547
10003533:	8b c2                	mov    %edx,%eax
10003535:	83 e0 0f             	and    $0xf,%eax
10003538:	8b 45 d0             	mov    -0x30(%ebp),%eax
1000353b:	74 0a                	je     0x10003547
1000353d:	0f ac ca 04          	shrd   $0x4,%ecx,%edx
10003541:	c1 e9 04             	shr    $0x4,%ecx
10003544:	40                   	inc    %eax
10003545:	eb db                	jmp    0x10003522
10003547:	89 45 b4             	mov    %eax,-0x4c(%ebp)
1000354a:	6a 04                	push   $0x4
1000354c:	8d 55 b4             	lea    -0x4c(%ebp),%edx
1000354f:	8d 4d d8             	lea    -0x28(%ebp),%ecx
10003552:	e8 33 fc ff ff       	call   0x1000318a
10003557:	59                   	pop    %ecx
10003558:	89 7d a4             	mov    %edi,-0x5c(%ebp)
1000355b:	89 5d a0             	mov    %ebx,-0x60(%ebp)
1000355e:	85 ff                	test   %edi,%edi
10003560:	75 08                	jne    0x1000356a
10003562:	85 db                	test   %ebx,%ebx
10003564:	0f 84 a1 00 00 00    	je     0x1000360b
1000356a:	8b c3                	mov    %ebx,%eax
1000356c:	83 e0 0f             	and    $0xf,%eax
1000356f:	89 45 b4             	mov    %eax,-0x4c(%ebp)
10003572:	0f 84 93 00 00 00    	je     0x1000360b
10003578:	89 45 b0             	mov    %eax,-0x50(%ebp)
1000357b:	6a 04                	push   $0x4
1000357d:	8d 55 b0             	lea    -0x50(%ebp),%edx
10003580:	8d 4d d8             	lea    -0x28(%ebp),%ecx
10003583:	e8 02 fc ff ff       	call   0x1000318a
10003588:	59                   	pop    %ecx
10003589:	8b 45 b4             	mov    -0x4c(%ebp),%eax
1000358c:	48                   	dec    %eax
1000358d:	83 f8 07             	cmp    $0x7,%eax
10003590:	77 6d                	ja     0x100035ff
10003592:	ff 24 85 3c 36 00 10 	jmp    *0x1000363c(,%eax,4)
10003599:	83 c6 04             	add    $0x4,%esi
1000359c:	89 75 d4             	mov    %esi,-0x2c(%ebp)
1000359f:	ff 76 fc             	pushl  -0x4(%esi)
100035a2:	ff 15 89 55 00 10    	call   *0x10005589
100035a8:	03 c0                	add    %eax,%eax
100035aa:	50                   	push   %eax
100035ab:	8b 56 fc             	mov    -0x4(%esi),%edx
100035ae:	eb 46                	jmp    0x100035f6
100035b0:	83 c6 04             	add    $0x4,%esi
100035b3:	8b 46 fc             	mov    -0x4(%esi),%eax
100035b6:	89 45 ac             	mov    %eax,-0x54(%ebp)
100035b9:	8d 55 ac             	lea    -0x54(%ebp),%edx
100035bc:	eb 33                	jmp    0x100035f1
100035be:	83 c6 04             	add    $0x4,%esi
100035c1:	89 75 d4             	mov    %esi,-0x2c(%ebp)
100035c4:	ff 76 fc             	pushl  -0x4(%esi)
100035c7:	ff 15 19 55 00 10    	call   *0x10005519
100035cd:	eb db                	jmp    0x100035aa
100035cf:	83 c6 08             	add    $0x8,%esi
100035d2:	8b 46 f8             	mov    -0x8(%esi),%eax
100035d5:	89 45 98             	mov    %eax,-0x68(%ebp)
100035d8:	8b 46 fc             	mov    -0x4(%esi),%eax
100035db:	89 45 9c             	mov    %eax,-0x64(%ebp)
100035de:	6a 08                	push   $0x8
100035e0:	8d 55 98             	lea    -0x68(%ebp),%edx
100035e3:	eb 0e                	jmp    0x100035f3
100035e5:	83 c6 04             	add    $0x4,%esi
100035e8:	8b 46 fc             	mov    -0x4(%esi),%eax
100035eb:	89 45 a8             	mov    %eax,-0x58(%ebp)
100035ee:	8d 55 a8             	lea    -0x58(%ebp),%edx
100035f1:	6a 04                	push   $0x4
100035f3:	89 75 d4             	mov    %esi,-0x2c(%ebp)
100035f6:	8d 4d d8             	lea    -0x28(%ebp),%ecx
100035f9:	e8 c2 fb ff ff       	call   0x100031c0
100035fe:	59                   	pop    %ecx
100035ff:	0f ac fb 04          	shrd   $0x4,%edi,%ebx
10003603:	c1 ef 04             	shr    $0x4,%edi
10003606:	e9 4d ff ff ff       	jmp    0x10003558
1000360b:	83 7d d8 ff          	cmpl   $0xffffffff,-0x28(%ebp)
1000360f:	74 12                	je     0x10003623
10003611:	ff 75 d8             	pushl  -0x28(%ebp)
10003614:	ff 15 a1 55 00 10    	call   *0x100055a1
1000361a:	ff 75 d8             	pushl  -0x28(%ebp)
1000361d:	ff 15 ec 54 00 10    	call   *0x100054ec
10003623:	83 65 d4 00          	andl   $0x0,-0x2c(%ebp)
10003627:	eb 07                	jmp    0x10003630
10003629:	33 c0                	xor    %eax,%eax
1000362b:	40                   	inc    %eax
1000362c:	c3                   	ret    
1000362d:	8b 65 e8             	mov    -0x18(%ebp),%esp
10003630:	83 4d fc ff          	orl    $0xffffffff,-0x4(%ebp)
10003634:	e8 12 ef ff ff       	call   0x1000254b
10003639:	c3                   	ret    
1000363a:	8b ff                	mov    %edi,%edi
1000363c:	99                   	cltd   
1000363d:	35 00 10 b0 35       	xor    $0x35b01000,%eax
10003642:	00 10                	add    %dl,(%eax)
10003644:	be 35 00 10 cf       	mov    $0xcf100035,%esi
10003649:	35 00 10 b0 35       	xor    $0x35b01000,%eax
1000364e:	00 10                	add    %dl,(%eax)
10003650:	e5 35                	in     $0x35,%eax
10003652:	00 10                	add    %dl,(%eax)
10003654:	b0 35                	mov    $0x35,%al
10003656:	00 10                	add    %dl,(%eax)
10003658:	b0 35                	mov    $0x35,%al
1000365a:	00 10                	add    %dl,(%eax)
1000365c:	85 c9                	test   %ecx,%ecx
1000365e:	75 06                	jne    0x10003666
10003660:	33 c0                	xor    %eax,%eax
10003662:	66 89 02             	mov    %ax,(%edx)
10003665:	c3                   	ret    
10003666:	8b 01                	mov    (%ecx),%eax
10003668:	56                   	push   %esi
10003669:	57                   	push   %edi
1000366a:	bf f1 86 f1 86       	mov    $0x86f186f1,%edi
1000366f:	33 f6                	xor    %esi,%esi
10003671:	33 c7                	xor    %edi,%eax
10003673:	89 02                	mov    %eax,(%edx)
10003675:	66 3b c6             	cmp    %si,%ax
10003678:	74 17                	je     0x10003691
1000367a:	2b ca                	sub    %edx,%ecx
1000367c:	66 39 72 02          	cmp    %si,0x2(%edx)
10003680:	74 0f                	je     0x10003691
10003682:	83 c2 04             	add    $0x4,%edx
10003685:	8b 04 11             	mov    (%ecx,%edx,1),%eax
10003688:	33 c7                	xor    %edi,%eax
1000368a:	89 02                	mov    %eax,(%edx)
1000368c:	66 3b c6             	cmp    %si,%ax
1000368f:	75 eb                	jne    0x1000367c
10003691:	5f                   	pop    %edi
10003692:	5e                   	pop    %esi
10003693:	c3                   	ret    
10003694:	55                   	push   %ebp
10003695:	8b ec                	mov    %esp,%ebp
10003697:	51                   	push   %ecx
10003698:	51                   	push   %ecx
10003699:	53                   	push   %ebx
1000369a:	8b da                	mov    %edx,%ebx
1000369c:	33 c0                	xor    %eax,%eax
1000369e:	56                   	push   %esi
1000369f:	8b f1                	mov    %ecx,%esi
100036a1:	66 39 03             	cmp    %ax,(%ebx)
100036a4:	75 07                	jne    0x100036ad
100036a6:	8b c6                	mov    %esi,%eax
100036a8:	e9 85 00 00 00       	jmp    0x10003732
100036ad:	0f b7 06             	movzwl (%esi),%eax
100036b0:	57                   	push   %edi
100036b1:	66 85 c0             	test   %ax,%ax
100036b4:	74 79                	je     0x1000372f
100036b6:	8b fe                	mov    %esi,%edi
100036b8:	c7 45 fc 19 00 00 00 	movl   $0x19,-0x4(%ebp)
100036bf:	2b fb                	sub    %ebx,%edi
100036c1:	8b d3                	mov    %ebx,%edx
100036c3:	66 85 c0             	test   %ax,%ax
100036c6:	74 52                	je     0x1000371a
100036c8:	0f b7 02             	movzwl (%edx),%eax
100036cb:	66 85 c0             	test   %ax,%ax
100036ce:	74 68                	je     0x10003738
100036d0:	0f b7 0c 17          	movzwl (%edi,%edx,1),%ecx
100036d4:	8d 41 bf             	lea    -0x41(%ecx),%eax
100036d7:	66 3b 45 fc          	cmp    -0x4(%ebp),%ax
100036db:	77 08                	ja     0x100036e5
100036dd:	8d 41 20             	lea    0x20(%ecx),%eax
100036e0:	0f b7 c0             	movzwl %ax,%eax
100036e3:	eb 02                	jmp    0x100036e7
100036e5:	8b c1                	mov    %ecx,%eax
100036e7:	0f b7 0a             	movzwl (%edx),%ecx
100036ea:	89 45 f8             	mov    %eax,-0x8(%ebp)
100036ed:	8d 41 bf             	lea    -0x41(%ecx),%eax
100036f0:	66 3b 45 fc          	cmp    -0x4(%ebp),%ax
100036f4:	77 08                	ja     0x100036fe
100036f6:	8d 41 20             	lea    0x20(%ecx),%eax
100036f9:	0f b7 c0             	movzwl %ax,%eax
100036fc:	eb 02                	jmp    0x10003700
100036fe:	8b c1                	mov    %ecx,%eax
10003700:	8b 4d f8             	mov    -0x8(%ebp),%ecx
10003703:	0f b7 c0             	movzwl %ax,%eax
10003706:	0f b7 c9             	movzwl %cx,%ecx
10003709:	2b c8                	sub    %eax,%ecx
1000370b:	75 0d                	jne    0x1000371a
1000370d:	83 c2 02             	add    $0x2,%edx
10003710:	33 c0                	xor    %eax,%eax
10003712:	66 39 04 17          	cmp    %ax,(%edi,%edx,1)
10003716:	75 b0                	jne    0x100036c8
10003718:	eb 02                	jmp    0x1000371c
1000371a:	33 c0                	xor    %eax,%eax
1000371c:	66 39 02             	cmp    %ax,(%edx)
1000371f:	74 17                	je     0x10003738
10003721:	83 c6 02             	add    $0x2,%esi
10003724:	83 c7 02             	add    $0x2,%edi
10003727:	0f b7 06             	movzwl (%esi),%eax
1000372a:	66 85 c0             	test   %ax,%ax
1000372d:	75 92                	jne    0x100036c1
1000372f:	33 c0                	xor    %eax,%eax
10003731:	5f                   	pop    %edi
10003732:	5e                   	pop    %esi
10003733:	5b                   	pop    %ebx
10003734:	8b e5                	mov    %ebp,%esp
10003736:	5d                   	pop    %ebp
10003737:	c3                   	ret    
10003738:	8b c6                	mov    %esi,%eax
1000373a:	eb f5                	jmp    0x10003731
1000373c:	55                   	push   %ebp
1000373d:	8b ec                	mov    %esp,%ebp
1000373f:	83 ec 10             	sub    $0x10,%esp
10003742:	53                   	push   %ebx
10003743:	57                   	push   %edi
10003744:	33 ff                	xor    %edi,%edi
10003746:	bb 38 5c 00 10       	mov    $0x10005c38,%ebx
1000374b:	47                   	inc    %edi
1000374c:	57                   	push   %edi
1000374d:	53                   	push   %ebx
1000374e:	ff 15 dd 56 00 10    	call   *0x100056dd
10003754:	85 c0                	test   %eax,%eax
10003756:	74 6c                	je     0x100037c4
10003758:	56                   	push   %esi
10003759:	33 f6                	xor    %esi,%esi
1000375b:	56                   	push   %esi
1000375c:	56                   	push   %esi
1000375d:	57                   	push   %edi
1000375e:	53                   	push   %ebx
1000375f:	ff 15 0a 57 00 10    	call   *0x1000570a
10003765:	85 c0                	test   %eax,%eax
10003767:	74 5a                	je     0x100037c3
10003769:	56                   	push   %esi
1000376a:	8d 45 fc             	lea    -0x4(%ebp),%eax
1000376d:	89 75 fc             	mov    %esi,-0x4(%ebp)
10003770:	50                   	push   %eax
10003771:	57                   	push   %edi
10003772:	68 74 42 00 10       	push   $0x10004274
10003777:	e8 84 eb ff ff       	call   0x10002300
1000377c:	89 75 f4             	mov    %esi,-0xc(%ebp)
1000377f:	89 75 f8             	mov    %esi,-0x8(%ebp)
10003782:	85 c0                	test   %eax,%eax
10003784:	74 25                	je     0x100037ab
10003786:	8d 45 f8             	lea    -0x8(%ebp),%eax
10003789:	50                   	push   %eax
1000378a:	8d 45 f0             	lea    -0x10(%ebp),%eax
1000378d:	50                   	push   %eax
1000378e:	8d 45 f4             	lea    -0xc(%ebp),%eax
10003791:	50                   	push   %eax
10003792:	ff 75 fc             	pushl  -0x4(%ebp)
10003795:	ff 15 6a 57 00 10    	call   *0x1000576a
1000379b:	85 c0                	test   %eax,%eax
1000379d:	74 0c                	je     0x100037ab
1000379f:	56                   	push   %esi
100037a0:	ff 75 f0             	pushl  -0x10(%ebp)
100037a3:	57                   	push   %edi
100037a4:	53                   	push   %ebx
100037a5:	ff 15 8a 57 00 10    	call   *0x1000578a
100037ab:	c7 05 2c 5c 00 10 0c 	movl   $0xc,0x10005c2c
100037b2:	00 00 00 
100037b5:	8b c7                	mov    %edi,%eax
100037b7:	89 1d 30 5c 00 10    	mov    %ebx,0x10005c30
100037bd:	89 35 34 5c 00 10    	mov    %esi,0x10005c34
100037c3:	5e                   	pop    %esi
100037c4:	5f                   	pop    %edi
100037c5:	5b                   	pop    %ebx
100037c6:	8b e5                	mov    %ebp,%esp
100037c8:	5d                   	pop    %ebp
100037c9:	c3                   	ret    
100037ca:	83 3d b0 58 00 10 00 	cmpl   $0x0,0x100058b0
100037d1:	74 11                	je     0x100037e4
100037d3:	e8 64 ff ff ff       	call   0x1000373c
100037d8:	85 c0                	test   %eax,%eax
100037da:	75 01                	jne    0x100037dd
100037dc:	c3                   	ret    
100037dd:	83 25 b0 58 00 10 00 	andl   $0x0,0x100058b0
100037e4:	b8 2c 5c 00 10       	mov    $0x10005c2c,%eax
100037e9:	c3                   	ret    
100037ea:	ff 25 44 40 00 10    	jmp    *0x10004044
100037f0:	ff 25 3c 40 00 10    	jmp    *0x1000403c
100037f6:	ff 25 40 40 00 10    	jmp    *0x10004040
100037fc:	ff 25 20 40 00 10    	jmp    *0x10004020
10003802:	ff 25 14 40 00 10    	jmp    *0x10004014
10003808:	ff 25 2c 40 00 10    	jmp    *0x1000402c
1000380e:	ff 25 28 40 00 10    	jmp    *0x10004028
10003814:	ff 25 48 40 00 10    	jmp    *0x10004048
