
2a9a5afc342cde12c6eb9a91ad29f7afdfd8f0fb17b983dcfddceccfbc17af69:     file format pei-x86-64


Disassembly of section .text:

0000000180001000 <.text>:
   180001000:	48 8b c4             	mov    %rsp,%rax
   180001003:	48 89 58 08          	mov    %rbx,0x8(%rax)
   180001007:	48 89 68 18          	mov    %rbp,0x18(%rax)
   18000100b:	48 89 70 20          	mov    %rsi,0x20(%rax)
   18000100f:	48 89 50 10          	mov    %rdx,0x10(%rax)
   180001013:	57                   	push   %rdi
   180001014:	41 54                	push   %r12
   180001016:	41 55                	push   %r13
   180001018:	41 56                	push   %r14
   18000101a:	41 57                	push   %r15
   18000101c:	48 83 ec 40          	sub    $0x40,%rsp
   180001020:	4d 8b 79 08          	mov    0x8(%r9),%r15
   180001024:	4d 8b 21             	mov    (%r9),%r12
   180001027:	49 8b 71 38          	mov    0x38(%r9),%rsi
   18000102b:	4d 2b e7             	sub    %r15,%r12
   18000102e:	f6 41 04 66          	testb  $0x66,0x4(%rcx)
   180001032:	4d 8b f1             	mov    %r9,%r14
   180001035:	48 8b ea             	mov    %rdx,%rbp
   180001038:	4c 8b e9             	mov    %rcx,%r13
   18000103b:	0f 85 dc 00 00 00    	jne    0x18000111d
   180001041:	33 ff                	xor    %edi,%edi
   180001043:	48 89 48 c8          	mov    %rcx,-0x38(%rax)
   180001047:	4c 89 40 d0          	mov    %r8,-0x30(%rax)
   18000104b:	39 3e                	cmp    %edi,(%rsi)
   18000104d:	0f 86 2b 01 00 00    	jbe    0x18000117e
   180001053:	48 8d 5e 0c          	lea    0xc(%rsi),%rbx
   180001057:	8b 43 f8             	mov    -0x8(%rbx),%eax
   18000105a:	4c 3b e0             	cmp    %rax,%r12
   18000105d:	0f 82 a7 00 00 00    	jb     0x18000110a
   180001063:	8b 43 fc             	mov    -0x4(%rbx),%eax
   180001066:	4c 3b e0             	cmp    %rax,%r12
   180001069:	0f 83 9b 00 00 00    	jae    0x18000110a
   18000106f:	83 7b 04 00          	cmpl   $0x0,0x4(%rbx)
   180001073:	0f 84 91 00 00 00    	je     0x18000110a
   180001079:	83 3b 01             	cmpl   $0x1,(%rbx)
   18000107c:	74 19                	je     0x180001097
   18000107e:	8b 03                	mov    (%rbx),%eax
   180001080:	48 8d 4c 24 30       	lea    0x30(%rsp),%rcx
   180001085:	48 8b d5             	mov    %rbp,%rdx
   180001088:	49 03 c7             	add    %r15,%rax
   18000108b:	ff d0                	callq  *%rax
   18000108d:	85 c0                	test   %eax,%eax
   18000108f:	0f 88 84 00 00 00    	js     0x180001119
   180001095:	7e 73                	jle    0x18000110a
   180001097:	41 81 7d 00 63 73 6d 	cmpl   $0xe06d7363,0x0(%r13)
   18000109e:	e0 
   18000109f:	75 28                	jne    0x1800010c9
   1800010a1:	48 83 3d 67 4f 00 00 	cmpq   $0x0,0x4f67(%rip)        # 0x180006010
   1800010a8:	00 
   1800010a9:	74 1e                	je     0x1800010c9
   1800010ab:	48 8d 0d 5e 4f 00 00 	lea    0x4f5e(%rip),%rcx        # 0x180006010
   1800010b2:	e8 99 01 00 00       	callq  0x180001250
   1800010b7:	85 c0                	test   %eax,%eax
   1800010b9:	74 0e                	je     0x1800010c9
   1800010bb:	ba 01 00 00 00       	mov    $0x1,%edx
   1800010c0:	49 8b cd             	mov    %r13,%rcx
   1800010c3:	ff 15 47 4f 00 00    	callq  *0x4f47(%rip)        # 0x180006010
   1800010c9:	8b 4b 04             	mov    0x4(%rbx),%ecx
   1800010cc:	41 b8 01 00 00 00    	mov    $0x1,%r8d
   1800010d2:	48 8b d5             	mov    %rbp,%rdx
   1800010d5:	49 03 cf             	add    %r15,%rcx
   1800010d8:	e8 33 01 00 00       	callq  0x180001210
   1800010dd:	49 8b 46 40          	mov    0x40(%r14),%rax
   1800010e1:	8b 53 04             	mov    0x4(%rbx),%edx
   1800010e4:	4d 63 4d 00          	movslq 0x0(%r13),%r9
   1800010e8:	48 89 44 24 28       	mov    %rax,0x28(%rsp)
   1800010ed:	49 8b 46 28          	mov    0x28(%r14),%rax
   1800010f1:	49 03 d7             	add    %r15,%rdx
   1800010f4:	4d 8b c5             	mov    %r13,%r8
   1800010f7:	48 8b cd             	mov    %rbp,%rcx
   1800010fa:	48 89 44 24 20       	mov    %rax,0x20(%rsp)
   1800010ff:	ff 15 13 3f 00 00    	callq  *0x3f13(%rip)        # 0x180005018
   180001105:	e8 36 01 00 00       	callq  0x180001240
   18000110a:	ff c7                	inc    %edi
   18000110c:	48 83 c3 10          	add    $0x10,%rbx
   180001110:	3b 3e                	cmp    (%rsi),%edi
   180001112:	73 6a                	jae    0x18000117e
   180001114:	e9 3e ff ff ff       	jmpq   0x180001057
   180001119:	33 c0                	xor    %eax,%eax
   18000111b:	eb 66                	jmp    0x180001183
   18000111d:	49 8b 79 20          	mov    0x20(%r9),%rdi
   180001121:	33 ed                	xor    %ebp,%ebp
   180001123:	49 2b ff             	sub    %r15,%rdi
   180001126:	39 2e                	cmp    %ebp,(%rsi)
   180001128:	76 54                	jbe    0x18000117e
   18000112a:	48 8d 5e 10          	lea    0x10(%rsi),%rbx
   18000112e:	8b 4b f4             	mov    -0xc(%rbx),%ecx
   180001131:	4c 3b e1             	cmp    %rcx,%r12
   180001134:	72 3e                	jb     0x180001174
   180001136:	8b 43 f8             	mov    -0x8(%rbx),%eax
   180001139:	4c 3b e0             	cmp    %rax,%r12
   18000113c:	73 36                	jae    0x180001174
   18000113e:	48 3b f9             	cmp    %rcx,%rdi
   180001141:	72 0c                	jb     0x18000114f
   180001143:	48 3b f8             	cmp    %rax,%rdi
   180001146:	73 07                	jae    0x18000114f
   180001148:	41 f6 45 04 20       	testb  $0x20,0x4(%r13)
   18000114d:	75 2f                	jne    0x18000117e
   18000114f:	83 3b 00             	cmpl   $0x0,(%rbx)
   180001152:	74 09                	je     0x18000115d
   180001154:	8b 03                	mov    (%rbx),%eax
   180001156:	48 3b f8             	cmp    %rax,%rdi
   180001159:	74 23                	je     0x18000117e
   18000115b:	eb 17                	jmp    0x180001174
   18000115d:	48 8b 54 24 78       	mov    0x78(%rsp),%rdx
   180001162:	49 03 c7             	add    %r15,%rax
   180001165:	b1 01                	mov    $0x1,%cl
   180001167:	49 89 06             	mov    %rax,(%r14)
   18000116a:	44 8b 43 fc          	mov    -0x4(%rbx),%r8d
   18000116e:	4d 03 c7             	add    %r15,%r8
   180001171:	41 ff d0             	callq  *%r8
   180001174:	ff c5                	inc    %ebp
   180001176:	48 83 c3 10          	add    $0x10,%rbx
   18000117a:	3b 2e                	cmp    (%rsi),%ebp
   18000117c:	72 b0                	jb     0x18000112e
   18000117e:	b8 01 00 00 00       	mov    $0x1,%eax
   180001183:	4c 8d 5c 24 40       	lea    0x40(%rsp),%r11
   180001188:	49 8b 5b 30          	mov    0x30(%r11),%rbx
   18000118c:	49 8b 6b 40          	mov    0x40(%r11),%rbp
   180001190:	49 8b 73 48          	mov    0x48(%r11),%rsi
   180001194:	49 8b e3             	mov    %r11,%rsp
   180001197:	41 5f                	pop    %r15
   180001199:	41 5e                	pop    %r14
   18000119b:	41 5d                	pop    %r13
   18000119d:	41 5c                	pop    %r12
   18000119f:	5f                   	pop    %rdi
   1800011a0:	c3                   	retq   
   1800011a1:	cc                   	int3   
   1800011a2:	cc                   	int3   
   1800011a3:	cc                   	int3   
   1800011a4:	40 53                	rex push %rbx
   1800011a6:	48 83 ec 20          	sub    $0x20,%rsp
   1800011aa:	49 8b c0             	mov    %r8,%rax
   1800011ad:	44 8a c2             	mov    %dl,%r8b
   1800011b0:	48 8b d9             	mov    %rcx,%rbx
   1800011b3:	48 8b d0             	mov    %rax,%rdx
   1800011b6:	ff 15 54 3e 00 00    	callq  *0x3e54(%rip)        # 0x180005010
   1800011bc:	48 8b c3             	mov    %rbx,%rax
   1800011bf:	48 83 c4 20          	add    $0x20,%rsp
   1800011c3:	5b                   	pop    %rbx
   1800011c4:	c3                   	retq   
   1800011c5:	cc                   	int3   
   1800011c6:	cc                   	int3   
   1800011c7:	cc                   	int3   
   1800011c8:	cc                   	int3   
   1800011c9:	cc                   	int3   
   1800011ca:	cc                   	int3   
   1800011cb:	cc                   	int3   
   1800011cc:	cc                   	int3   
   1800011cd:	cc                   	int3   
   1800011ce:	cc                   	int3   
   1800011cf:	cc                   	int3   
   1800011d0:	cc                   	int3   
   1800011d1:	cc                   	int3   
   1800011d2:	cc                   	int3   
   1800011d3:	cc                   	int3   
   1800011d4:	cc                   	int3   
   1800011d5:	cc                   	int3   
   1800011d6:	66 66 66 90          	data16 data16 xchg %ax,%ax
   1800011da:	66 66 66 90          	data16 data16 xchg %ax,%ax
   1800011de:	66 90                	xchg   %ax,%ax
   1800011e0:	48 81 ec d8 04 00 00 	sub    $0x4d8,%rsp
   1800011e7:	4d 33 c0             	xor    %r8,%r8
   1800011ea:	4d 33 c9             	xor    %r9,%r9
   1800011ed:	48 89 64 24 20       	mov    %rsp,0x20(%rsp)
   1800011f2:	4c 89 44 24 28       	mov    %r8,0x28(%rsp)
   1800011f7:	e8 22 2e 00 00       	callq  0x18000401e
   1800011fc:	48 81 c4 d8 04 00 00 	add    $0x4d8,%rsp
   180001203:	c3                   	retq   
   180001204:	cc                   	int3   
   180001205:	cc                   	int3   
   180001206:	cc                   	int3   
   180001207:	cc                   	int3   
   180001208:	cc                   	int3   
   180001209:	cc                   	int3   
   18000120a:	66 66 90             	data16 xchg %ax,%ax
   18000120d:	66 66 90             	data16 xchg %ax,%ax
   180001210:	48 89 4c 24 08       	mov    %rcx,0x8(%rsp)
   180001215:	48 89 54 24 18       	mov    %rdx,0x18(%rsp)
   18000121a:	44 89 44 24 10       	mov    %r8d,0x10(%rsp)
   18000121f:	49 c7 c1 20 05 93 19 	mov    $0x19930520,%r9
   180001226:	eb 08                	jmp    0x180001230
   180001228:	cc                   	int3   
   180001229:	cc                   	int3   
   18000122a:	cc                   	int3   
   18000122b:	cc                   	int3   
   18000122c:	cc                   	int3   
   18000122d:	cc                   	int3   
   18000122e:	66 90                	xchg   %ax,%ax
   180001230:	c3                   	retq   
   180001231:	cc                   	int3   
   180001232:	cc                   	int3   
   180001233:	cc                   	int3   
   180001234:	cc                   	int3   
   180001235:	cc                   	int3   
   180001236:	cc                   	int3   
   180001237:	66 66 66 90          	data16 data16 xchg %ax,%ax
   18000123b:	66 66 66 90          	data16 data16 xchg %ax,%ax
   18000123f:	90                   	nop
   180001240:	c3                   	retq   
   180001241:	cc                   	int3   
   180001242:	cc                   	int3   
   180001243:	cc                   	int3   
   180001244:	cc                   	int3   
   180001245:	cc                   	int3   
   180001246:	cc                   	int3   
   180001247:	cc                   	int3   
   180001248:	cc                   	int3   
   180001249:	cc                   	int3   
   18000124a:	cc                   	int3   
   18000124b:	cc                   	int3   
   18000124c:	cc                   	int3   
   18000124d:	cc                   	int3   
   18000124e:	cc                   	int3   
   18000124f:	cc                   	int3   
   180001250:	33 c0                	xor    %eax,%eax
   180001252:	c3                   	retq   
   180001253:	cc                   	int3   
   180001254:	48 8b c4             	mov    %rsp,%rax
   180001257:	48 89 58 08          	mov    %rbx,0x8(%rax)
   18000125b:	57                   	push   %rdi
   18000125c:	48 83 ec 50          	sub    $0x50,%rsp
   180001260:	4c 8d 48 10          	lea    0x10(%rax),%r9
   180001264:	4c 8d 40 c8          	lea    -0x38(%rax),%r8
   180001268:	48 8d 15 29 3f 00 00 	lea    0x3f29(%rip),%rdx        # 0x180005198
   18000126f:	8b f9                	mov    %ecx,%edi
   180001271:	c7 40 10 18 00 00 00 	movl   $0x18,0x10(%rax)
   180001278:	e8 9b 2d 00 00       	callq  0x180004018
   18000127d:	33 db                	xor    %ebx,%ebx
   18000127f:	85 c0                	test   %eax,%eax
   180001281:	74 0a                	je     0x18000128d
   180001283:	33 c9                	xor    %ecx,%ecx
   180001285:	ff 15 ad 3d 00 00    	callq  *0x3dad(%rip)        # 0x180005038
   18000128b:	eb 75                	jmp    0x180001302
   18000128d:	48 83 c8 ff          	or     $0xffffffffffffffff,%rax
   180001291:	8b d3                	mov    %ebx,%edx
   180001293:	48 8b cb             	mov    %rbx,%rcx
   180001296:	44 8d 40 11          	lea    0x11(%rax),%r8d
   18000129a:	48 89 05 5f 4d 00 00 	mov    %rax,0x4d5f(%rip)        # 0x180006000
   1800012a1:	48 89 05 60 4d 00 00 	mov    %rax,0x4d60(%rip)        # 0x180006008
   1800012a8:	4c 8d 0d 51 4d 00 00 	lea    0x4d51(%rip),%r9        # 0x180006000
   1800012af:	66 39 5c 4c 20       	cmp    %bx,0x20(%rsp,%rcx,2)
   1800012b4:	74 12                	je     0x1800012c8
   1800012b6:	8a 44 4c 20          	mov    0x20(%rsp,%rcx,2),%al
   1800012ba:	ff c2                	inc    %edx
   1800012bc:	42 88 04 09          	mov    %al,(%rcx,%r9,1)
   1800012c0:	48 ff c1             	inc    %rcx
   1800012c3:	49 3b c8             	cmp    %r8,%rcx
   1800012c6:	7c e7                	jl     0x1800012af
   1800012c8:	48 63 c2             	movslq %edx,%rax
   1800012cb:	49 3b c0             	cmp    %r8,%rax
   1800012ce:	7d 0e                	jge    0x1800012de
   1800012d0:	4a 8d 0c 08          	lea    (%rax,%r9,1),%rcx
   1800012d4:	4c 2b c0             	sub    %rax,%r8
   1800012d7:	33 d2                	xor    %edx,%edx
   1800012d9:	e8 c6 fe ff ff       	callq  0x1800011a4
   1800012de:	8b cf                	mov    %edi,%ecx
   1800012e0:	e8 2d 2d 00 00       	callq  0x180004012
   1800012e5:	8b f8                	mov    %eax,%edi
   1800012e7:	85 c0                	test   %eax,%eax
   1800012e9:	74 17                	je     0x180001302
   1800012eb:	8b d3                	mov    %ebx,%edx
   1800012ed:	8b cf                	mov    %edi,%ecx
   1800012ef:	e8 08 01 00 00       	callq  0x1800013fc
   1800012f4:	ff c3                	inc    %ebx
   1800012f6:	83 fb 08             	cmp    $0x8,%ebx
   1800012f9:	7c f0                	jl     0x1800012eb
   1800012fb:	8b cf                	mov    %edi,%ecx
   1800012fd:	e8 e6 2c 00 00       	callq  0x180003fe8
   180001302:	b8 46 06 00 00       	mov    $0x646,%eax
   180001307:	48 8b 5c 24 60       	mov    0x60(%rsp),%rbx
   18000130c:	48 83 c4 50          	add    $0x50,%rsp
   180001310:	5f                   	pop    %rdi
   180001311:	c3                   	retq   
   180001312:	cc                   	int3   
   180001313:	cc                   	int3   
   180001314:	b8 01 00 00 00       	mov    $0x1,%eax
   180001319:	c3                   	retq   
   18000131a:	cc                   	int3   
   18000131b:	cc                   	int3   
   18000131c:	48 89 5c 24 08       	mov    %rbx,0x8(%rsp)
   180001321:	48 89 74 24 10       	mov    %rsi,0x10(%rsp)
   180001326:	48 89 7c 24 18       	mov    %rdi,0x18(%rsp)
   18000132b:	41 56                	push   %r14
   18000132d:	48 81 ec 60 02 00 00 	sub    $0x260,%rsp
   180001334:	4d 8b f1             	mov    %r9,%r14
   180001337:	49 8b f0             	mov    %r8,%rsi
   18000133a:	8b fa                	mov    %edx,%edi
   18000133c:	48 8b d9             	mov    %rcx,%rbx
   18000133f:	81 fa fa 00 00 00    	cmp    $0xfa,%edx
   180001345:	73 07                	jae    0x18000134e
   180001347:	33 c0                	xor    %eax,%eax
   180001349:	e9 94 00 00 00       	jmpq   0x1800013e2
   18000134e:	48 8d 15 ab 4c 00 00 	lea    0x4cab(%rip),%rdx        # 0x180006000
   180001355:	48 83 c1 04          	add    $0x4,%rcx
   180001359:	41 b8 10 00 00 00    	mov    $0x10,%r8d
   18000135f:	8a 02                	mov    (%rdx),%al
   180001361:	48 ff c2             	inc    %rdx
   180001364:	30 01                	xor    %al,(%rcx)
   180001366:	48 ff c1             	inc    %rcx
   180001369:	49 ff c8             	dec    %r8
   18000136c:	75 f1                	jne    0x18000135f
   18000136e:	48 8d 54 24 30       	lea    0x30(%rsp),%rdx
   180001373:	48 8b cb             	mov    %rbx,%rcx
   180001376:	e8 79 14 00 00       	callq  0x1800027f4
   18000137b:	48 83 c3 20          	add    $0x20,%rbx
   18000137f:	83 c7 e0             	add    $0xffffffe0,%edi
   180001382:	48 89 1e             	mov    %rbx,(%rsi)
   180001385:	41 89 3e             	mov    %edi,(%r14)
   180001388:	40 f6 c7 0f          	test   $0xf,%dil
   18000138c:	75 b9                	jne    0x180001347
   18000138e:	32 c9                	xor    %cl,%cl
   180001390:	48 8d 54 24 20       	lea    0x20(%rsp),%rdx
   180001395:	fe c1                	inc    %cl
   180001397:	48 ff c2             	inc    %rdx
   18000139a:	80 f9 10             	cmp    $0x10,%cl
   18000139d:	72 f6                	jb     0x180001395
   18000139f:	85 ff                	test   %edi,%edi
   1800013a1:	74 20                	je     0x1800013c3
   1800013a3:	ff cf                	dec    %edi
   1800013a5:	c1 ef 04             	shr    $0x4,%edi
   1800013a8:	ff c7                	inc    %edi
   1800013aa:	4c 8d 44 24 30       	lea    0x30(%rsp),%r8
   1800013af:	48 8b d3             	mov    %rbx,%rdx
   1800013b2:	48 8b cb             	mov    %rbx,%rcx
   1800013b5:	e8 e2 02 00 00       	callq  0x18000169c
   1800013ba:	48 83 c3 10          	add    $0x10,%rbx
   1800013be:	48 ff cf             	dec    %rdi
   1800013c1:	75 e7                	jne    0x1800013aa
   1800013c3:	48 8b 0e             	mov    (%rsi),%rcx
   1800013c6:	81 39 ab ab 00 00    	cmpl   $0xabab,(%rcx)
   1800013cc:	0f 85 75 ff ff ff    	jne    0x180001347
   1800013d2:	48 83 c1 08          	add    $0x8,%rcx
   1800013d6:	b8 01 00 00 00       	mov    $0x1,%eax
   1800013db:	48 89 0e             	mov    %rcx,(%rsi)
   1800013de:	41 83 06 f8          	addl   $0xfffffff8,(%r14)
   1800013e2:	4c 8d 9c 24 60 02 00 	lea    0x260(%rsp),%r11
   1800013e9:	00 
   1800013ea:	49 8b 5b 10          	mov    0x10(%r11),%rbx
   1800013ee:	49 8b 73 18          	mov    0x18(%r11),%rsi
   1800013f2:	49 8b 7b 20          	mov    0x20(%r11),%rdi
   1800013f6:	49 8b e3             	mov    %r11,%rsp
   1800013f9:	41 5e                	pop    %r14
   1800013fb:	c3                   	retq   
   1800013fc:	48 89 5c 24 08       	mov    %rbx,0x8(%rsp)
   180001401:	55                   	push   %rbp
   180001402:	56                   	push   %rsi
   180001403:	57                   	push   %rdi
   180001404:	41 54                	push   %r12
   180001406:	41 56                	push   %r14
   180001408:	48 8d ac 24 b0 f8 ff 	lea    -0x750(%rsp),%rbp
   18000140f:	ff 
   180001410:	48 81 ec 50 08 00 00 	sub    $0x850,%rsp
   180001417:	83 a5 90 07 00 00 00 	andl   $0x0,0x790(%rbp)
   18000141e:	83 64 24 30 00       	andl   $0x0,0x30(%rsp)
   180001423:	83 4c 24 34 ff       	orl    $0xffffffff,0x34(%rsp)
   180001428:	89 54 24 28          	mov    %edx,0x28(%rsp)
   18000142c:	33 f6                	xor    %esi,%esi
   18000142e:	8b d9                	mov    %ecx,%ebx
   180001430:	21 b5 98 07 00 00    	and    %esi,0x798(%rbp)
   180001436:	21 74 24 3c          	and    %esi,0x3c(%rsp)
   18000143a:	21 74 24 38          	and    %esi,0x38(%rsp)
   18000143e:	48 8d 05 c3 3c 00 00 	lea    0x3cc3(%rip),%rax        # 0x180005108
   180001445:	48 8d 15 f4 3c 00 00 	lea    0x3cf4(%rip),%rdx        # 0x180005140
   18000144c:	48 8d 4c 24 50       	lea    0x50(%rsp),%rcx
   180001451:	4c 8d 0d c0 3c 00 00 	lea    0x3cc0(%rip),%r9        # 0x180005118
   180001458:	4c 8d 05 c9 3c 00 00 	lea    0x3cc9(%rip),%r8        # 0x180005128
   18000145f:	45 33 f6             	xor    %r14d,%r14d
   180001462:	48 89 44 24 20       	mov    %rax,0x20(%rsp)
   180001467:	33 ff                	xor    %edi,%edi
   180001469:	ff 15 f9 3b 00 00    	callq  *0x3bf9(%rip)        # 0x180005068
   18000146f:	4c 8d 85 90 07 00 00 	lea    0x790(%rbp),%r8
   180001476:	48 8d 15 9b 3c 00 00 	lea    0x3c9b(%rip),%rdx        # 0x180005118
   18000147d:	8b cb                	mov    %ebx,%ecx
   18000147f:	e8 7c 2b 00 00       	callq  0x180004000
   180001484:	45 8d 66 01          	lea    0x1(%r14),%r12d
   180001488:	85 c0                	test   %eax,%eax
   18000148a:	0f 85 6d 01 00 00    	jne    0x1800015fd
   180001490:	4c 8d 44 24 30       	lea    0x30(%rsp),%r8
   180001495:	48 8d 54 24 50       	lea    0x50(%rsp),%rdx
   18000149a:	8b cb                	mov    %ebx,%ecx
   18000149c:	e8 4d 2b 00 00       	callq  0x180003fee
   1800014a1:	85 c0                	test   %eax,%eax
   1800014a3:	74 0d                	je     0x1800014b2
   1800014a5:	33 c9                	xor    %ecx,%ecx
   1800014a7:	ff 15 8b 3b 00 00    	callq  *0x3b8b(%rip)        # 0x180005038
   1800014ad:	e9 4b 01 00 00       	jmpq   0x1800015fd
   1800014b2:	ff 15 88 3b 00 00    	callq  *0x3b88(%rip)        # 0x180005040
   1800014b8:	8b 8d 90 07 00 00    	mov    0x790(%rbp),%ecx
   1800014be:	e8 25 2b 00 00       	callq  0x180003fe8
   1800014c3:	8b 4c 24 30          	mov    0x30(%rsp),%ecx
   1800014c7:	21 b5 90 07 00 00    	and    %esi,0x790(%rbp)
   1800014cd:	33 d2                	xor    %edx,%edx
   1800014cf:	e8 20 2b 00 00       	callq  0x180003ff4
   1800014d4:	85 c0                	test   %eax,%eax
   1800014d6:	75 cd                	jne    0x1800014a5
   1800014d8:	ff 15 62 3b 00 00    	callq  *0x3b62(%rip)        # 0x180005040
   1800014de:	8b 4c 24 30          	mov    0x30(%rsp),%ecx
   1800014e2:	48 8d 95 90 07 00 00 	lea    0x790(%rbp),%rdx
   1800014e9:	e8 0c 2b 00 00       	callq  0x180003ffa
   1800014ee:	85 c0                	test   %eax,%eax
   1800014f0:	75 b3                	jne    0x1800014a5
   1800014f2:	8b 8d 90 07 00 00    	mov    0x790(%rbp),%ecx
   1800014f8:	8d 50 02             	lea    0x2(%rax),%edx
   1800014fb:	e8 06 2b 00 00       	callq  0x180004006
   180001500:	8b 8d 90 07 00 00    	mov    0x790(%rbp),%ecx
   180001506:	41 8b d4             	mov    %r12d,%edx
   180001509:	e8 f8 2a 00 00       	callq  0x180004006
   18000150e:	89 85 98 07 00 00    	mov    %eax,0x798(%rbp)
   180001514:	85 c0                	test   %eax,%eax
   180001516:	0f 84 e1 00 00 00    	je     0x1800015fd
   18000151c:	33 c9                	xor    %ecx,%ecx
   18000151e:	8b d0                	mov    %eax,%edx
   180001520:	41 b8 00 30 00 00    	mov    $0x3000,%r8d
   180001526:	44 8d 49 40          	lea    0x40(%rcx),%r9d
   18000152a:	ff 15 18 3b 00 00    	callq  *0x3b18(%rip)        # 0x180005048
   180001530:	48 8b f8             	mov    %rax,%rdi
   180001533:	48 85 c0             	test   %rax,%rax
   180001536:	0f 84 c1 00 00 00    	je     0x1800015fd
   18000153c:	33 c9                	xor    %ecx,%ecx
   18000153e:	ff 15 f4 3a 00 00    	callq  *0x3af4(%rip)        # 0x180005038
   180001544:	8b 8d 90 07 00 00    	mov    0x790(%rbp),%ecx
   18000154a:	4c 8d 8d 98 07 00 00 	lea    0x798(%rbp),%r9
   180001551:	4c 8b c7             	mov    %rdi,%r8
   180001554:	41 8b d4             	mov    %r12d,%edx
   180001557:	e8 b0 2a 00 00       	callq  0x18000400c
   18000155c:	8b 8d 90 07 00 00    	mov    0x790(%rbp),%ecx
   180001562:	4c 8d 4c 24 38       	lea    0x38(%rsp),%r9
   180001567:	4c 8b c7             	mov    %rdi,%r8
   18000156a:	41 8b d4             	mov    %r12d,%edx
   18000156d:	8b d8                	mov    %eax,%ebx
   18000156f:	e8 98 2a 00 00       	callq  0x18000400c
   180001574:	85 db                	test   %ebx,%ebx
   180001576:	0f 85 81 00 00 00    	jne    0x1800015fd
   18000157c:	8b 95 98 07 00 00    	mov    0x798(%rbp),%edx
   180001582:	4c 8d 4c 24 3c       	lea    0x3c(%rsp),%r9
   180001587:	4c 8d 44 24 40       	lea    0x40(%rsp),%r8
   18000158c:	48 8b cf             	mov    %rdi,%rcx
   18000158f:	e8 88 fd ff ff       	callq  0x18000131c
   180001594:	85 c0                	test   %eax,%eax
   180001596:	74 65                	je     0x1800015fd
   180001598:	48 8b 5c 24 40       	mov    0x40(%rsp),%rbx
   18000159d:	48 8d 44 24 34       	lea    0x34(%rsp),%rax
   1800015a2:	4c 8d 05 d7 00 00 00 	lea    0xd7(%rip),%r8        # 0x180001680
   1800015a9:	48 89 44 24 28       	mov    %rax,0x28(%rsp)
   1800015ae:	21 74 24 20          	and    %esi,0x20(%rsp)
   1800015b2:	ba 00 00 30 00       	mov    $0x300000,%edx
   1800015b7:	4c 8b cb             	mov    %rbx,%r9
   1800015ba:	33 c9                	xor    %ecx,%ecx
   1800015bc:	ff 15 3e 3a 00 00    	callq  *0x3a3e(%rip)        # 0x180005000
   1800015c2:	48 8b f0             	mov    %rax,%rsi
   1800015c5:	48 85 c0             	test   %rax,%rax
   1800015c8:	74 33                	je     0x1800015fd
   1800015ca:	48 85 db             	test   %rbx,%rbx
   1800015cd:	74 2e                	je     0x1800015fd
   1800015cf:	ba 00 90 01 00       	mov    $0x19000,%edx
   1800015d4:	48 8b c8             	mov    %rax,%rcx
   1800015d7:	ff 15 53 3a 00 00    	callq  *0x3a53(%rip)        # 0x180005030
   1800015dd:	85 c0                	test   %eax,%eax
   1800015df:	74 19                	je     0x1800015fa
   1800015e1:	b9 05 00 00 00       	mov    $0x5,%ecx
   1800015e6:	ff 15 3c 3a 00 00    	callq  *0x3a3c(%rip)        # 0x180005028
   1800015ec:	41 8b d4             	mov    %r12d,%edx
   1800015ef:	48 8b ce             	mov    %rsi,%rcx
   1800015f2:	ff 15 60 3a 00 00    	callq  *0x3a60(%rip)        # 0x180005058
   1800015f8:	eb 03                	jmp    0x1800015fd
   1800015fa:	45 8b f4             	mov    %r12d,%r14d
   1800015fd:	8b 8d 90 07 00 00    	mov    0x790(%rbp),%ecx
   180001603:	85 c9                	test   %ecx,%ecx
   180001605:	74 05                	je     0x18000160c
   180001607:	e8 dc 29 00 00       	callq  0x180003fe8
   18000160c:	ff 15 f6 39 00 00    	callq  *0x39f6(%rip)        # 0x180005008
   180001612:	8b 4c 24 30          	mov    0x30(%rsp),%ecx
   180001616:	85 c9                	test   %ecx,%ecx
   180001618:	74 05                	je     0x18000161f
   18000161a:	e8 c9 29 00 00       	callq  0x180003fe8
   18000161f:	48 85 ff             	test   %rdi,%rdi
   180001622:	74 2a                	je     0x18000164e
   180001624:	33 c9                	xor    %ecx,%ecx
   180001626:	39 8d 98 07 00 00    	cmp    %ecx,0x798(%rbp)
   18000162c:	76 0f                	jbe    0x18000163d
   18000162e:	c6 04 39 00          	movb   $0x0,(%rcx,%rdi,1)
   180001632:	41 03 cc             	add    %r12d,%ecx
   180001635:	3b 8d 98 07 00 00    	cmp    0x798(%rbp),%ecx
   18000163b:	72 f1                	jb     0x18000162e
   18000163d:	33 d2                	xor    %edx,%edx
   18000163f:	41 b8 00 80 00 00    	mov    $0x8000,%r8d
   180001645:	48 8b cf             	mov    %rdi,%rcx
   180001648:	ff 15 02 3a 00 00    	callq  *0x3a02(%rip)        # 0x180005050
   18000164e:	48 85 f6             	test   %rsi,%rsi
   180001651:	74 10                	je     0x180001663
   180001653:	83 7c 24 34 00       	cmpl   $0x0,0x34(%rsp)
   180001658:	74 09                	je     0x180001663
   18000165a:	48 8b ce             	mov    %rsi,%rcx
   18000165d:	ff 15 bd 39 00 00    	callq  *0x39bd(%rip)        # 0x180005020
   180001663:	41 8b c6             	mov    %r14d,%eax
   180001666:	48 8b 9c 24 80 08 00 	mov    0x880(%rsp),%rbx
   18000166d:	00 
   18000166e:	48 81 c4 50 08 00 00 	add    $0x850,%rsp
   180001675:	41 5e                	pop    %r14
   180001677:	41 5c                	pop    %r12
   180001679:	5f                   	pop    %rdi
   18000167a:	5e                   	pop    %rsi
   18000167b:	5d                   	pop    %rbp
   18000167c:	c3                   	retq   
   18000167d:	cc                   	int3   
   18000167e:	cc                   	int3   
   18000167f:	cc                   	int3   
   180001680:	48 83 ec 28          	sub    $0x28,%rsp
   180001684:	48 85 c9             	test   %rcx,%rcx
   180001687:	75 08                	jne    0x180001691
   180001689:	ff 15 b1 39 00 00    	callq  *0x39b1(%rip)        # 0x180005040
   18000168f:	eb 06                	jmp    0x180001697
   180001691:	ff d1                	callq  *%rcx
   180001693:	eb 00                	jmp    0x180001695
   180001695:	33 c0                	xor    %eax,%eax
   180001697:	48 83 c4 28          	add    $0x28,%rsp
   18000169b:	c3                   	retq   
   18000169c:	48 8b c4             	mov    %rsp,%rax
   18000169f:	48 89 58 08          	mov    %rbx,0x8(%rax)
   1800016a3:	48 89 70 10          	mov    %rsi,0x10(%rax)
   1800016a7:	48 89 78 18          	mov    %rdi,0x18(%rax)
   1800016ab:	4c 89 70 20          	mov    %r14,0x20(%rax)
   1800016af:	41 57                	push   %r15
   1800016b1:	41 8b 98 0c 02 00 00 	mov    0x20c(%r8),%ebx
   1800016b8:	41 8b 80 00 02 00 00 	mov    0x200(%r8),%eax
   1800016bf:	45 8b 90 08 02 00 00 	mov    0x208(%r8),%r10d
   1800016c6:	33 59 0c             	xor    0xc(%rcx),%ebx
   1800016c9:	33 01                	xor    (%rcx),%eax
   1800016cb:	44 33 51 08          	xor    0x8(%rcx),%r10d
   1800016cf:	45 8b 88 04 02 00 00 	mov    0x204(%r8),%r9d
   1800016d6:	41 8b b8 f0 01 00 00 	mov    0x1f0(%r8),%edi
   1800016dd:	44 8b db             	mov    %ebx,%r11d
   1800016e0:	44 33 49 04          	xor    0x4(%rcx),%r9d
   1800016e4:	23 d8                	and    %eax,%ebx
   1800016e6:	41 33 c2             	xor    %r10d,%eax
   1800016e9:	45 0b d3             	or     %r11d,%r10d
   1800016ec:	45 33 d9             	xor    %r9d,%r11d
   1800016ef:	44 0b cb             	or     %ebx,%r9d
   1800016f2:	41 33 da             	xor    %r10d,%ebx
   1800016f5:	4d 8b f0             	mov    %r8,%r14
   1800016f8:	f7 d0                	not    %eax
   1800016fa:	41 8b b6 e8 01 00 00 	mov    0x1e8(%r14),%esi
   180001701:	44 33 d8             	xor    %eax,%r11d
   180001704:	41 8b ca             	mov    %r10d,%ecx
   180001707:	44 33 db             	xor    %ebx,%r11d
   18000170a:	23 c8                	and    %eax,%ecx
   18000170c:	4c 8b fa             	mov    %rdx,%r15
   18000170f:	41 8b 90 f8 01 00 00 	mov    0x1f8(%r8),%edx
   180001716:	41 33 c9             	xor    %r9d,%ecx
   180001719:	45 23 ca             	and    %r10d,%r9d
   18000171c:	44 23 d3             	and    %ebx,%r10d
   18000171f:	45 33 cb             	xor    %r11d,%r9d
   180001722:	0b d9                	or     %ecx,%ebx
   180001724:	41 33 98 f4 01 00 00 	xor    0x1f4(%r8),%ebx
   18000172b:	41 33 f9             	xor    %r9d,%edi
   18000172e:	33 d1                	xor    %ecx,%edx
   180001730:	41 33 db             	xor    %r11d,%ebx
   180001733:	44 23 d9             	and    %ecx,%r11d
   180001736:	c1 cf 05             	ror    $0x5,%edi
   180001739:	45 33 98 fc 01 00 00 	xor    0x1fc(%r8),%r11d
   180001740:	8b c3                	mov    %ebx,%eax
   180001742:	c1 ca 16             	ror    $0x16,%edx
   180001745:	45 33 da             	xor    %r10d,%r11d
   180001748:	c1 e0 07             	shl    $0x7,%eax
   18000174b:	41 33 fb             	xor    %r11d,%edi
   18000174e:	33 d0                	xor    %eax,%edx
   180001750:	33 fb                	xor    %ebx,%edi
   180001752:	41 33 d3             	xor    %r11d,%edx
   180001755:	41 c1 cb 07          	ror    $0x7,%r11d
   180001759:	8b c7                	mov    %edi,%eax
   18000175b:	c1 e0 03             	shl    $0x3,%eax
   18000175e:	d1 cb                	ror    %ebx
   180001760:	44 33 d8             	xor    %eax,%r11d
   180001763:	41 8b 86 e0 01 00 00 	mov    0x1e0(%r14),%eax
   18000176a:	33 df                	xor    %edi,%ebx
   18000176c:	44 33 da             	xor    %edx,%r11d
   18000176f:	33 da                	xor    %edx,%ebx
   180001771:	45 8b d3             	mov    %r11d,%r10d
   180001774:	c1 cf 0d             	ror    $0xd,%edi
   180001777:	c1 ca 03             	ror    $0x3,%edx
   18000177a:	33 fa                	xor    %edx,%edi
   18000177c:	41 33 d3             	xor    %r11d,%edx
   18000177f:	44 33 db             	xor    %ebx,%r11d
   180001782:	44 23 d7             	and    %edi,%r10d
   180001785:	44 8b c7             	mov    %edi,%r8d
   180001788:	44 0b c2             	or     %edx,%r8d
   18000178b:	44 33 d2             	xor    %edx,%r10d
   18000178e:	45 33 c3             	xor    %r11d,%r8d
   180001791:	45 23 da             	and    %r10d,%r11d
   180001794:	41 f7 d2             	not    %r10d
   180001797:	41 33 fa             	xor    %r10d,%edi
   18000179a:	44 33 db             	xor    %ebx,%r11d
   18000179d:	41 23 d8             	and    %r8d,%ebx
   1800017a0:	44 33 d3             	xor    %ebx,%r10d
   1800017a3:	44 33 df             	xor    %edi,%r11d
   1800017a6:	41 33 f8             	xor    %r8d,%edi
   1800017a9:	41 33 be e4 01 00 00 	xor    0x1e4(%r14),%edi
   1800017b0:	41 33 c2             	xor    %r10d,%eax
   1800017b3:	45 33 96 ec 01 00 00 	xor    0x1ec(%r14),%r10d
   1800017ba:	44 33 c0             	xor    %eax,%r8d
   1800017bd:	41 c1 c8 05          	ror    $0x5,%r8d
   1800017c1:	44 33 c7             	xor    %edi,%r8d
   1800017c4:	45 33 c2             	xor    %r10d,%r8d
   1800017c7:	41 33 f3             	xor    %r11d,%esi
   1800017ca:	c1 ce 16             	ror    $0x16,%esi
   1800017cd:	45 8b 8e d4 01 00 00 	mov    0x1d4(%r14),%r9d
   1800017d4:	8b c7                	mov    %edi,%eax
   1800017d6:	d1 cf                	ror    %edi
   1800017d8:	c1 e0 07             	shl    $0x7,%eax
   1800017db:	33 f0                	xor    %eax,%esi
   1800017dd:	41 33 f8             	xor    %r8d,%edi
   1800017e0:	41 8b c0             	mov    %r8d,%eax
   1800017e3:	41 33 f2             	xor    %r10d,%esi
   1800017e6:	c1 e0 03             	shl    $0x3,%eax
   1800017e9:	41 c1 ca 07          	ror    $0x7,%r10d
   1800017ed:	44 33 d6             	xor    %esi,%r10d
   1800017f0:	33 fe                	xor    %esi,%edi
   1800017f2:	41 c1 c8 0d          	ror    $0xd,%r8d
   1800017f6:	44 33 d0             	xor    %eax,%r10d
   1800017f9:	c1 ce 03             	ror    $0x3,%esi
   1800017fc:	8b ce                	mov    %esi,%ecx
   1800017fe:	33 f7                	xor    %edi,%esi
   180001800:	0b cf                	or     %edi,%ecx
   180001802:	41 33 ca             	xor    %r10d,%ecx
   180001805:	44 23 d7             	and    %edi,%r10d
   180001808:	41 33 f2             	xor    %r10d,%esi
   18000180b:	45 0b d0             	or     %r8d,%r10d
   18000180e:	41 f7 d0             	not    %r8d
   180001811:	44 33 d6             	xor    %esi,%r10d
   180001814:	41 0b f0             	or     %r8d,%esi
   180001817:	33 f9                	xor    %ecx,%edi
   180001819:	33 f7                	xor    %edi,%esi
   18000181b:	41 23 f8             	and    %r8d,%edi
   18000181e:	8b c1                	mov    %ecx,%eax
   180001820:	41 33 c0             	xor    %r8d,%eax
   180001823:	45 8b 86 d0 01 00 00 	mov    0x1d0(%r14),%r8d
   18000182a:	44 33 cf             	xor    %edi,%r9d
   18000182d:	23 c6                	and    %esi,%eax
   18000182f:	44 33 c1             	xor    %ecx,%r8d
   180001832:	41 8b 8e d8 01 00 00 	mov    0x1d8(%r14),%ecx
   180001839:	41 33 f2             	xor    %r10d,%esi
   18000183c:	45 33 ca             	xor    %r10d,%r9d
   18000183f:	45 33 c2             	xor    %r10d,%r8d
   180001842:	33 c6                	xor    %esi,%eax
   180001844:	33 f7                	xor    %edi,%esi
   180001846:	41 33 b6 dc 01 00 00 	xor    0x1dc(%r14),%esi
   18000184d:	33 c8                	xor    %eax,%ecx
   18000184f:	41 8b c1             	mov    %r9d,%eax
   180001852:	c1 e0 07             	shl    $0x7,%eax
   180001855:	41 c1 c8 05          	ror    $0x5,%r8d
   180001859:	44 33 c6             	xor    %esi,%r8d
   18000185c:	45 33 c1             	xor    %r9d,%r8d
   18000185f:	c1 c9 16             	ror    $0x16,%ecx
   180001862:	33 c8                	xor    %eax,%ecx
   180001864:	41 8b c0             	mov    %r8d,%eax
   180001867:	41 d1 c9             	ror    %r9d
   18000186a:	33 ce                	xor    %esi,%ecx
   18000186c:	45 33 c8             	xor    %r8d,%r9d
   18000186f:	c1 ce 07             	ror    $0x7,%esi
   180001872:	44 33 c9             	xor    %ecx,%r9d
   180001875:	c1 e0 03             	shl    $0x3,%eax
   180001878:	41 c1 c8 0d          	ror    $0xd,%r8d
   18000187c:	33 f0                	xor    %eax,%esi
   18000187e:	41 8b 86 c0 01 00 00 	mov    0x1c0(%r14),%eax
   180001885:	45 8b d1             	mov    %r9d,%r10d
   180001888:	33 f1                	xor    %ecx,%esi
   18000188a:	45 23 d0             	and    %r8d,%r10d
   18000188d:	41 f7 d0             	not    %r8d
   180001890:	c1 c9 03             	ror    $0x3,%ecx
   180001893:	45 8b d8             	mov    %r8d,%r11d
   180001896:	33 ce                	xor    %esi,%ecx
   180001898:	44 33 d1             	xor    %ecx,%r10d
   18000189b:	0b ce                	or     %esi,%ecx
   18000189d:	45 33 ca             	xor    %r10d,%r9d
   1800018a0:	44 33 d1             	xor    %ecx,%r10d
   1800018a3:	44 23 d9             	and    %ecx,%r11d
   1800018a6:	45 33 da             	xor    %r10d,%r11d
   1800018a9:	45 0b d0             	or     %r8d,%r10d
   1800018ac:	44 33 d6             	xor    %esi,%r10d
   1800018af:	41 23 f3             	and    %r11d,%esi
   1800018b2:	44 33 c6             	xor    %esi,%r8d
   1800018b5:	41 33 f1             	xor    %r9d,%esi
   1800018b8:	45 23 ca             	and    %r10d,%r9d
   1800018bb:	33 c6                	xor    %esi,%eax
   1800018bd:	44 33 d0             	xor    %eax,%r10d
   1800018c0:	41 c1 ca 05          	ror    $0x5,%r10d
   1800018c4:	41 33 b6 cc 01 00 00 	xor    0x1cc(%r14),%esi
   1800018cb:	45 33 9e c4 01 00 00 	xor    0x1c4(%r14),%r11d
   1800018d2:	41 8b 96 c8 01 00 00 	mov    0x1c8(%r14),%edx
   1800018d9:	44 33 d6             	xor    %esi,%r10d
   1800018dc:	41 8b c3             	mov    %r11d,%eax
   1800018df:	45 33 d3             	xor    %r11d,%r10d
   1800018e2:	41 33 d1             	xor    %r9d,%edx
   1800018e5:	45 8b 8e b4 01 00 00 	mov    0x1b4(%r14),%r9d
   1800018ec:	41 33 d0             	xor    %r8d,%edx
   1800018ef:	45 8b 86 b8 01 00 00 	mov    0x1b8(%r14),%r8d
   1800018f6:	41 d1 cb             	ror    %r11d
   1800018f9:	45 33 da             	xor    %r10d,%r11d
   1800018fc:	c1 e0 07             	shl    $0x7,%eax
   1800018ff:	c1 ca 16             	ror    $0x16,%edx
   180001902:	33 d0                	xor    %eax,%edx
   180001904:	41 8b c2             	mov    %r10d,%eax
   180001907:	41 c1 ca 0d          	ror    $0xd,%r10d
   18000190b:	33 d6                	xor    %esi,%edx
   18000190d:	c1 e0 03             	shl    $0x3,%eax
   180001910:	c1 ce 07             	ror    $0x7,%esi
   180001913:	33 f0                	xor    %eax,%esi
   180001915:	44 33 da             	xor    %edx,%r11d
   180001918:	33 f2                	xor    %edx,%esi
   18000191a:	c1 ca 03             	ror    $0x3,%edx
   18000191d:	41 33 d3             	xor    %r11d,%edx
   180001920:	8b ca                	mov    %edx,%ecx
   180001922:	41 23 cb             	and    %r11d,%ecx
   180001925:	41 33 ca             	xor    %r10d,%ecx
   180001928:	45 0b d3             	or     %r11d,%r10d
   18000192b:	44 33 de             	xor    %esi,%r11d
   18000192e:	44 33 d6             	xor    %esi,%r10d
   180001931:	0b f1                	or     %ecx,%esi
   180001933:	44 33 d2             	xor    %edx,%r10d
   180001936:	8b c6                	mov    %esi,%eax
   180001938:	33 c2                	xor    %edx,%eax
   18000193a:	33 c8                	xor    %eax,%ecx
   18000193c:	23 f1                	and    %ecx,%esi
   18000193e:	41 33 ca             	xor    %r10d,%ecx
   180001941:	44 23 d0             	and    %eax,%r10d
   180001944:	45 33 ca             	xor    %r10d,%r9d
   180001947:	44 33 de             	xor    %esi,%r11d
   18000194a:	41 33 f2             	xor    %r10d,%esi
   18000194d:	41 33 b6 bc 01 00 00 	xor    0x1bc(%r14),%esi
   180001954:	45 8b 96 b0 01 00 00 	mov    0x1b0(%r14),%r10d
   18000195b:	44 33 c9             	xor    %ecx,%r9d
   18000195e:	44 33 d0             	xor    %eax,%r10d
   180001961:	45 33 c3             	xor    %r11d,%r8d
   180001964:	41 8b c1             	mov    %r9d,%eax
   180001967:	c1 e0 07             	shl    $0x7,%eax
   18000196a:	41 c1 c8 16          	ror    $0x16,%r8d
   18000196e:	44 33 c0             	xor    %eax,%r8d
   180001971:	44 33 c6             	xor    %esi,%r8d
   180001974:	41 c1 ca 05          	ror    $0x5,%r10d
   180001978:	44 33 d6             	xor    %esi,%r10d
   18000197b:	45 33 d1             	xor    %r9d,%r10d
   18000197e:	c1 ce 07             	ror    $0x7,%esi
   180001981:	41 8b c2             	mov    %r10d,%eax
   180001984:	c1 e0 03             	shl    $0x3,%eax
   180001987:	41 d1 c9             	ror    %r9d
   18000198a:	33 f0                	xor    %eax,%esi
   18000198c:	45 33 ca             	xor    %r10d,%r9d
   18000198f:	41 c1 ca 0d          	ror    $0xd,%r10d
   180001993:	41 33 f0             	xor    %r8d,%esi
   180001996:	45 33 c8             	xor    %r8d,%r9d
   180001999:	41 c1 c8 03          	ror    $0x3,%r8d
   18000199d:	45 33 c1             	xor    %r9d,%r8d
   1800019a0:	8b d6                	mov    %esi,%edx
   1800019a2:	f7 d2                	not    %edx
   1800019a4:	41 0b d0             	or     %r8d,%edx
   1800019a7:	44 33 c6             	xor    %esi,%r8d
   1800019aa:	41 33 f2             	xor    %r10d,%esi
   1800019ad:	41 33 d1             	xor    %r9d,%edx
   1800019b0:	41 8b c8             	mov    %r8d,%ecx
   1800019b3:	41 0b c9             	or     %r9d,%ecx
   1800019b6:	8b da                	mov    %edx,%ebx
   1800019b8:	44 8b da             	mov    %edx,%r11d
   1800019bb:	41 33 d8             	xor    %r8d,%ebx
   1800019be:	33 ce                	xor    %esi,%ecx
   1800019c0:	41 33 da             	xor    %r10d,%ebx
   1800019c3:	44 0b de             	or     %esi,%r11d
   1800019c6:	41 8b 86 a4 01 00 00 	mov    0x1a4(%r14),%eax
   1800019cd:	45 8b 86 a0 01 00 00 	mov    0x1a0(%r14),%r8d
   1800019d4:	45 8b 8e a8 01 00 00 	mov    0x1a8(%r14),%r9d
   1800019db:	41 8b be 90 01 00 00 	mov    0x190(%r14),%edi
   1800019e2:	41 33 c2             	xor    %r10d,%eax
   1800019e5:	44 33 db             	xor    %ebx,%r11d
   1800019e8:	23 d9                	and    %ecx,%ebx
   1800019ea:	44 33 c1             	xor    %ecx,%r8d
   1800019ed:	33 da                	xor    %edx,%ebx
   1800019ef:	41 33 d3             	xor    %r11d,%edx
   1800019f2:	44 33 d8             	xor    %eax,%r11d
   1800019f5:	41 33 9e ac 01 00 00 	xor    0x1ac(%r14),%ebx
   1800019fc:	44 33 ca             	xor    %edx,%r9d
   1800019ff:	41 8b 96 9c 01 00 00 	mov    0x19c(%r14),%edx
   180001a06:	41 c1 c8 05          	ror    $0x5,%r8d
   180001a0a:	41 8b c3             	mov    %r11d,%eax
   180001a0d:	c1 e0 07             	shl    $0x7,%eax
   180001a10:	41 c1 c9 16          	ror    $0x16,%r9d
   180001a14:	44 33 c3             	xor    %ebx,%r8d
   180001a17:	44 33 c8             	xor    %eax,%r9d
   180001a1a:	45 33 c3             	xor    %r11d,%r8d
   180001a1d:	44 33 cb             	xor    %ebx,%r9d
   180001a20:	41 8b c0             	mov    %r8d,%eax
   180001a23:	c1 e0 03             	shl    $0x3,%eax
   180001a26:	41 d1 cb             	ror    %r11d
   180001a29:	45 33 d8             	xor    %r8d,%r11d
   180001a2c:	45 33 d9             	xor    %r9d,%r11d
   180001a2f:	c1 cb 07             	ror    $0x7,%ebx
   180001a32:	33 d8                	xor    %eax,%ebx
   180001a34:	41 33 d9             	xor    %r9d,%ebx
   180001a37:	41 c1 c9 03          	ror    $0x3,%r9d
   180001a3b:	44 33 db             	xor    %ebx,%r11d
   180001a3e:	41 c1 c8 0d          	ror    $0xd,%r8d
   180001a42:	41 8b c8             	mov    %r8d,%ecx
   180001a45:	45 33 c1             	xor    %r9d,%r8d
   180001a48:	41 f7 d1             	not    %r9d
   180001a4b:	41 0b cb             	or     %r11d,%ecx
   180001a4e:	45 8b d0             	mov    %r8d,%r10d
   180001a51:	33 cb                	xor    %ebx,%ecx
   180001a53:	41 23 db             	and    %r11d,%ebx
   180001a56:	45 33 d9             	xor    %r9d,%r11d
   180001a59:	44 23 c9             	and    %ecx,%r9d
   180001a5c:	41 33 cb             	xor    %r11d,%ecx
   180001a5f:	33 d3                	xor    %ebx,%edx
   180001a61:	33 f9                	xor    %ecx,%edi
   180001a63:	44 0b d1             	or     %ecx,%r10d
   180001a66:	41 33 d0             	xor    %r8d,%edx
   180001a69:	45 33 c8             	xor    %r8d,%r9d
   180001a6c:	8b c3                	mov    %ebx,%eax
   180001a6e:	41 0b c3             	or     %r11d,%eax
   180001a71:	44 33 c9             	xor    %ecx,%r9d
   180001a74:	41 8b 8e 98 01 00 00 	mov    0x198(%r14),%ecx
   180001a7b:	44 33 d0             	xor    %eax,%r10d
   180001a7e:	41 33 c9             	xor    %r9d,%ecx
   180001a81:	41 33 fa             	xor    %r10d,%edi
   180001a84:	45 33 96 94 01 00 00 	xor    0x194(%r14),%r10d
   180001a8b:	41 8b c2             	mov    %r10d,%eax
   180001a8e:	c1 e0 07             	shl    $0x7,%eax
   180001a91:	c1 cf 05             	ror    $0x5,%edi
   180001a94:	33 fa                	xor    %edx,%edi
   180001a96:	41 33 fa             	xor    %r10d,%edi
   180001a99:	c1 c9 16             	ror    $0x16,%ecx
   180001a9c:	33 c8                	xor    %eax,%ecx
   180001a9e:	8b c7                	mov    %edi,%eax
   180001aa0:	41 d1 ca             	ror    %r10d
   180001aa3:	33 ca                	xor    %edx,%ecx
   180001aa5:	c1 e0 03             	shl    $0x3,%eax
   180001aa8:	c1 ca 07             	ror    $0x7,%edx
   180001aab:	33 d0                	xor    %eax,%edx
   180001aad:	44 33 d7             	xor    %edi,%r10d
   180001ab0:	c1 cf 0d             	ror    $0xd,%edi
   180001ab3:	33 d1                	xor    %ecx,%edx
   180001ab5:	8b c1                	mov    %ecx,%eax
   180001ab7:	c1 c9 03             	ror    $0x3,%ecx
   180001aba:	33 c7                	xor    %edi,%eax
   180001abc:	44 8b da             	mov    %edx,%r11d
   180001abf:	f7 d7                	not    %edi
   180001ac1:	44 33 d0             	xor    %eax,%r10d
   180001ac4:	41 0b d2             	or     %r10d,%edx
   180001ac7:	45 33 da             	xor    %r10d,%r11d
   180001aca:	33 ca                	xor    %edx,%ecx
   180001acc:	41 8b 86 8c 01 00 00 	mov    0x18c(%r14),%eax
   180001ad3:	45 8b 86 80 01 00 00 	mov    0x180(%r14),%r8d
   180001ada:	33 d7                	xor    %edi,%edx
   180001adc:	41 23 fa             	and    %r10d,%edi
   180001adf:	33 f9                	xor    %ecx,%edi
   180001ae1:	23 ca                	and    %edx,%ecx
   180001ae3:	41 33 d3             	xor    %r11d,%edx
   180001ae6:	33 ca                	xor    %edx,%ecx
   180001ae8:	44 33 d2             	xor    %edx,%r10d
   180001aeb:	23 d7                	and    %edi,%edx
   180001aed:	41 33 96 84 01 00 00 	xor    0x184(%r14),%edx
   180001af4:	33 c1                	xor    %ecx,%eax
   180001af6:	44 33 c1             	xor    %ecx,%r8d
   180001af9:	41 8b 8e 88 01 00 00 	mov    0x188(%r14),%ecx
   180001b00:	44 33 da             	xor    %edx,%r11d
   180001b03:	44 33 d7             	xor    %edi,%r10d
   180001b06:	33 f8                	xor    %eax,%edi
   180001b08:	41 33 ca             	xor    %r10d,%ecx
   180001b0b:	41 c1 c8 05          	ror    $0x5,%r8d
   180001b0f:	45 33 c3             	xor    %r11d,%r8d
   180001b12:	41 8b c3             	mov    %r11d,%eax
   180001b15:	c1 c9 16             	ror    $0x16,%ecx
   180001b18:	44 33 c7             	xor    %edi,%r8d
   180001b1b:	c1 e0 07             	shl    $0x7,%eax
   180001b1e:	41 d1 cb             	ror    %r11d
   180001b21:	33 c8                	xor    %eax,%ecx
   180001b23:	45 33 d8             	xor    %r8d,%r11d
   180001b26:	41 8b c0             	mov    %r8d,%eax
   180001b29:	33 cf                	xor    %edi,%ecx
   180001b2b:	c1 e0 03             	shl    $0x3,%eax
   180001b2e:	44 33 d9             	xor    %ecx,%r11d
   180001b31:	41 c1 c8 0d          	ror    $0xd,%r8d
   180001b35:	c1 cf 07             	ror    $0x7,%edi
   180001b38:	33 f8                	xor    %eax,%edi
   180001b3a:	33 f9                	xor    %ecx,%edi
   180001b3c:	c1 c9 03             	ror    $0x3,%ecx
   180001b3f:	8b c7                	mov    %edi,%eax
   180001b41:	41 23 f8             	and    %r8d,%edi
   180001b44:	44 33 c1             	xor    %ecx,%r8d
   180001b47:	0b c8                	or     %eax,%ecx
   180001b49:	41 33 c3             	xor    %r11d,%eax
   180001b4c:	44 0b df             	or     %edi,%r11d
   180001b4f:	33 f9                	xor    %ecx,%edi
   180001b51:	41 f7 d0             	not    %r8d
   180001b54:	41 33 c0             	xor    %r8d,%eax
   180001b57:	44 23 c1             	and    %ecx,%r8d
   180001b5a:	33 c7                	xor    %edi,%eax
   180001b5c:	45 33 c3             	xor    %r11d,%r8d
   180001b5f:	44 23 d9             	and    %ecx,%r11d
   180001b62:	23 cf                	and    %edi,%ecx
   180001b64:	44 33 d8             	xor    %eax,%r11d
   180001b67:	45 8b c8             	mov    %r8d,%r9d
   180001b6a:	44 23 c8             	and    %eax,%r9d
   180001b6d:	41 8b d0             	mov    %r8d,%edx
   180001b70:	45 33 8e 7c 01 00 00 	xor    0x17c(%r14),%r9d
   180001b77:	0b d7                	or     %edi,%edx
   180001b79:	41 8b be 70 01 00 00 	mov    0x170(%r14),%edi
   180001b80:	44 33 c9             	xor    %ecx,%r9d
   180001b83:	41 8b 8e 78 01 00 00 	mov    0x178(%r14),%ecx
   180001b8a:	33 d0                	xor    %eax,%edx
   180001b8c:	41 33 96 74 01 00 00 	xor    0x174(%r14),%edx
   180001b93:	41 33 c8             	xor    %r8d,%ecx
   180001b96:	41 33 fb             	xor    %r11d,%edi
   180001b99:	8b c2                	mov    %edx,%eax
   180001b9b:	c1 e0 07             	shl    $0x7,%eax
   180001b9e:	c1 c9 16             	ror    $0x16,%ecx
   180001ba1:	33 c8                	xor    %eax,%ecx
   180001ba3:	41 33 c9             	xor    %r9d,%ecx
   180001ba6:	c1 cf 05             	ror    $0x5,%edi
   180001ba9:	41 33 f9             	xor    %r9d,%edi
   180001bac:	33 fa                	xor    %edx,%edi
   180001bae:	41 c1 c9 07          	ror    $0x7,%r9d
   180001bb2:	8b c7                	mov    %edi,%eax
   180001bb4:	c1 e0 03             	shl    $0x3,%eax
   180001bb7:	d1 ca                	ror    %edx
   180001bb9:	33 d1                	xor    %ecx,%edx
   180001bbb:	44 33 c8             	xor    %eax,%r9d
   180001bbe:	44 33 c9             	xor    %ecx,%r9d
   180001bc1:	33 d7                	xor    %edi,%edx
   180001bc3:	c1 c9 03             	ror    $0x3,%ecx
   180001bc6:	c1 cf 0d             	ror    $0xd,%edi
   180001bc9:	45 8b 96 60 01 00 00 	mov    0x160(%r14),%r10d
   180001bd0:	45 8b 86 50 01 00 00 	mov    0x150(%r14),%r8d
   180001bd7:	41 8b 9e 58 01 00 00 	mov    0x158(%r14),%ebx
   180001bde:	33 f9                	xor    %ecx,%edi
   180001be0:	41 33 c9             	xor    %r9d,%ecx
   180001be3:	45 8b d9             	mov    %r9d,%r11d
   180001be6:	44 23 df             	and    %edi,%r11d
   180001be9:	44 33 ca             	xor    %edx,%r9d
   180001bec:	44 33 d9             	xor    %ecx,%r11d
   180001bef:	0b cf                	or     %edi,%ecx
   180001bf1:	41 33 c9             	xor    %r9d,%ecx
   180001bf4:	45 23 cb             	and    %r11d,%r9d
   180001bf7:	41 f7 d3             	not    %r11d
   180001bfa:	41 33 fb             	xor    %r11d,%edi
   180001bfd:	44 33 d1             	xor    %ecx,%r10d
   180001c00:	44 33 ca             	xor    %edx,%r9d
   180001c03:	44 33 cf             	xor    %edi,%r9d
   180001c06:	33 f9                	xor    %ecx,%edi
   180001c08:	8b c1                	mov    %ecx,%eax
   180001c0a:	41 33 be 64 01 00 00 	xor    0x164(%r14),%edi
   180001c11:	23 c2                	and    %edx,%eax
   180001c13:	41 8b 96 68 01 00 00 	mov    0x168(%r14),%edx
   180001c1a:	44 33 d8             	xor    %eax,%r11d
   180001c1d:	8b c7                	mov    %edi,%eax
   180001c1f:	41 33 d1             	xor    %r9d,%edx
   180001c22:	45 33 d3             	xor    %r11d,%r10d
   180001c25:	45 33 9e 6c 01 00 00 	xor    0x16c(%r14),%r11d
   180001c2c:	c1 e0 07             	shl    $0x7,%eax
   180001c2f:	c1 ca 16             	ror    $0x16,%edx
   180001c32:	33 d0                	xor    %eax,%edx
   180001c34:	41 33 d3             	xor    %r11d,%edx
   180001c37:	41 c1 ca 05          	ror    $0x5,%r10d
   180001c3b:	45 33 d3             	xor    %r11d,%r10d
   180001c3e:	44 33 d7             	xor    %edi,%r10d
   180001c41:	d1 cf                	ror    %edi
   180001c43:	41 33 fa             	xor    %r10d,%edi
   180001c46:	41 8b c2             	mov    %r10d,%eax
   180001c49:	41 c1 cb 07          	ror    $0x7,%r11d
   180001c4d:	33 fa                	xor    %edx,%edi
   180001c4f:	c1 e0 03             	shl    $0x3,%eax
   180001c52:	41 c1 ca 0d          	ror    $0xd,%r10d
   180001c56:	44 33 d8             	xor    %eax,%r11d
   180001c59:	41 8b 86 54 01 00 00 	mov    0x154(%r14),%eax
   180001c60:	44 33 da             	xor    %edx,%r11d
   180001c63:	c1 ca 03             	ror    $0x3,%edx
   180001c66:	8b ca                	mov    %edx,%ecx
   180001c68:	0b cf                	or     %edi,%ecx
   180001c6a:	41 33 cb             	xor    %r11d,%ecx
   180001c6d:	44 23 df             	and    %edi,%r11d
   180001c70:	41 33 d3             	xor    %r11d,%edx
   180001c73:	45 0b da             	or     %r10d,%r11d
   180001c76:	41 f7 d2             	not    %r10d
   180001c79:	33 d7                	xor    %edi,%edx
   180001c7b:	33 f9                	xor    %ecx,%edi
   180001c7d:	41 8b f2             	mov    %r10d,%esi
   180001c80:	0b f2                	or     %edx,%esi
   180001c82:	44 33 da             	xor    %edx,%r11d
   180001c85:	33 f7                	xor    %edi,%esi
   180001c87:	41 23 fa             	and    %r10d,%edi
   180001c8a:	45 33 c3             	xor    %r11d,%r8d
   180001c8d:	41 33 c3             	xor    %r11d,%eax
   180001c90:	44 33 c1             	xor    %ecx,%r8d
   180001c93:	44 33 d1             	xor    %ecx,%r10d
   180001c96:	44 23 d6             	and    %esi,%r10d
   180001c99:	41 33 f3             	xor    %r11d,%esi
   180001c9c:	44 33 d6             	xor    %esi,%r10d
   180001c9f:	33 f7                	xor    %edi,%esi
   180001ca1:	33 f8                	xor    %eax,%edi
   180001ca3:	41 33 b6 5c 01 00 00 	xor    0x15c(%r14),%esi
   180001caa:	41 33 da             	xor    %r10d,%ebx
   180001cad:	8b c7                	mov    %edi,%eax
   180001caf:	41 c1 c8 05          	ror    $0x5,%r8d
   180001cb3:	c1 e0 07             	shl    $0x7,%eax
   180001cb6:	44 33 c6             	xor    %esi,%r8d
   180001cb9:	c1 cb 16             	ror    $0x16,%ebx
   180001cbc:	44 33 c7             	xor    %edi,%r8d
   180001cbf:	33 d8                	xor    %eax,%ebx
   180001cc1:	d1 cf                	ror    %edi
   180001cc3:	41 33 f8             	xor    %r8d,%edi
   180001cc6:	33 de                	xor    %esi,%ebx
   180001cc8:	c1 ce 07             	ror    $0x7,%esi
   180001ccb:	41 8b 96 48 01 00 00 	mov    0x148(%r14),%edx
   180001cd2:	45 8b 9e 38 01 00 00 	mov    0x138(%r14),%r11d
   180001cd9:	33 fb                	xor    %ebx,%edi
   180001cdb:	41 8b c0             	mov    %r8d,%eax
   180001cde:	41 c1 c8 0d          	ror    $0xd,%r8d
   180001ce2:	c1 e0 03             	shl    $0x3,%eax
   180001ce5:	33 f0                	xor    %eax,%esi
   180001ce7:	8b c7                	mov    %edi,%eax
   180001ce9:	33 f3                	xor    %ebx,%esi
   180001ceb:	41 23 c0             	and    %r8d,%eax
   180001cee:	41 f7 d0             	not    %r8d
   180001cf1:	c1 cb 03             	ror    $0x3,%ebx
   180001cf4:	45 8b c8             	mov    %r8d,%r9d
   180001cf7:	33 de                	xor    %esi,%ebx
   180001cf9:	33 c3                	xor    %ebx,%eax
   180001cfb:	0b de                	or     %esi,%ebx
   180001cfd:	33 f8                	xor    %eax,%edi
   180001cff:	33 c3                	xor    %ebx,%eax
   180001d01:	41 23 d8             	and    %r8d,%ebx
   180001d04:	44 0b c8             	or     %eax,%r9d
   180001d07:	33 d8                	xor    %eax,%ebx
   180001d09:	41 8b 86 40 01 00 00 	mov    0x140(%r14),%eax
   180001d10:	44 33 ce             	xor    %esi,%r9d
   180001d13:	23 f3                	and    %ebx,%esi
   180001d15:	41 33 9e 44 01 00 00 	xor    0x144(%r14),%ebx
   180001d1c:	44 33 c6             	xor    %esi,%r8d
   180001d1f:	33 f7                	xor    %edi,%esi
   180001d21:	41 23 f9             	and    %r9d,%edi
   180001d24:	33 c6                	xor    %esi,%eax
   180001d26:	41 33 b6 4c 01 00 00 	xor    0x14c(%r14),%esi
   180001d2d:	44 33 c7             	xor    %edi,%r8d
   180001d30:	44 33 c8             	xor    %eax,%r9d
   180001d33:	41 33 d0             	xor    %r8d,%edx
   180001d36:	45 8b 86 30 01 00 00 	mov    0x130(%r14),%r8d
   180001d3d:	41 c1 c9 05          	ror    $0x5,%r9d
   180001d41:	8b c3                	mov    %ebx,%eax
   180001d43:	44 33 cb             	xor    %ebx,%r9d
   180001d46:	c1 ca 16             	ror    $0x16,%edx
   180001d49:	c1 e0 07             	shl    $0x7,%eax
   180001d4c:	44 33 ce             	xor    %esi,%r9d
   180001d4f:	33 d0                	xor    %eax,%edx
   180001d51:	33 d6                	xor    %esi,%edx
   180001d53:	41 8b c1             	mov    %r9d,%eax
   180001d56:	c1 e0 03             	shl    $0x3,%eax
   180001d59:	d1 cb                	ror    %ebx
   180001d5b:	41 33 d9             	xor    %r9d,%ebx
   180001d5e:	33 da                	xor    %edx,%ebx
   180001d60:	c1 ce 07             	ror    $0x7,%esi
   180001d63:	33 f0                	xor    %eax,%esi
   180001d65:	41 8b 86 34 01 00 00 	mov    0x134(%r14),%eax
   180001d6c:	41 c1 c9 0d          	ror    $0xd,%r9d
   180001d70:	33 f2                	xor    %edx,%esi
   180001d72:	8b cb                	mov    %ebx,%ecx
   180001d74:	c1 ca 03             	ror    $0x3,%edx
   180001d77:	33 d3                	xor    %ebx,%edx
   180001d79:	23 ca                	and    %edx,%ecx
   180001d7b:	41 33 c9             	xor    %r9d,%ecx
   180001d7e:	44 0b cb             	or     %ebx,%r9d
   180001d81:	33 de                	xor    %esi,%ebx
   180001d83:	44 33 ce             	xor    %esi,%r9d
   180001d86:	0b f1                	or     %ecx,%esi
   180001d88:	33 ce                	xor    %esi,%ecx
   180001d8a:	44 33 ca             	xor    %edx,%r9d
   180001d8d:	33 ca                	xor    %edx,%ecx
   180001d8f:	33 d6                	xor    %esi,%edx
   180001d91:	23 f1                	and    %ecx,%esi
   180001d93:	41 33 c9             	xor    %r9d,%ecx
   180001d96:	44 33 c2             	xor    %edx,%r8d
   180001d99:	33 de                	xor    %esi,%ebx
   180001d9b:	44 23 ca             	and    %edx,%r9d
   180001d9e:	33 c1                	xor    %ecx,%eax
   180001da0:	41 33 f1             	xor    %r9d,%esi
   180001da3:	41 c1 c8 05          	ror    $0x5,%r8d
   180001da7:	44 33 c8             	xor    %eax,%r9d
   180001daa:	41 33 b6 3c 01 00 00 	xor    0x13c(%r14),%esi
   180001db1:	44 33 db             	xor    %ebx,%r11d
   180001db4:	41 8b c1             	mov    %r9d,%eax
   180001db7:	44 33 c6             	xor    %esi,%r8d
   180001dba:	45 33 c1             	xor    %r9d,%r8d
   180001dbd:	41 c1 cb 16          	ror    $0x16,%r11d
   180001dc1:	c1 e0 07             	shl    $0x7,%eax
   180001dc4:	41 d1 c9             	ror    %r9d
   180001dc7:	41 8b 9e 24 01 00 00 	mov    0x124(%r14),%ebx
   180001dce:	44 33 d8             	xor    %eax,%r11d
   180001dd1:	45 33 c8             	xor    %r8d,%r9d
   180001dd4:	44 33 de             	xor    %esi,%r11d
   180001dd7:	41 8b c0             	mov    %r8d,%eax
   180001dda:	45 33 cb             	xor    %r11d,%r9d
   180001ddd:	c1 e0 03             	shl    $0x3,%eax
   180001de0:	41 c1 c8 0d          	ror    $0xd,%r8d
   180001de4:	c1 ce 07             	ror    $0x7,%esi
   180001de7:	33 f0                	xor    %eax,%esi
   180001de9:	41 33 f3             	xor    %r11d,%esi
   180001dec:	41 c1 cb 03          	ror    $0x3,%r11d
   180001df0:	45 33 d9             	xor    %r9d,%r11d
   180001df3:	8b d6                	mov    %esi,%edx
   180001df5:	f7 d2                	not    %edx
   180001df7:	41 0b d3             	or     %r11d,%edx
   180001dfa:	44 33 de             	xor    %esi,%r11d
   180001dfd:	41 33 f0             	xor    %r8d,%esi
   180001e00:	41 33 d1             	xor    %r9d,%edx
   180001e03:	41 8b cb             	mov    %r11d,%ecx
   180001e06:	41 0b c9             	or     %r9d,%ecx
   180001e09:	45 8b 8e 28 01 00 00 	mov    0x128(%r14),%r9d
   180001e10:	8b c2                	mov    %edx,%eax
   180001e12:	41 33 c0             	xor    %r8d,%eax
   180001e15:	33 ce                	xor    %esi,%ecx
   180001e17:	0b f2                	or     %edx,%esi
   180001e19:	44 33 d8             	xor    %eax,%r11d
   180001e1c:	41 33 f3             	xor    %r11d,%esi
   180001e1f:	44 23 d9             	and    %ecx,%r11d
   180001e22:	33 de                	xor    %esi,%ebx
   180001e24:	44 33 da             	xor    %edx,%r11d
   180001e27:	33 d6                	xor    %esi,%edx
   180001e29:	45 33 9e 2c 01 00 00 	xor    0x12c(%r14),%r11d
   180001e30:	41 33 d8             	xor    %r8d,%ebx
   180001e33:	45 8b 86 20 01 00 00 	mov    0x120(%r14),%r8d
   180001e3a:	44 33 ca             	xor    %edx,%r9d
   180001e3d:	41 8b 96 1c 01 00 00 	mov    0x11c(%r14),%edx
   180001e44:	8b c3                	mov    %ebx,%eax
   180001e46:	c1 e0 07             	shl    $0x7,%eax
   180001e49:	44 33 c1             	xor    %ecx,%r8d
   180001e4c:	41 c1 c9 16          	ror    $0x16,%r9d
   180001e50:	44 33 c8             	xor    %eax,%r9d
   180001e53:	45 33 cb             	xor    %r11d,%r9d
   180001e56:	41 c1 c8 05          	ror    $0x5,%r8d
   180001e5a:	44 33 c3             	xor    %ebx,%r8d
   180001e5d:	45 33 c3             	xor    %r11d,%r8d
   180001e60:	d1 cb                	ror    %ebx
   180001e62:	41 33 d8             	xor    %r8d,%ebx
   180001e65:	41 8b c0             	mov    %r8d,%eax
   180001e68:	41 c1 cb 07          	ror    $0x7,%r11d
   180001e6c:	41 33 d9             	xor    %r9d,%ebx
   180001e6f:	45 33 d9             	xor    %r9d,%r11d
   180001e72:	c1 e0 03             	shl    $0x3,%eax
   180001e75:	44 33 d8             	xor    %eax,%r11d
   180001e78:	41 33 db             	xor    %r11d,%ebx
   180001e7b:	44 8b d3             	mov    %ebx,%r10d
   180001e7e:	41 c1 c9 03          	ror    $0x3,%r9d
   180001e82:	41 c1 c8 0d          	ror    $0xd,%r8d
   180001e86:	41 8b c0             	mov    %r8d,%eax
   180001e89:	45 33 c1             	xor    %r9d,%r8d
   180001e8c:	41 f7 d1             	not    %r9d
   180001e8f:	44 0b d0             	or     %eax,%r10d
   180001e92:	45 33 d3             	xor    %r11d,%r10d
   180001e95:	44 23 db             	and    %ebx,%r11d
   180001e98:	41 33 d9             	xor    %r9d,%ebx
   180001e9b:	45 23 ca             	and    %r10d,%r9d
   180001e9e:	44 33 d3             	xor    %ebx,%r10d
   180001ea1:	41 0b db             	or     %r11d,%ebx
   180001ea4:	41 8b c2             	mov    %r10d,%eax
   180001ea7:	45 33 ca             	xor    %r10d,%r9d
   180001eaa:	41 33 d3             	xor    %r11d,%edx
   180001ead:	41 0b c0             	or     %r8d,%eax
   180001eb0:	45 33 c8             	xor    %r8d,%r9d
   180001eb3:	41 33 d0             	xor    %r8d,%edx
   180001eb6:	33 d8                	xor    %eax,%ebx
   180001eb8:	41 8b 86 10 01 00 00 	mov    0x110(%r14),%eax
   180001ebf:	33 c3                	xor    %ebx,%eax
   180001ec1:	41 33 9e 14 01 00 00 	xor    0x114(%r14),%ebx
   180001ec8:	44 33 d0             	xor    %eax,%r10d
   180001ecb:	41 c1 ca 05          	ror    $0x5,%r10d
   180001ecf:	41 8b 8e 18 01 00 00 	mov    0x118(%r14),%ecx
   180001ed6:	45 8b 86 08 01 00 00 	mov    0x108(%r14),%r8d
   180001edd:	44 33 d3             	xor    %ebx,%r10d
   180001ee0:	44 33 d2             	xor    %edx,%r10d
   180001ee3:	41 33 c9             	xor    %r9d,%ecx
   180001ee6:	8b c3                	mov    %ebx,%eax
   180001ee8:	c1 e0 07             	shl    $0x7,%eax
   180001eeb:	c1 c9 16             	ror    $0x16,%ecx
   180001eee:	33 c8                	xor    %eax,%ecx
   180001ef0:	41 8b c2             	mov    %r10d,%eax
   180001ef3:	d1 cb                	ror    %ebx
   180001ef5:	33 ca                	xor    %edx,%ecx
   180001ef7:	c1 e0 03             	shl    $0x3,%eax
   180001efa:	c1 ca 07             	ror    $0x7,%edx
   180001efd:	33 d0                	xor    %eax,%edx
   180001eff:	41 8b 86 04 01 00 00 	mov    0x104(%r14),%eax
   180001f06:	41 33 da             	xor    %r10d,%ebx
   180001f09:	33 d1                	xor    %ecx,%edx
   180001f0b:	33 d9                	xor    %ecx,%ebx
   180001f0d:	44 8b da             	mov    %edx,%r11d
   180001f10:	41 c1 ca 0d          	ror    $0xd,%r10d
   180001f14:	41 33 da             	xor    %r10d,%ebx
   180001f17:	41 f7 d2             	not    %r10d
   180001f1a:	c1 c9 03             	ror    $0x3,%ecx
   180001f1d:	0b d3                	or     %ebx,%edx
   180001f1f:	44 33 db             	xor    %ebx,%r11d
   180001f22:	44 8b cb             	mov    %ebx,%r9d
   180001f25:	33 ca                	xor    %edx,%ecx
   180001f27:	41 33 d2             	xor    %r10d,%edx
   180001f2a:	45 23 ca             	and    %r10d,%r9d
   180001f2d:	44 33 c9             	xor    %ecx,%r9d
   180001f30:	23 ca                	and    %edx,%ecx
   180001f32:	41 33 d3             	xor    %r11d,%edx
   180001f35:	33 ca                	xor    %edx,%ecx
   180001f37:	33 da                	xor    %edx,%ebx
   180001f39:	41 23 d1             	and    %r9d,%edx
   180001f3c:	33 c2                	xor    %edx,%eax
   180001f3e:	41 8b 96 00 01 00 00 	mov    0x100(%r14),%edx
   180001f45:	41 33 d9             	xor    %r9d,%ebx
   180001f48:	44 33 d8             	xor    %eax,%r11d
   180001f4b:	41 8b 86 0c 01 00 00 	mov    0x10c(%r14),%eax
   180001f52:	33 d1                	xor    %ecx,%edx
   180001f54:	33 c1                	xor    %ecx,%eax
   180001f56:	44 33 c3             	xor    %ebx,%r8d
   180001f59:	44 33 c8             	xor    %eax,%r9d
   180001f5c:	41 8b c3             	mov    %r11d,%eax
   180001f5f:	c1 ca 05             	ror    $0x5,%edx
   180001f62:	41 33 d1             	xor    %r9d,%edx
   180001f65:	c1 e0 07             	shl    $0x7,%eax
   180001f68:	41 c1 c8 16          	ror    $0x16,%r8d
   180001f6c:	41 33 d3             	xor    %r11d,%edx
   180001f6f:	44 33 c0             	xor    %eax,%r8d
   180001f72:	41 d1 cb             	ror    %r11d
   180001f75:	45 33 c1             	xor    %r9d,%r8d
   180001f78:	44 33 da             	xor    %edx,%r11d
   180001f7b:	41 c1 c9 07          	ror    $0x7,%r9d
   180001f7f:	45 33 d8             	xor    %r8d,%r11d
   180001f82:	8b c2                	mov    %edx,%eax
   180001f84:	c1 ca 0d             	ror    $0xd,%edx
   180001f87:	c1 e0 03             	shl    $0x3,%eax
   180001f8a:	44 33 c8             	xor    %eax,%r9d
   180001f8d:	45 33 c8             	xor    %r8d,%r9d
   180001f90:	41 8b c1             	mov    %r9d,%eax
   180001f93:	44 23 ca             	and    %edx,%r9d
   180001f96:	41 c1 c8 03          	ror    $0x3,%r8d
   180001f9a:	41 33 d0             	xor    %r8d,%edx
   180001f9d:	44 0b c0             	or     %eax,%r8d
   180001fa0:	41 33 c3             	xor    %r11d,%eax
   180001fa3:	45 0b d9             	or     %r9d,%r11d
   180001fa6:	45 33 c8             	xor    %r8d,%r9d
   180001fa9:	41 8b c8             	mov    %r8d,%ecx
   180001fac:	f7 d2                	not    %edx
   180001fae:	23 ca                	and    %edx,%ecx
   180001fb0:	33 c2                	xor    %edx,%eax
   180001fb2:	41 33 cb             	xor    %r11d,%ecx
   180001fb5:	45 23 d8             	and    %r8d,%r11d
   180001fb8:	41 33 c1             	xor    %r9d,%eax
   180001fbb:	44 8b d1             	mov    %ecx,%r10d
   180001fbe:	45 23 c1             	and    %r9d,%r8d
   180001fc1:	44 33 d8             	xor    %eax,%r11d
   180001fc4:	45 0b d1             	or     %r9d,%r10d
   180001fc7:	45 33 96 f4 00 00 00 	xor    0xf4(%r14),%r10d
   180001fce:	41 8b 9e f0 00 00 00 	mov    0xf0(%r14),%ebx
   180001fd5:	41 8b 96 f8 00 00 00 	mov    0xf8(%r14),%edx
   180001fdc:	41 33 db             	xor    %r11d,%ebx
   180001fdf:	44 33 d0             	xor    %eax,%r10d
   180001fe2:	33 d1                	xor    %ecx,%edx
   180001fe4:	c1 cb 05             	ror    $0x5,%ebx
   180001fe7:	44 8b c9             	mov    %ecx,%r9d
   180001fea:	44 23 c8             	and    %eax,%r9d
   180001fed:	41 33 da             	xor    %r10d,%ebx
   180001ff0:	41 8b c2             	mov    %r10d,%eax
   180001ff3:	45 33 8e fc 00 00 00 	xor    0xfc(%r14),%r9d
   180001ffa:	c1 e0 07             	shl    $0x7,%eax
   180001ffd:	c1 ca 16             	ror    $0x16,%edx
   180002000:	33 d0                	xor    %eax,%edx
   180002002:	45 33 c8             	xor    %r8d,%r9d
   180002005:	41 d1 ca             	ror    %r10d
   180002008:	45 8b 86 e0 00 00 00 	mov    0xe0(%r14),%r8d
   18000200f:	41 33 d9             	xor    %r9d,%ebx
   180002012:	41 33 d1             	xor    %r9d,%edx
   180002015:	44 33 d2             	xor    %edx,%r10d
   180002018:	8b c3                	mov    %ebx,%eax
   18000201a:	c1 e0 03             	shl    $0x3,%eax
   18000201d:	41 c1 c9 07          	ror    $0x7,%r9d
   180002021:	44 33 d3             	xor    %ebx,%r10d
   180002024:	44 33 c8             	xor    %eax,%r9d
   180002027:	c1 cb 0d             	ror    $0xd,%ebx
   18000202a:	44 33 ca             	xor    %edx,%r9d
   18000202d:	45 8b d9             	mov    %r9d,%r11d
   180002030:	c1 ca 03             	ror    $0x3,%edx
   180002033:	33 da                	xor    %edx,%ebx
   180002035:	41 33 d1             	xor    %r9d,%edx
   180002038:	45 33 ca             	xor    %r10d,%r9d
   18000203b:	44 23 db             	and    %ebx,%r11d
   18000203e:	8b cb                	mov    %ebx,%ecx
   180002040:	44 33 da             	xor    %edx,%r11d
   180002043:	0b ca                	or     %edx,%ecx
   180002045:	41 8b 96 e8 00 00 00 	mov    0xe8(%r14),%edx
   18000204c:	41 33 c9             	xor    %r9d,%ecx
   18000204f:	45 23 cb             	and    %r11d,%r9d
   180002052:	41 f7 d3             	not    %r11d
   180002055:	41 33 db             	xor    %r11d,%ebx
   180002058:	44 33 c1             	xor    %ecx,%r8d
   18000205b:	8b c3                	mov    %ebx,%eax
   18000205d:	33 d9                	xor    %ecx,%ebx
   18000205f:	41 33 9e e4 00 00 00 	xor    0xe4(%r14),%ebx
   180002066:	41 33 c2             	xor    %r10d,%eax
   180002069:	44 33 c8             	xor    %eax,%r9d
   18000206c:	8b c1                	mov    %ecx,%eax
   18000206e:	41 23 c2             	and    %r10d,%eax
   180002071:	41 33 d1             	xor    %r9d,%edx
   180002074:	44 33 d8             	xor    %eax,%r11d
   180002077:	8b c3                	mov    %ebx,%eax
   180002079:	45 33 c3             	xor    %r11d,%r8d
   18000207c:	45 33 9e ec 00 00 00 	xor    0xec(%r14),%r11d
   180002083:	c1 e0 07             	shl    $0x7,%eax
   180002086:	c1 ca 16             	ror    $0x16,%edx
   180002089:	33 d0                	xor    %eax,%edx
   18000208b:	41 33 d3             	xor    %r11d,%edx
   18000208e:	41 c1 c8 05          	ror    $0x5,%r8d
   180002092:	44 33 c3             	xor    %ebx,%r8d
   180002095:	45 33 c3             	xor    %r11d,%r8d
   180002098:	41 c1 cb 07          	ror    $0x7,%r11d
   18000209c:	41 8b c0             	mov    %r8d,%eax
   18000209f:	c1 e0 03             	shl    $0x3,%eax
   1800020a2:	d1 cb                	ror    %ebx
   1800020a4:	44 33 d8             	xor    %eax,%r11d
   1800020a7:	41 33 d8             	xor    %r8d,%ebx
   1800020aa:	41 c1 c8 0d          	ror    $0xd,%r8d
   1800020ae:	33 da                	xor    %edx,%ebx
   1800020b0:	44 33 da             	xor    %edx,%r11d
   1800020b3:	c1 ca 03             	ror    $0x3,%edx
   1800020b6:	8b cb                	mov    %ebx,%ecx
   1800020b8:	8b c3                	mov    %ebx,%eax
   1800020ba:	0b ca                	or     %edx,%ecx
   1800020bc:	33 c2                	xor    %edx,%eax
   1800020be:	41 33 cb             	xor    %r11d,%ecx
   1800020c1:	44 23 db             	and    %ebx,%r11d
   1800020c4:	41 33 c3             	xor    %r11d,%eax
   1800020c7:	45 0b d8             	or     %r8d,%r11d
   1800020ca:	41 f7 d0             	not    %r8d
   1800020cd:	45 8b 8e d4 00 00 00 	mov    0xd4(%r14),%r9d
   1800020d4:	45 8b 96 d8 00 00 00 	mov    0xd8(%r14),%r10d
   1800020db:	41 8b 96 c0 00 00 00 	mov    0xc0(%r14),%edx
   1800020e2:	44 33 d8             	xor    %eax,%r11d
   1800020e5:	41 8b f8             	mov    %r8d,%edi
   1800020e8:	33 d9                	xor    %ecx,%ebx
   1800020ea:	0b f8                	or     %eax,%edi
   1800020ec:	8b c1                	mov    %ecx,%eax
   1800020ee:	41 33 c0             	xor    %r8d,%eax
   1800020f1:	33 fb                	xor    %ebx,%edi
   1800020f3:	41 23 d8             	and    %r8d,%ebx
   1800020f6:	45 8b 86 d0 00 00 00 	mov    0xd0(%r14),%r8d
   1800020fd:	23 c7                	and    %edi,%eax
   1800020ff:	41 33 fb             	xor    %r11d,%edi
   180002102:	33 c7                	xor    %edi,%eax
   180002104:	44 33 c1             	xor    %ecx,%r8d
   180002107:	41 8b 8e c8 00 00 00 	mov    0xc8(%r14),%ecx
   18000210e:	44 33 d0             	xor    %eax,%r10d
   180002111:	33 fb                	xor    %ebx,%edi
   180002113:	44 33 cb             	xor    %ebx,%r9d
   180002116:	41 33 be dc 00 00 00 	xor    0xdc(%r14),%edi
   18000211d:	41 c1 ca 16          	ror    $0x16,%r10d
   180002121:	45 33 cb             	xor    %r11d,%r9d
   180002124:	45 33 c3             	xor    %r11d,%r8d
   180002127:	41 8b c1             	mov    %r9d,%eax
   18000212a:	c1 e0 07             	shl    $0x7,%eax
   18000212d:	44 33 d0             	xor    %eax,%r10d
   180002130:	44 33 d7             	xor    %edi,%r10d
   180002133:	41 c1 c8 05          	ror    $0x5,%r8d
   180002137:	45 33 c1             	xor    %r9d,%r8d
   18000213a:	44 33 c7             	xor    %edi,%r8d
   18000213d:	c1 cf 07             	ror    $0x7,%edi
   180002140:	41 8b c0             	mov    %r8d,%eax
   180002143:	c1 e0 03             	shl    $0x3,%eax
   180002146:	41 d1 c9             	ror    %r9d
   180002149:	33 f8                	xor    %eax,%edi
   18000214b:	45 33 c8             	xor    %r8d,%r9d
   18000214e:	41 c1 c8 0d          	ror    $0xd,%r8d
   180002152:	41 33 fa             	xor    %r10d,%edi
   180002155:	45 33 ca             	xor    %r10d,%r9d
   180002158:	41 c1 ca 03          	ror    $0x3,%r10d
   18000215c:	44 33 d7             	xor    %edi,%r10d
   18000215f:	41 8b c0             	mov    %r8d,%eax
   180002162:	41 f7 d0             	not    %r8d
   180002165:	41 23 c1             	and    %r9d,%eax
   180002168:	41 33 c2             	xor    %r10d,%eax
   18000216b:	44 0b d7             	or     %edi,%r10d
   18000216e:	44 33 c8             	xor    %eax,%r9d
   180002171:	41 33 c2             	xor    %r10d,%eax
   180002174:	45 23 d0             	and    %r8d,%r10d
   180002177:	44 33 d0             	xor    %eax,%r10d
   18000217a:	41 0b c0             	or     %r8d,%eax
   18000217d:	33 c7                	xor    %edi,%eax
   18000217f:	41 23 fa             	and    %r10d,%edi
   180002182:	45 33 96 c4 00 00 00 	xor    0xc4(%r14),%r10d
   180002189:	33 d0                	xor    %eax,%edx
   18000218b:	44 33 c7             	xor    %edi,%r8d
   18000218e:	41 33 f9             	xor    %r9d,%edi
   180002191:	33 d7                	xor    %edi,%edx
   180002193:	41 33 be cc 00 00 00 	xor    0xcc(%r14),%edi
   18000219a:	44 23 c8             	and    %eax,%r9d
   18000219d:	41 33 c9             	xor    %r9d,%ecx
   1800021a0:	41 8b c2             	mov    %r10d,%eax
   1800021a3:	c1 ca 05             	ror    $0x5,%edx
   1800021a6:	41 33 d2             	xor    %r10d,%edx
   1800021a9:	c1 e0 07             	shl    $0x7,%eax
   1800021ac:	41 33 c8             	xor    %r8d,%ecx
   1800021af:	33 c7                	xor    %edi,%eax
   1800021b1:	33 d7                	xor    %edi,%edx
   1800021b3:	41 d1 ca             	ror    %r10d
   1800021b6:	44 33 d2             	xor    %edx,%r10d
   1800021b9:	c1 cf 07             	ror    $0x7,%edi
   1800021bc:	c1 c9 16             	ror    $0x16,%ecx
   1800021bf:	33 c8                	xor    %eax,%ecx
   1800021c1:	8b c2                	mov    %edx,%eax
   1800021c3:	c1 ca 0d             	ror    $0xd,%edx
   1800021c6:	c1 e0 03             	shl    $0x3,%eax
   1800021c9:	44 33 d1             	xor    %ecx,%r10d
   1800021cc:	33 f8                	xor    %eax,%edi
   1800021ce:	33 f9                	xor    %ecx,%edi
   1800021d0:	c1 c9 03             	ror    $0x3,%ecx
   1800021d3:	45 8b 8e b4 00 00 00 	mov    0xb4(%r14),%r9d
   1800021da:	41 8b 9e a4 00 00 00 	mov    0xa4(%r14),%ebx
   1800021e1:	45 8b 86 a0 00 00 00 	mov    0xa0(%r14),%r8d
   1800021e8:	41 33 ca             	xor    %r10d,%ecx
   1800021eb:	41 8b c2             	mov    %r10d,%eax
   1800021ee:	23 c1                	and    %ecx,%eax
   1800021f0:	33 c2                	xor    %edx,%eax
   1800021f2:	41 0b d2             	or     %r10d,%edx
   1800021f5:	44 33 d7             	xor    %edi,%r10d
   1800021f8:	33 d7                	xor    %edi,%edx
   1800021fa:	0b f8                	or     %eax,%edi
   1800021fc:	33 d1                	xor    %ecx,%edx
   1800021fe:	33 c7                	xor    %edi,%eax
   180002200:	33 c1                	xor    %ecx,%eax
   180002202:	33 cf                	xor    %edi,%ecx
   180002204:	23 f8                	and    %eax,%edi
   180002206:	33 c2                	xor    %edx,%eax
   180002208:	23 d1                	and    %ecx,%edx
   18000220a:	44 33 ca             	xor    %edx,%r9d
   18000220d:	44 33 d7             	xor    %edi,%r10d
   180002210:	33 fa                	xor    %edx,%edi
   180002212:	41 33 be bc 00 00 00 	xor    0xbc(%r14),%edi
   180002219:	41 8b 96 b0 00 00 00 	mov    0xb0(%r14),%edx
   180002220:	44 33 c8             	xor    %eax,%r9d
   180002223:	33 d1                	xor    %ecx,%edx
   180002225:	41 8b 8e b8 00 00 00 	mov    0xb8(%r14),%ecx
   18000222c:	41 8b c1             	mov    %r9d,%eax
   18000222f:	c1 e0 07             	shl    $0x7,%eax
   180002232:	c1 ca 05             	ror    $0x5,%edx
   180002235:	41 33 ca             	xor    %r10d,%ecx
   180002238:	41 33 d1             	xor    %r9d,%edx
   18000223b:	c1 c9 16             	ror    $0x16,%ecx
   18000223e:	33 c8                	xor    %eax,%ecx
   180002240:	33 d7                	xor    %edi,%edx
   180002242:	41 d1 c9             	ror    %r9d
   180002245:	33 cf                	xor    %edi,%ecx
   180002247:	44 33 ca             	xor    %edx,%r9d
   18000224a:	8b c2                	mov    %edx,%eax
   18000224c:	c1 e0 03             	shl    $0x3,%eax
   18000224f:	44 33 c9             	xor    %ecx,%r9d
   180002252:	c1 ca 0d             	ror    $0xd,%edx
   180002255:	c1 cf 07             	ror    $0x7,%edi
   180002258:	33 f8                	xor    %eax,%edi
   18000225a:	33 f9                	xor    %ecx,%edi
   18000225c:	c1 c9 03             	ror    $0x3,%ecx
   18000225f:	41 33 c9             	xor    %r9d,%ecx
   180002262:	8b c7                	mov    %edi,%eax
   180002264:	f7 d0                	not    %eax
   180002266:	0b c1                	or     %ecx,%eax
   180002268:	33 cf                	xor    %edi,%ecx
   18000226a:	33 fa                	xor    %edx,%edi
   18000226c:	41 33 c1             	xor    %r9d,%eax
   18000226f:	44 0b c9             	or     %ecx,%r9d
   180002272:	33 c8                	xor    %eax,%ecx
   180002274:	44 33 cf             	xor    %edi,%r9d
   180002277:	0b f8                	or     %eax,%edi
   180002279:	33 ca                	xor    %edx,%ecx
   18000227b:	45 33 c1             	xor    %r9d,%r8d
   18000227e:	45 8b d9             	mov    %r9d,%r11d
   180002281:	44 23 d9             	and    %ecx,%r11d
   180002284:	33 f9                	xor    %ecx,%edi
   180002286:	44 33 d8             	xor    %eax,%r11d
   180002289:	33 c7                	xor    %edi,%eax
   18000228b:	33 df                	xor    %edi,%ebx
   18000228d:	45 33 9e ac 00 00 00 	xor    0xac(%r14),%r11d
   180002294:	33 da                	xor    %edx,%ebx
   180002296:	41 8b 96 a8 00 00 00 	mov    0xa8(%r14),%edx
   18000229d:	41 c1 c8 05          	ror    $0x5,%r8d
   1800022a1:	33 d0                	xor    %eax,%edx
   1800022a3:	8b c3                	mov    %ebx,%eax
   1800022a5:	44 33 c3             	xor    %ebx,%r8d
   1800022a8:	c1 e0 07             	shl    $0x7,%eax
   1800022ab:	45 33 c3             	xor    %r11d,%r8d
   1800022ae:	c1 ca 16             	ror    $0x16,%edx
   1800022b1:	33 d0                	xor    %eax,%edx
   1800022b3:	41 8b c0             	mov    %r8d,%eax
   1800022b6:	d1 cb                	ror    %ebx
   1800022b8:	41 33 d3             	xor    %r11d,%edx
   1800022bb:	41 33 d8             	xor    %r8d,%ebx
   1800022be:	41 c1 cb 07          	ror    $0x7,%r11d
   1800022c2:	c1 e0 03             	shl    $0x3,%eax
   1800022c5:	41 c1 c8 0d          	ror    $0xd,%r8d
   1800022c9:	33 da                	xor    %edx,%ebx
   1800022cb:	44 33 d8             	xor    %eax,%r11d
   1800022ce:	44 33 da             	xor    %edx,%r11d
   1800022d1:	41 8b c0             	mov    %r8d,%eax
   1800022d4:	41 33 db             	xor    %r11d,%ebx
   1800022d7:	44 8b cb             	mov    %ebx,%r9d
   1800022da:	c1 ca 03             	ror    $0x3,%edx
   1800022dd:	44 0b c8             	or     %eax,%r9d
   1800022e0:	44 33 c2             	xor    %edx,%r8d
   1800022e3:	f7 d2                	not    %edx
   1800022e5:	45 33 cb             	xor    %r11d,%r9d
   1800022e8:	44 23 db             	and    %ebx,%r11d
   1800022eb:	33 da                	xor    %edx,%ebx
   1800022ed:	41 23 d1             	and    %r9d,%edx
   1800022f0:	44 33 cb             	xor    %ebx,%r9d
   1800022f3:	41 0b db             	or     %r11d,%ebx
   1800022f6:	41 8b c0             	mov    %r8d,%eax
   1800022f9:	41 8b c8             	mov    %r8d,%ecx
   1800022fc:	41 0b c1             	or     %r9d,%eax
   1800022ff:	33 ca                	xor    %edx,%ecx
   180002301:	41 8b 96 98 00 00 00 	mov    0x98(%r14),%edx
   180002308:	33 d8                	xor    %eax,%ebx
   18000230a:	41 8b 86 90 00 00 00 	mov    0x90(%r14),%eax
   180002311:	41 33 c9             	xor    %r9d,%ecx
   180002314:	33 c3                	xor    %ebx,%eax
   180002316:	41 33 9e 94 00 00 00 	xor    0x94(%r14),%ebx
   18000231d:	33 d1                	xor    %ecx,%edx
   18000231f:	41 8b 8e 80 00 00 00 	mov    0x80(%r14),%ecx
   180002326:	44 33 c8             	xor    %eax,%r9d
   180002329:	41 8b 86 9c 00 00 00 	mov    0x9c(%r14),%eax
   180002330:	41 33 c0             	xor    %r8d,%eax
   180002333:	44 33 d8             	xor    %eax,%r11d
   180002336:	8b c3                	mov    %ebx,%eax
   180002338:	c1 ca 16             	ror    $0x16,%edx
   18000233b:	c1 e0 07             	shl    $0x7,%eax
   18000233e:	33 d0                	xor    %eax,%edx
   180002340:	41 c1 c9 05          	ror    $0x5,%r9d
   180002344:	41 33 d3             	xor    %r11d,%edx
   180002347:	44 33 cb             	xor    %ebx,%r9d
   18000234a:	d1 cb                	ror    %ebx
   18000234c:	45 33 cb             	xor    %r11d,%r9d
   18000234f:	41 33 d9             	xor    %r9d,%ebx
   180002352:	41 c1 cb 07          	ror    $0x7,%r11d
   180002356:	41 8b c1             	mov    %r9d,%eax
   180002359:	33 da                	xor    %edx,%ebx
   18000235b:	c1 e0 03             	shl    $0x3,%eax
   18000235e:	44 33 d8             	xor    %eax,%r11d
   180002361:	41 8b 86 8c 00 00 00 	mov    0x8c(%r14),%eax
   180002368:	44 33 da             	xor    %edx,%r11d
   18000236b:	41 c1 c9 0d          	ror    $0xd,%r9d
   18000236f:	41 33 d9             	xor    %r9d,%ebx
   180002372:	45 8b c3             	mov    %r11d,%r8d
   180002375:	c1 ca 03             	ror    $0x3,%edx
   180002378:	44 0b db             	or     %ebx,%r11d
   18000237b:	44 33 c3             	xor    %ebx,%r8d
   18000237e:	44 8b d3             	mov    %ebx,%r10d
   180002381:	41 33 d3             	xor    %r11d,%edx
   180002384:	41 f7 d1             	not    %r9d
   180002387:	45 33 d9             	xor    %r9d,%r11d
   18000238a:	45 23 d1             	and    %r9d,%r10d
   18000238d:	44 33 d2             	xor    %edx,%r10d
   180002390:	41 23 d3             	and    %r11d,%edx
   180002393:	45 33 d8             	xor    %r8d,%r11d
   180002396:	41 33 d3             	xor    %r11d,%edx
   180002399:	41 33 db             	xor    %r11d,%ebx
   18000239c:	45 23 da             	and    %r10d,%r11d
   18000239f:	45 33 9e 84 00 00 00 	xor    0x84(%r14),%r11d
   1800023a6:	33 ca                	xor    %edx,%ecx
   1800023a8:	33 c2                	xor    %edx,%eax
   1800023aa:	41 8b 96 88 00 00 00 	mov    0x88(%r14),%edx
   1800023b1:	41 33 da             	xor    %r10d,%ebx
   1800023b4:	45 33 c3             	xor    %r11d,%r8d
   1800023b7:	44 33 d0             	xor    %eax,%r10d
   1800023ba:	33 d3                	xor    %ebx,%edx
   1800023bc:	41 8b c0             	mov    %r8d,%eax
   1800023bf:	c1 c9 05             	ror    $0x5,%ecx
   1800023c2:	41 33 c8             	xor    %r8d,%ecx
   1800023c5:	41 33 ca             	xor    %r10d,%ecx
   1800023c8:	c1 ca 16             	ror    $0x16,%edx
   1800023cb:	c1 e0 07             	shl    $0x7,%eax
   1800023ce:	41 d1 c8             	ror    %r8d
   1800023d1:	41 8b 7e 70          	mov    0x70(%r14),%edi
   1800023d5:	33 d0                	xor    %eax,%edx
   1800023d7:	44 33 c1             	xor    %ecx,%r8d
   1800023da:	41 33 d2             	xor    %r10d,%edx
   1800023dd:	8b c1                	mov    %ecx,%eax
   1800023df:	44 33 c2             	xor    %edx,%r8d
   1800023e2:	c1 c9 0d             	ror    $0xd,%ecx
   1800023e5:	c1 e0 03             	shl    $0x3,%eax
   1800023e8:	41 c1 ca 07          	ror    $0x7,%r10d
   1800023ec:	44 33 d2             	xor    %edx,%r10d
   1800023ef:	44 33 d0             	xor    %eax,%r10d
   1800023f2:	c1 ca 03             	ror    $0x3,%edx
   1800023f5:	45 8b da             	mov    %r10d,%r11d
   1800023f8:	44 23 d1             	and    %ecx,%r10d
   1800023fb:	33 ca                	xor    %edx,%ecx
   1800023fd:	41 0b d3             	or     %r11d,%edx
   180002400:	45 33 d8             	xor    %r8d,%r11d
   180002403:	45 0b c2             	or     %r10d,%r8d
   180002406:	f7 d1                	not    %ecx
   180002408:	44 33 d2             	xor    %edx,%r10d
   18000240b:	8b c2                	mov    %edx,%eax
   18000240d:	23 c1                	and    %ecx,%eax
   18000240f:	44 33 d9             	xor    %ecx,%r11d
   180002412:	41 8b 4e 78          	mov    0x78(%r14),%ecx
   180002416:	41 33 c0             	xor    %r8d,%eax
   180002419:	45 33 da             	xor    %r10d,%r11d
   18000241c:	44 23 c2             	and    %edx,%r8d
   18000241f:	41 33 f8             	xor    %r8d,%edi
   180002422:	33 c8                	xor    %eax,%ecx
   180002424:	44 8b c0             	mov    %eax,%r8d
   180002427:	41 33 fb             	xor    %r11d,%edi
   18000242a:	45 0b c2             	or     %r10d,%r8d
   18000242d:	41 23 d2             	and    %r10d,%edx
   180002430:	45 33 46 74          	xor    0x74(%r14),%r8d
   180002434:	c1 c9 16             	ror    $0x16,%ecx
   180002437:	45 33 c3             	xor    %r11d,%r8d
   18000243a:	44 23 d8             	and    %eax,%r11d
   18000243d:	c1 cf 05             	ror    $0x5,%edi
   180002440:	45 33 5e 7c          	xor    0x7c(%r14),%r11d
   180002444:	41 8b c0             	mov    %r8d,%eax
   180002447:	44 33 da             	xor    %edx,%r11d
   18000244a:	c1 e0 07             	shl    $0x7,%eax
   18000244d:	33 c8                	xor    %eax,%ecx
   18000244f:	41 33 fb             	xor    %r11d,%edi
   180002452:	41 33 cb             	xor    %r11d,%ecx
   180002455:	41 33 f8             	xor    %r8d,%edi
   180002458:	8b c7                	mov    %edi,%eax
   18000245a:	c1 e0 03             	shl    $0x3,%eax
   18000245d:	41 c1 cb 07          	ror    $0x7,%r11d
   180002461:	44 33 d8             	xor    %eax,%r11d
   180002464:	44 33 d9             	xor    %ecx,%r11d
   180002467:	41 d1 c8             	ror    %r8d
   18000246a:	44 33 c7             	xor    %edi,%r8d
   18000246d:	44 33 c1             	xor    %ecx,%r8d
   180002470:	c1 c9 03             	ror    $0x3,%ecx
   180002473:	c1 cf 0d             	ror    $0xd,%edi
   180002476:	33 f9                	xor    %ecx,%edi
   180002478:	41 33 cb             	xor    %r11d,%ecx
   18000247b:	44 8b d7             	mov    %edi,%r10d
   18000247e:	44 8b cf             	mov    %edi,%r9d
   180002481:	45 23 d3             	and    %r11d,%r10d
   180002484:	44 0b c9             	or     %ecx,%r9d
   180002487:	45 33 d8             	xor    %r8d,%r11d
   18000248a:	44 33 d1             	xor    %ecx,%r10d
   18000248d:	45 33 cb             	xor    %r11d,%r9d
   180002490:	45 23 da             	and    %r10d,%r11d
   180002493:	41 f7 d2             	not    %r10d
   180002496:	41 8b c1             	mov    %r9d,%eax
   180002499:	41 33 fa             	xor    %r10d,%edi
   18000249c:	41 23 c0             	and    %r8d,%eax
   18000249f:	44 33 d0             	xor    %eax,%r10d
   1800024a2:	41 8b 46 60          	mov    0x60(%r14),%eax
   1800024a6:	8b cf                	mov    %edi,%ecx
   1800024a8:	41 33 f9             	xor    %r9d,%edi
   1800024ab:	41 33 c2             	xor    %r10d,%eax
   1800024ae:	41 33 cb             	xor    %r11d,%ecx
   1800024b1:	41 33 7e 64          	xor    0x64(%r14),%edi
   1800024b5:	44 33 c8             	xor    %eax,%r9d
   1800024b8:	41 33 c8             	xor    %r8d,%ecx
   1800024bb:	45 33 56 6c          	xor    0x6c(%r14),%r10d
   1800024bf:	41 c1 c9 05          	ror    $0x5,%r9d
   1800024c3:	41 8b 56 68          	mov    0x68(%r14),%edx
   1800024c7:	8b c7                	mov    %edi,%eax
   1800024c9:	33 d1                	xor    %ecx,%edx
   1800024cb:	45 33 ca             	xor    %r10d,%r9d
   1800024ce:	c1 e0 07             	shl    $0x7,%eax
   1800024d1:	44 33 cf             	xor    %edi,%r9d
   1800024d4:	c1 ca 16             	ror    $0x16,%edx
   1800024d7:	33 d0                	xor    %eax,%edx
   1800024d9:	41 8b c1             	mov    %r9d,%eax
   1800024dc:	d1 cf                	ror    %edi
   1800024de:	41 33 f9             	xor    %r9d,%edi
   1800024e1:	41 33 d2             	xor    %r10d,%edx
   1800024e4:	c1 e0 03             	shl    $0x3,%eax
   1800024e7:	33 fa                	xor    %edx,%edi
   1800024e9:	44 8b c7             	mov    %edi,%r8d
   1800024ec:	41 c1 c9 0d          	ror    $0xd,%r9d
   1800024f0:	41 c1 ca 07          	ror    $0x7,%r10d
   1800024f4:	44 33 d0             	xor    %eax,%r10d
   1800024f7:	41 8b 46 54          	mov    0x54(%r14),%eax
   1800024fb:	44 33 d2             	xor    %edx,%r10d
   1800024fe:	c1 ca 03             	ror    $0x3,%edx
   180002501:	44 0b c2             	or     %edx,%r8d
   180002504:	45 33 c2             	xor    %r10d,%r8d
   180002507:	44 23 d7             	and    %edi,%r10d
   18000250a:	41 8b da             	mov    %r10d,%ebx
   18000250d:	45 0b d1             	or     %r9d,%r10d
   180002510:	41 f7 d1             	not    %r9d
   180002513:	33 da                	xor    %edx,%ebx
   180002515:	41 8b 56 58          	mov    0x58(%r14),%edx
   180002519:	41 8b c8             	mov    %r8d,%ecx
   18000251c:	33 df                	xor    %edi,%ebx
   18000251e:	41 33 c9             	xor    %r9d,%ecx
   180002521:	41 33 f8             	xor    %r8d,%edi
   180002524:	44 33 d3             	xor    %ebx,%r10d
   180002527:	41 0b d9             	or     %r9d,%ebx
   18000252a:	33 df                	xor    %edi,%ebx
   18000252c:	41 23 f9             	and    %r9d,%edi
   18000252f:	45 8b 4e 50          	mov    0x50(%r14),%r9d
   180002533:	23 cb                	and    %ebx,%ecx
   180002535:	41 33 c2             	xor    %r10d,%eax
   180002538:	41 33 da             	xor    %r10d,%ebx
   18000253b:	33 cb                	xor    %ebx,%ecx
   18000253d:	33 df                	xor    %edi,%ebx
   18000253f:	33 f8                	xor    %eax,%edi
   180002541:	41 33 5e 5c          	xor    0x5c(%r14),%ebx
   180002545:	33 d1                	xor    %ecx,%edx
   180002547:	45 33 ca             	xor    %r10d,%r9d
   18000254a:	45 33 c8             	xor    %r8d,%r9d
   18000254d:	8b c7                	mov    %edi,%eax
   18000254f:	c1 e0 07             	shl    $0x7,%eax
   180002552:	c1 ca 16             	ror    $0x16,%edx
   180002555:	33 d0                	xor    %eax,%edx
   180002557:	33 d3                	xor    %ebx,%edx
   180002559:	41 c1 c9 05          	ror    $0x5,%r9d
   18000255d:	44 33 cb             	xor    %ebx,%r9d
   180002560:	44 33 cf             	xor    %edi,%r9d
   180002563:	d1 cf                	ror    %edi
   180002565:	41 33 f9             	xor    %r9d,%edi
   180002568:	41 8b c1             	mov    %r9d,%eax
   18000256b:	c1 cb 07             	ror    $0x7,%ebx
   18000256e:	c1 e0 03             	shl    $0x3,%eax
   180002571:	33 fa                	xor    %edx,%edi
   180002573:	41 c1 c9 0d          	ror    $0xd,%r9d
   180002577:	33 d8                	xor    %eax,%ebx
   180002579:	41 8b c1             	mov    %r9d,%eax
   18000257c:	41 f7 d1             	not    %r9d
   18000257f:	33 da                	xor    %edx,%ebx
   180002581:	23 c7                	and    %edi,%eax
   180002583:	45 8b d9             	mov    %r9d,%r11d
   180002586:	c1 ca 03             	ror    $0x3,%edx
   180002589:	41 8b c9             	mov    %r9d,%ecx
   18000258c:	33 d3                	xor    %ebx,%edx
   18000258e:	33 c2                	xor    %edx,%eax
   180002590:	0b d3                	or     %ebx,%edx
   180002592:	33 f8                	xor    %eax,%edi
   180002594:	33 c2                	xor    %edx,%eax
   180002596:	44 23 da             	and    %edx,%r11d
   180002599:	0b c8                	or     %eax,%ecx
   18000259b:	44 33 d8             	xor    %eax,%r11d
   18000259e:	33 cb                	xor    %ebx,%ecx
   1800025a0:	45 8b 46 40          	mov    0x40(%r14),%r8d
   1800025a4:	41 8b 56 48          	mov    0x48(%r14),%edx
   1800025a8:	45 8b 56 34          	mov    0x34(%r14),%r10d
   1800025ac:	44 33 c1             	xor    %ecx,%r8d
   1800025af:	41 23 db             	and    %r11d,%ebx
   1800025b2:	45 33 5e 44          	xor    0x44(%r14),%r11d
   1800025b6:	44 33 cb             	xor    %ebx,%r9d
   1800025b9:	33 df                	xor    %edi,%ebx
   1800025bb:	8b c1                	mov    %ecx,%eax
   1800025bd:	44 33 c3             	xor    %ebx,%r8d
   1800025c0:	41 33 5e 4c          	xor    0x4c(%r14),%ebx
   1800025c4:	23 c7                	and    %edi,%eax
   1800025c6:	41 c1 c8 05          	ror    $0x5,%r8d
   1800025ca:	44 33 c8             	xor    %eax,%r9d
   1800025cd:	41 8b c3             	mov    %r11d,%eax
   1800025d0:	44 33 c3             	xor    %ebx,%r8d
   1800025d3:	41 33 d1             	xor    %r9d,%edx
   1800025d6:	c1 e0 07             	shl    $0x7,%eax
   1800025d9:	45 33 c3             	xor    %r11d,%r8d
   1800025dc:	c1 ca 16             	ror    $0x16,%edx
   1800025df:	33 d0                	xor    %eax,%edx
   1800025e1:	41 8b c0             	mov    %r8d,%eax
   1800025e4:	41 d1 cb             	ror    %r11d
   1800025e7:	33 d3                	xor    %ebx,%edx
   1800025e9:	45 33 d8             	xor    %r8d,%r11d
   1800025ec:	41 c1 c8 0d          	ror    $0xd,%r8d
   1800025f0:	44 33 da             	xor    %edx,%r11d
   1800025f3:	c1 e0 03             	shl    $0x3,%eax
   1800025f6:	c1 cb 07             	ror    $0x7,%ebx
   1800025f9:	33 d8                	xor    %eax,%ebx
   1800025fb:	33 da                	xor    %edx,%ebx
   1800025fd:	c1 ca 03             	ror    $0x3,%edx
   180002600:	41 33 d3             	xor    %r11d,%edx
   180002603:	8b ca                	mov    %edx,%ecx
   180002605:	8b c2                	mov    %edx,%eax
   180002607:	41 23 cb             	and    %r11d,%ecx
   18000260a:	41 33 c8             	xor    %r8d,%ecx
   18000260d:	45 0b c3             	or     %r11d,%r8d
   180002610:	44 33 db             	xor    %ebx,%r11d
   180002613:	44 33 c3             	xor    %ebx,%r8d
   180002616:	0b d9                	or     %ecx,%ebx
   180002618:	44 33 c2             	xor    %edx,%r8d
   18000261b:	41 8b 56 38          	mov    0x38(%r14),%edx
   18000261f:	33 c3                	xor    %ebx,%eax
   180002621:	33 c8                	xor    %eax,%ecx
   180002623:	23 d9                	and    %ecx,%ebx
   180002625:	41 33 c8             	xor    %r8d,%ecx
   180002628:	44 23 c0             	and    %eax,%r8d
   18000262b:	45 33 d0             	xor    %r8d,%r10d
   18000262e:	44 33 db             	xor    %ebx,%r11d
   180002631:	41 33 d8             	xor    %r8d,%ebx
   180002634:	41 33 5e 3c          	xor    0x3c(%r14),%ebx
   180002638:	45 8b 46 30          	mov    0x30(%r14),%r8d
   18000263c:	44 33 d1             	xor    %ecx,%r10d
   18000263f:	44 33 c0             	xor    %eax,%r8d
   180002642:	41 33 d3             	xor    %r11d,%edx
   180002645:	41 8b c2             	mov    %r10d,%eax
   180002648:	c1 e0 07             	shl    $0x7,%eax
   18000264b:	c1 ca 16             	ror    $0x16,%edx
   18000264e:	33 d0                	xor    %eax,%edx
   180002650:	33 d3                	xor    %ebx,%edx
   180002652:	41 c1 c8 05          	ror    $0x5,%r8d
   180002656:	45 33 c2             	xor    %r10d,%r8d
   180002659:	44 33 c3             	xor    %ebx,%r8d
   18000265c:	c1 cb 07             	ror    $0x7,%ebx
   18000265f:	41 8b c0             	mov    %r8d,%eax
   180002662:	c1 e0 03             	shl    $0x3,%eax
   180002665:	41 d1 ca             	ror    %r10d
   180002668:	33 d8                	xor    %eax,%ebx
   18000266a:	45 33 d0             	xor    %r8d,%r10d
   18000266d:	41 c1 c8 0d          	ror    $0xd,%r8d
   180002671:	33 da                	xor    %edx,%ebx
   180002673:	44 33 d2             	xor    %edx,%r10d
   180002676:	c1 ca 03             	ror    $0x3,%edx
   180002679:	41 33 d2             	xor    %r10d,%edx
   18000267c:	8b cb                	mov    %ebx,%ecx
   18000267e:	f7 d1                	not    %ecx
   180002680:	0b ca                	or     %edx,%ecx
   180002682:	33 d3                	xor    %ebx,%edx
   180002684:	41 33 d8             	xor    %r8d,%ebx
   180002687:	41 33 ca             	xor    %r10d,%ecx
   18000268a:	44 0b d2             	or     %edx,%r10d
   18000268d:	41 8b c0             	mov    %r8d,%eax
   180002690:	44 8b c9             	mov    %ecx,%r9d
   180002693:	44 0b cb             	or     %ebx,%r9d
   180002696:	33 c1                	xor    %ecx,%eax
   180002698:	44 33 d3             	xor    %ebx,%r10d
   18000269b:	33 d0                	xor    %eax,%edx
   18000269d:	41 8b 46 24          	mov    0x24(%r14),%eax
   1800026a1:	41 8b da             	mov    %r10d,%ebx
   1800026a4:	41 33 c0             	xor    %r8d,%eax
   1800026a7:	45 8b 46 28          	mov    0x28(%r14),%r8d
   1800026ab:	44 33 ca             	xor    %edx,%r9d
   1800026ae:	23 da                	and    %edx,%ebx
   1800026b0:	41 8b 56 20          	mov    0x20(%r14),%edx
   1800026b4:	33 d9                	xor    %ecx,%ebx
   1800026b6:	41 33 c9             	xor    %r9d,%ecx
   1800026b9:	44 33 c8             	xor    %eax,%r9d
   1800026bc:	41 33 5e 2c          	xor    0x2c(%r14),%ebx
   1800026c0:	41 33 d2             	xor    %r10d,%edx
   1800026c3:	45 8b 56 10          	mov    0x10(%r14),%r10d
   1800026c7:	44 33 c1             	xor    %ecx,%r8d
   1800026ca:	41 8b c1             	mov    %r9d,%eax
   1800026cd:	c1 ca 05             	ror    $0x5,%edx
   1800026d0:	41 33 d1             	xor    %r9d,%edx
   1800026d3:	c1 e0 07             	shl    $0x7,%eax
   1800026d6:	41 d1 c9             	ror    %r9d
   1800026d9:	33 d3                	xor    %ebx,%edx
   1800026db:	44 33 ca             	xor    %edx,%r9d
   1800026de:	41 c1 c8 16          	ror    $0x16,%r8d
   1800026e2:	44 33 c0             	xor    %eax,%r8d
   1800026e5:	8b c2                	mov    %edx,%eax
   1800026e7:	c1 ca 0d             	ror    $0xd,%edx
   1800026ea:	44 33 c3             	xor    %ebx,%r8d
   1800026ed:	c1 e0 03             	shl    $0x3,%eax
   1800026f0:	c1 cb 07             	ror    $0x7,%ebx
   1800026f3:	33 d8                	xor    %eax,%ebx
   1800026f5:	45 33 c8             	xor    %r8d,%r9d
   1800026f8:	8b ca                	mov    %edx,%ecx
   1800026fa:	41 33 d8             	xor    %r8d,%ebx
   1800026fd:	44 33 cb             	xor    %ebx,%r9d
   180002700:	41 0b c9             	or     %r9d,%ecx
   180002703:	41 c1 c8 03          	ror    $0x3,%r8d
   180002707:	41 33 d0             	xor    %r8d,%edx
   18000270a:	33 cb                	xor    %ebx,%ecx
   18000270c:	41 23 d9             	and    %r9d,%ebx
   18000270f:	41 f7 d0             	not    %r8d
   180002712:	45 33 c8             	xor    %r8d,%r9d
   180002715:	44 23 c1             	and    %ecx,%r8d
   180002718:	41 33 c9             	xor    %r9d,%ecx
   18000271b:	44 0b cb             	or     %ebx,%r9d
   18000271e:	44 33 d1             	xor    %ecx,%r10d
   180002721:	8b c1                	mov    %ecx,%eax
   180002723:	44 8b d9             	mov    %ecx,%r11d
   180002726:	33 c2                	xor    %edx,%eax
   180002728:	44 0b da             	or     %edx,%r11d
   18000272b:	45 33 d9             	xor    %r9d,%r11d
   18000272e:	45 8b 4e 18          	mov    0x18(%r14),%r9d
   180002732:	44 33 c0             	xor    %eax,%r8d
   180002735:	41 8b 46 1c          	mov    0x1c(%r14),%eax
   180002739:	45 33 d3             	xor    %r11d,%r10d
   18000273c:	45 33 5e 14          	xor    0x14(%r14),%r11d
   180002740:	33 c2                	xor    %edx,%eax
   180002742:	45 33 c8             	xor    %r8d,%r9d
   180002745:	33 d8                	xor    %eax,%ebx
   180002747:	41 c1 ca 05          	ror    $0x5,%r10d
   18000274b:	41 8b c3             	mov    %r11d,%eax
   18000274e:	45 33 d3             	xor    %r11d,%r10d
   180002751:	c1 e0 07             	shl    $0x7,%eax
   180002754:	44 33 d3             	xor    %ebx,%r10d
   180002757:	41 c1 c9 16          	ror    $0x16,%r9d
   18000275b:	44 33 c8             	xor    %eax,%r9d
   18000275e:	41 8b c2             	mov    %r10d,%eax
   180002761:	41 d1 cb             	ror    %r11d
   180002764:	44 33 cb             	xor    %ebx,%r9d
   180002767:	c1 e0 03             	shl    $0x3,%eax
   18000276a:	c1 cb 07             	ror    $0x7,%ebx
   18000276d:	45 33 da             	xor    %r10d,%r11d
   180002770:	33 d8                	xor    %eax,%ebx
   180002772:	41 c1 ca 0d          	ror    $0xd,%r10d
   180002776:	41 33 d9             	xor    %r9d,%ebx
   180002779:	44 8b c3             	mov    %ebx,%r8d
   18000277c:	41 8b 56 0c          	mov    0xc(%r14),%edx
   180002780:	41 8b 4e 04          	mov    0x4(%r14),%ecx
   180002784:	48 8b 74 24 18       	mov    0x18(%rsp),%rsi
   180002789:	48 8b 7c 24 20       	mov    0x20(%rsp),%rdi
   18000278e:	41 8b c2             	mov    %r10d,%eax
   180002791:	41 f7 d2             	not    %r10d
   180002794:	41 33 c1             	xor    %r9d,%eax
   180002797:	41 c1 c9 03          	ror    $0x3,%r9d
   18000279b:	44 33 d8             	xor    %eax,%r11d
   18000279e:	41 8b 06             	mov    (%r14),%eax
   1800027a1:	41 0b db             	or     %r11d,%ebx
   1800027a4:	45 33 c3             	xor    %r11d,%r8d
   1800027a7:	44 33 cb             	xor    %ebx,%r9d
   1800027aa:	41 33 da             	xor    %r10d,%ebx
   1800027ad:	45 23 d3             	and    %r11d,%r10d
   1800027b0:	45 33 d1             	xor    %r9d,%r10d
   1800027b3:	44 23 cb             	and    %ebx,%r9d
   1800027b6:	41 33 d8             	xor    %r8d,%ebx
   1800027b9:	44 33 db             	xor    %ebx,%r11d
   1800027bc:	44 33 cb             	xor    %ebx,%r9d
   1800027bf:	41 23 da             	and    %r10d,%ebx
   1800027c2:	45 33 da             	xor    %r10d,%r11d
   1800027c5:	41 33 d2             	xor    %r10d,%edx
   1800027c8:	41 33 c8             	xor    %r8d,%ecx
   1800027cb:	45 33 5e 08          	xor    0x8(%r14),%r11d
   1800027cf:	4c 8b 74 24 28       	mov    0x28(%rsp),%r14
   1800027d4:	33 cb                	xor    %ebx,%ecx
   1800027d6:	48 8b 5c 24 10       	mov    0x10(%rsp),%rbx
   1800027db:	41 33 d1             	xor    %r9d,%edx
   1800027de:	41 33 c1             	xor    %r9d,%eax
   1800027e1:	45 89 5f 08          	mov    %r11d,0x8(%r15)
   1800027e5:	41 89 4f 04          	mov    %ecx,0x4(%r15)
   1800027e9:	41 89 07             	mov    %eax,(%r15)
   1800027ec:	41 89 57 0c          	mov    %edx,0xc(%r15)
   1800027f0:	41 5f                	pop    %r15
   1800027f2:	c3                   	retq   
   1800027f3:	cc                   	int3   
   1800027f4:	48 89 5c 24 08       	mov    %rbx,0x8(%rsp)
   1800027f9:	55                   	push   %rbp
   1800027fa:	56                   	push   %rsi
   1800027fb:	57                   	push   %rdi
   1800027fc:	41 54                	push   %r12
   1800027fe:	41 55                	push   %r13
   180002800:	41 56                	push   %r14
   180002802:	41 57                	push   %r15
   180002804:	48 83 ec 50          	sub    $0x50,%rsp
   180002808:	48 8b f2             	mov    %rdx,%rsi
   18000280b:	4c 8b c2             	mov    %rdx,%r8
   18000280e:	48 2b ca             	sub    %rdx,%rcx
   180002811:	ba 20 00 00 00       	mov    $0x20,%edx
   180002816:	42 8a 04 01          	mov    (%rcx,%r8,1),%al
   18000281a:	41 88 00             	mov    %al,(%r8)
   18000281d:	49 ff c0             	inc    %r8
   180002820:	48 ff ca             	dec    %rdx
   180002823:	75 f1                	jne    0x180002816
   180002825:	44 8b 5e 1c          	mov    0x1c(%rsi),%r11d
   180002829:	44 8b 4e 14          	mov    0x14(%rsi),%r9d
   18000282d:	44 8b 56 18          	mov    0x18(%rsi),%r10d
   180002831:	44 8b 46 0c          	mov    0xc(%rsi),%r8d
   180002835:	8b 5e 10             	mov    0x10(%rsi),%ebx
   180002838:	41 8b c3             	mov    %r11d,%eax
   18000283b:	41 33 c1             	xor    %r9d,%eax
   18000283e:	41 8b d0             	mov    %r8d,%edx
   180002841:	45 33 c2             	xor    %r10d,%r8d
   180002844:	33 16                	xor    (%rsi),%edx
   180002846:	8b cb                	mov    %ebx,%ecx
   180002848:	41 33 db             	xor    %r11d,%ebx
   18000284b:	41 33 ca             	xor    %r10d,%ecx
   18000284e:	41 33 d3             	xor    %r11d,%edx
   180002851:	41 33 d1             	xor    %r9d,%edx
   180002854:	81 f2 b9 79 37 9e    	xor    $0x9e3779b9,%edx
   18000285a:	c1 c2 0b             	rol    $0xb,%edx
   18000285d:	33 ca                	xor    %edx,%ecx
   18000285f:	89 16                	mov    %edx,(%rsi)
   180002861:	33 4e 04             	xor    0x4(%rsi),%ecx
   180002864:	81 f1 b8 79 37 9e    	xor    $0x9e3779b8,%ecx
   18000286a:	c1 c1 0b             	rol    $0xb,%ecx
   18000286d:	33 c1                	xor    %ecx,%eax
   18000286f:	89 4e 04             	mov    %ecx,0x4(%rsi)
   180002872:	33 46 08             	xor    0x8(%rsi),%eax
   180002875:	35 bb 79 37 9e       	xor    $0x9e3779bb,%eax
   18000287a:	c1 c0 0b             	rol    $0xb,%eax
   18000287d:	44 33 c0             	xor    %eax,%r8d
   180002880:	89 46 08             	mov    %eax,0x8(%rsi)
   180002883:	44 33 c2             	xor    %edx,%r8d
   180002886:	41 81 f0 ba 79 37 9e 	xor    $0x9e3779ba,%r8d
   18000288d:	41 c1 c0 0b          	rol    $0xb,%r8d
   180002891:	41 33 d8             	xor    %r8d,%ebx
   180002894:	45 33 d0             	xor    %r8d,%r10d
   180002897:	44 89 46 0c          	mov    %r8d,0xc(%rsi)
   18000289b:	33 d9                	xor    %ecx,%ebx
   18000289d:	44 33 d1             	xor    %ecx,%r10d
   1800028a0:	81 f3 bd 79 37 9e    	xor    $0x9e3779bd,%ebx
   1800028a6:	c1 c3 0b             	rol    $0xb,%ebx
   1800028a9:	44 33 cb             	xor    %ebx,%r9d
   1800028ac:	44 33 db             	xor    %ebx,%r11d
   1800028af:	89 5e 10             	mov    %ebx,0x10(%rsi)
   1800028b2:	44 33 c8             	xor    %eax,%r9d
   1800028b5:	44 33 d8             	xor    %eax,%r11d
   1800028b8:	8b c2                	mov    %edx,%eax
   1800028ba:	41 33 c0             	xor    %r8d,%eax
   1800028bd:	44 33 ca             	xor    %edx,%r9d
   1800028c0:	41 81 f1 bc 79 37 9e 	xor    $0x9e3779bc,%r9d
   1800028c7:	41 c1 c1 0b          	rol    $0xb,%r9d
   1800028cb:	45 33 d1             	xor    %r9d,%r10d
   1800028ce:	44 89 4e 14          	mov    %r9d,0x14(%rsi)
   1800028d2:	41 81 f2 bf 79 37 9e 	xor    $0x9e3779bf,%r10d
   1800028d9:	41 c1 c2 0b          	rol    $0xb,%r10d
   1800028dd:	45 33 da             	xor    %r10d,%r11d
   1800028e0:	44 89 56 18          	mov    %r10d,0x18(%rsi)
   1800028e4:	41 81 f3 be 79 37 9e 	xor    $0x9e3779be,%r11d
   1800028eb:	41 c1 c3 0b          	rol    $0xb,%r11d
   1800028ef:	41 33 c3             	xor    %r11d,%eax
   1800028f2:	44 89 5e 1c          	mov    %r11d,0x1c(%rsi)
   1800028f6:	41 33 c1             	xor    %r9d,%eax
   1800028f9:	35 b1 79 37 9e       	xor    $0x9e3779b1,%eax
   1800028fe:	c1 c0 0b             	rol    $0xb,%eax
   180002901:	33 d8                	xor    %eax,%ebx
   180002903:	89 46 20             	mov    %eax,0x20(%rsi)
   180002906:	41 33 da             	xor    %r10d,%ebx
   180002909:	33 d9                	xor    %ecx,%ebx
   18000290b:	8b 4e 0c             	mov    0xc(%rsi),%ecx
   18000290e:	33 c8                	xor    %eax,%ecx
   180002910:	81 f3 b0 79 37 9e    	xor    $0x9e3779b0,%ebx
   180002916:	41 33 ca             	xor    %r10d,%ecx
   180002919:	c1 c3 0b             	rol    $0xb,%ebx
   18000291c:	44 8b c3             	mov    %ebx,%r8d
   18000291f:	89 5e 24             	mov    %ebx,0x24(%rsi)
   180002922:	45 33 c3             	xor    %r11d,%r8d
   180002925:	45 33 c1             	xor    %r9d,%r8d
   180002928:	44 33 46 08          	xor    0x8(%rsi),%r8d
   18000292c:	41 81 f0 b3 79 37 9e 	xor    $0x9e3779b3,%r8d
   180002933:	41 c1 c0 0b          	rol    $0xb,%r8d
   180002937:	41 33 c8             	xor    %r8d,%ecx
   18000293a:	44 89 46 28          	mov    %r8d,0x28(%rsi)
   18000293e:	81 f1 b2 79 37 9e    	xor    $0x9e3779b2,%ecx
   180002944:	c1 c1 0b             	rol    $0xb,%ecx
   180002947:	44 8b 4e 10          	mov    0x10(%rsi),%r9d
   18000294b:	8b 56 14             	mov    0x14(%rsi),%edx
   18000294e:	44 33 cb             	xor    %ebx,%r9d
   180002951:	33 d0                	xor    %eax,%edx
   180002953:	89 4e 2c             	mov    %ecx,0x2c(%rsi)
   180002956:	45 33 cb             	xor    %r11d,%r9d
   180002959:	41 8b c2             	mov    %r10d,%eax
   18000295c:	44 33 c9             	xor    %ecx,%r9d
   18000295f:	33 c3                	xor    %ebx,%eax
   180002961:	41 81 f1 b5 79 37 9e 	xor    $0x9e3779b5,%r9d
   180002968:	41 c1 c1 0b          	rol    $0xb,%r9d
   18000296c:	41 33 d1             	xor    %r9d,%edx
   18000296f:	44 89 4e 30          	mov    %r9d,0x30(%rsi)
   180002973:	41 33 d0             	xor    %r8d,%edx
   180002976:	81 f2 b4 79 37 9e    	xor    $0x9e3779b4,%edx
   18000297c:	c1 c2 0b             	rol    $0xb,%edx
   18000297f:	33 c2                	xor    %edx,%eax
   180002981:	89 56 34             	mov    %edx,0x34(%rsi)
   180002984:	33 c1                	xor    %ecx,%eax
   180002986:	35 b7 79 37 9e       	xor    $0x9e3779b7,%eax
   18000298b:	c1 c0 0b             	rol    $0xb,%eax
   18000298e:	44 8b d0             	mov    %eax,%r10d
   180002991:	89 46 38             	mov    %eax,0x38(%rsi)
   180002994:	45 33 d1             	xor    %r9d,%r10d
   180002997:	45 33 d0             	xor    %r8d,%r10d
   18000299a:	44 33 c2             	xor    %edx,%r8d
   18000299d:	45 33 d3             	xor    %r11d,%r10d
   1800029a0:	44 8b da             	mov    %edx,%r11d
   1800029a3:	8b 56 2c             	mov    0x2c(%rsi),%edx
   1800029a6:	44 33 d9             	xor    %ecx,%r11d
   1800029a9:	8b cb                	mov    %ebx,%ecx
   1800029ab:	33 d0                	xor    %eax,%edx
   1800029ad:	33 c8                	xor    %eax,%ecx
   1800029af:	41 81 f2 b6 79 37 9e 	xor    $0x9e3779b6,%r10d
   1800029b6:	41 33 c9             	xor    %r9d,%ecx
   1800029b9:	41 c1 c2 0b          	rol    $0xb,%r10d
   1800029bd:	45 33 da             	xor    %r10d,%r11d
   1800029c0:	44 89 56 3c          	mov    %r10d,0x3c(%rsi)
   1800029c4:	44 33 5e 20          	xor    0x20(%rsi),%r11d
   1800029c8:	41 81 f3 a9 79 37 9e 	xor    $0x9e3779a9,%r11d
   1800029cf:	41 c1 c3 0b          	rol    $0xb,%r11d
   1800029d3:	41 33 cb             	xor    %r11d,%ecx
   1800029d6:	44 89 5e 40          	mov    %r11d,0x40(%rsi)
   1800029da:	81 f1 a8 79 37 9e    	xor    $0x9e3779a8,%ecx
   1800029e0:	c1 c1 0b             	rol    $0xb,%ecx
   1800029e3:	44 33 c1             	xor    %ecx,%r8d
   1800029e6:	89 4e 44             	mov    %ecx,0x44(%rsi)
   1800029e9:	45 33 c2             	xor    %r10d,%r8d
   1800029ec:	41 81 f0 ab 79 37 9e 	xor    $0x9e3779ab,%r8d
   1800029f3:	41 c1 c0 0b          	rol    $0xb,%r8d
   1800029f7:	41 33 d0             	xor    %r8d,%edx
   1800029fa:	44 89 46 48          	mov    %r8d,0x48(%rsi)
   1800029fe:	41 33 d3             	xor    %r11d,%edx
   180002a01:	81 f2 aa 79 37 9e    	xor    $0x9e3779aa,%edx
   180002a07:	c1 c2 0b             	rol    $0xb,%edx
   180002a0a:	8b da                	mov    %edx,%ebx
   180002a0c:	89 56 4c             	mov    %edx,0x4c(%rsi)
   180002a0f:	33 d9                	xor    %ecx,%ebx
   180002a11:	41 33 da             	xor    %r10d,%ebx
   180002a14:	41 33 d9             	xor    %r9d,%ebx
   180002a17:	44 8b 4e 34          	mov    0x34(%rsi),%r9d
   180002a1b:	45 33 c8             	xor    %r8d,%r9d
   180002a1e:	81 f3 ad 79 37 9e    	xor    $0x9e3779ad,%ebx
   180002a24:	45 33 cb             	xor    %r11d,%r9d
   180002a27:	44 8b d8             	mov    %eax,%r11d
   180002a2a:	c1 c3 0b             	rol    $0xb,%ebx
   180002a2d:	44 33 da             	xor    %edx,%r11d
   180002a30:	44 33 cb             	xor    %ebx,%r9d
   180002a33:	89 5e 50             	mov    %ebx,0x50(%rsi)
   180002a36:	44 33 d9             	xor    %ecx,%r11d
   180002a39:	41 81 f1 ac 79 37 9e 	xor    $0x9e3779ac,%r9d
   180002a40:	41 8b ca             	mov    %r10d,%ecx
   180002a43:	41 c1 c1 0b          	rol    $0xb,%r9d
   180002a47:	41 33 c8             	xor    %r8d,%ecx
   180002a4a:	45 33 d9             	xor    %r9d,%r11d
   180002a4d:	44 89 4e 54          	mov    %r9d,0x54(%rsi)
   180002a51:	41 81 f3 af 79 37 9e 	xor    $0x9e3779af,%r11d
   180002a58:	41 c1 c3 0b          	rol    $0xb,%r11d
   180002a5c:	44 89 5e 58          	mov    %r11d,0x58(%rsi)
   180002a60:	41 33 cb             	xor    %r11d,%ecx
   180002a63:	8b 46 40             	mov    0x40(%rsi),%eax
   180002a66:	44 8b 56 4c          	mov    0x4c(%rsi),%r10d
   180002a6a:	33 cb                	xor    %ebx,%ecx
   180002a6c:	33 c2                	xor    %edx,%eax
   180002a6e:	8b 56 44             	mov    0x44(%rsi),%edx
   180002a71:	81 f1 ae 79 37 9e    	xor    $0x9e3779ae,%ecx
   180002a77:	c1 c1 0b             	rol    $0xb,%ecx
   180002a7a:	48 81 c6 c8 00 00 00 	add    $0xc8,%rsi
   180002a81:	33 c1                	xor    %ecx,%eax
   180002a83:	89 4e 94             	mov    %ecx,-0x6c(%rsi)
   180002a86:	44 8b c1             	mov    %ecx,%r8d
   180002a89:	45 33 c1             	xor    %r9d,%r8d
   180002a8c:	41 33 c1             	xor    %r9d,%eax
   180002a8f:	44 8b cb             	mov    %ebx,%r9d
   180002a92:	44 33 c9             	xor    %ecx,%r9d
   180002a95:	8b 4e 8c             	mov    -0x74(%rsi),%ecx
   180002a98:	35 a1 79 37 9e       	xor    $0x9e3779a1,%eax
   180002a9d:	c1 c0 0b             	rol    $0xb,%eax
   180002aa0:	33 d0                	xor    %eax,%edx
   180002aa2:	44 33 d0             	xor    %eax,%r10d
   180002aa5:	33 c8                	xor    %eax,%ecx
   180002aa7:	41 33 d3             	xor    %r11d,%edx
   180002aaa:	45 33 d3             	xor    %r11d,%r10d
   180002aad:	89 46 98             	mov    %eax,-0x68(%rsi)
   180002ab0:	33 d3                	xor    %ebx,%edx
   180002ab2:	81 f2 a0 79 37 9e    	xor    $0x9e3779a0,%edx
   180002ab8:	c1 c2 0b             	rol    $0xb,%edx
   180002abb:	44 33 c2             	xor    %edx,%r8d
   180002abe:	89 56 9c             	mov    %edx,-0x64(%rsi)
   180002ac1:	44 33 46 80          	xor    -0x80(%rsi),%r8d
   180002ac5:	41 81 f0 a3 79 37 9e 	xor    $0x9e3779a3,%r8d
   180002acc:	41 c1 c0 0b          	rol    $0xb,%r8d
   180002ad0:	45 33 d0             	xor    %r8d,%r10d
   180002ad3:	44 89 46 a0          	mov    %r8d,-0x60(%rsi)
   180002ad7:	41 81 f2 a2 79 37 9e 	xor    $0x9e3779a2,%r10d
   180002ade:	41 c1 c2 0b          	rol    $0xb,%r10d
   180002ae2:	44 89 56 a4          	mov    %r10d,-0x5c(%rsi)
   180002ae6:	45 33 ca             	xor    %r10d,%r9d
   180002ae9:	44 33 ca             	xor    %edx,%r9d
   180002aec:	41 81 f1 a5 79 37 9e 	xor    $0x9e3779a5,%r9d
   180002af3:	41 c1 c1 0b          	rol    $0xb,%r9d
   180002af7:	44 89 4e a8          	mov    %r9d,-0x58(%rsi)
   180002afb:	41 33 c9             	xor    %r9d,%ecx
   180002afe:	41 33 c8             	xor    %r8d,%ecx
   180002b01:	81 f1 a4 79 37 9e    	xor    $0x9e3779a4,%ecx
   180002b07:	c1 c1 0b             	rol    $0xb,%ecx
   180002b0a:	89 4e ac             	mov    %ecx,-0x54(%rsi)
   180002b0d:	8b d9                	mov    %ecx,%ebx
   180002b0f:	41 33 da             	xor    %r10d,%ebx
   180002b12:	33 da                	xor    %edx,%ebx
   180002b14:	41 33 db             	xor    %r11d,%ebx
   180002b17:	44 8b 5e 94          	mov    -0x6c(%rsi),%r11d
   180002b1b:	45 33 d9             	xor    %r9d,%r11d
   180002b1e:	81 f3 a7 79 37 9e    	xor    $0x9e3779a7,%ebx
   180002b24:	45 33 d8             	xor    %r8d,%r11d
   180002b27:	c1 c3 0b             	rol    $0xb,%ebx
   180002b2a:	89 5e b0             	mov    %ebx,-0x50(%rsi)
   180002b2d:	44 33 db             	xor    %ebx,%r11d
   180002b30:	41 81 f3 a6 79 37 9e 	xor    $0x9e3779a6,%r11d
   180002b37:	41 c1 c3 0b          	rol    $0xb,%r11d
   180002b3b:	44 89 5e b4          	mov    %r11d,-0x4c(%rsi)
   180002b3f:	44 8b 46 98          	mov    -0x68(%rsi),%r8d
   180002b43:	8b 46 9c             	mov    -0x64(%rsi),%eax
   180002b46:	8b 56 a0             	mov    -0x60(%rsi),%edx
   180002b49:	44 33 c1             	xor    %ecx,%r8d
   180002b4c:	41 33 c1             	xor    %r9d,%eax
   180002b4f:	45 33 c2             	xor    %r10d,%r8d
   180002b52:	33 d1                	xor    %ecx,%edx
   180002b54:	45 33 c3             	xor    %r11d,%r8d
   180002b57:	41 81 f0 99 79 37 9e 	xor    $0x9e377999,%r8d
   180002b5e:	41 c1 c0 0b          	rol    $0xb,%r8d
   180002b62:	41 33 c0             	xor    %r8d,%eax
   180002b65:	44 89 46 b8          	mov    %r8d,-0x48(%rsi)
   180002b69:	33 c3                	xor    %ebx,%eax
   180002b6b:	35 98 79 37 9e       	xor    $0x9e377998,%eax
   180002b70:	c1 c0 0b             	rol    $0xb,%eax
   180002b73:	33 d0                	xor    %eax,%edx
   180002b75:	89 46 bc             	mov    %eax,-0x44(%rsi)
   180002b78:	41 33 d3             	xor    %r11d,%edx
   180002b7b:	81 f2 9b 79 37 9e    	xor    $0x9e37799b,%edx
   180002b81:	c1 c2 0b             	rol    $0xb,%edx
   180002b84:	44 8b 56 a4          	mov    -0x5c(%rsi),%r10d
   180002b88:	8b 4e a8             	mov    -0x58(%rsi),%ecx
   180002b8b:	44 8b 4e ac          	mov    -0x54(%rsi),%r9d
   180002b8f:	44 33 d2             	xor    %edx,%r10d
   180002b92:	33 c8                	xor    %eax,%ecx
   180002b94:	44 33 ca             	xor    %edx,%r9d
   180002b97:	45 33 d0             	xor    %r8d,%r10d
   180002b9a:	41 33 cb             	xor    %r11d,%ecx
   180002b9d:	44 8b 5e b0          	mov    -0x50(%rsi),%r11d
   180002ba1:	44 33 d8             	xor    %eax,%r11d
   180002ba4:	8b 46 b4             	mov    -0x4c(%rsi),%eax
   180002ba7:	44 33 d3             	xor    %ebx,%r10d
   180002baa:	45 33 c8             	xor    %r8d,%r9d
   180002bad:	33 c2                	xor    %edx,%eax
   180002baf:	41 81 f2 9a 79 37 9e 	xor    $0x9e37799a,%r10d
   180002bb6:	41 c1 c2 0b          	rol    $0xb,%r10d
   180002bba:	89 56 c0             	mov    %edx,-0x40(%rsi)
   180002bbd:	41 33 ca             	xor    %r10d,%ecx
   180002bc0:	44 89 56 c4          	mov    %r10d,-0x3c(%rsi)
   180002bc4:	81 f1 9d 79 37 9e    	xor    $0x9e37799d,%ecx
   180002bca:	c1 c1 0b             	rol    $0xb,%ecx
   180002bcd:	44 33 c9             	xor    %ecx,%r9d
   180002bd0:	8b d9                	mov    %ecx,%ebx
   180002bd2:	89 4e c8             	mov    %ecx,-0x38(%rsi)
   180002bd5:	41 81 f1 9c 79 37 9e 	xor    $0x9e37799c,%r9d
   180002bdc:	41 c1 c1 0b          	rol    $0xb,%r9d
   180002be0:	45 33 d9             	xor    %r9d,%r11d
   180002be3:	44 89 4e cc          	mov    %r9d,-0x34(%rsi)
   180002be7:	45 33 da             	xor    %r10d,%r11d
   180002bea:	41 81 f3 9f 79 37 9e 	xor    $0x9e37799f,%r11d
   180002bf1:	41 c1 c3 0b          	rol    $0xb,%r11d
   180002bf5:	41 33 c3             	xor    %r11d,%eax
   180002bf8:	44 89 5e d0          	mov    %r11d,-0x30(%rsi)
   180002bfc:	33 c1                	xor    %ecx,%eax
   180002bfe:	35 9e 79 37 9e       	xor    $0x9e37799e,%eax
   180002c03:	c1 c0 0b             	rol    $0xb,%eax
   180002c06:	44 33 c0             	xor    %eax,%r8d
   180002c09:	33 d0                	xor    %eax,%edx
   180002c0b:	33 d8                	xor    %eax,%ebx
   180002c0d:	45 33 c1             	xor    %r9d,%r8d
   180002c10:	41 33 d1             	xor    %r9d,%edx
   180002c13:	89 46 d4             	mov    %eax,-0x2c(%rsi)
   180002c16:	8b 46 d0             	mov    -0x30(%rsi),%eax
   180002c19:	45 33 c2             	xor    %r10d,%r8d
   180002c1c:	45 8b d3             	mov    %r11d,%r10d
   180002c1f:	44 33 d1             	xor    %ecx,%r10d
   180002c22:	41 81 f0 91 79 37 9e 	xor    $0x9e377991,%r8d
   180002c29:	41 c1 c0 0b          	rol    $0xb,%r8d
   180002c2d:	45 33 d0             	xor    %r8d,%r10d
   180002c30:	44 89 46 d8          	mov    %r8d,-0x28(%rsi)
   180002c34:	44 33 56 bc          	xor    -0x44(%rsi),%r10d
   180002c38:	41 81 f2 90 79 37 9e 	xor    $0x9e377990,%r10d
   180002c3f:	41 c1 c2 0b          	rol    $0xb,%r10d
   180002c43:	41 33 d2             	xor    %r10d,%edx
   180002c46:	44 89 56 dc          	mov    %r10d,-0x24(%rsi)
   180002c4a:	81 f2 93 79 37 9e    	xor    $0x9e377993,%edx
   180002c50:	c1 c2 0b             	rol    $0xb,%edx
   180002c53:	44 33 da             	xor    %edx,%r11d
   180002c56:	89 56 e0             	mov    %edx,-0x20(%rsi)
   180002c59:	45 33 d8             	xor    %r8d,%r11d
   180002c5c:	44 33 5e c4          	xor    -0x3c(%rsi),%r11d
   180002c60:	41 81 f3 92 79 37 9e 	xor    $0x9e377992,%r11d
   180002c67:	41 c1 c3 0b          	rol    $0xb,%r11d
   180002c6b:	41 33 db             	xor    %r11d,%ebx
   180002c6e:	41 33 c3             	xor    %r11d,%eax
   180002c71:	44 89 5e e4          	mov    %r11d,-0x1c(%rsi)
   180002c75:	41 33 da             	xor    %r10d,%ebx
   180002c78:	41 33 c2             	xor    %r10d,%eax
   180002c7b:	81 f3 95 79 37 9e    	xor    $0x9e377995,%ebx
   180002c81:	c1 c3 0b             	rol    $0xb,%ebx
   180002c84:	44 8b cb             	mov    %ebx,%r9d
   180002c87:	89 5e e8             	mov    %ebx,-0x18(%rsi)
   180002c8a:	44 33 ca             	xor    %edx,%r9d
   180002c8d:	45 33 c8             	xor    %r8d,%r9d
   180002c90:	44 33 4e cc          	xor    -0x34(%rsi),%r9d
   180002c94:	41 81 f1 94 79 37 9e 	xor    $0x9e377994,%r9d
   180002c9b:	41 c1 c1 0b          	rol    $0xb,%r9d
   180002c9f:	41 33 c1             	xor    %r9d,%eax
   180002ca2:	44 89 4e ec          	mov    %r9d,-0x14(%rsi)
   180002ca6:	35 97 79 37 9e       	xor    $0x9e377997,%eax
   180002cab:	c1 c0 0b             	rol    $0xb,%eax
   180002cae:	8b cb                	mov    %ebx,%ecx
   180002cb0:	89 46 f0             	mov    %eax,-0x10(%rsi)
   180002cb3:	33 ca                	xor    %edx,%ecx
   180002cb5:	33 c8                	xor    %eax,%ecx
   180002cb7:	33 4e d4             	xor    -0x2c(%rsi),%ecx
   180002cba:	81 f1 96 79 37 9e    	xor    $0x9e377996,%ecx
   180002cc0:	c1 c1 0b             	rol    $0xb,%ecx
   180002cc3:	44 33 d9             	xor    %ecx,%r11d
   180002cc6:	89 4e f4             	mov    %ecx,-0xc(%rsi)
   180002cc9:	45 33 d9             	xor    %r9d,%r11d
   180002ccc:	45 33 d8             	xor    %r8d,%r11d
   180002ccf:	41 81 f3 89 79 37 9e 	xor    $0x9e377989,%r11d
   180002cd6:	41 c1 c3 0b          	rol    $0xb,%r11d
   180002cda:	41 33 db             	xor    %r11d,%ebx
   180002cdd:	44 89 5e f8          	mov    %r11d,-0x8(%rsi)
   180002ce1:	33 d8                	xor    %eax,%ebx
   180002ce3:	41 33 da             	xor    %r10d,%ebx
   180002ce6:	81 f3 88 79 37 9e    	xor    $0x9e377988,%ebx
   180002cec:	c1 c3 0b             	rol    $0xb,%ebx
   180002cef:	44 8b c3             	mov    %ebx,%r8d
   180002cf2:	89 5e fc             	mov    %ebx,-0x4(%rsi)
   180002cf5:	44 33 c1             	xor    %ecx,%r8d
   180002cf8:	45 33 c1             	xor    %r9d,%r8d
   180002cfb:	44 33 c2             	xor    %edx,%r8d
   180002cfe:	41 8b d3             	mov    %r11d,%edx
   180002d01:	33 d0                	xor    %eax,%edx
   180002d03:	8b c3                	mov    %ebx,%eax
   180002d05:	41 81 f0 8b 79 37 9e 	xor    $0x9e37798b,%r8d
   180002d0c:	33 c1                	xor    %ecx,%eax
   180002d0e:	41 c1 c0 0b          	rol    $0xb,%r8d
   180002d12:	41 33 d0             	xor    %r8d,%edx
   180002d15:	41 8b f8             	mov    %r8d,%edi
   180002d18:	44 89 06             	mov    %r8d,(%rsi)
   180002d1b:	33 56 e4             	xor    -0x1c(%rsi),%edx
   180002d1e:	81 f2 8a 79 37 9e    	xor    $0x9e37798a,%edx
   180002d24:	c1 c2 0b             	rol    $0xb,%edx
   180002d27:	33 c2                	xor    %edx,%eax
   180002d29:	89 56 04             	mov    %edx,0x4(%rsi)
   180002d2c:	33 46 e8             	xor    -0x18(%rsi),%eax
   180002d2f:	35 8d 79 37 9e       	xor    $0x9e37798d,%eax
   180002d34:	c1 c0 0b             	rol    $0xb,%eax
   180002d37:	44 33 d8             	xor    %eax,%r11d
   180002d3a:	89 46 08             	mov    %eax,0x8(%rsi)
   180002d3d:	45 33 d8             	xor    %r8d,%r11d
   180002d40:	45 33 d9             	xor    %r9d,%r11d
   180002d43:	41 81 f3 8c 79 37 9e 	xor    $0x9e37798c,%r11d
   180002d4a:	41 c1 c3 0b          	rol    $0xb,%r11d
   180002d4e:	41 33 db             	xor    %r11d,%ebx
   180002d51:	41 33 fb             	xor    %r11d,%edi
   180002d54:	44 89 5e 0c          	mov    %r11d,0xc(%rsi)
   180002d58:	33 da                	xor    %edx,%ebx
   180002d5a:	33 5e f0             	xor    -0x10(%rsi),%ebx
   180002d5d:	81 f3 8f 79 37 9e    	xor    $0x9e37798f,%ebx
   180002d63:	c1 c3 0b             	rol    $0xb,%ebx
   180002d66:	44 8b cb             	mov    %ebx,%r9d
   180002d69:	89 5e 10             	mov    %ebx,0x10(%rsi)
   180002d6c:	44 33 c8             	xor    %eax,%r9d
   180002d6f:	45 33 c8             	xor    %r8d,%r9d
   180002d72:	44 33 c9             	xor    %ecx,%r9d
   180002d75:	41 8b cb             	mov    %r11d,%ecx
   180002d78:	33 ca                	xor    %edx,%ecx
   180002d7a:	41 81 f1 8e 79 37 9e 	xor    $0x9e37798e,%r9d
   180002d81:	8b d3                	mov    %ebx,%edx
   180002d83:	33 d0                	xor    %eax,%edx
   180002d85:	41 c1 c1 0b          	rol    $0xb,%r9d
   180002d89:	41 33 c9             	xor    %r9d,%ecx
   180002d8c:	44 89 4e 14          	mov    %r9d,0x14(%rsi)
   180002d90:	33 4e f8             	xor    -0x8(%rsi),%ecx
   180002d93:	81 f1 81 79 37 9e    	xor    $0x9e377981,%ecx
   180002d99:	c1 c1 0b             	rol    $0xb,%ecx
   180002d9c:	33 d1                	xor    %ecx,%edx
   180002d9e:	89 4e 18             	mov    %ecx,0x18(%rsi)
   180002da1:	33 56 fc             	xor    -0x4(%rsi),%edx
   180002da4:	81 f2 80 79 37 9e    	xor    $0x9e377980,%edx
   180002daa:	c1 c2 0b             	rol    $0xb,%edx
   180002dad:	33 fa                	xor    %edx,%edi
   180002daf:	89 56 1c             	mov    %edx,0x1c(%rsi)
   180002db2:	41 33 f9             	xor    %r9d,%edi
   180002db5:	81 f7 83 79 37 9e    	xor    $0x9e377983,%edi
   180002dbb:	c1 c7 0b             	rol    $0xb,%edi
   180002dbe:	89 7e 20             	mov    %edi,0x20(%rsi)
   180002dc1:	44 8b 46 10          	mov    0x10(%rsi),%r8d
   180002dc5:	33 df                	xor    %edi,%ebx
   180002dc7:	44 8b d0             	mov    %eax,%r10d
   180002dca:	33 d9                	xor    %ecx,%ebx
   180002dcc:	41 8b c3             	mov    %r11d,%eax
   180002dcf:	33 5e 04             	xor    0x4(%rsi),%ebx
   180002dd2:	33 c7                	xor    %edi,%eax
   180002dd4:	33 c1                	xor    %ecx,%eax
   180002dd6:	81 f3 82 79 37 9e    	xor    $0x9e377982,%ebx
   180002ddc:	c1 c3 0b             	rol    $0xb,%ebx
   180002ddf:	44 33 d3             	xor    %ebx,%r10d
   180002de2:	44 33 c3             	xor    %ebx,%r8d
   180002de5:	33 cb                	xor    %ebx,%ecx
   180002de7:	44 33 d2             	xor    %edx,%r10d
   180002dea:	44 33 c2             	xor    %edx,%r8d
   180002ded:	89 5e 24             	mov    %ebx,0x24(%rsi)
   180002df0:	45 33 d1             	xor    %r9d,%r10d
   180002df3:	41 81 f2 85 79 37 9e 	xor    $0x9e377985,%r10d
   180002dfa:	41 c1 c2 0b          	rol    $0xb,%r10d
   180002dfe:	41 33 c2             	xor    %r10d,%eax
   180002e01:	44 89 56 28          	mov    %r10d,0x28(%rsi)
   180002e05:	35 84 79 37 9e       	xor    $0x9e377984,%eax
   180002e0a:	c1 c0 0b             	rol    $0xb,%eax
   180002e0d:	44 33 c0             	xor    %eax,%r8d
   180002e10:	89 46 2c             	mov    %eax,0x2c(%rsi)
   180002e13:	41 81 f0 87 79 37 9e 	xor    $0x9e377987,%r8d
   180002e1a:	41 c1 c0 0b          	rol    $0xb,%r8d
   180002e1e:	41 33 f8             	xor    %r8d,%edi
   180002e21:	44 89 46 30          	mov    %r8d,0x30(%rsi)
   180002e25:	41 33 fa             	xor    %r10d,%edi
   180002e28:	41 33 f9             	xor    %r9d,%edi
   180002e2b:	44 8b ca             	mov    %edx,%r9d
   180002e2e:	8b 56 2c             	mov    0x2c(%rsi),%edx
   180002e31:	81 f7 86 79 37 9e    	xor    $0x9e377986,%edi
   180002e37:	c1 c7 0b             	rol    $0xb,%edi
   180002e3a:	33 cf                	xor    %edi,%ecx
   180002e3c:	44 8b df             	mov    %edi,%r11d
   180002e3f:	89 7e 34             	mov    %edi,0x34(%rsi)
   180002e42:	44 33 d8             	xor    %eax,%r11d
   180002e45:	33 c8                	xor    %eax,%ecx
   180002e47:	8b c3                	mov    %ebx,%eax
   180002e49:	81 f1 f9 79 37 9e    	xor    $0x9e3779f9,%ecx
   180002e4f:	c1 c1 0b             	rol    $0xb,%ecx
   180002e52:	44 33 c9             	xor    %ecx,%r9d
   180002e55:	33 c1                	xor    %ecx,%eax
   180002e57:	33 d1                	xor    %ecx,%edx
   180002e59:	45 33 c8             	xor    %r8d,%r9d
   180002e5c:	41 33 c0             	xor    %r8d,%eax
   180002e5f:	89 4e 38             	mov    %ecx,0x38(%rsi)
   180002e62:	45 33 ca             	xor    %r10d,%r9d
   180002e65:	41 81 f1 f8 79 37 9e 	xor    $0x9e3779f8,%r9d
   180002e6c:	41 c1 c1 0b          	rol    $0xb,%r9d
   180002e70:	45 33 d9             	xor    %r9d,%r11d
   180002e73:	44 89 4e 3c          	mov    %r9d,0x3c(%rsi)
   180002e77:	44 33 5e 20          	xor    0x20(%rsi),%r11d
   180002e7b:	41 81 f3 fb 79 37 9e 	xor    $0x9e3779fb,%r11d
   180002e82:	41 c1 c3 0b          	rol    $0xb,%r11d
   180002e86:	41 33 c3             	xor    %r11d,%eax
   180002e89:	44 89 5e 40          	mov    %r11d,0x40(%rsi)
   180002e8d:	35 fa 79 37 9e       	xor    $0x9e3779fa,%eax
   180002e92:	c1 c0 0b             	rol    $0xb,%eax
   180002e95:	33 f8                	xor    %eax,%edi
   180002e97:	89 46 44             	mov    %eax,0x44(%rsi)
   180002e9a:	41 33 f9             	xor    %r9d,%edi
   180002e9d:	41 33 fa             	xor    %r10d,%edi
   180002ea0:	44 8b 56 34          	mov    0x34(%rsi),%r10d
   180002ea4:	81 f7 fd 79 37 9e    	xor    $0x9e3779fd,%edi
   180002eaa:	c1 c7 0b             	rol    $0xb,%edi
   180002ead:	33 d7                	xor    %edi,%edx
   180002eaf:	89 7e 48             	mov    %edi,0x48(%rsi)
   180002eb2:	41 33 d3             	xor    %r11d,%edx
   180002eb5:	81 f2 fc 79 37 9e    	xor    $0x9e3779fc,%edx
   180002ebb:	c1 c2 0b             	rol    $0xb,%edx
   180002ebe:	8b da                	mov    %edx,%ebx
   180002ec0:	89 56 4c             	mov    %edx,0x4c(%rsi)
   180002ec3:	33 d8                	xor    %eax,%ebx
   180002ec5:	41 33 d9             	xor    %r9d,%ebx
   180002ec8:	41 33 d8             	xor    %r8d,%ebx
   180002ecb:	81 f3 ff 79 37 9e    	xor    $0x9e3779ff,%ebx
   180002ed1:	c1 c3 0b             	rol    $0xb,%ebx
   180002ed4:	89 5e 50             	mov    %ebx,0x50(%rsi)
   180002ed7:	44 8b c1             	mov    %ecx,%r8d
   180002eda:	44 33 d7             	xor    %edi,%r10d
   180002edd:	41 8b c9             	mov    %r9d,%ecx
   180002ee0:	44 8b 4e 44          	mov    0x44(%rsi),%r9d
   180002ee4:	44 33 c2             	xor    %edx,%r8d
   180002ee7:	45 33 d3             	xor    %r11d,%r10d
   180002eea:	44 33 c0             	xor    %eax,%r8d
   180002eed:	33 cf                	xor    %edi,%ecx
   180002eef:	44 33 d3             	xor    %ebx,%r10d
   180002ef2:	41 81 f2 fe 79 37 9e 	xor    $0x9e3779fe,%r10d
   180002ef9:	41 8b c3             	mov    %r11d,%eax
   180002efc:	48 81 c6 c8 00 00 00 	add    $0xc8,%rsi
   180002f03:	33 c2                	xor    %edx,%eax
   180002f05:	41 c1 c2 0b          	rol    $0xb,%r10d
   180002f09:	8b d7                	mov    %edi,%edx
   180002f0b:	45 33 c2             	xor    %r10d,%r8d
   180002f0e:	44 89 56 8c          	mov    %r10d,-0x74(%rsi)
   180002f12:	48 89 74 24 48       	mov    %rsi,0x48(%rsp)
   180002f17:	41 81 f0 f1 79 37 9e 	xor    $0x9e3779f1,%r8d
   180002f1e:	41 c1 c0 0b          	rol    $0xb,%r8d
   180002f22:	41 33 c8             	xor    %r8d,%ecx
   180002f25:	44 89 46 90          	mov    %r8d,-0x70(%rsi)
   180002f29:	33 cb                	xor    %ebx,%ecx
   180002f2b:	81 f1 f0 79 37 9e    	xor    $0x9e3779f0,%ecx
   180002f31:	c1 c1 0b             	rol    $0xb,%ecx
   180002f34:	33 c1                	xor    %ecx,%eax
   180002f36:	33 d1                	xor    %ecx,%edx
   180002f38:	89 4e 94             	mov    %ecx,-0x6c(%rsi)
   180002f3b:	44 8b 5e 94          	mov    -0x6c(%rsi),%r11d
   180002f3f:	41 33 c2             	xor    %r10d,%eax
   180002f42:	41 33 d2             	xor    %r10d,%edx
   180002f45:	44 8b 56 84          	mov    -0x7c(%rsi),%r10d
   180002f49:	35 f3 79 37 9e       	xor    $0x9e3779f3,%eax
   180002f4e:	c1 c0 0b             	rol    $0xb,%eax
   180002f51:	44 33 c8             	xor    %eax,%r9d
   180002f54:	44 33 d0             	xor    %eax,%r10d
   180002f57:	89 46 98             	mov    %eax,-0x68(%rsi)
   180002f5a:	45 33 c8             	xor    %r8d,%r9d
   180002f5d:	45 33 d0             	xor    %r8d,%r10d
   180002f60:	44 8b c3             	mov    %ebx,%r8d
   180002f63:	44 33 c1             	xor    %ecx,%r8d
   180002f66:	8b 4e 8c             	mov    -0x74(%rsi),%ecx
   180002f69:	44 33 cb             	xor    %ebx,%r9d
   180002f6c:	33 c8                	xor    %eax,%ecx
   180002f6e:	8b 46 90             	mov    -0x70(%rsi),%eax
   180002f71:	41 81 f1 f2 79 37 9e 	xor    $0x9e3779f2,%r9d
   180002f78:	41 c1 c1 0b          	rol    $0xb,%r9d
   180002f7c:	41 33 d1             	xor    %r9d,%edx
   180002f7f:	44 89 4e 9c          	mov    %r9d,-0x64(%rsi)
   180002f83:	81 f2 f5 79 37 9e    	xor    $0x9e3779f5,%edx
   180002f89:	c1 c2 0b             	rol    $0xb,%edx
   180002f8c:	44 33 d2             	xor    %edx,%r10d
   180002f8f:	89 56 a0             	mov    %edx,-0x60(%rsi)
   180002f92:	41 81 f2 f4 79 37 9e 	xor    $0x9e3779f4,%r10d
   180002f99:	41 c1 c2 0b          	rol    $0xb,%r10d
   180002f9d:	45 33 c2             	xor    %r10d,%r8d
   180002fa0:	44 89 56 a4          	mov    %r10d,-0x5c(%rsi)
   180002fa4:	45 33 c1             	xor    %r9d,%r8d
   180002fa7:	41 81 f0 f7 79 37 9e 	xor    $0x9e3779f7,%r8d
   180002fae:	41 c1 c0 0b          	rol    $0xb,%r8d
   180002fb2:	45 33 d8             	xor    %r8d,%r11d
   180002fb5:	41 33 c8             	xor    %r8d,%ecx
   180002fb8:	44 89 46 a8          	mov    %r8d,-0x58(%rsi)
   180002fbc:	44 33 da             	xor    %edx,%r11d
   180002fbf:	33 ca                	xor    %edx,%ecx
   180002fc1:	81 f1 f6 79 37 9e    	xor    $0x9e3779f6,%ecx
   180002fc7:	c1 c1 0b             	rol    $0xb,%ecx
   180002fca:	33 c1                	xor    %ecx,%eax
   180002fcc:	89 4e ac             	mov    %ecx,-0x54(%rsi)
   180002fcf:	41 33 c2             	xor    %r10d,%eax
   180002fd2:	41 33 c1             	xor    %r9d,%eax
   180002fd5:	35 e9 79 37 9e       	xor    $0x9e3779e9,%eax
   180002fda:	c1 c0 0b             	rol    $0xb,%eax
   180002fdd:	44 33 d8             	xor    %eax,%r11d
   180002fe0:	89 46 b0             	mov    %eax,-0x50(%rsi)
   180002fe3:	41 81 f3 e8 79 37 9e 	xor    $0x9e3779e8,%r11d
   180002fea:	41 c1 c3 0b          	rol    $0xb,%r11d
   180002fee:	44 89 5e b4          	mov    %r11d,-0x4c(%rsi)
   180002ff2:	8b 56 98             	mov    -0x68(%rsi),%edx
   180002ff5:	89 54 24 40          	mov    %edx,0x40(%rsp)
   180002ff9:	33 d1                	xor    %ecx,%edx
   180002ffb:	44 8b 4e 9c          	mov    -0x64(%rsi),%r9d
   180002fff:	8b 5e a4             	mov    -0x5c(%rsi),%ebx
   180003002:	41 33 d2             	xor    %r10d,%edx
   180003005:	44 8b 56 a8          	mov    -0x58(%rsi),%r10d
   180003009:	44 89 4c 24 38       	mov    %r9d,0x38(%rsp)
   18000300e:	45 33 c8             	xor    %r8d,%r9d
   180003011:	44 8b 46 a0          	mov    -0x60(%rsi),%r8d
   180003015:	41 33 d3             	xor    %r11d,%edx
   180003018:	89 5c 24 30          	mov    %ebx,0x30(%rsp)
   18000301c:	44 89 44 24 28       	mov    %r8d,0x28(%rsp)
   180003021:	44 33 c1             	xor    %ecx,%r8d
   180003024:	8b 4e ac             	mov    -0x54(%rsi),%ecx
   180003027:	81 f2 eb 79 37 9e    	xor    $0x9e3779eb,%edx
   18000302d:	c1 c2 0b             	rol    $0xb,%edx
   180003030:	44 33 ca             	xor    %edx,%r9d
   180003033:	89 56 b8             	mov    %edx,-0x48(%rsi)
   180003036:	44 33 c8             	xor    %eax,%r9d
   180003039:	41 81 f1 ea 79 37 9e 	xor    $0x9e3779ea,%r9d
   180003040:	41 c1 c1 0b          	rol    $0xb,%r9d
   180003044:	45 33 d1             	xor    %r9d,%r10d
   180003047:	45 33 c1             	xor    %r9d,%r8d
   18000304a:	44 89 4e bc          	mov    %r9d,-0x44(%rsi)
   18000304e:	45 33 d3             	xor    %r11d,%r10d
   180003051:	45 33 c3             	xor    %r11d,%r8d
   180003054:	41 81 f0 ed 79 37 9e 	xor    $0x9e3779ed,%r8d
   18000305b:	41 c1 c0 0b          	rol    $0xb,%r8d
   18000305f:	41 33 c8             	xor    %r8d,%ecx
   180003062:	41 33 d8             	xor    %r8d,%ebx
   180003065:	44 89 46 c0          	mov    %r8d,-0x40(%rsi)
   180003069:	33 ca                	xor    %edx,%ecx
   18000306b:	33 da                	xor    %edx,%ebx
   18000306d:	8b 56 b0             	mov    -0x50(%rsi),%edx
   180003070:	33 d8                	xor    %eax,%ebx
   180003072:	8b 46 b4             	mov    -0x4c(%rsi),%eax
   180003075:	89 54 24 20          	mov    %edx,0x20(%rsp)
   180003079:	41 33 c0             	xor    %r8d,%eax
   18000307c:	44 8b 46 b8          	mov    -0x48(%rsi),%r8d
   180003080:	41 33 d1             	xor    %r9d,%edx
   180003083:	81 f3 ec 79 37 9e    	xor    $0x9e3779ec,%ebx
   180003089:	c1 c3 0b             	rol    $0xb,%ebx
   18000308c:	44 33 d3             	xor    %ebx,%r10d
   18000308f:	89 5e c4             	mov    %ebx,-0x3c(%rsi)
   180003092:	89 5c 24 08          	mov    %ebx,0x8(%rsp)
   180003096:	41 81 f2 ef 79 37 9e 	xor    $0x9e3779ef,%r10d
   18000309d:	41 c1 c2 0b          	rol    $0xb,%r10d
   1800030a1:	41 33 ca             	xor    %r10d,%ecx
   1800030a4:	44 89 56 c8          	mov    %r10d,-0x38(%rsi)
   1800030a8:	81 f1 ee 79 37 9e    	xor    $0x9e3779ee,%ecx
   1800030ae:	c1 c1 0b             	rol    $0xb,%ecx
   1800030b1:	33 d1                	xor    %ecx,%edx
   1800030b3:	89 4e cc             	mov    %ecx,-0x34(%rsi)
   1800030b6:	33 d3                	xor    %ebx,%edx
   1800030b8:	81 f2 e1 79 37 9e    	xor    $0x9e3779e1,%edx
   1800030be:	c1 c2 0b             	rol    $0xb,%edx
   1800030c1:	44 33 ca             	xor    %edx,%r9d
   1800030c4:	33 c2                	xor    %edx,%eax
   1800030c6:	89 56 d0             	mov    %edx,-0x30(%rsi)
   1800030c9:	45 33 ca             	xor    %r10d,%r9d
   1800030cc:	41 33 c2             	xor    %r10d,%eax
   1800030cf:	44 8b 56 c0          	mov    -0x40(%rsi),%r10d
   1800030d3:	35 e0 79 37 9e       	xor    $0x9e3779e0,%eax
   1800030d8:	c1 c0 0b             	rol    $0xb,%eax
   1800030db:	44 33 c0             	xor    %eax,%r8d
   1800030de:	44 33 d0             	xor    %eax,%r10d
   1800030e1:	89 46 d4             	mov    %eax,-0x2c(%rsi)
   1800030e4:	44 33 c1             	xor    %ecx,%r8d
   1800030e7:	44 33 d1             	xor    %ecx,%r10d
   1800030ea:	8b cb                	mov    %ebx,%ecx
   1800030ec:	44 33 c3             	xor    %ebx,%r8d
   1800030ef:	41 81 f0 e3 79 37 9e 	xor    $0x9e3779e3,%r8d
   1800030f6:	41 c1 c0 0b          	rol    $0xb,%r8d
   1800030fa:	45 33 c8             	xor    %r8d,%r9d
   1800030fd:	44 89 46 d8          	mov    %r8d,-0x28(%rsi)
   180003101:	41 81 f1 e2 79 37 9e 	xor    $0x9e3779e2,%r9d
   180003108:	41 c1 c1 0b          	rol    $0xb,%r9d
   18000310c:	45 33 d1             	xor    %r9d,%r10d
   18000310f:	44 89 4e dc          	mov    %r9d,-0x24(%rsi)
   180003113:	41 81 f2 e5 79 37 9e 	xor    $0x9e3779e5,%r10d
   18000311a:	41 c1 c2 0b          	rol    $0xb,%r10d
   18000311e:	33 ca                	xor    %edx,%ecx
   180003120:	44 89 56 e0          	mov    %r10d,-0x20(%rsi)
   180003124:	8b 56 c8             	mov    -0x38(%rsi),%edx
   180003127:	8b 5e cc             	mov    -0x34(%rsi),%ebx
   18000312a:	41 33 ca             	xor    %r10d,%ecx
   18000312d:	41 33 c8             	xor    %r8d,%ecx
   180003130:	89 54 24 18          	mov    %edx,0x18(%rsp)
   180003134:	33 d0                	xor    %eax,%edx
   180003136:	8b 46 d0             	mov    -0x30(%rsi),%eax
   180003139:	81 f1 e4 79 37 9e    	xor    $0x9e3779e4,%ecx
   18000313f:	45 8b da             	mov    %r10d,%r11d
   180003142:	c1 c1 0b             	rol    $0xb,%ecx
   180003145:	89 44 24 24          	mov    %eax,0x24(%rsp)
   180003149:	89 5c 24 10          	mov    %ebx,0x10(%rsp)
   18000314d:	33 d1                	xor    %ecx,%edx
   18000314f:	89 4e e4             	mov    %ecx,-0x1c(%rsi)
   180003152:	44 89 54 24 14       	mov    %r10d,0x14(%rsp)
   180003157:	41 33 d1             	xor    %r9d,%edx
   18000315a:	81 f2 e7 79 37 9e    	xor    $0x9e3779e7,%edx
   180003160:	c1 c2 0b             	rol    $0xb,%edx
   180003163:	33 da                	xor    %edx,%ebx
   180003165:	89 56 e8             	mov    %edx,-0x18(%rsi)
   180003168:	89 54 24 3c          	mov    %edx,0x3c(%rsp)
   18000316c:	41 33 da             	xor    %r10d,%ebx
   18000316f:	41 33 d8             	xor    %r8d,%ebx
   180003172:	44 8b c1             	mov    %ecx,%r8d
   180003175:	44 33 c0             	xor    %eax,%r8d
   180003178:	8b 46 d8             	mov    -0x28(%rsi),%eax
   18000317b:	81 f3 e6 79 37 9e    	xor    $0x9e3779e6,%ebx
   180003181:	45 33 c1             	xor    %r9d,%r8d
   180003184:	44 8b 4e d4          	mov    -0x2c(%rsi),%r9d
   180003188:	89 04 24             	mov    %eax,(%rsp)
   18000318b:	33 c1                	xor    %ecx,%eax
   18000318d:	8b 4e dc             	mov    -0x24(%rsi),%ecx
   180003190:	c1 c3 0b             	rol    $0xb,%ebx
   180003193:	44 33 c3             	xor    %ebx,%r8d
   180003196:	33 ca                	xor    %edx,%ecx
   180003198:	44 89 4c 24 34       	mov    %r9d,0x34(%rsp)
   18000319d:	44 33 ca             	xor    %edx,%r9d
   1800031a0:	41 81 f0 d9 79 37 9e 	xor    $0x9e3779d9,%r8d
   1800031a7:	89 5e ec             	mov    %ebx,-0x14(%rsi)
   1800031aa:	41 c1 c0 0b          	rol    $0xb,%r8d
   1800031ae:	45 33 ca             	xor    %r10d,%r9d
   1800031b1:	44 8b 56 e4          	mov    -0x1c(%rsi),%r10d
   1800031b5:	45 33 c8             	xor    %r8d,%r9d
   1800031b8:	44 89 46 f0          	mov    %r8d,-0x10(%rsi)
   1800031bc:	44 89 54 24 1c       	mov    %r10d,0x1c(%rsp)
   1800031c1:	41 81 f1 d8 79 37 9e 	xor    $0x9e3779d8,%r9d
   1800031c8:	41 c1 c1 0b          	rol    $0xb,%r9d
   1800031cc:	41 33 c1             	xor    %r9d,%eax
   1800031cf:	44 89 4e f4          	mov    %r9d,-0xc(%rsi)
   1800031d3:	33 c3                	xor    %ebx,%eax
   1800031d5:	35 db 79 37 9e       	xor    $0x9e3779db,%eax
   1800031da:	c1 c0 0b             	rol    $0xb,%eax
   1800031dd:	44 33 d0             	xor    %eax,%r10d
   1800031e0:	33 c8                	xor    %eax,%ecx
   1800031e2:	89 46 f8             	mov    %eax,-0x8(%rsi)
   1800031e5:	45 33 d0             	xor    %r8d,%r10d
   1800031e8:	41 33 c8             	xor    %r8d,%ecx
   1800031eb:	44 8b c2             	mov    %edx,%r8d
   1800031ee:	81 f1 da 79 37 9e    	xor    $0x9e3779da,%ecx
   1800031f4:	8b d3                	mov    %ebx,%edx
   1800031f6:	33 d0                	xor    %eax,%edx
   1800031f8:	c1 c1 0b             	rol    $0xb,%ecx
   1800031fb:	44 33 d9             	xor    %ecx,%r11d
   1800031fe:	44 33 c1             	xor    %ecx,%r8d
   180003201:	89 4e fc             	mov    %ecx,-0x4(%rsi)
   180003204:	45 33 d9             	xor    %r9d,%r11d
   180003207:	45 33 c1             	xor    %r9d,%r8d
   18000320a:	44 33 db             	xor    %ebx,%r11d
   18000320d:	41 81 f3 dd 79 37 9e 	xor    $0x9e3779dd,%r11d
   180003214:	41 c1 c3 0b          	rol    $0xb,%r11d
   180003218:	45 33 d3             	xor    %r11d,%r10d
   18000321b:	44 89 1e             	mov    %r11d,(%rsi)
   18000321e:	41 81 f2 dc 79 37 9e 	xor    $0x9e3779dc,%r10d
   180003225:	41 c1 c2 0b          	rol    $0xb,%r10d
   180003229:	45 33 c2             	xor    %r10d,%r8d
   18000322c:	44 89 56 04          	mov    %r10d,0x4(%rsi)
   180003230:	41 81 f0 df 79 37 9e 	xor    $0x9e3779df,%r8d
   180003237:	41 c1 c0 0b          	rol    $0xb,%r8d
   18000323b:	41 33 d0             	xor    %r8d,%edx
   18000323e:	44 89 46 08          	mov    %r8d,0x8(%rsi)
   180003242:	41 33 d3             	xor    %r11d,%edx
   180003245:	8b 46 f0             	mov    -0x10(%rsi),%eax
   180003248:	41 8b d9             	mov    %r9d,%ebx
   18000324b:	44 8b 4e f8          	mov    -0x8(%rsi),%r9d
   18000324f:	89 44 24 2c          	mov    %eax,0x2c(%rsp)
   180003253:	33 c1                	xor    %ecx,%eax
   180003255:	81 f2 de 79 37 9e    	xor    $0x9e3779de,%edx
   18000325b:	c1 c2 0b             	rol    $0xb,%edx
   18000325e:	89 5c 24 0c          	mov    %ebx,0xc(%rsp)
   180003262:	44 33 ca             	xor    %edx,%r9d
   180003265:	33 c2                	xor    %edx,%eax
   180003267:	89 56 0c             	mov    %edx,0xc(%rsi)
   18000326a:	45 33 ca             	xor    %r10d,%r9d
   18000326d:	41 33 c2             	xor    %r10d,%eax
   180003270:	44 8b d1             	mov    %ecx,%r10d
   180003273:	35 d1 79 37 9e       	xor    $0x9e3779d1,%eax
   180003278:	41 8b cb             	mov    %r11d,%ecx
   18000327b:	33 ca                	xor    %edx,%ecx
   18000327d:	8b 56 04             	mov    0x4(%rsi),%edx
   180003280:	89 54 24 44          	mov    %edx,0x44(%rsp)
   180003284:	c1 c0 0b             	rol    $0xb,%eax
   180003287:	33 d8                	xor    %eax,%ebx
   180003289:	44 33 d0             	xor    %eax,%r10d
   18000328c:	33 d0                	xor    %eax,%edx
   18000328e:	41 33 d8             	xor    %r8d,%ebx
   180003291:	45 33 d0             	xor    %r8d,%r10d
   180003294:	89 46 10             	mov    %eax,0x10(%rsi)
   180003297:	41 33 db             	xor    %r11d,%ebx
   18000329a:	45 8b d8             	mov    %r8d,%r11d
   18000329d:	44 8b 46 0c          	mov    0xc(%rsi),%r8d
   1800032a1:	81 f3 d0 79 37 9e    	xor    $0x9e3779d0,%ebx
   1800032a7:	c1 c3 0b             	rol    $0xb,%ebx
   1800032aa:	44 33 cb             	xor    %ebx,%r9d
   1800032ad:	89 5e 14             	mov    %ebx,0x14(%rsi)
   1800032b0:	41 81 f1 d3 79 37 9e 	xor    $0x9e3779d3,%r9d
   1800032b7:	41 c1 c1 0b          	rol    $0xb,%r9d
   1800032bb:	45 33 d1             	xor    %r9d,%r10d
   1800032be:	44 89 4e 18          	mov    %r9d,0x18(%rsi)
   1800032c2:	41 81 f2 d2 79 37 9e 	xor    $0x9e3779d2,%r10d
   1800032c9:	41 c1 c2 0b          	rol    $0xb,%r10d
   1800032cd:	41 33 ca             	xor    %r10d,%ecx
   1800032d0:	44 89 56 1c          	mov    %r10d,0x1c(%rsi)
   1800032d4:	33 cb                	xor    %ebx,%ecx
   1800032d6:	81 f1 d5 79 37 9e    	xor    $0x9e3779d5,%ecx
   1800032dc:	c1 c1 0b             	rol    $0xb,%ecx
   1800032df:	44 33 c1             	xor    %ecx,%r8d
   1800032e2:	33 d1                	xor    %ecx,%edx
   1800032e4:	89 4e 20             	mov    %ecx,0x20(%rsi)
   1800032e7:	45 33 c1             	xor    %r9d,%r8d
   1800032ea:	41 33 d1             	xor    %r9d,%edx
   1800032ed:	44 8b c8             	mov    %eax,%r9d
   1800032f0:	81 f2 d4 79 37 9e    	xor    $0x9e3779d4,%edx
   1800032f6:	8b c3                	mov    %ebx,%eax
   1800032f8:	33 c1                	xor    %ecx,%eax
   1800032fa:	8b 4e 18             	mov    0x18(%rsi),%ecx
   1800032fd:	c1 c2 0b             	rol    $0xb,%edx
   180003300:	44 33 da             	xor    %edx,%r11d
   180003303:	44 33 ca             	xor    %edx,%r9d
   180003306:	89 4c 24 04          	mov    %ecx,0x4(%rsp)
   18000330a:	45 33 da             	xor    %r10d,%r11d
   18000330d:	45 33 ca             	xor    %r10d,%r9d
   180003310:	33 ca                	xor    %edx,%ecx
   180003312:	44 33 db             	xor    %ebx,%r11d
   180003315:	89 56 24             	mov    %edx,0x24(%rsi)
   180003318:	41 81 f3 d7 79 37 9e 	xor    $0x9e3779d7,%r11d
   18000331f:	41 c1 c3 0b          	rol    $0xb,%r11d
   180003323:	45 33 c3             	xor    %r11d,%r8d
   180003326:	44 89 5e 28          	mov    %r11d,0x28(%rsi)
   18000332a:	41 81 f0 d6 79 37 9e 	xor    $0x9e3779d6,%r8d
   180003331:	41 c1 c0 0b          	rol    $0xb,%r8d
   180003335:	45 33 c8             	xor    %r8d,%r9d
   180003338:	44 89 46 2c          	mov    %r8d,0x2c(%rsi)
   18000333c:	41 81 f1 c9 79 37 9e 	xor    $0x9e3779c9,%r9d
   180003343:	41 c1 c1 0b          	rol    $0xb,%r9d
   180003347:	41 33 c1             	xor    %r9d,%eax
   18000334a:	44 89 4e 30          	mov    %r9d,0x30(%rsi)
   18000334e:	41 33 c3             	xor    %r11d,%eax
   180003351:	35 c8 79 37 9e       	xor    $0x9e3779c8,%eax
   180003356:	c1 c0 0b             	rol    $0xb,%eax
   180003359:	33 c8                	xor    %eax,%ecx
   18000335b:	89 46 34             	mov    %eax,0x34(%rsi)
   18000335e:	41 33 c8             	xor    %r8d,%ecx
   180003361:	41 8b da             	mov    %r10d,%ebx
   180003364:	44 8b 56 20          	mov    0x20(%rsi),%r10d
   180003368:	89 94 24 a8 00 00 00 	mov    %edx,0xa8(%rsp)
   18000336f:	44 89 94 24 a0 00 00 	mov    %r10d,0xa0(%rsp)
   180003376:	00 
   180003377:	44 33 d0             	xor    %eax,%r10d
   18000337a:	81 f1 cb 79 37 9e    	xor    $0x9e3779cb,%ecx
   180003380:	45 33 d0             	xor    %r8d,%r10d
   180003383:	44 8b c2             	mov    %edx,%r8d
   180003386:	c1 c1 0b             	rol    $0xb,%ecx
   180003389:	44 33 c1             	xor    %ecx,%r8d
   18000338c:	33 d9                	xor    %ecx,%ebx
   18000338e:	89 4e 38             	mov    %ecx,0x38(%rsi)
   180003391:	45 33 c1             	xor    %r9d,%r8d
   180003394:	41 33 d9             	xor    %r9d,%ebx
   180003397:	41 8b d3             	mov    %r11d,%edx
   18000339a:	33 d0                	xor    %eax,%edx
   18000339c:	8b 46 2c             	mov    0x2c(%rsi),%eax
   18000339f:	41 33 db             	xor    %r11d,%ebx
   1800033a2:	33 c1                	xor    %ecx,%eax
   1800033a4:	41 8b c9             	mov    %r9d,%ecx
   1800033a7:	44 8b 4e 34          	mov    0x34(%rsi),%r9d
   1800033ab:	89 8c 24 98 00 00 00 	mov    %ecx,0x98(%rsp)
   1800033b2:	81 f3 ca 79 37 9e    	xor    $0x9e3779ca,%ebx
   1800033b8:	c1 c3 0b             	rol    $0xb,%ebx
   1800033bb:	44 33 d3             	xor    %ebx,%r10d
   1800033be:	89 5e 3c             	mov    %ebx,0x3c(%rsi)
   1800033c1:	41 81 f2 cd 79 37 9e 	xor    $0x9e3779cd,%r10d
   1800033c8:	41 c1 c2 0b          	rol    $0xb,%r10d
   1800033cc:	45 33 c2             	xor    %r10d,%r8d
   1800033cf:	44 89 56 40          	mov    %r10d,0x40(%rsi)
   1800033d3:	44 8b 6e 40          	mov    0x40(%rsi),%r13d
   1800033d7:	41 81 f0 cc 79 37 9e 	xor    $0x9e3779cc,%r8d
   1800033de:	41 c1 c0 0b          	rol    $0xb,%r8d
   1800033e2:	41 33 d0             	xor    %r8d,%edx
   1800033e5:	44 89 46 44          	mov    %r8d,0x44(%rsi)
   1800033e9:	44 8b 66 44          	mov    0x44(%rsi),%r12d
   1800033ed:	33 d3                	xor    %ebx,%edx
   1800033ef:	45 8b dc             	mov    %r12d,%r11d
   1800033f2:	81 f2 cf 79 37 9e    	xor    $0x9e3779cf,%edx
   1800033f8:	c1 c2 0b             	rol    $0xb,%edx
   1800033fb:	44 33 ca             	xor    %edx,%r9d
   1800033fe:	33 c2                	xor    %edx,%eax
   180003400:	89 56 48             	mov    %edx,0x48(%rsi)
   180003403:	45 33 ca             	xor    %r10d,%r9d
   180003406:	41 33 c2             	xor    %r10d,%eax
   180003409:	44 8b 56 38          	mov    0x38(%rsi),%r10d
   18000340d:	35 ce 79 37 9e       	xor    $0x9e3779ce,%eax
   180003412:	c1 c0 0b             	rol    $0xb,%eax
   180003415:	33 c8                	xor    %eax,%ecx
   180003417:	44 33 d0             	xor    %eax,%r10d
   18000341a:	89 46 4c             	mov    %eax,0x4c(%rsi)
   18000341d:	41 33 c8             	xor    %r8d,%ecx
   180003420:	45 33 d0             	xor    %r8d,%r10d
   180003423:	44 8b c3             	mov    %ebx,%r8d
   180003426:	44 33 c2             	xor    %edx,%r8d
   180003429:	33 cb                	xor    %ebx,%ecx
   18000342b:	41 8b d5             	mov    %r13d,%edx
   18000342e:	33 d0                	xor    %eax,%edx
   180003430:	81 f1 c1 79 37 9e    	xor    $0x9e3779c1,%ecx
   180003436:	c1 c1 0b             	rol    $0xb,%ecx
   180003439:	44 33 c9             	xor    %ecx,%r9d
   18000343c:	89 4e 50             	mov    %ecx,0x50(%rsi)
   18000343f:	41 81 f1 c0 79 37 9e 	xor    $0x9e3779c0,%r9d
   180003446:	41 c1 c1 0b          	rol    $0xb,%r9d
   18000344a:	45 33 d1             	xor    %r9d,%r10d
   18000344d:	44 89 4e 54          	mov    %r9d,0x54(%rsi)
   180003451:	41 81 f2 c3 79 37 9e 	xor    $0x9e3779c3,%r10d
   180003458:	41 c1 c2 0b          	rol    $0xb,%r10d
   18000345c:	45 33 c2             	xor    %r10d,%r8d
   18000345f:	44 89 56 58          	mov    %r10d,0x58(%rsi)
   180003463:	44 33 c1             	xor    %ecx,%r8d
   180003466:	41 81 f0 c2 79 37 9e 	xor    $0x9e3779c2,%r8d
   18000346d:	41 c1 c0 0b          	rol    $0xb,%r8d
   180003471:	41 33 d0             	xor    %r8d,%edx
   180003474:	44 89 46 5c          	mov    %r8d,0x5c(%rsi)
   180003478:	41 33 d1             	xor    %r9d,%edx
   18000347b:	81 f2 c5 79 37 9e    	xor    $0x9e3779c5,%edx
   180003481:	c1 c2 0b             	rol    $0xb,%edx
   180003484:	44 33 da             	xor    %edx,%r11d
   180003487:	89 56 60             	mov    %edx,0x60(%rsi)
   18000348a:	45 33 da             	xor    %r10d,%r11d
   18000348d:	44 8b 7e 48          	mov    0x48(%rsi),%r15d
   180003491:	8b 6e 50             	mov    0x50(%rsi),%ebp
   180003494:	44 33 d9             	xor    %ecx,%r11d
   180003497:	44 8b f0             	mov    %eax,%r14d
   18000349a:	33 c2                	xor    %edx,%eax
   18000349c:	41 81 f3 c4 79 37 9e 	xor    $0x9e3779c4,%r11d
   1800034a3:	41 33 c2             	xor    %r10d,%eax
   1800034a6:	45 8b d1             	mov    %r9d,%r10d
   1800034a9:	41 c1 c3 0b          	rol    $0xb,%r11d
   1800034ad:	44 33 d2             	xor    %edx,%r10d
   1800034b0:	48 8b 54 24 48       	mov    0x48(%rsp),%rdx
   1800034b5:	44 89 5e 64          	mov    %r11d,0x64(%rsi)
   1800034b9:	8b 7a 58             	mov    0x58(%rdx),%edi
   1800034bc:	8b dd                	mov    %ebp,%ebx
   1800034be:	41 8b cf             	mov    %r15d,%ecx
   1800034c1:	41 33 d8             	xor    %r8d,%ebx
   1800034c4:	41 33 c8             	xor    %r8d,%ecx
   1800034c7:	41 33 c9             	xor    %r9d,%ecx
   1800034ca:	41 33 cb             	xor    %r11d,%ecx
   1800034cd:	81 f1 c7 79 37 9e    	xor    $0x9e3779c7,%ecx
   1800034d3:	c1 c1 0b             	rol    $0xb,%ecx
   1800034d6:	33 c1                	xor    %ecx,%eax
   1800034d8:	89 4e 68             	mov    %ecx,0x68(%rsi)
   1800034db:	35 c6 79 37 9e       	xor    $0x9e3779c6,%eax
   1800034e0:	c1 c0 0b             	rol    $0xb,%eax
   1800034e3:	33 d8                	xor    %eax,%ebx
   1800034e5:	89 46 6c             	mov    %eax,0x6c(%rsi)
   1800034e8:	41 8b f1             	mov    %r9d,%esi
   1800034eb:	41 33 db             	xor    %r11d,%ebx
   1800034ee:	44 8b cf             	mov    %edi,%r9d
   1800034f1:	81 f3 39 79 37 9e    	xor    $0x9e377939,%ebx
   1800034f7:	c1 c3 0b             	rol    $0xb,%ebx
   1800034fa:	44 33 d3             	xor    %ebx,%r10d
   1800034fd:	44 33 d1             	xor    %ecx,%r10d
   180003500:	41 81 f2 38 79 37 9e 	xor    $0x9e377938,%r10d
   180003507:	41 c1 c2 0b          	rol    $0xb,%r10d
   18000350b:	45 33 ca             	xor    %r10d,%r9d
   18000350e:	44 33 c8             	xor    %eax,%r9d
   180003511:	45 33 cb             	xor    %r11d,%r9d
   180003514:	44 8b 5a 5c          	mov    0x5c(%rdx),%r11d
   180003518:	41 8b d2             	mov    %r10d,%edx
   18000351b:	23 d3                	and    %ebx,%edx
   18000351d:	41 81 f1 3b 79 37 9e 	xor    $0x9e37793b,%r9d
   180003524:	45 8b c3             	mov    %r11d,%r8d
   180003527:	44 33 c3             	xor    %ebx,%r8d
   18000352a:	44 33 c1             	xor    %ecx,%r8d
   18000352d:	41 c1 c1 0b          	rol    $0xb,%r9d
   180003531:	45 33 c1             	xor    %r9d,%r8d
   180003534:	41 81 f0 3a 79 37 9e 	xor    $0x9e37793a,%r8d
   18000353b:	41 c1 c0 0b          	rol    $0xb,%r8d
   18000353f:	45 33 d0             	xor    %r8d,%r10d
   180003542:	44 0b c3             	or     %ebx,%r8d
   180003545:	41 33 d9             	xor    %r9d,%ebx
   180003548:	0b da                	or     %edx,%ebx
   18000354a:	41 33 d0             	xor    %r8d,%edx
   18000354d:	41 8b c2             	mov    %r10d,%eax
   180003550:	41 33 c0             	xor    %r8d,%eax
   180003553:	45 23 d0             	and    %r8d,%r10d
   180003556:	8b ca                	mov    %edx,%ecx
   180003558:	44 33 c8             	xor    %eax,%r9d
   18000355b:	44 33 d3             	xor    %ebx,%r10d
   18000355e:	41 23 c8             	and    %r8d,%ecx
   180003561:	41 23 d8             	and    %r8d,%ebx
   180003564:	4c 8b 44 24 48       	mov    0x48(%rsp),%r8
   180003569:	41 33 c9             	xor    %r9d,%ecx
   18000356c:	41 8b c2             	mov    %r10d,%eax
   18000356f:	45 89 50 78          	mov    %r10d,0x78(%r8)
   180003573:	41 23 c1             	and    %r9d,%eax
   180003576:	33 c1                	xor    %ecx,%eax
   180003578:	41 89 40 70          	mov    %eax,0x70(%r8)
   18000357c:	41 8b c2             	mov    %r10d,%eax
   18000357f:	0b c2                	or     %edx,%eax
   180003581:	33 c1                	xor    %ecx,%eax
   180003583:	33 d9                	xor    %ecx,%ebx
   180003585:	41 89 58 7c          	mov    %ebx,0x7c(%r8)
   180003589:	49 8b d8             	mov    %r8,%rbx
   18000358c:	41 89 40 74          	mov    %eax,0x74(%r8)
   180003590:	44 8b 4b 6c          	mov    0x6c(%rbx),%r9d
   180003594:	44 8b 43 64          	mov    0x64(%rbx),%r8d
   180003598:	44 8b 53 68          	mov    0x68(%rbx),%r10d
   18000359c:	41 8b d1             	mov    %r9d,%edx
   18000359f:	23 53 60             	and    0x60(%rbx),%edx
   1800035a2:	41 8b c8             	mov    %r8d,%ecx
   1800035a5:	45 33 f5             	xor    %r13d,%r14d
   1800035a8:	33 4b 60             	xor    0x60(%rbx),%ecx
   1800035ab:	41 33 d2             	xor    %r10d,%edx
   1800035ae:	45 0b d1             	or     %r9d,%r10d
   1800035b1:	41 33 c9             	xor    %r9d,%ecx
   1800035b4:	44 33 ca             	xor    %edx,%r9d
   1800035b7:	41 f7 d3             	not    %r11d
   1800035ba:	44 0b d1             	or     %ecx,%r10d
   1800035bd:	45 33 d0             	xor    %r8d,%r10d
   1800035c0:	44 23 c1             	and    %ecx,%r8d
   1800035c3:	45 33 c1             	xor    %r9d,%r8d
   1800035c6:	41 8b c0             	mov    %r8d,%eax
   1800035c9:	f7 d0                	not    %eax
   1800035cb:	89 43 60             	mov    %eax,0x60(%rbx)
   1800035ce:	41 8b c2             	mov    %r10d,%eax
   1800035d1:	45 23 d1             	and    %r9d,%r10d
   1800035d4:	44 8b 4b 38          	mov    0x38(%rbx),%r9d
   1800035d8:	33 c2                	xor    %edx,%eax
   1800035da:	41 0b d0             	or     %r8d,%edx
   1800035dd:	44 8b 43 3c          	mov    0x3c(%rbx),%r8d
   1800035e1:	89 43 64             	mov    %eax,0x64(%rbx)
   1800035e4:	8b c6                	mov    %esi,%eax
   1800035e6:	33 c5                	xor    %ebp,%eax
   1800035e8:	0b f5                	or     %ebp,%esi
   1800035ea:	33 d1                	xor    %ecx,%edx
   1800035ec:	33 fe                	xor    %esi,%edi
   1800035ee:	23 f0                	and    %eax,%esi
   1800035f0:	41 0b c3             	or     %r11d,%eax
   1800035f3:	33 ef                	xor    %edi,%ebp
   1800035f5:	44 33 d1             	xor    %ecx,%r10d
   1800035f8:	41 33 f3             	xor    %r11d,%esi
   1800035fb:	33 c5                	xor    %ebp,%eax
   1800035fd:	44 89 53 6c          	mov    %r10d,0x6c(%rbx)
   180003601:	44 8b 94 24 98 00 00 	mov    0x98(%rsp),%r10d
   180003608:	00 
   180003609:	89 43 50             	mov    %eax,0x50(%rbx)
   18000360c:	41 23 eb             	and    %r11d,%ebp
   18000360f:	44 33 df             	xor    %edi,%r11d
   180003612:	23 f8                	and    %eax,%edi
   180003614:	41 8b c4             	mov    %r12d,%eax
   180003617:	45 33 e7             	xor    %r15d,%r12d
   18000361a:	45 33 fd             	xor    %r13d,%r15d
   18000361d:	45 0b e6             	or     %r14d,%r12d
   180003620:	f7 d0                	not    %eax
   180003622:	33 ee                	xor    %esi,%ebp
   180003624:	33 f7                	xor    %edi,%esi
   180003626:	45 23 ee             	and    %r14d,%r13d
   180003629:	44 33 f0             	xor    %eax,%r14d
   18000362c:	45 33 ec             	xor    %r12d,%r13d
   18000362f:	45 33 e7             	xor    %r15d,%r12d
   180003632:	41 33 c4             	xor    %r12d,%eax
   180003635:	89 53 68             	mov    %edx,0x68(%rbx)
   180003638:	45 23 fd             	and    %r13d,%r15d
   18000363b:	41 33 c5             	xor    %r13d,%eax
   18000363e:	45 33 fe             	xor    %r14d,%r15d
   180003641:	41 f7 d2             	not    %r10d
   180003644:	89 43 44             	mov    %eax,0x44(%rbx)
   180003647:	8b 43 34             	mov    0x34(%rbx),%eax
   18000364a:	23 fd                	and    %ebp,%edi
   18000364c:	f7 d0                	not    %eax
   18000364e:	41 33 fb             	xor    %r11d,%edi
   180003651:	44 89 7b 40          	mov    %r15d,0x40(%rbx)
   180003655:	45 33 fc             	xor    %r12d,%r15d
   180003658:	8b d0                	mov    %eax,%edx
   18000365a:	45 23 e6             	and    %r14d,%r12d
   18000365d:	41 23 d1             	and    %r9d,%edx
   180003660:	45 33 e5             	xor    %r13d,%r12d
   180003663:	89 6b 54             	mov    %ebp,0x54(%rbx)
   180003666:	41 33 d0             	xor    %r8d,%edx
   180003669:	44 0b c0             	or     %eax,%r8d
   18000366c:	41 33 c1             	xor    %r9d,%eax
   18000366f:	45 33 c8             	xor    %r8d,%r9d
   180003672:	45 33 c2             	xor    %r10d,%r8d
   180003675:	44 0b d2             	or     %edx,%r10d
   180003678:	45 23 ca             	and    %r10d,%r9d
   18000367b:	89 73 58             	mov    %esi,0x58(%rbx)
   18000367e:	89 7b 5c             	mov    %edi,0x5c(%rbx)
   180003681:	44 33 d0             	xor    %eax,%r10d
   180003684:	44 89 7b 48          	mov    %r15d,0x48(%rbx)
   180003688:	44 89 63 4c          	mov    %r12d,0x4c(%rbx)
   18000368c:	8b ca                	mov    %edx,%ecx
   18000368e:	44 89 53 3c          	mov    %r10d,0x3c(%rbx)
   180003692:	33 c8                	xor    %eax,%ecx
   180003694:	41 8b c2             	mov    %r10d,%eax
   180003697:	41 33 c8             	xor    %r8d,%ecx
   18000369a:	0b c1                	or     %ecx,%eax
   18000369c:	44 33 c9             	xor    %ecx,%r9d
   18000369f:	8b 4b 2c             	mov    0x2c(%rbx),%ecx
   1800036a2:	33 c2                	xor    %edx,%eax
   1800036a4:	44 89 4b 34          	mov    %r9d,0x34(%rbx)
   1800036a8:	44 8b 8c 24 a0 00 00 	mov    0xa0(%rsp),%r9d
   1800036af:	00 
   1800036b0:	89 43 30             	mov    %eax,0x30(%rbx)
   1800036b3:	41 8b c2             	mov    %r10d,%eax
   1800036b6:	44 8b 53 14          	mov    0x14(%rbx),%r10d
   1800036ba:	41 23 c0             	and    %r8d,%eax
   1800036bd:	44 8b 84 24 a8 00 00 	mov    0xa8(%rsp),%r8d
   1800036c4:	00 
   1800036c5:	33 c2                	xor    %edx,%eax
   1800036c7:	8b 53 28             	mov    0x28(%rbx),%edx
   1800036ca:	89 43 38             	mov    %eax,0x38(%rbx)
   1800036cd:	8b c1                	mov    %ecx,%eax
   1800036cf:	41 0b c9             	or     %r9d,%ecx
   1800036d2:	44 33 c8             	xor    %eax,%r9d
   1800036d5:	33 c2                	xor    %edx,%eax
   1800036d7:	41 33 c8             	xor    %r8d,%ecx
   1800036da:	41 33 d1             	xor    %r9d,%edx
   1800036dd:	45 23 c1             	and    %r9d,%r8d
   1800036e0:	44 33 c9             	xor    %ecx,%r9d
   1800036e3:	f7 d0                	not    %eax
   1800036e5:	44 33 c0             	xor    %eax,%r8d
   1800036e8:	41 0b c1             	or     %r9d,%eax
   1800036eb:	44 33 ca             	xor    %edx,%r9d
   1800036ee:	41 23 d0             	and    %r8d,%edx
   1800036f1:	41 f7 d0             	not    %r8d
   1800036f4:	44 89 4b 2c          	mov    %r9d,0x2c(%rbx)
   1800036f8:	44 8b 4b 10          	mov    0x10(%rbx),%r9d
   1800036fc:	33 ca                	xor    %edx,%ecx
   1800036fe:	33 d0                	xor    %eax,%edx
   180003700:	44 33 c2             	xor    %edx,%r8d
   180003703:	89 53 20             	mov    %edx,0x20(%rbx)
   180003706:	8b 53 1c             	mov    0x1c(%rbx),%edx
   180003709:	44 89 43 24          	mov    %r8d,0x24(%rbx)
   18000370d:	44 8b 44 24 04       	mov    0x4(%rsp),%r8d
   180003712:	89 4b 28             	mov    %ecx,0x28(%rbx)
   180003715:	41 8b ca             	mov    %r10d,%ecx
   180003718:	45 33 d1             	xor    %r9d,%r10d
   18000371b:	44 33 ca             	xor    %edx,%r9d
   18000371e:	41 23 ca             	and    %r10d,%ecx
   180003721:	f7 d2                	not    %edx
   180003723:	41 8b c2             	mov    %r10d,%eax
   180003726:	41 33 d0             	xor    %r8d,%edx
   180003729:	41 0b c1             	or     %r9d,%eax
   18000372c:	44 8b 4c 24 44       	mov    0x44(%rsp),%r9d
   180003731:	44 33 0b             	xor    (%rbx),%r9d
   180003734:	33 c2                	xor    %edx,%eax
   180003736:	44 33 d2             	xor    %edx,%r10d
   180003739:	33 d1                	xor    %ecx,%edx
   18000373b:	44 0b d1             	or     %ecx,%r10d
   18000373e:	41 33 c8             	xor    %r8d,%ecx
   180003741:	44 23 c0             	and    %eax,%r8d
   180003744:	89 53 18             	mov    %edx,0x18(%rbx)
   180003747:	8b 13                	mov    (%rbx),%edx
   180003749:	45 33 c2             	xor    %r10d,%r8d
   18000374c:	44 0b d0             	or     %eax,%r10d
   18000374f:	f7 d0                	not    %eax
   180003751:	41 33 c0             	xor    %r8d,%eax
   180003754:	44 33 d1             	xor    %ecx,%r10d
   180003757:	8b 0b                	mov    (%rbx),%ecx
   180003759:	44 89 43 14          	mov    %r8d,0x14(%rbx)
   18000375d:	44 8b 43 08          	mov    0x8(%rbx),%r8d
   180003761:	89 43 1c             	mov    %eax,0x1c(%rbx)
   180003764:	8b 43 0c             	mov    0xc(%rbx),%eax
   180003767:	41 23 d0             	and    %r8d,%edx
   18000376a:	45 33 c1             	xor    %r9d,%r8d
   18000376d:	f7 d0                	not    %eax
   18000376f:	44 89 53 10          	mov    %r10d,0x10(%rbx)
   180003773:	33 d0                	xor    %eax,%edx
   180003775:	0b c8                	or     %eax,%ecx
   180003777:	41 33 c9             	xor    %r9d,%ecx
   18000377a:	44 23 ca             	and    %edx,%r9d
   18000377d:	41 33 d0             	xor    %r8d,%edx
   180003780:	44 23 c1             	and    %ecx,%r8d
   180003783:	44 8b 54 24 2c       	mov    0x2c(%rsp),%r10d
   180003788:	41 8b c1             	mov    %r9d,%eax
   18000378b:	44 0b c9             	or     %ecx,%r9d
   18000378e:	41 0b c0             	or     %r8d,%eax
   180003791:	f7 d2                	not    %edx
   180003793:	31 13                	xor    %edx,(%rbx)
   180003795:	44 33 ca             	xor    %edx,%r9d
   180003798:	89 43 04             	mov    %eax,0x4(%rbx)
   18000379b:	44 89 4b 0c          	mov    %r9d,0xc(%rbx)
   18000379f:	44 8b 4c 24 0c       	mov    0xc(%rsp),%r9d
   1800037a4:	8b c2                	mov    %edx,%eax
   1800037a6:	41 33 c0             	xor    %r8d,%eax
   1800037a9:	45 8b c1             	mov    %r9d,%r8d
   1800037ac:	45 23 c2             	and    %r10d,%r8d
   1800037af:	89 43 08             	mov    %eax,0x8(%rbx)
   1800037b2:	8b 43 fc             	mov    -0x4(%rbx),%eax
   1800037b5:	44 33 c8             	xor    %eax,%r9d
   1800037b8:	41 0b c2             	or     %r10d,%eax
   1800037bb:	44 33 53 f8          	xor    -0x8(%rbx),%r10d
   1800037bf:	45 0b d0             	or     %r8d,%r10d
   1800037c2:	44 33 c0             	xor    %eax,%r8d
   1800037c5:	41 8b d1             	mov    %r9d,%edx
   1800037c8:	33 53 f8             	xor    -0x8(%rbx),%edx
   1800037cb:	44 23 c8             	and    %eax,%r9d
   1800037ce:	41 8b c8             	mov    %r8d,%ecx
   1800037d1:	23 c8                	and    %eax,%ecx
   1800037d3:	33 d0                	xor    %eax,%edx
   1800037d5:	45 33 ca             	xor    %r10d,%r9d
   1800037d8:	44 23 d0             	and    %eax,%r10d
   1800037db:	33 ca                	xor    %edx,%ecx
   1800037dd:	41 8b c1             	mov    %r9d,%eax
   1800037e0:	23 c2                	and    %edx,%eax
   1800037e2:	8b 53 ec             	mov    -0x14(%rbx),%edx
   1800037e5:	44 33 d1             	xor    %ecx,%r10d
   1800037e8:	33 c1                	xor    %ecx,%eax
   1800037ea:	44 89 4b f8          	mov    %r9d,-0x8(%rbx)
   1800037ee:	44 89 53 fc          	mov    %r10d,-0x4(%rbx)
   1800037f2:	44 8b 54 24 14       	mov    0x14(%rsp),%r10d
   1800037f7:	89 43 f0             	mov    %eax,-0x10(%rbx)
   1800037fa:	41 8b c1             	mov    %r9d,%eax
   1800037fd:	44 8b 4c 24 1c       	mov    0x1c(%rsp),%r9d
   180003802:	41 0b c0             	or     %r8d,%eax
   180003805:	44 8b 44 24 3c       	mov    0x3c(%rsp),%r8d
   18000380a:	33 c1                	xor    %ecx,%eax
   18000380c:	8b ca                	mov    %edx,%ecx
   18000380e:	41 23 ca             	and    %r10d,%ecx
   180003811:	89 43 f4             	mov    %eax,-0xc(%rbx)
   180003814:	8b c2                	mov    %edx,%eax
   180003816:	41 33 c8             	xor    %r8d,%ecx
   180003819:	41 33 c1             	xor    %r9d,%eax
   18000381c:	44 0b c2             	or     %edx,%r8d
   18000381f:	44 33 d0             	xor    %eax,%r10d
   180003822:	33 d1                	xor    %ecx,%edx
   180003824:	45 0b c2             	or     %r10d,%r8d
   180003827:	45 33 c1             	xor    %r9d,%r8d
   18000382a:	45 23 ca             	and    %r10d,%r9d
   18000382d:	44 33 ca             	xor    %edx,%r9d
   180003830:	41 8b c1             	mov    %r9d,%eax
   180003833:	f7 d0                	not    %eax
   180003835:	89 43 e0             	mov    %eax,-0x20(%rbx)
   180003838:	41 8b c0             	mov    %r8d,%eax
   18000383b:	44 23 c2             	and    %edx,%r8d
   18000383e:	8b 53 dc             	mov    -0x24(%rbx),%edx
   180003841:	33 c1                	xor    %ecx,%eax
   180003843:	41 0b c9             	or     %r9d,%ecx
   180003846:	44 8b 4c 24 34       	mov    0x34(%rsp),%r9d
   18000384b:	45 33 c2             	xor    %r10d,%r8d
   18000384e:	41 33 ca             	xor    %r10d,%ecx
   180003851:	44 8b 54 24 24       	mov    0x24(%rsp),%r10d
   180003856:	44 89 43 ec          	mov    %r8d,-0x14(%rbx)
   18000385a:	44 8b 04 24          	mov    (%rsp),%r8d
   18000385e:	89 4b e8             	mov    %ecx,-0x18(%rbx)
   180003861:	41 8b c9             	mov    %r9d,%ecx
   180003864:	45 0b ca             	or     %r10d,%r9d
   180003867:	45 33 c1             	xor    %r9d,%r8d
   18000386a:	41 33 ca             	xor    %r10d,%ecx
   18000386d:	f7 d2                	not    %edx
   18000386f:	45 33 d0             	xor    %r8d,%r10d
   180003872:	89 43 e4             	mov    %eax,-0x1c(%rbx)
   180003875:	44 23 c9             	and    %ecx,%r9d
   180003878:	8b c2                	mov    %edx,%eax
   18000387a:	0b c1                	or     %ecx,%eax
   18000387c:	44 33 ca             	xor    %edx,%r9d
   18000387f:	41 33 c2             	xor    %r10d,%eax
   180003882:	44 23 d2             	and    %edx,%r10d
   180003885:	41 33 d0             	xor    %r8d,%edx
   180003888:	44 23 c0             	and    %eax,%r8d
   18000388b:	45 33 d1             	xor    %r9d,%r10d
   18000388e:	89 43 d0             	mov    %eax,-0x30(%rbx)
   180003891:	45 33 c8             	xor    %r8d,%r9d
   180003894:	45 23 c2             	and    %r10d,%r8d
   180003897:	44 89 53 d4          	mov    %r10d,-0x2c(%rbx)
   18000389b:	44 8b 54 24 20       	mov    0x20(%rsp),%r10d
   1800038a0:	44 33 c2             	xor    %edx,%r8d
   1800038a3:	8b 54 24 10          	mov    0x10(%rsp),%edx
   1800038a7:	33 53 c0             	xor    -0x40(%rbx),%edx
   1800038aa:	44 89 4b d8          	mov    %r9d,-0x28(%rbx)
   1800038ae:	44 8b 4c 24 08       	mov    0x8(%rsp),%r9d
   1800038b3:	44 89 43 dc          	mov    %r8d,-0x24(%rbx)
   1800038b7:	44 8b 44 24 18       	mov    0x18(%rsp),%r8d
   1800038bc:	8b c2                	mov    %edx,%eax
   1800038be:	23 43 c0             	and    -0x40(%rbx),%eax
   1800038c1:	41 8b c9             	mov    %r9d,%ecx
   1800038c4:	45 33 c8             	xor    %r8d,%r9d
   1800038c7:	44 33 43 c0          	xor    -0x40(%rbx),%r8d
   1800038cb:	44 0b ca             	or     %edx,%r9d
   1800038ce:	f7 d1                	not    %ecx
   1800038d0:	41 33 c1             	xor    %r9d,%eax
   1800038d3:	33 d1                	xor    %ecx,%edx
   1800038d5:	45 33 c8             	xor    %r8d,%r9d
   1800038d8:	44 23 c0             	and    %eax,%r8d
   1800038db:	41 33 c9             	xor    %r9d,%ecx
   1800038de:	41 f7 d2             	not    %r10d
   1800038e1:	33 c8                	xor    %eax,%ecx
   1800038e3:	44 33 c2             	xor    %edx,%r8d
   1800038e6:	41 23 d1             	and    %r9d,%edx
   1800038e9:	33 d0                	xor    %eax,%edx
   1800038eb:	44 89 43 c0          	mov    %r8d,-0x40(%rbx)
   1800038ef:	45 33 c1             	xor    %r9d,%r8d
   1800038f2:	44 8b 4b b4          	mov    -0x4c(%rbx),%r9d
   1800038f6:	89 4b c4             	mov    %ecx,-0x3c(%rbx)
   1800038f9:	89 53 cc             	mov    %edx,-0x34(%rbx)
   1800038fc:	8b 53 bc             	mov    -0x44(%rbx),%edx
   1800038ff:	41 f7 d1             	not    %r9d
   180003902:	44 89 43 c8          	mov    %r8d,-0x38(%rbx)
   180003906:	44 8b 43 b8          	mov    -0x48(%rbx),%r8d
   18000390a:	41 8b c9             	mov    %r9d,%ecx
   18000390d:	41 23 c8             	and    %r8d,%ecx
   180003910:	33 ca                	xor    %edx,%ecx
   180003912:	41 0b d1             	or     %r9d,%edx
   180003915:	45 33 c8             	xor    %r8d,%r9d
   180003918:	44 33 c2             	xor    %edx,%r8d
   18000391b:	41 33 d2             	xor    %r10d,%edx
   18000391e:	44 0b d1             	or     %ecx,%r10d
   180003921:	8b c2                	mov    %edx,%eax
   180003923:	45 23 c2             	and    %r10d,%r8d
   180003926:	45 33 d1             	xor    %r9d,%r10d
   180003929:	33 c1                	xor    %ecx,%eax
   18000392b:	44 89 53 bc          	mov    %r10d,-0x44(%rbx)
   18000392f:	44 33 c8             	xor    %eax,%r9d
   180003932:	41 8b c2             	mov    %r10d,%eax
   180003935:	41 0b c1             	or     %r9d,%eax
   180003938:	45 33 c1             	xor    %r9d,%r8d
   18000393b:	44 8b 4c 24 28       	mov    0x28(%rsp),%r9d
   180003940:	33 c1                	xor    %ecx,%eax
   180003942:	44 89 43 b4          	mov    %r8d,-0x4c(%rbx)
   180003946:	44 8b 43 a8          	mov    -0x58(%rbx),%r8d
   18000394a:	89 43 b0             	mov    %eax,-0x50(%rbx)
   18000394d:	41 8b c2             	mov    %r10d,%eax
   180003950:	23 c2                	and    %edx,%eax
   180003952:	8b 53 ac             	mov    -0x54(%rbx),%edx
   180003955:	33 c1                	xor    %ecx,%eax
   180003957:	41 8b c8             	mov    %r8d,%ecx
   18000395a:	89 43 b8             	mov    %eax,-0x48(%rbx)
   18000395d:	8b c2                	mov    %edx,%eax
   18000395f:	41 0b d1             	or     %r9d,%edx
   180003962:	33 c8                	xor    %eax,%ecx
   180003964:	44 33 c8             	xor    %eax,%r9d
   180003967:	8b 44 24 30          	mov    0x30(%rsp),%eax
   18000396b:	33 d0                	xor    %eax,%edx
   18000396d:	41 23 c1             	and    %r9d,%eax
   180003970:	f7 d1                	not    %ecx
   180003972:	44 8b 54 24 40       	mov    0x40(%rsp),%r10d
   180003977:	45 33 c1             	xor    %r9d,%r8d
   18000397a:	33 c1                	xor    %ecx,%eax
   18000397c:	44 33 ca             	xor    %edx,%r9d
   18000397f:	bf c8 00 00 00       	mov    $0xc8,%edi
   180003984:	41 0b c9             	or     %r9d,%ecx
   180003987:	45 33 c8             	xor    %r8d,%r9d
   18000398a:	44 23 c0             	and    %eax,%r8d
   18000398d:	44 89 4b ac          	mov    %r9d,-0x54(%rbx)
   180003991:	44 8b 4c 24 38       	mov    0x38(%rsp),%r9d
   180003996:	41 33 d0             	xor    %r8d,%edx
   180003999:	44 33 c1             	xor    %ecx,%r8d
   18000399c:	89 53 a8             	mov    %edx,-0x58(%rbx)
   18000399f:	8b 53 94             	mov    -0x6c(%rbx),%edx
   1800039a2:	44 89 43 a0          	mov    %r8d,-0x60(%rbx)
   1800039a6:	f7 d0                	not    %eax
   1800039a8:	8b ca                	mov    %edx,%ecx
   1800039aa:	41 33 c0             	xor    %r8d,%eax
   1800039ad:	44 8b 43 90          	mov    -0x70(%rbx),%r8d
   1800039b1:	89 43 a4             	mov    %eax,-0x5c(%rbx)
   1800039b4:	41 33 d0             	xor    %r8d,%edx
   1800039b7:	45 33 c1             	xor    %r9d,%r8d
   1800039ba:	48 2b df             	sub    %rdi,%rbx
   1800039bd:	23 ca                	and    %edx,%ecx
   1800039bf:	44 0b c2             	or     %edx,%r8d
   1800039c2:	41 f7 d1             	not    %r9d
   1800039c5:	45 33 ca             	xor    %r10d,%r9d
   1800039c8:	45 33 c1             	xor    %r9d,%r8d
   1800039cb:	41 33 d1             	xor    %r9d,%edx
   1800039ce:	44 33 c9             	xor    %ecx,%r9d
   1800039d1:	0b d1                	or     %ecx,%edx
   1800039d3:	41 33 ca             	xor    %r10d,%ecx
   1800039d6:	45 23 d0             	and    %r8d,%r10d
   1800039d9:	44 33 d2             	xor    %edx,%r10d
   1800039dc:	41 8b c0             	mov    %r8d,%eax
   1800039df:	44 89 4b 60          	mov    %r9d,0x60(%rbx)
   1800039e3:	44 8b 4b 4c          	mov    0x4c(%rbx),%r9d
   1800039e7:	0b c2                	or     %edx,%eax
   1800039e9:	8b 53 48             	mov    0x48(%rbx),%edx
   1800039ec:	33 c1                	xor    %ecx,%eax
   1800039ee:	44 33 ca             	xor    %edx,%r9d
   1800039f1:	41 f7 d0             	not    %r8d
   1800039f4:	45 33 c2             	xor    %r10d,%r8d
   1800039f7:	89 43 58             	mov    %eax,0x58(%rbx)
   1800039fa:	44 89 53 5c          	mov    %r10d,0x5c(%rbx)
   1800039fe:	44 8b 53 54          	mov    0x54(%rbx),%r10d
   180003a02:	44 89 43 64          	mov    %r8d,0x64(%rbx)
   180003a06:	44 8b 43 50          	mov    0x50(%rbx),%r8d
   180003a0a:	41 f7 d2             	not    %r10d
   180003a0d:	8b ca                	mov    %edx,%ecx
   180003a0f:	41 23 c8             	and    %r8d,%ecx
   180003a12:	45 33 c1             	xor    %r9d,%r8d
   180003a15:	41 33 ca             	xor    %r10d,%ecx
   180003a18:	44 0b d2             	or     %edx,%r10d
   180003a1b:	45 33 d1             	xor    %r9d,%r10d
   180003a1e:	44 23 c9             	and    %ecx,%r9d
   180003a21:	41 33 c8             	xor    %r8d,%ecx
   180003a24:	45 23 c2             	and    %r10d,%r8d
   180003a27:	f7 d1                	not    %ecx
   180003a29:	8b c1                	mov    %ecx,%eax
   180003a2b:	33 c2                	xor    %edx,%eax
   180003a2d:	89 43 48             	mov    %eax,0x48(%rbx)
   180003a30:	41 8b c1             	mov    %r9d,%eax
   180003a33:	45 0b ca             	or     %r10d,%r9d
   180003a36:	44 8b 53 38          	mov    0x38(%rbx),%r10d
   180003a3a:	41 0b c0             	or     %r8d,%eax
   180003a3d:	44 33 c9             	xor    %ecx,%r9d
   180003a40:	89 43 4c             	mov    %eax,0x4c(%rbx)
   180003a43:	8b c1                	mov    %ecx,%eax
   180003a45:	8b 4b 40             	mov    0x40(%rbx),%ecx
   180003a48:	41 33 c0             	xor    %r8d,%eax
   180003a4b:	44 8b 43 44          	mov    0x44(%rbx),%r8d
   180003a4f:	44 89 4b 54          	mov    %r9d,0x54(%rbx)
   180003a53:	44 8b 4b 3c          	mov    0x3c(%rbx),%r9d
   180003a57:	89 43 50             	mov    %eax,0x50(%rbx)
   180003a5a:	41 8b d1             	mov    %r9d,%edx
   180003a5d:	45 33 c8             	xor    %r8d,%r9d
   180003a60:	45 0b c2             	or     %r10d,%r8d
   180003a63:	41 23 d2             	and    %r10d,%edx
   180003a66:	41 8b c1             	mov    %r9d,%eax
   180003a69:	44 33 d1             	xor    %ecx,%r10d
   180003a6c:	41 33 c0             	xor    %r8d,%eax
   180003a6f:	45 23 c8             	and    %r8d,%r9d
   180003a72:	44 0b d2             	or     %edx,%r10d
   180003a75:	41 33 d0             	xor    %r8d,%edx
   180003a78:	33 c8                	xor    %eax,%ecx
   180003a7a:	45 33 ca             	xor    %r10d,%r9d
   180003a7d:	45 23 d0             	and    %r8d,%r10d
   180003a80:	44 23 c2             	and    %edx,%r8d
   180003a83:	41 8b c1             	mov    %r9d,%eax
   180003a86:	23 c1                	and    %ecx,%eax
   180003a88:	44 33 c1             	xor    %ecx,%r8d
   180003a8b:	44 89 4b 40          	mov    %r9d,0x40(%rbx)
   180003a8f:	41 33 c0             	xor    %r8d,%eax
   180003a92:	89 43 38             	mov    %eax,0x38(%rbx)
   180003a95:	41 8b c1             	mov    %r9d,%eax
   180003a98:	44 8b 4b 30          	mov    0x30(%rbx),%r9d
   180003a9c:	0b c2                	or     %edx,%eax
   180003a9e:	41 33 c0             	xor    %r8d,%eax
   180003aa1:	45 33 c2             	xor    %r10d,%r8d
   180003aa4:	44 8b 53 28          	mov    0x28(%rbx),%r10d
   180003aa8:	44 89 43 44          	mov    %r8d,0x44(%rbx)
   180003aac:	44 8b 43 34          	mov    0x34(%rbx),%r8d
   180003ab0:	89 43 3c             	mov    %eax,0x3c(%rbx)
   180003ab3:	41 8b d2             	mov    %r10d,%edx
   180003ab6:	45 33 d0             	xor    %r8d,%r10d
   180003ab9:	44 33 53 2c          	xor    0x2c(%rbx),%r10d
   180003abd:	41 23 d0             	and    %r8d,%edx
   180003ac0:	41 33 d1             	xor    %r9d,%edx
   180003ac3:	45 0b c8             	or     %r8d,%r9d
   180003ac6:	41 8b ca             	mov    %r10d,%ecx
   180003ac9:	23 4b 2c             	and    0x2c(%rbx),%ecx
   180003acc:	44 33 c2             	xor    %edx,%r8d
   180003acf:	45 0b ca             	or     %r10d,%r9d
   180003ad2:	44 33 4b 2c          	xor    0x2c(%rbx),%r9d
   180003ad6:	41 33 c8             	xor    %r8d,%ecx
   180003ad9:	8b c1                	mov    %ecx,%eax
   180003adb:	f7 d0                	not    %eax
   180003add:	89 43 28             	mov    %eax,0x28(%rbx)
   180003ae0:	41 8b c1             	mov    %r9d,%eax
   180003ae3:	45 23 c8             	and    %r8d,%r9d
   180003ae6:	33 c2                	xor    %edx,%eax
   180003ae8:	0b d1                	or     %ecx,%edx
   180003aea:	8b 4b 24             	mov    0x24(%rbx),%ecx
   180003aed:	41 33 d2             	xor    %r10d,%edx
   180003af0:	45 33 ca             	xor    %r10d,%r9d
   180003af3:	44 8b 53 08          	mov    0x8(%rbx),%r10d
   180003af7:	89 53 30             	mov    %edx,0x30(%rbx)
   180003afa:	8b 53 1c             	mov    0x1c(%rbx),%edx
   180003afd:	44 89 4b 34          	mov    %r9d,0x34(%rbx)
   180003b01:	44 8b 4b 18          	mov    0x18(%rbx),%r9d
   180003b05:	f7 d1                	not    %ecx
   180003b07:	89 43 2c             	mov    %eax,0x2c(%rbx)
   180003b0a:	8b c2                	mov    %edx,%eax
   180003b0c:	41 0b d1             	or     %r9d,%edx
   180003b0f:	41 33 c1             	xor    %r9d,%eax
   180003b12:	44 8b c2             	mov    %edx,%r8d
   180003b15:	44 33 43 20          	xor    0x20(%rbx),%r8d
   180003b19:	23 d0                	and    %eax,%edx
   180003b1b:	0b c1                	or     %ecx,%eax
   180003b1d:	45 33 c8             	xor    %r8d,%r9d
   180003b20:	33 d1                	xor    %ecx,%edx
   180003b22:	41 33 c1             	xor    %r9d,%eax
   180003b25:	44 23 c9             	and    %ecx,%r9d
   180003b28:	41 33 c8             	xor    %r8d,%ecx
   180003b2b:	44 33 ca             	xor    %edx,%r9d
   180003b2e:	44 23 c0             	and    %eax,%r8d
   180003b31:	89 43 18             	mov    %eax,0x18(%rbx)
   180003b34:	41 33 d0             	xor    %r8d,%edx
   180003b37:	45 23 c1             	and    %r9d,%r8d
   180003b3a:	44 89 4b 1c          	mov    %r9d,0x1c(%rbx)
   180003b3e:	44 8b 4b 0c          	mov    0xc(%rbx),%r9d
   180003b42:	44 33 c1             	xor    %ecx,%r8d
   180003b45:	89 53 20             	mov    %edx,0x20(%rbx)
   180003b48:	8b 53 10             	mov    0x10(%rbx),%edx
   180003b4b:	44 89 43 24          	mov    %r8d,0x24(%rbx)
   180003b4f:	41 8b c9             	mov    %r9d,%ecx
   180003b52:	44 33 ca             	xor    %edx,%r9d
   180003b55:	45 8b c2             	mov    %r10d,%r8d
   180003b58:	41 33 d2             	xor    %r10d,%edx
   180003b5b:	44 33 43 14          	xor    0x14(%rbx),%r8d
   180003b5f:	45 0b c8             	or     %r8d,%r9d
   180003b62:	45 23 d0             	and    %r8d,%r10d
   180003b65:	f7 d1                	not    %ecx
   180003b67:	44 33 c1             	xor    %ecx,%r8d
   180003b6a:	45 33 d1             	xor    %r9d,%r10d
   180003b6d:	44 33 ca             	xor    %edx,%r9d
   180003b70:	41 23 d2             	and    %r10d,%edx
   180003b73:	41 8b c2             	mov    %r10d,%eax
   180003b76:	41 33 d0             	xor    %r8d,%edx
   180003b79:	33 c1                	xor    %ecx,%eax
   180003b7b:	45 23 c1             	and    %r9d,%r8d
   180003b7e:	41 33 c1             	xor    %r9d,%eax
   180003b81:	45 33 c2             	xor    %r10d,%r8d
   180003b84:	44 8b 53 04          	mov    0x4(%rbx),%r10d
   180003b88:	89 53 08             	mov    %edx,0x8(%rbx)
   180003b8b:	41 33 d1             	xor    %r9d,%edx
   180003b8e:	44 8b 0b             	mov    (%rbx),%r9d
   180003b91:	89 53 10             	mov    %edx,0x10(%rbx)
   180003b94:	8b 53 fc             	mov    -0x4(%rbx),%edx
   180003b97:	89 43 0c             	mov    %eax,0xc(%rbx)
   180003b9a:	f7 d2                	not    %edx
   180003b9c:	44 89 43 14          	mov    %r8d,0x14(%rbx)
   180003ba0:	44 8b 43 f8          	mov    -0x8(%rbx),%r8d
   180003ba4:	8b ca                	mov    %edx,%ecx
   180003ba6:	41 f7 d0             	not    %r8d
   180003ba9:	41 23 c9             	and    %r9d,%ecx
   180003bac:	41 33 ca             	xor    %r10d,%ecx
   180003baf:	44 0b d2             	or     %edx,%r10d
   180003bb2:	41 33 d1             	xor    %r9d,%edx
   180003bb5:	45 33 ca             	xor    %r10d,%r9d
   180003bb8:	45 33 d0             	xor    %r8d,%r10d
   180003bbb:	44 0b c1             	or     %ecx,%r8d
   180003bbe:	45 23 c8             	and    %r8d,%r9d
   180003bc1:	44 33 c2             	xor    %edx,%r8d
   180003bc4:	41 33 d2             	xor    %r10d,%edx
   180003bc7:	33 d1                	xor    %ecx,%edx
   180003bc9:	41 8b c0             	mov    %r8d,%eax
   180003bcc:	44 89 43 04          	mov    %r8d,0x4(%rbx)
   180003bd0:	0b c2                	or     %edx,%eax
   180003bd2:	41 33 d1             	xor    %r9d,%edx
   180003bd5:	44 8b 4b e8          	mov    -0x18(%rbx),%r9d
   180003bd9:	33 c1                	xor    %ecx,%eax
   180003bdb:	89 53 fc             	mov    %edx,-0x4(%rbx)
   180003bde:	8b 53 f0             	mov    -0x10(%rbx),%edx
   180003be1:	89 43 f8             	mov    %eax,-0x8(%rbx)
   180003be4:	41 8b c0             	mov    %r8d,%eax
   180003be7:	44 8b 43 f4          	mov    -0xc(%rbx),%r8d
   180003beb:	41 23 c2             	and    %r10d,%eax
   180003bee:	44 8b 53 d8          	mov    -0x28(%rbx),%r10d
   180003bf2:	33 c1                	xor    %ecx,%eax
   180003bf4:	8b ca                	mov    %edx,%ecx
   180003bf6:	89 03                	mov    %eax,(%rbx)
   180003bf8:	41 8b c0             	mov    %r8d,%eax
   180003bfb:	45 0b c1             	or     %r9d,%r8d
   180003bfe:	44 33 43 ec          	xor    -0x14(%rbx),%r8d
   180003c02:	44 33 c8             	xor    %eax,%r9d
   180003c05:	33 c8                	xor    %eax,%ecx
   180003c07:	41 33 d1             	xor    %r9d,%edx
   180003c0a:	41 8b c1             	mov    %r9d,%eax
   180003c0d:	45 33 c8             	xor    %r8d,%r9d
   180003c10:	23 43 ec             	and    -0x14(%rbx),%eax
   180003c13:	f7 d1                	not    %ecx
   180003c15:	33 c1                	xor    %ecx,%eax
   180003c17:	41 0b c9             	or     %r9d,%ecx
   180003c1a:	44 33 ca             	xor    %edx,%r9d
   180003c1d:	23 d0                	and    %eax,%edx
   180003c1f:	f7 d0                	not    %eax
   180003c21:	44 89 4b f4          	mov    %r9d,-0xc(%rbx)
   180003c25:	44 8b 4b e0          	mov    -0x20(%rbx),%r9d
   180003c29:	44 33 c2             	xor    %edx,%r8d
   180003c2c:	33 d1                	xor    %ecx,%edx
   180003c2e:	33 c2                	xor    %edx,%eax
   180003c30:	89 53 e8             	mov    %edx,-0x18(%rbx)
   180003c33:	8b 53 dc             	mov    -0x24(%rbx),%edx
   180003c36:	44 89 43 f0          	mov    %r8d,-0x10(%rbx)
   180003c3a:	44 8b 43 e4          	mov    -0x1c(%rbx),%r8d
   180003c3e:	8b ca                	mov    %edx,%ecx
   180003c40:	41 33 d2             	xor    %r10d,%edx
   180003c43:	45 33 d0             	xor    %r8d,%r10d
   180003c46:	89 43 ec             	mov    %eax,-0x14(%rbx)
   180003c49:	23 ca                	and    %edx,%ecx
   180003c4b:	41 f7 d0             	not    %r8d
   180003c4e:	44 8b 5b b8          	mov    -0x48(%rbx),%r11d
   180003c52:	45 33 c1             	xor    %r9d,%r8d
   180003c55:	44 0b d2             	or     %edx,%r10d
   180003c58:	45 33 d0             	xor    %r8d,%r10d
   180003c5b:	41 33 d0             	xor    %r8d,%edx
   180003c5e:	44 33 c1             	xor    %ecx,%r8d
   180003c61:	0b d1                	or     %ecx,%edx
   180003c63:	41 33 c9             	xor    %r9d,%ecx
   180003c66:	45 23 ca             	and    %r10d,%r9d
   180003c69:	44 33 ca             	xor    %edx,%r9d
   180003c6c:	41 8b c2             	mov    %r10d,%eax
   180003c6f:	41 f7 d2             	not    %r10d
   180003c72:	0b c2                	or     %edx,%eax
   180003c74:	8b 53 c8             	mov    -0x38(%rbx),%edx
   180003c77:	45 33 d1             	xor    %r9d,%r10d
   180003c7a:	33 c1                	xor    %ecx,%eax
   180003c7c:	44 89 53 e4          	mov    %r10d,-0x1c(%rbx)
   180003c80:	44 8b 53 d4          	mov    -0x2c(%rbx),%r10d
   180003c84:	89 43 d8             	mov    %eax,-0x28(%rbx)
   180003c87:	44 89 4b dc          	mov    %r9d,-0x24(%rbx)
   180003c8b:	44 8b 4b d0          	mov    -0x30(%rbx),%r9d
   180003c8f:	44 89 43 e0          	mov    %r8d,-0x20(%rbx)
   180003c93:	41 8b c9             	mov    %r9d,%ecx
   180003c96:	41 f7 d2             	not    %r10d
   180003c99:	23 ca                	and    %edx,%ecx
   180003c9b:	44 8b c2             	mov    %edx,%r8d
   180003c9e:	44 33 43 cc          	xor    -0x34(%rbx),%r8d
   180003ca2:	41 33 ca             	xor    %r10d,%ecx
   180003ca5:	44 0b d2             	or     %edx,%r10d
   180003ca8:	45 33 c8             	xor    %r8d,%r9d
   180003cab:	45 33 d0             	xor    %r8d,%r10d
   180003cae:	44 23 c1             	and    %ecx,%r8d
   180003cb1:	41 33 c9             	xor    %r9d,%ecx
   180003cb4:	45 23 ca             	and    %r10d,%r9d
   180003cb7:	f7 d1                	not    %ecx
   180003cb9:	8b c1                	mov    %ecx,%eax
   180003cbb:	33 c2                	xor    %edx,%eax
   180003cbd:	89 43 c8             	mov    %eax,-0x38(%rbx)
   180003cc0:	41 8b c0             	mov    %r8d,%eax
   180003cc3:	45 0b c2             	or     %r10d,%r8d
   180003cc6:	44 8b 53 bc          	mov    -0x44(%rbx),%r10d
   180003cca:	41 0b c1             	or     %r9d,%eax
   180003ccd:	44 33 c9             	xor    %ecx,%r9d
   180003cd0:	89 43 cc             	mov    %eax,-0x34(%rbx)
   180003cd3:	44 33 c1             	xor    %ecx,%r8d
   180003cd6:	8b 4b c4             	mov    -0x3c(%rbx),%ecx
   180003cd9:	44 89 4b d0          	mov    %r9d,-0x30(%rbx)
   180003cdd:	45 8b ca             	mov    %r10d,%r9d
   180003ce0:	44 33 d1             	xor    %ecx,%r10d
   180003ce3:	41 0b cb             	or     %r11d,%ecx
   180003ce6:	45 23 cb             	and    %r11d,%r9d
   180003ce9:	44 89 43 d4          	mov    %r8d,-0x2c(%rbx)
   180003ced:	44 8b 43 c0          	mov    -0x40(%rbx),%r8d
   180003cf1:	41 8b c2             	mov    %r10d,%eax
   180003cf4:	44 23 d1             	and    %ecx,%r10d
   180003cf7:	33 c1                	xor    %ecx,%eax
   180003cf9:	45 33 d8             	xor    %r8d,%r11d
   180003cfc:	44 33 c0             	xor    %eax,%r8d
   180003cff:	45 0b d9             	or     %r9d,%r11d
   180003d02:	44 33 c9             	xor    %ecx,%r9d
   180003d05:	45 33 d3             	xor    %r11d,%r10d
   180003d08:	41 8b d1             	mov    %r9d,%edx
   180003d0b:	44 23 d9             	and    %ecx,%r11d
   180003d0e:	23 d1                	and    %ecx,%edx
   180003d10:	41 8b c2             	mov    %r10d,%eax
   180003d13:	44 89 53 c0          	mov    %r10d,-0x40(%rbx)
   180003d17:	41 23 c0             	and    %r8d,%eax
   180003d1a:	41 33 d0             	xor    %r8d,%edx
   180003d1d:	44 8b 43 b0          	mov    -0x50(%rbx),%r8d
   180003d21:	33 c2                	xor    %edx,%eax
   180003d23:	89 43 b8             	mov    %eax,-0x48(%rbx)
   180003d26:	41 8b c2             	mov    %r10d,%eax
   180003d29:	44 8b 53 ac          	mov    -0x54(%rbx),%r10d
   180003d2d:	41 0b c1             	or     %r9d,%eax
   180003d30:	44 8b 4b b4          	mov    -0x4c(%rbx),%r9d
   180003d34:	33 c2                	xor    %edx,%eax
   180003d36:	41 33 d3             	xor    %r11d,%edx
   180003d39:	89 43 bc             	mov    %eax,-0x44(%rbx)
   180003d3c:	8b 43 a8             	mov    -0x58(%rbx),%eax
   180003d3f:	89 53 c4             	mov    %edx,-0x3c(%rbx)
   180003d42:	48 2b df             	sub    %rdi,%rbx
   180003d45:	8b c8                	mov    %eax,%ecx
   180003d47:	41 8b d2             	mov    %r10d,%edx
   180003d4a:	41 23 c9             	and    %r9d,%ecx
   180003d4d:	33 d0                	xor    %eax,%edx
   180003d4f:	41 33 d1             	xor    %r9d,%edx
   180003d52:	41 33 c8             	xor    %r8d,%ecx
   180003d55:	45 0b c1             	or     %r9d,%r8d
   180003d58:	44 0b c2             	or     %edx,%r8d
   180003d5b:	44 33 c9             	xor    %ecx,%r9d
   180003d5e:	45 33 c2             	xor    %r10d,%r8d
   180003d61:	44 23 d2             	and    %edx,%r10d
   180003d64:	45 33 d1             	xor    %r9d,%r10d
   180003d67:	45 23 c8             	and    %r8d,%r9d
   180003d6a:	44 33 c1             	xor    %ecx,%r8d
   180003d6d:	44 89 43 74          	mov    %r8d,0x74(%rbx)
   180003d71:	44 8b 43 64          	mov    0x64(%rbx),%r8d
   180003d75:	41 8b c2             	mov    %r10d,%eax
   180003d78:	44 0b d1             	or     %ecx,%r10d
   180003d7b:	8b 4b 6c             	mov    0x6c(%rbx),%ecx
   180003d7e:	f7 d0                	not    %eax
   180003d80:	44 33 d2             	xor    %edx,%r10d
   180003d83:	41 33 d1             	xor    %r9d,%edx
   180003d86:	44 8b 4b 60          	mov    0x60(%rbx),%r9d
   180003d8a:	89 53 7c             	mov    %edx,0x7c(%rbx)
   180003d8d:	8b 53 68             	mov    0x68(%rbx),%edx
   180003d90:	89 43 70             	mov    %eax,0x70(%rbx)
   180003d93:	41 8b c0             	mov    %r8d,%eax
   180003d96:	45 0b c1             	or     %r9d,%r8d
   180003d99:	f7 d1                	not    %ecx
   180003d9b:	41 33 d0             	xor    %r8d,%edx
   180003d9e:	41 33 c1             	xor    %r9d,%eax
   180003da1:	44 89 53 78          	mov    %r10d,0x78(%rbx)
   180003da5:	44 8b 53 50          	mov    0x50(%rbx),%r10d
   180003da9:	44 33 ca             	xor    %edx,%r9d
   180003dac:	44 23 c0             	and    %eax,%r8d
   180003daf:	44 33 c1             	xor    %ecx,%r8d
   180003db2:	0b c1                	or     %ecx,%eax
   180003db4:	41 33 c1             	xor    %r9d,%eax
   180003db7:	44 23 c9             	and    %ecx,%r9d
   180003dba:	33 ca                	xor    %edx,%ecx
   180003dbc:	45 33 c8             	xor    %r8d,%r9d
   180003dbf:	23 d0                	and    %eax,%edx
   180003dc1:	89 43 60             	mov    %eax,0x60(%rbx)
   180003dc4:	44 33 c2             	xor    %edx,%r8d
   180003dc7:	44 89 4b 64          	mov    %r9d,0x64(%rbx)
   180003dcb:	44 23 ca             	and    %edx,%r9d
   180003dce:	8b 53 5c             	mov    0x5c(%rbx),%edx
   180003dd1:	44 33 c9             	xor    %ecx,%r9d
   180003dd4:	44 89 43 68          	mov    %r8d,0x68(%rbx)
   180003dd8:	44 8b 43 58          	mov    0x58(%rbx),%r8d
   180003ddc:	41 33 d2             	xor    %r10d,%edx
   180003ddf:	44 89 4b 6c          	mov    %r9d,0x6c(%rbx)
   180003de3:	44 8b 4b 54          	mov    0x54(%rbx),%r9d
   180003de7:	41 8b c9             	mov    %r9d,%ecx
   180003dea:	45 33 c8             	xor    %r8d,%r9d
   180003ded:	45 33 c2             	xor    %r10d,%r8d
   180003df0:	44 0b ca             	or     %edx,%r9d
   180003df3:	44 23 d2             	and    %edx,%r10d
   180003df6:	f7 d1                	not    %ecx
   180003df8:	45 33 d1             	xor    %r9d,%r10d
   180003dfb:	45 33 c8             	xor    %r8d,%r9d
   180003dfe:	33 d1                	xor    %ecx,%edx
   180003e00:	45 23 c2             	and    %r10d,%r8d
   180003e03:	41 8b c1             	mov    %r9d,%eax
   180003e06:	44 33 c2             	xor    %edx,%r8d
   180003e09:	41 33 c2             	xor    %r10d,%eax
   180003e0c:	44 89 43 50          	mov    %r8d,0x50(%rbx)
   180003e10:	45 33 c1             	xor    %r9d,%r8d
   180003e13:	44 23 ca             	and    %edx,%r9d
   180003e16:	8b 53 44             	mov    0x44(%rbx),%edx
   180003e19:	33 c1                	xor    %ecx,%eax
   180003e1b:	45 33 ca             	xor    %r10d,%r9d
   180003e1e:	44 8b 53 4c          	mov    0x4c(%rbx),%r10d
   180003e22:	44 89 43 58          	mov    %r8d,0x58(%rbx)
   180003e26:	44 8b 43 40          	mov    0x40(%rbx),%r8d
   180003e2a:	44 89 4b 5c          	mov    %r9d,0x5c(%rbx)
   180003e2e:	44 8b 4b 48          	mov    0x48(%rbx),%r9d
   180003e32:	89 43 54             	mov    %eax,0x54(%rbx)
   180003e35:	f7 d2                	not    %edx
   180003e37:	41 f7 d0             	not    %r8d
   180003e3a:	41 8b c9             	mov    %r9d,%ecx
   180003e3d:	23 ca                	and    %edx,%ecx
   180003e3f:	41 33 ca             	xor    %r10d,%ecx
   180003e42:	44 0b d2             	or     %edx,%r10d
   180003e45:	41 33 d1             	xor    %r9d,%edx
   180003e48:	45 33 ca             	xor    %r10d,%r9d
   180003e4b:	45 33 d0             	xor    %r8d,%r10d
   180003e4e:	44 0b c1             	or     %ecx,%r8d
   180003e51:	45 23 c8             	and    %r8d,%r9d
   180003e54:	44 33 c2             	xor    %edx,%r8d
   180003e57:	41 33 d2             	xor    %r10d,%edx
   180003e5a:	33 d1                	xor    %ecx,%edx
   180003e5c:	41 8b c0             	mov    %r8d,%eax
   180003e5f:	44 89 43 4c          	mov    %r8d,0x4c(%rbx)
   180003e63:	44 33 ca             	xor    %edx,%r9d
   180003e66:	0b c2                	or     %edx,%eax
   180003e68:	8b 53 38             	mov    0x38(%rbx),%edx
   180003e6b:	33 c1                	xor    %ecx,%eax
   180003e6d:	44 89 4b 44          	mov    %r9d,0x44(%rbx)
   180003e71:	44 8b 4b 34          	mov    0x34(%rbx),%r9d
   180003e75:	89 43 40             	mov    %eax,0x40(%rbx)
   180003e78:	41 8b c0             	mov    %r8d,%eax
   180003e7b:	44 8b 43 3c          	mov    0x3c(%rbx),%r8d
   180003e7f:	41 23 c2             	and    %r10d,%eax
   180003e82:	44 8b 53 30          	mov    0x30(%rbx),%r10d
   180003e86:	33 c1                	xor    %ecx,%eax
   180003e88:	8b ca                	mov    %edx,%ecx
   180003e8a:	89 43 48             	mov    %eax,0x48(%rbx)
   180003e8d:	41 8b c0             	mov    %r8d,%eax
   180003e90:	45 0b c2             	or     %r10d,%r8d
   180003e93:	45 33 c1             	xor    %r9d,%r8d
   180003e96:	44 33 d0             	xor    %eax,%r10d
   180003e99:	33 c8                	xor    %eax,%ecx
   180003e9b:	8b 43 20             	mov    0x20(%rbx),%eax
   180003e9e:	45 23 ca             	and    %r10d,%r9d
   180003ea1:	41 33 d2             	xor    %r10d,%edx
   180003ea4:	45 33 d0             	xor    %r8d,%r10d
   180003ea7:	f7 d1                	not    %ecx
   180003ea9:	44 33 c9             	xor    %ecx,%r9d
   180003eac:	41 0b ca             	or     %r10d,%ecx
   180003eaf:	44 33 d2             	xor    %edx,%r10d
   180003eb2:	41 23 d1             	and    %r9d,%edx
   180003eb5:	41 f7 d1             	not    %r9d
   180003eb8:	44 89 53 3c          	mov    %r10d,0x3c(%rbx)
   180003ebc:	44 8b 53 28          	mov    0x28(%rbx),%r10d
   180003ec0:	44 33 c2             	xor    %edx,%r8d
   180003ec3:	33 d1                	xor    %ecx,%edx
   180003ec5:	44 33 ca             	xor    %edx,%r9d
   180003ec8:	44 89 43 38          	mov    %r8d,0x38(%rbx)
   180003ecc:	44 8b 43 2c          	mov    0x2c(%rbx),%r8d
   180003ed0:	44 89 4b 34          	mov    %r9d,0x34(%rbx)
   180003ed4:	44 8b 4b 24          	mov    0x24(%rbx),%r9d
   180003ed8:	89 53 30             	mov    %edx,0x30(%rbx)
   180003edb:	41 8b d1             	mov    %r9d,%edx
   180003ede:	44 33 c8             	xor    %eax,%r9d
   180003ee1:	41 33 c0             	xor    %r8d,%eax
   180003ee4:	41 23 d1             	and    %r9d,%edx
   180003ee7:	41 8b c9             	mov    %r9d,%ecx
   180003eea:	41 f7 d0             	not    %r8d
   180003eed:	45 33 c2             	xor    %r10d,%r8d
   180003ef0:	0b c8                	or     %eax,%ecx
   180003ef2:	8b 43 1c             	mov    0x1c(%rbx),%eax
   180003ef5:	45 33 c8             	xor    %r8d,%r9d
   180003ef8:	41 33 c8             	xor    %r8d,%ecx
   180003efb:	44 33 c2             	xor    %edx,%r8d
   180003efe:	44 0b ca             	or     %edx,%r9d
   180003f01:	41 33 d2             	xor    %r10d,%edx
   180003f04:	44 23 d1             	and    %ecx,%r10d
   180003f07:	45 33 d1             	xor    %r9d,%r10d
   180003f0a:	44 0b c9             	or     %ecx,%r9d
   180003f0d:	44 89 43 28          	mov    %r8d,0x28(%rbx)
   180003f11:	44 8b 43 10          	mov    0x10(%rbx),%r8d
   180003f15:	44 33 ca             	xor    %edx,%r9d
   180003f18:	f7 d1                	not    %ecx
   180003f1a:	41 33 ca             	xor    %r10d,%ecx
   180003f1d:	44 89 4b 20          	mov    %r9d,0x20(%rbx)
   180003f21:	45 8b c8             	mov    %r8d,%r9d
   180003f24:	44 33 4b 14          	xor    0x14(%rbx),%r9d
   180003f28:	44 89 53 24          	mov    %r10d,0x24(%rbx)
   180003f2c:	44 8b 53 18          	mov    0x18(%rbx),%r10d
   180003f30:	89 4b 2c             	mov    %ecx,0x2c(%rbx)
   180003f33:	f7 d0                	not    %eax
   180003f35:	44 8b 1b             	mov    (%rbx),%r11d
   180003f38:	41 8b d2             	mov    %r10d,%edx
   180003f3b:	45 33 d1             	xor    %r9d,%r10d
   180003f3e:	41 23 d0             	and    %r8d,%edx
   180003f41:	41 8b c8             	mov    %r8d,%ecx
   180003f44:	33 d0                	xor    %eax,%edx
   180003f46:	0b c8                	or     %eax,%ecx
   180003f48:	41 33 c9             	xor    %r9d,%ecx
   180003f4b:	44 23 ca             	and    %edx,%r9d
   180003f4e:	41 33 d2             	xor    %r10d,%edx
   180003f51:	44 23 d1             	and    %ecx,%r10d
   180003f54:	41 8b c1             	mov    %r9d,%eax
   180003f57:	44 0b c9             	or     %ecx,%r9d
   180003f5a:	41 0b c2             	or     %r10d,%eax
   180003f5d:	f7 d2                	not    %edx
   180003f5f:	89 43 14             	mov    %eax,0x14(%rbx)
   180003f62:	44 33 d2             	xor    %edx,%r10d
   180003f65:	44 33 ca             	xor    %edx,%r9d
   180003f68:	44 33 c2             	xor    %edx,%r8d
   180003f6b:	8b 53 0c             	mov    0xc(%rbx),%edx
   180003f6e:	44 89 53 18          	mov    %r10d,0x18(%rbx)
   180003f72:	44 8b 53 04          	mov    0x4(%rbx),%r10d
   180003f76:	44 89 4b 1c          	mov    %r9d,0x1c(%rbx)
   180003f7a:	44 89 43 10          	mov    %r8d,0x10(%rbx)
   180003f7e:	44 8b 43 08          	mov    0x8(%rbx),%r8d
   180003f82:	45 8b ca             	mov    %r10d,%r9d
   180003f85:	44 33 d2             	xor    %edx,%r10d
   180003f88:	41 0b d3             	or     %r11d,%edx
   180003f8b:	45 23 cb             	and    %r11d,%r9d
   180003f8e:	45 33 d8             	xor    %r8d,%r11d
   180003f91:	45 0b d9             	or     %r9d,%r11d
   180003f94:	41 8b c2             	mov    %r10d,%eax
   180003f97:	44 33 ca             	xor    %edx,%r9d
   180003f9a:	33 c2                	xor    %edx,%eax
   180003f9c:	44 23 d2             	and    %edx,%r10d
   180003f9f:	41 8b c9             	mov    %r9d,%ecx
   180003fa2:	44 33 c0             	xor    %eax,%r8d
   180003fa5:	45 33 d3             	xor    %r11d,%r10d
   180003fa8:	23 ca                	and    %edx,%ecx
   180003faa:	41 33 c8             	xor    %r8d,%ecx
   180003fad:	41 8b c2             	mov    %r10d,%eax
   180003fb0:	44 23 da             	and    %edx,%r11d
   180003fb3:	41 23 c0             	and    %r8d,%eax
   180003fb6:	44 89 53 08          	mov    %r10d,0x8(%rbx)
   180003fba:	33 c1                	xor    %ecx,%eax
   180003fbc:	89 03                	mov    %eax,(%rbx)
   180003fbe:	41 8b c2             	mov    %r10d,%eax
   180003fc1:	41 0b c1             	or     %r9d,%eax
   180003fc4:	33 c1                	xor    %ecx,%eax
   180003fc6:	44 33 d9             	xor    %ecx,%r11d
   180003fc9:	44 89 5b 0c          	mov    %r11d,0xc(%rbx)
   180003fcd:	89 43 04             	mov    %eax,0x4(%rbx)
   180003fd0:	48 8b 9c 24 90 00 00 	mov    0x90(%rsp),%rbx
   180003fd7:	00 
   180003fd8:	48 83 c4 50          	add    $0x50,%rsp
   180003fdc:	41 5f                	pop    %r15
   180003fde:	41 5e                	pop    %r14
   180003fe0:	41 5d                	pop    %r13
   180003fe2:	41 5c                	pop    %r12
   180003fe4:	5f                   	pop    %rdi
   180003fe5:	5e                   	pop    %rsi
   180003fe6:	5d                   	pop    %rbp
   180003fe7:	c3                   	retq   
   180003fe8:	ff 25 ca 10 00 00    	jmpq   *0x10ca(%rip)        # 0x1800050b8
   180003fee:	ff 25 bc 10 00 00    	jmpq   *0x10bc(%rip)        # 0x1800050b0
   180003ff4:	ff 25 ae 10 00 00    	jmpq   *0x10ae(%rip)        # 0x1800050a8
   180003ffa:	ff 25 a0 10 00 00    	jmpq   *0x10a0(%rip)        # 0x1800050a0
   180004000:	ff 25 92 10 00 00    	jmpq   *0x1092(%rip)        # 0x180005098
   180004006:	ff 25 84 10 00 00    	jmpq   *0x1084(%rip)        # 0x180005090
   18000400c:	ff 25 76 10 00 00    	jmpq   *0x1076(%rip)        # 0x180005088
   180004012:	ff 25 68 10 00 00    	jmpq   *0x1068(%rip)        # 0x180005080
   180004018:	ff 25 5a 10 00 00    	jmpq   *0x105a(%rip)        # 0x180005078
   18000401e:	ff 25 f4 0f 00 00    	jmpq   *0xff4(%rip)        # 0x180005018
