
8e97c371633d285cd8fc842f4582705052a9409149ee67d97de545030787a192:     file format pei-x86-64


Disassembly of section .text:

0000000180001000 <.text>:
   180001000:	cc                   	int3   
   180001001:	cc                   	int3   
   180001002:	cc                   	int3   
   180001003:	cc                   	int3   
   180001004:	cc                   	int3   
   180001005:	cc                   	int3   
   180001006:	66 66 0f 1f 84 00 00 	data16 nopw 0x0(%rax,%rax,1)
   18000100d:	00 00 00 
   180001010:	4c 8b d9             	mov    %rcx,%r11
   180001013:	48 2b d1             	sub    %rcx,%rdx
   180001016:	0f 82 9e 01 00 00    	jb     0x1800011ba
   18000101c:	49 83 f8 08          	cmp    $0x8,%r8
   180001020:	72 61                	jb     0x180001083
   180001022:	f6 c1 07             	test   $0x7,%cl
   180001025:	74 36                	je     0x18000105d
   180001027:	f6 c1 01             	test   $0x1,%cl
   18000102a:	74 0b                	je     0x180001037
   18000102c:	8a 04 0a             	mov    (%rdx,%rcx,1),%al
   18000102f:	49 ff c8             	dec    %r8
   180001032:	88 01                	mov    %al,(%rcx)
   180001034:	48 ff c1             	inc    %rcx
   180001037:	f6 c1 02             	test   $0x2,%cl
   18000103a:	74 0f                	je     0x18000104b
   18000103c:	66 8b 04 0a          	mov    (%rdx,%rcx,1),%ax
   180001040:	49 83 e8 02          	sub    $0x2,%r8
   180001044:	66 89 01             	mov    %ax,(%rcx)
   180001047:	48 83 c1 02          	add    $0x2,%rcx
   18000104b:	f6 c1 04             	test   $0x4,%cl
   18000104e:	74 0d                	je     0x18000105d
   180001050:	8b 04 0a             	mov    (%rdx,%rcx,1),%eax
   180001053:	49 83 e8 04          	sub    $0x4,%r8
   180001057:	89 01                	mov    %eax,(%rcx)
   180001059:	48 83 c1 04          	add    $0x4,%rcx
   18000105d:	4d 8b c8             	mov    %r8,%r9
   180001060:	49 c1 e9 05          	shr    $0x5,%r9
   180001064:	75 51                	jne    0x1800010b7
   180001066:	4d 8b c8             	mov    %r8,%r9
   180001069:	49 c1 e9 03          	shr    $0x3,%r9
   18000106d:	74 14                	je     0x180001083
   18000106f:	48 8b 04 0a          	mov    (%rdx,%rcx,1),%rax
   180001073:	48 89 01             	mov    %rax,(%rcx)
   180001076:	48 83 c1 08          	add    $0x8,%rcx
   18000107a:	49 ff c9             	dec    %r9
   18000107d:	75 f0                	jne    0x18000106f
   18000107f:	49 83 e0 07          	and    $0x7,%r8
   180001083:	4d 85 c0             	test   %r8,%r8
   180001086:	75 08                	jne    0x180001090
   180001088:	49 8b c3             	mov    %r11,%rax
   18000108b:	c3                   	retq   
   18000108c:	0f 1f 40 00          	nopl   0x0(%rax)
   180001090:	8a 04 0a             	mov    (%rdx,%rcx,1),%al
   180001093:	88 01                	mov    %al,(%rcx)
   180001095:	48 ff c1             	inc    %rcx
   180001098:	49 ff c8             	dec    %r8
   18000109b:	75 f3                	jne    0x180001090
   18000109d:	49 8b c3             	mov    %r11,%rax
   1800010a0:	c3                   	retq   
   1800010a1:	66 66 66 66 66 66 66 	data16 data16 data16 data16 data16 data16 nopw 0x0(%rax,%rax,1)
   1800010a8:	0f 1f 84 00 00 00 00 
   1800010af:	00 
   1800010b0:	66 66 66 90          	data16 data16 xchg %ax,%ax
   1800010b4:	66 66 90             	data16 xchg %ax,%ax
   1800010b7:	49 81 f9 00 20 00 00 	cmp    $0x2000,%r9
   1800010be:	73 42                	jae    0x180001102
   1800010c0:	48 8b 04 0a          	mov    (%rdx,%rcx,1),%rax
   1800010c4:	4c 8b 54 0a 08       	mov    0x8(%rdx,%rcx,1),%r10
   1800010c9:	48 83 c1 20          	add    $0x20,%rcx
   1800010cd:	48 89 41 e0          	mov    %rax,-0x20(%rcx)
   1800010d1:	4c 89 51 e8          	mov    %r10,-0x18(%rcx)
   1800010d5:	48 8b 44 0a f0       	mov    -0x10(%rdx,%rcx,1),%rax
   1800010da:	4c 8b 54 0a f8       	mov    -0x8(%rdx,%rcx,1),%r10
   1800010df:	49 ff c9             	dec    %r9
   1800010e2:	48 89 41 f0          	mov    %rax,-0x10(%rcx)
   1800010e6:	4c 89 51 f8          	mov    %r10,-0x8(%rcx)
   1800010ea:	75 d4                	jne    0x1800010c0
   1800010ec:	49 83 e0 1f          	and    $0x1f,%r8
   1800010f0:	e9 71 ff ff ff       	jmpq   0x180001066
   1800010f5:	66 66 66 0f 1f 84 00 	data16 data16 nopw 0x0(%rax,%rax,1)
   1800010fc:	00 00 00 00 
   180001100:	66 90                	xchg   %ax,%ax
   180001102:	48 81 fa 00 10 00 00 	cmp    $0x1000,%rdx
   180001109:	72 b5                	jb     0x1800010c0
   18000110b:	b8 20 00 00 00       	mov    $0x20,%eax
   180001110:	0f 18 04 0a          	prefetchnta (%rdx,%rcx,1)
   180001114:	0f 18 44 0a 40       	prefetchnta 0x40(%rdx,%rcx,1)
   180001119:	48 81 c1 80 00 00 00 	add    $0x80,%rcx
   180001120:	ff c8                	dec    %eax
   180001122:	75 ec                	jne    0x180001110
   180001124:	48 81 e9 00 10 00 00 	sub    $0x1000,%rcx
   18000112b:	b8 40 00 00 00       	mov    $0x40,%eax
   180001130:	4c 8b 0c 0a          	mov    (%rdx,%rcx,1),%r9
   180001134:	4c 8b 54 0a 08       	mov    0x8(%rdx,%rcx,1),%r10
   180001139:	4c 0f c3 09          	movnti %r9,(%rcx)
   18000113d:	4c 0f c3 51 08       	movnti %r10,0x8(%rcx)
   180001142:	4c 8b 4c 0a 10       	mov    0x10(%rdx,%rcx,1),%r9
   180001147:	4c 8b 54 0a 18       	mov    0x18(%rdx,%rcx,1),%r10
   18000114c:	4c 0f c3 49 10       	movnti %r9,0x10(%rcx)
   180001151:	4c 0f c3 51 18       	movnti %r10,0x18(%rcx)
   180001156:	4c 8b 4c 0a 20       	mov    0x20(%rdx,%rcx,1),%r9
   18000115b:	4c 8b 54 0a 28       	mov    0x28(%rdx,%rcx,1),%r10
   180001160:	48 83 c1 40          	add    $0x40,%rcx
   180001164:	4c 0f c3 49 e0       	movnti %r9,-0x20(%rcx)
   180001169:	4c 0f c3 51 e8       	movnti %r10,-0x18(%rcx)
   18000116e:	4c 8b 4c 0a f0       	mov    -0x10(%rdx,%rcx,1),%r9
   180001173:	4c 8b 54 0a f8       	mov    -0x8(%rdx,%rcx,1),%r10
   180001178:	ff c8                	dec    %eax
   18000117a:	4c 0f c3 49 f0       	movnti %r9,-0x10(%rcx)
   18000117f:	4c 0f c3 51 f8       	movnti %r10,-0x8(%rcx)
   180001184:	75 aa                	jne    0x180001130
   180001186:	49 81 e8 00 10 00 00 	sub    $0x1000,%r8
   18000118d:	49 81 f8 00 10 00 00 	cmp    $0x1000,%r8
   180001194:	0f 83 71 ff ff ff    	jae    0x18000110b
   18000119a:	f0 80 0c 24 00       	lock orb $0x0,(%rsp)
   18000119f:	e9 b9 fe ff ff       	jmpq   0x18000105d
   1800011a4:	66 66 66 66 0f 1f 84 	data16 data16 data16 nopw 0x0(%rax,%rax,1)
   1800011ab:	00 00 00 00 00 
   1800011b0:	66 66 66 90          	data16 data16 xchg %ax,%ax
   1800011b4:	66 66 66 90          	data16 data16 xchg %ax,%ax
   1800011b8:	66 90                	xchg   %ax,%ax
   1800011ba:	49 03 c8             	add    %r8,%rcx
   1800011bd:	49 83 f8 08          	cmp    $0x8,%r8
   1800011c1:	72 61                	jb     0x180001224
   1800011c3:	f6 c1 07             	test   $0x7,%cl
   1800011c6:	74 36                	je     0x1800011fe
   1800011c8:	f6 c1 01             	test   $0x1,%cl
   1800011cb:	74 0b                	je     0x1800011d8
   1800011cd:	48 ff c9             	dec    %rcx
   1800011d0:	8a 04 0a             	mov    (%rdx,%rcx,1),%al
   1800011d3:	49 ff c8             	dec    %r8
   1800011d6:	88 01                	mov    %al,(%rcx)
   1800011d8:	f6 c1 02             	test   $0x2,%cl
   1800011db:	74 0f                	je     0x1800011ec
   1800011dd:	48 83 e9 02          	sub    $0x2,%rcx
   1800011e1:	66 8b 04 0a          	mov    (%rdx,%rcx,1),%ax
   1800011e5:	49 83 e8 02          	sub    $0x2,%r8
   1800011e9:	66 89 01             	mov    %ax,(%rcx)
   1800011ec:	f6 c1 04             	test   $0x4,%cl
   1800011ef:	74 0d                	je     0x1800011fe
   1800011f1:	48 83 e9 04          	sub    $0x4,%rcx
   1800011f5:	8b 04 0a             	mov    (%rdx,%rcx,1),%eax
   1800011f8:	49 83 e8 04          	sub    $0x4,%r8
   1800011fc:	89 01                	mov    %eax,(%rcx)
   1800011fe:	4d 8b c8             	mov    %r8,%r9
   180001201:	49 c1 e9 05          	shr    $0x5,%r9
   180001205:	75 50                	jne    0x180001257
   180001207:	4d 8b c8             	mov    %r8,%r9
   18000120a:	49 c1 e9 03          	shr    $0x3,%r9
   18000120e:	74 14                	je     0x180001224
   180001210:	48 83 e9 08          	sub    $0x8,%rcx
   180001214:	48 8b 04 0a          	mov    (%rdx,%rcx,1),%rax
   180001218:	49 ff c9             	dec    %r9
   18000121b:	48 89 01             	mov    %rax,(%rcx)
   18000121e:	75 f0                	jne    0x180001210
   180001220:	49 83 e0 07          	and    $0x7,%r8
   180001224:	4d 85 c0             	test   %r8,%r8
   180001227:	75 07                	jne    0x180001230
   180001229:	49 8b c3             	mov    %r11,%rax
   18000122c:	c3                   	retq   
   18000122d:	0f 1f 00             	nopl   (%rax)
   180001230:	48 ff c9             	dec    %rcx
   180001233:	8a 04 0a             	mov    (%rdx,%rcx,1),%al
   180001236:	49 ff c8             	dec    %r8
   180001239:	88 01                	mov    %al,(%rcx)
   18000123b:	75 f3                	jne    0x180001230
   18000123d:	49 8b c3             	mov    %r11,%rax
   180001240:	c3                   	retq   
   180001241:	66 66 66 66 66 66 66 	data16 data16 data16 data16 data16 data16 nopw 0x0(%rax,%rax,1)
   180001248:	0f 1f 84 00 00 00 00 
   18000124f:	00 
   180001250:	66 66 66 90          	data16 data16 xchg %ax,%ax
   180001254:	66 66 90             	data16 xchg %ax,%ax
   180001257:	49 81 f9 00 20 00 00 	cmp    $0x2000,%r9
   18000125e:	73 42                	jae    0x1800012a2
   180001260:	48 8b 44 0a f8       	mov    -0x8(%rdx,%rcx,1),%rax
   180001265:	4c 8b 54 0a f0       	mov    -0x10(%rdx,%rcx,1),%r10
   18000126a:	48 83 e9 20          	sub    $0x20,%rcx
   18000126e:	48 89 41 18          	mov    %rax,0x18(%rcx)
   180001272:	4c 89 51 10          	mov    %r10,0x10(%rcx)
   180001276:	48 8b 44 0a 08       	mov    0x8(%rdx,%rcx,1),%rax
   18000127b:	4c 8b 14 0a          	mov    (%rdx,%rcx,1),%r10
   18000127f:	49 ff c9             	dec    %r9
   180001282:	48 89 41 08          	mov    %rax,0x8(%rcx)
   180001286:	4c 89 11             	mov    %r10,(%rcx)
   180001289:	75 d5                	jne    0x180001260
   18000128b:	49 83 e0 1f          	and    $0x1f,%r8
   18000128f:	e9 73 ff ff ff       	jmpq   0x180001207
   180001294:	66 66 66 66 0f 1f 84 	data16 data16 data16 nopw 0x0(%rax,%rax,1)
   18000129b:	00 00 00 00 00 
   1800012a0:	66 90                	xchg   %ax,%ax
   1800012a2:	48 81 fa 00 f0 ff ff 	cmp    $0xfffffffffffff000,%rdx
   1800012a9:	77 b5                	ja     0x180001260
   1800012ab:	b8 20 00 00 00       	mov    $0x20,%eax
   1800012b0:	48 81 e9 80 00 00 00 	sub    $0x80,%rcx
   1800012b7:	0f 18 04 0a          	prefetchnta (%rdx,%rcx,1)
   1800012bb:	0f 18 44 0a 40       	prefetchnta 0x40(%rdx,%rcx,1)
   1800012c0:	ff c8                	dec    %eax
   1800012c2:	75 ec                	jne    0x1800012b0
   1800012c4:	48 81 c1 00 10 00 00 	add    $0x1000,%rcx
   1800012cb:	b8 40 00 00 00       	mov    $0x40,%eax
   1800012d0:	4c 8b 4c 0a f8       	mov    -0x8(%rdx,%rcx,1),%r9
   1800012d5:	4c 8b 54 0a f0       	mov    -0x10(%rdx,%rcx,1),%r10
   1800012da:	4c 0f c3 49 f8       	movnti %r9,-0x8(%rcx)
   1800012df:	4c 0f c3 51 f0       	movnti %r10,-0x10(%rcx)
   1800012e4:	4c 8b 4c 0a e8       	mov    -0x18(%rdx,%rcx,1),%r9
   1800012e9:	4c 8b 54 0a e0       	mov    -0x20(%rdx,%rcx,1),%r10
   1800012ee:	4c 0f c3 49 e8       	movnti %r9,-0x18(%rcx)
   1800012f3:	4c 0f c3 51 e0       	movnti %r10,-0x20(%rcx)
   1800012f8:	4c 8b 4c 0a d8       	mov    -0x28(%rdx,%rcx,1),%r9
   1800012fd:	4c 8b 54 0a d0       	mov    -0x30(%rdx,%rcx,1),%r10
   180001302:	48 83 e9 40          	sub    $0x40,%rcx
   180001306:	4c 0f c3 49 18       	movnti %r9,0x18(%rcx)
   18000130b:	4c 0f c3 51 10       	movnti %r10,0x10(%rcx)
   180001310:	4c 8b 4c 0a 08       	mov    0x8(%rdx,%rcx,1),%r9
   180001315:	4c 8b 14 0a          	mov    (%rdx,%rcx,1),%r10
   180001319:	ff c8                	dec    %eax
   18000131b:	4c 0f c3 49 08       	movnti %r9,0x8(%rcx)
   180001320:	4c 0f c3 11          	movnti %r10,(%rcx)
   180001324:	75 aa                	jne    0x1800012d0
   180001326:	49 81 e8 00 10 00 00 	sub    $0x1000,%r8
   18000132d:	49 81 f8 00 10 00 00 	cmp    $0x1000,%r8
   180001334:	0f 83 71 ff ff ff    	jae    0x1800012ab
   18000133a:	f0 80 0c 24 00       	lock orb $0x0,(%rsp)
   18000133f:	e9 ba fe ff ff       	jmpq   0x1800011fe
   180001344:	89 4c 24 08          	mov    %ecx,0x8(%rsp)
   180001348:	48 83 ec 48          	sub    $0x48,%rsp
   18000134c:	48 c7 44 24 28 00 00 	movq   $0x0,0x28(%rsp)
   180001353:	00 00 
   180001355:	48 c7 44 24 20 00 00 	movq   $0x0,0x20(%rsp)
   18000135c:	00 00 
   18000135e:	4c 8d 4c 24 38       	lea    0x38(%rsp),%r9
   180001363:	45 33 c0             	xor    %r8d,%r8d
   180001366:	33 d2                	xor    %edx,%edx
   180001368:	48 c7 c1 02 00 00 80 	mov    $0xffffffff80000002,%rcx
   18000136f:	ff 15 8b 2c 00 00    	callq  *0x2c8b(%rip)        # 0x180004000
   180001375:	8b 4c 24 50          	mov    0x50(%rsp),%ecx
   180001379:	e8 22 28 00 00       	callq  0x180003ba0
   18000137e:	85 c0                	test   %eax,%eax
   180001380:	75 07                	jne    0x180001389
   180001382:	b8 43 06 00 00       	mov    $0x643,%eax
   180001387:	eb 59                	jmp    0x1800013e2
   180001389:	8b 4c 24 50          	mov    0x50(%rsp),%ecx
   18000138d:	e8 58 2b 00 00       	callq  0x180003eea
   180001392:	89 44 24 34          	mov    %eax,0x34(%rsp)
   180001396:	83 7c 24 34 00       	cmpl   $0x0,0x34(%rsp)
   18000139b:	75 07                	jne    0x1800013a4
   18000139d:	b8 42 06 00 00       	mov    $0x642,%eax
   1800013a2:	eb 3e                	jmp    0x1800013e2
   1800013a4:	c7 44 24 30 00 00 00 	movl   $0x0,0x30(%rsp)
   1800013ab:	00 
   1800013ac:	eb 0a                	jmp    0x1800013b8
   1800013ae:	8b 44 24 30          	mov    0x30(%rsp),%eax
   1800013b2:	ff c0                	inc    %eax
   1800013b4:	89 44 24 30          	mov    %eax,0x30(%rsp)
   1800013b8:	83 7c 24 30 0c       	cmpl   $0xc,0x30(%rsp)
   1800013bd:	7d 15                	jge    0x1800013d4
   1800013bf:	8b 54 24 30          	mov    0x30(%rsp),%edx
   1800013c3:	8b 4c 24 34          	mov    0x34(%rsp),%ecx
   1800013c7:	e8 04 29 00 00       	callq  0x180003cd0
   1800013cc:	85 c0                	test   %eax,%eax
   1800013ce:	75 02                	jne    0x1800013d2
   1800013d0:	eb 02                	jmp    0x1800013d4
   1800013d2:	eb da                	jmp    0x1800013ae
   1800013d4:	8b 4c 24 34          	mov    0x34(%rsp),%ecx
   1800013d8:	e8 e3 2a 00 00       	callq  0x180003ec0
   1800013dd:	b8 42 06 00 00       	mov    $0x642,%eax
   1800013e2:	48 83 c4 48          	add    $0x48,%rsp
   1800013e6:	c3                   	retq   
   1800013e7:	cc                   	int3   
   1800013e8:	44 89 44 24 18       	mov    %r8d,0x18(%rsp)
   1800013ed:	89 54 24 10          	mov    %edx,0x10(%rsp)
   1800013f1:	48 89 4c 24 08       	mov    %rcx,0x8(%rsp)
   1800013f6:	b8 01 00 00 00       	mov    $0x1,%eax
   1800013fb:	c3                   	retq   
   1800013fc:	4c 89 4c 24 20       	mov    %r9,0x20(%rsp)
   180001401:	4c 89 44 24 18       	mov    %r8,0x18(%rsp)
   180001406:	89 54 24 10          	mov    %edx,0x10(%rsp)
   18000140a:	48 89 4c 24 08       	mov    %rcx,0x8(%rsp)
   18000140f:	48 83 ec 48          	sub    $0x48,%rsp
   180001413:	33 d2                	xor    %edx,%edx
   180001415:	48 8b 44 24 60       	mov    0x60(%rsp),%rax
   18000141a:	b9 10 00 00 00       	mov    $0x10,%ecx
   18000141f:	48 f7 f1             	div    %rcx
   180001422:	48 8b c2             	mov    %rdx,%rax
   180001425:	48 85 c0             	test   %rax,%rax
   180001428:	74 0a                	je     0x180001434
   18000142a:	b8 da ff ff ff       	mov    $0xffffffda,%eax
   18000142f:	e9 87 01 00 00       	jmpq   0x1800015bb
   180001434:	83 7c 24 58 00       	cmpl   $0x0,0x58(%rsp)
   180001439:	0f 85 ca 00 00 00    	jne    0x180001509
   18000143f:	48 83 7c 24 60 00    	cmpq   $0x0,0x60(%rsp)
   180001445:	0f 86 b9 00 00 00    	jbe    0x180001504
   18000144b:	41 b8 10 00 00 00    	mov    $0x10,%r8d
   180001451:	48 8b 54 24 70       	mov    0x70(%rsp),%rdx
   180001456:	48 8d 4c 24 28       	lea    0x28(%rsp),%rcx
   18000145b:	e8 08 28 00 00       	callq  0x180003c68
   180001460:	4c 8b 4c 24 78       	mov    0x78(%rsp),%r9
   180001465:	4c 8b 44 24 70       	mov    0x70(%rsp),%r8
   18000146a:	8b 54 24 58          	mov    0x58(%rsp),%edx
   18000146e:	48 8b 4c 24 50       	mov    0x50(%rsp),%rcx
   180001473:	e8 48 01 00 00       	callq  0x1800015c0
   180001478:	c7 44 24 20 00 00 00 	movl   $0x0,0x20(%rsp)
   18000147f:	00 
   180001480:	eb 0a                	jmp    0x18000148c
   180001482:	8b 44 24 20          	mov    0x20(%rsp),%eax
   180001486:	ff c0                	inc    %eax
   180001488:	89 44 24 20          	mov    %eax,0x20(%rsp)
   18000148c:	83 7c 24 20 10       	cmpl   $0x10,0x20(%rsp)
   180001491:	7d 2d                	jge    0x1800014c0
   180001493:	48 63 44 24 20       	movslq 0x20(%rsp),%rax
   180001498:	48 8b 4c 24 78       	mov    0x78(%rsp),%rcx
   18000149d:	0f b6 04 01          	movzbl (%rcx,%rax,1),%eax
   1800014a1:	48 63 4c 24 20       	movslq 0x20(%rsp),%rcx
   1800014a6:	48 8b 54 24 68       	mov    0x68(%rsp),%rdx
   1800014ab:	0f b6 0c 0a          	movzbl (%rdx,%rcx,1),%ecx
   1800014af:	33 c1                	xor    %ecx,%eax
   1800014b1:	48 63 4c 24 20       	movslq 0x20(%rsp),%rcx
   1800014b6:	48 8b 54 24 78       	mov    0x78(%rsp),%rdx
   1800014bb:	88 04 0a             	mov    %al,(%rdx,%rcx,1)
   1800014be:	eb c2                	jmp    0x180001482
   1800014c0:	41 b8 10 00 00 00    	mov    $0x10,%r8d
   1800014c6:	48 8d 54 24 28       	lea    0x28(%rsp),%rdx
   1800014cb:	48 8b 4c 24 68       	mov    0x68(%rsp),%rcx
   1800014d0:	e8 93 27 00 00       	callq  0x180003c68
   1800014d5:	48 8b 44 24 70       	mov    0x70(%rsp),%rax
   1800014da:	48 83 c0 10          	add    $0x10,%rax
   1800014de:	48 89 44 24 70       	mov    %rax,0x70(%rsp)
   1800014e3:	48 8b 44 24 78       	mov    0x78(%rsp),%rax
   1800014e8:	48 83 c0 10          	add    $0x10,%rax
   1800014ec:	48 89 44 24 78       	mov    %rax,0x78(%rsp)
   1800014f1:	48 8b 44 24 60       	mov    0x60(%rsp),%rax
   1800014f6:	48 83 e8 10          	sub    $0x10,%rax
   1800014fa:	48 89 44 24 60       	mov    %rax,0x60(%rsp)
   1800014ff:	e9 3b ff ff ff       	jmpq   0x18000143f
   180001504:	e9 b0 00 00 00       	jmpq   0x1800015b9
   180001509:	48 83 7c 24 60 00    	cmpq   $0x0,0x60(%rsp)
   18000150f:	0f 86 a4 00 00 00    	jbe    0x1800015b9
   180001515:	c7 44 24 20 00 00 00 	movl   $0x0,0x20(%rsp)
   18000151c:	00 
   18000151d:	eb 0a                	jmp    0x180001529
   18000151f:	8b 44 24 20          	mov    0x20(%rsp),%eax
   180001523:	ff c0                	inc    %eax
   180001525:	89 44 24 20          	mov    %eax,0x20(%rsp)
   180001529:	83 7c 24 20 10       	cmpl   $0x10,0x20(%rsp)
   18000152e:	7d 2d                	jge    0x18000155d
   180001530:	48 63 44 24 20       	movslq 0x20(%rsp),%rax
   180001535:	48 8b 4c 24 70       	mov    0x70(%rsp),%rcx
   18000153a:	0f b6 04 01          	movzbl (%rcx,%rax,1),%eax
   18000153e:	48 63 4c 24 20       	movslq 0x20(%rsp),%rcx
   180001543:	48 8b 54 24 68       	mov    0x68(%rsp),%rdx
   180001548:	0f b6 0c 0a          	movzbl (%rdx,%rcx,1),%ecx
   18000154c:	33 c1                	xor    %ecx,%eax
   18000154e:	48 63 4c 24 20       	movslq 0x20(%rsp),%rcx
   180001553:	48 8b 54 24 78       	mov    0x78(%rsp),%rdx
   180001558:	88 04 0a             	mov    %al,(%rdx,%rcx,1)
   18000155b:	eb c2                	jmp    0x18000151f
   18000155d:	4c 8b 4c 24 78       	mov    0x78(%rsp),%r9
   180001562:	4c 8b 44 24 78       	mov    0x78(%rsp),%r8
   180001567:	8b 54 24 58          	mov    0x58(%rsp),%edx
   18000156b:	48 8b 4c 24 50       	mov    0x50(%rsp),%rcx
   180001570:	e8 4b 00 00 00       	callq  0x1800015c0
   180001575:	41 b8 10 00 00 00    	mov    $0x10,%r8d
   18000157b:	48 8b 54 24 78       	mov    0x78(%rsp),%rdx
   180001580:	48 8b 4c 24 68       	mov    0x68(%rsp),%rcx
   180001585:	e8 de 26 00 00       	callq  0x180003c68
   18000158a:	48 8b 44 24 70       	mov    0x70(%rsp),%rax
   18000158f:	48 83 c0 10          	add    $0x10,%rax
   180001593:	48 89 44 24 70       	mov    %rax,0x70(%rsp)
   180001598:	48 8b 44 24 78       	mov    0x78(%rsp),%rax
   18000159d:	48 83 c0 10          	add    $0x10,%rax
   1800015a1:	48 89 44 24 78       	mov    %rax,0x78(%rsp)
   1800015a6:	48 8b 44 24 60       	mov    0x60(%rsp),%rax
   1800015ab:	48 83 e8 10          	sub    $0x10,%rax
   1800015af:	48 89 44 24 60       	mov    %rax,0x60(%rsp)
   1800015b4:	e9 50 ff ff ff       	jmpq   0x180001509
   1800015b9:	33 c0                	xor    %eax,%eax
   1800015bb:	48 83 c4 48          	add    $0x48,%rsp
   1800015bf:	c3                   	retq   
   1800015c0:	4c 89 4c 24 20       	mov    %r9,0x20(%rsp)
   1800015c5:	4c 89 44 24 18       	mov    %r8,0x18(%rsp)
   1800015ca:	89 54 24 10          	mov    %edx,0x10(%rsp)
   1800015ce:	48 89 4c 24 08       	mov    %rcx,0x8(%rsp)
   1800015d3:	48 83 ec 48          	sub    $0x48,%rsp
   1800015d7:	48 8b 44 24 50       	mov    0x50(%rsp),%rax
   1800015dc:	8b 00                	mov    (%rax),%eax
   1800015de:	89 44 24 20          	mov    %eax,0x20(%rsp)
   1800015e2:	48 8b 44 24 50       	mov    0x50(%rsp),%rax
   1800015e7:	48 83 c0 04          	add    $0x4,%rax
   1800015eb:	48 89 44 24 28       	mov    %rax,0x28(%rsp)
   1800015f0:	b8 01 00 00 00       	mov    $0x1,%eax
   1800015f5:	48 6b c0 00          	imul   $0x0,%rax,%rax
   1800015f9:	48 8b 4c 24 60       	mov    0x60(%rsp),%rcx
   1800015fe:	0f b6 04 01          	movzbl (%rcx,%rax,1),%eax
   180001602:	c1 e0 18             	shl    $0x18,%eax
   180001605:	b9 01 00 00 00       	mov    $0x1,%ecx
   18000160a:	48 6b c9 01          	imul   $0x1,%rcx,%rcx
   18000160e:	48 8b 54 24 60       	mov    0x60(%rsp),%rdx
   180001613:	0f b6 0c 0a          	movzbl (%rdx,%rcx,1),%ecx
   180001617:	c1 e1 10             	shl    $0x10,%ecx
   18000161a:	0b c1                	or     %ecx,%eax
   18000161c:	b9 01 00 00 00       	mov    $0x1,%ecx
   180001621:	48 6b c9 02          	imul   $0x2,%rcx,%rcx
   180001625:	48 8b 54 24 60       	mov    0x60(%rsp),%rdx
   18000162a:	0f b6 0c 0a          	movzbl (%rdx,%rcx,1),%ecx
   18000162e:	c1 e1 08             	shl    $0x8,%ecx
   180001631:	0b c1                	or     %ecx,%eax
   180001633:	b9 01 00 00 00       	mov    $0x1,%ecx
   180001638:	48 6b c9 03          	imul   $0x3,%rcx,%rcx
   18000163c:	48 8b 54 24 60       	mov    0x60(%rsp),%rdx
   180001641:	0f b6 0c 0a          	movzbl (%rdx,%rcx,1),%ecx
   180001645:	0b c1                	or     %ecx,%eax
   180001647:	b9 04 00 00 00       	mov    $0x4,%ecx
   18000164c:	48 6b c9 00          	imul   $0x0,%rcx,%rcx
   180001650:	89 44 0c 30          	mov    %eax,0x30(%rsp,%rcx,1)
   180001654:	b8 01 00 00 00       	mov    $0x1,%eax
   180001659:	48 6b c0 04          	imul   $0x4,%rax,%rax
   18000165d:	48 8b 4c 24 60       	mov    0x60(%rsp),%rcx
   180001662:	0f b6 04 01          	movzbl (%rcx,%rax,1),%eax
   180001666:	c1 e0 18             	shl    $0x18,%eax
   180001669:	b9 01 00 00 00       	mov    $0x1,%ecx
   18000166e:	48 6b c9 05          	imul   $0x5,%rcx,%rcx
   180001672:	48 8b 54 24 60       	mov    0x60(%rsp),%rdx
   180001677:	0f b6 0c 0a          	movzbl (%rdx,%rcx,1),%ecx
   18000167b:	c1 e1 10             	shl    $0x10,%ecx
   18000167e:	0b c1                	or     %ecx,%eax
   180001680:	b9 01 00 00 00       	mov    $0x1,%ecx
   180001685:	48 6b c9 06          	imul   $0x6,%rcx,%rcx
   180001689:	48 8b 54 24 60       	mov    0x60(%rsp),%rdx
   18000168e:	0f b6 0c 0a          	movzbl (%rdx,%rcx,1),%ecx
   180001692:	c1 e1 08             	shl    $0x8,%ecx
   180001695:	0b c1                	or     %ecx,%eax
   180001697:	b9 01 00 00 00       	mov    $0x1,%ecx
   18000169c:	48 6b c9 07          	imul   $0x7,%rcx,%rcx
   1800016a0:	48 8b 54 24 60       	mov    0x60(%rsp),%rdx
   1800016a5:	0f b6 0c 0a          	movzbl (%rdx,%rcx,1),%ecx
   1800016a9:	0b c1                	or     %ecx,%eax
   1800016ab:	b9 04 00 00 00       	mov    $0x4,%ecx
   1800016b0:	48 6b c9 01          	imul   $0x1,%rcx,%rcx
   1800016b4:	89 44 0c 30          	mov    %eax,0x30(%rsp,%rcx,1)
   1800016b8:	b8 01 00 00 00       	mov    $0x1,%eax
   1800016bd:	48 6b c0 08          	imul   $0x8,%rax,%rax
   1800016c1:	48 8b 4c 24 60       	mov    0x60(%rsp),%rcx
   1800016c6:	0f b6 04 01          	movzbl (%rcx,%rax,1),%eax
   1800016ca:	c1 e0 18             	shl    $0x18,%eax
   1800016cd:	b9 01 00 00 00       	mov    $0x1,%ecx
   1800016d2:	48 6b c9 09          	imul   $0x9,%rcx,%rcx
   1800016d6:	48 8b 54 24 60       	mov    0x60(%rsp),%rdx
   1800016db:	0f b6 0c 0a          	movzbl (%rdx,%rcx,1),%ecx
   1800016df:	c1 e1 10             	shl    $0x10,%ecx
   1800016e2:	0b c1                	or     %ecx,%eax
   1800016e4:	b9 01 00 00 00       	mov    $0x1,%ecx
   1800016e9:	48 6b c9 0a          	imul   $0xa,%rcx,%rcx
   1800016ed:	48 8b 54 24 60       	mov    0x60(%rsp),%rdx
   1800016f2:	0f b6 0c 0a          	movzbl (%rdx,%rcx,1),%ecx
   1800016f6:	c1 e1 08             	shl    $0x8,%ecx
   1800016f9:	0b c1                	or     %ecx,%eax
   1800016fb:	b9 01 00 00 00       	mov    $0x1,%ecx
   180001700:	48 6b c9 0b          	imul   $0xb,%rcx,%rcx
   180001704:	48 8b 54 24 60       	mov    0x60(%rsp),%rdx
   180001709:	0f b6 0c 0a          	movzbl (%rdx,%rcx,1),%ecx
   18000170d:	0b c1                	or     %ecx,%eax
   18000170f:	b9 04 00 00 00       	mov    $0x4,%ecx
   180001714:	48 6b c9 02          	imul   $0x2,%rcx,%rcx
   180001718:	89 44 0c 30          	mov    %eax,0x30(%rsp,%rcx,1)
   18000171c:	b8 01 00 00 00       	mov    $0x1,%eax
   180001721:	48 6b c0 0c          	imul   $0xc,%rax,%rax
   180001725:	48 8b 4c 24 60       	mov    0x60(%rsp),%rcx
   18000172a:	0f b6 04 01          	movzbl (%rcx,%rax,1),%eax
   18000172e:	c1 e0 18             	shl    $0x18,%eax
   180001731:	b9 01 00 00 00       	mov    $0x1,%ecx
   180001736:	48 6b c9 0d          	imul   $0xd,%rcx,%rcx
   18000173a:	48 8b 54 24 60       	mov    0x60(%rsp),%rdx
   18000173f:	0f b6 0c 0a          	movzbl (%rdx,%rcx,1),%ecx
   180001743:	c1 e1 10             	shl    $0x10,%ecx
   180001746:	0b c1                	or     %ecx,%eax
   180001748:	b9 01 00 00 00       	mov    $0x1,%ecx
   18000174d:	48 6b c9 0e          	imul   $0xe,%rcx,%rcx
   180001751:	48 8b 54 24 60       	mov    0x60(%rsp),%rdx
   180001756:	0f b6 0c 0a          	movzbl (%rdx,%rcx,1),%ecx
   18000175a:	c1 e1 08             	shl    $0x8,%ecx
   18000175d:	0b c1                	or     %ecx,%eax
   18000175f:	b9 01 00 00 00       	mov    $0x1,%ecx
   180001764:	48 6b c9 0f          	imul   $0xf,%rcx,%rcx
   180001768:	48 8b 54 24 60       	mov    0x60(%rsp),%rdx
   18000176d:	0f b6 0c 0a          	movzbl (%rdx,%rcx,1),%ecx
   180001771:	0b c1                	or     %ecx,%eax
   180001773:	b9 04 00 00 00       	mov    $0x4,%ecx
   180001778:	48 6b c9 03          	imul   $0x3,%rcx,%rcx
   18000177c:	89 44 0c 30          	mov    %eax,0x30(%rsp,%rcx,1)
   180001780:	b8 04 00 00 00       	mov    $0x4,%eax
   180001785:	48 6b c0 00          	imul   $0x0,%rax,%rax
   180001789:	48 8b 4c 24 28       	mov    0x28(%rsp),%rcx
   18000178e:	8b 09                	mov    (%rcx),%ecx
   180001790:	8b 44 04 30          	mov    0x30(%rsp,%rax,1),%eax
   180001794:	33 c1                	xor    %ecx,%eax
   180001796:	b9 04 00 00 00       	mov    $0x4,%ecx
   18000179b:	48 6b c9 00          	imul   $0x0,%rcx,%rcx
   18000179f:	89 44 0c 30          	mov    %eax,0x30(%rsp,%rcx,1)
   1800017a3:	48 8b 44 24 28       	mov    0x28(%rsp),%rax
   1800017a8:	48 83 c0 04          	add    $0x4,%rax
   1800017ac:	48 89 44 24 28       	mov    %rax,0x28(%rsp)
   1800017b1:	b8 04 00 00 00       	mov    $0x4,%eax
   1800017b6:	48 6b c0 01          	imul   $0x1,%rax,%rax
   1800017ba:	48 8b 4c 24 28       	mov    0x28(%rsp),%rcx
   1800017bf:	8b 09                	mov    (%rcx),%ecx
   1800017c1:	8b 44 04 30          	mov    0x30(%rsp,%rax,1),%eax
   1800017c5:	33 c1                	xor    %ecx,%eax
   1800017c7:	b9 04 00 00 00       	mov    $0x4,%ecx
   1800017cc:	48 6b c9 01          	imul   $0x1,%rcx,%rcx
   1800017d0:	89 44 0c 30          	mov    %eax,0x30(%rsp,%rcx,1)
   1800017d4:	48 8b 44 24 28       	mov    0x28(%rsp),%rax
   1800017d9:	48 83 c0 04          	add    $0x4,%rax
   1800017dd:	48 89 44 24 28       	mov    %rax,0x28(%rsp)
   1800017e2:	b8 04 00 00 00       	mov    $0x4,%eax
   1800017e7:	48 6b c0 02          	imul   $0x2,%rax,%rax
   1800017eb:	48 8b 4c 24 28       	mov    0x28(%rsp),%rcx
   1800017f0:	8b 09                	mov    (%rcx),%ecx
   1800017f2:	8b 44 04 30          	mov    0x30(%rsp,%rax,1),%eax
   1800017f6:	33 c1                	xor    %ecx,%eax
   1800017f8:	b9 04 00 00 00       	mov    $0x4,%ecx
   1800017fd:	48 6b c9 02          	imul   $0x2,%rcx,%rcx
   180001801:	89 44 0c 30          	mov    %eax,0x30(%rsp,%rcx,1)
   180001805:	48 8b 44 24 28       	mov    0x28(%rsp),%rax
   18000180a:	48 83 c0 04          	add    $0x4,%rax
   18000180e:	48 89 44 24 28       	mov    %rax,0x28(%rsp)
   180001813:	b8 04 00 00 00       	mov    $0x4,%eax
   180001818:	48 6b c0 03          	imul   $0x3,%rax,%rax
   18000181c:	48 8b 4c 24 28       	mov    0x28(%rsp),%rcx
   180001821:	8b 09                	mov    (%rcx),%ecx
   180001823:	8b 44 04 30          	mov    0x30(%rsp,%rax,1),%eax
   180001827:	33 c1                	xor    %ecx,%eax
   180001829:	b9 04 00 00 00       	mov    $0x4,%ecx
   18000182e:	48 6b c9 03          	imul   $0x3,%rcx,%rcx
   180001832:	89 44 0c 30          	mov    %eax,0x30(%rsp,%rcx,1)
   180001836:	48 8b 44 24 28       	mov    0x28(%rsp),%rax
   18000183b:	48 83 c0 04          	add    $0x4,%rax
   18000183f:	48 89 44 24 28       	mov    %rax,0x28(%rsp)
   180001844:	83 7c 24 20 00       	cmpl   $0x0,0x20(%rsp)
   180001849:	0f 84 4c 02 00 00    	je     0x180001a9b
   18000184f:	8b 44 24 20          	mov    0x20(%rsp),%eax
   180001853:	ff c8                	dec    %eax
   180001855:	89 44 24 20          	mov    %eax,0x20(%rsp)
   180001859:	48 8d 44 24 38       	lea    0x38(%rsp),%rax
   18000185e:	4c 8b c0             	mov    %rax,%r8
   180001861:	48 8b 54 24 28       	mov    0x28(%rsp),%rdx
   180001866:	48 8d 4c 24 30       	lea    0x30(%rsp),%rcx
   18000186b:	e8 fc 04 00 00       	callq  0x180001d6c
   180001870:	48 8b 44 24 28       	mov    0x28(%rsp),%rax
   180001875:	48 83 c0 08          	add    $0x8,%rax
   180001879:	48 89 44 24 28       	mov    %rax,0x28(%rsp)
   18000187e:	48 8d 44 24 38       	lea    0x38(%rsp),%rax
   180001883:	4c 8d 44 24 30       	lea    0x30(%rsp),%r8
   180001888:	48 8b 54 24 28       	mov    0x28(%rsp),%rdx
   18000188d:	48 8b c8             	mov    %rax,%rcx
   180001890:	e8 d7 04 00 00       	callq  0x180001d6c
   180001895:	48 8b 44 24 28       	mov    0x28(%rsp),%rax
   18000189a:	48 83 c0 08          	add    $0x8,%rax
   18000189e:	48 89 44 24 28       	mov    %rax,0x28(%rsp)
   1800018a3:	48 8d 44 24 38       	lea    0x38(%rsp),%rax
   1800018a8:	4c 8b c0             	mov    %rax,%r8
   1800018ab:	48 8b 54 24 28       	mov    0x28(%rsp),%rdx
   1800018b0:	48 8d 4c 24 30       	lea    0x30(%rsp),%rcx
   1800018b5:	e8 b2 04 00 00       	callq  0x180001d6c
   1800018ba:	48 8b 44 24 28       	mov    0x28(%rsp),%rax
   1800018bf:	48 83 c0 08          	add    $0x8,%rax
   1800018c3:	48 89 44 24 28       	mov    %rax,0x28(%rsp)
   1800018c8:	48 8d 44 24 38       	lea    0x38(%rsp),%rax
   1800018cd:	4c 8d 44 24 30       	lea    0x30(%rsp),%r8
   1800018d2:	48 8b 54 24 28       	mov    0x28(%rsp),%rdx
   1800018d7:	48 8b c8             	mov    %rax,%rcx
   1800018da:	e8 8d 04 00 00       	callq  0x180001d6c
   1800018df:	48 8b 44 24 28       	mov    0x28(%rsp),%rax
   1800018e4:	48 83 c0 08          	add    $0x8,%rax
   1800018e8:	48 89 44 24 28       	mov    %rax,0x28(%rsp)
   1800018ed:	48 8d 44 24 38       	lea    0x38(%rsp),%rax
   1800018f2:	4c 8b c0             	mov    %rax,%r8
   1800018f5:	48 8b 54 24 28       	mov    0x28(%rsp),%rdx
   1800018fa:	48 8d 4c 24 30       	lea    0x30(%rsp),%rcx
   1800018ff:	e8 68 04 00 00       	callq  0x180001d6c
   180001904:	48 8b 44 24 28       	mov    0x28(%rsp),%rax
   180001909:	48 83 c0 08          	add    $0x8,%rax
   18000190d:	48 89 44 24 28       	mov    %rax,0x28(%rsp)
   180001912:	48 8d 44 24 38       	lea    0x38(%rsp),%rax
   180001917:	4c 8d 44 24 30       	lea    0x30(%rsp),%r8
   18000191c:	48 8b 54 24 28       	mov    0x28(%rsp),%rdx
   180001921:	48 8b c8             	mov    %rax,%rcx
   180001924:	e8 43 04 00 00       	callq  0x180001d6c
   180001929:	48 8b 44 24 28       	mov    0x28(%rsp),%rax
   18000192e:	48 83 c0 08          	add    $0x8,%rax
   180001932:	48 89 44 24 28       	mov    %rax,0x28(%rsp)
   180001937:	83 7c 24 20 00       	cmpl   $0x0,0x20(%rsp)
   18000193c:	0f 84 54 01 00 00    	je     0x180001a96
   180001942:	b8 04 00 00 00       	mov    $0x4,%eax
   180001947:	48 6b c0 00          	imul   $0x0,%rax,%rax
   18000194b:	b9 04 00 00 00       	mov    $0x4,%ecx
   180001950:	48 6b c9 00          	imul   $0x0,%rcx,%rcx
   180001954:	48 8b 54 24 28       	mov    0x28(%rsp),%rdx
   180001959:	8b 0c 0a             	mov    (%rdx,%rcx,1),%ecx
   18000195c:	8b 44 04 30          	mov    0x30(%rsp,%rax,1),%eax
   180001960:	23 c1                	and    %ecx,%eax
   180001962:	d1 e0                	shl    %eax
   180001964:	b9 04 00 00 00       	mov    $0x4,%ecx
   180001969:	48 6b c9 00          	imul   $0x0,%rcx,%rcx
   18000196d:	ba 04 00 00 00       	mov    $0x4,%edx
   180001972:	48 6b d2 00          	imul   $0x0,%rdx,%rdx
   180001976:	4c 8b 44 24 28       	mov    0x28(%rsp),%r8
   18000197b:	41 8b 14 10          	mov    (%r8,%rdx,1),%edx
   18000197f:	8b 4c 0c 30          	mov    0x30(%rsp,%rcx,1),%ecx
   180001983:	23 ca                	and    %edx,%ecx
   180001985:	c1 e9 1f             	shr    $0x1f,%ecx
   180001988:	0b c1                	or     %ecx,%eax
   18000198a:	b9 04 00 00 00       	mov    $0x4,%ecx
   18000198f:	48 6b c9 01          	imul   $0x1,%rcx,%rcx
   180001993:	33 44 0c 30          	xor    0x30(%rsp,%rcx,1),%eax
   180001997:	b9 04 00 00 00       	mov    $0x4,%ecx
   18000199c:	48 6b c9 01          	imul   $0x1,%rcx,%rcx
   1800019a0:	89 44 0c 30          	mov    %eax,0x30(%rsp,%rcx,1)
   1800019a4:	b8 04 00 00 00       	mov    $0x4,%eax
   1800019a9:	48 6b c0 01          	imul   $0x1,%rax,%rax
   1800019ad:	b9 04 00 00 00       	mov    $0x4,%ecx
   1800019b2:	48 6b c9 01          	imul   $0x1,%rcx,%rcx
   1800019b6:	48 8b 54 24 28       	mov    0x28(%rsp),%rdx
   1800019bb:	8b 0c 0a             	mov    (%rdx,%rcx,1),%ecx
   1800019be:	8b 44 04 30          	mov    0x30(%rsp,%rax,1),%eax
   1800019c2:	0b c1                	or     %ecx,%eax
   1800019c4:	b9 04 00 00 00       	mov    $0x4,%ecx
   1800019c9:	48 6b c9 00          	imul   $0x0,%rcx,%rcx
   1800019cd:	33 44 0c 30          	xor    0x30(%rsp,%rcx,1),%eax
   1800019d1:	b9 04 00 00 00       	mov    $0x4,%ecx
   1800019d6:	48 6b c9 00          	imul   $0x0,%rcx,%rcx
   1800019da:	89 44 0c 30          	mov    %eax,0x30(%rsp,%rcx,1)
   1800019de:	48 8b 44 24 28       	mov    0x28(%rsp),%rax
   1800019e3:	48 83 c0 08          	add    $0x8,%rax
   1800019e7:	48 89 44 24 28       	mov    %rax,0x28(%rsp)
   1800019ec:	b8 04 00 00 00       	mov    $0x4,%eax
   1800019f1:	48 6b c0 03          	imul   $0x3,%rax,%rax
   1800019f5:	b9 04 00 00 00       	mov    $0x4,%ecx
   1800019fa:	48 6b c9 01          	imul   $0x1,%rcx,%rcx
   1800019fe:	48 8b 54 24 28       	mov    0x28(%rsp),%rdx
   180001a03:	8b 0c 0a             	mov    (%rdx,%rcx,1),%ecx
   180001a06:	8b 44 04 30          	mov    0x30(%rsp,%rax,1),%eax
   180001a0a:	0b c1                	or     %ecx,%eax
   180001a0c:	b9 04 00 00 00       	mov    $0x4,%ecx
   180001a11:	48 6b c9 02          	imul   $0x2,%rcx,%rcx
   180001a15:	33 44 0c 30          	xor    0x30(%rsp,%rcx,1),%eax
   180001a19:	b9 04 00 00 00       	mov    $0x4,%ecx
   180001a1e:	48 6b c9 02          	imul   $0x2,%rcx,%rcx
   180001a22:	89 44 0c 30          	mov    %eax,0x30(%rsp,%rcx,1)
   180001a26:	b8 04 00 00 00       	mov    $0x4,%eax
   180001a2b:	48 6b c0 02          	imul   $0x2,%rax,%rax
   180001a2f:	b9 04 00 00 00       	mov    $0x4,%ecx
   180001a34:	48 6b c9 00          	imul   $0x0,%rcx,%rcx
   180001a38:	48 8b 54 24 28       	mov    0x28(%rsp),%rdx
   180001a3d:	8b 0c 0a             	mov    (%rdx,%rcx,1),%ecx
   180001a40:	8b 44 04 30          	mov    0x30(%rsp,%rax,1),%eax
   180001a44:	23 c1                	and    %ecx,%eax
   180001a46:	d1 e0                	shl    %eax
   180001a48:	b9 04 00 00 00       	mov    $0x4,%ecx
   180001a4d:	48 6b c9 02          	imul   $0x2,%rcx,%rcx
   180001a51:	ba 04 00 00 00       	mov    $0x4,%edx
   180001a56:	48 6b d2 00          	imul   $0x0,%rdx,%rdx
   180001a5a:	4c 8b 44 24 28       	mov    0x28(%rsp),%r8
   180001a5f:	41 8b 14 10          	mov    (%r8,%rdx,1),%edx
   180001a63:	8b 4c 0c 30          	mov    0x30(%rsp,%rcx,1),%ecx
   180001a67:	23 ca                	and    %edx,%ecx
   180001a69:	c1 e9 1f             	shr    $0x1f,%ecx
   180001a6c:	0b c1                	or     %ecx,%eax
   180001a6e:	b9 04 00 00 00       	mov    $0x4,%ecx
   180001a73:	48 6b c9 03          	imul   $0x3,%rcx,%rcx
   180001a77:	33 44 0c 30          	xor    0x30(%rsp,%rcx,1),%eax
   180001a7b:	b9 04 00 00 00       	mov    $0x4,%ecx
   180001a80:	48 6b c9 03          	imul   $0x3,%rcx,%rcx
   180001a84:	89 44 0c 30          	mov    %eax,0x30(%rsp,%rcx,1)
   180001a88:	48 8b 44 24 28       	mov    0x28(%rsp),%rax
   180001a8d:	48 83 c0 08          	add    $0x8,%rax
   180001a91:	48 89 44 24 28       	mov    %rax,0x28(%rsp)
   180001a96:	e9 a9 fd ff ff       	jmpq   0x180001844
   180001a9b:	b8 04 00 00 00       	mov    $0x4,%eax
   180001aa0:	48 6b c0 02          	imul   $0x2,%rax,%rax
   180001aa4:	48 8b 4c 24 28       	mov    0x28(%rsp),%rcx
   180001aa9:	8b 09                	mov    (%rcx),%ecx
   180001aab:	8b 44 04 30          	mov    0x30(%rsp,%rax,1),%eax
   180001aaf:	33 c1                	xor    %ecx,%eax
   180001ab1:	b9 04 00 00 00       	mov    $0x4,%ecx
   180001ab6:	48 6b c9 02          	imul   $0x2,%rcx,%rcx
   180001aba:	89 44 0c 30          	mov    %eax,0x30(%rsp,%rcx,1)
   180001abe:	48 8b 44 24 28       	mov    0x28(%rsp),%rax
   180001ac3:	48 83 c0 04          	add    $0x4,%rax
   180001ac7:	48 89 44 24 28       	mov    %rax,0x28(%rsp)
   180001acc:	b8 04 00 00 00       	mov    $0x4,%eax
   180001ad1:	48 6b c0 03          	imul   $0x3,%rax,%rax
   180001ad5:	48 8b 4c 24 28       	mov    0x28(%rsp),%rcx
   180001ada:	8b 09                	mov    (%rcx),%ecx
   180001adc:	8b 44 04 30          	mov    0x30(%rsp,%rax,1),%eax
   180001ae0:	33 c1                	xor    %ecx,%eax
   180001ae2:	b9 04 00 00 00       	mov    $0x4,%ecx
   180001ae7:	48 6b c9 03          	imul   $0x3,%rcx,%rcx
   180001aeb:	89 44 0c 30          	mov    %eax,0x30(%rsp,%rcx,1)
   180001aef:	48 8b 44 24 28       	mov    0x28(%rsp),%rax
   180001af4:	48 83 c0 04          	add    $0x4,%rax
   180001af8:	48 89 44 24 28       	mov    %rax,0x28(%rsp)
   180001afd:	b8 04 00 00 00       	mov    $0x4,%eax
   180001b02:	48 6b c0 00          	imul   $0x0,%rax,%rax
   180001b06:	48 8b 4c 24 28       	mov    0x28(%rsp),%rcx
   180001b0b:	8b 09                	mov    (%rcx),%ecx
   180001b0d:	8b 44 04 30          	mov    0x30(%rsp,%rax,1),%eax
   180001b11:	33 c1                	xor    %ecx,%eax
   180001b13:	b9 04 00 00 00       	mov    $0x4,%ecx
   180001b18:	48 6b c9 00          	imul   $0x0,%rcx,%rcx
   180001b1c:	89 44 0c 30          	mov    %eax,0x30(%rsp,%rcx,1)
   180001b20:	48 8b 44 24 28       	mov    0x28(%rsp),%rax
   180001b25:	48 83 c0 04          	add    $0x4,%rax
   180001b29:	48 89 44 24 28       	mov    %rax,0x28(%rsp)
   180001b2e:	b8 04 00 00 00       	mov    $0x4,%eax
   180001b33:	48 6b c0 01          	imul   $0x1,%rax,%rax
   180001b37:	48 8b 4c 24 28       	mov    0x28(%rsp),%rcx
   180001b3c:	8b 09                	mov    (%rcx),%ecx
   180001b3e:	8b 44 04 30          	mov    0x30(%rsp,%rax,1),%eax
   180001b42:	33 c1                	xor    %ecx,%eax
   180001b44:	b9 04 00 00 00       	mov    $0x4,%ecx
   180001b49:	48 6b c9 01          	imul   $0x1,%rcx,%rcx
   180001b4d:	89 44 0c 30          	mov    %eax,0x30(%rsp,%rcx,1)
   180001b51:	48 8b 44 24 28       	mov    0x28(%rsp),%rax
   180001b56:	48 83 c0 04          	add    $0x4,%rax
   180001b5a:	48 89 44 24 28       	mov    %rax,0x28(%rsp)
   180001b5f:	b8 04 00 00 00       	mov    $0x4,%eax
   180001b64:	48 6b c0 02          	imul   $0x2,%rax,%rax
   180001b68:	8b 44 04 30          	mov    0x30(%rsp,%rax,1),%eax
   180001b6c:	c1 e8 18             	shr    $0x18,%eax
   180001b6f:	b9 01 00 00 00       	mov    $0x1,%ecx
   180001b74:	48 6b c9 00          	imul   $0x0,%rcx,%rcx
   180001b78:	48 8b 54 24 68       	mov    0x68(%rsp),%rdx
   180001b7d:	88 04 0a             	mov    %al,(%rdx,%rcx,1)
   180001b80:	b8 04 00 00 00       	mov    $0x4,%eax
   180001b85:	48 6b c0 02          	imul   $0x2,%rax,%rax
   180001b89:	8b 44 04 30          	mov    0x30(%rsp,%rax,1),%eax
   180001b8d:	c1 e8 10             	shr    $0x10,%eax
   180001b90:	b9 01 00 00 00       	mov    $0x1,%ecx
   180001b95:	48 6b c9 01          	imul   $0x1,%rcx,%rcx
   180001b99:	48 8b 54 24 68       	mov    0x68(%rsp),%rdx
   180001b9e:	88 04 0a             	mov    %al,(%rdx,%rcx,1)
   180001ba1:	b8 04 00 00 00       	mov    $0x4,%eax
   180001ba6:	48 6b c0 02          	imul   $0x2,%rax,%rax
   180001baa:	8b 44 04 30          	mov    0x30(%rsp,%rax,1),%eax
   180001bae:	c1 e8 08             	shr    $0x8,%eax
   180001bb1:	b9 01 00 00 00       	mov    $0x1,%ecx
   180001bb6:	48 6b c9 02          	imul   $0x2,%rcx,%rcx
   180001bba:	48 8b 54 24 68       	mov    0x68(%rsp),%rdx
   180001bbf:	88 04 0a             	mov    %al,(%rdx,%rcx,1)
   180001bc2:	b8 04 00 00 00       	mov    $0x4,%eax
   180001bc7:	48 6b c0 02          	imul   $0x2,%rax,%rax
   180001bcb:	b9 01 00 00 00       	mov    $0x1,%ecx
   180001bd0:	48 6b c9 03          	imul   $0x3,%rcx,%rcx
   180001bd4:	48 8b 54 24 68       	mov    0x68(%rsp),%rdx
   180001bd9:	8a 44 04 30          	mov    0x30(%rsp,%rax,1),%al
   180001bdd:	88 04 0a             	mov    %al,(%rdx,%rcx,1)
   180001be0:	b8 04 00 00 00       	mov    $0x4,%eax
   180001be5:	48 6b c0 03          	imul   $0x3,%rax,%rax
   180001be9:	8b 44 04 30          	mov    0x30(%rsp,%rax,1),%eax
   180001bed:	c1 e8 18             	shr    $0x18,%eax
   180001bf0:	b9 01 00 00 00       	mov    $0x1,%ecx
   180001bf5:	48 6b c9 04          	imul   $0x4,%rcx,%rcx
   180001bf9:	48 8b 54 24 68       	mov    0x68(%rsp),%rdx
   180001bfe:	88 04 0a             	mov    %al,(%rdx,%rcx,1)
   180001c01:	b8 04 00 00 00       	mov    $0x4,%eax
   180001c06:	48 6b c0 03          	imul   $0x3,%rax,%rax
   180001c0a:	8b 44 04 30          	mov    0x30(%rsp,%rax,1),%eax
   180001c0e:	c1 e8 10             	shr    $0x10,%eax
   180001c11:	b9 01 00 00 00       	mov    $0x1,%ecx
   180001c16:	48 6b c9 05          	imul   $0x5,%rcx,%rcx
   180001c1a:	48 8b 54 24 68       	mov    0x68(%rsp),%rdx
   180001c1f:	88 04 0a             	mov    %al,(%rdx,%rcx,1)
   180001c22:	b8 04 00 00 00       	mov    $0x4,%eax
   180001c27:	48 6b c0 03          	imul   $0x3,%rax,%rax
   180001c2b:	8b 44 04 30          	mov    0x30(%rsp,%rax,1),%eax
   180001c2f:	c1 e8 08             	shr    $0x8,%eax
   180001c32:	b9 01 00 00 00       	mov    $0x1,%ecx
   180001c37:	48 6b c9 06          	imul   $0x6,%rcx,%rcx
   180001c3b:	48 8b 54 24 68       	mov    0x68(%rsp),%rdx
   180001c40:	88 04 0a             	mov    %al,(%rdx,%rcx,1)
   180001c43:	b8 04 00 00 00       	mov    $0x4,%eax
   180001c48:	48 6b c0 03          	imul   $0x3,%rax,%rax
   180001c4c:	b9 01 00 00 00       	mov    $0x1,%ecx
   180001c51:	48 6b c9 07          	imul   $0x7,%rcx,%rcx
   180001c55:	48 8b 54 24 68       	mov    0x68(%rsp),%rdx
   180001c5a:	8a 44 04 30          	mov    0x30(%rsp,%rax,1),%al
   180001c5e:	88 04 0a             	mov    %al,(%rdx,%rcx,1)
   180001c61:	b8 04 00 00 00       	mov    $0x4,%eax
   180001c66:	48 6b c0 00          	imul   $0x0,%rax,%rax
   180001c6a:	8b 44 04 30          	mov    0x30(%rsp,%rax,1),%eax
   180001c6e:	c1 e8 18             	shr    $0x18,%eax
   180001c71:	b9 01 00 00 00       	mov    $0x1,%ecx
   180001c76:	48 6b c9 08          	imul   $0x8,%rcx,%rcx
   180001c7a:	48 8b 54 24 68       	mov    0x68(%rsp),%rdx
   180001c7f:	88 04 0a             	mov    %al,(%rdx,%rcx,1)
   180001c82:	b8 04 00 00 00       	mov    $0x4,%eax
   180001c87:	48 6b c0 00          	imul   $0x0,%rax,%rax
   180001c8b:	8b 44 04 30          	mov    0x30(%rsp,%rax,1),%eax
   180001c8f:	c1 e8 10             	shr    $0x10,%eax
   180001c92:	b9 01 00 00 00       	mov    $0x1,%ecx
   180001c97:	48 6b c9 09          	imul   $0x9,%rcx,%rcx
   180001c9b:	48 8b 54 24 68       	mov    0x68(%rsp),%rdx
   180001ca0:	88 04 0a             	mov    %al,(%rdx,%rcx,1)
   180001ca3:	b8 04 00 00 00       	mov    $0x4,%eax
   180001ca8:	48 6b c0 00          	imul   $0x0,%rax,%rax
   180001cac:	8b 44 04 30          	mov    0x30(%rsp,%rax,1),%eax
   180001cb0:	c1 e8 08             	shr    $0x8,%eax
   180001cb3:	b9 01 00 00 00       	mov    $0x1,%ecx
   180001cb8:	48 6b c9 0a          	imul   $0xa,%rcx,%rcx
   180001cbc:	48 8b 54 24 68       	mov    0x68(%rsp),%rdx
   180001cc1:	88 04 0a             	mov    %al,(%rdx,%rcx,1)
   180001cc4:	b8 04 00 00 00       	mov    $0x4,%eax
   180001cc9:	48 6b c0 00          	imul   $0x0,%rax,%rax
   180001ccd:	b9 01 00 00 00       	mov    $0x1,%ecx
   180001cd2:	48 6b c9 0b          	imul   $0xb,%rcx,%rcx
   180001cd6:	48 8b 54 24 68       	mov    0x68(%rsp),%rdx
   180001cdb:	8a 44 04 30          	mov    0x30(%rsp,%rax,1),%al
   180001cdf:	88 04 0a             	mov    %al,(%rdx,%rcx,1)
   180001ce2:	b8 04 00 00 00       	mov    $0x4,%eax
   180001ce7:	48 6b c0 01          	imul   $0x1,%rax,%rax
   180001ceb:	8b 44 04 30          	mov    0x30(%rsp,%rax,1),%eax
   180001cef:	c1 e8 18             	shr    $0x18,%eax
   180001cf2:	b9 01 00 00 00       	mov    $0x1,%ecx
   180001cf7:	48 6b c9 0c          	imul   $0xc,%rcx,%rcx
   180001cfb:	48 8b 54 24 68       	mov    0x68(%rsp),%rdx
   180001d00:	88 04 0a             	mov    %al,(%rdx,%rcx,1)
   180001d03:	b8 04 00 00 00       	mov    $0x4,%eax
   180001d08:	48 6b c0 01          	imul   $0x1,%rax,%rax
   180001d0c:	8b 44 04 30          	mov    0x30(%rsp,%rax,1),%eax
   180001d10:	c1 e8 10             	shr    $0x10,%eax
   180001d13:	b9 01 00 00 00       	mov    $0x1,%ecx
   180001d18:	48 6b c9 0d          	imul   $0xd,%rcx,%rcx
   180001d1c:	48 8b 54 24 68       	mov    0x68(%rsp),%rdx
   180001d21:	88 04 0a             	mov    %al,(%rdx,%rcx,1)
   180001d24:	b8 04 00 00 00       	mov    $0x4,%eax
   180001d29:	48 6b c0 01          	imul   $0x1,%rax,%rax
   180001d2d:	8b 44 04 30          	mov    0x30(%rsp,%rax,1),%eax
   180001d31:	c1 e8 08             	shr    $0x8,%eax
   180001d34:	b9 01 00 00 00       	mov    $0x1,%ecx
   180001d39:	48 6b c9 0e          	imul   $0xe,%rcx,%rcx
   180001d3d:	48 8b 54 24 68       	mov    0x68(%rsp),%rdx
   180001d42:	88 04 0a             	mov    %al,(%rdx,%rcx,1)
   180001d45:	b8 04 00 00 00       	mov    $0x4,%eax
   180001d4a:	48 6b c0 01          	imul   $0x1,%rax,%rax
   180001d4e:	b9 01 00 00 00       	mov    $0x1,%ecx
   180001d53:	48 6b c9 0f          	imul   $0xf,%rcx,%rcx
   180001d57:	48 8b 54 24 68       	mov    0x68(%rsp),%rdx
   180001d5c:	8a 44 04 30          	mov    0x30(%rsp,%rax,1),%al
   180001d60:	88 04 0a             	mov    %al,(%rdx,%rcx,1)
   180001d63:	33 c0                	xor    %eax,%eax
   180001d65:	48 83 c4 48          	add    $0x48,%rsp
   180001d69:	c3                   	retq   
   180001d6a:	cc                   	int3   
   180001d6b:	cc                   	int3   
   180001d6c:	4c 89 44 24 18       	mov    %r8,0x18(%rsp)
   180001d71:	48 89 54 24 10       	mov    %rdx,0x10(%rsp)
   180001d76:	48 89 4c 24 08       	mov    %rcx,0x8(%rsp)
   180001d7b:	48 83 ec 18          	sub    $0x18,%rsp
   180001d7f:	b8 04 00 00 00       	mov    $0x4,%eax
   180001d84:	48 6b c0 00          	imul   $0x0,%rax,%rax
   180001d88:	b9 04 00 00 00       	mov    $0x4,%ecx
   180001d8d:	48 6b c9 00          	imul   $0x0,%rcx,%rcx
   180001d91:	48 8b 54 24 20       	mov    0x20(%rsp),%rdx
   180001d96:	4c 8b 44 24 28       	mov    0x28(%rsp),%r8
   180001d9b:	41 8b 0c 08          	mov    (%r8,%rcx,1),%ecx
   180001d9f:	8b 04 02             	mov    (%rdx,%rax,1),%eax
   180001da2:	33 c1                	xor    %ecx,%eax
   180001da4:	89 44 24 04          	mov    %eax,0x4(%rsp)
   180001da8:	b8 04 00 00 00       	mov    $0x4,%eax
   180001dad:	48 6b c0 01          	imul   $0x1,%rax,%rax
   180001db1:	b9 04 00 00 00       	mov    $0x4,%ecx
   180001db6:	48 6b c9 01          	imul   $0x1,%rcx,%rcx
   180001dba:	48 8b 54 24 20       	mov    0x20(%rsp),%rdx
   180001dbf:	4c 8b 44 24 28       	mov    0x28(%rsp),%r8
   180001dc4:	41 8b 0c 08          	mov    (%r8,%rcx,1),%ecx
   180001dc8:	8b 04 02             	mov    (%rdx,%rax,1),%eax
   180001dcb:	33 c1                	xor    %ecx,%eax
   180001dcd:	89 04 24             	mov    %eax,(%rsp)
   180001dd0:	8b 44 24 04          	mov    0x4(%rsp),%eax
   180001dd4:	c1 e8 18             	shr    $0x18,%eax
   180001dd7:	25 ff 00 00 00       	and    $0xff,%eax
   180001ddc:	8b c0                	mov    %eax,%eax
   180001dde:	48 8d 0d db 22 00 00 	lea    0x22db(%rip),%rcx        # 0x1800040c0
   180001de5:	0f b6 04 01          	movzbl (%rcx,%rax,1),%eax
   180001de9:	c1 e0 18             	shl    $0x18,%eax
   180001dec:	8b 4c 24 04          	mov    0x4(%rsp),%ecx
   180001df0:	c1 e9 10             	shr    $0x10,%ecx
   180001df3:	81 e1 ff 00 00 00    	and    $0xff,%ecx
   180001df9:	8b c9                	mov    %ecx,%ecx
   180001dfb:	48 8d 15 be 23 00 00 	lea    0x23be(%rip),%rdx        # 0x1800041c0
   180001e02:	0f b6 0c 0a          	movzbl (%rdx,%rcx,1),%ecx
   180001e06:	c1 e1 10             	shl    $0x10,%ecx
   180001e09:	0b c1                	or     %ecx,%eax
   180001e0b:	8b 4c 24 04          	mov    0x4(%rsp),%ecx
   180001e0f:	c1 e9 08             	shr    $0x8,%ecx
   180001e12:	81 e1 ff 00 00 00    	and    $0xff,%ecx
   180001e18:	8b c9                	mov    %ecx,%ecx
   180001e1a:	48 8d 15 9f 24 00 00 	lea    0x249f(%rip),%rdx        # 0x1800042c0
   180001e21:	0f b6 0c 0a          	movzbl (%rdx,%rcx,1),%ecx
   180001e25:	c1 e1 08             	shl    $0x8,%ecx
   180001e28:	0b c1                	or     %ecx,%eax
   180001e2a:	8b 4c 24 04          	mov    0x4(%rsp),%ecx
   180001e2e:	81 e1 ff 00 00 00    	and    $0xff,%ecx
   180001e34:	8b c9                	mov    %ecx,%ecx
   180001e36:	48 8d 15 83 25 00 00 	lea    0x2583(%rip),%rdx        # 0x1800043c0
   180001e3d:	0f b6 0c 0a          	movzbl (%rdx,%rcx,1),%ecx
   180001e41:	0b c1                	or     %ecx,%eax
   180001e43:	89 44 24 04          	mov    %eax,0x4(%rsp)
   180001e47:	8b 04 24             	mov    (%rsp),%eax
   180001e4a:	c1 e8 18             	shr    $0x18,%eax
   180001e4d:	25 ff 00 00 00       	and    $0xff,%eax
   180001e52:	8b c0                	mov    %eax,%eax
   180001e54:	48 8d 0d 65 23 00 00 	lea    0x2365(%rip),%rcx        # 0x1800041c0
   180001e5b:	0f b6 04 01          	movzbl (%rcx,%rax,1),%eax
   180001e5f:	c1 e0 18             	shl    $0x18,%eax
   180001e62:	8b 0c 24             	mov    (%rsp),%ecx
   180001e65:	c1 e9 10             	shr    $0x10,%ecx
   180001e68:	81 e1 ff 00 00 00    	and    $0xff,%ecx
   180001e6e:	8b c9                	mov    %ecx,%ecx
   180001e70:	48 8d 15 49 24 00 00 	lea    0x2449(%rip),%rdx        # 0x1800042c0
   180001e77:	0f b6 0c 0a          	movzbl (%rdx,%rcx,1),%ecx
   180001e7b:	c1 e1 10             	shl    $0x10,%ecx
   180001e7e:	0b c1                	or     %ecx,%eax
   180001e80:	8b 0c 24             	mov    (%rsp),%ecx
   180001e83:	c1 e9 08             	shr    $0x8,%ecx
   180001e86:	81 e1 ff 00 00 00    	and    $0xff,%ecx
   180001e8c:	8b c9                	mov    %ecx,%ecx
   180001e8e:	48 8d 15 2b 25 00 00 	lea    0x252b(%rip),%rdx        # 0x1800043c0
   180001e95:	0f b6 0c 0a          	movzbl (%rdx,%rcx,1),%ecx
   180001e99:	c1 e1 08             	shl    $0x8,%ecx
   180001e9c:	0b c1                	or     %ecx,%eax
   180001e9e:	8b 0c 24             	mov    (%rsp),%ecx
   180001ea1:	81 e1 ff 00 00 00    	and    $0xff,%ecx
   180001ea7:	8b c9                	mov    %ecx,%ecx
   180001ea9:	48 8d 15 10 22 00 00 	lea    0x2210(%rip),%rdx        # 0x1800040c0
   180001eb0:	0f b6 0c 0a          	movzbl (%rdx,%rcx,1),%ecx
   180001eb4:	0b c1                	or     %ecx,%eax
   180001eb6:	89 04 24             	mov    %eax,(%rsp)
   180001eb9:	8b 04 24             	mov    (%rsp),%eax
   180001ebc:	c1 e0 08             	shl    $0x8,%eax
   180001ebf:	8b 0c 24             	mov    (%rsp),%ecx
   180001ec2:	c1 e9 18             	shr    $0x18,%ecx
   180001ec5:	0b c1                	or     %ecx,%eax
   180001ec7:	8b 4c 24 04          	mov    0x4(%rsp),%ecx
   180001ecb:	33 c8                	xor    %eax,%ecx
   180001ecd:	8b c1                	mov    %ecx,%eax
   180001ecf:	89 44 24 04          	mov    %eax,0x4(%rsp)
   180001ed3:	8b 44 24 04          	mov    0x4(%rsp),%eax
   180001ed7:	c1 e0 10             	shl    $0x10,%eax
   180001eda:	8b 4c 24 04          	mov    0x4(%rsp),%ecx
   180001ede:	c1 e9 10             	shr    $0x10,%ecx
   180001ee1:	0b c1                	or     %ecx,%eax
   180001ee3:	8b 0c 24             	mov    (%rsp),%ecx
   180001ee6:	33 c8                	xor    %eax,%ecx
   180001ee8:	8b c1                	mov    %ecx,%eax
   180001eea:	89 04 24             	mov    %eax,(%rsp)
   180001eed:	8b 04 24             	mov    (%rsp),%eax
   180001ef0:	c1 e8 08             	shr    $0x8,%eax
   180001ef3:	8b 0c 24             	mov    (%rsp),%ecx
   180001ef6:	c1 e1 18             	shl    $0x18,%ecx
   180001ef9:	0b c1                	or     %ecx,%eax
   180001efb:	8b 4c 24 04          	mov    0x4(%rsp),%ecx
   180001eff:	33 c8                	xor    %eax,%ecx
   180001f01:	8b c1                	mov    %ecx,%eax
   180001f03:	89 44 24 04          	mov    %eax,0x4(%rsp)
   180001f07:	8b 44 24 04          	mov    0x4(%rsp),%eax
   180001f0b:	c1 e8 08             	shr    $0x8,%eax
   180001f0e:	8b 4c 24 04          	mov    0x4(%rsp),%ecx
   180001f12:	c1 e1 18             	shl    $0x18,%ecx
   180001f15:	0b c1                	or     %ecx,%eax
   180001f17:	8b 0c 24             	mov    (%rsp),%ecx
   180001f1a:	33 c8                	xor    %eax,%ecx
   180001f1c:	8b c1                	mov    %ecx,%eax
   180001f1e:	89 04 24             	mov    %eax,(%rsp)
   180001f21:	b8 04 00 00 00       	mov    $0x4,%eax
   180001f26:	48 6b c0 00          	imul   $0x0,%rax,%rax
   180001f2a:	48 8b 4c 24 30       	mov    0x30(%rsp),%rcx
   180001f2f:	8b 14 24             	mov    (%rsp),%edx
   180001f32:	8b 04 01             	mov    (%rcx,%rax,1),%eax
   180001f35:	33 c2                	xor    %edx,%eax
   180001f37:	b9 04 00 00 00       	mov    $0x4,%ecx
   180001f3c:	48 6b c9 00          	imul   $0x0,%rcx,%rcx
   180001f40:	48 8b 54 24 30       	mov    0x30(%rsp),%rdx
   180001f45:	89 04 0a             	mov    %eax,(%rdx,%rcx,1)
   180001f48:	b8 04 00 00 00       	mov    $0x4,%eax
   180001f4d:	48 6b c0 01          	imul   $0x1,%rax,%rax
   180001f51:	48 8b 4c 24 30       	mov    0x30(%rsp),%rcx
   180001f56:	8b 54 24 04          	mov    0x4(%rsp),%edx
   180001f5a:	8b 04 01             	mov    (%rcx,%rax,1),%eax
   180001f5d:	33 c2                	xor    %edx,%eax
   180001f5f:	b9 04 00 00 00       	mov    $0x4,%ecx
   180001f64:	48 6b c9 01          	imul   $0x1,%rcx,%rcx
   180001f68:	48 8b 54 24 30       	mov    0x30(%rsp),%rdx
   180001f6d:	89 04 0a             	mov    %eax,(%rdx,%rcx,1)
   180001f70:	48 83 c4 18          	add    $0x18,%rsp
   180001f74:	c3                   	retq   
   180001f75:	cc                   	int3   
   180001f76:	cc                   	int3   
   180001f77:	cc                   	int3   
   180001f78:	44 89 44 24 18       	mov    %r8d,0x18(%rsp)
   180001f7d:	48 89 54 24 10       	mov    %rdx,0x10(%rsp)
   180001f82:	48 89 4c 24 08       	mov    %rcx,0x8(%rsp)
   180001f87:	57                   	push   %rdi
   180001f88:	48 81 ec 70 01 00 00 	sub    $0x170,%rsp
   180001f8f:	8b 84 24 90 01 00 00 	mov    0x190(%rsp),%eax
   180001f96:	89 44 24 30          	mov    %eax,0x30(%rsp)
   180001f9a:	81 7c 24 30 80 00 00 	cmpl   $0x80,0x30(%rsp)
   180001fa1:	00 
   180001fa2:	74 16                	je     0x180001fba
   180001fa4:	81 7c 24 30 c0 00 00 	cmpl   $0xc0,0x30(%rsp)
   180001fab:	00 
   180001fac:	74 24                	je     0x180001fd2
   180001fae:	81 7c 24 30 00 01 00 	cmpl   $0x100,0x30(%rsp)
   180001fb5:	00 
   180001fb6:	74 1a                	je     0x180001fd2
   180001fb8:	eb 30                	jmp    0x180001fea
   180001fba:	48 8b 84 24 80 01 00 	mov    0x180(%rsp),%rax
   180001fc1:	00 
   180001fc2:	c7 00 03 00 00 00    	movl   $0x3,(%rax)
   180001fc8:	c7 44 24 34 00 00 00 	movl   $0x0,0x34(%rsp)
   180001fcf:	00 
   180001fd0:	eb 22                	jmp    0x180001ff4
   180001fd2:	48 8b 84 24 80 01 00 	mov    0x180(%rsp),%rax
   180001fd9:	00 
   180001fda:	c7 00 04 00 00 00    	movl   $0x4,(%rax)
   180001fe0:	c7 44 24 34 01 00 00 	movl   $0x1,0x34(%rsp)
   180001fe7:	00 
   180001fe8:	eb 0a                	jmp    0x180001ff4
   180001fea:	b8 dc ff ff ff       	mov    $0xffffffdc,%eax
   180001fef:	e9 63 02 00 00       	jmpq   0x180002257
   180001ff4:	48 8b 84 24 80 01 00 	mov    0x180(%rsp),%rax
   180001ffb:	00 
   180001ffc:	48 83 c0 04          	add    $0x4,%rax
   180002000:	48 89 44 24 28       	mov    %rax,0x28(%rsp)
   180002005:	44 8b 84 24 90 01 00 	mov    0x190(%rsp),%r8d
   18000200c:	00 
   18000200d:	48 8b 94 24 88 01 00 	mov    0x188(%rsp),%rdx
   180002014:	00 
   180002015:	48 8d 4c 24 50       	lea    0x50(%rsp),%rcx
   18000201a:	e8 41 02 00 00       	callq  0x180002260
   18000201f:	89 44 24 38          	mov    %eax,0x38(%rsp)
   180002023:	83 7c 24 38 00       	cmpl   $0x0,0x38(%rsp)
   180002028:	74 09                	je     0x180002033
   18000202a:	8b 44 24 38          	mov    0x38(%rsp),%eax
   18000202e:	e9 24 02 00 00       	jmpq   0x180002257
   180002033:	8b 44 24 34          	mov    0x34(%rsp),%eax
   180002037:	c1 e0 03             	shl    $0x3,%eax
   18000203a:	d1 e0                	shl    %eax
   18000203c:	48 98                	cltq   
   18000203e:	48 8d 84 84 14 01 00 	lea    0x114(%rsp,%rax,4),%rax
   180002045:	00 
   180002046:	48 89 44 24 20       	mov    %rax,0x20(%rsp)
   18000204b:	48 8b 44 24 28       	mov    0x28(%rsp),%rax
   180002050:	48 8b 4c 24 20       	mov    0x20(%rsp),%rcx
   180002055:	8b 09                	mov    (%rcx),%ecx
   180002057:	89 08                	mov    %ecx,(%rax)
   180002059:	48 8b 44 24 28       	mov    0x28(%rsp),%rax
   18000205e:	48 83 c0 04          	add    $0x4,%rax
   180002062:	48 89 44 24 28       	mov    %rax,0x28(%rsp)
   180002067:	48 8b 44 24 20       	mov    0x20(%rsp),%rax
   18000206c:	48 83 c0 04          	add    $0x4,%rax
   180002070:	48 89 44 24 20       	mov    %rax,0x20(%rsp)
   180002075:	48 8b 44 24 28       	mov    0x28(%rsp),%rax
   18000207a:	48 8b 4c 24 20       	mov    0x20(%rsp),%rcx
   18000207f:	8b 09                	mov    (%rcx),%ecx
   180002081:	89 08                	mov    %ecx,(%rax)
   180002083:	48 8b 44 24 28       	mov    0x28(%rsp),%rax
   180002088:	48 83 c0 04          	add    $0x4,%rax
   18000208c:	48 89 44 24 28       	mov    %rax,0x28(%rsp)
   180002091:	48 8b 44 24 20       	mov    0x20(%rsp),%rax
   180002096:	48 83 c0 04          	add    $0x4,%rax
   18000209a:	48 89 44 24 20       	mov    %rax,0x20(%rsp)
   18000209f:	48 8b 44 24 28       	mov    0x28(%rsp),%rax
   1800020a4:	48 8b 4c 24 20       	mov    0x20(%rsp),%rcx
   1800020a9:	8b 09                	mov    (%rcx),%ecx
   1800020ab:	89 08                	mov    %ecx,(%rax)
   1800020ad:	48 8b 44 24 28       	mov    0x28(%rsp),%rax
   1800020b2:	48 83 c0 04          	add    $0x4,%rax
   1800020b6:	48 89 44 24 28       	mov    %rax,0x28(%rsp)
   1800020bb:	48 8b 44 24 20       	mov    0x20(%rsp),%rax
   1800020c0:	48 83 c0 04          	add    $0x4,%rax
   1800020c4:	48 89 44 24 20       	mov    %rax,0x20(%rsp)
   1800020c9:	48 8b 44 24 28       	mov    0x28(%rsp),%rax
   1800020ce:	48 8b 4c 24 20       	mov    0x20(%rsp),%rcx
   1800020d3:	8b 09                	mov    (%rcx),%ecx
   1800020d5:	89 08                	mov    %ecx,(%rax)
   1800020d7:	48 8b 44 24 28       	mov    0x28(%rsp),%rax
   1800020dc:	48 83 c0 04          	add    $0x4,%rax
   1800020e0:	48 89 44 24 28       	mov    %rax,0x28(%rsp)
   1800020e5:	48 8b 44 24 20       	mov    0x20(%rsp),%rax
   1800020ea:	48 83 c0 04          	add    $0x4,%rax
   1800020ee:	48 89 44 24 20       	mov    %rax,0x20(%rsp)
   1800020f3:	8b 44 24 34          	mov    0x34(%rsp),%eax
   1800020f7:	8d 04 c5 16 00 00 00 	lea    0x16(,%rax,8),%eax
   1800020fe:	48 98                	cltq   
   180002100:	48 89 44 24 40       	mov    %rax,0x40(%rsp)
   180002105:	48 8b 44 24 20       	mov    0x20(%rsp),%rax
   18000210a:	48 83 e8 18          	sub    $0x18,%rax
   18000210e:	48 89 44 24 20       	mov    %rax,0x20(%rsp)
   180002113:	eb 1b                	jmp    0x180002130
   180002115:	48 8b 44 24 40       	mov    0x40(%rsp),%rax
   18000211a:	48 ff c8             	dec    %rax
   18000211d:	48 89 44 24 40       	mov    %rax,0x40(%rsp)
   180002122:	48 8b 44 24 20       	mov    0x20(%rsp),%rax
   180002127:	48 83 e8 10          	sub    $0x10,%rax
   18000212b:	48 89 44 24 20       	mov    %rax,0x20(%rsp)
   180002130:	48 83 7c 24 40 00    	cmpq   $0x0,0x40(%rsp)
   180002136:	76 56                	jbe    0x18000218e
   180002138:	48 8b 44 24 28       	mov    0x28(%rsp),%rax
   18000213d:	48 8b 4c 24 20       	mov    0x20(%rsp),%rcx
   180002142:	8b 09                	mov    (%rcx),%ecx
   180002144:	89 08                	mov    %ecx,(%rax)
   180002146:	48 8b 44 24 28       	mov    0x28(%rsp),%rax
   18000214b:	48 83 c0 04          	add    $0x4,%rax
   18000214f:	48 89 44 24 28       	mov    %rax,0x28(%rsp)
   180002154:	48 8b 44 24 20       	mov    0x20(%rsp),%rax
   180002159:	48 83 c0 04          	add    $0x4,%rax
   18000215d:	48 89 44 24 20       	mov    %rax,0x20(%rsp)
   180002162:	48 8b 44 24 28       	mov    0x28(%rsp),%rax
   180002167:	48 8b 4c 24 20       	mov    0x20(%rsp),%rcx
   18000216c:	8b 09                	mov    (%rcx),%ecx
   18000216e:	89 08                	mov    %ecx,(%rax)
   180002170:	48 8b 44 24 28       	mov    0x28(%rsp),%rax
   180002175:	48 83 c0 04          	add    $0x4,%rax
   180002179:	48 89 44 24 28       	mov    %rax,0x28(%rsp)
   18000217e:	48 8b 44 24 20       	mov    0x20(%rsp),%rax
   180002183:	48 83 c0 04          	add    $0x4,%rax
   180002187:	48 89 44 24 20       	mov    %rax,0x20(%rsp)
   18000218c:	eb 87                	jmp    0x180002115
   18000218e:	48 8b 44 24 20       	mov    0x20(%rsp),%rax
   180002193:	48 83 e8 08          	sub    $0x8,%rax
   180002197:	48 89 44 24 20       	mov    %rax,0x20(%rsp)
   18000219c:	48 8b 44 24 28       	mov    0x28(%rsp),%rax
   1800021a1:	48 8b 4c 24 20       	mov    0x20(%rsp),%rcx
   1800021a6:	8b 09                	mov    (%rcx),%ecx
   1800021a8:	89 08                	mov    %ecx,(%rax)
   1800021aa:	48 8b 44 24 28       	mov    0x28(%rsp),%rax
   1800021af:	48 83 c0 04          	add    $0x4,%rax
   1800021b3:	48 89 44 24 28       	mov    %rax,0x28(%rsp)
   1800021b8:	48 8b 44 24 20       	mov    0x20(%rsp),%rax
   1800021bd:	48 83 c0 04          	add    $0x4,%rax
   1800021c1:	48 89 44 24 20       	mov    %rax,0x20(%rsp)
   1800021c6:	48 8b 44 24 28       	mov    0x28(%rsp),%rax
   1800021cb:	48 8b 4c 24 20       	mov    0x20(%rsp),%rcx
   1800021d0:	8b 09                	mov    (%rcx),%ecx
   1800021d2:	89 08                	mov    %ecx,(%rax)
   1800021d4:	48 8b 44 24 28       	mov    0x28(%rsp),%rax
   1800021d9:	48 83 c0 04          	add    $0x4,%rax
   1800021dd:	48 89 44 24 28       	mov    %rax,0x28(%rsp)
   1800021e2:	48 8b 44 24 20       	mov    0x20(%rsp),%rax
   1800021e7:	48 83 c0 04          	add    $0x4,%rax
   1800021eb:	48 89 44 24 20       	mov    %rax,0x20(%rsp)
   1800021f0:	48 8b 44 24 28       	mov    0x28(%rsp),%rax
   1800021f5:	48 8b 4c 24 20       	mov    0x20(%rsp),%rcx
   1800021fa:	8b 09                	mov    (%rcx),%ecx
   1800021fc:	89 08                	mov    %ecx,(%rax)
   1800021fe:	48 8b 44 24 28       	mov    0x28(%rsp),%rax
   180002203:	48 83 c0 04          	add    $0x4,%rax
   180002207:	48 89 44 24 28       	mov    %rax,0x28(%rsp)
   18000220c:	48 8b 44 24 20       	mov    0x20(%rsp),%rax
   180002211:	48 83 c0 04          	add    $0x4,%rax
   180002215:	48 89 44 24 20       	mov    %rax,0x20(%rsp)
   18000221a:	48 8b 44 24 28       	mov    0x28(%rsp),%rax
   18000221f:	48 8b 4c 24 20       	mov    0x20(%rsp),%rcx
   180002224:	8b 09                	mov    (%rcx),%ecx
   180002226:	89 08                	mov    %ecx,(%rax)
   180002228:	48 8b 44 24 28       	mov    0x28(%rsp),%rax
   18000222d:	48 83 c0 04          	add    $0x4,%rax
   180002231:	48 89 44 24 28       	mov    %rax,0x28(%rsp)
   180002236:	48 8b 44 24 20       	mov    0x20(%rsp),%rax
   18000223b:	48 83 c0 04          	add    $0x4,%rax
   18000223f:	48 89 44 24 20       	mov    %rax,0x20(%rsp)
   180002244:	48 8d 44 24 50       	lea    0x50(%rsp),%rax
   180002249:	48 8b f8             	mov    %rax,%rdi
   18000224c:	33 c0                	xor    %eax,%eax
   18000224e:	b9 14 01 00 00       	mov    $0x114,%ecx
   180002253:	f3 aa                	rep stos %al,%es:(%rdi)
   180002255:	33 c0                	xor    %eax,%eax
   180002257:	48 81 c4 70 01 00 00 	add    $0x170,%rsp
   18000225e:	5f                   	pop    %rdi
   18000225f:	c3                   	retq   
   180002260:	44 89 44 24 18       	mov    %r8d,0x18(%rsp)
   180002265:	48 89 54 24 10       	mov    %rdx,0x10(%rsp)
   18000226a:	48 89 4c 24 08       	mov    %rcx,0x8(%rsp)
   18000226f:	57                   	push   %rdi
   180002270:	48 81 ec 30 03 00 00 	sub    $0x330,%rsp
   180002277:	48 8b 84 24 40 03 00 	mov    0x340(%rsp),%rax
   18000227e:	00 
   18000227f:	48 83 c0 04          	add    $0x4,%rax
   180002283:	48 89 44 24 30       	mov    %rax,0x30(%rsp)
   180002288:	48 8d 84 24 f0 02 00 	lea    0x2f0(%rsp),%rax
   18000228f:	00 
   180002290:	48 8b f8             	mov    %rax,%rdi
   180002293:	33 c0                	xor    %eax,%eax
   180002295:	b9 40 00 00 00       	mov    $0x40,%ecx
   18000229a:	f3 aa                	rep stos %al,%es:(%rdi)
   18000229c:	48 8b 7c 24 30       	mov    0x30(%rsp),%rdi
   1800022a1:	33 c0                	xor    %eax,%eax
   1800022a3:	b9 10 01 00 00       	mov    $0x110,%ecx
   1800022a8:	f3 aa                	rep stos %al,%es:(%rdi)
   1800022aa:	8b 84 24 50 03 00 00 	mov    0x350(%rsp),%eax
   1800022b1:	89 44 24 2c          	mov    %eax,0x2c(%rsp)
   1800022b5:	81 7c 24 2c 80 00 00 	cmpl   $0x80,0x2c(%rsp)
   1800022bc:	00 
   1800022bd:	74 16                	je     0x1800022d5
   1800022bf:	81 7c 24 2c c0 00 00 	cmpl   $0xc0,0x2c(%rsp)
   1800022c6:	00 
   1800022c7:	74 24                	je     0x1800022ed
   1800022c9:	81 7c 24 2c 00 01 00 	cmpl   $0x100,0x2c(%rsp)
   1800022d0:	00 
   1800022d1:	74 1a                	je     0x1800022ed
   1800022d3:	eb 30                	jmp    0x180002305
   1800022d5:	48 8b 84 24 40 03 00 	mov    0x340(%rsp),%rax
   1800022dc:	00 
   1800022dd:	c7 00 03 00 00 00    	movl   $0x3,(%rax)
   1800022e3:	c7 44 24 28 00 00 00 	movl   $0x0,0x28(%rsp)
   1800022ea:	00 
   1800022eb:	eb 22                	jmp    0x18000230f
   1800022ed:	48 8b 84 24 40 03 00 	mov    0x340(%rsp),%rax
   1800022f4:	00 
   1800022f5:	c7 00 04 00 00 00    	movl   $0x4,(%rax)
   1800022fb:	c7 44 24 28 01 00 00 	movl   $0x1,0x28(%rsp)
   180002302:	00 
   180002303:	eb 0a                	jmp    0x18000230f
   180002305:	b8 dc ff ff ff       	mov    $0xffffffdc,%eax
   18000230a:	e9 6d 16 00 00       	jmpq   0x18000397c
   18000230f:	48 c7 44 24 20 00 00 	movq   $0x0,0x20(%rsp)
   180002316:	00 00 
   180002318:	eb 0d                	jmp    0x180002327
   18000231a:	48 8b 44 24 20       	mov    0x20(%rsp),%rax
   18000231f:	48 ff c0             	inc    %rax
   180002322:	48 89 44 24 20       	mov    %rax,0x20(%rsp)
   180002327:	33 d2                	xor    %edx,%edx
   180002329:	8b 84 24 50 03 00 00 	mov    0x350(%rsp),%eax
   180002330:	b9 08 00 00 00       	mov    $0x8,%ecx
   180002335:	f7 f1                	div    %ecx
   180002337:	8b c0                	mov    %eax,%eax
   180002339:	48 39 44 24 20       	cmp    %rax,0x20(%rsp)
   18000233e:	73 23                	jae    0x180002363
   180002340:	48 8b 44 24 20       	mov    0x20(%rsp),%rax
   180002345:	48 8b 8c 24 48 03 00 	mov    0x348(%rsp),%rcx
   18000234c:	00 
   18000234d:	48 03 c8             	add    %rax,%rcx
   180002350:	48 8b c1             	mov    %rcx,%rax
   180002353:	48 8b 4c 24 20       	mov    0x20(%rsp),%rcx
   180002358:	8a 00                	mov    (%rax),%al
   18000235a:	88 84 0c f0 02 00 00 	mov    %al,0x2f0(%rsp,%rcx,1)
   180002361:	eb b7                	jmp    0x18000231a
   180002363:	81 bc 24 50 03 00 00 	cmpl   $0xc0,0x350(%rsp)
   18000236a:	c0 00 00 00 
   18000236e:	75 3d                	jne    0x1800023ad
   180002370:	48 c7 44 24 20 00 00 	movq   $0x0,0x20(%rsp)
   180002377:	00 00 
   180002379:	eb 0d                	jmp    0x180002388
   18000237b:	48 8b 44 24 20       	mov    0x20(%rsp),%rax
   180002380:	48 ff c0             	inc    %rax
   180002383:	48 89 44 24 20       	mov    %rax,0x20(%rsp)
   180002388:	48 83 7c 24 20 08    	cmpq   $0x8,0x20(%rsp)
   18000238e:	73 1d                	jae    0x1800023ad
   180002390:	48 8b 44 24 20       	mov    0x20(%rsp),%rax
   180002395:	0f b6 84 04 00 03 00 	movzbl 0x300(%rsp,%rax,1),%eax
   18000239c:	00 
   18000239d:	f7 d0                	not    %eax
   18000239f:	48 8b 4c 24 20       	mov    0x20(%rsp),%rcx
   1800023a4:	88 84 0c 08 03 00 00 	mov    %al,0x308(%rsp,%rcx,1)
   1800023ab:	eb ce                	jmp    0x18000237b
   1800023ad:	48 c7 44 24 20 00 00 	movq   $0x0,0x20(%rsp)
   1800023b4:	00 00 
   1800023b6:	eb 0d                	jmp    0x1800023c5
   1800023b8:	48 8b 44 24 20       	mov    0x20(%rsp),%rax
   1800023bd:	48 ff c0             	inc    %rax
   1800023c0:	48 89 44 24 20       	mov    %rax,0x20(%rsp)
   1800023c5:	48 83 7c 24 20 06    	cmpq   $0x6,0x20(%rsp)
   1800023cb:	0f 83 3d 01 00 00    	jae    0x18000250e
   1800023d1:	48 8d 05 b8 1c 00 00 	lea    0x1cb8(%rip),%rax        # 0x180004090
   1800023d8:	48 8b 4c 24 20       	mov    0x20(%rsp),%rcx
   1800023dd:	48 8d 04 c8          	lea    (%rax,%rcx,8),%rax
   1800023e1:	b9 01 00 00 00       	mov    $0x1,%ecx
   1800023e6:	48 6b c9 00          	imul   $0x0,%rcx,%rcx
   1800023ea:	0f b6 04 08          	movzbl (%rax,%rcx,1),%eax
   1800023ee:	c1 e0 18             	shl    $0x18,%eax
   1800023f1:	48 8d 0d 98 1c 00 00 	lea    0x1c98(%rip),%rcx        # 0x180004090
   1800023f8:	48 8b 54 24 20       	mov    0x20(%rsp),%rdx
   1800023fd:	48 8d 0c d1          	lea    (%rcx,%rdx,8),%rcx
   180002401:	ba 01 00 00 00       	mov    $0x1,%edx
   180002406:	48 6b d2 01          	imul   $0x1,%rdx,%rdx
   18000240a:	0f b6 0c 11          	movzbl (%rcx,%rdx,1),%ecx
   18000240e:	c1 e1 10             	shl    $0x10,%ecx
   180002411:	0b c1                	or     %ecx,%eax
   180002413:	48 8d 0d 76 1c 00 00 	lea    0x1c76(%rip),%rcx        # 0x180004090
   18000241a:	48 8b 54 24 20       	mov    0x20(%rsp),%rdx
   18000241f:	48 8d 0c d1          	lea    (%rcx,%rdx,8),%rcx
   180002423:	ba 01 00 00 00       	mov    $0x1,%edx
   180002428:	48 6b d2 02          	imul   $0x2,%rdx,%rdx
   18000242c:	0f b6 0c 11          	movzbl (%rcx,%rdx,1),%ecx
   180002430:	c1 e1 08             	shl    $0x8,%ecx
   180002433:	0b c1                	or     %ecx,%eax
   180002435:	48 8d 0d 54 1c 00 00 	lea    0x1c54(%rip),%rcx        # 0x180004090
   18000243c:	48 8b 54 24 20       	mov    0x20(%rsp),%rdx
   180002441:	48 8d 0c d1          	lea    (%rcx,%rdx,8),%rcx
   180002445:	ba 01 00 00 00       	mov    $0x1,%edx
   18000244a:	48 6b d2 03          	imul   $0x3,%rdx,%rdx
   18000244e:	0f b6 0c 11          	movzbl (%rcx,%rdx,1),%ecx
   180002452:	0b c1                	or     %ecx,%eax
   180002454:	48 8b 4c 24 20       	mov    0x20(%rsp),%rcx
   180002459:	48 8d 8c cc c0 02 00 	lea    0x2c0(%rsp,%rcx,8),%rcx
   180002460:	00 
   180002461:	ba 04 00 00 00       	mov    $0x4,%edx
   180002466:	48 6b d2 00          	imul   $0x0,%rdx,%rdx
   18000246a:	89 04 11             	mov    %eax,(%rcx,%rdx,1)
   18000246d:	48 8d 05 1c 1c 00 00 	lea    0x1c1c(%rip),%rax        # 0x180004090
   180002474:	48 8b 4c 24 20       	mov    0x20(%rsp),%rcx
   180002479:	48 8d 04 c8          	lea    (%rax,%rcx,8),%rax
   18000247d:	b9 01 00 00 00       	mov    $0x1,%ecx
   180002482:	48 6b c9 04          	imul   $0x4,%rcx,%rcx
   180002486:	0f b6 04 08          	movzbl (%rax,%rcx,1),%eax
   18000248a:	c1 e0 18             	shl    $0x18,%eax
   18000248d:	48 8d 0d fc 1b 00 00 	lea    0x1bfc(%rip),%rcx        # 0x180004090
   180002494:	48 8b 54 24 20       	mov    0x20(%rsp),%rdx
   180002499:	48 8d 0c d1          	lea    (%rcx,%rdx,8),%rcx
   18000249d:	ba 01 00 00 00       	mov    $0x1,%edx
   1800024a2:	48 6b d2 05          	imul   $0x5,%rdx,%rdx
   1800024a6:	0f b6 0c 11          	movzbl (%rcx,%rdx,1),%ecx
   1800024aa:	c1 e1 10             	shl    $0x10,%ecx
   1800024ad:	0b c1                	or     %ecx,%eax
   1800024af:	48 8d 0d da 1b 00 00 	lea    0x1bda(%rip),%rcx        # 0x180004090
   1800024b6:	48 8b 54 24 20       	mov    0x20(%rsp),%rdx
   1800024bb:	48 8d 0c d1          	lea    (%rcx,%rdx,8),%rcx
   1800024bf:	ba 01 00 00 00       	mov    $0x1,%edx
   1800024c4:	48 6b d2 06          	imul   $0x6,%rdx,%rdx
   1800024c8:	0f b6 0c 11          	movzbl (%rcx,%rdx,1),%ecx
   1800024cc:	c1 e1 08             	shl    $0x8,%ecx
   1800024cf:	0b c1                	or     %ecx,%eax
   1800024d1:	48 8d 0d b8 1b 00 00 	lea    0x1bb8(%rip),%rcx        # 0x180004090
   1800024d8:	48 8b 54 24 20       	mov    0x20(%rsp),%rdx
   1800024dd:	48 8d 0c d1          	lea    (%rcx,%rdx,8),%rcx
   1800024e1:	ba 01 00 00 00       	mov    $0x1,%edx
   1800024e6:	48 6b d2 07          	imul   $0x7,%rdx,%rdx
   1800024ea:	0f b6 0c 11          	movzbl (%rcx,%rdx,1),%ecx
   1800024ee:	0b c1                	or     %ecx,%eax
   1800024f0:	48 8b 4c 24 20       	mov    0x20(%rsp),%rcx
   1800024f5:	48 8d 8c cc c0 02 00 	lea    0x2c0(%rsp,%rcx,8),%rcx
   1800024fc:	00 
   1800024fd:	ba 04 00 00 00       	mov    $0x4,%edx
   180002502:	48 6b d2 01          	imul   $0x1,%rdx,%rdx
   180002506:	89 04 11             	mov    %eax,(%rcx,%rdx,1)
   180002509:	e9 aa fe ff ff       	jmpq   0x1800023b8
   18000250e:	48 8d 84 24 90 00 00 	lea    0x90(%rsp),%rax
   180002515:	00 
   180002516:	48 8b f8             	mov    %rax,%rdi
   180002519:	33 c0                	xor    %eax,%eax
   18000251b:	b9 40 00 00 00       	mov    $0x40,%ecx
   180002520:	f3 aa                	rep stos %al,%es:(%rdi)
   180002522:	48 c7 44 24 20 00 00 	movq   $0x0,0x20(%rsp)
   180002529:	00 00 
   18000252b:	eb 0d                	jmp    0x18000253a
   18000252d:	48 8b 44 24 20       	mov    0x20(%rsp),%rax
   180002532:	48 ff c0             	inc    %rax
   180002535:	48 89 44 24 20       	mov    %rax,0x20(%rsp)
   18000253a:	48 83 7c 24 20 08    	cmpq   $0x8,0x20(%rsp)
   180002540:	73 51                	jae    0x180002593
   180002542:	48 8b 44 24 20       	mov    0x20(%rsp),%rax
   180002547:	0f b6 84 84 f0 02 00 	movzbl 0x2f0(%rsp,%rax,4),%eax
   18000254e:	00 
   18000254f:	c1 e0 18             	shl    $0x18,%eax
   180002552:	48 8b 4c 24 20       	mov    0x20(%rsp),%rcx
   180002557:	0f b6 8c 8c f1 02 00 	movzbl 0x2f1(%rsp,%rcx,4),%ecx
   18000255e:	00 
   18000255f:	c1 e1 10             	shl    $0x10,%ecx
   180002562:	0b c1                	or     %ecx,%eax
   180002564:	48 8b 4c 24 20       	mov    0x20(%rsp),%rcx
   180002569:	0f b6 8c 8c f2 02 00 	movzbl 0x2f2(%rsp,%rcx,4),%ecx
   180002570:	00 
   180002571:	c1 e1 08             	shl    $0x8,%ecx
   180002574:	0b c1                	or     %ecx,%eax
   180002576:	48 8b 4c 24 20       	mov    0x20(%rsp),%rcx
   18000257b:	0f b6 8c 8c f3 02 00 	movzbl 0x2f3(%rsp,%rcx,4),%ecx
   180002582:	00 
   180002583:	0b c1                	or     %ecx,%eax
   180002585:	48 8b 4c 24 20       	mov    0x20(%rsp),%rcx
   18000258a:	89 84 8c 90 00 00 00 	mov    %eax,0x90(%rsp,%rcx,4)
   180002591:	eb 9a                	jmp    0x18000252d
   180002593:	48 c7 44 24 20 00 00 	movq   $0x0,0x20(%rsp)
   18000259a:	00 00 
   18000259c:	eb 0d                	jmp    0x1800025ab
   18000259e:	48 8b 44 24 20       	mov    0x20(%rsp),%rax
   1800025a3:	48 ff c0             	inc    %rax
   1800025a6:	48 89 44 24 20       	mov    %rax,0x20(%rsp)
   1800025ab:	48 83 7c 24 20 04    	cmpq   $0x4,0x20(%rsp)
   1800025b1:	73 28                	jae    0x1800025db
   1800025b3:	48 8b 44 24 20       	mov    0x20(%rsp),%rax
   1800025b8:	48 8b 4c 24 20       	mov    0x20(%rsp),%rcx
   1800025bd:	8b 8c 8c a0 00 00 00 	mov    0xa0(%rsp,%rcx,4),%ecx
   1800025c4:	8b 84 84 90 00 00 00 	mov    0x90(%rsp,%rax,4),%eax
   1800025cb:	33 c1                	xor    %ecx,%eax
   1800025cd:	48 8b 4c 24 20       	mov    0x20(%rsp),%rcx
   1800025d2:	89 84 8c b0 00 00 00 	mov    %eax,0xb0(%rsp,%rcx,4)
   1800025d9:	eb c3                	jmp    0x18000259e
   1800025db:	48 8d 84 24 b8 00 00 	lea    0xb8(%rsp),%rax
   1800025e2:	00 
   1800025e3:	b9 08 00 00 00       	mov    $0x8,%ecx
   1800025e8:	48 6b c9 00          	imul   $0x0,%rcx,%rcx
   1800025ec:	48 8d 8c 0c c0 02 00 	lea    0x2c0(%rsp,%rcx,1),%rcx
   1800025f3:	00 
   1800025f4:	48 8d 94 24 b0 00 00 	lea    0xb0(%rsp),%rdx
   1800025fb:	00 
   1800025fc:	48 89 94 24 30 02 00 	mov    %rdx,0x230(%rsp)
   180002603:	00 
   180002604:	4c 8b c0             	mov    %rax,%r8
   180002607:	48 8b d1             	mov    %rcx,%rdx
   18000260a:	48 8b 84 24 30 02 00 	mov    0x230(%rsp),%rax
   180002611:	00 
   180002612:	48 8b c8             	mov    %rax,%rcx
   180002615:	e8 52 f7 ff ff       	callq  0x180001d6c
   18000261a:	48 8d 84 24 b0 00 00 	lea    0xb0(%rsp),%rax
   180002621:	00 
   180002622:	b9 08 00 00 00       	mov    $0x8,%ecx
   180002627:	48 6b c9 01          	imul   $0x1,%rcx,%rcx
   18000262b:	48 8d 8c 0c c0 02 00 	lea    0x2c0(%rsp,%rcx,1),%rcx
   180002632:	00 
   180002633:	48 8d 94 24 b8 00 00 	lea    0xb8(%rsp),%rdx
   18000263a:	00 
   18000263b:	48 89 94 24 b8 02 00 	mov    %rdx,0x2b8(%rsp)
   180002642:	00 
   180002643:	4c 8b c0             	mov    %rax,%r8
   180002646:	48 8b d1             	mov    %rcx,%rdx
   180002649:	48 8b 84 24 b8 02 00 	mov    0x2b8(%rsp),%rax
   180002650:	00 
   180002651:	48 8b c8             	mov    %rax,%rcx
   180002654:	e8 13 f7 ff ff       	callq  0x180001d6c
   180002659:	48 c7 44 24 20 00 00 	movq   $0x0,0x20(%rsp)
   180002660:	00 00 
   180002662:	eb 0d                	jmp    0x180002671
   180002664:	48 8b 44 24 20       	mov    0x20(%rsp),%rax
   180002669:	48 ff c0             	inc    %rax
   18000266c:	48 89 44 24 20       	mov    %rax,0x20(%rsp)
   180002671:	48 83 7c 24 20 04    	cmpq   $0x4,0x20(%rsp)
   180002677:	73 28                	jae    0x1800026a1
   180002679:	48 8b 44 24 20       	mov    0x20(%rsp),%rax
   18000267e:	48 8b 4c 24 20       	mov    0x20(%rsp),%rcx
   180002683:	8b 8c 8c 90 00 00 00 	mov    0x90(%rsp,%rcx,4),%ecx
   18000268a:	8b 84 84 b0 00 00 00 	mov    0xb0(%rsp,%rax,4),%eax
   180002691:	33 c1                	xor    %ecx,%eax
   180002693:	48 8b 4c 24 20       	mov    0x20(%rsp),%rcx
   180002698:	89 84 8c b0 00 00 00 	mov    %eax,0xb0(%rsp,%rcx,4)
   18000269f:	eb c3                	jmp    0x180002664
   1800026a1:	48 8d 84 24 b8 00 00 	lea    0xb8(%rsp),%rax
   1800026a8:	00 
   1800026a9:	b9 08 00 00 00       	mov    $0x8,%ecx
   1800026ae:	48 6b c9 02          	imul   $0x2,%rcx,%rcx
   1800026b2:	48 8d 8c 0c c0 02 00 	lea    0x2c0(%rsp,%rcx,1),%rcx
   1800026b9:	00 
   1800026ba:	48 8d 94 24 b0 00 00 	lea    0xb0(%rsp),%rdx
   1800026c1:	00 
   1800026c2:	48 89 94 24 a0 02 00 	mov    %rdx,0x2a0(%rsp)
   1800026c9:	00 
   1800026ca:	4c 8b c0             	mov    %rax,%r8
   1800026cd:	48 8b d1             	mov    %rcx,%rdx
   1800026d0:	48 8b 84 24 a0 02 00 	mov    0x2a0(%rsp),%rax
   1800026d7:	00 
   1800026d8:	48 8b c8             	mov    %rax,%rcx
   1800026db:	e8 8c f6 ff ff       	callq  0x180001d6c
   1800026e0:	48 8d 84 24 b0 00 00 	lea    0xb0(%rsp),%rax
   1800026e7:	00 
   1800026e8:	b9 08 00 00 00       	mov    $0x8,%ecx
   1800026ed:	48 6b c9 03          	imul   $0x3,%rcx,%rcx
   1800026f1:	48 8d 8c 0c c0 02 00 	lea    0x2c0(%rsp,%rcx,1),%rcx
   1800026f8:	00 
   1800026f9:	48 8d 94 24 b8 00 00 	lea    0xb8(%rsp),%rdx
   180002700:	00 
   180002701:	48 89 94 24 20 01 00 	mov    %rdx,0x120(%rsp)
   180002708:	00 
   180002709:	4c 8b c0             	mov    %rax,%r8
   18000270c:	48 8b d1             	mov    %rcx,%rdx
   18000270f:	48 8b 84 24 20 01 00 	mov    0x120(%rsp),%rax
   180002716:	00 
   180002717:	48 8b c8             	mov    %rax,%rcx
   18000271a:	e8 4d f6 ff ff       	callq  0x180001d6c
   18000271f:	81 bc 24 50 03 00 00 	cmpl   $0x80,0x350(%rsp)
   180002726:	80 00 00 00 
   18000272a:	0f 86 c6 00 00 00    	jbe    0x1800027f6
   180002730:	48 c7 44 24 20 00 00 	movq   $0x0,0x20(%rsp)
   180002737:	00 00 
   180002739:	eb 0d                	jmp    0x180002748
   18000273b:	48 8b 44 24 20       	mov    0x20(%rsp),%rax
   180002740:	48 ff c0             	inc    %rax
   180002743:	48 89 44 24 20       	mov    %rax,0x20(%rsp)
   180002748:	48 83 7c 24 20 04    	cmpq   $0x4,0x20(%rsp)
   18000274e:	73 28                	jae    0x180002778
   180002750:	48 8b 44 24 20       	mov    0x20(%rsp),%rax
   180002755:	48 8b 4c 24 20       	mov    0x20(%rsp),%rcx
   18000275a:	8b 8c 8c b0 00 00 00 	mov    0xb0(%rsp,%rcx,4),%ecx
   180002761:	8b 84 84 a0 00 00 00 	mov    0xa0(%rsp,%rax,4),%eax
   180002768:	33 c1                	xor    %ecx,%eax
   18000276a:	48 8b 4c 24 20       	mov    0x20(%rsp),%rcx
   18000276f:	89 84 8c c0 00 00 00 	mov    %eax,0xc0(%rsp,%rcx,4)
   180002776:	eb c3                	jmp    0x18000273b
   180002778:	48 8d 84 24 c8 00 00 	lea    0xc8(%rsp),%rax
   18000277f:	00 
   180002780:	b9 08 00 00 00       	mov    $0x8,%ecx
   180002785:	48 6b c9 04          	imul   $0x4,%rcx,%rcx
   180002789:	48 8d 8c 0c c0 02 00 	lea    0x2c0(%rsp,%rcx,1),%rcx
   180002790:	00 
   180002791:	48 8d 94 24 c0 00 00 	lea    0xc0(%rsp),%rdx
   180002798:	00 
   180002799:	48 89 94 24 60 02 00 	mov    %rdx,0x260(%rsp)
   1800027a0:	00 
   1800027a1:	4c 8b c0             	mov    %rax,%r8
   1800027a4:	48 8b d1             	mov    %rcx,%rdx
   1800027a7:	48 8b 84 24 60 02 00 	mov    0x260(%rsp),%rax
   1800027ae:	00 
   1800027af:	48 8b c8             	mov    %rax,%rcx
   1800027b2:	e8 b5 f5 ff ff       	callq  0x180001d6c
   1800027b7:	48 8d 84 24 c0 00 00 	lea    0xc0(%rsp),%rax
   1800027be:	00 
   1800027bf:	b9 08 00 00 00       	mov    $0x8,%ecx
   1800027c4:	48 6b c9 05          	imul   $0x5,%rcx,%rcx
   1800027c8:	48 8d 8c 0c c0 02 00 	lea    0x2c0(%rsp,%rcx,1),%rcx
   1800027cf:	00 
   1800027d0:	48 8d 94 24 c8 00 00 	lea    0xc8(%rsp),%rdx
   1800027d7:	00 
   1800027d8:	48 89 94 24 30 01 00 	mov    %rdx,0x130(%rsp)
   1800027df:	00 
   1800027e0:	4c 8b c0             	mov    %rax,%r8
   1800027e3:	48 8b d1             	mov    %rcx,%rdx
   1800027e6:	48 8b 84 24 30 01 00 	mov    0x130(%rsp),%rax
   1800027ed:	00 
   1800027ee:	48 8b c8             	mov    %rax,%rcx
   1800027f1:	e8 76 f5 ff ff       	callq  0x180001d6c
   1800027f6:	b8 04 00 00 00       	mov    $0x4,%eax
   1800027fb:	48 6b c0 00          	imul   $0x0,%rax,%rax
   1800027ff:	b9 04 00 00 00       	mov    $0x4,%ecx
   180002804:	48 6b c9 00          	imul   $0x0,%rcx,%rcx
   180002808:	8b 84 04 90 00 00 00 	mov    0x90(%rsp,%rax,1),%eax
   18000280f:	89 44 0c 40          	mov    %eax,0x40(%rsp,%rcx,1)
   180002813:	b8 04 00 00 00       	mov    $0x4,%eax
   180002818:	48 6b c0 01          	imul   $0x1,%rax,%rax
   18000281c:	b9 04 00 00 00       	mov    $0x4,%ecx
   180002821:	48 6b c9 01          	imul   $0x1,%rcx,%rcx
   180002825:	8b 84 04 90 00 00 00 	mov    0x90(%rsp,%rax,1),%eax
   18000282c:	89 44 0c 40          	mov    %eax,0x40(%rsp,%rcx,1)
   180002830:	b8 04 00 00 00       	mov    $0x4,%eax
   180002835:	48 6b c0 02          	imul   $0x2,%rax,%rax
   180002839:	b9 04 00 00 00       	mov    $0x4,%ecx
   18000283e:	48 6b c9 02          	imul   $0x2,%rcx,%rcx
   180002842:	8b 84 04 90 00 00 00 	mov    0x90(%rsp,%rax,1),%eax
   180002849:	89 44 0c 40          	mov    %eax,0x40(%rsp,%rcx,1)
   18000284d:	b8 04 00 00 00       	mov    $0x4,%eax
   180002852:	48 6b c0 03          	imul   $0x3,%rax,%rax
   180002856:	b9 04 00 00 00       	mov    $0x4,%ecx
   18000285b:	48 6b c9 03          	imul   $0x3,%rcx,%rcx
   18000285f:	8b 84 04 90 00 00 00 	mov    0x90(%rsp,%rax,1),%eax
   180002866:	89 44 0c 40          	mov    %eax,0x40(%rsp,%rcx,1)
   18000286a:	48 c7 44 24 20 01 00 	movq   $0x1,0x20(%rsp)
   180002871:	00 00 
   180002873:	eb 0d                	jmp    0x180002882
   180002875:	48 8b 44 24 20       	mov    0x20(%rsp),%rax
   18000287a:	48 ff c0             	inc    %rax
   18000287d:	48 89 44 24 20       	mov    %rax,0x20(%rsp)
   180002882:	48 83 7c 24 20 04    	cmpq   $0x4,0x20(%rsp)
   180002888:	0f 87 0d 03 00 00    	ja     0x180002b9b
   18000288e:	48 63 44 24 28       	movslq 0x28(%rsp),%rax
   180002893:	48 6b c0 10          	imul   $0x10,%rax,%rax
   180002897:	48 8d 0d 22 1c 00 00 	lea    0x1c22(%rip),%rcx        # 0x1800044c0
   18000289e:	48 03 c8             	add    %rax,%rcx
   1800028a1:	48 8b c1             	mov    %rcx,%rax
   1800028a4:	b9 04 00 00 00       	mov    $0x4,%ecx
   1800028a9:	48 6b c9 00          	imul   $0x0,%rcx,%rcx
   1800028ad:	48 03 c1             	add    %rcx,%rax
   1800028b0:	48 8b 4c 24 20       	mov    0x20(%rsp),%rcx
   1800028b5:	0f b6 44 08 ff       	movzbl -0x1(%rax,%rcx,1),%eax
   1800028ba:	85 c0                	test   %eax,%eax
   1800028bc:	0f 84 d4 02 00 00    	je     0x180002b96
   1800028c2:	b8 04 00 00 00       	mov    $0x4,%eax
   1800028c7:	48 6b c0 00          	imul   $0x0,%rax,%rax
   1800028cb:	48 89 84 24 00 02 00 	mov    %rax,0x200(%rsp)
   1800028d2:	00 
   1800028d3:	48 6b 4c 24 20 0f    	imul   $0xf,0x20(%rsp),%rcx
   1800028d9:	33 d2                	xor    %edx,%edx
   1800028db:	48 8b c1             	mov    %rcx,%rax
   1800028de:	b9 20 00 00 00       	mov    $0x20,%ecx
   1800028e3:	48 f7 f1             	div    %rcx
   1800028e6:	48 8b c2             	mov    %rdx,%rax
   1800028e9:	8a c8                	mov    %al,%cl
   1800028eb:	48 8b 84 24 00 02 00 	mov    0x200(%rsp),%rax
   1800028f2:	00 
   1800028f3:	8b 44 04 40          	mov    0x40(%rsp,%rax,1),%eax
   1800028f7:	d3 e0                	shl    %cl,%eax
   1800028f9:	89 84 24 f8 00 00 00 	mov    %eax,0xf8(%rsp)
   180002900:	b9 04 00 00 00       	mov    $0x4,%ecx
   180002905:	48 6b c9 01          	imul   $0x1,%rcx,%rcx
   180002909:	48 89 8c 24 98 02 00 	mov    %rcx,0x298(%rsp)
   180002910:	00 
   180002911:	48 6b 54 24 20 0f    	imul   $0xf,0x20(%rsp),%rdx
   180002917:	48 89 94 24 40 01 00 	mov    %rdx,0x140(%rsp)
   18000291e:	00 
   18000291f:	33 d2                	xor    %edx,%edx
   180002921:	48 8b bc 24 40 01 00 	mov    0x140(%rsp),%rdi
   180002928:	00 
   180002929:	48 8b c7             	mov    %rdi,%rax
   18000292c:	bf 20 00 00 00       	mov    $0x20,%edi
   180002931:	48 f7 f7             	div    %rdi
   180002934:	48 8b c2             	mov    %rdx,%rax
   180002937:	ba 20 00 00 00       	mov    $0x20,%edx
   18000293c:	48 2b d0             	sub    %rax,%rdx
   18000293f:	48 8b c2             	mov    %rdx,%rax
   180002942:	8a c8                	mov    %al,%cl
   180002944:	48 8b 84 24 98 02 00 	mov    0x298(%rsp),%rax
   18000294b:	00 
   18000294c:	8b 44 04 40          	mov    0x40(%rsp,%rax,1),%eax
   180002950:	d3 e8                	shr    %cl,%eax
   180002952:	8b 8c 24 f8 00 00 00 	mov    0xf8(%rsp),%ecx
   180002959:	33 c8                	xor    %eax,%ecx
   18000295b:	8b c1                	mov    %ecx,%eax
   18000295d:	48 8b 4c 24 20       	mov    0x20(%rsp),%rcx
   180002962:	48 c1 e1 02          	shl    $0x2,%rcx
   180002966:	48 8d 4c 8c 40       	lea    0x40(%rsp,%rcx,4),%rcx
   18000296b:	ba 04 00 00 00       	mov    $0x4,%edx
   180002970:	48 6b d2 00          	imul   $0x0,%rdx,%rdx
   180002974:	89 04 11             	mov    %eax,(%rcx,%rdx,1)
   180002977:	b8 04 00 00 00       	mov    $0x4,%eax
   18000297c:	48 6b c0 01          	imul   $0x1,%rax,%rax
   180002980:	48 89 84 24 50 01 00 	mov    %rax,0x150(%rsp)
   180002987:	00 
   180002988:	48 6b 4c 24 20 0f    	imul   $0xf,0x20(%rsp),%rcx
   18000298e:	33 d2                	xor    %edx,%edx
   180002990:	48 8b c1             	mov    %rcx,%rax
   180002993:	b9 20 00 00 00       	mov    $0x20,%ecx
   180002998:	48 f7 f1             	div    %rcx
   18000299b:	48 8b c2             	mov    %rdx,%rax
   18000299e:	8a c8                	mov    %al,%cl
   1800029a0:	48 8b 84 24 50 01 00 	mov    0x150(%rsp),%rax
   1800029a7:	00 
   1800029a8:	8b 44 04 40          	mov    0x40(%rsp,%rax,1),%eax
   1800029ac:	d3 e0                	shl    %cl,%eax
   1800029ae:	89 84 24 f4 00 00 00 	mov    %eax,0xf4(%rsp)
   1800029b5:	b9 04 00 00 00       	mov    $0x4,%ecx
   1800029ba:	48 6b c9 02          	imul   $0x2,%rcx,%rcx
   1800029be:	48 89 8c 24 60 01 00 	mov    %rcx,0x160(%rsp)
   1800029c5:	00 
   1800029c6:	48 6b 54 24 20 0f    	imul   $0xf,0x20(%rsp),%rdx
   1800029cc:	48 89 94 24 10 02 00 	mov    %rdx,0x210(%rsp)
   1800029d3:	00 
   1800029d4:	33 d2                	xor    %edx,%edx
   1800029d6:	48 8b bc 24 10 02 00 	mov    0x210(%rsp),%rdi
   1800029dd:	00 
   1800029de:	48 8b c7             	mov    %rdi,%rax
   1800029e1:	bf 20 00 00 00       	mov    $0x20,%edi
   1800029e6:	48 f7 f7             	div    %rdi
   1800029e9:	48 8b c2             	mov    %rdx,%rax
   1800029ec:	ba 20 00 00 00       	mov    $0x20,%edx
   1800029f1:	48 2b d0             	sub    %rax,%rdx
   1800029f4:	48 8b c2             	mov    %rdx,%rax
   1800029f7:	8a c8                	mov    %al,%cl
   1800029f9:	48 8b 84 24 60 01 00 	mov    0x160(%rsp),%rax
   180002a00:	00 
   180002a01:	8b 44 04 40          	mov    0x40(%rsp,%rax,1),%eax
   180002a05:	d3 e8                	shr    %cl,%eax
   180002a07:	8b 8c 24 f4 00 00 00 	mov    0xf4(%rsp),%ecx
   180002a0e:	33 c8                	xor    %eax,%ecx
   180002a10:	8b c1                	mov    %ecx,%eax
   180002a12:	48 8b 4c 24 20       	mov    0x20(%rsp),%rcx
   180002a17:	48 c1 e1 02          	shl    $0x2,%rcx
   180002a1b:	48 8d 4c 8c 40       	lea    0x40(%rsp,%rcx,4),%rcx
   180002a20:	ba 04 00 00 00       	mov    $0x4,%edx
   180002a25:	48 6b d2 01          	imul   $0x1,%rdx,%rdx
   180002a29:	89 04 11             	mov    %eax,(%rcx,%rdx,1)
   180002a2c:	b8 04 00 00 00       	mov    $0x4,%eax
   180002a31:	48 6b c0 02          	imul   $0x2,%rax,%rax
   180002a35:	48 89 84 24 70 02 00 	mov    %rax,0x270(%rsp)
   180002a3c:	00 
   180002a3d:	48 6b 4c 24 20 0f    	imul   $0xf,0x20(%rsp),%rcx
   180002a43:	33 d2                	xor    %edx,%edx
   180002a45:	48 8b c1             	mov    %rcx,%rax
   180002a48:	b9 20 00 00 00       	mov    $0x20,%ecx
   180002a4d:	48 f7 f1             	div    %rcx
   180002a50:	48 8b c2             	mov    %rdx,%rax
   180002a53:	8a c8                	mov    %al,%cl
   180002a55:	48 8b 84 24 70 02 00 	mov    0x270(%rsp),%rax
   180002a5c:	00 
   180002a5d:	8b 44 04 40          	mov    0x40(%rsp,%rax,1),%eax
   180002a61:	d3 e0                	shl    %cl,%eax
   180002a63:	89 84 24 fc 00 00 00 	mov    %eax,0xfc(%rsp)
   180002a6a:	b9 04 00 00 00       	mov    $0x4,%ecx
   180002a6f:	48 6b c9 03          	imul   $0x3,%rcx,%rcx
   180002a73:	48 89 8c 24 20 02 00 	mov    %rcx,0x220(%rsp)
   180002a7a:	00 
   180002a7b:	48 6b 54 24 20 0f    	imul   $0xf,0x20(%rsp),%rdx
   180002a81:	48 89 94 24 70 01 00 	mov    %rdx,0x170(%rsp)
   180002a88:	00 
   180002a89:	33 d2                	xor    %edx,%edx
   180002a8b:	48 8b bc 24 70 01 00 	mov    0x170(%rsp),%rdi
   180002a92:	00 
   180002a93:	48 8b c7             	mov    %rdi,%rax
   180002a96:	bf 20 00 00 00       	mov    $0x20,%edi
   180002a9b:	48 f7 f7             	div    %rdi
   180002a9e:	48 8b c2             	mov    %rdx,%rax
   180002aa1:	ba 20 00 00 00       	mov    $0x20,%edx
   180002aa6:	48 2b d0             	sub    %rax,%rdx
   180002aa9:	48 8b c2             	mov    %rdx,%rax
   180002aac:	8a c8                	mov    %al,%cl
   180002aae:	48 8b 84 24 20 02 00 	mov    0x220(%rsp),%rax
   180002ab5:	00 
   180002ab6:	8b 44 04 40          	mov    0x40(%rsp,%rax,1),%eax
   180002aba:	d3 e8                	shr    %cl,%eax
   180002abc:	8b 8c 24 fc 00 00 00 	mov    0xfc(%rsp),%ecx
   180002ac3:	33 c8                	xor    %eax,%ecx
   180002ac5:	8b c1                	mov    %ecx,%eax
   180002ac7:	48 8b 4c 24 20       	mov    0x20(%rsp),%rcx
   180002acc:	48 c1 e1 02          	shl    $0x2,%rcx
   180002ad0:	48 8d 4c 8c 40       	lea    0x40(%rsp,%rcx,4),%rcx
   180002ad5:	ba 04 00 00 00       	mov    $0x4,%edx
   180002ada:	48 6b d2 02          	imul   $0x2,%rdx,%rdx
   180002ade:	89 04 11             	mov    %eax,(%rcx,%rdx,1)
   180002ae1:	b8 04 00 00 00       	mov    $0x4,%eax
   180002ae6:	48 6b c0 03          	imul   $0x3,%rax,%rax
   180002aea:	48 89 84 24 80 01 00 	mov    %rax,0x180(%rsp)
   180002af1:	00 
   180002af2:	48 6b 4c 24 20 0f    	imul   $0xf,0x20(%rsp),%rcx
   180002af8:	33 d2                	xor    %edx,%edx
   180002afa:	48 8b c1             	mov    %rcx,%rax
   180002afd:	b9 20 00 00 00       	mov    $0x20,%ecx
   180002b02:	48 f7 f1             	div    %rcx
   180002b05:	48 8b c2             	mov    %rdx,%rax
   180002b08:	8a c8                	mov    %al,%cl
   180002b0a:	48 8b 84 24 80 01 00 	mov    0x180(%rsp),%rax
   180002b11:	00 
   180002b12:	8b 44 04 40          	mov    0x40(%rsp,%rax,1),%eax
   180002b16:	d3 e0                	shl    %cl,%eax
   180002b18:	89 84 24 04 01 00 00 	mov    %eax,0x104(%rsp)
   180002b1f:	b9 04 00 00 00       	mov    $0x4,%ecx
   180002b24:	48 6b c9 00          	imul   $0x0,%rcx,%rcx
   180002b28:	48 89 8c 24 90 01 00 	mov    %rcx,0x190(%rsp)
   180002b2f:	00 
   180002b30:	48 6b 54 24 20 0f    	imul   $0xf,0x20(%rsp),%rdx
   180002b36:	48 89 94 24 a8 02 00 	mov    %rdx,0x2a8(%rsp)
   180002b3d:	00 
   180002b3e:	33 d2                	xor    %edx,%edx
   180002b40:	48 8b bc 24 a8 02 00 	mov    0x2a8(%rsp),%rdi
   180002b47:	00 
   180002b48:	48 8b c7             	mov    %rdi,%rax
   180002b4b:	bf 20 00 00 00       	mov    $0x20,%edi
   180002b50:	48 f7 f7             	div    %rdi
   180002b53:	48 8b c2             	mov    %rdx,%rax
   180002b56:	ba 20 00 00 00       	mov    $0x20,%edx
   180002b5b:	48 2b d0             	sub    %rax,%rdx
   180002b5e:	48 8b c2             	mov    %rdx,%rax
   180002b61:	8a c8                	mov    %al,%cl
   180002b63:	48 8b 84 24 90 01 00 	mov    0x190(%rsp),%rax
   180002b6a:	00 
   180002b6b:	8b 44 04 40          	mov    0x40(%rsp,%rax,1),%eax
   180002b6f:	d3 e8                	shr    %cl,%eax
   180002b71:	8b 8c 24 04 01 00 00 	mov    0x104(%rsp),%ecx
   180002b78:	33 c8                	xor    %eax,%ecx
   180002b7a:	8b c1                	mov    %ecx,%eax
   180002b7c:	48 8b 4c 24 20       	mov    0x20(%rsp),%rcx
   180002b81:	48 c1 e1 02          	shl    $0x2,%rcx
   180002b85:	48 8d 4c 8c 40       	lea    0x40(%rsp,%rcx,4),%rcx
   180002b8a:	ba 04 00 00 00       	mov    $0x4,%edx
   180002b8f:	48 6b d2 03          	imul   $0x3,%rdx,%rdx
   180002b93:	89 04 11             	mov    %eax,(%rcx,%rdx,1)
   180002b96:	e9 da fc ff ff       	jmpq   0x180002875
   180002b9b:	48 c7 44 24 20 00 00 	movq   $0x0,0x20(%rsp)
   180002ba2:	00 00 
   180002ba4:	eb 0d                	jmp    0x180002bb3
   180002ba6:	48 8b 44 24 20       	mov    0x20(%rsp),%rax
   180002bab:	48 ff c0             	inc    %rax
   180002bae:	48 89 44 24 20       	mov    %rax,0x20(%rsp)
   180002bb3:	48 83 7c 24 20 14    	cmpq   $0x14,0x20(%rsp)
   180002bb9:	73 72                	jae    0x180002c2d
   180002bbb:	48 63 44 24 28       	movslq 0x28(%rsp),%rax
   180002bc0:	48 6b c0 50          	imul   $0x50,%rax,%rax
   180002bc4:	48 8d 0d 15 19 00 00 	lea    0x1915(%rip),%rcx        # 0x1800044e0
   180002bcb:	48 03 c8             	add    %rax,%rcx
   180002bce:	48 8b c1             	mov    %rcx,%rax
   180002bd1:	b9 14 00 00 00       	mov    $0x14,%ecx
   180002bd6:	48 6b c9 00          	imul   $0x0,%rcx,%rcx
   180002bda:	48 03 c1             	add    %rcx,%rax
   180002bdd:	48 8b 4c 24 20       	mov    0x20(%rsp),%rcx
   180002be2:	0f be 04 08          	movsbl (%rax,%rcx,1),%eax
   180002be6:	83 f8 ff             	cmp    $0xffffffff,%eax
   180002be9:	74 3d                	je     0x180002c28
   180002beb:	48 63 44 24 28       	movslq 0x28(%rsp),%rax
   180002bf0:	48 6b c0 50          	imul   $0x50,%rax,%rax
   180002bf4:	48 8d 0d e5 18 00 00 	lea    0x18e5(%rip),%rcx        # 0x1800044e0
   180002bfb:	48 03 c8             	add    %rax,%rcx
   180002bfe:	48 8b c1             	mov    %rcx,%rax
   180002c01:	b9 14 00 00 00       	mov    $0x14,%ecx
   180002c06:	48 6b c9 00          	imul   $0x0,%rcx,%rcx
   180002c0a:	48 03 c1             	add    %rcx,%rax
   180002c0d:	48 8b 4c 24 20       	mov    0x20(%rsp),%rcx
   180002c12:	48 0f be 04 08       	movsbq (%rax,%rcx,1),%rax
   180002c17:	48 8b 4c 24 30       	mov    0x30(%rsp),%rcx
   180002c1c:	48 8b 54 24 20       	mov    0x20(%rsp),%rdx
   180002c21:	8b 54 94 40          	mov    0x40(%rsp,%rdx,4),%edx
   180002c25:	89 14 81             	mov    %edx,(%rcx,%rax,4)
   180002c28:	e9 79 ff ff ff       	jmpq   0x180002ba6
   180002c2d:	81 bc 24 50 03 00 00 	cmpl   $0x80,0x350(%rsp)
   180002c34:	80 00 00 00 
   180002c38:	0f 86 37 04 00 00    	jbe    0x180003075
   180002c3e:	b8 04 00 00 00       	mov    $0x4,%eax
   180002c43:	48 6b c0 04          	imul   $0x4,%rax,%rax
   180002c47:	b9 04 00 00 00       	mov    $0x4,%ecx
   180002c4c:	48 6b c9 00          	imul   $0x0,%rcx,%rcx
   180002c50:	8b 84 04 90 00 00 00 	mov    0x90(%rsp,%rax,1),%eax
   180002c57:	89 44 0c 40          	mov    %eax,0x40(%rsp,%rcx,1)
   180002c5b:	b8 04 00 00 00       	mov    $0x4,%eax
   180002c60:	48 6b c0 05          	imul   $0x5,%rax,%rax
   180002c64:	b9 04 00 00 00       	mov    $0x4,%ecx
   180002c69:	48 6b c9 01          	imul   $0x1,%rcx,%rcx
   180002c6d:	8b 84 04 90 00 00 00 	mov    0x90(%rsp,%rax,1),%eax
   180002c74:	89 44 0c 40          	mov    %eax,0x40(%rsp,%rcx,1)
   180002c78:	b8 04 00 00 00       	mov    $0x4,%eax
   180002c7d:	48 6b c0 06          	imul   $0x6,%rax,%rax
   180002c81:	b9 04 00 00 00       	mov    $0x4,%ecx
   180002c86:	48 6b c9 02          	imul   $0x2,%rcx,%rcx
   180002c8a:	8b 84 04 90 00 00 00 	mov    0x90(%rsp,%rax,1),%eax
   180002c91:	89 44 0c 40          	mov    %eax,0x40(%rsp,%rcx,1)
   180002c95:	b8 04 00 00 00       	mov    $0x4,%eax
   180002c9a:	48 6b c0 07          	imul   $0x7,%rax,%rax
   180002c9e:	b9 04 00 00 00       	mov    $0x4,%ecx
   180002ca3:	48 6b c9 03          	imul   $0x3,%rcx,%rcx
   180002ca7:	8b 84 04 90 00 00 00 	mov    0x90(%rsp,%rax,1),%eax
   180002cae:	89 44 0c 40          	mov    %eax,0x40(%rsp,%rcx,1)
   180002cb2:	48 c7 44 24 20 01 00 	movq   $0x1,0x20(%rsp)
   180002cb9:	00 00 
   180002cbb:	eb 0d                	jmp    0x180002cca
   180002cbd:	48 8b 44 24 20       	mov    0x20(%rsp),%rax
   180002cc2:	48 ff c0             	inc    %rax
   180002cc5:	48 89 44 24 20       	mov    %rax,0x20(%rsp)
   180002cca:	48 83 7c 24 20 04    	cmpq   $0x4,0x20(%rsp)
   180002cd0:	0f 87 0d 03 00 00    	ja     0x180002fe3
   180002cd6:	48 63 44 24 28       	movslq 0x28(%rsp),%rax
   180002cdb:	48 6b c0 10          	imul   $0x10,%rax,%rax
   180002cdf:	48 8d 0d da 17 00 00 	lea    0x17da(%rip),%rcx        # 0x1800044c0
   180002ce6:	48 03 c8             	add    %rax,%rcx
   180002ce9:	48 8b c1             	mov    %rcx,%rax
   180002cec:	b9 04 00 00 00       	mov    $0x4,%ecx
   180002cf1:	48 6b c9 01          	imul   $0x1,%rcx,%rcx
   180002cf5:	48 03 c1             	add    %rcx,%rax
   180002cf8:	48 8b 4c 24 20       	mov    0x20(%rsp),%rcx
   180002cfd:	0f b6 44 08 ff       	movzbl -0x1(%rax,%rcx,1),%eax
   180002d02:	85 c0                	test   %eax,%eax
   180002d04:	0f 84 d4 02 00 00    	je     0x180002fde
   180002d0a:	b8 04 00 00 00       	mov    $0x4,%eax
   180002d0f:	48 6b c0 00          	imul   $0x0,%rax,%rax
   180002d13:	48 89 84 24 10 01 00 	mov    %rax,0x110(%rsp)
   180002d1a:	00 
   180002d1b:	48 6b 4c 24 20 0f    	imul   $0xf,0x20(%rsp),%rcx
   180002d21:	33 d2                	xor    %edx,%edx
   180002d23:	48 8b c1             	mov    %rcx,%rax
   180002d26:	b9 20 00 00 00       	mov    $0x20,%ecx
   180002d2b:	48 f7 f1             	div    %rcx
   180002d2e:	48 8b c2             	mov    %rdx,%rax
   180002d31:	8a c8                	mov    %al,%cl
   180002d33:	48 8b 84 24 10 01 00 	mov    0x110(%rsp),%rax
   180002d3a:	00 
   180002d3b:	8b 44 04 40          	mov    0x40(%rsp,%rax,1),%eax
   180002d3f:	d3 e0                	shl    %cl,%eax
   180002d41:	89 84 24 0c 01 00 00 	mov    %eax,0x10c(%rsp)
   180002d48:	b9 04 00 00 00       	mov    $0x4,%ecx
   180002d4d:	48 6b c9 01          	imul   $0x1,%rcx,%rcx
   180002d51:	48 89 8c 24 80 02 00 	mov    %rcx,0x280(%rsp)
   180002d58:	00 
   180002d59:	48 6b 54 24 20 0f    	imul   $0xf,0x20(%rsp),%rdx
   180002d5f:	48 89 94 24 a0 01 00 	mov    %rdx,0x1a0(%rsp)
   180002d66:	00 
   180002d67:	33 d2                	xor    %edx,%edx
   180002d69:	48 8b bc 24 a0 01 00 	mov    0x1a0(%rsp),%rdi
   180002d70:	00 
   180002d71:	48 8b c7             	mov    %rdi,%rax
   180002d74:	bf 20 00 00 00       	mov    $0x20,%edi
   180002d79:	48 f7 f7             	div    %rdi
   180002d7c:	48 8b c2             	mov    %rdx,%rax
   180002d7f:	ba 20 00 00 00       	mov    $0x20,%edx
   180002d84:	48 2b d0             	sub    %rax,%rdx
   180002d87:	48 8b c2             	mov    %rdx,%rax
   180002d8a:	8a c8                	mov    %al,%cl
   180002d8c:	48 8b 84 24 80 02 00 	mov    0x280(%rsp),%rax
   180002d93:	00 
   180002d94:	8b 44 04 40          	mov    0x40(%rsp,%rax,1),%eax
   180002d98:	d3 e8                	shr    %cl,%eax
   180002d9a:	8b 8c 24 0c 01 00 00 	mov    0x10c(%rsp),%ecx
   180002da1:	33 c8                	xor    %eax,%ecx
   180002da3:	8b c1                	mov    %ecx,%eax
   180002da5:	48 8b 4c 24 20       	mov    0x20(%rsp),%rcx
   180002daa:	48 c1 e1 02          	shl    $0x2,%rcx
   180002dae:	48 8d 4c 8c 40       	lea    0x40(%rsp,%rcx,4),%rcx
   180002db3:	ba 04 00 00 00       	mov    $0x4,%edx
   180002db8:	48 6b d2 00          	imul   $0x0,%rdx,%rdx
   180002dbc:	89 04 11             	mov    %eax,(%rcx,%rdx,1)
   180002dbf:	b8 04 00 00 00       	mov    $0x4,%eax
   180002dc4:	48 6b c0 01          	imul   $0x1,%rax,%rax
   180002dc8:	48 89 84 24 b0 01 00 	mov    %rax,0x1b0(%rsp)
   180002dcf:	00 
   180002dd0:	48 6b 4c 24 20 0f    	imul   $0xf,0x20(%rsp),%rcx
   180002dd6:	33 d2                	xor    %edx,%edx
   180002dd8:	48 8b c1             	mov    %rcx,%rax
   180002ddb:	b9 20 00 00 00       	mov    $0x20,%ecx
   180002de0:	48 f7 f1             	div    %rcx
   180002de3:	48 8b c2             	mov    %rdx,%rax
   180002de6:	8a c8                	mov    %al,%cl
   180002de8:	48 8b 84 24 b0 01 00 	mov    0x1b0(%rsp),%rax
   180002def:	00 
   180002df0:	8b 44 04 40          	mov    0x40(%rsp,%rax,1),%eax
   180002df4:	d3 e0                	shl    %cl,%eax
   180002df6:	89 84 24 d8 00 00 00 	mov    %eax,0xd8(%rsp)
   180002dfd:	b9 04 00 00 00       	mov    $0x4,%ecx
   180002e02:	48 6b c9 02          	imul   $0x2,%rcx,%rcx
   180002e06:	48 89 8c 24 c0 01 00 	mov    %rcx,0x1c0(%rsp)
   180002e0d:	00 
   180002e0e:	48 6b 54 24 20 0f    	imul   $0xf,0x20(%rsp),%rdx
   180002e14:	48 89 94 24 40 02 00 	mov    %rdx,0x240(%rsp)
   180002e1b:	00 
   180002e1c:	33 d2                	xor    %edx,%edx
   180002e1e:	48 8b bc 24 40 02 00 	mov    0x240(%rsp),%rdi
   180002e25:	00 
   180002e26:	48 8b c7             	mov    %rdi,%rax
   180002e29:	bf 20 00 00 00       	mov    $0x20,%edi
   180002e2e:	48 f7 f7             	div    %rdi
   180002e31:	48 8b c2             	mov    %rdx,%rax
   180002e34:	ba 20 00 00 00       	mov    $0x20,%edx
   180002e39:	48 2b d0             	sub    %rax,%rdx
   180002e3c:	48 8b c2             	mov    %rdx,%rax
   180002e3f:	8a c8                	mov    %al,%cl
   180002e41:	48 8b 84 24 c0 01 00 	mov    0x1c0(%rsp),%rax
   180002e48:	00 
   180002e49:	8b 44 04 40          	mov    0x40(%rsp,%rax,1),%eax
   180002e4d:	d3 e8                	shr    %cl,%eax
   180002e4f:	8b 8c 24 d8 00 00 00 	mov    0xd8(%rsp),%ecx
   180002e56:	33 c8                	xor    %eax,%ecx
   180002e58:	8b c1                	mov    %ecx,%eax
   180002e5a:	48 8b 4c 24 20       	mov    0x20(%rsp),%rcx
   180002e5f:	48 c1 e1 02          	shl    $0x2,%rcx
   180002e63:	48 8d 4c 8c 40       	lea    0x40(%rsp,%rcx,4),%rcx
   180002e68:	ba 04 00 00 00       	mov    $0x4,%edx
   180002e6d:	48 6b d2 01          	imul   $0x1,%rdx,%rdx
   180002e71:	89 04 11             	mov    %eax,(%rcx,%rdx,1)
   180002e74:	b8 04 00 00 00       	mov    $0x4,%eax
   180002e79:	48 6b c0 02          	imul   $0x2,%rax,%rax
   180002e7d:	48 89 84 24 b0 02 00 	mov    %rax,0x2b0(%rsp)
   180002e84:	00 
   180002e85:	48 6b 4c 24 20 0f    	imul   $0xf,0x20(%rsp),%rcx
   180002e8b:	33 d2                	xor    %edx,%edx
   180002e8d:	48 8b c1             	mov    %rcx,%rax
   180002e90:	b9 20 00 00 00       	mov    $0x20,%ecx
   180002e95:	48 f7 f1             	div    %rcx
   180002e98:	48 8b c2             	mov    %rdx,%rax
   180002e9b:	8a c8                	mov    %al,%cl
   180002e9d:	48 8b 84 24 b0 02 00 	mov    0x2b0(%rsp),%rax
   180002ea4:	00 
   180002ea5:	8b 44 04 40          	mov    0x40(%rsp,%rax,1),%eax
   180002ea9:	d3 e0                	shl    %cl,%eax
   180002eab:	89 84 24 00 01 00 00 	mov    %eax,0x100(%rsp)
   180002eb2:	b9 04 00 00 00       	mov    $0x4,%ecx
   180002eb7:	48 6b c9 03          	imul   $0x3,%rcx,%rcx
   180002ebb:	48 89 8c 24 50 02 00 	mov    %rcx,0x250(%rsp)
   180002ec2:	00 
   180002ec3:	48 6b 54 24 20 0f    	imul   $0xf,0x20(%rsp),%rdx
   180002ec9:	48 89 94 24 d0 01 00 	mov    %rdx,0x1d0(%rsp)
   180002ed0:	00 
   180002ed1:	33 d2                	xor    %edx,%edx
   180002ed3:	48 8b bc 24 d0 01 00 	mov    0x1d0(%rsp),%rdi
   180002eda:	00 
   180002edb:	48 8b c7             	mov    %rdi,%rax
   180002ede:	bf 20 00 00 00       	mov    $0x20,%edi
   180002ee3:	48 f7 f7             	div    %rdi
   180002ee6:	48 8b c2             	mov    %rdx,%rax
   180002ee9:	ba 20 00 00 00       	mov    $0x20,%edx
   180002eee:	48 2b d0             	sub    %rax,%rdx
   180002ef1:	48 8b c2             	mov    %rdx,%rax
   180002ef4:	8a c8                	mov    %al,%cl
   180002ef6:	48 8b 84 24 50 02 00 	mov    0x250(%rsp),%rax
   180002efd:	00 
   180002efe:	8b 44 04 40          	mov    0x40(%rsp,%rax,1),%eax
   180002f02:	d3 e8                	shr    %cl,%eax
   180002f04:	8b 8c 24 00 01 00 00 	mov    0x100(%rsp),%ecx
   180002f0b:	33 c8                	xor    %eax,%ecx
   180002f0d:	8b c1                	mov    %ecx,%eax
   180002f0f:	48 8b 4c 24 20       	mov    0x20(%rsp),%rcx
   180002f14:	48 c1 e1 02          	shl    $0x2,%rcx
   180002f18:	48 8d 4c 8c 40       	lea    0x40(%rsp,%rcx,4),%rcx
   180002f1d:	ba 04 00 00 00       	mov    $0x4,%edx
   180002f22:	48 6b d2 02          	imul   $0x2,%rdx,%rdx
   180002f26:	89 04 11             	mov    %eax,(%rcx,%rdx,1)
   180002f29:	b8 04 00 00 00       	mov    $0x4,%eax
   180002f2e:	48 6b c0 03          	imul   $0x3,%rax,%rax
   180002f32:	48 89 84 24 e0 01 00 	mov    %rax,0x1e0(%rsp)
   180002f39:	00 
   180002f3a:	48 6b 4c 24 20 0f    	imul   $0xf,0x20(%rsp),%rcx
   180002f40:	33 d2                	xor    %edx,%edx
   180002f42:	48 8b c1             	mov    %rcx,%rax
   180002f45:	b9 20 00 00 00       	mov    $0x20,%ecx
   180002f4a:	48 f7 f1             	div    %rcx
   180002f4d:	48 8b c2             	mov    %rdx,%rax
   180002f50:	8a c8                	mov    %al,%cl
   180002f52:	48 8b 84 24 e0 01 00 	mov    0x1e0(%rsp),%rax
   180002f59:	00 
   180002f5a:	8b 44 04 40          	mov    0x40(%rsp,%rax,1),%eax
   180002f5e:	d3 e0                	shl    %cl,%eax
   180002f60:	89 84 24 e0 00 00 00 	mov    %eax,0xe0(%rsp)
   180002f67:	b9 04 00 00 00       	mov    $0x4,%ecx
   180002f6c:	48 6b c9 00          	imul   $0x0,%rcx,%rcx
   180002f70:	48 89 8c 24 f0 01 00 	mov    %rcx,0x1f0(%rsp)
   180002f77:	00 
   180002f78:	48 6b 54 24 20 0f    	imul   $0xf,0x20(%rsp),%rdx
   180002f7e:	48 89 94 24 90 02 00 	mov    %rdx,0x290(%rsp)
   180002f85:	00 
   180002f86:	33 d2                	xor    %edx,%edx
   180002f88:	48 8b bc 24 90 02 00 	mov    0x290(%rsp),%rdi
   180002f8f:	00 
   180002f90:	48 8b c7             	mov    %rdi,%rax
   180002f93:	bf 20 00 00 00       	mov    $0x20,%edi
   180002f98:	48 f7 f7             	div    %rdi
   180002f9b:	48 8b c2             	mov    %rdx,%rax
   180002f9e:	ba 20 00 00 00       	mov    $0x20,%edx
   180002fa3:	48 2b d0             	sub    %rax,%rdx
   180002fa6:	48 8b c2             	mov    %rdx,%rax
   180002fa9:	8a c8                	mov    %al,%cl
   180002fab:	48 8b 84 24 f0 01 00 	mov    0x1f0(%rsp),%rax
   180002fb2:	00 
   180002fb3:	8b 44 04 40          	mov    0x40(%rsp,%rax,1),%eax
   180002fb7:	d3 e8                	shr    %cl,%eax
   180002fb9:	8b 8c 24 e0 00 00 00 	mov    0xe0(%rsp),%ecx
   180002fc0:	33 c8                	xor    %eax,%ecx
   180002fc2:	8b c1                	mov    %ecx,%eax
   180002fc4:	48 8b 4c 24 20       	mov    0x20(%rsp),%rcx
   180002fc9:	48 c1 e1 02          	shl    $0x2,%rcx
   180002fcd:	48 8d 4c 8c 40       	lea    0x40(%rsp,%rcx,4),%rcx
   180002fd2:	ba 04 00 00 00       	mov    $0x4,%edx
   180002fd7:	48 6b d2 03          	imul   $0x3,%rdx,%rdx
   180002fdb:	89 04 11             	mov    %eax,(%rcx,%rdx,1)
   180002fde:	e9 da fc ff ff       	jmpq   0x180002cbd
   180002fe3:	48 c7 44 24 20 00 00 	movq   $0x0,0x20(%rsp)
   180002fea:	00 00 
   180002fec:	eb 0d                	jmp    0x180002ffb
   180002fee:	48 8b 44 24 20       	mov    0x20(%rsp),%rax
   180002ff3:	48 ff c0             	inc    %rax
   180002ff6:	48 89 44 24 20       	mov    %rax,0x20(%rsp)
   180002ffb:	48 83 7c 24 20 14    	cmpq   $0x14,0x20(%rsp)
   180003001:	73 72                	jae    0x180003075
   180003003:	48 63 44 24 28       	movslq 0x28(%rsp),%rax
   180003008:	48 6b c0 50          	imul   $0x50,%rax,%rax
   18000300c:	48 8d 0d cd 14 00 00 	lea    0x14cd(%rip),%rcx        # 0x1800044e0
   180003013:	48 03 c8             	add    %rax,%rcx
   180003016:	48 8b c1             	mov    %rcx,%rax
   180003019:	b9 14 00 00 00       	mov    $0x14,%ecx
   18000301e:	48 6b c9 01          	imul   $0x1,%rcx,%rcx
   180003022:	48 03 c1             	add    %rcx,%rax
   180003025:	48 8b 4c 24 20       	mov    0x20(%rsp),%rcx
   18000302a:	0f be 04 08          	movsbl (%rax,%rcx,1),%eax
   18000302e:	83 f8 ff             	cmp    $0xffffffff,%eax
   180003031:	74 3d                	je     0x180003070
   180003033:	48 63 44 24 28       	movslq 0x28(%rsp),%rax
   180003038:	48 6b c0 50          	imul   $0x50,%rax,%rax
   18000303c:	48 8d 0d 9d 14 00 00 	lea    0x149d(%rip),%rcx        # 0x1800044e0
   180003043:	48 03 c8             	add    %rax,%rcx
   180003046:	48 8b c1             	mov    %rcx,%rax
   180003049:	b9 14 00 00 00       	mov    $0x14,%ecx
   18000304e:	48 6b c9 01          	imul   $0x1,%rcx,%rcx
   180003052:	48 03 c1             	add    %rcx,%rax
   180003055:	48 8b 4c 24 20       	mov    0x20(%rsp),%rcx
   18000305a:	48 0f be 04 08       	movsbq (%rax,%rcx,1),%rax
   18000305f:	48 8b 4c 24 30       	mov    0x30(%rsp),%rcx
   180003064:	48 8b 54 24 20       	mov    0x20(%rsp),%rdx
   180003069:	8b 54 94 40          	mov    0x40(%rsp,%rdx,4),%edx
   18000306d:	89 14 81             	mov    %edx,(%rcx,%rax,4)
   180003070:	e9 79 ff ff ff       	jmpq   0x180002fee
   180003075:	b8 04 00 00 00       	mov    $0x4,%eax
   18000307a:	48 6b c0 08          	imul   $0x8,%rax,%rax
   18000307e:	b9 04 00 00 00       	mov    $0x4,%ecx
   180003083:	48 6b c9 00          	imul   $0x0,%rcx,%rcx
   180003087:	8b 84 04 90 00 00 00 	mov    0x90(%rsp,%rax,1),%eax
   18000308e:	89 44 0c 40          	mov    %eax,0x40(%rsp,%rcx,1)
   180003092:	b8 04 00 00 00       	mov    $0x4,%eax
   180003097:	48 6b c0 09          	imul   $0x9,%rax,%rax
   18000309b:	b9 04 00 00 00       	mov    $0x4,%ecx
   1800030a0:	48 6b c9 01          	imul   $0x1,%rcx,%rcx
   1800030a4:	8b 84 04 90 00 00 00 	mov    0x90(%rsp,%rax,1),%eax
   1800030ab:	89 44 0c 40          	mov    %eax,0x40(%rsp,%rcx,1)
   1800030af:	b8 04 00 00 00       	mov    $0x4,%eax
   1800030b4:	48 6b c0 0a          	imul   $0xa,%rax,%rax
   1800030b8:	b9 04 00 00 00       	mov    $0x4,%ecx
   1800030bd:	48 6b c9 02          	imul   $0x2,%rcx,%rcx
   1800030c1:	8b 84 04 90 00 00 00 	mov    0x90(%rsp,%rax,1),%eax
   1800030c8:	89 44 0c 40          	mov    %eax,0x40(%rsp,%rcx,1)
   1800030cc:	b8 04 00 00 00       	mov    $0x4,%eax
   1800030d1:	48 6b c0 0b          	imul   $0xb,%rax,%rax
   1800030d5:	b9 04 00 00 00       	mov    $0x4,%ecx
   1800030da:	48 6b c9 03          	imul   $0x3,%rcx,%rcx
   1800030de:	8b 84 04 90 00 00 00 	mov    0x90(%rsp,%rax,1),%eax
   1800030e5:	89 44 0c 40          	mov    %eax,0x40(%rsp,%rcx,1)
   1800030e9:	48 c7 44 24 20 01 00 	movq   $0x1,0x20(%rsp)
   1800030f0:	00 00 
   1800030f2:	eb 0d                	jmp    0x180003101
   1800030f4:	48 8b 44 24 20       	mov    0x20(%rsp),%rax
   1800030f9:	48 ff c0             	inc    %rax
   1800030fc:	48 89 44 24 20       	mov    %rax,0x20(%rsp)
   180003101:	48 83 7c 24 20 04    	cmpq   $0x4,0x20(%rsp)
   180003107:	0f 87 0d 03 00 00    	ja     0x18000341a
   18000310d:	48 63 44 24 28       	movslq 0x28(%rsp),%rax
   180003112:	48 6b c0 10          	imul   $0x10,%rax,%rax
   180003116:	48 8d 0d a3 13 00 00 	lea    0x13a3(%rip),%rcx        # 0x1800044c0
   18000311d:	48 03 c8             	add    %rax,%rcx
   180003120:	48 8b c1             	mov    %rcx,%rax
   180003123:	b9 04 00 00 00       	mov    $0x4,%ecx
   180003128:	48 6b c9 02          	imul   $0x2,%rcx,%rcx
   18000312c:	48 03 c1             	add    %rcx,%rax
   18000312f:	48 8b 4c 24 20       	mov    0x20(%rsp),%rcx
   180003134:	0f b6 44 08 ff       	movzbl -0x1(%rax,%rcx,1),%eax
   180003139:	85 c0                	test   %eax,%eax
   18000313b:	0f 84 d4 02 00 00    	je     0x180003415
   180003141:	b8 04 00 00 00       	mov    $0x4,%eax
   180003146:	48 6b c0 00          	imul   $0x0,%rax,%rax
   18000314a:	48 89 84 24 18 01 00 	mov    %rax,0x118(%rsp)
   180003151:	00 
   180003152:	48 6b 4c 24 20 0f    	imul   $0xf,0x20(%rsp),%rcx
   180003158:	33 d2                	xor    %edx,%edx
   18000315a:	48 8b c1             	mov    %rcx,%rax
   18000315d:	b9 20 00 00 00       	mov    $0x20,%ecx
   180003162:	48 f7 f1             	div    %rcx
   180003165:	48 8b c2             	mov    %rdx,%rax
   180003168:	8a c8                	mov    %al,%cl
   18000316a:	48 8b 84 24 18 01 00 	mov    0x118(%rsp),%rax
   180003171:	00 
   180003172:	8b 44 04 40          	mov    0x40(%rsp,%rax,1),%eax
   180003176:	d3 e0                	shl    %cl,%eax
   180003178:	89 84 24 d0 00 00 00 	mov    %eax,0xd0(%rsp)
   18000317f:	b9 04 00 00 00       	mov    $0x4,%ecx
   180003184:	48 6b c9 01          	imul   $0x1,%rcx,%rcx
   180003188:	48 89 8c 24 38 01 00 	mov    %rcx,0x138(%rsp)
   18000318f:	00 
   180003190:	48 6b 54 24 20 0f    	imul   $0xf,0x20(%rsp),%rdx
   180003196:	48 89 94 24 28 01 00 	mov    %rdx,0x128(%rsp)
   18000319d:	00 
   18000319e:	33 d2                	xor    %edx,%edx
   1800031a0:	48 8b bc 24 28 01 00 	mov    0x128(%rsp),%rdi
   1800031a7:	00 
   1800031a8:	48 8b c7             	mov    %rdi,%rax
   1800031ab:	bf 20 00 00 00       	mov    $0x20,%edi
   1800031b0:	48 f7 f7             	div    %rdi
   1800031b3:	48 8b c2             	mov    %rdx,%rax
   1800031b6:	ba 20 00 00 00       	mov    $0x20,%edx
   1800031bb:	48 2b d0             	sub    %rax,%rdx
   1800031be:	48 8b c2             	mov    %rdx,%rax
   1800031c1:	8a c8                	mov    %al,%cl
   1800031c3:	48 8b 84 24 38 01 00 	mov    0x138(%rsp),%rax
   1800031ca:	00 
   1800031cb:	8b 44 04 40          	mov    0x40(%rsp,%rax,1),%eax
   1800031cf:	d3 e8                	shr    %cl,%eax
   1800031d1:	8b 8c 24 d0 00 00 00 	mov    0xd0(%rsp),%ecx
   1800031d8:	33 c8                	xor    %eax,%ecx
   1800031da:	8b c1                	mov    %ecx,%eax
   1800031dc:	48 8b 4c 24 20       	mov    0x20(%rsp),%rcx
   1800031e1:	48 c1 e1 02          	shl    $0x2,%rcx
   1800031e5:	48 8d 4c 8c 40       	lea    0x40(%rsp,%rcx,4),%rcx
   1800031ea:	ba 04 00 00 00       	mov    $0x4,%edx
   1800031ef:	48 6b d2 00          	imul   $0x0,%rdx,%rdx
   1800031f3:	89 04 11             	mov    %eax,(%rcx,%rdx,1)
   1800031f6:	b8 04 00 00 00       	mov    $0x4,%eax
   1800031fb:	48 6b c0 01          	imul   $0x1,%rax,%rax
   1800031ff:	48 89 84 24 48 01 00 	mov    %rax,0x148(%rsp)
   180003206:	00 
   180003207:	48 6b 4c 24 20 0f    	imul   $0xf,0x20(%rsp),%rcx
   18000320d:	33 d2                	xor    %edx,%edx
   18000320f:	48 8b c1             	mov    %rcx,%rax
   180003212:	b9 20 00 00 00       	mov    $0x20,%ecx
   180003217:	48 f7 f1             	div    %rcx
   18000321a:	48 8b c2             	mov    %rdx,%rax
   18000321d:	8a c8                	mov    %al,%cl
   18000321f:	48 8b 84 24 48 01 00 	mov    0x148(%rsp),%rax
   180003226:	00 
   180003227:	8b 44 04 40          	mov    0x40(%rsp,%rax,1),%eax
   18000322b:	d3 e0                	shl    %cl,%eax
   18000322d:	89 84 24 e8 00 00 00 	mov    %eax,0xe8(%rsp)
   180003234:	b9 04 00 00 00       	mov    $0x4,%ecx
   180003239:	48 6b c9 02          	imul   $0x2,%rcx,%rcx
   18000323d:	48 89 8c 24 68 01 00 	mov    %rcx,0x168(%rsp)
   180003244:	00 
   180003245:	48 6b 54 24 20 0f    	imul   $0xf,0x20(%rsp),%rdx
   18000324b:	48 89 94 24 58 01 00 	mov    %rdx,0x158(%rsp)
   180003252:	00 
   180003253:	33 d2                	xor    %edx,%edx
   180003255:	48 8b bc 24 58 01 00 	mov    0x158(%rsp),%rdi
   18000325c:	00 
   18000325d:	48 8b c7             	mov    %rdi,%rax
   180003260:	bf 20 00 00 00       	mov    $0x20,%edi
   180003265:	48 f7 f7             	div    %rdi
   180003268:	48 8b c2             	mov    %rdx,%rax
   18000326b:	ba 20 00 00 00       	mov    $0x20,%edx
   180003270:	48 2b d0             	sub    %rax,%rdx
   180003273:	48 8b c2             	mov    %rdx,%rax
   180003276:	8a c8                	mov    %al,%cl
   180003278:	48 8b 84 24 68 01 00 	mov    0x168(%rsp),%rax
   18000327f:	00 
   180003280:	8b 44 04 40          	mov    0x40(%rsp,%rax,1),%eax
   180003284:	d3 e8                	shr    %cl,%eax
   180003286:	8b 8c 24 e8 00 00 00 	mov    0xe8(%rsp),%ecx
   18000328d:	33 c8                	xor    %eax,%ecx
   18000328f:	8b c1                	mov    %ecx,%eax
   180003291:	48 8b 4c 24 20       	mov    0x20(%rsp),%rcx
   180003296:	48 c1 e1 02          	shl    $0x2,%rcx
   18000329a:	48 8d 4c 8c 40       	lea    0x40(%rsp,%rcx,4),%rcx
   18000329f:	ba 04 00 00 00       	mov    $0x4,%edx
   1800032a4:	48 6b d2 01          	imul   $0x1,%rdx,%rdx
   1800032a8:	89 04 11             	mov    %eax,(%rcx,%rdx,1)
   1800032ab:	b8 04 00 00 00       	mov    $0x4,%eax
   1800032b0:	48 6b c0 02          	imul   $0x2,%rax,%rax
   1800032b4:	48 89 84 24 78 01 00 	mov    %rax,0x178(%rsp)
   1800032bb:	00 
   1800032bc:	48 6b 4c 24 20 0f    	imul   $0xf,0x20(%rsp),%rcx
   1800032c2:	33 d2                	xor    %edx,%edx
   1800032c4:	48 8b c1             	mov    %rcx,%rax
   1800032c7:	b9 20 00 00 00       	mov    $0x20,%ecx
   1800032cc:	48 f7 f1             	div    %rcx
   1800032cf:	48 8b c2             	mov    %rdx,%rax
   1800032d2:	8a c8                	mov    %al,%cl
   1800032d4:	48 8b 84 24 78 01 00 	mov    0x178(%rsp),%rax
   1800032db:	00 
   1800032dc:	8b 44 04 40          	mov    0x40(%rsp,%rax,1),%eax
   1800032e0:	d3 e0                	shl    %cl,%eax
   1800032e2:	89 84 24 08 01 00 00 	mov    %eax,0x108(%rsp)
   1800032e9:	b9 04 00 00 00       	mov    $0x4,%ecx
   1800032ee:	48 6b c9 03          	imul   $0x3,%rcx,%rcx
   1800032f2:	48 89 8c 24 98 01 00 	mov    %rcx,0x198(%rsp)
   1800032f9:	00 
   1800032fa:	48 6b 54 24 20 0f    	imul   $0xf,0x20(%rsp),%rdx
   180003300:	48 89 94 24 88 01 00 	mov    %rdx,0x188(%rsp)
   180003307:	00 
   180003308:	33 d2                	xor    %edx,%edx
   18000330a:	48 8b bc 24 88 01 00 	mov    0x188(%rsp),%rdi
   180003311:	00 
   180003312:	48 8b c7             	mov    %rdi,%rax
   180003315:	bf 20 00 00 00       	mov    $0x20,%edi
   18000331a:	48 f7 f7             	div    %rdi
   18000331d:	48 8b c2             	mov    %rdx,%rax
   180003320:	ba 20 00 00 00       	mov    $0x20,%edx
   180003325:	48 2b d0             	sub    %rax,%rdx
   180003328:	48 8b c2             	mov    %rdx,%rax
   18000332b:	8a c8                	mov    %al,%cl
   18000332d:	48 8b 84 24 98 01 00 	mov    0x198(%rsp),%rax
   180003334:	00 
   180003335:	8b 44 04 40          	mov    0x40(%rsp,%rax,1),%eax
   180003339:	d3 e8                	shr    %cl,%eax
   18000333b:	8b 8c 24 08 01 00 00 	mov    0x108(%rsp),%ecx
   180003342:	33 c8                	xor    %eax,%ecx
   180003344:	8b c1                	mov    %ecx,%eax
   180003346:	48 8b 4c 24 20       	mov    0x20(%rsp),%rcx
   18000334b:	48 c1 e1 02          	shl    $0x2,%rcx
   18000334f:	48 8d 4c 8c 40       	lea    0x40(%rsp,%rcx,4),%rcx
   180003354:	ba 04 00 00 00       	mov    $0x4,%edx
   180003359:	48 6b d2 02          	imul   $0x2,%rdx,%rdx
   18000335d:	89 04 11             	mov    %eax,(%rcx,%rdx,1)
   180003360:	b8 04 00 00 00       	mov    $0x4,%eax
   180003365:	48 6b c0 03          	imul   $0x3,%rax,%rax
   180003369:	48 89 84 24 a8 01 00 	mov    %rax,0x1a8(%rsp)
   180003370:	00 
   180003371:	48 6b 4c 24 20 0f    	imul   $0xf,0x20(%rsp),%rcx
   180003377:	33 d2                	xor    %edx,%edx
   180003379:	48 8b c1             	mov    %rcx,%rax
   18000337c:	b9 20 00 00 00       	mov    $0x20,%ecx
   180003381:	48 f7 f1             	div    %rcx
   180003384:	48 8b c2             	mov    %rdx,%rax
   180003387:	8a c8                	mov    %al,%cl
   180003389:	48 8b 84 24 a8 01 00 	mov    0x1a8(%rsp),%rax
   180003390:	00 
   180003391:	8b 44 04 40          	mov    0x40(%rsp,%rax,1),%eax
   180003395:	d3 e0                	shl    %cl,%eax
   180003397:	89 84 24 f0 00 00 00 	mov    %eax,0xf0(%rsp)
   18000339e:	b9 04 00 00 00       	mov    $0x4,%ecx
   1800033a3:	48 6b c9 00          	imul   $0x0,%rcx,%rcx
   1800033a7:	48 89 8c 24 c8 01 00 	mov    %rcx,0x1c8(%rsp)
   1800033ae:	00 
   1800033af:	48 6b 54 24 20 0f    	imul   $0xf,0x20(%rsp),%rdx
   1800033b5:	48 89 94 24 b8 01 00 	mov    %rdx,0x1b8(%rsp)
   1800033bc:	00 
   1800033bd:	33 d2                	xor    %edx,%edx
   1800033bf:	48 8b bc 24 b8 01 00 	mov    0x1b8(%rsp),%rdi
   1800033c6:	00 
   1800033c7:	48 8b c7             	mov    %rdi,%rax
   1800033ca:	bf 20 00 00 00       	mov    $0x20,%edi
   1800033cf:	48 f7 f7             	div    %rdi
   1800033d2:	48 8b c2             	mov    %rdx,%rax
   1800033d5:	ba 20 00 00 00       	mov    $0x20,%edx
   1800033da:	48 2b d0             	sub    %rax,%rdx
   1800033dd:	48 8b c2             	mov    %rdx,%rax
   1800033e0:	8a c8                	mov    %al,%cl
   1800033e2:	48 8b 84 24 c8 01 00 	mov    0x1c8(%rsp),%rax
   1800033e9:	00 
   1800033ea:	8b 44 04 40          	mov    0x40(%rsp,%rax,1),%eax
   1800033ee:	d3 e8                	shr    %cl,%eax
   1800033f0:	8b 8c 24 f0 00 00 00 	mov    0xf0(%rsp),%ecx
   1800033f7:	33 c8                	xor    %eax,%ecx
   1800033f9:	8b c1                	mov    %ecx,%eax
   1800033fb:	48 8b 4c 24 20       	mov    0x20(%rsp),%rcx
   180003400:	48 c1 e1 02          	shl    $0x2,%rcx
   180003404:	48 8d 4c 8c 40       	lea    0x40(%rsp,%rcx,4),%rcx
   180003409:	ba 04 00 00 00       	mov    $0x4,%edx
   18000340e:	48 6b d2 03          	imul   $0x3,%rdx,%rdx
   180003412:	89 04 11             	mov    %eax,(%rcx,%rdx,1)
   180003415:	e9 da fc ff ff       	jmpq   0x1800030f4
   18000341a:	48 c7 44 24 20 00 00 	movq   $0x0,0x20(%rsp)
   180003421:	00 00 
   180003423:	eb 0d                	jmp    0x180003432
   180003425:	48 8b 44 24 20       	mov    0x20(%rsp),%rax
   18000342a:	48 ff c0             	inc    %rax
   18000342d:	48 89 44 24 20       	mov    %rax,0x20(%rsp)
   180003432:	48 83 7c 24 20 14    	cmpq   $0x14,0x20(%rsp)
   180003438:	73 72                	jae    0x1800034ac
   18000343a:	48 63 44 24 28       	movslq 0x28(%rsp),%rax
   18000343f:	48 6b c0 50          	imul   $0x50,%rax,%rax
   180003443:	48 8d 0d 96 10 00 00 	lea    0x1096(%rip),%rcx        # 0x1800044e0
   18000344a:	48 03 c8             	add    %rax,%rcx
   18000344d:	48 8b c1             	mov    %rcx,%rax
   180003450:	b9 14 00 00 00       	mov    $0x14,%ecx
   180003455:	48 6b c9 02          	imul   $0x2,%rcx,%rcx
   180003459:	48 03 c1             	add    %rcx,%rax
   18000345c:	48 8b 4c 24 20       	mov    0x20(%rsp),%rcx
   180003461:	0f be 04 08          	movsbl (%rax,%rcx,1),%eax
   180003465:	83 f8 ff             	cmp    $0xffffffff,%eax
   180003468:	74 3d                	je     0x1800034a7
   18000346a:	48 63 44 24 28       	movslq 0x28(%rsp),%rax
   18000346f:	48 6b c0 50          	imul   $0x50,%rax,%rax
   180003473:	48 8d 0d 66 10 00 00 	lea    0x1066(%rip),%rcx        # 0x1800044e0
   18000347a:	48 03 c8             	add    %rax,%rcx
   18000347d:	48 8b c1             	mov    %rcx,%rax
   180003480:	b9 14 00 00 00       	mov    $0x14,%ecx
   180003485:	48 6b c9 02          	imul   $0x2,%rcx,%rcx
   180003489:	48 03 c1             	add    %rcx,%rax
   18000348c:	48 8b 4c 24 20       	mov    0x20(%rsp),%rcx
   180003491:	48 0f be 04 08       	movsbq (%rax,%rcx,1),%rax
   180003496:	48 8b 4c 24 30       	mov    0x30(%rsp),%rcx
   18000349b:	48 8b 54 24 20       	mov    0x20(%rsp),%rdx
   1800034a0:	8b 54 94 40          	mov    0x40(%rsp,%rdx,4),%edx
   1800034a4:	89 14 81             	mov    %edx,(%rcx,%rax,4)
   1800034a7:	e9 79 ff ff ff       	jmpq   0x180003425
   1800034ac:	81 bc 24 50 03 00 00 	cmpl   $0x80,0x350(%rsp)
   1800034b3:	80 00 00 00 
   1800034b7:	0f 86 37 04 00 00    	jbe    0x1800038f4
   1800034bd:	b8 04 00 00 00       	mov    $0x4,%eax
   1800034c2:	48 6b c0 0c          	imul   $0xc,%rax,%rax
   1800034c6:	b9 04 00 00 00       	mov    $0x4,%ecx
   1800034cb:	48 6b c9 00          	imul   $0x0,%rcx,%rcx
   1800034cf:	8b 84 04 90 00 00 00 	mov    0x90(%rsp,%rax,1),%eax
   1800034d6:	89 44 0c 40          	mov    %eax,0x40(%rsp,%rcx,1)
   1800034da:	b8 04 00 00 00       	mov    $0x4,%eax
   1800034df:	48 6b c0 0d          	imul   $0xd,%rax,%rax
   1800034e3:	b9 04 00 00 00       	mov    $0x4,%ecx
   1800034e8:	48 6b c9 01          	imul   $0x1,%rcx,%rcx
   1800034ec:	8b 84 04 90 00 00 00 	mov    0x90(%rsp,%rax,1),%eax
   1800034f3:	89 44 0c 40          	mov    %eax,0x40(%rsp,%rcx,1)
   1800034f7:	b8 04 00 00 00       	mov    $0x4,%eax
   1800034fc:	48 6b c0 0e          	imul   $0xe,%rax,%rax
   180003500:	b9 04 00 00 00       	mov    $0x4,%ecx
   180003505:	48 6b c9 02          	imul   $0x2,%rcx,%rcx
   180003509:	8b 84 04 90 00 00 00 	mov    0x90(%rsp,%rax,1),%eax
   180003510:	89 44 0c 40          	mov    %eax,0x40(%rsp,%rcx,1)
   180003514:	b8 04 00 00 00       	mov    $0x4,%eax
   180003519:	48 6b c0 0f          	imul   $0xf,%rax,%rax
   18000351d:	b9 04 00 00 00       	mov    $0x4,%ecx
   180003522:	48 6b c9 03          	imul   $0x3,%rcx,%rcx
   180003526:	8b 84 04 90 00 00 00 	mov    0x90(%rsp,%rax,1),%eax
   18000352d:	89 44 0c 40          	mov    %eax,0x40(%rsp,%rcx,1)
   180003531:	48 c7 44 24 20 01 00 	movq   $0x1,0x20(%rsp)
   180003538:	00 00 
   18000353a:	eb 0d                	jmp    0x180003549
   18000353c:	48 8b 44 24 20       	mov    0x20(%rsp),%rax
   180003541:	48 ff c0             	inc    %rax
   180003544:	48 89 44 24 20       	mov    %rax,0x20(%rsp)
   180003549:	48 83 7c 24 20 04    	cmpq   $0x4,0x20(%rsp)
   18000354f:	0f 87 0d 03 00 00    	ja     0x180003862
   180003555:	48 63 44 24 28       	movslq 0x28(%rsp),%rax
   18000355a:	48 6b c0 10          	imul   $0x10,%rax,%rax
   18000355e:	48 8d 0d 5b 0f 00 00 	lea    0xf5b(%rip),%rcx        # 0x1800044c0
   180003565:	48 03 c8             	add    %rax,%rcx
   180003568:	48 8b c1             	mov    %rcx,%rax
   18000356b:	b9 04 00 00 00       	mov    $0x4,%ecx
   180003570:	48 6b c9 03          	imul   $0x3,%rcx,%rcx
   180003574:	48 03 c1             	add    %rcx,%rax
   180003577:	48 8b 4c 24 20       	mov    0x20(%rsp),%rcx
   18000357c:	0f b6 44 08 ff       	movzbl -0x1(%rax,%rcx,1),%eax
   180003581:	85 c0                	test   %eax,%eax
   180003583:	0f 84 d4 02 00 00    	je     0x18000385d
   180003589:	b8 04 00 00 00       	mov    $0x4,%eax
   18000358e:	48 6b c0 00          	imul   $0x0,%rax,%rax
   180003592:	48 89 84 24 d8 01 00 	mov    %rax,0x1d8(%rsp)
   180003599:	00 
   18000359a:	48 6b 4c 24 20 0f    	imul   $0xf,0x20(%rsp),%rcx
   1800035a0:	33 d2                	xor    %edx,%edx
   1800035a2:	48 8b c1             	mov    %rcx,%rax
   1800035a5:	b9 20 00 00 00       	mov    $0x20,%ecx
   1800035aa:	48 f7 f1             	div    %rcx
   1800035ad:	48 8b c2             	mov    %rdx,%rax
   1800035b0:	8a c8                	mov    %al,%cl
   1800035b2:	48 8b 84 24 d8 01 00 	mov    0x1d8(%rsp),%rax
   1800035b9:	00 
   1800035ba:	8b 44 04 40          	mov    0x40(%rsp,%rax,1),%eax
   1800035be:	d3 e0                	shl    %cl,%eax
   1800035c0:	89 84 24 d4 00 00 00 	mov    %eax,0xd4(%rsp)
   1800035c7:	b9 04 00 00 00       	mov    $0x4,%ecx
   1800035cc:	48 6b c9 01          	imul   $0x1,%rcx,%rcx
   1800035d0:	48 89 8c 24 f8 01 00 	mov    %rcx,0x1f8(%rsp)
   1800035d7:	00 
   1800035d8:	48 6b 54 24 20 0f    	imul   $0xf,0x20(%rsp),%rdx
   1800035de:	48 89 94 24 e8 01 00 	mov    %rdx,0x1e8(%rsp)
   1800035e5:	00 
   1800035e6:	33 d2                	xor    %edx,%edx
   1800035e8:	48 8b bc 24 e8 01 00 	mov    0x1e8(%rsp),%rdi
   1800035ef:	00 
   1800035f0:	48 8b c7             	mov    %rdi,%rax
   1800035f3:	bf 20 00 00 00       	mov    $0x20,%edi
   1800035f8:	48 f7 f7             	div    %rdi
   1800035fb:	48 8b c2             	mov    %rdx,%rax
   1800035fe:	ba 20 00 00 00       	mov    $0x20,%edx
   180003603:	48 2b d0             	sub    %rax,%rdx
   180003606:	48 8b c2             	mov    %rdx,%rax
   180003609:	8a c8                	mov    %al,%cl
   18000360b:	48 8b 84 24 f8 01 00 	mov    0x1f8(%rsp),%rax
   180003612:	00 
   180003613:	8b 44 04 40          	mov    0x40(%rsp,%rax,1),%eax
   180003617:	d3 e8                	shr    %cl,%eax
   180003619:	8b 8c 24 d4 00 00 00 	mov    0xd4(%rsp),%ecx
   180003620:	33 c8                	xor    %eax,%ecx
   180003622:	8b c1                	mov    %ecx,%eax
   180003624:	48 8b 4c 24 20       	mov    0x20(%rsp),%rcx
   180003629:	48 c1 e1 02          	shl    $0x2,%rcx
   18000362d:	48 8d 4c 8c 40       	lea    0x40(%rsp,%rcx,4),%rcx
   180003632:	ba 04 00 00 00       	mov    $0x4,%edx
   180003637:	48 6b d2 00          	imul   $0x0,%rdx,%rdx
   18000363b:	89 04 11             	mov    %eax,(%rcx,%rdx,1)
   18000363e:	b8 04 00 00 00       	mov    $0x4,%eax
   180003643:	48 6b c0 01          	imul   $0x1,%rax,%rax
   180003647:	48 89 84 24 08 02 00 	mov    %rax,0x208(%rsp)
   18000364e:	00 
   18000364f:	48 6b 4c 24 20 0f    	imul   $0xf,0x20(%rsp),%rcx
   180003655:	33 d2                	xor    %edx,%edx
   180003657:	48 8b c1             	mov    %rcx,%rax
   18000365a:	b9 20 00 00 00       	mov    $0x20,%ecx
   18000365f:	48 f7 f1             	div    %rcx
   180003662:	48 8b c2             	mov    %rdx,%rax
   180003665:	8a c8                	mov    %al,%cl
   180003667:	48 8b 84 24 08 02 00 	mov    0x208(%rsp),%rax
   18000366e:	00 
   18000366f:	8b 44 04 40          	mov    0x40(%rsp,%rax,1),%eax
   180003673:	d3 e0                	shl    %cl,%eax
   180003675:	89 84 24 dc 00 00 00 	mov    %eax,0xdc(%rsp)
   18000367c:	b9 04 00 00 00       	mov    $0x4,%ecx
   180003681:	48 6b c9 02          	imul   $0x2,%rcx,%rcx
   180003685:	48 89 8c 24 28 02 00 	mov    %rcx,0x228(%rsp)
   18000368c:	00 
   18000368d:	48 6b 54 24 20 0f    	imul   $0xf,0x20(%rsp),%rdx
   180003693:	48 89 94 24 18 02 00 	mov    %rdx,0x218(%rsp)
   18000369a:	00 
   18000369b:	33 d2                	xor    %edx,%edx
   18000369d:	48 8b bc 24 18 02 00 	mov    0x218(%rsp),%rdi
   1800036a4:	00 
   1800036a5:	48 8b c7             	mov    %rdi,%rax
   1800036a8:	bf 20 00 00 00       	mov    $0x20,%edi
   1800036ad:	48 f7 f7             	div    %rdi
   1800036b0:	48 8b c2             	mov    %rdx,%rax
   1800036b3:	ba 20 00 00 00       	mov    $0x20,%edx
   1800036b8:	48 2b d0             	sub    %rax,%rdx
   1800036bb:	48 8b c2             	mov    %rdx,%rax
   1800036be:	8a c8                	mov    %al,%cl
   1800036c0:	48 8b 84 24 28 02 00 	mov    0x228(%rsp),%rax
   1800036c7:	00 
   1800036c8:	8b 44 04 40          	mov    0x40(%rsp,%rax,1),%eax
   1800036cc:	d3 e8                	shr    %cl,%eax
   1800036ce:	8b 8c 24 dc 00 00 00 	mov    0xdc(%rsp),%ecx
   1800036d5:	33 c8                	xor    %eax,%ecx
   1800036d7:	8b c1                	mov    %ecx,%eax
   1800036d9:	48 8b 4c 24 20       	mov    0x20(%rsp),%rcx
   1800036de:	48 c1 e1 02          	shl    $0x2,%rcx
   1800036e2:	48 8d 4c 8c 40       	lea    0x40(%rsp,%rcx,4),%rcx
   1800036e7:	ba 04 00 00 00       	mov    $0x4,%edx
   1800036ec:	48 6b d2 01          	imul   $0x1,%rdx,%rdx
   1800036f0:	89 04 11             	mov    %eax,(%rcx,%rdx,1)
   1800036f3:	b8 04 00 00 00       	mov    $0x4,%eax
   1800036f8:	48 6b c0 02          	imul   $0x2,%rax,%rax
   1800036fc:	48 89 84 24 38 02 00 	mov    %rax,0x238(%rsp)
   180003703:	00 
   180003704:	48 6b 4c 24 20 0f    	imul   $0xf,0x20(%rsp),%rcx
   18000370a:	33 d2                	xor    %edx,%edx
   18000370c:	48 8b c1             	mov    %rcx,%rax
   18000370f:	b9 20 00 00 00       	mov    $0x20,%ecx
   180003714:	48 f7 f1             	div    %rcx
   180003717:	48 8b c2             	mov    %rdx,%rax
   18000371a:	8a c8                	mov    %al,%cl
   18000371c:	48 8b 84 24 38 02 00 	mov    0x238(%rsp),%rax
   180003723:	00 
   180003724:	8b 44 04 40          	mov    0x40(%rsp,%rax,1),%eax
   180003728:	d3 e0                	shl    %cl,%eax
   18000372a:	89 84 24 e4 00 00 00 	mov    %eax,0xe4(%rsp)
   180003731:	b9 04 00 00 00       	mov    $0x4,%ecx
   180003736:	48 6b c9 03          	imul   $0x3,%rcx,%rcx
   18000373a:	48 89 8c 24 58 02 00 	mov    %rcx,0x258(%rsp)
   180003741:	00 
   180003742:	48 6b 54 24 20 0f    	imul   $0xf,0x20(%rsp),%rdx
   180003748:	48 89 94 24 48 02 00 	mov    %rdx,0x248(%rsp)
   18000374f:	00 
   180003750:	33 d2                	xor    %edx,%edx
   180003752:	48 8b bc 24 48 02 00 	mov    0x248(%rsp),%rdi
   180003759:	00 
   18000375a:	48 8b c7             	mov    %rdi,%rax
   18000375d:	bf 20 00 00 00       	mov    $0x20,%edi
   180003762:	48 f7 f7             	div    %rdi
   180003765:	48 8b c2             	mov    %rdx,%rax
   180003768:	ba 20 00 00 00       	mov    $0x20,%edx
   18000376d:	48 2b d0             	sub    %rax,%rdx
   180003770:	48 8b c2             	mov    %rdx,%rax
   180003773:	8a c8                	mov    %al,%cl
   180003775:	48 8b 84 24 58 02 00 	mov    0x258(%rsp),%rax
   18000377c:	00 
   18000377d:	8b 44 04 40          	mov    0x40(%rsp,%rax,1),%eax
   180003781:	d3 e8                	shr    %cl,%eax
   180003783:	8b 8c 24 e4 00 00 00 	mov    0xe4(%rsp),%ecx
   18000378a:	33 c8                	xor    %eax,%ecx
   18000378c:	8b c1                	mov    %ecx,%eax
   18000378e:	48 8b 4c 24 20       	mov    0x20(%rsp),%rcx
   180003793:	48 c1 e1 02          	shl    $0x2,%rcx
   180003797:	48 8d 4c 8c 40       	lea    0x40(%rsp,%rcx,4),%rcx
   18000379c:	ba 04 00 00 00       	mov    $0x4,%edx
   1800037a1:	48 6b d2 02          	imul   $0x2,%rdx,%rdx
   1800037a5:	89 04 11             	mov    %eax,(%rcx,%rdx,1)
   1800037a8:	b8 04 00 00 00       	mov    $0x4,%eax
   1800037ad:	48 6b c0 03          	imul   $0x3,%rax,%rax
   1800037b1:	48 89 84 24 68 02 00 	mov    %rax,0x268(%rsp)
   1800037b8:	00 
   1800037b9:	48 6b 4c 24 20 0f    	imul   $0xf,0x20(%rsp),%rcx
   1800037bf:	33 d2                	xor    %edx,%edx
   1800037c1:	48 8b c1             	mov    %rcx,%rax
   1800037c4:	b9 20 00 00 00       	mov    $0x20,%ecx
   1800037c9:	48 f7 f1             	div    %rcx
   1800037cc:	48 8b c2             	mov    %rdx,%rax
   1800037cf:	8a c8                	mov    %al,%cl
   1800037d1:	48 8b 84 24 68 02 00 	mov    0x268(%rsp),%rax
   1800037d8:	00 
   1800037d9:	8b 44 04 40          	mov    0x40(%rsp,%rax,1),%eax
   1800037dd:	d3 e0                	shl    %cl,%eax
   1800037df:	89 84 24 ec 00 00 00 	mov    %eax,0xec(%rsp)
   1800037e6:	b9 04 00 00 00       	mov    $0x4,%ecx
   1800037eb:	48 6b c9 00          	imul   $0x0,%rcx,%rcx
   1800037ef:	48 89 8c 24 88 02 00 	mov    %rcx,0x288(%rsp)
   1800037f6:	00 
   1800037f7:	48 6b 54 24 20 0f    	imul   $0xf,0x20(%rsp),%rdx
   1800037fd:	48 89 94 24 78 02 00 	mov    %rdx,0x278(%rsp)
   180003804:	00 
   180003805:	33 d2                	xor    %edx,%edx
   180003807:	48 8b bc 24 78 02 00 	mov    0x278(%rsp),%rdi
   18000380e:	00 
   18000380f:	48 8b c7             	mov    %rdi,%rax
   180003812:	bf 20 00 00 00       	mov    $0x20,%edi
   180003817:	48 f7 f7             	div    %rdi
   18000381a:	48 8b c2             	mov    %rdx,%rax
   18000381d:	ba 20 00 00 00       	mov    $0x20,%edx
   180003822:	48 2b d0             	sub    %rax,%rdx
   180003825:	48 8b c2             	mov    %rdx,%rax
   180003828:	8a c8                	mov    %al,%cl
   18000382a:	48 8b 84 24 88 02 00 	mov    0x288(%rsp),%rax
   180003831:	00 
   180003832:	8b 44 04 40          	mov    0x40(%rsp,%rax,1),%eax
   180003836:	d3 e8                	shr    %cl,%eax
   180003838:	8b 8c 24 ec 00 00 00 	mov    0xec(%rsp),%ecx
   18000383f:	33 c8                	xor    %eax,%ecx
   180003841:	8b c1                	mov    %ecx,%eax
   180003843:	48 8b 4c 24 20       	mov    0x20(%rsp),%rcx
   180003848:	48 c1 e1 02          	shl    $0x2,%rcx
   18000384c:	48 8d 4c 8c 40       	lea    0x40(%rsp,%rcx,4),%rcx
   180003851:	ba 04 00 00 00       	mov    $0x4,%edx
   180003856:	48 6b d2 03          	imul   $0x3,%rdx,%rdx
   18000385a:	89 04 11             	mov    %eax,(%rcx,%rdx,1)
   18000385d:	e9 da fc ff ff       	jmpq   0x18000353c
   180003862:	48 c7 44 24 20 00 00 	movq   $0x0,0x20(%rsp)
   180003869:	00 00 
   18000386b:	eb 0d                	jmp    0x18000387a
   18000386d:	48 8b 44 24 20       	mov    0x20(%rsp),%rax
   180003872:	48 ff c0             	inc    %rax
   180003875:	48 89 44 24 20       	mov    %rax,0x20(%rsp)
   18000387a:	48 83 7c 24 20 14    	cmpq   $0x14,0x20(%rsp)
   180003880:	73 72                	jae    0x1800038f4
   180003882:	48 63 44 24 28       	movslq 0x28(%rsp),%rax
   180003887:	48 6b c0 50          	imul   $0x50,%rax,%rax
   18000388b:	48 8d 0d 4e 0c 00 00 	lea    0xc4e(%rip),%rcx        # 0x1800044e0
   180003892:	48 03 c8             	add    %rax,%rcx
   180003895:	48 8b c1             	mov    %rcx,%rax
   180003898:	b9 14 00 00 00       	mov    $0x14,%ecx
   18000389d:	48 6b c9 03          	imul   $0x3,%rcx,%rcx
   1800038a1:	48 03 c1             	add    %rcx,%rax
   1800038a4:	48 8b 4c 24 20       	mov    0x20(%rsp),%rcx
   1800038a9:	0f be 04 08          	movsbl (%rax,%rcx,1),%eax
   1800038ad:	83 f8 ff             	cmp    $0xffffffff,%eax
   1800038b0:	74 3d                	je     0x1800038ef
   1800038b2:	48 63 44 24 28       	movslq 0x28(%rsp),%rax
   1800038b7:	48 6b c0 50          	imul   $0x50,%rax,%rax
   1800038bb:	48 8d 0d 1e 0c 00 00 	lea    0xc1e(%rip),%rcx        # 0x1800044e0
   1800038c2:	48 03 c8             	add    %rax,%rcx
   1800038c5:	48 8b c1             	mov    %rcx,%rax
   1800038c8:	b9 14 00 00 00       	mov    $0x14,%ecx
   1800038cd:	48 6b c9 03          	imul   $0x3,%rcx,%rcx
   1800038d1:	48 03 c1             	add    %rcx,%rax
   1800038d4:	48 8b 4c 24 20       	mov    0x20(%rsp),%rcx
   1800038d9:	48 0f be 04 08       	movsbq (%rax,%rcx,1),%rax
   1800038de:	48 8b 4c 24 30       	mov    0x30(%rsp),%rcx
   1800038e3:	48 8b 54 24 20       	mov    0x20(%rsp),%rdx
   1800038e8:	8b 54 94 40          	mov    0x40(%rsp,%rdx,4),%edx
   1800038ec:	89 14 81             	mov    %edx,(%rcx,%rax,4)
   1800038ef:	e9 79 ff ff ff       	jmpq   0x18000386d
   1800038f4:	48 c7 44 24 20 00 00 	movq   $0x0,0x20(%rsp)
   1800038fb:	00 00 
   1800038fd:	eb 0d                	jmp    0x18000390c
   1800038ff:	48 8b 44 24 20       	mov    0x20(%rsp),%rax
   180003904:	48 ff c0             	inc    %rax
   180003907:	48 89 44 24 20       	mov    %rax,0x20(%rsp)
   18000390c:	48 83 7c 24 20 14    	cmpq   $0x14,0x20(%rsp)
   180003912:	73 66                	jae    0x18000397a
   180003914:	48 63 44 24 28       	movslq 0x28(%rsp),%rax
   180003919:	48 6b c0 14          	imul   $0x14,%rax,%rax
   18000391d:	48 8d 0d 5c 0c 00 00 	lea    0xc5c(%rip),%rcx        # 0x180004580
   180003924:	48 03 c8             	add    %rax,%rcx
   180003927:	48 8b c1             	mov    %rcx,%rax
   18000392a:	48 8b 4c 24 20       	mov    0x20(%rsp),%rcx
   18000392f:	0f be 04 08          	movsbl (%rax,%rcx,1),%eax
   180003933:	83 f8 ff             	cmp    $0xffffffff,%eax
   180003936:	74 40                	je     0x180003978
   180003938:	48 63 44 24 28       	movslq 0x28(%rsp),%rax
   18000393d:	48 6b c0 14          	imul   $0x14,%rax,%rax
   180003941:	48 8d 0d 38 0c 00 00 	lea    0xc38(%rip),%rcx        # 0x180004580
   180003948:	48 03 c8             	add    %rax,%rcx
   18000394b:	48 8b c1             	mov    %rcx,%rax
   18000394e:	48 8b 4c 24 20       	mov    0x20(%rsp),%rcx
   180003953:	48 0f be 04 08       	movsbq (%rax,%rcx,1),%rax
   180003958:	6b 4c 24 28 0c       	imul   $0xc,0x28(%rsp),%ecx
   18000395d:	83 c1 20             	add    $0x20,%ecx
   180003960:	48 63 c9             	movslq %ecx,%rcx
   180003963:	48 03 4c 24 20       	add    0x20(%rsp),%rcx
   180003968:	48 8b 54 24 30       	mov    0x30(%rsp),%rdx
   18000396d:	48 8b 7c 24 30       	mov    0x30(%rsp),%rdi
   180003972:	8b 04 87             	mov    (%rdi,%rax,4),%eax
   180003975:	89 04 8a             	mov    %eax,(%rdx,%rcx,4)
   180003978:	eb 85                	jmp    0x1800038ff
   18000397a:	33 c0                	xor    %eax,%eax
   18000397c:	48 81 c4 30 03 00 00 	add    $0x330,%rsp
   180003983:	5f                   	pop    %rdi
   180003984:	c3                   	retq   
   180003985:	cc                   	int3   
   180003986:	cc                   	int3   
   180003987:	cc                   	int3   
   180003988:	4c 89 4c 24 20       	mov    %r9,0x20(%rsp)
   18000398d:	4c 89 44 24 18       	mov    %r8,0x18(%rsp)
   180003992:	89 54 24 10          	mov    %edx,0x10(%rsp)
   180003996:	48 89 4c 24 08       	mov    %rcx,0x8(%rsp)
   18000399b:	48 81 ec 78 01 00 00 	sub    $0x178,%rsp
   1800039a2:	81 bc 24 88 01 00 00 	cmpl   $0xcc,0x188(%rsp)
   1800039a9:	cc 00 00 00 
   1800039ad:	73 07                	jae    0x1800039b6
   1800039af:	33 c0                	xor    %eax,%eax
   1800039b1:	e9 e2 01 00 00       	jmpq   0x180003b98
   1800039b6:	c7 44 24 30 00 00 00 	movl   $0x0,0x30(%rsp)
   1800039bd:	00 
   1800039be:	eb 0a                	jmp    0x1800039ca
   1800039c0:	8b 44 24 30          	mov    0x30(%rsp),%eax
   1800039c4:	ff c0                	inc    %eax
   1800039c6:	89 44 24 30          	mov    %eax,0x30(%rsp)
   1800039ca:	83 7c 24 30 20       	cmpl   $0x20,0x30(%rsp)
   1800039cf:	73 02                	jae    0x1800039d3
   1800039d1:	eb ed                	jmp    0x1800039c0
   1800039d3:	c7 44 24 30 00 00 00 	movl   $0x0,0x30(%rsp)
   1800039da:	00 
   1800039db:	eb 0a                	jmp    0x1800039e7
   1800039dd:	8b 44 24 30          	mov    0x30(%rsp),%eax
   1800039e1:	ff c0                	inc    %eax
   1800039e3:	89 44 24 30          	mov    %eax,0x30(%rsp)
   1800039e7:	83 7c 24 30 10       	cmpl   $0x10,0x30(%rsp)
   1800039ec:	73 3c                	jae    0x180003a2a
   1800039ee:	8b 44 24 30          	mov    0x30(%rsp),%eax
   1800039f2:	83 c0 02             	add    $0x2,%eax
   1800039f5:	8b c0                	mov    %eax,%eax
   1800039f7:	8b 4c 24 30          	mov    0x30(%rsp),%ecx
   1800039fb:	48 8d 15 fe 15 00 00 	lea    0x15fe(%rip),%rdx        # 0x180005000
   180003a02:	0f b6 0c 0a          	movzbl (%rdx,%rcx,1),%ecx
   180003a06:	48 8b 94 24 80 01 00 	mov    0x180(%rsp),%rdx
   180003a0d:	00 
   180003a0e:	0f b6 04 02          	movzbl (%rdx,%rax,1),%eax
   180003a12:	33 c1                	xor    %ecx,%eax
   180003a14:	8b 4c 24 30          	mov    0x30(%rsp),%ecx
   180003a18:	83 c1 02             	add    $0x2,%ecx
   180003a1b:	8b c9                	mov    %ecx,%ecx
   180003a1d:	48 8b 94 24 80 01 00 	mov    0x180(%rsp),%rdx
   180003a24:	00 
   180003a25:	88 04 0a             	mov    %al,(%rdx,%rcx,1)
   180003a28:	eb b3                	jmp    0x1800039dd
   180003a2a:	c7 44 24 30 00 00 00 	movl   $0x0,0x30(%rsp)
   180003a31:	00 
   180003a32:	eb 0a                	jmp    0x180003a3e
   180003a34:	8b 44 24 30          	mov    0x30(%rsp),%eax
   180003a38:	ff c0                	inc    %eax
   180003a3a:	89 44 24 30          	mov    %eax,0x30(%rsp)
   180003a3e:	83 7c 24 30 20       	cmpl   $0x20,0x30(%rsp)
   180003a43:	73 02                	jae    0x180003a47
   180003a45:	eb ed                	jmp    0x180003a34
   180003a47:	41 b8 00 01 00 00    	mov    $0x100,%r8d
   180003a4d:	48 8b 94 24 80 01 00 	mov    0x180(%rsp),%rdx
   180003a54:	00 
   180003a55:	48 8d 4c 24 50       	lea    0x50(%rsp),%rcx
   180003a5a:	e8 19 e5 ff ff       	callq  0x180001f78
   180003a5f:	85 c0                	test   %eax,%eax
   180003a61:	74 07                	je     0x180003a6a
   180003a63:	33 c0                	xor    %eax,%eax
   180003a65:	e9 2e 01 00 00       	jmpq   0x180003b98
   180003a6a:	48 8b 84 24 80 01 00 	mov    0x180(%rsp),%rax
   180003a71:	00 
   180003a72:	48 83 c0 20          	add    $0x20,%rax
   180003a76:	48 89 84 24 80 01 00 	mov    %rax,0x180(%rsp)
   180003a7d:	00 
   180003a7e:	8b 84 24 88 01 00 00 	mov    0x188(%rsp),%eax
   180003a85:	83 e8 20             	sub    $0x20,%eax
   180003a88:	89 84 24 88 01 00 00 	mov    %eax,0x188(%rsp)
   180003a8f:	48 8b 84 24 90 01 00 	mov    0x190(%rsp),%rax
   180003a96:	00 
   180003a97:	48 8b 8c 24 80 01 00 	mov    0x180(%rsp),%rcx
   180003a9e:	00 
   180003a9f:	48 89 08             	mov    %rcx,(%rax)
   180003aa2:	48 8b 84 24 98 01 00 	mov    0x198(%rsp),%rax
   180003aa9:	00 
   180003aaa:	8b 8c 24 88 01 00 00 	mov    0x188(%rsp),%ecx
   180003ab1:	89 08                	mov    %ecx,(%rax)
   180003ab3:	48 8d 4c 24 38       	lea    0x38(%rsp),%rcx
   180003ab8:	e8 93 01 00 00       	callq  0x180003c50
   180003abd:	33 d2                	xor    %edx,%edx
   180003abf:	8b 84 24 88 01 00 00 	mov    0x188(%rsp),%eax
   180003ac6:	b9 10 00 00 00       	mov    $0x10,%ecx
   180003acb:	f7 f1                	div    %ecx
   180003acd:	8b c2                	mov    %edx,%eax
   180003acf:	85 c0                	test   %eax,%eax
   180003ad1:	74 07                	je     0x180003ada
   180003ad3:	33 c0                	xor    %eax,%eax
   180003ad5:	e9 be 00 00 00       	jmpq   0x180003b98
   180003ada:	c7 44 24 30 00 00 00 	movl   $0x0,0x30(%rsp)
   180003ae1:	00 
   180003ae2:	eb 0b                	jmp    0x180003aef
   180003ae4:	8b 44 24 30          	mov    0x30(%rsp),%eax
   180003ae8:	83 c0 10             	add    $0x10,%eax
   180003aeb:	89 44 24 30          	mov    %eax,0x30(%rsp)
   180003aef:	8b 84 24 88 01 00 00 	mov    0x188(%rsp),%eax
   180003af6:	39 44 24 30          	cmp    %eax,0x30(%rsp)
   180003afa:	73 4f                	jae    0x180003b4b
   180003afc:	8b 44 24 30          	mov    0x30(%rsp),%eax
   180003b00:	48 8b 8c 24 80 01 00 	mov    0x180(%rsp),%rcx
   180003b07:	00 
   180003b08:	48 03 c8             	add    %rax,%rcx
   180003b0b:	48 8b c1             	mov    %rcx,%rax
   180003b0e:	8b 4c 24 30          	mov    0x30(%rsp),%ecx
   180003b12:	48 8b 94 24 80 01 00 	mov    0x180(%rsp),%rdx
   180003b19:	00 
   180003b1a:	48 03 d1             	add    %rcx,%rdx
   180003b1d:	48 8b ca             	mov    %rdx,%rcx
   180003b20:	48 89 44 24 28       	mov    %rax,0x28(%rsp)
   180003b25:	48 89 4c 24 20       	mov    %rcx,0x20(%rsp)
   180003b2a:	4c 8d 4c 24 38       	lea    0x38(%rsp),%r9
   180003b2f:	41 b8 10 00 00 00    	mov    $0x10,%r8d
   180003b35:	33 d2                	xor    %edx,%edx
   180003b37:	48 8d 4c 24 50       	lea    0x50(%rsp),%rcx
   180003b3c:	e8 bb d8 ff ff       	callq  0x1800013fc
   180003b41:	85 c0                	test   %eax,%eax
   180003b43:	74 04                	je     0x180003b49
   180003b45:	33 c0                	xor    %eax,%eax
   180003b47:	eb 4f                	jmp    0x180003b98
   180003b49:	eb 99                	jmp    0x180003ae4
   180003b4b:	48 8b 84 24 90 01 00 	mov    0x190(%rsp),%rax
   180003b52:	00 
   180003b53:	48 8b 00             	mov    (%rax),%rax
   180003b56:	81 38 dd cc bb aa    	cmpl   $0xaabbccdd,(%rax)
   180003b5c:	74 04                	je     0x180003b62
   180003b5e:	33 c0                	xor    %eax,%eax
   180003b60:	eb 36                	jmp    0x180003b98
   180003b62:	48 8b 84 24 90 01 00 	mov    0x190(%rsp),%rax
   180003b69:	00 
   180003b6a:	48 8b 00             	mov    (%rax),%rax
   180003b6d:	48 83 c0 10          	add    $0x10,%rax
   180003b71:	48 8b 8c 24 90 01 00 	mov    0x190(%rsp),%rcx
   180003b78:	00 
   180003b79:	48 89 01             	mov    %rax,(%rcx)
   180003b7c:	48 8b 84 24 98 01 00 	mov    0x198(%rsp),%rax
   180003b83:	00 
   180003b84:	8b 00                	mov    (%rax),%eax
   180003b86:	83 e8 10             	sub    $0x10,%eax
   180003b89:	48 8b 8c 24 98 01 00 	mov    0x198(%rsp),%rcx
   180003b90:	00 
   180003b91:	89 01                	mov    %eax,(%rcx)
   180003b93:	b8 01 00 00 00       	mov    $0x1,%eax
   180003b98:	48 81 c4 78 01 00 00 	add    $0x178,%rsp
   180003b9f:	c3                   	retq   
   180003ba0:	89 4c 24 08          	mov    %ecx,0x8(%rsp)
   180003ba4:	48 83 ec 58          	sub    $0x58,%rsp
   180003ba8:	c7 44 24 24 11 00 00 	movl   $0x11,0x24(%rsp)
   180003baf:	00 
   180003bb0:	4c 8d 4c 24 24       	lea    0x24(%rsp),%r9
   180003bb5:	4c 8d 44 24 28       	lea    0x28(%rsp),%r8
   180003bba:	48 8d 15 6f 0a 00 00 	lea    0xa6f(%rip),%rdx        # 0x180004630
   180003bc1:	8b 4c 24 60          	mov    0x60(%rsp),%ecx
   180003bc5:	e8 26 03 00 00       	callq  0x180003ef0
   180003bca:	85 c0                	test   %eax,%eax
   180003bcc:	74 04                	je     0x180003bd2
   180003bce:	33 c0                	xor    %eax,%eax
   180003bd0:	eb 77                	jmp    0x180003c49
   180003bd2:	c7 44 24 20 00 00 00 	movl   $0x0,0x20(%rsp)
   180003bd9:	00 
   180003bda:	eb 0a                	jmp    0x180003be6
   180003bdc:	8b 44 24 20          	mov    0x20(%rsp),%eax
   180003be0:	ff c0                	inc    %eax
   180003be2:	89 44 24 20          	mov    %eax,0x20(%rsp)
   180003be6:	83 7c 24 20 10       	cmpl   $0x10,0x20(%rsp)
   180003beb:	7d 12                	jge    0x180003bff
   180003bed:	48 63 44 24 20       	movslq 0x20(%rsp),%rax
   180003bf2:	48 8d 0d 07 14 00 00 	lea    0x1407(%rip),%rcx        # 0x180005000
   180003bf9:	c6 04 01 00          	movb   $0x0,(%rcx,%rax,1)
   180003bfd:	eb dd                	jmp    0x180003bdc
   180003bff:	c7 44 24 20 00 00 00 	movl   $0x0,0x20(%rsp)
   180003c06:	00 
   180003c07:	eb 0a                	jmp    0x180003c13
   180003c09:	8b 44 24 20          	mov    0x20(%rsp),%eax
   180003c0d:	ff c0                	inc    %eax
   180003c0f:	89 44 24 20          	mov    %eax,0x20(%rsp)
   180003c13:	83 7c 24 20 10       	cmpl   $0x10,0x20(%rsp)
   180003c18:	7d 2a                	jge    0x180003c44
   180003c1a:	48 63 44 24 20       	movslq 0x20(%rsp),%rax
   180003c1f:	0f b7 44 44 28       	movzwl 0x28(%rsp,%rax,2),%eax
   180003c24:	85 c0                	test   %eax,%eax
   180003c26:	75 02                	jne    0x180003c2a
   180003c28:	eb 1a                	jmp    0x180003c44
   180003c2a:	48 63 44 24 20       	movslq 0x20(%rsp),%rax
   180003c2f:	48 63 4c 24 20       	movslq 0x20(%rsp),%rcx
   180003c34:	48 8d 15 c5 13 00 00 	lea    0x13c5(%rip),%rdx        # 0x180005000
   180003c3b:	8a 44 44 28          	mov    0x28(%rsp,%rax,2),%al
   180003c3f:	88 04 0a             	mov    %al,(%rdx,%rcx,1)
   180003c42:	eb c5                	jmp    0x180003c09
   180003c44:	b8 01 00 00 00       	mov    $0x1,%eax
   180003c49:	48 83 c4 58          	add    $0x58,%rsp
   180003c4d:	c3                   	retq   
   180003c4e:	cc                   	int3   
   180003c4f:	cc                   	int3   
   180003c50:	32 d2                	xor    %dl,%dl
   180003c52:	b8 10 00 00 00       	mov    $0x10,%eax
   180003c57:	2a c2                	sub    %dl,%al
   180003c59:	fe c2                	inc    %dl
   180003c5b:	88 01                	mov    %al,(%rcx)
   180003c5d:	48 ff c1             	inc    %rcx
   180003c60:	80 fa 10             	cmp    $0x10,%dl
   180003c63:	72 ed                	jb     0x180003c52
   180003c65:	c3                   	retq   
   180003c66:	cc                   	int3   
   180003c67:	cc                   	int3   
   180003c68:	4c 89 44 24 18       	mov    %r8,0x18(%rsp)
   180003c6d:	48 89 54 24 10       	mov    %rdx,0x10(%rsp)
   180003c72:	48 89 4c 24 08       	mov    %rcx,0x8(%rsp)
   180003c77:	48 83 ec 18          	sub    $0x18,%rsp
   180003c7b:	48 8b 44 24 20       	mov    0x20(%rsp),%rax
   180003c80:	48 89 04 24          	mov    %rax,(%rsp)
   180003c84:	48 8b 44 24 28       	mov    0x28(%rsp),%rax
   180003c89:	48 89 44 24 08       	mov    %rax,0x8(%rsp)
   180003c8e:	48 83 7c 24 30 00    	cmpq   $0x0,0x30(%rsp)
   180003c94:	76 34                	jbe    0x180003cca
   180003c96:	48 8b 04 24          	mov    (%rsp),%rax
   180003c9a:	48 8b 4c 24 08       	mov    0x8(%rsp),%rcx
   180003c9f:	8a 09                	mov    (%rcx),%cl
   180003ca1:	88 08                	mov    %cl,(%rax)
   180003ca3:	48 8b 04 24          	mov    (%rsp),%rax
   180003ca7:	48 ff c0             	inc    %rax
   180003caa:	48 89 04 24          	mov    %rax,(%rsp)
   180003cae:	48 8b 44 24 08       	mov    0x8(%rsp),%rax
   180003cb3:	48 ff c0             	inc    %rax
   180003cb6:	48 89 44 24 08       	mov    %rax,0x8(%rsp)
   180003cbb:	48 8b 44 24 30       	mov    0x30(%rsp),%rax
   180003cc0:	48 ff c8             	dec    %rax
   180003cc3:	48 89 44 24 30       	mov    %rax,0x30(%rsp)
   180003cc8:	eb c4                	jmp    0x180003c8e
   180003cca:	48 83 c4 18          	add    $0x18,%rsp
   180003cce:	c3                   	retq   
   180003ccf:	cc                   	int3   
   180003cd0:	89 54 24 10          	mov    %edx,0x10(%rsp)
   180003cd4:	89 4c 24 08          	mov    %ecx,0x8(%rsp)
   180003cd8:	48 81 ec 38 08 00 00 	sub    $0x838,%rsp
   180003cdf:	c7 44 24 24 00 00 00 	movl   $0x0,0x24(%rsp)
   180003ce6:	00 
   180003ce7:	c7 44 24 2c 00 00 00 	movl   $0x0,0x2c(%rsp)
   180003cee:	00 
   180003cef:	c7 44 24 30 00 00 00 	movl   $0x0,0x30(%rsp)
   180003cf6:	00 
   180003cf7:	c7 44 24 28 00 00 00 	movl   $0x0,0x28(%rsp)
   180003cfe:	00 
   180003cff:	c7 44 24 40 00 00 00 	movl   $0x0,0x40(%rsp)
   180003d06:	00 
   180003d07:	48 c7 44 24 38 00 00 	movq   $0x0,0x38(%rsp)
   180003d0e:	00 00 
   180003d10:	44 8b 8c 24 48 08 00 	mov    0x848(%rsp),%r9d
   180003d17:	00 
   180003d18:	4c 8d 05 89 08 00 00 	lea    0x889(%rip),%r8        # 0x1800045a8
   180003d1f:	48 8d 15 9a 08 00 00 	lea    0x89a(%rip),%rdx        # 0x1800045c0
   180003d26:	48 8d 4c 24 60       	lea    0x60(%rsp),%rcx
   180003d2b:	ff 15 ff 02 00 00    	callq  *0x2ff(%rip)        # 0x180004030
   180003d31:	4c 8d 44 24 24       	lea    0x24(%rsp),%r8
   180003d36:	48 8d 15 e3 08 00 00 	lea    0x8e3(%rip),%rdx        # 0x180004620
   180003d3d:	8b 8c 24 40 08 00 00 	mov    0x840(%rsp),%ecx
   180003d44:	e8 8f 01 00 00       	callq  0x180003ed8
   180003d49:	89 44 24 20          	mov    %eax,0x20(%rsp)
   180003d4d:	83 7c 24 20 00       	cmpl   $0x0,0x20(%rsp)
   180003d52:	74 05                	je     0x180003d59
   180003d54:	e9 20 01 00 00       	jmpq   0x180003e79
   180003d59:	8b 4c 24 24          	mov    0x24(%rsp),%ecx
   180003d5d:	e8 5e 01 00 00       	callq  0x180003ec0
   180003d62:	4c 8d 44 24 2c       	lea    0x2c(%rsp),%r8
   180003d67:	48 8d 54 24 60       	lea    0x60(%rsp),%rdx
   180003d6c:	8b 8c 24 40 08 00 00 	mov    0x840(%rsp),%ecx
   180003d73:	e8 4e 01 00 00       	callq  0x180003ec6
   180003d78:	89 44 24 20          	mov    %eax,0x20(%rsp)
   180003d7c:	83 7c 24 20 00       	cmpl   $0x0,0x20(%rsp)
   180003d81:	74 05                	je     0x180003d88
   180003d83:	e9 f1 00 00 00       	jmpq   0x180003e79
   180003d88:	33 d2                	xor    %edx,%edx
   180003d8a:	8b 4c 24 2c          	mov    0x2c(%rsp),%ecx
   180003d8e:	e8 39 01 00 00       	callq  0x180003ecc
   180003d93:	89 44 24 20          	mov    %eax,0x20(%rsp)
   180003d97:	83 7c 24 20 00       	cmpl   $0x0,0x20(%rsp)
   180003d9c:	74 05                	je     0x180003da3
   180003d9e:	e9 d6 00 00 00       	jmpq   0x180003e79
   180003da3:	48 8d 54 24 24       	lea    0x24(%rsp),%rdx
   180003da8:	8b 4c 24 2c          	mov    0x2c(%rsp),%ecx
   180003dac:	e8 21 01 00 00       	callq  0x180003ed2
   180003db1:	89 44 24 20          	mov    %eax,0x20(%rsp)
   180003db5:	83 7c 24 20 00       	cmpl   $0x0,0x20(%rsp)
   180003dba:	74 05                	je     0x180003dc1
   180003dbc:	e9 b8 00 00 00       	jmpq   0x180003e79
   180003dc1:	ba 01 00 00 00       	mov    $0x1,%edx
   180003dc6:	8b 4c 24 24          	mov    0x24(%rsp),%ecx
   180003dca:	e8 0f 01 00 00       	callq  0x180003ede
   180003dcf:	89 44 24 28          	mov    %eax,0x28(%rsp)
   180003dd3:	83 7c 24 28 00       	cmpl   $0x0,0x28(%rsp)
   180003dd8:	75 05                	jne    0x180003ddf
   180003dda:	e9 9a 00 00 00       	jmpq   0x180003e79
   180003ddf:	8b 44 24 28          	mov    0x28(%rsp),%eax
   180003de3:	41 b9 04 00 00 00    	mov    $0x4,%r9d
   180003de9:	41 b8 00 30 00 00    	mov    $0x3000,%r8d
   180003def:	8b d0                	mov    %eax,%edx
   180003df1:	33 c9                	xor    %ecx,%ecx
   180003df3:	ff 15 27 02 00 00    	callq  *0x227(%rip)        # 0x180004020
   180003df9:	48 89 44 24 38       	mov    %rax,0x38(%rsp)
   180003dfe:	48 83 7c 24 38 00    	cmpq   $0x0,0x38(%rsp)
   180003e04:	75 02                	jne    0x180003e08
   180003e06:	eb 71                	jmp    0x180003e79
   180003e08:	4c 8d 4c 24 28       	lea    0x28(%rsp),%r9
   180003e0d:	4c 8b 44 24 38       	mov    0x38(%rsp),%r8
   180003e12:	ba 01 00 00 00       	mov    $0x1,%edx
   180003e17:	8b 4c 24 24          	mov    0x24(%rsp),%ecx
   180003e1b:	e8 c4 00 00 00       	callq  0x180003ee4
   180003e20:	89 44 24 20          	mov    %eax,0x20(%rsp)
   180003e24:	83 7c 24 20 00       	cmpl   $0x0,0x20(%rsp)
   180003e29:	74 02                	je     0x180003e2d
   180003e2b:	eb 4c                	jmp    0x180003e79
   180003e2d:	4c 8d 4c 24 40       	lea    0x40(%rsp),%r9
   180003e32:	4c 8d 44 24 48       	lea    0x48(%rsp),%r8
   180003e37:	8b 54 24 28          	mov    0x28(%rsp),%edx
   180003e3b:	48 8b 4c 24 38       	mov    0x38(%rsp),%rcx
   180003e40:	e8 43 fb ff ff       	callq  0x180003988
   180003e45:	85 c0                	test   %eax,%eax
   180003e47:	75 02                	jne    0x180003e4b
   180003e49:	eb 2e                	jmp    0x180003e79
   180003e4b:	8b 44 24 40          	mov    0x40(%rsp),%eax
   180003e4f:	4c 8d 4c 24 50       	lea    0x50(%rsp),%r9
   180003e54:	41 b8 40 00 00 00    	mov    $0x40,%r8d
   180003e5a:	8b d0                	mov    %eax,%edx
   180003e5c:	48 8b 4c 24 48       	mov    0x48(%rsp),%rcx
   180003e61:	ff 15 b1 01 00 00    	callq  *0x1b1(%rip)        # 0x180004018
   180003e67:	85 c0                	test   %eax,%eax
   180003e69:	75 02                	jne    0x180003e6d
   180003e6b:	eb 0c                	jmp    0x180003e79
   180003e6d:	ff 54 24 48          	callq  *0x48(%rsp)
   180003e71:	c7 44 24 30 01 00 00 	movl   $0x1,0x30(%rsp)
   180003e78:	00 
   180003e79:	83 7c 24 24 00       	cmpl   $0x0,0x24(%rsp)
   180003e7e:	74 09                	je     0x180003e89
   180003e80:	8b 4c 24 24          	mov    0x24(%rsp),%ecx
   180003e84:	e8 37 00 00 00       	callq  0x180003ec0
   180003e89:	83 7c 24 2c 00       	cmpl   $0x0,0x2c(%rsp)
   180003e8e:	74 09                	je     0x180003e99
   180003e90:	8b 4c 24 2c          	mov    0x2c(%rsp),%ecx
   180003e94:	e8 27 00 00 00       	callq  0x180003ec0
   180003e99:	48 83 7c 24 38 00    	cmpq   $0x0,0x38(%rsp)
   180003e9f:	74 13                	je     0x180003eb4
   180003ea1:	41 b8 00 80 00 00    	mov    $0x8000,%r8d
   180003ea7:	33 d2                	xor    %edx,%edx
   180003ea9:	48 8b 4c 24 38       	mov    0x38(%rsp),%rcx
   180003eae:	ff 15 5c 01 00 00    	callq  *0x15c(%rip)        # 0x180004010
   180003eb4:	8b 44 24 30          	mov    0x30(%rsp),%eax
   180003eb8:	48 81 c4 38 08 00 00 	add    $0x838,%rsp
   180003ebf:	c3                   	retq   
   180003ec0:	ff 25 ba 01 00 00    	jmpq   *0x1ba(%rip)        # 0x180004080
   180003ec6:	ff 25 a4 01 00 00    	jmpq   *0x1a4(%rip)        # 0x180004070
   180003ecc:	ff 25 6e 01 00 00    	jmpq   *0x16e(%rip)        # 0x180004040
   180003ed2:	ff 25 90 01 00 00    	jmpq   *0x190(%rip)        # 0x180004068
   180003ed8:	ff 25 82 01 00 00    	jmpq   *0x182(%rip)        # 0x180004060
   180003ede:	ff 25 74 01 00 00    	jmpq   *0x174(%rip)        # 0x180004058
   180003ee4:	ff 25 66 01 00 00    	jmpq   *0x166(%rip)        # 0x180004050
   180003eea:	ff 25 58 01 00 00    	jmpq   *0x158(%rip)        # 0x180004048
   180003ef0:	ff 25 82 01 00 00    	jmpq   *0x182(%rip)        # 0x180004078
