
6c803aac51038ce308ee085f2cd82a055aaa9ba24d08a19efb2c0fcfde936c34:     file format pei-i386


Disassembly of section .text:

10001000 <.text>:
10001000:	3b 0d 04 50 00 10    	cmp    0x10005004,%ecx
10001006:	75 03                	jne    0x1000100b
10001008:	c2 00 00             	ret    $0x0
1000100b:	e9 61 07 00 00       	jmp    0x10001771
10001010:	51                   	push   %ecx
10001011:	8d 4c 24 04          	lea    0x4(%esp),%ecx
10001015:	2b c8                	sub    %eax,%ecx
10001017:	1b c0                	sbb    %eax,%eax
10001019:	f7 d0                	not    %eax
1000101b:	23 c8                	and    %eax,%ecx
1000101d:	8b c4                	mov    %esp,%eax
1000101f:	25 00 f0 ff ff       	and    $0xfffff000,%eax
10001024:	3b c8                	cmp    %eax,%ecx
10001026:	72 0a                	jb     0x10001032
10001028:	8b c1                	mov    %ecx,%eax
1000102a:	59                   	pop    %ecx
1000102b:	94                   	xchg   %eax,%esp
1000102c:	8b 00                	mov    (%eax),%eax
1000102e:	89 04 24             	mov    %eax,(%esp)
10001031:	c3                   	ret    
10001032:	2d 00 10 00 00       	sub    $0x1000,%eax
10001037:	85 00                	test   %eax,(%eax)
10001039:	eb e9                	jmp    0x10001024
1000103b:	cc                   	int3   
1000103c:	53                   	push   %ebx
1000103d:	56                   	push   %esi
1000103e:	57                   	push   %edi
1000103f:	8b 54 24 10          	mov    0x10(%esp),%edx
10001043:	8b 44 24 14          	mov    0x14(%esp),%eax
10001047:	8b 4c 24 18          	mov    0x18(%esp),%ecx
1000104b:	55                   	push   %ebp
1000104c:	52                   	push   %edx
1000104d:	50                   	push   %eax
1000104e:	51                   	push   %ecx
1000104f:	51                   	push   %ecx
10001050:	68 cc 10 00 10       	push   $0x100010cc
10001055:	64 ff 35 00 00 00 00 	pushl  %fs:0x0
1000105c:	a1 04 50 00 10       	mov    0x10005004,%eax
10001061:	33 c4                	xor    %esp,%eax
10001063:	89 44 24 08          	mov    %eax,0x8(%esp)
10001067:	64 89 25 00 00 00 00 	mov    %esp,%fs:0x0
1000106e:	8b 44 24 30          	mov    0x30(%esp),%eax
10001072:	8b 58 08             	mov    0x8(%eax),%ebx
10001075:	8b 4c 24 2c          	mov    0x2c(%esp),%ecx
10001079:	33 19                	xor    (%ecx),%ebx
1000107b:	8b 70 0c             	mov    0xc(%eax),%esi
1000107e:	83 fe fe             	cmp    $0xfffffffe,%esi
10001081:	74 3b                	je     0x100010be
10001083:	8b 54 24 34          	mov    0x34(%esp),%edx
10001087:	83 fa fe             	cmp    $0xfffffffe,%edx
1000108a:	74 04                	je     0x10001090
1000108c:	3b f2                	cmp    %edx,%esi
1000108e:	76 2e                	jbe    0x100010be
10001090:	8d 34 76             	lea    (%esi,%esi,2),%esi
10001093:	8d 5c b3 10          	lea    0x10(%ebx,%esi,4),%ebx
10001097:	8b 0b                	mov    (%ebx),%ecx
10001099:	89 48 0c             	mov    %ecx,0xc(%eax)
1000109c:	83 7b 04 00          	cmpl   $0x0,0x4(%ebx)
100010a0:	75 cc                	jne    0x1000106e
100010a2:	68 01 01 00 00       	push   $0x101
100010a7:	8b 43 08             	mov    0x8(%ebx),%eax
100010aa:	e8 52 08 00 00       	call   0x10001901
100010af:	b9 01 00 00 00       	mov    $0x1,%ecx
100010b4:	8b 43 08             	mov    0x8(%ebx),%eax
100010b7:	e8 64 08 00 00       	call   0x10001920
100010bc:	eb b0                	jmp    0x1000106e
100010be:	64 8f 05 00 00 00 00 	popl   %fs:0x0
100010c5:	83 c4 18             	add    $0x18,%esp
100010c8:	5f                   	pop    %edi
100010c9:	5e                   	pop    %esi
100010ca:	5b                   	pop    %ebx
100010cb:	c3                   	ret    
100010cc:	8b 4c 24 04          	mov    0x4(%esp),%ecx
100010d0:	f7 41 04 06 00 00 00 	testl  $0x6,0x4(%ecx)
100010d7:	b8 01 00 00 00       	mov    $0x1,%eax
100010dc:	74 33                	je     0x10001111
100010de:	8b 44 24 08          	mov    0x8(%esp),%eax
100010e2:	8b 48 08             	mov    0x8(%eax),%ecx
100010e5:	33 c8                	xor    %eax,%ecx
100010e7:	e8 14 ff ff ff       	call   0x10001000
100010ec:	55                   	push   %ebp
100010ed:	8b 68 18             	mov    0x18(%eax),%ebp
100010f0:	ff 70 0c             	pushl  0xc(%eax)
100010f3:	ff 70 10             	pushl  0x10(%eax)
100010f6:	ff 70 14             	pushl  0x14(%eax)
100010f9:	e8 3e ff ff ff       	call   0x1000103c
100010fe:	83 c4 0c             	add    $0xc,%esp
10001101:	5d                   	pop    %ebp
10001102:	8b 44 24 08          	mov    0x8(%esp),%eax
10001106:	8b 54 24 10          	mov    0x10(%esp),%edx
1000110a:	89 02                	mov    %eax,(%edx)
1000110c:	b8 03 00 00 00       	mov    $0x3,%eax
10001111:	c3                   	ret    
10001112:	55                   	push   %ebp
10001113:	8b 4c 24 08          	mov    0x8(%esp),%ecx
10001117:	8b 29                	mov    (%ecx),%ebp
10001119:	ff 71 1c             	pushl  0x1c(%ecx)
1000111c:	ff 71 18             	pushl  0x18(%ecx)
1000111f:	ff 71 28             	pushl  0x28(%ecx)
10001122:	e8 15 ff ff ff       	call   0x1000103c
10001127:	83 c4 0c             	add    $0xc,%esp
1000112a:	5d                   	pop    %ebp
1000112b:	c2 04 00             	ret    $0x4
1000112e:	55                   	push   %ebp
1000112f:	56                   	push   %esi
10001130:	57                   	push   %edi
10001131:	53                   	push   %ebx
10001132:	8b ea                	mov    %edx,%ebp
10001134:	33 c0                	xor    %eax,%eax
10001136:	33 db                	xor    %ebx,%ebx
10001138:	33 d2                	xor    %edx,%edx
1000113a:	33 f6                	xor    %esi,%esi
1000113c:	33 ff                	xor    %edi,%edi
1000113e:	ff d1                	call   *%ecx
10001140:	5b                   	pop    %ebx
10001141:	5f                   	pop    %edi
10001142:	5e                   	pop    %esi
10001143:	5d                   	pop    %ebp
10001144:	c3                   	ret    
10001145:	8b ea                	mov    %edx,%ebp
10001147:	8b f1                	mov    %ecx,%esi
10001149:	8b c1                	mov    %ecx,%eax
1000114b:	6a 01                	push   $0x1
1000114d:	e8 af 07 00 00       	call   0x10001901
10001152:	33 c0                	xor    %eax,%eax
10001154:	33 db                	xor    %ebx,%ebx
10001156:	33 c9                	xor    %ecx,%ecx
10001158:	33 d2                	xor    %edx,%edx
1000115a:	33 ff                	xor    %edi,%edi
1000115c:	ff e6                	jmp    *%esi
1000115e:	55                   	push   %ebp
1000115f:	8b ec                	mov    %esp,%ebp
10001161:	53                   	push   %ebx
10001162:	56                   	push   %esi
10001163:	57                   	push   %edi
10001164:	6a 00                	push   $0x0
10001166:	6a 00                	push   $0x0
10001168:	68 73 11 00 10       	push   $0x10001173
1000116d:	51                   	push   %ecx
1000116e:	e8 5f 26 00 00       	call   0x100037d2
10001173:	5f                   	pop    %edi
10001174:	5e                   	pop    %esi
10001175:	5b                   	pop    %ebx
10001176:	5d                   	pop    %ebp
10001177:	c3                   	ret    
10001178:	55                   	push   %ebp
10001179:	8b 6c 24 08          	mov    0x8(%esp),%ebp
1000117d:	52                   	push   %edx
1000117e:	51                   	push   %ecx
1000117f:	ff 74 24 14          	pushl  0x14(%esp)
10001183:	e8 b4 fe ff ff       	call   0x1000103c
10001188:	83 c4 0c             	add    $0xc,%esp
1000118b:	5d                   	pop    %ebp
1000118c:	c2 08 00             	ret    $0x8
1000118f:	cc                   	int3   
10001190:	8b ff                	mov    %edi,%edi
10001192:	55                   	push   %ebp
10001193:	8b ec                	mov    %esp,%ebp
10001195:	83 ec 18             	sub    $0x18,%esp
10001198:	8b 45 08             	mov    0x8(%ebp),%eax
1000119b:	53                   	push   %ebx
1000119c:	8b 5d 14             	mov    0x14(%ebp),%ebx
1000119f:	56                   	push   %esi
100011a0:	8b 73 08             	mov    0x8(%ebx),%esi
100011a3:	33 30                	xor    (%eax),%esi
100011a5:	57                   	push   %edi
100011a6:	8b 06                	mov    (%esi),%eax
100011a8:	c6 45 ff 00          	movb   $0x0,-0x1(%ebp)
100011ac:	c7 45 f4 01 00 00 00 	movl   $0x1,-0xc(%ebp)
100011b3:	8d 7b 10             	lea    0x10(%ebx),%edi
100011b6:	83 f8 fe             	cmp    $0xfffffffe,%eax
100011b9:	74 0b                	je     0x100011c6
100011bb:	8b 4e 04             	mov    0x4(%esi),%ecx
100011be:	03 cf                	add    %edi,%ecx
100011c0:	33 0c 38             	xor    (%eax,%edi,1),%ecx
100011c3:	ff 55 0c             	call   *0xc(%ebp)
100011c6:	8b 4e 0c             	mov    0xc(%esi),%ecx
100011c9:	8b 56 08             	mov    0x8(%esi),%edx
100011cc:	03 cf                	add    %edi,%ecx
100011ce:	33 0c 3a             	xor    (%edx,%edi,1),%ecx
100011d1:	ff 55 0c             	call   *0xc(%ebp)
100011d4:	8b 45 10             	mov    0x10(%ebp),%eax
100011d7:	f6 40 04 66          	testb  $0x66,0x4(%eax)
100011db:	0f 85 12 01 00 00    	jne    0x100012f3
100011e1:	8d 4d e8             	lea    -0x18(%ebp),%ecx
100011e4:	89 4b fc             	mov    %ecx,-0x4(%ebx)
100011e7:	8b 5b 0c             	mov    0xc(%ebx),%ebx
100011ea:	89 45 e8             	mov    %eax,-0x18(%ebp)
100011ed:	8b 45 18             	mov    0x18(%ebp),%eax
100011f0:	89 45 ec             	mov    %eax,-0x14(%ebp)
100011f3:	83 fb fe             	cmp    $0xfffffffe,%ebx
100011f6:	74 60                	je     0x10001258
100011f8:	eb 06                	jmp    0x10001200
100011fa:	8d 9b 00 00 00 00    	lea    0x0(%ebx),%ebx
10001200:	8d 14 5b             	lea    (%ebx,%ebx,2),%edx
10001203:	8b 4c 96 14          	mov    0x14(%esi,%edx,4),%ecx
10001207:	8d 44 96 10          	lea    0x10(%esi,%edx,4),%eax
1000120b:	89 45 f0             	mov    %eax,-0x10(%ebp)
1000120e:	8b 00                	mov    (%eax),%eax
10001210:	89 45 f8             	mov    %eax,-0x8(%ebp)
10001213:	85 c9                	test   %ecx,%ecx
10001215:	74 14                	je     0x1000122b
10001217:	8b d7                	mov    %edi,%edx
10001219:	e8 10 ff ff ff       	call   0x1000112e
1000121e:	c6 45 ff 01          	movb   $0x1,-0x1(%ebp)
10001222:	85 c0                	test   %eax,%eax
10001224:	7c 3c                	jl     0x10001262
10001226:	7f 43                	jg     0x1000126b
10001228:	8b 45 f8             	mov    -0x8(%ebp),%eax
1000122b:	8b d8                	mov    %eax,%ebx
1000122d:	83 f8 fe             	cmp    $0xfffffffe,%eax
10001230:	75 ce                	jne    0x10001200
10001232:	80 7d ff 00          	cmpb   $0x0,-0x1(%ebp)
10001236:	74 20                	je     0x10001258
10001238:	8b 06                	mov    (%esi),%eax
1000123a:	83 f8 fe             	cmp    $0xfffffffe,%eax
1000123d:	74 0b                	je     0x1000124a
1000123f:	8b 4e 04             	mov    0x4(%esi),%ecx
10001242:	03 cf                	add    %edi,%ecx
10001244:	33 0c 38             	xor    (%eax,%edi,1),%ecx
10001247:	ff 55 0c             	call   *0xc(%ebp)
1000124a:	8b 4e 0c             	mov    0xc(%esi),%ecx
1000124d:	8b 56 08             	mov    0x8(%esi),%edx
10001250:	03 cf                	add    %edi,%ecx
10001252:	33 0c 3a             	xor    (%edx,%edi,1),%ecx
10001255:	ff 55 0c             	call   *0xc(%ebp)
10001258:	8b 45 f4             	mov    -0xc(%ebp),%eax
1000125b:	5f                   	pop    %edi
1000125c:	5e                   	pop    %esi
1000125d:	5b                   	pop    %ebx
1000125e:	8b e5                	mov    %ebp,%esp
10001260:	5d                   	pop    %ebp
10001261:	c3                   	ret    
10001262:	c7 45 f4 00 00 00 00 	movl   $0x0,-0xc(%ebp)
10001269:	eb cd                	jmp    0x10001238
1000126b:	8b 45 10             	mov    0x10(%ebp),%eax
1000126e:	81 38 63 73 6d e0    	cmpl   $0xe06d7363,(%eax)
10001274:	75 29                	jne    0x1000129f
10001276:	83 3d 00 5d 00 10 00 	cmpl   $0x0,0x10005d00
1000127d:	74 20                	je     0x1000129f
1000127f:	68 00 5d 00 10       	push   $0x10005d00
10001284:	e8 2b 07 00 00       	call   0x100019b4
10001289:	83 c4 04             	add    $0x4,%esp
1000128c:	85 c0                	test   %eax,%eax
1000128e:	74 0f                	je     0x1000129f
10001290:	8b 4d 10             	mov    0x10(%ebp),%ecx
10001293:	6a 01                	push   $0x1
10001295:	51                   	push   %ecx
10001296:	ff 15 00 5d 00 10    	call   *0x10005d00
1000129c:	83 c4 08             	add    $0x8,%esp
1000129f:	8b 4d 14             	mov    0x14(%ebp),%ecx
100012a2:	e8 b7 fe ff ff       	call   0x1000115e
100012a7:	8b 45 14             	mov    0x14(%ebp),%eax
100012aa:	39 58 0c             	cmp    %ebx,0xc(%eax)
100012ad:	74 11                	je     0x100012c0
100012af:	8b 55 08             	mov    0x8(%ebp),%edx
100012b2:	52                   	push   %edx
100012b3:	57                   	push   %edi
100012b4:	8b d3                	mov    %ebx,%edx
100012b6:	8b c8                	mov    %eax,%ecx
100012b8:	e8 bb fe ff ff       	call   0x10001178
100012bd:	8b 45 14             	mov    0x14(%ebp),%eax
100012c0:	8b 4d f8             	mov    -0x8(%ebp),%ecx
100012c3:	89 48 0c             	mov    %ecx,0xc(%eax)
100012c6:	8b 06                	mov    (%esi),%eax
100012c8:	83 f8 fe             	cmp    $0xfffffffe,%eax
100012cb:	74 0b                	je     0x100012d8
100012cd:	8b 4e 04             	mov    0x4(%esi),%ecx
100012d0:	03 cf                	add    %edi,%ecx
100012d2:	33 0c 38             	xor    (%eax,%edi,1),%ecx
100012d5:	ff 55 0c             	call   *0xc(%ebp)
100012d8:	8b 4e 0c             	mov    0xc(%esi),%ecx
100012db:	8b 56 08             	mov    0x8(%esi),%edx
100012de:	03 cf                	add    %edi,%ecx
100012e0:	33 0c 3a             	xor    (%edx,%edi,1),%ecx
100012e3:	ff 55 0c             	call   *0xc(%ebp)
100012e6:	8b 45 f0             	mov    -0x10(%ebp),%eax
100012e9:	8b 48 08             	mov    0x8(%eax),%ecx
100012ec:	8b d7                	mov    %edi,%edx
100012ee:	e8 52 fe ff ff       	call   0x10001145
100012f3:	ba fe ff ff ff       	mov    $0xfffffffe,%edx
100012f8:	39 53 0c             	cmp    %edx,0xc(%ebx)
100012fb:	0f 84 57 ff ff ff    	je     0x10001258
10001301:	8b 4d 08             	mov    0x8(%ebp),%ecx
10001304:	51                   	push   %ecx
10001305:	57                   	push   %edi
10001306:	8b cb                	mov    %ebx,%ecx
10001308:	e8 6b fe ff ff       	call   0x10001178
1000130d:	e9 26 ff ff ff       	jmp    0x10001238
10001312:	8b ff                	mov    %edi,%edi
10001314:	55                   	push   %ebp
10001315:	8b ec                	mov    %esp,%ebp
10001317:	b8 63 73 6d e0       	mov    $0xe06d7363,%eax
1000131c:	39 45 08             	cmp    %eax,0x8(%ebp)
1000131f:	75 0d                	jne    0x1000132e
10001321:	ff 75 0c             	pushl  0xc(%ebp)
10001324:	50                   	push   %eax
10001325:	e8 90 24 00 00       	call   0x100037ba
1000132a:	59                   	pop    %ecx
1000132b:	59                   	pop    %ecx
1000132c:	5d                   	pop    %ebp
1000132d:	c3                   	ret    
1000132e:	33 c0                	xor    %eax,%eax
10001330:	5d                   	pop    %ebp
10001331:	c3                   	ret    
10001332:	8b ff                	mov    %edi,%edi
10001334:	55                   	push   %ebp
10001335:	8b ec                	mov    %esp,%ebp
10001337:	56                   	push   %esi
10001338:	8b 75 08             	mov    0x8(%ebp),%esi
1000133b:	33 c0                	xor    %eax,%eax
1000133d:	eb 0f                	jmp    0x1000134e
1000133f:	85 c0                	test   %eax,%eax
10001341:	75 10                	jne    0x10001353
10001343:	8b 0e                	mov    (%esi),%ecx
10001345:	85 c9                	test   %ecx,%ecx
10001347:	74 02                	je     0x1000134b
10001349:	ff d1                	call   *%ecx
1000134b:	83 c6 04             	add    $0x4,%esi
1000134e:	3b 75 0c             	cmp    0xc(%ebp),%esi
10001351:	72 ec                	jb     0x1000133f
10001353:	5e                   	pop    %esi
10001354:	5d                   	pop    %ebp
10001355:	c3                   	ret    
10001356:	68 80 00 00 00       	push   $0x80
1000135b:	ff 15 34 40 00 10    	call   *0x10004034
10001361:	59                   	pop    %ecx
10001362:	a3 fc 5c 00 10       	mov    %eax,0x10005cfc
10001367:	a3 f8 5c 00 10       	mov    %eax,0x10005cf8
1000136c:	85 c0                	test   %eax,%eax
1000136e:	75 02                	jne    0x10001372
10001370:	40                   	inc    %eax
10001371:	c3                   	ret    
10001372:	83 20 00             	andl   $0x0,(%eax)
10001375:	33 c0                	xor    %eax,%eax
10001377:	c3                   	ret    
10001378:	8b ff                	mov    %edi,%edi
1000137a:	55                   	push   %ebp
1000137b:	8b ec                	mov    %esp,%ebp
1000137d:	53                   	push   %ebx
1000137e:	33 c0                	xor    %eax,%eax
10001380:	56                   	push   %esi
10001381:	57                   	push   %edi
10001382:	39 45 0c             	cmp    %eax,0xc(%ebp)
10001385:	75 26                	jne    0x100013ad
10001387:	39 05 70 58 00 10    	cmp    %eax,0x10005870
1000138d:	7e 17                	jle    0x100013a6
1000138f:	ff 0d 70 58 00 10    	decl   0x10005870
10001395:	8b 3d 20 40 00 10    	mov    0x10004020,%edi
1000139b:	50                   	push   %eax
1000139c:	be ec 5c 00 10       	mov    $0x10005cec,%esi
100013a1:	e9 e5 00 00 00       	jmp    0x1000148b
100013a6:	33 c0                	xor    %eax,%eax
100013a8:	e9 4b 01 00 00       	jmp    0x100014f8
100013ad:	83 7d 0c 01          	cmpl   $0x1,0xc(%ebp)
100013b1:	0f 85 3e 01 00 00    	jne    0x100014f5
100013b7:	64 8b 0d 18 00 00 00 	mov    %fs:0x18,%ecx
100013be:	8b 59 04             	mov    0x4(%ecx),%ebx
100013c1:	8b 3d 20 40 00 10    	mov    0x10004020,%edi
100013c7:	89 45 0c             	mov    %eax,0xc(%ebp)
100013ca:	50                   	push   %eax
100013cb:	be ec 5c 00 10       	mov    $0x10005cec,%esi
100013d0:	eb 11                	jmp    0x100013e3
100013d2:	3b c3                	cmp    %ebx,%eax
100013d4:	74 17                	je     0x100013ed
100013d6:	68 e8 03 00 00       	push   $0x3e8
100013db:	ff 15 96 54 00 10    	call   *0x10005496
100013e1:	6a 00                	push   $0x0
100013e3:	53                   	push   %ebx
100013e4:	56                   	push   %esi
100013e5:	ff d7                	call   *%edi
100013e7:	85 c0                	test   %eax,%eax
100013e9:	75 e7                	jne    0x100013d2
100013eb:	eb 07                	jmp    0x100013f4
100013ed:	c7 45 0c 01 00 00 00 	movl   $0x1,0xc(%ebp)
100013f4:	a1 e8 5c 00 10       	mov    0x10005ce8,%eax
100013f9:	6a 02                	push   $0x2
100013fb:	5f                   	pop    %edi
100013fc:	85 c0                	test   %eax,%eax
100013fe:	74 09                	je     0x10001409
10001400:	6a 1f                	push   $0x1f
10001402:	e8 bf 23 00 00       	call   0x100037c6
10001407:	eb 39                	jmp    0x10001442
10001409:	68 5c 40 00 10       	push   $0x1000405c
1000140e:	68 54 40 00 10       	push   $0x10004054
10001413:	c7 05 e8 5c 00 10 01 	movl   $0x1,0x10005ce8
1000141a:	00 00 00 
1000141d:	e8 10 ff ff ff       	call   0x10001332
10001422:	59                   	pop    %ecx
10001423:	59                   	pop    %ecx
10001424:	85 c0                	test   %eax,%eax
10001426:	0f 85 7a ff ff ff    	jne    0x100013a6
1000142c:	68 50 40 00 10       	push   $0x10004050
10001431:	68 4c 40 00 10       	push   $0x1000404c
10001436:	e8 85 23 00 00       	call   0x100037c0
1000143b:	59                   	pop    %ecx
1000143c:	89 3d e8 5c 00 10    	mov    %edi,0x10005ce8
10001442:	33 db                	xor    %ebx,%ebx
10001444:	59                   	pop    %ecx
10001445:	39 5d 0c             	cmp    %ebx,0xc(%ebp)
10001448:	75 08                	jne    0x10001452
1000144a:	53                   	push   %ebx
1000144b:	56                   	push   %esi
1000144c:	ff 15 10 40 00 10    	call   *0x10004010
10001452:	39 1d f4 5c 00 10    	cmp    %ebx,0x10005cf4
10001458:	74 1c                	je     0x10001476
1000145a:	68 f4 5c 00 10       	push   $0x10005cf4
1000145f:	e8 50 05 00 00       	call   0x100019b4
10001464:	59                   	pop    %ecx
10001465:	85 c0                	test   %eax,%eax
10001467:	74 0d                	je     0x10001476
10001469:	ff 75 10             	pushl  0x10(%ebp)
1000146c:	57                   	push   %edi
1000146d:	ff 75 08             	pushl  0x8(%ebp)
10001470:	ff 15 f4 5c 00 10    	call   *0x10005cf4
10001476:	ff 05 70 58 00 10    	incl   0x10005870
1000147c:	eb 77                	jmp    0x100014f5
1000147e:	68 e8 03 00 00       	push   $0x3e8
10001483:	ff 15 96 54 00 10    	call   *0x10005496
10001489:	6a 00                	push   $0x0
1000148b:	6a 01                	push   $0x1
1000148d:	56                   	push   %esi
1000148e:	ff d7                	call   *%edi
10001490:	85 c0                	test   %eax,%eax
10001492:	75 ea                	jne    0x1000147e
10001494:	a1 e8 5c 00 10       	mov    0x10005ce8,%eax
10001499:	83 f8 02             	cmp    $0x2,%eax
1000149c:	74 0a                	je     0x100014a8
1000149e:	6a 1f                	push   $0x1f
100014a0:	e8 21 23 00 00       	call   0x100037c6
100014a5:	59                   	pop    %ecx
100014a6:	eb 4d                	jmp    0x100014f5
100014a8:	8b 1d fc 5c 00 10    	mov    0x10005cfc,%ebx
100014ae:	85 db                	test   %ebx,%ebx
100014b0:	74 30                	je     0x100014e2
100014b2:	8b 3d f8 5c 00 10    	mov    0x10005cf8,%edi
100014b8:	83 c7 fc             	add    $0xfffffffc,%edi
100014bb:	eb 0b                	jmp    0x100014c8
100014bd:	8b 07                	mov    (%edi),%eax
100014bf:	85 c0                	test   %eax,%eax
100014c1:	74 02                	je     0x100014c5
100014c3:	ff d0                	call   *%eax
100014c5:	83 ef 04             	sub    $0x4,%edi
100014c8:	3b fb                	cmp    %ebx,%edi
100014ca:	73 f1                	jae    0x100014bd
100014cc:	53                   	push   %ebx
100014cd:	ff 15 30 40 00 10    	call   *0x10004030
100014d3:	83 25 f8 5c 00 10 00 	andl   $0x0,0x10005cf8
100014da:	83 25 fc 5c 00 10 00 	andl   $0x0,0x10005cfc
100014e1:	59                   	pop    %ecx
100014e2:	6a 00                	push   $0x0
100014e4:	56                   	push   %esi
100014e5:	c7 05 e8 5c 00 10 00 	movl   $0x0,0x10005ce8
100014ec:	00 00 00 
100014ef:	ff 15 10 40 00 10    	call   *0x10004010
100014f5:	33 c0                	xor    %eax,%eax
100014f7:	40                   	inc    %eax
100014f8:	5f                   	pop    %edi
100014f9:	5e                   	pop    %esi
100014fa:	5b                   	pop    %ebx
100014fb:	5d                   	pop    %ebp
100014fc:	c2 0c 00             	ret    $0xc
100014ff:	6a 2c                	push   $0x2c
10001501:	68 a0 43 00 10       	push   $0x100043a0
10001506:	e8 49 05 00 00       	call   0x10001a54
1000150b:	8b 4d 0c             	mov    0xc(%ebp),%ecx
1000150e:	33 d2                	xor    %edx,%edx
10001510:	42                   	inc    %edx
10001511:	89 55 e4             	mov    %edx,-0x1c(%ebp)
10001514:	33 f6                	xor    %esi,%esi
10001516:	89 75 fc             	mov    %esi,-0x4(%ebp)
10001519:	89 0d 20 50 00 10    	mov    %ecx,0x10005020
1000151f:	3b ce                	cmp    %esi,%ecx
10001521:	75 10                	jne    0x10001533
10001523:	39 35 70 58 00 10    	cmp    %esi,0x10005870
10001529:	75 08                	jne    0x10001533
1000152b:	89 75 e4             	mov    %esi,-0x1c(%ebp)
1000152e:	e9 06 02 00 00       	jmp    0x10001739
10001533:	3b ca                	cmp    %edx,%ecx
10001535:	74 09                	je     0x10001540
10001537:	83 f9 02             	cmp    $0x2,%ecx
1000153a:	0f 85 8d 00 00 00    	jne    0x100015cd
10001540:	a1 f0 5c 00 10       	mov    0x10005cf0,%eax
10001545:	3b c6                	cmp    %esi,%eax
10001547:	74 36                	je     0x1000157f
10001549:	89 55 fc             	mov    %edx,-0x4(%ebp)
1000154c:	89 15 74 58 00 10    	mov    %edx,0x10005874
10001552:	ff 75 10             	pushl  0x10(%ebp)
10001555:	51                   	push   %ecx
10001556:	ff 75 08             	pushl  0x8(%ebp)
10001559:	ff d0                	call   *%eax
1000155b:	89 45 e4             	mov    %eax,-0x1c(%ebp)
1000155e:	eb 1c                	jmp    0x1000157c
10001560:	8b 45 ec             	mov    -0x14(%ebp),%eax
10001563:	8b 08                	mov    (%eax),%ecx
10001565:	8b 09                	mov    (%ecx),%ecx
10001567:	89 4d e0             	mov    %ecx,-0x20(%ebp)
1000156a:	50                   	push   %eax
1000156b:	51                   	push   %ecx
1000156c:	e8 a1 fd ff ff       	call   0x10001312
10001571:	59                   	pop    %ecx
10001572:	59                   	pop    %ecx
10001573:	c3                   	ret    
10001574:	8b 65 e8             	mov    -0x18(%ebp),%esp
10001577:	33 f6                	xor    %esi,%esi
10001579:	89 75 e4             	mov    %esi,-0x1c(%ebp)
1000157c:	89 75 fc             	mov    %esi,-0x4(%ebp)
1000157f:	39 75 e4             	cmp    %esi,-0x1c(%ebp)
10001582:	0f 84 b1 01 00 00    	je     0x10001739
10001588:	c7 45 fc 02 00 00 00 	movl   $0x2,-0x4(%ebp)
1000158f:	ff 75 10             	pushl  0x10(%ebp)
10001592:	ff 75 0c             	pushl  0xc(%ebp)
10001595:	ff 75 08             	pushl  0x8(%ebp)
10001598:	e8 db fd ff ff       	call   0x10001378
1000159d:	89 45 e4             	mov    %eax,-0x1c(%ebp)
100015a0:	eb 1c                	jmp    0x100015be
100015a2:	8b 45 ec             	mov    -0x14(%ebp),%eax
100015a5:	8b 08                	mov    (%eax),%ecx
100015a7:	8b 09                	mov    (%ecx),%ecx
100015a9:	89 4d dc             	mov    %ecx,-0x24(%ebp)
100015ac:	50                   	push   %eax
100015ad:	51                   	push   %ecx
100015ae:	e8 5f fd ff ff       	call   0x10001312
100015b3:	59                   	pop    %ecx
100015b4:	59                   	pop    %ecx
100015b5:	c3                   	ret    
100015b6:	8b 65 e8             	mov    -0x18(%ebp),%esp
100015b9:	33 f6                	xor    %esi,%esi
100015bb:	89 75 e4             	mov    %esi,-0x1c(%ebp)
100015be:	89 75 fc             	mov    %esi,-0x4(%ebp)
100015c1:	39 75 e4             	cmp    %esi,-0x1c(%ebp)
100015c4:	0f 84 6f 01 00 00    	je     0x10001739
100015ca:	8b 4d 0c             	mov    0xc(%ebp),%ecx
100015cd:	c7 45 fc 03 00 00 00 	movl   $0x3,-0x4(%ebp)
100015d4:	ff 75 10             	pushl  0x10(%ebp)
100015d7:	51                   	push   %ecx
100015d8:	ff 75 08             	pushl  0x8(%ebp)
100015db:	e8 8e 1b 00 00       	call   0x1000316e
100015e0:	89 45 e4             	mov    %eax,-0x1c(%ebp)
100015e3:	eb 1c                	jmp    0x10001601
100015e5:	8b 45 ec             	mov    -0x14(%ebp),%eax
100015e8:	8b 08                	mov    (%eax),%ecx
100015ea:	8b 09                	mov    (%ecx),%ecx
100015ec:	89 4d d8             	mov    %ecx,-0x28(%ebp)
100015ef:	50                   	push   %eax
100015f0:	51                   	push   %ecx
100015f1:	e8 1c fd ff ff       	call   0x10001312
100015f6:	59                   	pop    %ecx
100015f7:	59                   	pop    %ecx
100015f8:	c3                   	ret    
100015f9:	8b 65 e8             	mov    -0x18(%ebp),%esp
100015fc:	33 f6                	xor    %esi,%esi
100015fe:	89 75 e4             	mov    %esi,-0x1c(%ebp)
10001601:	89 75 fc             	mov    %esi,-0x4(%ebp)
10001604:	83 7d 0c 01          	cmpl   $0x1,0xc(%ebp)
10001608:	0f 85 9c 00 00 00    	jne    0x100016aa
1000160e:	39 75 e4             	cmp    %esi,-0x1c(%ebp)
10001611:	0f 85 93 00 00 00    	jne    0x100016aa
10001617:	c7 45 fc 04 00 00 00 	movl   $0x4,-0x4(%ebp)
1000161e:	56                   	push   %esi
1000161f:	56                   	push   %esi
10001620:	ff 75 08             	pushl  0x8(%ebp)
10001623:	e8 46 1b 00 00       	call   0x1000316e
10001628:	eb 19                	jmp    0x10001643
1000162a:	8b 45 ec             	mov    -0x14(%ebp),%eax
1000162d:	8b 08                	mov    (%eax),%ecx
1000162f:	8b 09                	mov    (%ecx),%ecx
10001631:	89 4d d4             	mov    %ecx,-0x2c(%ebp)
10001634:	50                   	push   %eax
10001635:	51                   	push   %ecx
10001636:	e8 d7 fc ff ff       	call   0x10001312
1000163b:	59                   	pop    %ecx
1000163c:	59                   	pop    %ecx
1000163d:	c3                   	ret    
1000163e:	8b 65 e8             	mov    -0x18(%ebp),%esp
10001641:	33 f6                	xor    %esi,%esi
10001643:	89 75 fc             	mov    %esi,-0x4(%ebp)
10001646:	c7 45 fc 05 00 00 00 	movl   $0x5,-0x4(%ebp)
1000164d:	56                   	push   %esi
1000164e:	56                   	push   %esi
1000164f:	ff 75 08             	pushl  0x8(%ebp)
10001652:	e8 21 fd ff ff       	call   0x10001378
10001657:	eb 19                	jmp    0x10001672
10001659:	8b 45 ec             	mov    -0x14(%ebp),%eax
1000165c:	8b 08                	mov    (%eax),%ecx
1000165e:	8b 09                	mov    (%ecx),%ecx
10001660:	89 4d d0             	mov    %ecx,-0x30(%ebp)
10001663:	50                   	push   %eax
10001664:	51                   	push   %ecx
10001665:	e8 a8 fc ff ff       	call   0x10001312
1000166a:	59                   	pop    %ecx
1000166b:	59                   	pop    %ecx
1000166c:	c3                   	ret    
1000166d:	8b 65 e8             	mov    -0x18(%ebp),%esp
10001670:	33 f6                	xor    %esi,%esi
10001672:	89 75 fc             	mov    %esi,-0x4(%ebp)
10001675:	a1 f0 5c 00 10       	mov    0x10005cf0,%eax
1000167a:	3b c6                	cmp    %esi,%eax
1000167c:	74 2c                	je     0x100016aa
1000167e:	c7 45 fc 06 00 00 00 	movl   $0x6,-0x4(%ebp)
10001685:	56                   	push   %esi
10001686:	56                   	push   %esi
10001687:	ff 75 08             	pushl  0x8(%ebp)
1000168a:	ff d0                	call   *%eax
1000168c:	eb 19                	jmp    0x100016a7
1000168e:	8b 45 ec             	mov    -0x14(%ebp),%eax
10001691:	8b 08                	mov    (%eax),%ecx
10001693:	8b 09                	mov    (%ecx),%ecx
10001695:	89 4d cc             	mov    %ecx,-0x34(%ebp)
10001698:	50                   	push   %eax
10001699:	51                   	push   %ecx
1000169a:	e8 73 fc ff ff       	call   0x10001312
1000169f:	59                   	pop    %ecx
100016a0:	59                   	pop    %ecx
100016a1:	c3                   	ret    
100016a2:	8b 65 e8             	mov    -0x18(%ebp),%esp
100016a5:	33 f6                	xor    %esi,%esi
100016a7:	89 75 fc             	mov    %esi,-0x4(%ebp)
100016aa:	39 75 0c             	cmp    %esi,0xc(%ebp)
100016ad:	74 0a                	je     0x100016b9
100016af:	83 7d 0c 03          	cmpl   $0x3,0xc(%ebp)
100016b3:	0f 85 80 00 00 00    	jne    0x10001739
100016b9:	c7 45 fc 07 00 00 00 	movl   $0x7,-0x4(%ebp)
100016c0:	ff 75 10             	pushl  0x10(%ebp)
100016c3:	ff 75 0c             	pushl  0xc(%ebp)
100016c6:	ff 75 08             	pushl  0x8(%ebp)
100016c9:	e8 aa fc ff ff       	call   0x10001378
100016ce:	89 45 e4             	mov    %eax,-0x1c(%ebp)
100016d1:	eb 1c                	jmp    0x100016ef
100016d3:	8b 45 ec             	mov    -0x14(%ebp),%eax
100016d6:	8b 08                	mov    (%eax),%ecx
100016d8:	8b 09                	mov    (%ecx),%ecx
100016da:	89 4d c8             	mov    %ecx,-0x38(%ebp)
100016dd:	50                   	push   %eax
100016de:	51                   	push   %ecx
100016df:	e8 2e fc ff ff       	call   0x10001312
100016e4:	59                   	pop    %ecx
100016e5:	59                   	pop    %ecx
100016e6:	c3                   	ret    
100016e7:	8b 65 e8             	mov    -0x18(%ebp),%esp
100016ea:	33 f6                	xor    %esi,%esi
100016ec:	89 75 e4             	mov    %esi,-0x1c(%ebp)
100016ef:	89 75 fc             	mov    %esi,-0x4(%ebp)
100016f2:	a1 f0 5c 00 10       	mov    0x10005cf0,%eax
100016f7:	3b c6                	cmp    %esi,%eax
100016f9:	74 3e                	je     0x10001739
100016fb:	39 35 74 58 00 10    	cmp    %esi,0x10005874
10001701:	74 36                	je     0x10001739
10001703:	c7 45 fc 08 00 00 00 	movl   $0x8,-0x4(%ebp)
1000170a:	ff 75 10             	pushl  0x10(%ebp)
1000170d:	ff 75 0c             	pushl  0xc(%ebp)
10001710:	ff 75 08             	pushl  0x8(%ebp)
10001713:	ff d0                	call   *%eax
10001715:	89 45 e4             	mov    %eax,-0x1c(%ebp)
10001718:	eb 1c                	jmp    0x10001736
1000171a:	8b 45 ec             	mov    -0x14(%ebp),%eax
1000171d:	8b 08                	mov    (%eax),%ecx
1000171f:	8b 09                	mov    (%ecx),%ecx
10001721:	89 4d c4             	mov    %ecx,-0x3c(%ebp)
10001724:	50                   	push   %eax
10001725:	51                   	push   %ecx
10001726:	e8 e7 fb ff ff       	call   0x10001312
1000172b:	59                   	pop    %ecx
1000172c:	59                   	pop    %ecx
1000172d:	c3                   	ret    
1000172e:	8b 65 e8             	mov    -0x18(%ebp),%esp
10001731:	33 f6                	xor    %esi,%esi
10001733:	89 75 e4             	mov    %esi,-0x1c(%ebp)
10001736:	89 75 fc             	mov    %esi,-0x4(%ebp)
10001739:	c7 45 fc fe ff ff ff 	movl   $0xfffffffe,-0x4(%ebp)
10001740:	e8 0b 00 00 00       	call   0x10001750
10001745:	8b 45 e4             	mov    -0x1c(%ebp),%eax
10001748:	e8 4c 03 00 00       	call   0x10001a99
1000174d:	c2 0c 00             	ret    $0xc
10001750:	c7 05 20 50 00 10 ff 	movl   $0xffffffff,0x10005020
10001757:	ff ff ff 
1000175a:	c3                   	ret    
1000175b:	8b ff                	mov    %edi,%edi
1000175d:	55                   	push   %ebp
1000175e:	8b ec                	mov    %esp,%ebp
10001760:	83 7d 0c 01          	cmpl   $0x1,0xc(%ebp)
10001764:	75 05                	jne    0x1000176b
10001766:	e8 67 03 00 00       	call   0x10001ad2
1000176b:	5d                   	pop    %ebp
1000176c:	e9 8e fd ff ff       	jmp    0x100014ff
10001771:	8b ff                	mov    %edi,%edi
10001773:	55                   	push   %ebp
10001774:	8b ec                	mov    %esp,%ebp
10001776:	81 ec 28 03 00 00    	sub    $0x328,%esp
1000177c:	a3 78 59 00 10       	mov    %eax,0x10005978
10001781:	89 0d 74 59 00 10    	mov    %ecx,0x10005974
10001787:	89 15 70 59 00 10    	mov    %edx,0x10005970
1000178d:	89 1d 6c 59 00 10    	mov    %ebx,0x1000596c
10001793:	89 35 68 59 00 10    	mov    %esi,0x10005968
10001799:	89 3d 64 59 00 10    	mov    %edi,0x10005964
1000179f:	66 8c 15 90 59 00 10 	data16 mov %ss,0x10005990
100017a6:	66 8c 0d 84 59 00 10 	data16 mov %cs,0x10005984
100017ad:	66 8c 1d 60 59 00 10 	data16 mov %ds,0x10005960
100017b4:	66 8c 05 5c 59 00 10 	data16 mov %es,0x1000595c
100017bb:	66 8c 25 58 59 00 10 	data16 mov %fs,0x10005958
100017c2:	66 8c 2d 54 59 00 10 	data16 mov %gs,0x10005954
100017c9:	9c                   	pushf  
100017ca:	8f 05 88 59 00 10    	popl   0x10005988
100017d0:	8b 45 00             	mov    0x0(%ebp),%eax
100017d3:	a3 7c 59 00 10       	mov    %eax,0x1000597c
100017d8:	8b 45 04             	mov    0x4(%ebp),%eax
100017db:	a3 80 59 00 10       	mov    %eax,0x10005980
100017e0:	8d 45 08             	lea    0x8(%ebp),%eax
100017e3:	a3 8c 59 00 10       	mov    %eax,0x1000598c
100017e8:	8b 85 e0 fc ff ff    	mov    -0x320(%ebp),%eax
100017ee:	c7 05 c8 58 00 10 01 	movl   $0x10001,0x100058c8
100017f5:	00 01 00 
100017f8:	a1 80 59 00 10       	mov    0x10005980,%eax
100017fd:	a3 84 58 00 10       	mov    %eax,0x10005884
10001802:	c7 05 78 58 00 10 09 	movl   $0xc0000409,0x10005878
10001809:	04 00 c0 
1000180c:	c7 05 7c 58 00 10 01 	movl   $0x1,0x1000587c
10001813:	00 00 00 
10001816:	a1 04 50 00 10       	mov    0x10005004,%eax
1000181b:	89 85 d8 fc ff ff    	mov    %eax,-0x328(%ebp)
10001821:	a1 08 50 00 10       	mov    0x10005008,%eax
10001826:	89 85 dc fc ff ff    	mov    %eax,-0x324(%ebp)
1000182c:	6a 00                	push   $0x0
1000182e:	ff 15 cc 57 00 10    	call   *0x100057cc
10001834:	68 ac 40 00 10       	push   $0x100040ac
10001839:	ff 15 a9 57 00 10    	call   *0x100057a9
1000183f:	68 09 04 00 c0       	push   $0xc0000409
10001844:	ff 15 82 57 00 10    	call   *0x10005782
1000184a:	50                   	push   %eax
1000184b:	ff 15 61 57 00 10    	call   *0x10005761
10001851:	c9                   	leave  
10001852:	c3                   	ret    
10001853:	cc                   	int3   
10001854:	cc                   	int3   
10001855:	cc                   	int3   
10001856:	cc                   	int3   
10001857:	cc                   	int3   
10001858:	cc                   	int3   
10001859:	cc                   	int3   
1000185a:	cc                   	int3   
1000185b:	cc                   	int3   
1000185c:	cc                   	int3   
1000185d:	cc                   	int3   
1000185e:	cc                   	int3   
1000185f:	cc                   	int3   
10001860:	56                   	push   %esi
10001861:	8b 44 24 14          	mov    0x14(%esp),%eax
10001865:	0b c0                	or     %eax,%eax
10001867:	75 28                	jne    0x10001891
10001869:	8b 4c 24 10          	mov    0x10(%esp),%ecx
1000186d:	8b 44 24 0c          	mov    0xc(%esp),%eax
10001871:	33 d2                	xor    %edx,%edx
10001873:	f7 f1                	div    %ecx
10001875:	8b d8                	mov    %eax,%ebx
10001877:	8b 44 24 08          	mov    0x8(%esp),%eax
1000187b:	f7 f1                	div    %ecx
1000187d:	8b f0                	mov    %eax,%esi
1000187f:	8b c3                	mov    %ebx,%eax
10001881:	f7 64 24 10          	mull   0x10(%esp)
10001885:	8b c8                	mov    %eax,%ecx
10001887:	8b c6                	mov    %esi,%eax
10001889:	f7 64 24 10          	mull   0x10(%esp)
1000188d:	03 d1                	add    %ecx,%edx
1000188f:	eb 47                	jmp    0x100018d8
10001891:	8b c8                	mov    %eax,%ecx
10001893:	8b 5c 24 10          	mov    0x10(%esp),%ebx
10001897:	8b 54 24 0c          	mov    0xc(%esp),%edx
1000189b:	8b 44 24 08          	mov    0x8(%esp),%eax
1000189f:	d1 e9                	shr    %ecx
100018a1:	d1 db                	rcr    %ebx
100018a3:	d1 ea                	shr    %edx
100018a5:	d1 d8                	rcr    %eax
100018a7:	0b c9                	or     %ecx,%ecx
100018a9:	75 f4                	jne    0x1000189f
100018ab:	f7 f3                	div    %ebx
100018ad:	8b f0                	mov    %eax,%esi
100018af:	f7 64 24 14          	mull   0x14(%esp)
100018b3:	8b c8                	mov    %eax,%ecx
100018b5:	8b 44 24 10          	mov    0x10(%esp),%eax
100018b9:	f7 e6                	mul    %esi
100018bb:	03 d1                	add    %ecx,%edx
100018bd:	72 0e                	jb     0x100018cd
100018bf:	3b 54 24 0c          	cmp    0xc(%esp),%edx
100018c3:	77 08                	ja     0x100018cd
100018c5:	72 0f                	jb     0x100018d6
100018c7:	3b 44 24 08          	cmp    0x8(%esp),%eax
100018cb:	76 09                	jbe    0x100018d6
100018cd:	4e                   	dec    %esi
100018ce:	2b 44 24 10          	sub    0x10(%esp),%eax
100018d2:	1b 54 24 14          	sbb    0x14(%esp),%edx
100018d6:	33 db                	xor    %ebx,%ebx
100018d8:	2b 44 24 08          	sub    0x8(%esp),%eax
100018dc:	1b 54 24 0c          	sbb    0xc(%esp),%edx
100018e0:	f7 da                	neg    %edx
100018e2:	f7 d8                	neg    %eax
100018e4:	83 da 00             	sbb    $0x0,%edx
100018e7:	8b ca                	mov    %edx,%ecx
100018e9:	8b d3                	mov    %ebx,%edx
100018eb:	8b d9                	mov    %ecx,%ebx
100018ed:	8b c8                	mov    %eax,%ecx
100018ef:	8b c6                	mov    %esi,%eax
100018f1:	5e                   	pop    %esi
100018f2:	c2 10 00             	ret    $0x10
100018f5:	cc                   	int3   
100018f6:	cc                   	int3   
100018f7:	cc                   	int3   
100018f8:	53                   	push   %ebx
100018f9:	51                   	push   %ecx
100018fa:	bb 10 50 00 10       	mov    $0x10005010,%ebx
100018ff:	eb 0b                	jmp    0x1000190c
10001901:	53                   	push   %ebx
10001902:	51                   	push   %ecx
10001903:	bb 10 50 00 10       	mov    $0x10005010,%ebx
10001908:	8b 4c 24 0c          	mov    0xc(%esp),%ecx
1000190c:	89 4b 08             	mov    %ecx,0x8(%ebx)
1000190f:	89 43 04             	mov    %eax,0x4(%ebx)
10001912:	89 6b 0c             	mov    %ebp,0xc(%ebx)
10001915:	55                   	push   %ebp
10001916:	51                   	push   %ecx
10001917:	50                   	push   %eax
10001918:	58                   	pop    %eax
10001919:	59                   	pop    %ecx
1000191a:	5d                   	pop    %ebp
1000191b:	59                   	pop    %ecx
1000191c:	5b                   	pop    %ebx
1000191d:	c2 04 00             	ret    $0x4
10001920:	ff d0                	call   *%eax
10001922:	c3                   	ret    
10001923:	cc                   	int3   
10001924:	cc                   	int3   
10001925:	cc                   	int3   
10001926:	cc                   	int3   
10001927:	cc                   	int3   
10001928:	cc                   	int3   
10001929:	cc                   	int3   
1000192a:	cc                   	int3   
1000192b:	cc                   	int3   
1000192c:	cc                   	int3   
1000192d:	cc                   	int3   
1000192e:	cc                   	int3   
1000192f:	cc                   	int3   
10001930:	8b ff                	mov    %edi,%edi
10001932:	55                   	push   %ebp
10001933:	8b ec                	mov    %esp,%ebp
10001935:	8b 4d 08             	mov    0x8(%ebp),%ecx
10001938:	b8 4d 5a 00 00       	mov    $0x5a4d,%eax
1000193d:	66 39 01             	cmp    %ax,(%ecx)
10001940:	74 04                	je     0x10001946
10001942:	33 c0                	xor    %eax,%eax
10001944:	5d                   	pop    %ebp
10001945:	c3                   	ret    
10001946:	8b 41 3c             	mov    0x3c(%ecx),%eax
10001949:	03 c1                	add    %ecx,%eax
1000194b:	81 38 50 45 00 00    	cmpl   $0x4550,(%eax)
10001951:	75 ef                	jne    0x10001942
10001953:	33 d2                	xor    %edx,%edx
10001955:	b9 0b 01 00 00       	mov    $0x10b,%ecx
1000195a:	66 39 48 18          	cmp    %cx,0x18(%eax)
1000195e:	0f 94 c2             	sete   %dl
10001961:	8b c2                	mov    %edx,%eax
10001963:	5d                   	pop    %ebp
10001964:	c3                   	ret    
10001965:	cc                   	int3   
10001966:	cc                   	int3   
10001967:	cc                   	int3   
10001968:	cc                   	int3   
10001969:	cc                   	int3   
1000196a:	cc                   	int3   
1000196b:	cc                   	int3   
1000196c:	cc                   	int3   
1000196d:	cc                   	int3   
1000196e:	cc                   	int3   
1000196f:	cc                   	int3   
10001970:	8b ff                	mov    %edi,%edi
10001972:	55                   	push   %ebp
10001973:	8b ec                	mov    %esp,%ebp
10001975:	8b 45 08             	mov    0x8(%ebp),%eax
10001978:	8b 48 3c             	mov    0x3c(%eax),%ecx
1000197b:	03 c8                	add    %eax,%ecx
1000197d:	0f b7 41 14          	movzwl 0x14(%ecx),%eax
10001981:	53                   	push   %ebx
10001982:	56                   	push   %esi
10001983:	0f b7 71 06          	movzwl 0x6(%ecx),%esi
10001987:	33 d2                	xor    %edx,%edx
10001989:	57                   	push   %edi
1000198a:	8d 44 08 18          	lea    0x18(%eax,%ecx,1),%eax
1000198e:	85 f6                	test   %esi,%esi
10001990:	76 1b                	jbe    0x100019ad
10001992:	8b 7d 0c             	mov    0xc(%ebp),%edi
10001995:	8b 48 0c             	mov    0xc(%eax),%ecx
10001998:	3b f9                	cmp    %ecx,%edi
1000199a:	72 09                	jb     0x100019a5
1000199c:	8b 58 08             	mov    0x8(%eax),%ebx
1000199f:	03 d9                	add    %ecx,%ebx
100019a1:	3b fb                	cmp    %ebx,%edi
100019a3:	72 0a                	jb     0x100019af
100019a5:	42                   	inc    %edx
100019a6:	83 c0 28             	add    $0x28,%eax
100019a9:	3b d6                	cmp    %esi,%edx
100019ab:	72 e8                	jb     0x10001995
100019ad:	33 c0                	xor    %eax,%eax
100019af:	5f                   	pop    %edi
100019b0:	5e                   	pop    %esi
100019b1:	5b                   	pop    %ebx
100019b2:	5d                   	pop    %ebp
100019b3:	c3                   	ret    
100019b4:	6a 08                	push   $0x8
100019b6:	68 20 44 00 10       	push   $0x10004420
100019bb:	e8 94 00 00 00       	call   0x10001a54
100019c0:	83 65 fc 00          	andl   $0x0,-0x4(%ebp)
100019c4:	be 00 00 00 10       	mov    $0x10000000,%esi
100019c9:	56                   	push   %esi
100019ca:	e8 61 ff ff ff       	call   0x10001930
100019cf:	59                   	pop    %ecx
100019d0:	85 c0                	test   %eax,%eax
100019d2:	74 3d                	je     0x10001a11
100019d4:	8b 45 08             	mov    0x8(%ebp),%eax
100019d7:	2b c6                	sub    %esi,%eax
100019d9:	50                   	push   %eax
100019da:	56                   	push   %esi
100019db:	e8 90 ff ff ff       	call   0x10001970
100019e0:	59                   	pop    %ecx
100019e1:	59                   	pop    %ecx
100019e2:	85 c0                	test   %eax,%eax
100019e4:	74 2b                	je     0x10001a11
100019e6:	8b 40 24             	mov    0x24(%eax),%eax
100019e9:	c1 e8 1f             	shr    $0x1f,%eax
100019ec:	f7 d0                	not    %eax
100019ee:	83 e0 01             	and    $0x1,%eax
100019f1:	c7 45 fc fe ff ff ff 	movl   $0xfffffffe,-0x4(%ebp)
100019f8:	eb 20                	jmp    0x10001a1a
100019fa:	8b 45 ec             	mov    -0x14(%ebp),%eax
100019fd:	8b 00                	mov    (%eax),%eax
100019ff:	8b 00                	mov    (%eax),%eax
10001a01:	33 c9                	xor    %ecx,%ecx
10001a03:	3d 05 00 00 c0       	cmp    $0xc0000005,%eax
10001a08:	0f 94 c1             	sete   %cl
10001a0b:	8b c1                	mov    %ecx,%eax
10001a0d:	c3                   	ret    
10001a0e:	8b 65 e8             	mov    -0x18(%ebp),%esp
10001a11:	c7 45 fc fe ff ff ff 	movl   $0xfffffffe,-0x4(%ebp)
10001a18:	33 c0                	xor    %eax,%eax
10001a1a:	e8 7a 00 00 00       	call   0x10001a99
10001a1f:	c3                   	ret    
10001a20:	8b 44 24 08          	mov    0x8(%esp),%eax
10001a24:	8b 4c 24 10          	mov    0x10(%esp),%ecx
10001a28:	0b c8                	or     %eax,%ecx
10001a2a:	8b 4c 24 0c          	mov    0xc(%esp),%ecx
10001a2e:	75 09                	jne    0x10001a39
10001a30:	8b 44 24 04          	mov    0x4(%esp),%eax
10001a34:	f7 e1                	mul    %ecx
10001a36:	c2 10 00             	ret    $0x10
10001a39:	53                   	push   %ebx
10001a3a:	f7 e1                	mul    %ecx
10001a3c:	8b d8                	mov    %eax,%ebx
10001a3e:	8b 44 24 08          	mov    0x8(%esp),%eax
10001a42:	f7 64 24 14          	mull   0x14(%esp)
10001a46:	03 d8                	add    %eax,%ebx
10001a48:	8b 44 24 08          	mov    0x8(%esp),%eax
10001a4c:	f7 e1                	mul    %ecx
10001a4e:	03 d3                	add    %ebx,%edx
10001a50:	5b                   	pop    %ebx
10001a51:	c2 10 00             	ret    $0x10
10001a54:	68 ad 1a 00 10       	push   $0x10001aad
10001a59:	64 ff 35 00 00 00 00 	pushl  %fs:0x0
10001a60:	8b 44 24 10          	mov    0x10(%esp),%eax
10001a64:	89 6c 24 10          	mov    %ebp,0x10(%esp)
10001a68:	8d 6c 24 10          	lea    0x10(%esp),%ebp
10001a6c:	2b e0                	sub    %eax,%esp
10001a6e:	53                   	push   %ebx
10001a6f:	56                   	push   %esi
10001a70:	57                   	push   %edi
10001a71:	a1 04 50 00 10       	mov    0x10005004,%eax
10001a76:	31 45 fc             	xor    %eax,-0x4(%ebp)
10001a79:	33 c5                	xor    %ebp,%eax
10001a7b:	50                   	push   %eax
10001a7c:	89 65 e8             	mov    %esp,-0x18(%ebp)
10001a7f:	ff 75 f8             	pushl  -0x8(%ebp)
10001a82:	8b 45 fc             	mov    -0x4(%ebp),%eax
10001a85:	c7 45 fc fe ff ff ff 	movl   $0xfffffffe,-0x4(%ebp)
10001a8c:	89 45 f8             	mov    %eax,-0x8(%ebp)
10001a8f:	8d 45 f0             	lea    -0x10(%ebp),%eax
10001a92:	64 a3 00 00 00 00    	mov    %eax,%fs:0x0
10001a98:	c3                   	ret    
10001a99:	8b 4d f0             	mov    -0x10(%ebp),%ecx
10001a9c:	64 89 0d 00 00 00 00 	mov    %ecx,%fs:0x0
10001aa3:	59                   	pop    %ecx
10001aa4:	5f                   	pop    %edi
10001aa5:	5f                   	pop    %edi
10001aa6:	5e                   	pop    %esi
10001aa7:	5b                   	pop    %ebx
10001aa8:	8b e5                	mov    %ebp,%esp
10001aaa:	5d                   	pop    %ebp
10001aab:	51                   	push   %ecx
10001aac:	c3                   	ret    
10001aad:	8b ff                	mov    %edi,%edi
10001aaf:	55                   	push   %ebp
10001ab0:	8b ec                	mov    %esp,%ebp
10001ab2:	ff 75 14             	pushl  0x14(%ebp)
10001ab5:	ff 75 10             	pushl  0x10(%ebp)
10001ab8:	ff 75 0c             	pushl  0xc(%ebp)
10001abb:	ff 75 08             	pushl  0x8(%ebp)
10001abe:	68 00 10 00 10       	push   $0x10001000
10001ac3:	68 04 50 00 10       	push   $0x10005004
10001ac8:	e8 c3 f6 ff ff       	call   0x10001190
10001acd:	83 c4 18             	add    $0x18,%esp
10001ad0:	5d                   	pop    %ebp
10001ad1:	c3                   	ret    
10001ad2:	8b ff                	mov    %edi,%edi
10001ad4:	55                   	push   %ebp
10001ad5:	8b ec                	mov    %esp,%ebp
10001ad7:	83 ec 10             	sub    $0x10,%esp
10001ada:	a1 04 50 00 10       	mov    0x10005004,%eax
10001adf:	83 65 f8 00          	andl   $0x0,-0x8(%ebp)
10001ae3:	83 65 fc 00          	andl   $0x0,-0x4(%ebp)
10001ae7:	53                   	push   %ebx
10001ae8:	57                   	push   %edi
10001ae9:	bf 4e e6 40 bb       	mov    $0xbb40e64e,%edi
10001aee:	bb 00 00 ff ff       	mov    $0xffff0000,%ebx
10001af3:	3b c7                	cmp    %edi,%eax
10001af5:	74 0d                	je     0x10001b04
10001af7:	85 c3                	test   %eax,%ebx
10001af9:	74 09                	je     0x10001b04
10001afb:	f7 d0                	not    %eax
10001afd:	a3 08 50 00 10       	mov    %eax,0x10005008
10001b02:	eb 5b                	jmp    0x10001b5f
10001b04:	56                   	push   %esi
10001b05:	8d 45 f8             	lea    -0x8(%ebp),%eax
10001b08:	50                   	push   %eax
10001b09:	ff 15 28 58 00 10    	call   *0x10005828
10001b0f:	8b 75 fc             	mov    -0x4(%ebp),%esi
10001b12:	33 75 f8             	xor    -0x8(%ebp),%esi
10001b15:	ff 15 04 55 00 10    	call   *0x10005504
10001b1b:	33 f0                	xor    %eax,%esi
10001b1d:	ff 15 73 55 00 10    	call   *0x10005573
10001b23:	33 f0                	xor    %eax,%esi
10001b25:	ff 15 fd 57 00 10    	call   *0x100057fd
10001b2b:	33 f0                	xor    %eax,%esi
10001b2d:	8d 45 f0             	lea    -0x10(%ebp),%eax
10001b30:	50                   	push   %eax
10001b31:	ff 15 e8 57 00 10    	call   *0x100057e8
10001b37:	8b 45 f4             	mov    -0xc(%ebp),%eax
10001b3a:	33 45 f0             	xor    -0x10(%ebp),%eax
10001b3d:	33 f0                	xor    %eax,%esi
10001b3f:	3b f7                	cmp    %edi,%esi
10001b41:	74 08                	je     0x10001b4b
10001b43:	85 1d 04 50 00 10    	test   %ebx,0x10005004
10001b49:	75 05                	jne    0x10001b50
10001b4b:	be 4f e6 40 bb       	mov    $0xbb40e64f,%esi
10001b50:	89 35 04 50 00 10    	mov    %esi,0x10005004
10001b56:	f7 d6                	not    %esi
10001b58:	89 35 08 50 00 10    	mov    %esi,0x10005008
10001b5e:	5e                   	pop    %esi
10001b5f:	5f                   	pop    %edi
10001b60:	5b                   	pop    %ebx
10001b61:	c9                   	leave  
10001b62:	c3                   	ret    
10001b63:	cc                   	int3   
10001b64:	cc                   	int3   
10001b65:	cc                   	int3   
10001b66:	cc                   	int3   
10001b67:	cc                   	int3   
10001b68:	cc                   	int3   
10001b69:	cc                   	int3   
10001b6a:	cc                   	int3   
10001b6b:	cc                   	int3   
10001b6c:	cc                   	int3   
10001b6d:	cc                   	int3   
10001b6e:	cc                   	int3   
10001b6f:	cc                   	int3   
10001b70:	68 30 58 00 10       	push   $0x10005830
10001b75:	e8 64 1c 00 00       	call   0x100037de
10001b7a:	85 c0                	test   %eax,%eax
10001b7c:	75 0a                	jne    0x10001b88
10001b7e:	68 30 58 00 10       	push   $0x10005830
10001b83:	e8 50 1c 00 00       	call   0x100037d8
10001b88:	68 20 53 00 10       	push   $0x10005320
10001b8d:	50                   	push   %eax
10001b8e:	e8 39 1c 00 00       	call   0x100037cc
10001b93:	ff e0                	jmp    *%eax
10001b95:	8d 49 00             	lea    0x0(%ecx),%ecx
10001b98:	cc                   	int3   
10001b99:	cc                   	int3   
10001b9a:	cc                   	int3   
10001b9b:	cc                   	int3   
10001b9c:	cc                   	int3   
10001b9d:	cc                   	int3   
10001b9e:	cc                   	int3   
10001b9f:	cc                   	int3   
10001ba0:	68 30 58 00 10       	push   $0x10005830
10001ba5:	e8 34 1c 00 00       	call   0x100037de
10001baa:	85 c0                	test   %eax,%eax
10001bac:	75 0a                	jne    0x10001bb8
10001bae:	68 30 58 00 10       	push   $0x10005830
10001bb3:	e8 20 1c 00 00       	call   0x100037d8
10001bb8:	68 30 53 00 10       	push   $0x10005330
10001bbd:	50                   	push   %eax
10001bbe:	e8 09 1c 00 00       	call   0x100037cc
10001bc3:	ff e0                	jmp    *%eax
10001bc5:	8d 49 00             	lea    0x0(%ecx),%ecx
10001bc8:	cc                   	int3   
10001bc9:	cc                   	int3   
10001bca:	cc                   	int3   
10001bcb:	cc                   	int3   
10001bcc:	cc                   	int3   
10001bcd:	cc                   	int3   
10001bce:	cc                   	int3   
10001bcf:	cc                   	int3   
10001bd0:	68 30 58 00 10       	push   $0x10005830
10001bd5:	e8 04 1c 00 00       	call   0x100037de
10001bda:	85 c0                	test   %eax,%eax
10001bdc:	75 0a                	jne    0x10001be8
10001bde:	68 30 58 00 10       	push   $0x10005830
10001be3:	e8 f0 1b 00 00       	call   0x100037d8
10001be8:	68 40 53 00 10       	push   $0x10005340
10001bed:	50                   	push   %eax
10001bee:	e8 d9 1b 00 00       	call   0x100037cc
10001bf3:	ff e0                	jmp    *%eax
10001bf5:	8d 49 00             	lea    0x0(%ecx),%ecx
10001bf8:	cc                   	int3   
10001bf9:	cc                   	int3   
10001bfa:	cc                   	int3   
10001bfb:	cc                   	int3   
10001bfc:	cc                   	int3   
10001bfd:	cc                   	int3   
10001bfe:	cc                   	int3   
10001bff:	cc                   	int3   
10001c00:	68 30 58 00 10       	push   $0x10005830
10001c05:	e8 d4 1b 00 00       	call   0x100037de
10001c0a:	85 c0                	test   %eax,%eax
10001c0c:	75 0a                	jne    0x10001c18
10001c0e:	68 30 58 00 10       	push   $0x10005830
10001c13:	e8 c0 1b 00 00       	call   0x100037d8
10001c18:	68 60 53 00 10       	push   $0x10005360
10001c1d:	50                   	push   %eax
10001c1e:	e8 a9 1b 00 00       	call   0x100037cc
10001c23:	ff e0                	jmp    *%eax
10001c25:	8d 49 00             	lea    0x0(%ecx),%ecx
10001c28:	cc                   	int3   
10001c29:	cc                   	int3   
10001c2a:	cc                   	int3   
10001c2b:	cc                   	int3   
10001c2c:	cc                   	int3   
10001c2d:	cc                   	int3   
10001c2e:	cc                   	int3   
10001c2f:	cc                   	int3   
10001c30:	68 30 58 00 10       	push   $0x10005830
10001c35:	e8 a4 1b 00 00       	call   0x100037de
10001c3a:	85 c0                	test   %eax,%eax
10001c3c:	75 0a                	jne    0x10001c48
10001c3e:	68 30 58 00 10       	push   $0x10005830
10001c43:	e8 90 1b 00 00       	call   0x100037d8
10001c48:	68 80 53 00 10       	push   $0x10005380
10001c4d:	50                   	push   %eax
10001c4e:	e8 79 1b 00 00       	call   0x100037cc
10001c53:	ff e0                	jmp    *%eax
10001c55:	8d 49 00             	lea    0x0(%ecx),%ecx
10001c58:	cc                   	int3   
10001c59:	cc                   	int3   
10001c5a:	cc                   	int3   
10001c5b:	cc                   	int3   
10001c5c:	cc                   	int3   
10001c5d:	cc                   	int3   
10001c5e:	cc                   	int3   
10001c5f:	cc                   	int3   
10001c60:	68 30 58 00 10       	push   $0x10005830
10001c65:	e8 74 1b 00 00       	call   0x100037de
10001c6a:	85 c0                	test   %eax,%eax
10001c6c:	75 0a                	jne    0x10001c78
10001c6e:	68 30 58 00 10       	push   $0x10005830
10001c73:	e8 60 1b 00 00       	call   0x100037d8
10001c78:	68 a0 53 00 10       	push   $0x100053a0
10001c7d:	50                   	push   %eax
10001c7e:	e8 49 1b 00 00       	call   0x100037cc
10001c83:	ff e0                	jmp    *%eax
10001c85:	8d 49 00             	lea    0x0(%ecx),%ecx
10001c88:	cc                   	int3   
10001c89:	cc                   	int3   
10001c8a:	cc                   	int3   
10001c8b:	cc                   	int3   
10001c8c:	cc                   	int3   
10001c8d:	cc                   	int3   
10001c8e:	cc                   	int3   
10001c8f:	cc                   	int3   
10001c90:	68 30 58 00 10       	push   $0x10005830
10001c95:	e8 44 1b 00 00       	call   0x100037de
10001c9a:	85 c0                	test   %eax,%eax
10001c9c:	75 0a                	jne    0x10001ca8
10001c9e:	68 30 58 00 10       	push   $0x10005830
10001ca3:	e8 30 1b 00 00       	call   0x100037d8
10001ca8:	68 c0 53 00 10       	push   $0x100053c0
10001cad:	50                   	push   %eax
10001cae:	e8 19 1b 00 00       	call   0x100037cc
10001cb3:	ff e0                	jmp    *%eax
10001cb5:	8d 49 00             	lea    0x0(%ecx),%ecx
10001cb8:	cc                   	int3   
10001cb9:	cc                   	int3   
10001cba:	cc                   	int3   
10001cbb:	cc                   	int3   
10001cbc:	cc                   	int3   
10001cbd:	cc                   	int3   
10001cbe:	cc                   	int3   
10001cbf:	cc                   	int3   
10001cc0:	68 30 58 00 10       	push   $0x10005830
10001cc5:	e8 14 1b 00 00       	call   0x100037de
10001cca:	85 c0                	test   %eax,%eax
10001ccc:	75 0a                	jne    0x10001cd8
10001cce:	68 30 58 00 10       	push   $0x10005830
10001cd3:	e8 00 1b 00 00       	call   0x100037d8
10001cd8:	68 e0 53 00 10       	push   $0x100053e0
10001cdd:	50                   	push   %eax
10001cde:	e8 e9 1a 00 00       	call   0x100037cc
10001ce3:	ff e0                	jmp    *%eax
10001ce5:	8d 49 00             	lea    0x0(%ecx),%ecx
10001ce8:	cc                   	int3   
10001ce9:	cc                   	int3   
10001cea:	cc                   	int3   
10001ceb:	cc                   	int3   
10001cec:	cc                   	int3   
10001ced:	cc                   	int3   
10001cee:	cc                   	int3   
10001cef:	cc                   	int3   
10001cf0:	68 30 58 00 10       	push   $0x10005830
10001cf5:	e8 e4 1a 00 00       	call   0x100037de
10001cfa:	85 c0                	test   %eax,%eax
10001cfc:	75 0a                	jne    0x10001d08
10001cfe:	68 30 58 00 10       	push   $0x10005830
10001d03:	e8 d0 1a 00 00       	call   0x100037d8
10001d08:	68 00 54 00 10       	push   $0x10005400
10001d0d:	50                   	push   %eax
10001d0e:	e8 b9 1a 00 00       	call   0x100037cc
10001d13:	ff e0                	jmp    *%eax
10001d15:	8d 49 00             	lea    0x0(%ecx),%ecx
10001d18:	cc                   	int3   
10001d19:	cc                   	int3   
10001d1a:	cc                   	int3   
10001d1b:	cc                   	int3   
10001d1c:	cc                   	int3   
10001d1d:	cc                   	int3   
10001d1e:	cc                   	int3   
10001d1f:	cc                   	int3   
10001d20:	68 30 58 00 10       	push   $0x10005830
10001d25:	e8 b4 1a 00 00       	call   0x100037de
10001d2a:	85 c0                	test   %eax,%eax
10001d2c:	75 0a                	jne    0x10001d38
10001d2e:	68 30 58 00 10       	push   $0x10005830
10001d33:	e8 a0 1a 00 00       	call   0x100037d8
10001d38:	68 20 54 00 10       	push   $0x10005420
10001d3d:	50                   	push   %eax
10001d3e:	e8 89 1a 00 00       	call   0x100037cc
10001d43:	ff e0                	jmp    *%eax
10001d45:	8d 49 00             	lea    0x0(%ecx),%ecx
10001d48:	cc                   	int3   
10001d49:	cc                   	int3   
10001d4a:	cc                   	int3   
10001d4b:	cc                   	int3   
10001d4c:	cc                   	int3   
10001d4d:	cc                   	int3   
10001d4e:	cc                   	int3   
10001d4f:	cc                   	int3   
10001d50:	68 30 58 00 10       	push   $0x10005830
10001d55:	e8 84 1a 00 00       	call   0x100037de
10001d5a:	85 c0                	test   %eax,%eax
10001d5c:	75 0a                	jne    0x10001d68
10001d5e:	68 30 58 00 10       	push   $0x10005830
10001d63:	e8 70 1a 00 00       	call   0x100037d8
10001d68:	68 40 54 00 10       	push   $0x10005440
10001d6d:	50                   	push   %eax
10001d6e:	e8 59 1a 00 00       	call   0x100037cc
10001d73:	ff e0                	jmp    *%eax
10001d75:	8d 49 00             	lea    0x0(%ecx),%ecx
10001d78:	cc                   	int3   
10001d79:	cc                   	int3   
10001d7a:	cc                   	int3   
10001d7b:	cc                   	int3   
10001d7c:	cc                   	int3   
10001d7d:	cc                   	int3   
10001d7e:	cc                   	int3   
10001d7f:	cc                   	int3   
10001d80:	68 30 58 00 10       	push   $0x10005830
10001d85:	e8 54 1a 00 00       	call   0x100037de
10001d8a:	85 c0                	test   %eax,%eax
10001d8c:	75 0a                	jne    0x10001d98
10001d8e:	68 30 58 00 10       	push   $0x10005830
10001d93:	e8 40 1a 00 00       	call   0x100037d8
10001d98:	68 60 54 00 10       	push   $0x10005460
10001d9d:	50                   	push   %eax
10001d9e:	e8 29 1a 00 00       	call   0x100037cc
10001da3:	ff e0                	jmp    *%eax
10001da5:	8d 49 00             	lea    0x0(%ecx),%ecx
10001da8:	cc                   	int3   
10001da9:	cc                   	int3   
10001daa:	cc                   	int3   
10001dab:	cc                   	int3   
10001dac:	cc                   	int3   
10001dad:	cc                   	int3   
10001dae:	cc                   	int3   
10001daf:	cc                   	int3   
10001db0:	68 30 58 00 10       	push   $0x10005830
10001db5:	e8 24 1a 00 00       	call   0x100037de
10001dba:	85 c0                	test   %eax,%eax
10001dbc:	75 0a                	jne    0x10001dc8
10001dbe:	68 30 58 00 10       	push   $0x10005830
10001dc3:	e8 10 1a 00 00       	call   0x100037d8
10001dc8:	68 80 54 00 10       	push   $0x10005480
10001dcd:	50                   	push   %eax
10001dce:	e8 f9 19 00 00       	call   0x100037cc
10001dd3:	ff e0                	jmp    *%eax
10001dd5:	8d 49 00             	lea    0x0(%ecx),%ecx
10001dd8:	cc                   	int3   
10001dd9:	cc                   	int3   
10001dda:	cc                   	int3   
10001ddb:	cc                   	int3   
10001ddc:	cc                   	int3   
10001ddd:	cc                   	int3   
10001dde:	cc                   	int3   
10001ddf:	cc                   	int3   
10001de0:	68 30 58 00 10       	push   $0x10005830
10001de5:	e8 f4 19 00 00       	call   0x100037de
10001dea:	85 c0                	test   %eax,%eax
10001dec:	75 0a                	jne    0x10001df8
10001dee:	68 30 58 00 10       	push   $0x10005830
10001df3:	e8 e0 19 00 00       	call   0x100037d8
10001df8:	68 90 54 00 10       	push   $0x10005490
10001dfd:	50                   	push   %eax
10001dfe:	e8 c9 19 00 00       	call   0x100037cc
10001e03:	ff e0                	jmp    *%eax
10001e05:	8d 49 00             	lea    0x0(%ecx),%ecx
10001e08:	cc                   	int3   
10001e09:	cc                   	int3   
10001e0a:	cc                   	int3   
10001e0b:	cc                   	int3   
10001e0c:	cc                   	int3   
10001e0d:	cc                   	int3   
10001e0e:	cc                   	int3   
10001e0f:	cc                   	int3   
10001e10:	68 30 58 00 10       	push   $0x10005830
10001e15:	e8 c4 19 00 00       	call   0x100037de
10001e1a:	85 c0                	test   %eax,%eax
10001e1c:	75 0a                	jne    0x10001e28
10001e1e:	68 30 58 00 10       	push   $0x10005830
10001e23:	e8 b0 19 00 00       	call   0x100037d8
10001e28:	68 a0 54 00 10       	push   $0x100054a0
10001e2d:	50                   	push   %eax
10001e2e:	e8 99 19 00 00       	call   0x100037cc
10001e33:	ff e0                	jmp    *%eax
10001e35:	8d 49 00             	lea    0x0(%ecx),%ecx
10001e38:	cc                   	int3   
10001e39:	cc                   	int3   
10001e3a:	cc                   	int3   
10001e3b:	cc                   	int3   
10001e3c:	cc                   	int3   
10001e3d:	cc                   	int3   
10001e3e:	cc                   	int3   
10001e3f:	cc                   	int3   
10001e40:	68 30 58 00 10       	push   $0x10005830
10001e45:	e8 94 19 00 00       	call   0x100037de
10001e4a:	85 c0                	test   %eax,%eax
10001e4c:	75 0a                	jne    0x10001e58
10001e4e:	68 30 58 00 10       	push   $0x10005830
10001e53:	e8 80 19 00 00       	call   0x100037d8
10001e58:	68 c0 54 00 10       	push   $0x100054c0
10001e5d:	50                   	push   %eax
10001e5e:	e8 69 19 00 00       	call   0x100037cc
10001e63:	ff e0                	jmp    *%eax
10001e65:	8d 49 00             	lea    0x0(%ecx),%ecx
10001e68:	cc                   	int3   
10001e69:	cc                   	int3   
10001e6a:	cc                   	int3   
10001e6b:	cc                   	int3   
10001e6c:	cc                   	int3   
10001e6d:	cc                   	int3   
10001e6e:	cc                   	int3   
10001e6f:	cc                   	int3   
10001e70:	68 30 58 00 10       	push   $0x10005830
10001e75:	e8 64 19 00 00       	call   0x100037de
10001e7a:	85 c0                	test   %eax,%eax
10001e7c:	75 0a                	jne    0x10001e88
10001e7e:	68 30 58 00 10       	push   $0x10005830
10001e83:	e8 50 19 00 00       	call   0x100037d8
10001e88:	68 e0 54 00 10       	push   $0x100054e0
10001e8d:	50                   	push   %eax
10001e8e:	e8 39 19 00 00       	call   0x100037cc
10001e93:	ff e0                	jmp    *%eax
10001e95:	8d 49 00             	lea    0x0(%ecx),%ecx
10001e98:	cc                   	int3   
10001e99:	cc                   	int3   
10001e9a:	cc                   	int3   
10001e9b:	cc                   	int3   
10001e9c:	cc                   	int3   
10001e9d:	cc                   	int3   
10001e9e:	cc                   	int3   
10001e9f:	cc                   	int3   
10001ea0:	68 30 58 00 10       	push   $0x10005830
10001ea5:	e8 34 19 00 00       	call   0x100037de
10001eaa:	85 c0                	test   %eax,%eax
10001eac:	75 0a                	jne    0x10001eb8
10001eae:	68 30 58 00 10       	push   $0x10005830
10001eb3:	e8 20 19 00 00       	call   0x100037d8
10001eb8:	68 f0 54 00 10       	push   $0x100054f0
10001ebd:	50                   	push   %eax
10001ebe:	e8 09 19 00 00       	call   0x100037cc
10001ec3:	ff e0                	jmp    *%eax
10001ec5:	8d 49 00             	lea    0x0(%ecx),%ecx
10001ec8:	cc                   	int3   
10001ec9:	cc                   	int3   
10001eca:	cc                   	int3   
10001ecb:	cc                   	int3   
10001ecc:	cc                   	int3   
10001ecd:	cc                   	int3   
10001ece:	cc                   	int3   
10001ecf:	cc                   	int3   
10001ed0:	68 30 58 00 10       	push   $0x10005830
10001ed5:	e8 04 19 00 00       	call   0x100037de
10001eda:	85 c0                	test   %eax,%eax
10001edc:	75 0a                	jne    0x10001ee8
10001ede:	68 30 58 00 10       	push   $0x10005830
10001ee3:	e8 f0 18 00 00       	call   0x100037d8
10001ee8:	68 10 55 00 10       	push   $0x10005510
10001eed:	50                   	push   %eax
10001eee:	e8 d9 18 00 00       	call   0x100037cc
10001ef3:	ff e0                	jmp    *%eax
10001ef5:	8d 49 00             	lea    0x0(%ecx),%ecx
10001ef8:	cc                   	int3   
10001ef9:	cc                   	int3   
10001efa:	cc                   	int3   
10001efb:	cc                   	int3   
10001efc:	cc                   	int3   
10001efd:	cc                   	int3   
10001efe:	cc                   	int3   
10001eff:	cc                   	int3   
10001f00:	68 30 58 00 10       	push   $0x10005830
10001f05:	e8 d4 18 00 00       	call   0x100037de
10001f0a:	85 c0                	test   %eax,%eax
10001f0c:	75 0a                	jne    0x10001f18
10001f0e:	68 30 58 00 10       	push   $0x10005830
10001f13:	e8 c0 18 00 00       	call   0x100037d8
10001f18:	68 20 55 00 10       	push   $0x10005520
10001f1d:	50                   	push   %eax
10001f1e:	e8 a9 18 00 00       	call   0x100037cc
10001f23:	ff e0                	jmp    *%eax
10001f25:	8d 49 00             	lea    0x0(%ecx),%ecx
10001f28:	cc                   	int3   
10001f29:	cc                   	int3   
10001f2a:	cc                   	int3   
10001f2b:	cc                   	int3   
10001f2c:	cc                   	int3   
10001f2d:	cc                   	int3   
10001f2e:	cc                   	int3   
10001f2f:	cc                   	int3   
10001f30:	68 30 58 00 10       	push   $0x10005830
10001f35:	e8 a4 18 00 00       	call   0x100037de
10001f3a:	85 c0                	test   %eax,%eax
10001f3c:	75 0a                	jne    0x10001f48
10001f3e:	68 30 58 00 10       	push   $0x10005830
10001f43:	e8 90 18 00 00       	call   0x100037d8
10001f48:	68 30 55 00 10       	push   $0x10005530
10001f4d:	50                   	push   %eax
10001f4e:	e8 79 18 00 00       	call   0x100037cc
10001f53:	ff e0                	jmp    *%eax
10001f55:	8d 49 00             	lea    0x0(%ecx),%ecx
10001f58:	cc                   	int3   
10001f59:	cc                   	int3   
10001f5a:	cc                   	int3   
10001f5b:	cc                   	int3   
10001f5c:	cc                   	int3   
10001f5d:	cc                   	int3   
10001f5e:	cc                   	int3   
10001f5f:	cc                   	int3   
10001f60:	68 30 58 00 10       	push   $0x10005830
10001f65:	e8 74 18 00 00       	call   0x100037de
10001f6a:	85 c0                	test   %eax,%eax
10001f6c:	75 0a                	jne    0x10001f78
10001f6e:	68 30 58 00 10       	push   $0x10005830
10001f73:	e8 60 18 00 00       	call   0x100037d8
10001f78:	68 40 55 00 10       	push   $0x10005540
10001f7d:	50                   	push   %eax
10001f7e:	e8 49 18 00 00       	call   0x100037cc
10001f83:	ff e0                	jmp    *%eax
10001f85:	8d 49 00             	lea    0x0(%ecx),%ecx
10001f88:	cc                   	int3   
10001f89:	cc                   	int3   
10001f8a:	cc                   	int3   
10001f8b:	cc                   	int3   
10001f8c:	cc                   	int3   
10001f8d:	cc                   	int3   
10001f8e:	cc                   	int3   
10001f8f:	cc                   	int3   
10001f90:	68 30 58 00 10       	push   $0x10005830
10001f95:	e8 44 18 00 00       	call   0x100037de
10001f9a:	85 c0                	test   %eax,%eax
10001f9c:	75 0a                	jne    0x10001fa8
10001f9e:	68 30 58 00 10       	push   $0x10005830
10001fa3:	e8 30 18 00 00       	call   0x100037d8
10001fa8:	68 50 55 00 10       	push   $0x10005550
10001fad:	50                   	push   %eax
10001fae:	e8 19 18 00 00       	call   0x100037cc
10001fb3:	ff e0                	jmp    *%eax
10001fb5:	8d 49 00             	lea    0x0(%ecx),%ecx
10001fb8:	cc                   	int3   
10001fb9:	cc                   	int3   
10001fba:	cc                   	int3   
10001fbb:	cc                   	int3   
10001fbc:	cc                   	int3   
10001fbd:	cc                   	int3   
10001fbe:	cc                   	int3   
10001fbf:	cc                   	int3   
10001fc0:	68 30 58 00 10       	push   $0x10005830
10001fc5:	e8 14 18 00 00       	call   0x100037de
10001fca:	85 c0                	test   %eax,%eax
10001fcc:	75 0a                	jne    0x10001fd8
10001fce:	68 30 58 00 10       	push   $0x10005830
10001fd3:	e8 00 18 00 00       	call   0x100037d8
10001fd8:	68 60 55 00 10       	push   $0x10005560
10001fdd:	50                   	push   %eax
10001fde:	e8 e9 17 00 00       	call   0x100037cc
10001fe3:	ff e0                	jmp    *%eax
10001fe5:	8d 49 00             	lea    0x0(%ecx),%ecx
10001fe8:	cc                   	int3   
10001fe9:	cc                   	int3   
10001fea:	cc                   	int3   
10001feb:	cc                   	int3   
10001fec:	cc                   	int3   
10001fed:	cc                   	int3   
10001fee:	cc                   	int3   
10001fef:	cc                   	int3   
10001ff0:	cc                   	int3   
10001ff1:	cc                   	int3   
10001ff2:	cc                   	int3   
10001ff3:	cc                   	int3   
10001ff4:	cc                   	int3   
10001ff5:	cc                   	int3   
10001ff6:	cc                   	int3   
10001ff7:	cc                   	int3   
10001ff8:	cc                   	int3   
10001ff9:	cc                   	int3   
10001ffa:	cc                   	int3   
10001ffb:	cc                   	int3   
10001ffc:	cc                   	int3   
10001ffd:	cc                   	int3   
10001ffe:	cc                   	int3   
10001fff:	cc                   	int3   
10002000:	68 40 58 00 10       	push   $0x10005840
10002005:	e8 d4 17 00 00       	call   0x100037de
1000200a:	85 c0                	test   %eax,%eax
1000200c:	75 0a                	jne    0x10002018
1000200e:	68 40 58 00 10       	push   $0x10005840
10002013:	e8 c0 17 00 00       	call   0x100037d8
10002018:	68 80 55 00 10       	push   $0x10005580
1000201d:	50                   	push   %eax
1000201e:	e8 a9 17 00 00       	call   0x100037cc
10002023:	ff e0                	jmp    *%eax
10002025:	8d 49 00             	lea    0x0(%ecx),%ecx
10002028:	cc                   	int3   
10002029:	cc                   	int3   
1000202a:	cc                   	int3   
1000202b:	cc                   	int3   
1000202c:	cc                   	int3   
1000202d:	cc                   	int3   
1000202e:	cc                   	int3   
1000202f:	cc                   	int3   
10002030:	68 30 58 00 10       	push   $0x10005830
10002035:	e8 a4 17 00 00       	call   0x100037de
1000203a:	85 c0                	test   %eax,%eax
1000203c:	75 0a                	jne    0x10002048
1000203e:	68 30 58 00 10       	push   $0x10005830
10002043:	e8 90 17 00 00       	call   0x100037d8
10002048:	68 90 55 00 10       	push   $0x10005590
1000204d:	50                   	push   %eax
1000204e:	e8 79 17 00 00       	call   0x100037cc
10002053:	ff e0                	jmp    *%eax
10002055:	8d 49 00             	lea    0x0(%ecx),%ecx
10002058:	cc                   	int3   
10002059:	cc                   	int3   
1000205a:	cc                   	int3   
1000205b:	cc                   	int3   
1000205c:	cc                   	int3   
1000205d:	cc                   	int3   
1000205e:	cc                   	int3   
1000205f:	cc                   	int3   
10002060:	68 30 58 00 10       	push   $0x10005830
10002065:	e8 74 17 00 00       	call   0x100037de
1000206a:	85 c0                	test   %eax,%eax
1000206c:	75 0a                	jne    0x10002078
1000206e:	68 30 58 00 10       	push   $0x10005830
10002073:	e8 60 17 00 00       	call   0x100037d8
10002078:	68 b0 55 00 10       	push   $0x100055b0
1000207d:	50                   	push   %eax
1000207e:	e8 49 17 00 00       	call   0x100037cc
10002083:	ff e0                	jmp    *%eax
10002085:	8d 49 00             	lea    0x0(%ecx),%ecx
10002088:	cc                   	int3   
10002089:	cc                   	int3   
1000208a:	cc                   	int3   
1000208b:	cc                   	int3   
1000208c:	cc                   	int3   
1000208d:	cc                   	int3   
1000208e:	cc                   	int3   
1000208f:	cc                   	int3   
10002090:	68 30 58 00 10       	push   $0x10005830
10002095:	e8 44 17 00 00       	call   0x100037de
1000209a:	85 c0                	test   %eax,%eax
1000209c:	75 0a                	jne    0x100020a8
1000209e:	68 30 58 00 10       	push   $0x10005830
100020a3:	e8 30 17 00 00       	call   0x100037d8
100020a8:	68 c0 55 00 10       	push   $0x100055c0
100020ad:	50                   	push   %eax
100020ae:	e8 19 17 00 00       	call   0x100037cc
100020b3:	ff e0                	jmp    *%eax
100020b5:	8d 49 00             	lea    0x0(%ecx),%ecx
100020b8:	cc                   	int3   
100020b9:	cc                   	int3   
100020ba:	cc                   	int3   
100020bb:	cc                   	int3   
100020bc:	cc                   	int3   
100020bd:	cc                   	int3   
100020be:	cc                   	int3   
100020bf:	cc                   	int3   
100020c0:	68 30 58 00 10       	push   $0x10005830
100020c5:	e8 14 17 00 00       	call   0x100037de
100020ca:	85 c0                	test   %eax,%eax
100020cc:	75 0a                	jne    0x100020d8
100020ce:	68 30 58 00 10       	push   $0x10005830
100020d3:	e8 00 17 00 00       	call   0x100037d8
100020d8:	68 e0 55 00 10       	push   $0x100055e0
100020dd:	50                   	push   %eax
100020de:	e8 e9 16 00 00       	call   0x100037cc
100020e3:	ff e0                	jmp    *%eax
100020e5:	8d 49 00             	lea    0x0(%ecx),%ecx
100020e8:	cc                   	int3   
100020e9:	cc                   	int3   
100020ea:	cc                   	int3   
100020eb:	cc                   	int3   
100020ec:	cc                   	int3   
100020ed:	cc                   	int3   
100020ee:	cc                   	int3   
100020ef:	cc                   	int3   
100020f0:	68 40 58 00 10       	push   $0x10005840
100020f5:	e8 e4 16 00 00       	call   0x100037de
100020fa:	85 c0                	test   %eax,%eax
100020fc:	75 0a                	jne    0x10002108
100020fe:	68 40 58 00 10       	push   $0x10005840
10002103:	e8 d0 16 00 00       	call   0x100037d8
10002108:	68 f0 55 00 10       	push   $0x100055f0
1000210d:	50                   	push   %eax
1000210e:	e8 b9 16 00 00       	call   0x100037cc
10002113:	ff e0                	jmp    *%eax
10002115:	8d 49 00             	lea    0x0(%ecx),%ecx
10002118:	cc                   	int3   
10002119:	cc                   	int3   
1000211a:	cc                   	int3   
1000211b:	cc                   	int3   
1000211c:	cc                   	int3   
1000211d:	cc                   	int3   
1000211e:	cc                   	int3   
1000211f:	cc                   	int3   
10002120:	68 30 58 00 10       	push   $0x10005830
10002125:	e8 b4 16 00 00       	call   0x100037de
1000212a:	85 c0                	test   %eax,%eax
1000212c:	75 0a                	jne    0x10002138
1000212e:	68 30 58 00 10       	push   $0x10005830
10002133:	e8 a0 16 00 00       	call   0x100037d8
10002138:	68 00 56 00 10       	push   $0x10005600
1000213d:	50                   	push   %eax
1000213e:	e8 89 16 00 00       	call   0x100037cc
10002143:	ff e0                	jmp    *%eax
10002145:	8d 49 00             	lea    0x0(%ecx),%ecx
10002148:	cc                   	int3   
10002149:	cc                   	int3   
1000214a:	cc                   	int3   
1000214b:	cc                   	int3   
1000214c:	cc                   	int3   
1000214d:	cc                   	int3   
1000214e:	cc                   	int3   
1000214f:	cc                   	int3   
10002150:	68 30 58 00 10       	push   $0x10005830
10002155:	e8 84 16 00 00       	call   0x100037de
1000215a:	85 c0                	test   %eax,%eax
1000215c:	75 0a                	jne    0x10002168
1000215e:	68 30 58 00 10       	push   $0x10005830
10002163:	e8 70 16 00 00       	call   0x100037d8
10002168:	68 10 56 00 10       	push   $0x10005610
1000216d:	50                   	push   %eax
1000216e:	e8 59 16 00 00       	call   0x100037cc
10002173:	ff e0                	jmp    *%eax
10002175:	8d 49 00             	lea    0x0(%ecx),%ecx
10002178:	cc                   	int3   
10002179:	cc                   	int3   
1000217a:	cc                   	int3   
1000217b:	cc                   	int3   
1000217c:	cc                   	int3   
1000217d:	cc                   	int3   
1000217e:	cc                   	int3   
1000217f:	cc                   	int3   
10002180:	68 30 58 00 10       	push   $0x10005830
10002185:	e8 54 16 00 00       	call   0x100037de
1000218a:	85 c0                	test   %eax,%eax
1000218c:	75 0a                	jne    0x10002198
1000218e:	68 30 58 00 10       	push   $0x10005830
10002193:	e8 40 16 00 00       	call   0x100037d8
10002198:	68 30 56 00 10       	push   $0x10005630
1000219d:	50                   	push   %eax
1000219e:	e8 29 16 00 00       	call   0x100037cc
100021a3:	ff e0                	jmp    *%eax
100021a5:	8d 49 00             	lea    0x0(%ecx),%ecx
100021a8:	cc                   	int3   
100021a9:	cc                   	int3   
100021aa:	cc                   	int3   
100021ab:	cc                   	int3   
100021ac:	cc                   	int3   
100021ad:	cc                   	int3   
100021ae:	cc                   	int3   
100021af:	cc                   	int3   
100021b0:	68 30 58 00 10       	push   $0x10005830
100021b5:	e8 24 16 00 00       	call   0x100037de
100021ba:	85 c0                	test   %eax,%eax
100021bc:	75 0a                	jne    0x100021c8
100021be:	68 30 58 00 10       	push   $0x10005830
100021c3:	e8 10 16 00 00       	call   0x100037d8
100021c8:	68 40 56 00 10       	push   $0x10005640
100021cd:	50                   	push   %eax
100021ce:	e8 f9 15 00 00       	call   0x100037cc
100021d3:	ff e0                	jmp    *%eax
100021d5:	8d 49 00             	lea    0x0(%ecx),%ecx
100021d8:	cc                   	int3   
100021d9:	cc                   	int3   
100021da:	cc                   	int3   
100021db:	cc                   	int3   
100021dc:	cc                   	int3   
100021dd:	cc                   	int3   
100021de:	cc                   	int3   
100021df:	cc                   	int3   
100021e0:	68 50 58 00 10       	push   $0x10005850
100021e5:	e8 f4 15 00 00       	call   0x100037de
100021ea:	85 c0                	test   %eax,%eax
100021ec:	75 0a                	jne    0x100021f8
100021ee:	68 50 58 00 10       	push   $0x10005850
100021f3:	e8 e0 15 00 00       	call   0x100037d8
100021f8:	68 50 56 00 10       	push   $0x10005650
100021fd:	50                   	push   %eax
100021fe:	e8 c9 15 00 00       	call   0x100037cc
10002203:	ff e0                	jmp    *%eax
10002205:	8d 49 00             	lea    0x0(%ecx),%ecx
10002208:	cc                   	int3   
10002209:	cc                   	int3   
1000220a:	cc                   	int3   
1000220b:	cc                   	int3   
1000220c:	cc                   	int3   
1000220d:	cc                   	int3   
1000220e:	cc                   	int3   
1000220f:	cc                   	int3   
10002210:	68 50 58 00 10       	push   $0x10005850
10002215:	e8 c4 15 00 00       	call   0x100037de
1000221a:	85 c0                	test   %eax,%eax
1000221c:	75 0a                	jne    0x10002228
1000221e:	68 50 58 00 10       	push   $0x10005850
10002223:	e8 b0 15 00 00       	call   0x100037d8
10002228:	68 80 56 00 10       	push   $0x10005680
1000222d:	50                   	push   %eax
1000222e:	e8 99 15 00 00       	call   0x100037cc
10002233:	ff e0                	jmp    *%eax
10002235:	8d 49 00             	lea    0x0(%ecx),%ecx
10002238:	cc                   	int3   
10002239:	cc                   	int3   
1000223a:	cc                   	int3   
1000223b:	cc                   	int3   
1000223c:	cc                   	int3   
1000223d:	cc                   	int3   
1000223e:	cc                   	int3   
1000223f:	cc                   	int3   
10002240:	68 50 58 00 10       	push   $0x10005850
10002245:	e8 94 15 00 00       	call   0x100037de
1000224a:	85 c0                	test   %eax,%eax
1000224c:	75 0a                	jne    0x10002258
1000224e:	68 50 58 00 10       	push   $0x10005850
10002253:	e8 80 15 00 00       	call   0x100037d8
10002258:	68 a0 56 00 10       	push   $0x100056a0
1000225d:	50                   	push   %eax
1000225e:	e8 69 15 00 00       	call   0x100037cc
10002263:	ff e0                	jmp    *%eax
10002265:	8d 49 00             	lea    0x0(%ecx),%ecx
10002268:	cc                   	int3   
10002269:	cc                   	int3   
1000226a:	cc                   	int3   
1000226b:	cc                   	int3   
1000226c:	cc                   	int3   
1000226d:	cc                   	int3   
1000226e:	cc                   	int3   
1000226f:	cc                   	int3   
10002270:	68 50 58 00 10       	push   $0x10005850
10002275:	e8 64 15 00 00       	call   0x100037de
1000227a:	85 c0                	test   %eax,%eax
1000227c:	75 0a                	jne    0x10002288
1000227e:	68 50 58 00 10       	push   $0x10005850
10002283:	e8 50 15 00 00       	call   0x100037d8
10002288:	68 e0 56 00 10       	push   $0x100056e0
1000228d:	50                   	push   %eax
1000228e:	e8 39 15 00 00       	call   0x100037cc
10002293:	ff e0                	jmp    *%eax
10002295:	8d 49 00             	lea    0x0(%ecx),%ecx
10002298:	cc                   	int3   
10002299:	cc                   	int3   
1000229a:	cc                   	int3   
1000229b:	cc                   	int3   
1000229c:	cc                   	int3   
1000229d:	cc                   	int3   
1000229e:	cc                   	int3   
1000229f:	cc                   	int3   
100022a0:	68 50 58 00 10       	push   $0x10005850
100022a5:	e8 34 15 00 00       	call   0x100037de
100022aa:	85 c0                	test   %eax,%eax
100022ac:	75 0a                	jne    0x100022b8
100022ae:	68 50 58 00 10       	push   $0x10005850
100022b3:	e8 20 15 00 00       	call   0x100037d8
100022b8:	68 00 57 00 10       	push   $0x10005700
100022bd:	50                   	push   %eax
100022be:	e8 09 15 00 00       	call   0x100037cc
100022c3:	ff e0                	jmp    *%eax
100022c5:	8d 49 00             	lea    0x0(%ecx),%ecx
100022c8:	cc                   	int3   
100022c9:	cc                   	int3   
100022ca:	cc                   	int3   
100022cb:	cc                   	int3   
100022cc:	cc                   	int3   
100022cd:	cc                   	int3   
100022ce:	cc                   	int3   
100022cf:	cc                   	int3   
100022d0:	68 30 58 00 10       	push   $0x10005830
100022d5:	e8 04 15 00 00       	call   0x100037de
100022da:	85 c0                	test   %eax,%eax
100022dc:	75 0a                	jne    0x100022e8
100022de:	68 30 58 00 10       	push   $0x10005830
100022e3:	e8 f0 14 00 00       	call   0x100037d8
100022e8:	68 20 57 00 10       	push   $0x10005720
100022ed:	50                   	push   %eax
100022ee:	e8 d9 14 00 00       	call   0x100037cc
100022f3:	ff e0                	jmp    *%eax
100022f5:	8d 49 00             	lea    0x0(%ecx),%ecx
100022f8:	cc                   	int3   
100022f9:	cc                   	int3   
100022fa:	cc                   	int3   
100022fb:	cc                   	int3   
100022fc:	cc                   	int3   
100022fd:	cc                   	int3   
100022fe:	cc                   	int3   
100022ff:	cc                   	int3   
10002300:	68 30 58 00 10       	push   $0x10005830
10002305:	e8 d4 14 00 00       	call   0x100037de
1000230a:	85 c0                	test   %eax,%eax
1000230c:	75 0a                	jne    0x10002318
1000230e:	68 30 58 00 10       	push   $0x10005830
10002313:	e8 c0 14 00 00       	call   0x100037d8
10002318:	68 30 57 00 10       	push   $0x10005730
1000231d:	50                   	push   %eax
1000231e:	e8 a9 14 00 00       	call   0x100037cc
10002323:	ff e0                	jmp    *%eax
10002325:	8d 49 00             	lea    0x0(%ecx),%ecx
10002328:	cc                   	int3   
10002329:	cc                   	int3   
1000232a:	cc                   	int3   
1000232b:	cc                   	int3   
1000232c:	cc                   	int3   
1000232d:	cc                   	int3   
1000232e:	cc                   	int3   
1000232f:	cc                   	int3   
10002330:	68 30 58 00 10       	push   $0x10005830
10002335:	e8 a4 14 00 00       	call   0x100037de
1000233a:	85 c0                	test   %eax,%eax
1000233c:	75 0a                	jne    0x10002348
1000233e:	68 30 58 00 10       	push   $0x10005830
10002343:	e8 90 14 00 00       	call   0x100037d8
10002348:	68 50 57 00 10       	push   $0x10005750
1000234d:	50                   	push   %eax
1000234e:	e8 79 14 00 00       	call   0x100037cc
10002353:	ff e0                	jmp    *%eax
10002355:	8d 49 00             	lea    0x0(%ecx),%ecx
10002358:	cc                   	int3   
10002359:	cc                   	int3   
1000235a:	cc                   	int3   
1000235b:	cc                   	int3   
1000235c:	cc                   	int3   
1000235d:	cc                   	int3   
1000235e:	cc                   	int3   
1000235f:	cc                   	int3   
10002360:	68 30 58 00 10       	push   $0x10005830
10002365:	e8 74 14 00 00       	call   0x100037de
1000236a:	85 c0                	test   %eax,%eax
1000236c:	75 0a                	jne    0x10002378
1000236e:	68 30 58 00 10       	push   $0x10005830
10002373:	e8 60 14 00 00       	call   0x100037d8
10002378:	68 70 57 00 10       	push   $0x10005770
1000237d:	50                   	push   %eax
1000237e:	e8 49 14 00 00       	call   0x100037cc
10002383:	ff e0                	jmp    *%eax
10002385:	8d 49 00             	lea    0x0(%ecx),%ecx
10002388:	cc                   	int3   
10002389:	cc                   	int3   
1000238a:	cc                   	int3   
1000238b:	cc                   	int3   
1000238c:	cc                   	int3   
1000238d:	cc                   	int3   
1000238e:	cc                   	int3   
1000238f:	cc                   	int3   
10002390:	68 30 58 00 10       	push   $0x10005830
10002395:	e8 44 14 00 00       	call   0x100037de
1000239a:	85 c0                	test   %eax,%eax
1000239c:	75 0a                	jne    0x100023a8
1000239e:	68 30 58 00 10       	push   $0x10005830
100023a3:	e8 30 14 00 00       	call   0x100037d8
100023a8:	68 90 57 00 10       	push   $0x10005790
100023ad:	50                   	push   %eax
100023ae:	e8 19 14 00 00       	call   0x100037cc
100023b3:	ff e0                	jmp    *%eax
100023b5:	8d 49 00             	lea    0x0(%ecx),%ecx
100023b8:	cc                   	int3   
100023b9:	cc                   	int3   
100023ba:	cc                   	int3   
100023bb:	cc                   	int3   
100023bc:	cc                   	int3   
100023bd:	cc                   	int3   
100023be:	cc                   	int3   
100023bf:	cc                   	int3   
100023c0:	68 30 58 00 10       	push   $0x10005830
100023c5:	e8 14 14 00 00       	call   0x100037de
100023ca:	85 c0                	test   %eax,%eax
100023cc:	75 0a                	jne    0x100023d8
100023ce:	68 30 58 00 10       	push   $0x10005830
100023d3:	e8 00 14 00 00       	call   0x100037d8
100023d8:	68 b0 57 00 10       	push   $0x100057b0
100023dd:	50                   	push   %eax
100023de:	e8 e9 13 00 00       	call   0x100037cc
100023e3:	ff e0                	jmp    *%eax
100023e5:	8d 49 00             	lea    0x0(%ecx),%ecx
100023e8:	cc                   	int3   
100023e9:	cc                   	int3   
100023ea:	cc                   	int3   
100023eb:	cc                   	int3   
100023ec:	cc                   	int3   
100023ed:	cc                   	int3   
100023ee:	cc                   	int3   
100023ef:	cc                   	int3   
100023f0:	68 30 58 00 10       	push   $0x10005830
100023f5:	e8 e4 13 00 00       	call   0x100037de
100023fa:	85 c0                	test   %eax,%eax
100023fc:	75 0a                	jne    0x10002408
100023fe:	68 30 58 00 10       	push   $0x10005830
10002403:	e8 d0 13 00 00       	call   0x100037d8
10002408:	68 d0 57 00 10       	push   $0x100057d0
1000240d:	50                   	push   %eax
1000240e:	e8 b9 13 00 00       	call   0x100037cc
10002413:	ff e0                	jmp    *%eax
10002415:	8d 49 00             	lea    0x0(%ecx),%ecx
10002418:	cc                   	int3   
10002419:	cc                   	int3   
1000241a:	cc                   	int3   
1000241b:	cc                   	int3   
1000241c:	cc                   	int3   
1000241d:	cc                   	int3   
1000241e:	cc                   	int3   
1000241f:	cc                   	int3   
10002420:	68 30 58 00 10       	push   $0x10005830
10002425:	e8 b4 13 00 00       	call   0x100037de
1000242a:	85 c0                	test   %eax,%eax
1000242c:	75 0a                	jne    0x10002438
1000242e:	68 30 58 00 10       	push   $0x10005830
10002433:	e8 a0 13 00 00       	call   0x100037d8
10002438:	68 f0 57 00 10       	push   $0x100057f0
1000243d:	50                   	push   %eax
1000243e:	e8 89 13 00 00       	call   0x100037cc
10002443:	ff e0                	jmp    *%eax
10002445:	8d 49 00             	lea    0x0(%ecx),%ecx
10002448:	cc                   	int3   
10002449:	cc                   	int3   
1000244a:	cc                   	int3   
1000244b:	cc                   	int3   
1000244c:	cc                   	int3   
1000244d:	cc                   	int3   
1000244e:	cc                   	int3   
1000244f:	cc                   	int3   
10002450:	68 30 58 00 10       	push   $0x10005830
10002455:	e8 84 13 00 00       	call   0x100037de
1000245a:	85 c0                	test   %eax,%eax
1000245c:	75 0a                	jne    0x10002468
1000245e:	68 30 58 00 10       	push   $0x10005830
10002463:	e8 70 13 00 00       	call   0x100037d8
10002468:	68 10 58 00 10       	push   $0x10005810
1000246d:	50                   	push   %eax
1000246e:	e8 59 13 00 00       	call   0x100037cc
10002473:	ff e0                	jmp    *%eax
10002475:	8d 49 00             	lea    0x0(%ecx),%ecx
10002478:	cc                   	int3   
10002479:	cc                   	int3   
1000247a:	cc                   	int3   
1000247b:	cc                   	int3   
1000247c:	cc                   	int3   
1000247d:	cc                   	int3   
1000247e:	cc                   	int3   
1000247f:	cc                   	int3   
10002480:	68 e4 37 00 10       	push   $0x100037e4
10002485:	64 a1 00 00 00 00    	mov    %fs:0x0,%eax
1000248b:	50                   	push   %eax
1000248c:	8b 44 24 10          	mov    0x10(%esp),%eax
10002490:	89 6c 24 10          	mov    %ebp,0x10(%esp)
10002494:	8d 6c 24 10          	lea    0x10(%esp),%ebp
10002498:	2b e0                	sub    %eax,%esp
1000249a:	53                   	push   %ebx
1000249b:	56                   	push   %esi
1000249c:	57                   	push   %edi
1000249d:	8b 45 f8             	mov    -0x8(%ebp),%eax
100024a0:	89 65 e8             	mov    %esp,-0x18(%ebp)
100024a3:	50                   	push   %eax
100024a4:	8b 45 fc             	mov    -0x4(%ebp),%eax
100024a7:	c7 45 fc ff ff ff ff 	movl   $0xffffffff,-0x4(%ebp)
100024ae:	89 45 f8             	mov    %eax,-0x8(%ebp)
100024b1:	8d 45 f0             	lea    -0x10(%ebp),%eax
100024b4:	64 a3 00 00 00 00    	mov    %eax,%fs:0x0
100024ba:	c3                   	ret    
100024bb:	8b 4d f0             	mov    -0x10(%ebp),%ecx
100024be:	64 89 0d 00 00 00 00 	mov    %ecx,%fs:0x0
100024c5:	59                   	pop    %ecx
100024c6:	5f                   	pop    %edi
100024c7:	5e                   	pop    %esi
100024c8:	5b                   	pop    %ebx
100024c9:	c9                   	leave  
100024ca:	51                   	push   %ecx
100024cb:	c3                   	ret    
100024cc:	b8 20 5c 00 10       	mov    $0x10005c20,%eax
100024d1:	c3                   	ret    
100024d2:	55                   	push   %ebp
100024d3:	8b ec                	mov    %esp,%ebp
100024d5:	81 ec 18 02 00 00    	sub    $0x218,%esp
100024db:	64 a1 30 00 00 00    	mov    %fs:0x30,%eax
100024e1:	53                   	push   %ebx
100024e2:	56                   	push   %esi
100024e3:	57                   	push   %edi
100024e4:	8b 70 0c             	mov    0xc(%eax),%esi
100024e7:	83 c6 14             	add    $0x14,%esi
100024ea:	89 4d f8             	mov    %ecx,-0x8(%ebp)
100024ed:	89 75 f0             	mov    %esi,-0x10(%ebp)
100024f0:	8b 06                	mov    (%esi),%eax
100024f2:	3b c6                	cmp    %esi,%eax
100024f4:	0f 84 19 01 00 00    	je     0x10002613
100024fa:	c7 45 f4 19 00 00 00 	movl   $0x19,-0xc(%ebp)
10002501:	8d 78 f8             	lea    -0x8(%eax),%edi
10002504:	b9 c6 4f f8 67       	mov    $0x67f84fc6,%ecx
10002509:	8b 57 30             	mov    0x30(%edi),%edx
1000250c:	8b da                	mov    %edx,%ebx
1000250e:	0f b7 03             	movzwl (%ebx),%eax
10002511:	66 85 c0             	test   %ax,%ax
10002514:	74 3d                	je     0x10002553
10002516:	8b f1                	mov    %ecx,%esi
10002518:	0f b7 c8             	movzwl %ax,%ecx
1000251b:	8d 41 bf             	lea    -0x41(%ecx),%eax
1000251e:	66 3b 45 f4          	cmp    -0xc(%ebp),%ax
10002522:	77 03                	ja     0x10002527
10002524:	83 c1 20             	add    $0x20,%ecx
10002527:	0f b7 c9             	movzwl %cx,%ecx
1000252a:	83 c3 02             	add    $0x2,%ebx
1000252d:	8b c1                	mov    %ecx,%eax
1000252f:	0f af c9             	imul   %ecx,%ecx
10002532:	83 e0 07             	and    $0x7,%eax
10002535:	c1 e0 09             	shl    $0x9,%eax
10002538:	05 27 0c a2 08       	add    $0x8a20c27,%eax
1000253d:	0f af f0             	imul   %eax,%esi
10002540:	0f b7 03             	movzwl (%ebx),%eax
10002543:	33 f1                	xor    %ecx,%esi
10002545:	66 85 c0             	test   %ax,%ax
10002548:	75 ce                	jne    0x10002518
1000254a:	89 75 fc             	mov    %esi,-0x4(%ebp)
1000254d:	8b 75 f0             	mov    -0x10(%ebp),%esi
10002550:	8b 4d fc             	mov    -0x4(%ebp),%ecx
10002553:	3b 4d f8             	cmp    -0x8(%ebp),%ecx
10002556:	0f 84 c0 00 00 00    	je     0x1000261c
1000255c:	b8 08 02 00 00       	mov    $0x208,%eax
10002561:	66 39 47 2c          	cmp    %ax,0x2c(%edi)
10002565:	0f 83 9d 00 00 00    	jae    0x10002608
1000256b:	66 8b 0a             	mov    (%edx),%cx
1000256e:	66 89 8d e8 fd ff ff 	mov    %cx,-0x218(%ebp)
10002575:	66 85 c9             	test   %cx,%cx
10002578:	74 1e                	je     0x10002598
1000257a:	8d 8d e8 fd ff ff    	lea    -0x218(%ebp),%ecx
10002580:	2b ca                	sub    %edx,%ecx
10002582:	8d 52 02             	lea    0x2(%edx),%edx
10002585:	0f b7 02             	movzwl (%edx),%eax
10002588:	66 89 04 11          	mov    %ax,(%ecx,%edx,1)
1000258c:	66 85 c0             	test   %ax,%ax
1000258f:	75 f1                	jne    0x10002582
10002591:	66 8b 8d e8 fd ff ff 	mov    -0x218(%ebp),%cx
10002598:	8d 85 e8 fd ff ff    	lea    -0x218(%ebp),%eax
1000259e:	66 85 c9             	test   %cx,%cx
100025a1:	74 0f                	je     0x100025b2
100025a3:	66 83 38 2e          	cmpw   $0x2e,(%eax)
100025a7:	74 09                	je     0x100025b2
100025a9:	83 c0 02             	add    $0x2,%eax
100025ac:	66 83 38 00          	cmpw   $0x0,(%eax)
100025b0:	75 f1                	jne    0x100025a3
100025b2:	33 c9                	xor    %ecx,%ecx
100025b4:	8d 9d e8 fd ff ff    	lea    -0x218(%ebp),%ebx
100025ba:	66 89 08             	mov    %cx,(%eax)
100025bd:	ba c6 4f f8 67       	mov    $0x67f84fc6,%edx
100025c2:	66 8b 85 e8 fd ff ff 	mov    -0x218(%ebp),%ax
100025c9:	66 85 c0             	test   %ax,%ax
100025cc:	74 35                	je     0x10002603
100025ce:	0f b7 c0             	movzwl %ax,%eax
100025d1:	0f b7 c8             	movzwl %ax,%ecx
100025d4:	8d 41 bf             	lea    -0x41(%ecx),%eax
100025d7:	66 3b 45 f4          	cmp    -0xc(%ebp),%ax
100025db:	77 03                	ja     0x100025e0
100025dd:	83 c1 20             	add    $0x20,%ecx
100025e0:	0f b7 c9             	movzwl %cx,%ecx
100025e3:	83 c3 02             	add    $0x2,%ebx
100025e6:	8b c1                	mov    %ecx,%eax
100025e8:	0f af c9             	imul   %ecx,%ecx
100025eb:	83 e0 07             	and    $0x7,%eax
100025ee:	c1 e0 09             	shl    $0x9,%eax
100025f1:	05 27 0c a2 08       	add    $0x8a20c27,%eax
100025f6:	0f af d0             	imul   %eax,%edx
100025f9:	0f b7 03             	movzwl (%ebx),%eax
100025fc:	33 d1                	xor    %ecx,%edx
100025fe:	66 85 c0             	test   %ax,%ax
10002601:	75 ce                	jne    0x100025d1
10002603:	3b 55 f8             	cmp    -0x8(%ebp),%edx
10002606:	74 14                	je     0x1000261c
10002608:	8b 47 08             	mov    0x8(%edi),%eax
1000260b:	3b c6                	cmp    %esi,%eax
1000260d:	0f 85 ee fe ff ff    	jne    0x10002501
10002613:	33 c0                	xor    %eax,%eax
10002615:	5f                   	pop    %edi
10002616:	5e                   	pop    %esi
10002617:	5b                   	pop    %ebx
10002618:	8b e5                	mov    %ebp,%esp
1000261a:	5d                   	pop    %ebp
1000261b:	c3                   	ret    
1000261c:	8b 47 18             	mov    0x18(%edi),%eax
1000261f:	eb f4                	jmp    0x10002615
10002621:	55                   	push   %ebp
10002622:	8b ec                	mov    %esp,%ebp
10002624:	81 ec 08 02 00 00    	sub    $0x208,%esp
1000262a:	57                   	push   %edi
1000262b:	e8 9c fe ff ff       	call   0x100024cc
10002630:	8b f8                	mov    %eax,%edi
10002632:	81 3f 74 42 38 72    	cmpl   $0x72384274,(%edi)
10002638:	75 05                	jne    0x1000263f
1000263a:	33 c0                	xor    %eax,%eax
1000263c:	40                   	inc    %eax
1000263d:	eb 5c                	jmp    0x1000269b
1000263f:	8d 95 f8 fd ff ff    	lea    -0x208(%ebp),%edx
10002645:	b9 50 42 00 10       	mov    $0x10004250,%ecx
1000264a:	e8 e5 0e 00 00       	call   0x10003534
1000264f:	8d 85 f8 fd ff ff    	lea    -0x208(%ebp),%eax
10002655:	50                   	push   %eax
10002656:	ff 15 18 40 00 10    	call   *0x10004018
1000265c:	8d 95 f8 fd ff ff    	lea    -0x208(%ebp),%edx
10002662:	89 87 c4 00 00 00    	mov    %eax,0xc4(%edi)
10002668:	b9 10 42 00 10       	mov    $0x10004210,%ecx
1000266d:	e8 c2 0e 00 00       	call   0x10003534
10002672:	8d 85 f8 fd ff ff    	lea    -0x208(%ebp),%eax
10002678:	50                   	push   %eax
10002679:	ff 15 18 40 00 10    	call   *0x10004018
1000267f:	83 bf c4 00 00 00 00 	cmpl   $0x0,0xc4(%edi)
10002686:	89 87 c0 00 00 00    	mov    %eax,0xc0(%edi)
1000268c:	74 0b                	je     0x10002699
1000268e:	85 c0                	test   %eax,%eax
10002690:	74 07                	je     0x10002699
10002692:	e8 09 00 00 00       	call   0x100026a0
10002697:	eb 02                	jmp    0x1000269b
10002699:	33 c0                	xor    %eax,%eax
1000269b:	5f                   	pop    %edi
1000269c:	8b e5                	mov    %ebp,%esp
1000269e:	5d                   	pop    %ebp
1000269f:	c3                   	ret    
100026a0:	53                   	push   %ebx
100026a1:	56                   	push   %esi
100026a2:	57                   	push   %edi
100026a3:	e8 24 fe ff ff       	call   0x100024cc
100026a8:	8b f0                	mov    %eax,%esi
100026aa:	ba 5b 55 3f bc       	mov    $0xbc3f555b,%edx
100026af:	8b 8e c0 00 00 00    	mov    0xc0(%esi),%ecx
100026b5:	83 a6 bc 00 00 00 00 	andl   $0x0,0xbc(%esi)
100026bc:	83 66 10 00          	andl   $0x0,0x10(%esi)
100026c0:	e8 2b 08 00 00       	call   0x10002ef0
100026c5:	bf 50 42 00 10       	mov    $0x10004250,%edi
100026ca:	89 86 80 00 00 00    	mov    %eax,0x80(%esi)
100026d0:	ba b8 2b 05 c9       	mov    $0xc9052bb8,%edx
100026d5:	8b cf                	mov    %edi,%ecx
100026d7:	e8 dd 07 00 00       	call   0x10002eb9
100026dc:	ba 5c 86 f3 ea       	mov    $0xeaf3865c,%edx
100026e1:	89 46 30             	mov    %eax,0x30(%esi)
100026e4:	8b cf                	mov    %edi,%ecx
100026e6:	e8 ce 07 00 00       	call   0x10002eb9
100026eb:	89 46 34             	mov    %eax,0x34(%esi)
100026ee:	85 c0                	test   %eax,%eax
100026f0:	0f 84 8f 02 00 00    	je     0x10002985
100026f6:	ba 74 fb 32 af       	mov    $0xaf32fb74,%edx
100026fb:	8b cf                	mov    %edi,%ecx
100026fd:	e8 b7 07 00 00       	call   0x10002eb9
10002702:	ba 94 1c ee c9       	mov    $0xc9ee1c94,%edx
10002707:	89 46 54             	mov    %eax,0x54(%esi)
1000270a:	8b cf                	mov    %edi,%ecx
1000270c:	e8 a8 07 00 00       	call   0x10002eb9
10002711:	ba 27 60 f0 46       	mov    $0x46f06027,%edx
10002716:	89 46 38             	mov    %eax,0x38(%esi)
10002719:	8b cf                	mov    %edi,%ecx
1000271b:	e8 99 07 00 00       	call   0x10002eb9
10002720:	89 46 3c             	mov    %eax,0x3c(%esi)
10002723:	85 c0                	test   %eax,%eax
10002725:	0f 84 5a 02 00 00    	je     0x10002985
1000272b:	ba cf 0d 74 4c       	mov    $0x4c740dcf,%edx
10002730:	8b cf                	mov    %edi,%ecx
10002732:	e8 82 07 00 00       	call   0x10002eb9
10002737:	89 46 0c             	mov    %eax,0xc(%esi)
1000273a:	85 c0                	test   %eax,%eax
1000273c:	0f 84 43 02 00 00    	je     0x10002985
10002742:	ba 10 ee 27 d3       	mov    $0xd327ee10,%edx
10002747:	8b cf                	mov    %edi,%ecx
10002749:	e8 6b 07 00 00       	call   0x10002eb9
1000274e:	89 46 20             	mov    %eax,0x20(%esi)
10002751:	85 c0                	test   %eax,%eax
10002753:	0f 84 2c 02 00 00    	je     0x10002985
10002759:	ba f7 1a d5 00       	mov    $0xd51af7,%edx
1000275e:	8b cf                	mov    %edi,%ecx
10002760:	e8 54 07 00 00       	call   0x10002eb9
10002765:	bb 10 42 00 10       	mov    $0x10004210,%ebx
1000276a:	89 46 4c             	mov    %eax,0x4c(%esi)
1000276d:	ba 0d ed 35 15       	mov    $0x1535ed0d,%edx
10002772:	8b cb                	mov    %ebx,%ecx
10002774:	e8 40 07 00 00       	call   0x10002eb9
10002779:	ba 0b 7b b6 ba       	mov    $0xbab67b0b,%edx
1000277e:	89 46 04             	mov    %eax,0x4(%esi)
10002781:	8b cb                	mov    %ebx,%ecx
10002783:	e8 31 07 00 00       	call   0x10002eb9
10002788:	89 46 08             	mov    %eax,0x8(%esi)
1000278b:	85 c0                	test   %eax,%eax
1000278d:	0f 84 f2 01 00 00    	je     0x10002985
10002793:	ba 86 0a bf ae       	mov    $0xaebf0a86,%edx
10002798:	8b cb                	mov    %ebx,%ecx
1000279a:	e8 1a 07 00 00       	call   0x10002eb9
1000279f:	ba 66 15 ed 66       	mov    $0x66ed1566,%edx
100027a4:	89 46 14             	mov    %eax,0x14(%esi)
100027a7:	8b cb                	mov    %ebx,%ecx
100027a9:	e8 0b 07 00 00       	call   0x10002eb9
100027ae:	ba 19 72 9c 9f       	mov    $0x9f9c7219,%edx
100027b3:	89 46 18             	mov    %eax,0x18(%esi)
100027b6:	8b cb                	mov    %ebx,%ecx
100027b8:	e8 fc 06 00 00       	call   0x10002eb9
100027bd:	ba 4c 12 41 f2       	mov    $0xf241124c,%edx
100027c2:	89 46 2c             	mov    %eax,0x2c(%esi)
100027c5:	8b cb                	mov    %ebx,%ecx
100027c7:	e8 ed 06 00 00       	call   0x10002eb9
100027cc:	89 46 1c             	mov    %eax,0x1c(%esi)
100027cf:	85 c0                	test   %eax,%eax
100027d1:	0f 84 ae 01 00 00    	je     0x10002985
100027d7:	ba ec 8c e1 54       	mov    $0x54e18cec,%edx
100027dc:	8b cb                	mov    %ebx,%ecx
100027de:	e8 d6 06 00 00       	call   0x10002eb9
100027e3:	ba 8e ac ac 75       	mov    $0x75acac8e,%edx
100027e8:	89 46 24             	mov    %eax,0x24(%esi)
100027eb:	8b cb                	mov    %ebx,%ecx
100027ed:	e8 c7 06 00 00       	call   0x10002eb9
100027f2:	ba 12 25 33 9c       	mov    $0x9c332512,%edx
100027f7:	89 46 28             	mov    %eax,0x28(%esi)
100027fa:	8b cb                	mov    %ebx,%ecx
100027fc:	e8 b8 06 00 00       	call   0x10002eb9
10002801:	89 46 68             	mov    %eax,0x68(%esi)
10002804:	85 c0                	test   %eax,%eax
10002806:	0f 84 79 01 00 00    	je     0x10002985
1000280c:	ba 6e 3d c9 22       	mov    $0x22c93d6e,%edx
10002811:	8b cb                	mov    %ebx,%ecx
10002813:	e8 a1 06 00 00       	call   0x10002eb9
10002818:	89 46 7c             	mov    %eax,0x7c(%esi)
1000281b:	85 c0                	test   %eax,%eax
1000281d:	0f 84 62 01 00 00    	je     0x10002985
10002823:	ba 03 41 0d 2c       	mov    $0x2c0d4103,%edx
10002828:	8b cb                	mov    %ebx,%ecx
1000282a:	e8 8a 06 00 00       	call   0x10002eb9
1000282f:	ba 4f a0 60 28       	mov    $0x2860a04f,%edx
10002834:	89 46 6c             	mov    %eax,0x6c(%esi)
10002837:	8b cb                	mov    %ebx,%ecx
10002839:	e8 7b 06 00 00       	call   0x10002eb9
1000283e:	ba 10 8e da b3       	mov    $0xb3da8e10,%edx
10002843:	89 46 40             	mov    %eax,0x40(%esi)
10002846:	8b cb                	mov    %ebx,%ecx
10002848:	e8 6c 06 00 00       	call   0x10002eb9
1000284d:	ba fa 67 93 7e       	mov    $0x7e9367fa,%edx
10002852:	89 46 44             	mov    %eax,0x44(%esi)
10002855:	8b cf                	mov    %edi,%ecx
10002857:	e8 5d 06 00 00       	call   0x10002eb9
1000285c:	ba b5 d8 4a 64       	mov    $0x644ad8b5,%edx
10002861:	89 46 5c             	mov    %eax,0x5c(%esi)
10002864:	8b cb                	mov    %ebx,%ecx
10002866:	e8 4e 06 00 00       	call   0x10002eb9
1000286b:	ba cd c1 85 ad       	mov    $0xad85c1cd,%edx
10002870:	89 46 48             	mov    %eax,0x48(%esi)
10002873:	8b cb                	mov    %ebx,%ecx
10002875:	e8 3f 06 00 00       	call   0x10002eb9
1000287a:	89 46 58             	mov    %eax,0x58(%esi)
1000287d:	85 c0                	test   %eax,%eax
1000287f:	0f 84 00 01 00 00    	je     0x10002985
10002885:	ba 3d 18 50 1d       	mov    $0x1d50183d,%edx
1000288a:	8b cb                	mov    %ebx,%ecx
1000288c:	e8 28 06 00 00       	call   0x10002eb9
10002891:	89 46 50             	mov    %eax,0x50(%esi)
10002894:	85 c0                	test   %eax,%eax
10002896:	0f 84 e9 00 00 00    	je     0x10002985
1000289c:	ba 6b 87 b4 1c       	mov    $0x1cb4876b,%edx
100028a1:	8b cb                	mov    %ebx,%ecx
100028a3:	e8 11 06 00 00       	call   0x10002eb9
100028a8:	ba db 8b 08 4a       	mov    $0x4a088bdb,%edx
100028ad:	89 46 60             	mov    %eax,0x60(%esi)
100028b0:	8b cb                	mov    %ebx,%ecx
100028b2:	e8 02 06 00 00       	call   0x10002eb9
100028b7:	ba 7c 78 b8 b1       	mov    $0xb1b8787c,%edx
100028bc:	89 46 64             	mov    %eax,0x64(%esi)
100028bf:	8b cb                	mov    %ebx,%ecx
100028c1:	e8 f3 05 00 00       	call   0x10002eb9
100028c6:	ba 24 41 35 d1       	mov    $0xd1354124,%edx
100028cb:	89 46 70             	mov    %eax,0x70(%esi)
100028ce:	8b cb                	mov    %ebx,%ecx
100028d0:	e8 e4 05 00 00       	call   0x10002eb9
100028d5:	89 46 74             	mov    %eax,0x74(%esi)
100028d8:	85 c0                	test   %eax,%eax
100028da:	0f 84 a5 00 00 00    	je     0x10002985
100028e0:	ba 73 80 73 49       	mov    $0x49738073,%edx
100028e5:	8b cb                	mov    %ebx,%ecx
100028e7:	e8 cd 05 00 00       	call   0x10002eb9
100028ec:	89 46 78             	mov    %eax,0x78(%esi)
100028ef:	85 c0                	test   %eax,%eax
100028f1:	0f 84 8e 00 00 00    	je     0x10002985
100028f7:	ba cf 3f cf 8d       	mov    $0x8dcf3fcf,%edx
100028fc:	8b cf                	mov    %edi,%ecx
100028fe:	e8 b6 05 00 00       	call   0x10002eb9
10002903:	ba 68 63 ff 1e       	mov    $0x1eff6368,%edx
10002908:	89 86 88 00 00 00    	mov    %eax,0x88(%esi)
1000290e:	8b cf                	mov    %edi,%ecx
10002910:	e8 a4 05 00 00       	call   0x10002eb9
10002915:	bf c0 41 00 10       	mov    $0x100041c0,%edi
1000291a:	89 86 84 00 00 00    	mov    %eax,0x84(%esi)
10002920:	ba c0 ed 4c 61       	mov    $0x614cedc0,%edx
10002925:	8b cf                	mov    %edi,%ecx
10002927:	e8 8d 05 00 00       	call   0x10002eb9
1000292c:	ba fe f5 47 ab       	mov    $0xab47f5fe,%edx
10002931:	89 86 8c 00 00 00    	mov    %eax,0x8c(%esi)
10002937:	8b cf                	mov    %edi,%ecx
10002939:	e8 7b 05 00 00       	call   0x10002eb9
1000293e:	ba 78 97 8b 33       	mov    $0x338b9778,%edx
10002943:	89 86 90 00 00 00    	mov    %eax,0x90(%esi)
10002949:	8b cb                	mov    %ebx,%ecx
1000294b:	e8 69 05 00 00       	call   0x10002eb9
10002950:	ba 58 59 00 4e       	mov    $0x4e005958,%edx
10002955:	89 86 94 00 00 00    	mov    %eax,0x94(%esi)
1000295b:	8b cb                	mov    %ebx,%ecx
1000295d:	e8 57 05 00 00       	call   0x10002eb9
10002962:	ba 00 51 7b a1       	mov    $0xa17b5100,%edx
10002967:	89 86 98 00 00 00    	mov    %eax,0x98(%esi)
1000296d:	8b cb                	mov    %ebx,%ecx
1000296f:	e8 45 05 00 00       	call   0x10002eb9
10002974:	89 86 9c 00 00 00    	mov    %eax,0x9c(%esi)
1000297a:	33 c0                	xor    %eax,%eax
1000297c:	c7 06 74 42 38 72    	movl   $0x72384274,(%esi)
10002982:	40                   	inc    %eax
10002983:	eb 02                	jmp    0x10002987
10002985:	33 c0                	xor    %eax,%eax
10002987:	5f                   	pop    %edi
10002988:	5e                   	pop    %esi
10002989:	5b                   	pop    %ebx
1000298a:	c3                   	ret    
1000298b:	55                   	push   %ebp
1000298c:	8b ec                	mov    %esp,%ebp
1000298e:	51                   	push   %ecx
1000298f:	83 65 fc 00          	andl   $0x0,-0x4(%ebp)
10002993:	56                   	push   %esi
10002994:	8b f1                	mov    %ecx,%esi
10002996:	83 3e ff             	cmpl   $0xffffffff,(%esi)
10002999:	74 24                	je     0x100029bf
1000299b:	57                   	push   %edi
1000299c:	e8 2b fb ff ff       	call   0x100024cc
100029a1:	6a 00                	push   $0x0
100029a3:	8b f8                	mov    %eax,%edi
100029a5:	8d 45 fc             	lea    -0x4(%ebp),%eax
100029a8:	50                   	push   %eax
100029a9:	ff 75 08             	pushl  0x8(%ebp)
100029ac:	52                   	push   %edx
100029ad:	ff 36                	pushl  (%esi)
100029af:	ff 57 64             	call   *0x64(%edi)
100029b2:	85 c0                	test   %eax,%eax
100029b4:	75 08                	jne    0x100029be
100029b6:	ff 36                	pushl  (%esi)
100029b8:	ff 57 4c             	call   *0x4c(%edi)
100029bb:	83 0e ff             	orl    $0xffffffff,(%esi)
100029be:	5f                   	pop    %edi
100029bf:	5e                   	pop    %esi
100029c0:	8b e5                	mov    %ebp,%esp
100029c2:	5d                   	pop    %ebp
100029c3:	c3                   	ret    
100029c4:	55                   	push   %ebp
100029c5:	8b ec                	mov    %esp,%ebp
100029c7:	53                   	push   %ebx
100029c8:	56                   	push   %esi
100029c9:	8b 75 08             	mov    0x8(%ebp),%esi
100029cc:	8b d9                	mov    %ecx,%ebx
100029ce:	57                   	push   %edi
100029cf:	8b fa                	mov    %edx,%edi
100029d1:	89 75 08             	mov    %esi,0x8(%ebp)
100029d4:	6a 04                	push   $0x4
100029d6:	8d 55 08             	lea    0x8(%ebp),%edx
100029d9:	e8 ad ff ff ff       	call   0x1000298b
100029de:	56                   	push   %esi
100029df:	8b d7                	mov    %edi,%edx
100029e1:	8b cb                	mov    %ebx,%ecx
100029e3:	e8 a3 ff ff ff       	call   0x1000298b
100029e8:	59                   	pop    %ecx
100029e9:	59                   	pop    %ecx
100029ea:	5f                   	pop    %edi
100029eb:	5e                   	pop    %esi
100029ec:	5b                   	pop    %ebx
100029ed:	5d                   	pop    %ebp
100029ee:	c3                   	ret    
100029ef:	56                   	push   %esi
100029f0:	6a 2e                	push   $0x2e
100029f2:	58                   	pop    %eax
100029f3:	6a 69                	push   $0x69
100029f5:	66 89 41 04          	mov    %ax,0x4(%ecx)
100029f9:	58                   	pop    %eax
100029fa:	6a 5c                	push   $0x5c
100029fc:	5e                   	pop    %esi
100029fd:	6a 65                	push   $0x65
100029ff:	66 89 41 0a          	mov    %ax,0xa(%ecx)
10002a03:	58                   	pop    %eax
10002a04:	6a 70                	push   $0x70
10002a06:	5a                   	pop    %edx
10002a07:	66 89 41 0e          	mov    %ax,0xe(%ecx)
10002a0b:	33 c0                	xor    %eax,%eax
10002a0d:	66 89 31             	mov    %si,(%ecx)
10002a10:	66 89 71 06          	mov    %si,0x6(%ecx)
10002a14:	66 89 71 02          	mov    %si,0x2(%ecx)
10002a18:	66 89 71 10          	mov    %si,0x10(%ecx)
10002a1c:	66 89 51 0c          	mov    %dx,0xc(%ecx)
10002a20:	66 89 41 12          	mov    %ax,0x12(%ecx)
10002a24:	66 89 51 08          	mov    %dx,0x8(%ecx)
10002a28:	5e                   	pop    %esi
10002a29:	c3                   	ret    
10002a2a:	55                   	push   %ebp
10002a2b:	8b ec                	mov    %esp,%ebp
10002a2d:	83 ec 64             	sub    $0x64,%esp
10002a30:	ba c5 68 1b 11       	mov    $0x111b68c5,%edx
10002a35:	53                   	push   %ebx
10002a36:	8a d9                	mov    %cl,%bl
10002a38:	b9 10 42 00 10       	mov    $0x10004210,%ecx
10002a3d:	56                   	push   %esi
10002a3e:	e8 76 04 00 00       	call   0x10002eb9
10002a43:	8d 4d 9c             	lea    -0x64(%ebp),%ecx
10002a46:	8b f0                	mov    %eax,%esi
10002a48:	e8 a2 ff ff ff       	call   0x100029ef
10002a4d:	e8 05 07 00 00       	call   0x10003157
10002a52:	8d 55 9c             	lea    -0x64(%ebp),%edx
10002a55:	8a cb                	mov    %bl,%cl
10002a57:	8d 14 42             	lea    (%edx,%eax,2),%edx
10002a5a:	e8 9a 00 00 00       	call   0x10002af9
10002a5f:	85 c0                	test   %eax,%eax
10002a61:	74 2d                	je     0x10002a90
10002a63:	57                   	push   %edi
10002a64:	33 ff                	xor    %edi,%edi
10002a66:	8d 45 9c             	lea    -0x64(%ebp),%eax
10002a69:	57                   	push   %edi
10002a6a:	50                   	push   %eax
10002a6b:	ff d6                	call   *%esi
10002a6d:	8b f0                	mov    %eax,%esi
10002a6f:	e8 58 fa ff ff       	call   0x100024cc
10002a74:	ff 90 9c 00 00 00    	call   *0x9c(%eax)
10002a7a:	85 f6                	test   %esi,%esi
10002a7c:	75 0c                	jne    0x10002a8a
10002a7e:	83 f8 79             	cmp    $0x79,%eax
10002a81:	74 07                	je     0x10002a8a
10002a83:	3d e7 00 00 00       	cmp    $0xe7,%eax
10002a88:	75 03                	jne    0x10002a8d
10002a8a:	33 ff                	xor    %edi,%edi
10002a8c:	47                   	inc    %edi
10002a8d:	8b c7                	mov    %edi,%eax
10002a8f:	5f                   	pop    %edi
10002a90:	5e                   	pop    %esi
10002a91:	5b                   	pop    %ebx
10002a92:	8b e5                	mov    %ebp,%esp
10002a94:	5d                   	pop    %ebp
10002a95:	c3                   	ret    
10002a96:	53                   	push   %ebx
10002a97:	8a d9                	mov    %cl,%bl
10002a99:	56                   	push   %esi
10002a9a:	0f b6 f3             	movzbl %bl,%esi
10002a9d:	83 3c b5 c0 5b 00 10 	cmpl   $0x0,0x10005bc0(,%esi,4)
10002aa4:	00 
10002aa5:	74 26                	je     0x10002acd
10002aa7:	e8 20 fa ff ff       	call   0x100024cc
10002aac:	ff 50 68             	call   *0x68(%eax)
10002aaf:	8b 0c b5 c0 5b 00 10 	mov    0x10005bc0(,%esi,4),%ecx
10002ab6:	3b c1                	cmp    %ecx,%eax
10002ab8:	73 0a                	jae    0x10002ac4
10002aba:	83 24 b5 c0 5b 00 10 	andl   $0x0,0x10005bc0(,%esi,4)
10002ac1:	00 
10002ac2:	eb 09                	jmp    0x10002acd
10002ac4:	2b c1                	sub    %ecx,%eax
10002ac6:	3d 30 75 00 00       	cmp    $0x7530,%eax
10002acb:	72 27                	jb     0x10002af4
10002acd:	8a cb                	mov    %bl,%cl
10002acf:	e8 56 ff ff ff       	call   0x10002a2a
10002ad4:	85 c0                	test   %eax,%eax
10002ad6:	74 0d                	je     0x10002ae5
10002ad8:	83 24 b5 c0 5b 00 10 	andl   $0x0,0x10005bc0(,%esi,4)
10002adf:	00 
10002ae0:	33 c0                	xor    %eax,%eax
10002ae2:	40                   	inc    %eax
10002ae3:	eb 11                	jmp    0x10002af6
10002ae5:	e8 e2 f9 ff ff       	call   0x100024cc
10002aea:	ff 50 68             	call   *0x68(%eax)
10002aed:	89 04 b5 c0 5b 00 10 	mov    %eax,0x10005bc0(,%esi,4)
10002af4:	33 c0                	xor    %eax,%eax
10002af6:	5e                   	pop    %esi
10002af7:	5b                   	pop    %ebx
10002af8:	c3                   	ret    
10002af9:	55                   	push   %ebp
10002afa:	8b ec                	mov    %esp,%ebp
10002afc:	83 ec 24             	sub    $0x24,%esp
10002aff:	53                   	push   %ebx
10002b00:	57                   	push   %edi
10002b01:	8b fa                	mov    %edx,%edi
10002b03:	c7 45 fc 10 00 00 00 	movl   $0x10,-0x4(%ebp)
10002b0a:	8a d9                	mov    %cl,%bl
10002b0c:	e8 10 fb ff ff       	call   0x10002621
10002b11:	85 c0                	test   %eax,%eax
10002b13:	75 07                	jne    0x10002b1c
10002b15:	33 c0                	xor    %eax,%eax
10002b17:	e9 86 00 00 00       	jmp    0x10002ba2
10002b1c:	ba 23 72 15 d3       	mov    $0xd3157223,%edx
10002b21:	b9 10 42 00 10       	mov    $0x10004210,%ecx
10002b26:	e8 8e 03 00 00       	call   0x10002eb9
10002b2b:	85 c0                	test   %eax,%eax
10002b2d:	74 e6                	je     0x10002b15
10002b2f:	8d 4d fc             	lea    -0x4(%ebp),%ecx
10002b32:	51                   	push   %ecx
10002b33:	8d 4d dc             	lea    -0x24(%ebp),%ecx
10002b36:	51                   	push   %ecx
10002b37:	ff d0                	call   *%eax
10002b39:	85 c0                	test   %eax,%eax
10002b3b:	74 d8                	je     0x10002b15
10002b3d:	66 8b 45 dc          	mov    -0x24(%ebp),%ax
10002b41:	ba c6 4f f8 67       	mov    $0x67f84fc6,%edx
10002b46:	56                   	push   %esi
10002b47:	8d 75 dc             	lea    -0x24(%ebp),%esi
10002b4a:	66 85 c0             	test   %ax,%ax
10002b4d:	74 35                	je     0x10002b84
10002b4f:	0f b7 c0             	movzwl %ax,%eax
10002b52:	0f b7 c8             	movzwl %ax,%ecx
10002b55:	8d 41 bf             	lea    -0x41(%ecx),%eax
10002b58:	66 83 f8 19          	cmp    $0x19,%ax
10002b5c:	77 03                	ja     0x10002b61
10002b5e:	83 c1 20             	add    $0x20,%ecx
10002b61:	0f b7 c9             	movzwl %cx,%ecx
10002b64:	83 c6 02             	add    $0x2,%esi
10002b67:	8b c1                	mov    %ecx,%eax
10002b69:	0f af c9             	imul   %ecx,%ecx
10002b6c:	83 e0 07             	and    $0x7,%eax
10002b6f:	c1 e0 09             	shl    $0x9,%eax
10002b72:	05 27 0c a2 08       	add    $0x8a20c27,%eax
10002b77:	0f af d0             	imul   %eax,%edx
10002b7a:	0f b7 06             	movzwl (%esi),%eax
10002b7d:	33 d1                	xor    %ecx,%edx
10002b7f:	66 85 c0             	test   %ax,%ax
10002b82:	75 ce                	jne    0x10002b52
10002b84:	0f b6 c3             	movzbl %bl,%eax
10002b87:	8d 0c 10             	lea    (%eax,%edx,1),%ecx
10002b8a:	2b d0                	sub    %eax,%edx
10002b8c:	52                   	push   %edx
10002b8d:	51                   	push   %ecx
10002b8e:	8b cf                	mov    %edi,%ecx
10002b90:	e8 e9 09 00 00       	call   0x1000357e
10002b95:	59                   	pop    %ecx
10002b96:	59                   	pop    %ecx
10002b97:	33 c9                	xor    %ecx,%ecx
10002b99:	83 f8 ff             	cmp    $0xffffffff,%eax
10002b9c:	5e                   	pop    %esi
10002b9d:	0f 95 c1             	setne  %cl
10002ba0:	8b c1                	mov    %ecx,%eax
10002ba2:	5f                   	pop    %edi
10002ba3:	5b                   	pop    %ebx
10002ba4:	8b e5                	mov    %ebp,%esp
10002ba6:	5d                   	pop    %ebp
10002ba7:	c3                   	ret    
10002ba8:	55                   	push   %ebp
10002ba9:	8b ec                	mov    %esp,%ebp
10002bab:	83 ec 68             	sub    $0x68,%esp
10002bae:	53                   	push   %ebx
10002baf:	88 4d ff             	mov    %cl,-0x1(%ebp)
10002bb2:	ba c5 68 1b 11       	mov    $0x111b68c5,%edx
10002bb7:	57                   	push   %edi
10002bb8:	b9 10 42 00 10       	mov    $0x10004210,%ecx
10002bbd:	83 cf ff             	or     $0xffffffff,%edi
10002bc0:	e8 f4 02 00 00       	call   0x10002eb9
10002bc5:	8b d8                	mov    %eax,%ebx
10002bc7:	85 db                	test   %ebx,%ebx
10002bc9:	75 05                	jne    0x10002bd0
10002bcb:	83 c8 ff             	or     $0xffffffff,%eax
10002bce:	eb 73                	jmp    0x10002c43
10002bd0:	8d 4d 98             	lea    -0x68(%ebp),%ecx
10002bd3:	e8 17 fe ff ff       	call   0x100029ef
10002bd8:	e8 7a 05 00 00       	call   0x10003157
10002bdd:	8a 4d ff             	mov    -0x1(%ebp),%cl
10002be0:	8d 55 98             	lea    -0x68(%ebp),%edx
10002be3:	8d 14 42             	lea    (%edx,%eax,2),%edx
10002be6:	e8 0e ff ff ff       	call   0x10002af9
10002beb:	85 c0                	test   %eax,%eax
10002bed:	74 dc                	je     0x10002bcb
10002bef:	56                   	push   %esi
10002bf0:	33 f6                	xor    %esi,%esi
10002bf2:	6a 32                	push   $0x32
10002bf4:	8d 45 98             	lea    -0x68(%ebp),%eax
10002bf7:	50                   	push   %eax
10002bf8:	ff d3                	call   *%ebx
10002bfa:	85 c0                	test   %eax,%eax
10002bfc:	75 1c                	jne    0x10002c1a
10002bfe:	e8 c9 f8 ff ff       	call   0x100024cc
10002c03:	ff 90 9c 00 00 00    	call   *0x9c(%eax)
10002c09:	3d e7 00 00 00       	cmp    $0xe7,%eax
10002c0e:	75 30                	jne    0x10002c40
10002c10:	6a 32                	push   $0x32
10002c12:	ff 15 96 54 00 10    	call   *0x10005496
10002c18:	eb 20                	jmp    0x10002c3a
10002c1a:	e8 ad f8 ff ff       	call   0x100024cc
10002c1f:	33 c9                	xor    %ecx,%ecx
10002c21:	51                   	push   %ecx
10002c22:	51                   	push   %ecx
10002c23:	6a 03                	push   $0x3
10002c25:	51                   	push   %ecx
10002c26:	51                   	push   %ecx
10002c27:	68 00 00 00 40       	push   $0x40000000
10002c2c:	8d 4d 98             	lea    -0x68(%ebp),%ecx
10002c2f:	51                   	push   %ecx
10002c30:	ff 50 60             	call   *0x60(%eax)
10002c33:	8b f8                	mov    %eax,%edi
10002c35:	83 ff ff             	cmp    $0xffffffff,%edi
10002c38:	75 06                	jne    0x10002c40
10002c3a:	46                   	inc    %esi
10002c3b:	83 fe 05             	cmp    $0x5,%esi
10002c3e:	72 b2                	jb     0x10002bf2
10002c40:	8b c7                	mov    %edi,%eax
10002c42:	5e                   	pop    %esi
10002c43:	5f                   	pop    %edi
10002c44:	5b                   	pop    %ebx
10002c45:	8b e5                	mov    %ebp,%esp
10002c47:	5d                   	pop    %ebp
10002c48:	c3                   	ret    
10002c49:	6a 60                	push   $0x60
10002c4b:	68 90 43 00 10       	push   $0x10004390
10002c50:	e8 2b f8 ff ff       	call   0x10002480
10002c55:	33 c0                	xor    %eax,%eax
10002c57:	89 45 fc             	mov    %eax,-0x4(%ebp)
10002c5a:	83 ce ff             	or     $0xffffffff,%esi
10002c5d:	89 75 d8             	mov    %esi,-0x28(%ebp)
10002c60:	89 45 d0             	mov    %eax,-0x30(%ebp)
10002c63:	89 45 d4             	mov    %eax,-0x2c(%ebp)
10002c66:	8b 5d 10             	mov    0x10(%ebp),%ebx
10002c69:	81 f3 41 51 a9 12    	xor    $0x12a95141,%ebx
10002c6f:	8b 7d 14             	mov    0x14(%ebp),%edi
10002c72:	33 f8                	xor    %eax,%edi
10002c74:	80 7d 08 0b          	cmpb   $0xb,0x8(%ebp)
10002c78:	76 08                	jbe    0x10002c82
10002c7a:	89 75 fc             	mov    %esi,-0x4(%ebp)
10002c7d:	e9 10 02 00 00       	jmp    0x10002e92
10002c82:	e8 9a f9 ff ff       	call   0x10002621
10002c87:	85 c0                	test   %eax,%eax
10002c89:	74 ef                	je     0x10002c7a
10002c8b:	8a 4d 08             	mov    0x8(%ebp),%cl
10002c8e:	e8 03 fe ff ff       	call   0x10002a96
10002c93:	85 c0                	test   %eax,%eax
10002c95:	74 e3                	je     0x10002c7a
10002c97:	8a 4d 08             	mov    0x8(%ebp),%cl
10002c9a:	e8 09 ff ff ff       	call   0x10002ba8
10002c9f:	89 45 d8             	mov    %eax,-0x28(%ebp)
10002ca2:	3b c6                	cmp    %esi,%eax
10002ca4:	74 d4                	je     0x10002c7a
10002ca6:	8d 75 1c             	lea    0x1c(%ebp),%esi
10002ca9:	89 75 d4             	mov    %esi,-0x2c(%ebp)
10002cac:	c6 45 e4 00          	movb   $0x0,-0x1c(%ebp)
10002cb0:	6a 01                	push   $0x1
10002cb2:	8d 55 e4             	lea    -0x1c(%ebp),%edx
10002cb5:	8d 4d d8             	lea    -0x28(%ebp),%ecx
10002cb8:	e8 ce fc ff ff       	call   0x1000298b
10002cbd:	c7 45 cc 01 00 00 00 	movl   $0x1,-0x34(%ebp)
10002cc4:	6a 04                	push   $0x4
10002cc6:	8d 55 cc             	lea    -0x34(%ebp),%edx
10002cc9:	8d 4d d8             	lea    -0x28(%ebp),%ecx
10002ccc:	e8 ba fc ff ff       	call   0x1000298b
10002cd1:	c6 45 e0 00          	movb   $0x0,-0x20(%ebp)
10002cd5:	6a 01                	push   $0x1
10002cd7:	8d 55 e0             	lea    -0x20(%ebp),%edx
10002cda:	8d 4d d8             	lea    -0x28(%ebp),%ecx
10002cdd:	e8 a9 fc ff ff       	call   0x1000298b
10002ce2:	83 c4 0c             	add    $0xc,%esp
10002ce5:	ff 15 04 55 00 10    	call   *0x10005504
10002ceb:	89 45 c8             	mov    %eax,-0x38(%ebp)
10002cee:	6a 04                	push   $0x4
10002cf0:	8d 55 c8             	lea    -0x38(%ebp),%edx
10002cf3:	8d 4d d8             	lea    -0x28(%ebp),%ecx
10002cf6:	e8 90 fc ff ff       	call   0x1000298b
10002cfb:	59                   	pop    %ecx
10002cfc:	ff 15 73 55 00 10    	call   *0x10005573
10002d02:	89 45 c4             	mov    %eax,-0x3c(%ebp)
10002d05:	6a 04                	push   $0x4
10002d07:	8d 55 c4             	lea    -0x3c(%ebp),%edx
10002d0a:	8d 4d d8             	lea    -0x28(%ebp),%ecx
10002d0d:	e8 79 fc ff ff       	call   0x1000298b
10002d12:	8b 45 18             	mov    0x18(%ebp),%eax
10002d15:	35 41 51 a9 12       	xor    $0x12a95141,%eax
10002d1a:	89 45 c0             	mov    %eax,-0x40(%ebp)
10002d1d:	6a 04                	push   $0x4
10002d1f:	8d 55 c0             	lea    -0x40(%ebp),%edx
10002d22:	8d 4d d8             	lea    -0x28(%ebp),%ecx
10002d25:	e8 61 fc ff ff       	call   0x1000298b
10002d2a:	83 65 bc 00          	andl   $0x0,-0x44(%ebp)
10002d2e:	6a 04                	push   $0x4
10002d30:	8d 55 bc             	lea    -0x44(%ebp),%edx
10002d33:	8d 4d d8             	lea    -0x28(%ebp),%ecx
10002d36:	e8 50 fc ff ff       	call   0x1000298b
10002d3b:	8b 45 0c             	mov    0xc(%ebp),%eax
10002d3e:	35 41 51 a9 12       	xor    $0x12a95141,%eax
10002d43:	89 45 b8             	mov    %eax,-0x48(%ebp)
10002d46:	6a 04                	push   $0x4
10002d48:	8d 55 b8             	lea    -0x48(%ebp),%edx
10002d4b:	8d 4d d8             	lea    -0x28(%ebp),%ecx
10002d4e:	e8 38 fc ff ff       	call   0x1000298b
10002d53:	8a 45 08             	mov    0x8(%ebp),%al
10002d56:	88 45 dc             	mov    %al,-0x24(%ebp)
10002d59:	6a 01                	push   $0x1
10002d5b:	8d 55 dc             	lea    -0x24(%ebp),%edx
10002d5e:	8d 4d d8             	lea    -0x28(%ebp),%ecx
10002d61:	e8 25 fc ff ff       	call   0x1000298b
10002d66:	83 c4 14             	add    $0x14,%esp
10002d69:	8b d3                	mov    %ebx,%edx
10002d6b:	8b cf                	mov    %edi,%ecx
10002d6d:	33 c0                	xor    %eax,%eax
10002d6f:	89 45 d0             	mov    %eax,-0x30(%ebp)
10002d72:	89 4d 9c             	mov    %ecx,-0x64(%ebp)
10002d75:	89 55 98             	mov    %edx,-0x68(%ebp)
10002d78:	85 c9                	test   %ecx,%ecx
10002d7a:	75 04                	jne    0x10002d80
10002d7c:	85 d2                	test   %edx,%edx
10002d7e:	74 14                	je     0x10002d94
10002d80:	8b c2                	mov    %edx,%eax
10002d82:	83 e0 0f             	and    $0xf,%eax
10002d85:	8b 45 d0             	mov    -0x30(%ebp),%eax
10002d88:	74 0a                	je     0x10002d94
10002d8a:	0f ac ca 04          	shrd   $0x4,%ecx,%edx
10002d8e:	c1 e9 04             	shr    $0x4,%ecx
10002d91:	40                   	inc    %eax
10002d92:	eb db                	jmp    0x10002d6f
10002d94:	89 45 b4             	mov    %eax,-0x4c(%ebp)
10002d97:	6a 04                	push   $0x4
10002d99:	8d 55 b4             	lea    -0x4c(%ebp),%edx
10002d9c:	8d 4d d8             	lea    -0x28(%ebp),%ecx
10002d9f:	e8 e7 fb ff ff       	call   0x1000298b
10002da4:	59                   	pop    %ecx
10002da5:	89 7d 9c             	mov    %edi,-0x64(%ebp)
10002da8:	89 5d 98             	mov    %ebx,-0x68(%ebp)
10002dab:	85 ff                	test   %edi,%edi
10002dad:	75 08                	jne    0x10002db7
10002daf:	85 db                	test   %ebx,%ebx
10002db1:	0f 84 b9 00 00 00    	je     0x10002e70
10002db7:	8b c3                	mov    %ebx,%eax
10002db9:	83 e0 0f             	and    $0xf,%eax
10002dbc:	89 45 b4             	mov    %eax,-0x4c(%ebp)
10002dbf:	0f 84 ab 00 00 00    	je     0x10002e70
10002dc5:	89 45 b0             	mov    %eax,-0x50(%ebp)
10002dc8:	6a 04                	push   $0x4
10002dca:	8d 55 b0             	lea    -0x50(%ebp),%edx
10002dcd:	8d 4d d8             	lea    -0x28(%ebp),%ecx
10002dd0:	e8 b6 fb ff ff       	call   0x1000298b
10002dd5:	59                   	pop    %ecx
10002dd6:	8b 45 b4             	mov    -0x4c(%ebp),%eax
10002dd9:	48                   	dec    %eax
10002dda:	83 f8 07             	cmp    $0x7,%eax
10002ddd:	0f 87 81 00 00 00    	ja     0x10002e64
10002de3:	ff 24 85 99 2e 00 10 	jmp    *0x10002e99(,%eax,4)
10002dea:	83 c6 04             	add    $0x4,%esi
10002ded:	89 75 d4             	mov    %esi,-0x2c(%ebp)
10002df0:	8b 4e fc             	mov    -0x4(%esi),%ecx
10002df3:	e8 5f 03 00 00       	call   0x10003157
10002df8:	03 c0                	add    %eax,%eax
10002dfa:	50                   	push   %eax
10002dfb:	8b 56 fc             	mov    -0x4(%esi),%edx
10002dfe:	eb 5b                	jmp    0x10002e5b
10002e00:	83 c6 04             	add    $0x4,%esi
10002e03:	8b 46 fc             	mov    -0x4(%esi),%eax
10002e06:	89 45 ac             	mov    %eax,-0x54(%ebp)
10002e09:	8d 55 ac             	lea    -0x54(%ebp),%edx
10002e0c:	eb 48                	jmp    0x10002e56
10002e0e:	83 c6 04             	add    $0x4,%esi
10002e11:	89 75 d4             	mov    %esi,-0x2c(%ebp)
10002e14:	8b 56 fc             	mov    -0x4(%esi),%edx
10002e17:	8b ca                	mov    %edx,%ecx
10002e19:	89 4d a8             	mov    %ecx,-0x58(%ebp)
10002e1c:	33 c0                	xor    %eax,%eax
10002e1e:	85 d2                	test   %edx,%edx
10002e20:	74 0f                	je     0x10002e31
10002e22:	89 45 a4             	mov    %eax,-0x5c(%ebp)
10002e25:	80 39 00             	cmpb   $0x0,(%ecx)
10002e28:	74 07                	je     0x10002e31
10002e2a:	41                   	inc    %ecx
10002e2b:	89 4d a8             	mov    %ecx,-0x58(%ebp)
10002e2e:	40                   	inc    %eax
10002e2f:	eb f1                	jmp    0x10002e22
10002e31:	50                   	push   %eax
10002e32:	eb 27                	jmp    0x10002e5b
10002e34:	83 c6 08             	add    $0x8,%esi
10002e37:	8b 46 f8             	mov    -0x8(%esi),%eax
10002e3a:	89 45 90             	mov    %eax,-0x70(%ebp)
10002e3d:	8b 46 fc             	mov    -0x4(%esi),%eax
10002e40:	89 45 94             	mov    %eax,-0x6c(%ebp)
10002e43:	6a 08                	push   $0x8
10002e45:	8d 55 90             	lea    -0x70(%ebp),%edx
10002e48:	eb 0e                	jmp    0x10002e58
10002e4a:	83 c6 04             	add    $0x4,%esi
10002e4d:	8b 46 fc             	mov    -0x4(%esi),%eax
10002e50:	89 45 a0             	mov    %eax,-0x60(%ebp)
10002e53:	8d 55 a0             	lea    -0x60(%ebp),%edx
10002e56:	6a 04                	push   $0x4
10002e58:	89 75 d4             	mov    %esi,-0x2c(%ebp)
10002e5b:	8d 4d d8             	lea    -0x28(%ebp),%ecx
10002e5e:	e8 61 fb ff ff       	call   0x100029c4
10002e63:	59                   	pop    %ecx
10002e64:	0f ac fb 04          	shrd   $0x4,%edi,%ebx
10002e68:	c1 ef 04             	shr    $0x4,%edi
10002e6b:	e9 35 ff ff ff       	jmp    0x10002da5
10002e70:	83 7d d8 ff          	cmpl   $0xffffffff,-0x28(%ebp)
10002e74:	74 0b                	je     0x10002e81
10002e76:	e8 51 f6 ff ff       	call   0x100024cc
10002e7b:	ff 75 d8             	pushl  -0x28(%ebp)
10002e7e:	ff 50 4c             	call   *0x4c(%eax)
10002e81:	83 65 d4 00          	andl   $0x0,-0x2c(%ebp)
10002e85:	eb 07                	jmp    0x10002e8e
10002e87:	33 c0                	xor    %eax,%eax
10002e89:	40                   	inc    %eax
10002e8a:	c3                   	ret    
10002e8b:	8b 65 e8             	mov    -0x18(%ebp),%esp
10002e8e:	83 4d fc ff          	orl    $0xffffffff,-0x4(%ebp)
10002e92:	e8 24 f6 ff ff       	call   0x100024bb
10002e97:	c3                   	ret    
10002e98:	90                   	nop
10002e99:	ea 2d 00 10 00 2e 00 	ljmp   $0x2e,$0x10002d
10002ea0:	10 0e                	adc    %cl,(%esi)
10002ea2:	2e 00 10             	add    %dl,%cs:(%eax)
10002ea5:	34 2e                	xor    $0x2e,%al
10002ea7:	00 10                	add    %dl,(%eax)
10002ea9:	00 2e                	add    %ch,(%esi)
10002eab:	00 10                	add    %dl,(%eax)
10002ead:	4a                   	dec    %edx
10002eae:	2e 00 10             	add    %dl,%cs:(%eax)
10002eb1:	00 2e                	add    %ch,(%esi)
10002eb3:	00 10                	add    %dl,(%eax)
10002eb5:	00 2e                	add    %ch,(%esi)
10002eb7:	00 10                	add    %dl,(%eax)
10002eb9:	55                   	push   %ebp
10002eba:	8b ec                	mov    %esp,%ebp
10002ebc:	81 ec 08 02 00 00    	sub    $0x208,%esp
10002ec2:	56                   	push   %esi
10002ec3:	8b f2                	mov    %edx,%esi
10002ec5:	8d 95 f8 fd ff ff    	lea    -0x208(%ebp),%edx
10002ecb:	e8 64 06 00 00       	call   0x10003534
10002ed0:	e8 f7 f5 ff ff       	call   0x100024cc
10002ed5:	8d 8d f8 fd ff ff    	lea    -0x208(%ebp),%ecx
10002edb:	51                   	push   %ecx
10002edc:	ff 90 80 00 00 00    	call   *0x80(%eax)
10002ee2:	8b d6                	mov    %esi,%edx
10002ee4:	8b c8                	mov    %eax,%ecx
10002ee6:	e8 05 00 00 00       	call   0x10002ef0
10002eeb:	5e                   	pop    %esi
10002eec:	8b e5                	mov    %ebp,%esp
10002eee:	5d                   	pop    %ebp
10002eef:	c3                   	ret    
10002ef0:	55                   	push   %ebp
10002ef1:	8b ec                	mov    %esp,%ebp
10002ef3:	83 e4 f8             	and    $0xfffffff8,%esp
10002ef6:	83 ec 34             	sub    $0x34,%esp
10002ef9:	53                   	push   %ebx
10002efa:	56                   	push   %esi
10002efb:	8b f1                	mov    %ecx,%esi
10002efd:	89 54 24 24          	mov    %edx,0x24(%esp)
10002f01:	57                   	push   %edi
10002f02:	85 f6                	test   %esi,%esi
10002f04:	0f 84 f7 00 00 00    	je     0x10003001
10002f0a:	0f b7 06             	movzwl (%esi),%eax
10002f0d:	b9 ab 4f 5e cd       	mov    $0xcd5e4fab,%ecx
10002f12:	33 c1                	xor    %ecx,%eax
10002f14:	3d e6 15 5e cd       	cmp    $0xcd5e15e6,%eax
10002f19:	0f 85 e2 00 00 00    	jne    0x10003001
10002f1f:	8b 5e 3c             	mov    0x3c(%esi),%ebx
10002f22:	03 de                	add    %esi,%ebx
10002f24:	89 5c 24 2c          	mov    %ebx,0x2c(%esp)
10002f28:	8b 03                	mov    (%ebx),%eax
10002f2a:	8b 53 78             	mov    0x78(%ebx),%edx
10002f2d:	33 c1                	xor    %ecx,%eax
10002f2f:	03 d6                	add    %esi,%edx
10002f31:	3d fb 0a 5e cd       	cmp    $0xcd5e0afb,%eax
10002f36:	0f 85 c5 00 00 00    	jne    0x10003001
10002f3c:	3b d6                	cmp    %esi,%edx
10002f3e:	0f 84 bd 00 00 00    	je     0x10003001
10002f44:	8b 42 24             	mov    0x24(%edx),%eax
10002f47:	8b 7a 20             	mov    0x20(%edx),%edi
10002f4a:	03 c6                	add    %esi,%eax
10002f4c:	89 44 24 30          	mov    %eax,0x30(%esp)
10002f50:	03 fe                	add    %esi,%edi
10002f52:	8b 42 1c             	mov    0x1c(%edx),%eax
10002f55:	03 c6                	add    %esi,%eax
10002f57:	89 44 24 38          	mov    %eax,0x38(%esp)
10002f5b:	33 c0                	xor    %eax,%eax
10002f5d:	89 44 24 1c          	mov    %eax,0x1c(%esp)
10002f61:	39 42 18             	cmp    %eax,0x18(%edx)
10002f64:	0f 86 97 00 00 00    	jbe    0x10003001
10002f6a:	b9 c6 4f f8 67       	mov    $0x67f84fc6,%ecx
10002f6f:	89 4c 24 24          	mov    %ecx,0x24(%esp)
10002f73:	8b 07                	mov    (%edi),%eax
10002f75:	03 c6                	add    %esi,%eax
10002f77:	c7 44 24 14 ff ff 3f 	movl   $0x3fffff,0x14(%esp)
10002f7e:	00 
10002f7f:	89 44 24 20          	mov    %eax,0x20(%esp)
10002f83:	89 4c 24 18          	mov    %ecx,0x18(%esp)
10002f87:	8a 00                	mov    (%eax),%al
10002f89:	88 44 24 13          	mov    %al,0x13(%esp)
10002f8d:	84 c0                	test   %al,%al
10002f8f:	8b 44 24 1c          	mov    0x1c(%esp),%eax
10002f93:	74 4d                	je     0x10002fe2
10002f95:	8b 4c 24 14          	mov    0x14(%esp),%ecx
10002f99:	8a 44 24 13          	mov    0x13(%esp),%al
10002f9d:	8b 5c 24 18          	mov    0x18(%esp),%ebx
10002fa1:	85 c9                	test   %ecx,%ecx
10002fa3:	7e 30                	jle    0x10002fd5
10002fa5:	0f b6 c8             	movzbl %al,%ecx
10002fa8:	8b c1                	mov    %ecx,%eax
10002faa:	0f af c9             	imul   %ecx,%ecx
10002fad:	83 e0 07             	and    $0x7,%eax
10002fb0:	c1 e0 09             	shl    $0x9,%eax
10002fb3:	05 27 0c a2 08       	add    $0x8a20c27,%eax
10002fb8:	0f af d8             	imul   %eax,%ebx
10002fbb:	8b 44 24 20          	mov    0x20(%esp),%eax
10002fbf:	33 d9                	xor    %ecx,%ebx
10002fc1:	8b 4c 24 14          	mov    0x14(%esp),%ecx
10002fc5:	40                   	inc    %eax
10002fc6:	49                   	dec    %ecx
10002fc7:	89 44 24 20          	mov    %eax,0x20(%esp)
10002fcb:	89 4c 24 14          	mov    %ecx,0x14(%esp)
10002fcf:	8a 00                	mov    (%eax),%al
10002fd1:	84 c0                	test   %al,%al
10002fd3:	75 cc                	jne    0x10002fa1
10002fd5:	8b 44 24 1c          	mov    0x1c(%esp),%eax
10002fd9:	b9 c6 4f f8 67       	mov    $0x67f84fc6,%ecx
10002fde:	89 5c 24 18          	mov    %ebx,0x18(%esp)
10002fe2:	8b 5c 24 28          	mov    0x28(%esp),%ebx
10002fe6:	3b 5c 24 18          	cmp    0x18(%esp),%ebx
10002fea:	8b 5c 24 2c          	mov    0x2c(%esp),%ebx
10002fee:	74 1a                	je     0x1000300a
10002ff0:	40                   	inc    %eax
10002ff1:	83 c7 04             	add    $0x4,%edi
10002ff4:	89 44 24 1c          	mov    %eax,0x1c(%esp)
10002ff8:	3b 42 18             	cmp    0x18(%edx),%eax
10002ffb:	0f 82 72 ff ff ff    	jb     0x10002f73
10003001:	33 c0                	xor    %eax,%eax
10003003:	5f                   	pop    %edi
10003004:	5e                   	pop    %esi
10003005:	5b                   	pop    %ebx
10003006:	8b e5                	mov    %ebp,%esp
10003008:	5d                   	pop    %ebp
10003009:	c3                   	ret    
1000300a:	8b 4c 24 30          	mov    0x30(%esp),%ecx
1000300e:	8b 7c 24 38          	mov    0x38(%esp),%edi
10003012:	0f b7 04 41          	movzwl (%ecx,%eax,2),%eax
10003016:	8b 3c 87             	mov    (%edi,%eax,4),%edi
10003019:	03 fe                	add    %esi,%edi
1000301b:	3b fa                	cmp    %edx,%edi
1000301d:	0f 82 2d 01 00 00    	jb     0x10003150
10003023:	8b 43 7c             	mov    0x7c(%ebx),%eax
10003026:	03 c2                	add    %edx,%eax
10003028:	3b f8                	cmp    %eax,%edi
1000302a:	0f 83 20 01 00 00    	jae    0x10003150
10003030:	8a 07                	mov    (%edi),%al
10003032:	33 f6                	xor    %esi,%esi
10003034:	8b d7                	mov    %edi,%edx
10003036:	84 c0                	test   %al,%al
10003038:	74 c7                	je     0x10003001
1000303a:	33 c9                	xor    %ecx,%ecx
1000303c:	3c 2e                	cmp    $0x2e,%al
1000303e:	75 02                	jne    0x10003042
10003040:	8b f1                	mov    %ecx,%esi
10003042:	42                   	inc    %edx
10003043:	41                   	inc    %ecx
10003044:	8a 02                	mov    (%edx),%al
10003046:	84 c0                	test   %al,%al
10003048:	75 f2                	jne    0x1000303c
1000304a:	85 f6                	test   %esi,%esi
1000304c:	7e b3                	jle    0x10003001
1000304e:	b8 c6 4f f8 67       	mov    $0x67f84fc6,%eax
10003053:	8b de                	mov    %esi,%ebx
10003055:	8b d7                	mov    %edi,%edx
10003057:	89 44 24 20          	mov    %eax,0x20(%esp)
1000305b:	85 db                	test   %ebx,%ebx
1000305d:	7e 34                	jle    0x10003093
1000305f:	0f b6 0a             	movzbl (%edx),%ecx
10003062:	8d 41 bf             	lea    -0x41(%ecx),%eax
10003065:	66 83 f8 19          	cmp    $0x19,%ax
10003069:	77 03                	ja     0x1000306e
1000306b:	83 c1 20             	add    $0x20,%ecx
1000306e:	0f b7 c9             	movzwl %cx,%ecx
10003071:	8b c1                	mov    %ecx,%eax
10003073:	0f af c9             	imul   %ecx,%ecx
10003076:	83 e0 07             	and    $0x7,%eax
10003079:	c1 e0 09             	shl    $0x9,%eax
1000307c:	05 27 0c a2 08       	add    $0x8a20c27,%eax
10003081:	0f af 44 24 20       	imul   0x20(%esp),%eax
10003086:	33 c1                	xor    %ecx,%eax
10003088:	42                   	inc    %edx
10003089:	4b                   	dec    %ebx
1000308a:	89 44 24 20          	mov    %eax,0x20(%esp)
1000308e:	80 3a 00             	cmpb   $0x0,(%edx)
10003091:	75 c8                	jne    0x1000305b
10003093:	8b c8                	mov    %eax,%ecx
10003095:	e8 38 f4 ff ff       	call   0x100024d2
1000309a:	8b d8                	mov    %eax,%ebx
1000309c:	89 5c 24 14          	mov    %ebx,0x14(%esp)
100030a0:	85 db                	test   %ebx,%ebx
100030a2:	75 5b                	jne    0x100030ff
100030a4:	89 7c 24 3c          	mov    %edi,0x3c(%esp)
100030a8:	66 89 74 24 38       	mov    %si,0x38(%esp)
100030ad:	66 89 74 24 3a       	mov    %si,0x3a(%esp)
100030b2:	e8 15 f4 ff ff       	call   0x100024cc
100030b7:	8b d8                	mov    %eax,%ebx
100030b9:	8d 44 24 38          	lea    0x38(%esp),%eax
100030bd:	6a 01                	push   $0x1
100030bf:	50                   	push   %eax
100030c0:	8d 44 24 38          	lea    0x38(%esp),%eax
100030c4:	50                   	push   %eax
100030c5:	ff 53 0c             	call   *0xc(%ebx)
100030c8:	85 c0                	test   %eax,%eax
100030ca:	0f 85 31 ff ff ff    	jne    0x10003001
100030d0:	8d 44 24 14          	lea    0x14(%esp),%eax
100030d4:	50                   	push   %eax
100030d5:	8d 44 24 34          	lea    0x34(%esp),%eax
100030d9:	50                   	push   %eax
100030da:	6a 00                	push   $0x0
100030dc:	6a 00                	push   $0x0
100030de:	ff 53 30             	call   *0x30(%ebx)
100030e1:	f7 d8                	neg    %eax
100030e3:	1b c0                	sbb    %eax,%eax
100030e5:	f7 d0                	not    %eax
100030e7:	21 44 24 14          	and    %eax,0x14(%esp)
100030eb:	8d 44 24 30          	lea    0x30(%esp),%eax
100030ef:	50                   	push   %eax
100030f0:	ff 53 20             	call   *0x20(%ebx)
100030f3:	8b 5c 24 14          	mov    0x14(%esp),%ebx
100030f7:	85 db                	test   %ebx,%ebx
100030f9:	0f 84 02 ff ff ff    	je     0x10003001
100030ff:	46                   	inc    %esi
10003100:	03 f7                	add    %edi,%esi
10003102:	8a 06                	mov    (%esi),%al
10003104:	84 c0                	test   %al,%al
10003106:	74 38                	je     0x10003140
10003108:	bb c6 4f f8 67       	mov    $0x67f84fc6,%ebx
1000310d:	ba ff ff 3f 00       	mov    $0x3fffff,%edx
10003112:	85 d2                	test   %edx,%edx
10003114:	7e 22                	jle    0x10003138
10003116:	0f b6 c8             	movzbl %al,%ecx
10003119:	8b c1                	mov    %ecx,%eax
1000311b:	0f af c9             	imul   %ecx,%ecx
1000311e:	83 e0 07             	and    $0x7,%eax
10003121:	c1 e0 09             	shl    $0x9,%eax
10003124:	05 27 0c a2 08       	add    $0x8a20c27,%eax
10003129:	0f af c3             	imul   %ebx,%eax
1000312c:	33 c1                	xor    %ecx,%eax
1000312e:	46                   	inc    %esi
1000312f:	8b d8                	mov    %eax,%ebx
10003131:	4a                   	dec    %edx
10003132:	8a 06                	mov    (%esi),%al
10003134:	84 c0                	test   %al,%al
10003136:	75 da                	jne    0x10003112
10003138:	89 5c 24 24          	mov    %ebx,0x24(%esp)
1000313c:	8b 5c 24 14          	mov    0x14(%esp),%ebx
10003140:	8b 54 24 24          	mov    0x24(%esp),%edx
10003144:	8b cb                	mov    %ebx,%ecx
10003146:	e8 a5 fd ff ff       	call   0x10002ef0
1000314b:	e9 b3 fe ff ff       	jmp    0x10003003
10003150:	8b c7                	mov    %edi,%eax
10003152:	e9 ac fe ff ff       	jmp    0x10003003
10003157:	85 c9                	test   %ecx,%ecx
10003159:	75 03                	jne    0x1000315e
1000315b:	33 c0                	xor    %eax,%eax
1000315d:	c3                   	ret    
1000315e:	33 d2                	xor    %edx,%edx
10003160:	8b c2                	mov    %edx,%eax
10003162:	eb 04                	jmp    0x10003168
10003164:	8d 49 02             	lea    0x2(%ecx),%ecx
10003167:	40                   	inc    %eax
10003168:	66 39 11             	cmp    %dx,(%ecx)
1000316b:	75 f7                	jne    0x10003164
1000316d:	c3                   	ret    
1000316e:	55                   	push   %ebp
1000316f:	8b ec                	mov    %esp,%ebp
10003171:	83 e4 f8             	and    $0xfffffff8,%esp
10003174:	83 7d 0c 01          	cmpl   $0x1,0xc(%ebp)
10003178:	75 22                	jne    0x1000319c
1000317a:	ff 15 04 55 00 10    	call   *0x10005504
10003180:	50                   	push   %eax
10003181:	68 c9 86 63 ae       	push   $0xae6386c9
10003186:	6a 00                	push   $0x0
10003188:	68 43 51 a9 12       	push   $0x12a95143
1000318d:	68 f2 c9 dd 2d       	push   $0x2dddc9f2
10003192:	6a 02                	push   $0x2
10003194:	e8 b0 fa ff ff       	call   0x10002c49
10003199:	83 c4 18             	add    $0x18,%esp
1000319c:	33 c0                	xor    %eax,%eax
1000319e:	40                   	inc    %eax
1000319f:	8b e5                	mov    %ebp,%esp
100031a1:	5d                   	pop    %ebp
100031a2:	c2 0c 00             	ret    $0xc
100031a5:	6a 08                	push   $0x8
100031a7:	68 60 43 00 10       	push   $0x10004360
100031ac:	e8 cf f2 ff ff       	call   0x10002480
100031b1:	33 f6                	xor    %esi,%esi
100031b3:	89 75 fc             	mov    %esi,-0x4(%ebp)
100031b6:	ff 4d 08             	decl   0x8(%ebp)
100031b9:	75 79                	jne    0x10003234
100031bb:	89 35 ac 5b 00 10    	mov    %esi,0x10005bac
100031c1:	c7 05 a8 5b 00 10 20 	movl   $0x20,0x10005ba8
100031c8:	00 00 00 
100031cb:	89 35 b0 5b 00 10    	mov    %esi,0x10005bb0
100031d1:	c7 05 b8 5b 00 10 04 	movl   $0x4,0x10005bb8
100031d8:	00 00 00 
100031db:	68 a4 5b 00 10       	push   $0x10005ba4
100031e0:	ff 35 a0 5b 00 10    	pushl  0x10005ba0
100031e6:	ff 15 08 40 00 10    	call   *0x10004008
100031ec:	85 c0                	test   %eax,%eax
100031ee:	75 44                	jne    0x10003234
100031f0:	ff 15 ad 54 00 10    	call   *0x100054ad
100031f6:	50                   	push   %eax
100031f7:	68 c9 86 63 ae       	push   $0xae6386c9
100031fc:	56                   	push   %esi
100031fd:	68 43 51 a9 12       	push   $0x12a95143
10003202:	68 f2 cf 51 93       	push   $0x9351cff2
10003207:	56                   	push   %esi
10003208:	e8 3c fa ff ff       	call   0x10002c49
1000320d:	83 c4 18             	add    $0x18,%esp
10003210:	eb 22                	jmp    0x10003234
10003212:	33 c0                	xor    %eax,%eax
10003214:	40                   	inc    %eax
10003215:	c3                   	ret    
10003216:	8b 65 e8             	mov    -0x18(%ebp),%esp
10003219:	68 c9 86 63 ae       	push   $0xae6386c9
1000321e:	33 f6                	xor    %esi,%esi
10003220:	56                   	push   %esi
10003221:	68 41 51 a9 12       	push   $0x12a95141
10003226:	68 73 e2 0d e4       	push   $0xe40de273
1000322b:	56                   	push   %esi
1000322c:	e8 18 fa ff ff       	call   0x10002c49
10003231:	83 c4 14             	add    $0x14,%esp
10003234:	83 4d fc ff          	orl    $0xffffffff,-0x4(%ebp)
10003238:	e8 7e f2 ff ff       	call   0x100024bb
1000323d:	c2 04 00             	ret    $0x4
10003240:	6a 0c                	push   $0xc
10003242:	68 70 43 00 10       	push   $0x10004370
10003247:	e8 34 f2 ff ff       	call   0x10002480
1000324c:	33 f6                	xor    %esi,%esi
1000324e:	8b fe                	mov    %esi,%edi
10003250:	89 75 fc             	mov    %esi,-0x4(%ebp)
10003253:	c7 05 ac 5b 00 10 01 	movl   $0x1,0x10005bac
1000325a:	00 00 00 
1000325d:	c7 05 a8 5b 00 10 04 	movl   $0x4,0x10005ba8
10003264:	00 00 00 
10003267:	89 35 b0 5b 00 10    	mov    %esi,0x10005bb0
1000326d:	89 35 b8 5b 00 10    	mov    %esi,0x10005bb8
10003273:	bb c9 86 63 ae       	mov    $0xae6386c9,%ebx
10003278:	53                   	push   %ebx
10003279:	56                   	push   %esi
1000327a:	68 41 51 a9 12       	push   $0x12a95141
1000327f:	68 5d af 14 a9       	push   $0xa914af5d
10003284:	6a 02                	push   $0x2
10003286:	e8 be f9 ff ff       	call   0x10002c49
1000328b:	83 c4 14             	add    $0x14,%esp
1000328e:	68 a5 31 00 10       	push   $0x100031a5
10003293:	68 14 41 00 10       	push   $0x10004114
10003298:	ff 15 04 40 00 10    	call   *0x10004004
1000329e:	a3 a0 5b 00 10       	mov    %eax,0x10005ba0
100032a3:	85 c0                	test   %eax,%eax
100032a5:	75 21                	jne    0x100032c8
100032a7:	ff 15 ad 54 00 10    	call   *0x100054ad
100032ad:	50                   	push   %eax
100032ae:	53                   	push   %ebx
100032af:	56                   	push   %esi
100032b0:	68 43 51 a9 12       	push   $0x12a95143
100032b5:	68 07 10 ac 12       	push   $0x12ac1007
100032ba:	56                   	push   %esi
100032bb:	e8 89 f9 ff ff       	call   0x10002c49
100032c0:	83 c4 18             	add    $0x18,%esp
100032c3:	e9 c3 00 00 00       	jmp    0x1000338b
100032c8:	68 a4 5b 00 10       	push   $0x10005ba4
100032cd:	50                   	push   %eax
100032ce:	8b 1d 08 40 00 10    	mov    0x10004008,%ebx
100032d4:	ff d3                	call   *%ebx
100032d6:	85 c0                	test   %eax,%eax
100032d8:	75 19                	jne    0x100032f3
100032da:	ff 15 ad 54 00 10    	call   *0x100054ad
100032e0:	50                   	push   %eax
100032e1:	68 c9 86 63 ae       	push   $0xae6386c9
100032e6:	56                   	push   %esi
100032e7:	68 43 51 a9 12       	push   $0x12a95143
100032ec:	68 67 14 f0 90       	push   $0x90f01467
100032f1:	eb c7                	jmp    0x100032ba
100032f3:	89 35 ac 5b 00 10    	mov    %esi,0x10005bac
100032f9:	33 ff                	xor    %edi,%edi
100032fb:	47                   	inc    %edi
100032fc:	89 3d a8 5b 00 10    	mov    %edi,0x10005ba8
10003302:	89 35 b0 5b 00 10    	mov    %esi,0x10005bb0
10003308:	c7 05 b8 5b 00 10 03 	movl   $0x3,0x10005bb8
1000330f:	00 00 00 
10003312:	68 10 27 00 00       	push   $0x2710
10003317:	ff 15 96 54 00 10    	call   *0x10005496
1000331d:	68 a4 5b 00 10       	push   $0x10005ba4
10003322:	ff 35 a0 5b 00 10    	pushl  0x10005ba0
10003328:	ff d3                	call   *%ebx
1000332a:	85 c0                	test   %eax,%eax
1000332c:	75 20                	jne    0x1000334e
1000332e:	ff 15 ad 54 00 10    	call   *0x100054ad
10003334:	50                   	push   %eax
10003335:	68 c9 86 63 ae       	push   $0xae6386c9
1000333a:	56                   	push   %esi
1000333b:	68 43 51 a9 12       	push   $0x12a95143
10003340:	68 11 d1 ce a7       	push   $0xa7ced111
10003345:	56                   	push   %esi
10003346:	e8 fe f8 ff ff       	call   0x10002c49
1000334b:	83 c4 18             	add    $0x18,%esp
1000334e:	68 30 41 00 10       	push   $0x10004130
10003353:	56                   	push   %esi
10003354:	57                   	push   %edi
10003355:	e8 40 04 00 00       	call   0x1000379a
1000335a:	50                   	push   %eax
1000335b:	ff 15 cd 54 00 10    	call   *0x100054cd
10003361:	8b f8                	mov    %eax,%edi
10003363:	89 7d e4             	mov    %edi,-0x1c(%ebp)
10003366:	85 ff                	test   %edi,%edi
10003368:	74 50                	je     0x100033ba
1000336a:	68 c9 86 63 ae       	push   $0xae6386c9
1000336f:	56                   	push   %esi
10003370:	68 41 51 a9 12       	push   $0x12a95141
10003375:	68 48 78 cf 29       	push   $0x29cf7848
1000337a:	6a 02                	push   $0x2
1000337c:	e8 c8 f8 ff ff       	call   0x10002c49
10003381:	83 c4 14             	add    $0x14,%esp
10003384:	57                   	push   %edi
10003385:	ff 15 89 54 00 10    	call   *0x10005489
1000338b:	85 ff                	test   %edi,%edi
1000338d:	74 2b                	je     0x100033ba
1000338f:	57                   	push   %edi
10003390:	ff 15 ec 54 00 10    	call   *0x100054ec
10003396:	eb 22                	jmp    0x100033ba
10003398:	33 c0                	xor    %eax,%eax
1000339a:	40                   	inc    %eax
1000339b:	c3                   	ret    
1000339c:	8b 65 e8             	mov    -0x18(%ebp),%esp
1000339f:	68 c9 86 63 ae       	push   $0xae6386c9
100033a4:	33 f6                	xor    %esi,%esi
100033a6:	56                   	push   %esi
100033a7:	68 41 51 a9 12       	push   $0x12a95141
100033ac:	68 73 e2 0d e4       	push   $0xe40de273
100033b1:	56                   	push   %esi
100033b2:	e8 92 f8 ff ff       	call   0x10002c49
100033b7:	83 c4 14             	add    $0x14,%esp
100033ba:	83 4d fc ff          	orl    $0xffffffff,-0x4(%ebp)
100033be:	e8 f8 f0 ff ff       	call   0x100024bb
100033c3:	c2 08 00             	ret    $0x8
100033c6:	6a 1c                	push   $0x1c
100033c8:	68 80 43 00 10       	push   $0x10004380
100033cd:	e8 ae f0 ff ff       	call   0x10002480
100033d2:	33 f6                	xor    %esi,%esi
100033d4:	89 75 d4             	mov    %esi,-0x2c(%ebp)
100033d7:	c7 45 d8 40 32 00 10 	movl   $0x10003240,-0x28(%ebp)
100033de:	89 75 dc             	mov    %esi,-0x24(%ebp)
100033e1:	89 75 e0             	mov    %esi,-0x20(%ebp)
100033e4:	8b c6                	mov    %esi,%eax
100033e6:	89 45 e4             	mov    %eax,-0x1c(%ebp)
100033e9:	89 75 fc             	mov    %esi,-0x4(%ebp)
100033ec:	c7 05 a4 5b 00 10 10 	movl   $0x10,0x10005ba4
100033f3:	00 00 00 
100033f6:	c7 05 a8 5b 00 10 02 	movl   $0x2,0x10005ba8
100033fd:	00 00 00 
10003400:	c7 45 d4 14 41 00 10 	movl   $0x10004114,-0x2c(%ebp)
10003407:	8b 3d 50 54 00 10    	mov    0x10005450,%edi
1000340d:	ff d7                	call   *%edi
1000340f:	ba 8c 41 00 10       	mov    $0x1000418c,%edx
10003414:	8b c8                	mov    %eax,%ecx
10003416:	e8 49 02 00 00       	call   0x10003664
1000341b:	85 c0                	test   %eax,%eax
1000341d:	74 21                	je     0x10003440
1000341f:	bf c9 86 63 ae       	mov    $0xae6386c9,%edi
10003424:	57                   	push   %edi
10003425:	56                   	push   %esi
10003426:	bb 41 51 a9 12       	mov    $0x12a95141,%ebx
1000342b:	53                   	push   %ebx
1000342c:	68 d0 26 5f 1a       	push   $0x1a5f26d0
10003431:	6a 02                	push   $0x2
10003433:	e8 11 f8 ff ff       	call   0x10002c49
10003438:	83 c4 14             	add    $0x14,%esp
1000343b:	e9 89 00 00 00       	jmp    0x100034c9
10003440:	ff d7                	call   *%edi
10003442:	ba a0 41 00 10       	mov    $0x100041a0,%edx
10003447:	8b c8                	mov    %eax,%ecx
10003449:	e8 16 02 00 00       	call   0x10003664
1000344e:	bf c9 86 63 ae       	mov    $0xae6386c9,%edi
10003453:	bb 41 51 a9 12       	mov    $0x12a95141,%ebx
10003458:	57                   	push   %edi
10003459:	56                   	push   %esi
1000345a:	53                   	push   %ebx
1000345b:	85 c0                	test   %eax,%eax
1000345d:	74 76                	je     0x100034d5
1000345f:	68 24 2d 14 be       	push   $0xbe142d24
10003464:	6a 02                	push   $0x2
10003466:	e8 de f7 ff ff       	call   0x10002c49
1000346b:	83 c4 14             	add    $0x14,%esp
1000346e:	68 30 41 00 10       	push   $0x10004130
10003473:	56                   	push   %esi
10003474:	6a 01                	push   $0x1
10003476:	e8 1f 03 00 00       	call   0x1000379a
1000347b:	50                   	push   %eax
1000347c:	ff 15 cd 54 00 10    	call   *0x100054cd
10003482:	89 45 e4             	mov    %eax,-0x1c(%ebp)
10003485:	85 c0                	test   %eax,%eax
10003487:	75 0d                	jne    0x10003496
10003489:	57                   	push   %edi
1000348a:	56                   	push   %esi
1000348b:	53                   	push   %ebx
1000348c:	68 60 3c 9a 05       	push   $0x59a3c60
10003491:	e9 89 00 00 00       	jmp    0x1000351f
10003496:	68 20 4e 00 00       	push   $0x4e20
1000349b:	50                   	push   %eax
1000349c:	ff 15 74 54 00 10    	call   *0x10005474
100034a2:	3d 02 01 00 00       	cmp    $0x102,%eax
100034a7:	75 3b                	jne    0x100034e4
100034a9:	57                   	push   %edi
100034aa:	56                   	push   %esi
100034ab:	53                   	push   %ebx
100034ac:	68 1b c9 a4 d1       	push   $0xd1a4c91b
100034b1:	56                   	push   %esi
100034b2:	e8 92 f7 ff ff       	call   0x10002c49
100034b7:	83 c4 14             	add    $0x14,%esp
100034ba:	8b 45 e4             	mov    -0x1c(%ebp),%eax
100034bd:	50                   	push   %eax
100034be:	ff 15 ec 54 00 10    	call   *0x100054ec
100034c4:	8b c6                	mov    %esi,%eax
100034c6:	89 45 e4             	mov    %eax,-0x1c(%ebp)
100034c9:	8d 45 d4             	lea    -0x2c(%ebp),%eax
100034cc:	50                   	push   %eax
100034cd:	ff 15 00 40 00 10    	call   *0x10004000
100034d3:	eb 0f                	jmp    0x100034e4
100034d5:	68 db cc a3 dd       	push   $0xdda3ccdb
100034da:	6a 02                	push   $0x2
100034dc:	e8 68 f7 ff ff       	call   0x10002c49
100034e1:	83 c4 14             	add    $0x14,%esp
100034e4:	57                   	push   %edi
100034e5:	56                   	push   %esi
100034e6:	53                   	push   %ebx
100034e7:	68 db 4b 5b d9       	push   $0xd95b4bdb
100034ec:	6a 02                	push   $0x2
100034ee:	e8 56 f7 ff ff       	call   0x10002c49
100034f3:	83 c4 14             	add    $0x14,%esp
100034f6:	8b 45 e4             	mov    -0x1c(%ebp),%eax
100034f9:	85 c0                	test   %eax,%eax
100034fb:	74 2b                	je     0x10003528
100034fd:	50                   	push   %eax
100034fe:	ff 15 ec 54 00 10    	call   *0x100054ec
10003504:	eb 22                	jmp    0x10003528
10003506:	33 c0                	xor    %eax,%eax
10003508:	40                   	inc    %eax
10003509:	c3                   	ret    
1000350a:	8b 65 e8             	mov    -0x18(%ebp),%esp
1000350d:	68 c9 86 63 ae       	push   $0xae6386c9
10003512:	33 f6                	xor    %esi,%esi
10003514:	56                   	push   %esi
10003515:	68 41 51 a9 12       	push   $0x12a95141
1000351a:	68 10 9d 28 7a       	push   $0x7a289d10
1000351f:	56                   	push   %esi
10003520:	e8 24 f7 ff ff       	call   0x10002c49
10003525:	83 c4 14             	add    $0x14,%esp
10003528:	83 4d fc ff          	orl    $0xffffffff,-0x4(%ebp)
1000352c:	33 c0                	xor    %eax,%eax
1000352e:	e8 88 ef ff ff       	call   0x100024bb
10003533:	c3                   	ret    
10003534:	85 c9                	test   %ecx,%ecx
10003536:	75 06                	jne    0x1000353e
10003538:	33 c0                	xor    %eax,%eax
1000353a:	66 89 02             	mov    %ax,(%edx)
1000353d:	c3                   	ret    
1000353e:	8b 01                	mov    (%ecx),%eax
10003540:	56                   	push   %esi
10003541:	57                   	push   %edi
10003542:	bf f1 86 f1 86       	mov    $0x86f186f1,%edi
10003547:	33 f6                	xor    %esi,%esi
10003549:	33 c7                	xor    %edi,%eax
1000354b:	89 02                	mov    %eax,(%edx)
1000354d:	66 3b c6             	cmp    %si,%ax
10003550:	74 17                	je     0x10003569
10003552:	2b ca                	sub    %edx,%ecx
10003554:	66 39 72 02          	cmp    %si,0x2(%edx)
10003558:	74 0f                	je     0x10003569
1000355a:	83 c2 04             	add    $0x4,%edx
1000355d:	8b 04 11             	mov    (%ecx,%edx,1),%eax
10003560:	33 c7                	xor    %edi,%eax
10003562:	89 02                	mov    %eax,(%edx)
10003564:	66 3b c6             	cmp    %si,%ax
10003567:	75 eb                	jne    0x10003554
10003569:	5f                   	pop    %edi
1000356a:	5e                   	pop    %esi
1000356b:	c3                   	ret    
1000356c:	83 e1 0f             	and    $0xf,%ecx
1000356f:	83 f9 0a             	cmp    $0xa,%ecx
10003572:	72 06                	jb     0x1000357a
10003574:	6a 50                	push   $0x50
10003576:	58                   	pop    %eax
10003577:	2b c1                	sub    %ecx,%eax
10003579:	c3                   	ret    
1000357a:	8d 41 30             	lea    0x30(%ecx),%eax
1000357d:	c3                   	ret    
1000357e:	55                   	push   %ebp
1000357f:	8b ec                	mov    %esp,%ebp
10003581:	69 55 08 f8 1d 1a a6 	imul   $0xa61a1df8,0x8(%ebp),%edx
10003588:	53                   	push   %ebx
10003589:	69 5d 0c 4e 2f 75 bf 	imul   $0xbf752f4e,0xc(%ebp),%ebx
10003590:	56                   	push   %esi
10003591:	57                   	push   %edi
10003592:	8b f9                	mov    %ecx,%edi
10003594:	6a 7b                	push   $0x7b
10003596:	58                   	pop    %eax
10003597:	6a 2d                	push   $0x2d
10003599:	66 89 07             	mov    %ax,(%edi)
1000359c:	58                   	pop    %eax
1000359d:	66 89 47 12          	mov    %ax,0x12(%edi)
100035a1:	66 89 47 1c          	mov    %ax,0x1c(%edi)
100035a5:	66 89 47 26          	mov    %ax,0x26(%edi)
100035a9:	66 89 47 30          	mov    %ax,0x30(%edi)
100035ad:	6a 7d                	push   $0x7d
100035af:	58                   	pop    %eax
100035b0:	66 89 47 4a          	mov    %ax,0x4a(%edi)
100035b4:	33 c0                	xor    %eax,%eax
100035b6:	66 89 47 4c          	mov    %ax,0x4c(%edi)
100035ba:	33 f6                	xor    %esi,%esi
100035bc:	8b cb                	mov    %ebx,%ecx
100035be:	e8 a9 ff ff ff       	call   0x1000356c
100035c3:	c1 eb 04             	shr    $0x4,%ebx
100035c6:	66 89 44 77 02       	mov    %ax,0x2(%edi,%esi,2)
100035cb:	46                   	inc    %esi
100035cc:	83 fe 07             	cmp    $0x7,%esi
100035cf:	7e eb                	jle    0x100035bc
100035d1:	6a 09                	push   $0x9
100035d3:	5e                   	pop    %esi
100035d4:	8b ca                	mov    %edx,%ecx
100035d6:	e8 91 ff ff ff       	call   0x1000356c
100035db:	c1 ea 04             	shr    $0x4,%edx
100035de:	66 89 44 77 02       	mov    %ax,0x2(%edi,%esi,2)
100035e3:	46                   	inc    %esi
100035e4:	83 fe 0c             	cmp    $0xc,%esi
100035e7:	7e eb                	jle    0x100035d4
100035e9:	6a 0e                	push   $0xe
100035eb:	5e                   	pop    %esi
100035ec:	8b ca                	mov    %edx,%ecx
100035ee:	e8 79 ff ff ff       	call   0x1000356c
100035f3:	c1 ea 04             	shr    $0x4,%edx
100035f6:	66 89 44 77 02       	mov    %ax,0x2(%edi,%esi,2)
100035fb:	46                   	inc    %esi
100035fc:	83 fe 11             	cmp    $0x11,%esi
100035ff:	7e eb                	jle    0x100035ec
10003601:	69 4d 0c f8 1d 1a a6 	imul   $0xa61a1df8,0xc(%ebp),%ecx
10003608:	69 55 08 4e 2f 75 bf 	imul   $0xbf752f4e,0x8(%ebp),%edx
1000360f:	e8 58 ff ff ff       	call   0x1000356c
10003614:	0f b7 c8             	movzwl %ax,%ecx
10003617:	8b c1                	mov    %ecx,%eax
10003619:	c1 e1 10             	shl    $0x10,%ecx
1000361c:	0b c1                	or     %ecx,%eax
1000361e:	89 47 28             	mov    %eax,0x28(%edi)
10003621:	6a 04                	push   $0x4
10003623:	89 47 2c             	mov    %eax,0x2c(%edi)
10003626:	58                   	pop    %eax
10003627:	c1 ea 04             	shr    $0x4,%edx
1000362a:	48                   	dec    %eax
1000362b:	75 fa                	jne    0x10003627
1000362d:	6a 18                	push   $0x18
1000362f:	5e                   	pop    %esi
10003630:	8b ca                	mov    %edx,%ecx
10003632:	e8 35 ff ff ff       	call   0x1000356c
10003637:	c1 ea 04             	shr    $0x4,%edx
1000363a:	66 89 44 77 02       	mov    %ax,0x2(%edi,%esi,2)
1000363f:	46                   	inc    %esi
10003640:	83 fe 1b             	cmp    $0x1b,%esi
10003643:	7e eb                	jle    0x10003630
10003645:	8b ca                	mov    %edx,%ecx
10003647:	83 c7 3a             	add    $0x3a,%edi
1000364a:	e8 1d ff ff ff       	call   0x1000356c
1000364f:	0f b7 c8             	movzwl %ax,%ecx
10003652:	8b c1                	mov    %ecx,%eax
10003654:	c1 e1 10             	shl    $0x10,%ecx
10003657:	0b c1                	or     %ecx,%eax
10003659:	ab                   	stos   %eax,%es:(%edi)
1000365a:	ab                   	stos   %eax,%es:(%edi)
1000365b:	ab                   	stos   %eax,%es:(%edi)
1000365c:	ab                   	stos   %eax,%es:(%edi)
1000365d:	33 c0                	xor    %eax,%eax
1000365f:	5f                   	pop    %edi
10003660:	5e                   	pop    %esi
10003661:	5b                   	pop    %ebx
10003662:	5d                   	pop    %ebp
10003663:	c3                   	ret    
10003664:	55                   	push   %ebp
10003665:	8b ec                	mov    %esp,%ebp
10003667:	51                   	push   %ecx
10003668:	51                   	push   %ecx
10003669:	53                   	push   %ebx
1000366a:	8b da                	mov    %edx,%ebx
1000366c:	33 c0                	xor    %eax,%eax
1000366e:	56                   	push   %esi
1000366f:	8b f1                	mov    %ecx,%esi
10003671:	66 39 03             	cmp    %ax,(%ebx)
10003674:	75 07                	jne    0x1000367d
10003676:	8b c6                	mov    %esi,%eax
10003678:	e9 85 00 00 00       	jmp    0x10003702
1000367d:	0f b7 06             	movzwl (%esi),%eax
10003680:	57                   	push   %edi
10003681:	66 85 c0             	test   %ax,%ax
10003684:	74 79                	je     0x100036ff
10003686:	8b fe                	mov    %esi,%edi
10003688:	c7 45 fc 19 00 00 00 	movl   $0x19,-0x4(%ebp)
1000368f:	2b fb                	sub    %ebx,%edi
10003691:	8b d3                	mov    %ebx,%edx
10003693:	66 85 c0             	test   %ax,%ax
10003696:	74 52                	je     0x100036ea
10003698:	0f b7 02             	movzwl (%edx),%eax
1000369b:	66 85 c0             	test   %ax,%ax
1000369e:	74 68                	je     0x10003708
100036a0:	0f b7 0c 17          	movzwl (%edi,%edx,1),%ecx
100036a4:	8d 41 bf             	lea    -0x41(%ecx),%eax
100036a7:	66 3b 45 fc          	cmp    -0x4(%ebp),%ax
100036ab:	77 08                	ja     0x100036b5
100036ad:	8d 41 20             	lea    0x20(%ecx),%eax
100036b0:	0f b7 c0             	movzwl %ax,%eax
100036b3:	eb 02                	jmp    0x100036b7
100036b5:	8b c1                	mov    %ecx,%eax
100036b7:	0f b7 0a             	movzwl (%edx),%ecx
100036ba:	89 45 f8             	mov    %eax,-0x8(%ebp)
100036bd:	8d 41 bf             	lea    -0x41(%ecx),%eax
100036c0:	66 3b 45 fc          	cmp    -0x4(%ebp),%ax
100036c4:	77 08                	ja     0x100036ce
100036c6:	8d 41 20             	lea    0x20(%ecx),%eax
100036c9:	0f b7 c0             	movzwl %ax,%eax
100036cc:	eb 02                	jmp    0x100036d0
100036ce:	8b c1                	mov    %ecx,%eax
100036d0:	8b 4d f8             	mov    -0x8(%ebp),%ecx
100036d3:	0f b7 c0             	movzwl %ax,%eax
100036d6:	0f b7 c9             	movzwl %cx,%ecx
100036d9:	2b c8                	sub    %eax,%ecx
100036db:	75 0d                	jne    0x100036ea
100036dd:	83 c2 02             	add    $0x2,%edx
100036e0:	33 c0                	xor    %eax,%eax
100036e2:	66 39 04 17          	cmp    %ax,(%edi,%edx,1)
100036e6:	75 b0                	jne    0x10003698
100036e8:	eb 02                	jmp    0x100036ec
100036ea:	33 c0                	xor    %eax,%eax
100036ec:	66 39 02             	cmp    %ax,(%edx)
100036ef:	74 17                	je     0x10003708
100036f1:	83 c6 02             	add    $0x2,%esi
100036f4:	83 c7 02             	add    $0x2,%edi
100036f7:	0f b7 06             	movzwl (%esi),%eax
100036fa:	66 85 c0             	test   %ax,%ax
100036fd:	75 92                	jne    0x10003691
100036ff:	33 c0                	xor    %eax,%eax
10003701:	5f                   	pop    %edi
10003702:	5e                   	pop    %esi
10003703:	5b                   	pop    %ebx
10003704:	8b e5                	mov    %ebp,%esp
10003706:	5d                   	pop    %ebp
10003707:	c3                   	ret    
10003708:	8b c6                	mov    %esi,%eax
1000370a:	eb f5                	jmp    0x10003701
1000370c:	55                   	push   %ebp
1000370d:	8b ec                	mov    %esp,%ebp
1000370f:	83 ec 10             	sub    $0x10,%esp
10003712:	53                   	push   %ebx
10003713:	57                   	push   %edi
10003714:	33 ff                	xor    %edi,%edi
10003716:	bb f8 5b 00 10       	mov    $0x10005bf8,%ebx
1000371b:	47                   	inc    %edi
1000371c:	57                   	push   %edi
1000371d:	53                   	push   %ebx
1000371e:	ff 15 6d 56 00 10    	call   *0x1000566d
10003724:	85 c0                	test   %eax,%eax
10003726:	74 6c                	je     0x10003794
10003728:	56                   	push   %esi
10003729:	33 f6                	xor    %esi,%esi
1000372b:	56                   	push   %esi
1000372c:	56                   	push   %esi
1000372d:	57                   	push   %edi
1000372e:	53                   	push   %ebx
1000372f:	ff 15 9a 56 00 10    	call   *0x1000569a
10003735:	85 c0                	test   %eax,%eax
10003737:	74 5a                	je     0x10003793
10003739:	56                   	push   %esi
1000373a:	8d 45 fc             	lea    -0x4(%ebp),%eax
1000373d:	89 75 fc             	mov    %esi,-0x4(%ebp)
10003740:	50                   	push   %eax
10003741:	57                   	push   %edi
10003742:	68 64 42 00 10       	push   $0x10004264
10003747:	e8 f4 ea ff ff       	call   0x10002240
1000374c:	89 75 f4             	mov    %esi,-0xc(%ebp)
1000374f:	89 75 f8             	mov    %esi,-0x8(%ebp)
10003752:	85 c0                	test   %eax,%eax
10003754:	74 25                	je     0x1000377b
10003756:	8d 45 f8             	lea    -0x8(%ebp),%eax
10003759:	50                   	push   %eax
1000375a:	8d 45 f0             	lea    -0x10(%ebp),%eax
1000375d:	50                   	push   %eax
1000375e:	8d 45 f4             	lea    -0xc(%ebp),%eax
10003761:	50                   	push   %eax
10003762:	ff 75 fc             	pushl  -0x4(%ebp)
10003765:	ff 15 fa 56 00 10    	call   *0x100056fa
1000376b:	85 c0                	test   %eax,%eax
1000376d:	74 0c                	je     0x1000377b
1000376f:	56                   	push   %esi
10003770:	ff 75 f0             	pushl  -0x10(%ebp)
10003773:	57                   	push   %edi
10003774:	53                   	push   %ebx
10003775:	ff 15 1a 57 00 10    	call   *0x1000571a
1000377b:	c7 05 ec 5b 00 10 0c 	movl   $0xc,0x10005bec
10003782:	00 00 00 
10003785:	8b c7                	mov    %edi,%eax
10003787:	89 1d f0 5b 00 10    	mov    %ebx,0x10005bf0
1000378d:	89 35 f4 5b 00 10    	mov    %esi,0x10005bf4
10003793:	5e                   	pop    %esi
10003794:	5f                   	pop    %edi
10003795:	5b                   	pop    %ebx
10003796:	8b e5                	mov    %ebp,%esp
10003798:	5d                   	pop    %ebp
10003799:	c3                   	ret    
1000379a:	83 3d 60 58 00 10 00 	cmpl   $0x0,0x10005860
100037a1:	74 11                	je     0x100037b4
100037a3:	e8 64 ff ff ff       	call   0x1000370c
100037a8:	85 c0                	test   %eax,%eax
100037aa:	75 01                	jne    0x100037ad
100037ac:	c3                   	ret    
100037ad:	83 25 60 58 00 10 00 	andl   $0x0,0x10005860
100037b4:	b8 ec 5b 00 10       	mov    $0x10005bec,%eax
100037b9:	c3                   	ret    
100037ba:	ff 25 38 40 00 10    	jmp    *0x10004038
100037c0:	ff 25 3c 40 00 10    	jmp    *0x1000403c
100037c6:	ff 25 40 40 00 10    	jmp    *0x10004040
100037cc:	ff 25 1c 40 00 10    	jmp    *0x1000401c
100037d2:	ff 25 14 40 00 10    	jmp    *0x10004014
100037d8:	ff 25 28 40 00 10    	jmp    *0x10004028
100037de:	ff 25 24 40 00 10    	jmp    *0x10004024
100037e4:	ff 25 44 40 00 10    	jmp    *0x10004044
