
9900c91f6d754f15f73729ce5a4333a718463e24aa7e6192c7527ec5c80dac42:     file format pei-x86-64


Disassembly of section .text:

0000000180001000 <.text>:
   180001000:	cc                   	int3   
   180001001:	cc                   	int3   
   180001002:	cc                   	int3   
   180001003:	cc                   	int3   
   180001004:	cc                   	int3   
   180001005:	cc                   	int3   
   180001006:	66 66 0f 1f 84 00 00 	data16 nopw 0x0(%rax,%rax,1)
   18000100d:	00 00 00 
   180001010:	48 3b 0d f1 5f 00 00 	cmp    0x5ff1(%rip),%rcx        # 0x180007008
   180001017:	75 12                	jne    0x18000102b
   180001019:	48 c1 c1 10          	rol    $0x10,%rcx
   18000101d:	66 f7 c1 ff ff       	test   $0xffff,%cx
   180001022:	75 03                	jne    0x180001027
   180001024:	c2 00 00             	retq   $0x0
   180001027:	48 c1 c9 10          	ror    $0x10,%rcx
   18000102b:	e9 38 04 00 00       	jmpq   0x180001468
   180001030:	48 83 ec 28          	sub    $0x28,%rsp
   180001034:	b9 00 01 00 00       	mov    $0x100,%ecx
   180001039:	ff 15 29 50 00 00    	callq  *0x5029(%rip)        # 0x180006068
   18000103f:	48 89 05 02 71 00 00 	mov    %rax,0x7102(%rip)        # 0x180008148
   180001046:	48 89 05 f3 70 00 00 	mov    %rax,0x70f3(%rip)        # 0x180008140
   18000104d:	48 85 c0             	test   %rax,%rax
   180001050:	75 07                	jne    0x180001059
   180001052:	b8 01 00 00 00       	mov    $0x1,%eax
   180001057:	eb 06                	jmp    0x18000105f
   180001059:	48 83 20 00          	andq   $0x0,(%rax)
   18000105d:	33 c0                	xor    %eax,%eax
   18000105f:	48 83 c4 28          	add    $0x28,%rsp
   180001063:	c3                   	retq   
   180001064:	48 89 5c 24 08       	mov    %rbx,0x8(%rsp)
   180001069:	48 89 6c 24 10       	mov    %rbp,0x10(%rsp)
   18000106e:	56                   	push   %rsi
   18000106f:	57                   	push   %rdi
   180001070:	41 54                	push   %r12
   180001072:	41 55                	push   %r13
   180001074:	41 56                	push   %r14
   180001076:	48 83 ec 20          	sub    $0x20,%rsp
   18000107a:	33 db                	xor    %ebx,%ebx
   18000107c:	4d 8b e0             	mov    %r8,%r12
   18000107f:	4c 8b e9             	mov    %rcx,%r13
   180001082:	3b d3                	cmp    %ebx,%edx
   180001084:	0f 85 a9 00 00 00    	jne    0x180001133
   18000108a:	8b 05 e4 68 00 00    	mov    0x68e4(%rip),%eax        # 0x180007974
   180001090:	3b c3                	cmp    %ebx,%eax
   180001092:	0f 8e 94 00 00 00    	jle    0x18000112c
   180001098:	8d 7b 01             	lea    0x1(%rbx),%edi
   18000109b:	2b c7                	sub    %edi,%eax
   18000109d:	89 05 d1 68 00 00    	mov    %eax,0x68d1(%rip)        # 0x180007974
   1800010a3:	eb 0b                	jmp    0x1800010b0
   1800010a5:	b9 e8 03 00 00       	mov    $0x3e8,%ecx
   1800010aa:	ff 15 96 62 00 00    	callq  *0x6296(%rip)        # 0x180007346
   1800010b0:	33 c0                	xor    %eax,%eax
   1800010b2:	f0 48 0f b1 3d 6d 70 	lock cmpxchg %rdi,0x706d(%rip)        # 0x180008128
   1800010b9:	00 00 
   1800010bb:	75 e8                	jne    0x1800010a5
   1800010bd:	8b 05 5d 70 00 00    	mov    0x705d(%rip),%eax        # 0x180008120
   1800010c3:	83 f8 02             	cmp    $0x2,%eax
   1800010c6:	74 0f                	je     0x1800010d7
   1800010c8:	b9 1f 00 00 00       	mov    $0x1f,%ecx
   1800010cd:	e8 fc 3e 00 00       	callq  0x180004fce
   1800010d2:	e9 46 01 00 00       	jmpq   0x18000121d
   1800010d7:	48 8b 2d 6a 70 00 00 	mov    0x706a(%rip),%rbp        # 0x180008148
   1800010de:	48 3b eb             	cmp    %rbx,%rbp
   1800010e1:	74 37                	je     0x18000111a
   1800010e3:	48 8b 35 56 70 00 00 	mov    0x7056(%rip),%rsi        # 0x180008140
   1800010ea:	48 83 c6 f8          	add    $0xfffffffffffffff8,%rsi
   1800010ee:	eb 0e                	jmp    0x1800010fe
   1800010f0:	48 8b 06             	mov    (%rsi),%rax
   1800010f3:	48 3b c3             	cmp    %rbx,%rax
   1800010f6:	74 02                	je     0x1800010fa
   1800010f8:	ff d0                	callq  *%rax
   1800010fa:	48 83 ee 08          	sub    $0x8,%rsi
   1800010fe:	48 3b f5             	cmp    %rbp,%rsi
   180001101:	73 ed                	jae    0x1800010f0
   180001103:	48 8b cd             	mov    %rbp,%rcx
   180001106:	ff 15 54 4f 00 00    	callq  *0x4f54(%rip)        # 0x180006060
   18000110c:	48 89 1d 2d 70 00 00 	mov    %rbx,0x702d(%rip)        # 0x180008140
   180001113:	48 89 1d 2e 70 00 00 	mov    %rbx,0x702e(%rip)        # 0x180008148
   18000111a:	89 1d 00 70 00 00    	mov    %ebx,0x7000(%rip)        # 0x180008120
   180001120:	48 87 1d 01 70 00 00 	xchg   %rbx,0x7001(%rip)        # 0x180008128
   180001127:	e9 f1 00 00 00       	jmpq   0x18000121d
   18000112c:	33 c0                	xor    %eax,%eax
   18000112e:	e9 ec 00 00 00       	jmpq   0x18000121f
   180001133:	bf 01 00 00 00       	mov    $0x1,%edi
   180001138:	3b d7                	cmp    %edi,%edx
   18000113a:	0f 85 dd 00 00 00    	jne    0x18000121d
   180001140:	65 48 8b 04 25 30 00 	mov    %gs:0x30,%rax
   180001147:	00 00 
   180001149:	8b eb                	mov    %ebx,%ebp
   18000114b:	48 8b 70 08          	mov    0x8(%rax),%rsi
   18000114f:	eb 10                	jmp    0x180001161
   180001151:	48 3b c6             	cmp    %rsi,%rax
   180001154:	74 1a                	je     0x180001170
   180001156:	b9 e8 03 00 00       	mov    $0x3e8,%ecx
   18000115b:	ff 15 e5 61 00 00    	callq  *0x61e5(%rip)        # 0x180007346
   180001161:	33 c0                	xor    %eax,%eax
   180001163:	f0 48 0f b1 35 bc 6f 	lock cmpxchg %rsi,0x6fbc(%rip)        # 0x180008128
   18000116a:	00 00 
   18000116c:	75 e3                	jne    0x180001151
   18000116e:	eb 02                	jmp    0x180001172
   180001170:	8b ef                	mov    %edi,%ebp
   180001172:	8b 05 a8 6f 00 00    	mov    0x6fa8(%rip),%eax        # 0x180008120
   180001178:	3b c3                	cmp    %ebx,%eax
   18000117a:	74 0c                	je     0x180001188
   18000117c:	b9 1f 00 00 00       	mov    $0x1f,%ecx
   180001181:	e8 48 3e 00 00       	callq  0x180004fce
   180001186:	eb 57                	jmp    0x1800011df
   180001188:	48 8d 35 19 4f 00 00 	lea    0x4f19(%rip),%rsi        # 0x1800060a8
   18000118f:	4c 8d 35 22 4f 00 00 	lea    0x4f22(%rip),%r14        # 0x1800060b8
   180001196:	89 3d 84 6f 00 00    	mov    %edi,0x6f84(%rip)        # 0x180008120
   18000119c:	8b c3                	mov    %ebx,%eax
   18000119e:	49 3b f6             	cmp    %r14,%rsi
   1800011a1:	73 1f                	jae    0x1800011c2
   1800011a3:	3b c3                	cmp    %ebx,%eax
   1800011a5:	75 85                	jne    0x18000112c
   1800011a7:	48 8b 0e             	mov    (%rsi),%rcx
   1800011aa:	48 3b cb             	cmp    %rbx,%rcx
   1800011ad:	74 02                	je     0x1800011b1
   1800011af:	ff d1                	callq  *%rcx
   1800011b1:	48 83 c6 08          	add    $0x8,%rsi
   1800011b5:	49 3b f6             	cmp    %r14,%rsi
   1800011b8:	72 e9                	jb     0x1800011a3
   1800011ba:	3b c3                	cmp    %ebx,%eax
   1800011bc:	0f 85 6a ff ff ff    	jne    0x18000112c
   1800011c2:	48 8d 15 d7 4e 00 00 	lea    0x4ed7(%rip),%rdx        # 0x1800060a0
   1800011c9:	48 8d 0d c8 4e 00 00 	lea    0x4ec8(%rip),%rcx        # 0x180006098
   1800011d0:	e8 f3 3d 00 00       	callq  0x180004fc8
   1800011d5:	c7 05 41 6f 00 00 02 	movl   $0x2,0x6f41(%rip)        # 0x180008120
   1800011dc:	00 00 00 
   1800011df:	3b eb                	cmp    %ebx,%ebp
   1800011e1:	75 0a                	jne    0x1800011ed
   1800011e3:	48 8b c3             	mov    %rbx,%rax
   1800011e6:	48 87 05 3b 6f 00 00 	xchg   %rax,0x6f3b(%rip)        # 0x180008128
   1800011ed:	48 39 1d 44 6f 00 00 	cmp    %rbx,0x6f44(%rip)        # 0x180008138
   1800011f4:	74 21                	je     0x180001217
   1800011f6:	48 8d 0d 3b 6f 00 00 	lea    0x6f3b(%rip),%rcx        # 0x180008138
   1800011fd:	e8 06 04 00 00       	callq  0x180001608
   180001202:	3b c3                	cmp    %ebx,%eax
   180001204:	74 11                	je     0x180001217
   180001206:	4d 8b c4             	mov    %r12,%r8
   180001209:	ba 02 00 00 00       	mov    $0x2,%edx
   18000120e:	49 8b cd             	mov    %r13,%rcx
   180001211:	ff 15 21 6f 00 00    	callq  *0x6f21(%rip)        # 0x180008138
   180001217:	01 3d 57 67 00 00    	add    %edi,0x6757(%rip)        # 0x180007974
   18000121d:	8b c7                	mov    %edi,%eax
   18000121f:	48 8b 5c 24 50       	mov    0x50(%rsp),%rbx
   180001224:	48 8b 6c 24 58       	mov    0x58(%rsp),%rbp
   180001229:	48 83 c4 20          	add    $0x20,%rsp
   18000122d:	41 5e                	pop    %r14
   18000122f:	41 5d                	pop    %r13
   180001231:	41 5c                	pop    %r12
   180001233:	5f                   	pop    %rdi
   180001234:	5e                   	pop    %rsi
   180001235:	c3                   	retq   
   180001236:	cc                   	int3   
   180001237:	cc                   	int3   
   180001238:	4c 89 44 24 18       	mov    %r8,0x18(%rsp)
   18000123d:	89 54 24 10          	mov    %edx,0x10(%rsp)
   180001241:	48 89 4c 24 08       	mov    %rcx,0x8(%rsp)
   180001246:	53                   	push   %rbx
   180001247:	56                   	push   %rsi
   180001248:	57                   	push   %rdi
   180001249:	48 81 ec 40 01 00 00 	sub    $0x140,%rsp
   180001250:	8b fa                	mov    %edx,%edi
   180001252:	48 8b f1             	mov    %rcx,%rsi
   180001255:	bb 01 00 00 00       	mov    $0x1,%ebx
   18000125a:	89 5c 24 20          	mov    %ebx,0x20(%rsp)
   18000125e:	89 15 bc 5d 00 00    	mov    %edx,0x5dbc(%rip)        # 0x180007020
   180001264:	85 d2                	test   %edx,%edx
   180001266:	75 13                	jne    0x18000127b
   180001268:	39 15 06 67 00 00    	cmp    %edx,0x6706(%rip)        # 0x180007974
   18000126e:	75 0b                	jne    0x18000127b
   180001270:	33 db                	xor    %ebx,%ebx
   180001272:	89 5c 24 20          	mov    %ebx,0x20(%rsp)
   180001276:	e9 93 01 00 00       	jmpq   0x18000140e
   18000127b:	83 fa 01             	cmp    $0x1,%edx
   18000127e:	74 05                	je     0x180001285
   180001280:	83 fa 02             	cmp    $0x2,%edx
   180001283:	75 78                	jne    0x1800012fd
   180001285:	48 8b 05 a4 6e 00 00 	mov    0x6ea4(%rip),%rax        # 0x180008130
   18000128c:	48 85 c0             	test   %rax,%rax
   18000128f:	74 31                	je     0x1800012c2
   180001291:	c7 05 dd 66 00 00 01 	movl   $0x1,0x66dd(%rip)        # 0x180007978
   180001298:	00 00 00 
   18000129b:	4c 8b 84 24 70 01 00 	mov    0x170(%rsp),%r8
   1800012a2:	00 
   1800012a3:	ff d0                	callq  *%rax
   1800012a5:	8b d8                	mov    %eax,%ebx
   1800012a7:	89 44 24 20          	mov    %eax,0x20(%rsp)
   1800012ab:	eb 15                	jmp    0x1800012c2
   1800012ad:	33 db                	xor    %ebx,%ebx
   1800012af:	89 5c 24 20          	mov    %ebx,0x20(%rsp)
   1800012b3:	8b bc 24 68 01 00 00 	mov    0x168(%rsp),%edi
   1800012ba:	48 8b b4 24 60 01 00 	mov    0x160(%rsp),%rsi
   1800012c1:	00 
   1800012c2:	85 db                	test   %ebx,%ebx
   1800012c4:	74 2f                	je     0x1800012f5
   1800012c6:	4c 8b 84 24 70 01 00 	mov    0x170(%rsp),%r8
   1800012cd:	00 
   1800012ce:	8b d7                	mov    %edi,%edx
   1800012d0:	48 8b ce             	mov    %rsi,%rcx
   1800012d3:	e8 8c fd ff ff       	callq  0x180001064
   1800012d8:	8b d8                	mov    %eax,%ebx
   1800012da:	89 44 24 20          	mov    %eax,0x20(%rsp)
   1800012de:	eb 15                	jmp    0x1800012f5
   1800012e0:	33 db                	xor    %ebx,%ebx
   1800012e2:	89 5c 24 20          	mov    %ebx,0x20(%rsp)
   1800012e6:	8b bc 24 68 01 00 00 	mov    0x168(%rsp),%edi
   1800012ed:	48 8b b4 24 60 01 00 	mov    0x160(%rsp),%rsi
   1800012f4:	00 
   1800012f5:	85 db                	test   %ebx,%ebx
   1800012f7:	0f 84 11 01 00 00    	je     0x18000140e
   1800012fd:	4c 8b 84 24 70 01 00 	mov    0x170(%rsp),%r8
   180001304:	00 
   180001305:	8b d7                	mov    %edi,%edx
   180001307:	48 8b ce             	mov    %rsi,%rcx
   18000130a:	e8 c9 35 00 00       	callq  0x1800048d8
   18000130f:	8b d8                	mov    %eax,%ebx
   180001311:	89 44 24 20          	mov    %eax,0x20(%rsp)
   180001315:	eb 15                	jmp    0x18000132c
   180001317:	33 db                	xor    %ebx,%ebx
   180001319:	89 5c 24 20          	mov    %ebx,0x20(%rsp)
   18000131d:	8b bc 24 68 01 00 00 	mov    0x168(%rsp),%edi
   180001324:	48 8b b4 24 60 01 00 	mov    0x160(%rsp),%rsi
   18000132b:	00 
   18000132c:	83 ff 01             	cmp    $0x1,%edi
   18000132f:	75 73                	jne    0x1800013a4
   180001331:	85 db                	test   %ebx,%ebx
   180001333:	75 6f                	jne    0x1800013a4
   180001335:	45 33 c0             	xor    %r8d,%r8d
   180001338:	33 d2                	xor    %edx,%edx
   18000133a:	48 8b ce             	mov    %rsi,%rcx
   18000133d:	e8 96 35 00 00       	callq  0x1800048d8
   180001342:	eb 13                	jmp    0x180001357
   180001344:	8b bc 24 68 01 00 00 	mov    0x168(%rsp),%edi
   18000134b:	48 8b b4 24 60 01 00 	mov    0x160(%rsp),%rsi
   180001352:	00 
   180001353:	8b 5c 24 20          	mov    0x20(%rsp),%ebx
   180001357:	45 33 c0             	xor    %r8d,%r8d
   18000135a:	33 d2                	xor    %edx,%edx
   18000135c:	48 8b ce             	mov    %rsi,%rcx
   18000135f:	e8 00 fd ff ff       	callq  0x180001064
   180001364:	eb 13                	jmp    0x180001379
   180001366:	8b bc 24 68 01 00 00 	mov    0x168(%rsp),%edi
   18000136d:	48 8b b4 24 60 01 00 	mov    0x160(%rsp),%rsi
   180001374:	00 
   180001375:	8b 5c 24 20          	mov    0x20(%rsp),%ebx
   180001379:	48 8b 05 b0 6d 00 00 	mov    0x6db0(%rip),%rax        # 0x180008130
   180001380:	48 85 c0             	test   %rax,%rax
   180001383:	74 1f                	je     0x1800013a4
   180001385:	45 33 c0             	xor    %r8d,%r8d
   180001388:	33 d2                	xor    %edx,%edx
   18000138a:	48 8b ce             	mov    %rsi,%rcx
   18000138d:	ff d0                	callq  *%rax
   18000138f:	eb 13                	jmp    0x1800013a4
   180001391:	8b bc 24 68 01 00 00 	mov    0x168(%rsp),%edi
   180001398:	48 8b b4 24 60 01 00 	mov    0x160(%rsp),%rsi
   18000139f:	00 
   1800013a0:	8b 5c 24 20          	mov    0x20(%rsp),%ebx
   1800013a4:	85 ff                	test   %edi,%edi
   1800013a6:	74 05                	je     0x1800013ad
   1800013a8:	83 ff 03             	cmp    $0x3,%edi
   1800013ab:	75 61                	jne    0x18000140e
   1800013ad:	4c 8b 84 24 70 01 00 	mov    0x170(%rsp),%r8
   1800013b4:	00 
   1800013b5:	8b d7                	mov    %edi,%edx
   1800013b7:	48 8b ce             	mov    %rsi,%rcx
   1800013ba:	e8 a5 fc ff ff       	callq  0x180001064
   1800013bf:	8b d8                	mov    %eax,%ebx
   1800013c1:	89 44 24 20          	mov    %eax,0x20(%rsp)
   1800013c5:	eb 15                	jmp    0x1800013dc
   1800013c7:	33 db                	xor    %ebx,%ebx
   1800013c9:	89 5c 24 20          	mov    %ebx,0x20(%rsp)
   1800013cd:	8b bc 24 68 01 00 00 	mov    0x168(%rsp),%edi
   1800013d4:	48 8b b4 24 60 01 00 	mov    0x160(%rsp),%rsi
   1800013db:	00 
   1800013dc:	48 8b 05 4d 6d 00 00 	mov    0x6d4d(%rip),%rax        # 0x180008130
   1800013e3:	48 85 c0             	test   %rax,%rax
   1800013e6:	74 26                	je     0x18000140e
   1800013e8:	83 3d 89 65 00 00 00 	cmpl   $0x0,0x6589(%rip)        # 0x180007978
   1800013ef:	74 1d                	je     0x18000140e
   1800013f1:	4c 8b 84 24 70 01 00 	mov    0x170(%rsp),%r8
   1800013f8:	00 
   1800013f9:	8b d7                	mov    %edi,%edx
   1800013fb:	48 8b ce             	mov    %rsi,%rcx
   1800013fe:	ff d0                	callq  *%rax
   180001400:	8b d8                	mov    %eax,%ebx
   180001402:	89 44 24 20          	mov    %eax,0x20(%rsp)
   180001406:	eb 06                	jmp    0x18000140e
   180001408:	33 db                	xor    %ebx,%ebx
   18000140a:	89 5c 24 20          	mov    %ebx,0x20(%rsp)
   18000140e:	c7 05 08 5c 00 00 ff 	movl   $0xffffffff,0x5c08(%rip)        # 0x180007020
   180001415:	ff ff ff 
   180001418:	8b c3                	mov    %ebx,%eax
   18000141a:	48 81 c4 40 01 00 00 	add    $0x140,%rsp
   180001421:	5f                   	pop    %rdi
   180001422:	5e                   	pop    %rsi
   180001423:	5b                   	pop    %rbx
   180001424:	c3                   	retq   
   180001425:	cc                   	int3   
   180001426:	cc                   	int3   
   180001427:	cc                   	int3   
   180001428:	48 89 5c 24 08       	mov    %rbx,0x8(%rsp)
   18000142d:	48 89 74 24 10       	mov    %rsi,0x10(%rsp)
   180001432:	57                   	push   %rdi
   180001433:	48 83 ec 20          	sub    $0x20,%rsp
   180001437:	49 8b f8             	mov    %r8,%rdi
   18000143a:	8b da                	mov    %edx,%ebx
   18000143c:	48 8b f1             	mov    %rcx,%rsi
   18000143f:	83 fa 01             	cmp    $0x1,%edx
   180001442:	75 05                	jne    0x180001449
   180001444:	e8 03 02 00 00       	callq  0x18000164c
   180001449:	4c 8b c7             	mov    %rdi,%r8
   18000144c:	8b d3                	mov    %ebx,%edx
   18000144e:	48 8b ce             	mov    %rsi,%rcx
   180001451:	48 8b 5c 24 30       	mov    0x30(%rsp),%rbx
   180001456:	48 8b 74 24 38       	mov    0x38(%rsp),%rsi
   18000145b:	48 83 c4 20          	add    $0x20,%rsp
   18000145f:	5f                   	pop    %rdi
   180001460:	e9 d3 fd ff ff       	jmpq   0x180001238
   180001465:	cc                   	int3   
   180001466:	cc                   	int3   
   180001467:	cc                   	int3   
   180001468:	48 89 4c 24 08       	mov    %rcx,0x8(%rsp)
   18000146d:	48 81 ec 88 00 00 00 	sub    $0x88,%rsp
   180001474:	48 8d 0d a5 65 00 00 	lea    0x65a5(%rip),%rcx        # 0x180007a20
   18000147b:	ff 15 bf 4b 00 00    	callq  *0x4bbf(%rip)        # 0x180006040
   180001481:	4c 8b 1d 90 66 00 00 	mov    0x6690(%rip),%r11        # 0x180007b18
   180001488:	4c 89 5c 24 58       	mov    %r11,0x58(%rsp)
   18000148d:	45 33 c0             	xor    %r8d,%r8d
   180001490:	48 8d 54 24 60       	lea    0x60(%rsp),%rdx
   180001495:	48 8b 4c 24 58       	mov    0x58(%rsp),%rcx
   18000149a:	e8 3b 3b 00 00       	callq  0x180004fda
   18000149f:	48 89 44 24 50       	mov    %rax,0x50(%rsp)
   1800014a4:	48 83 7c 24 50 00    	cmpq   $0x0,0x50(%rsp)
   1800014aa:	74 41                	je     0x1800014ed
   1800014ac:	48 c7 44 24 38 00 00 	movq   $0x0,0x38(%rsp)
   1800014b3:	00 00 
   1800014b5:	48 8d 44 24 48       	lea    0x48(%rsp),%rax
   1800014ba:	48 89 44 24 30       	mov    %rax,0x30(%rsp)
   1800014bf:	48 8d 44 24 40       	lea    0x40(%rsp),%rax
   1800014c4:	48 89 44 24 28       	mov    %rax,0x28(%rsp)
   1800014c9:	48 8d 05 50 65 00 00 	lea    0x6550(%rip),%rax        # 0x180007a20
   1800014d0:	48 89 44 24 20       	mov    %rax,0x20(%rsp)
   1800014d5:	4c 8b 4c 24 50       	mov    0x50(%rsp),%r9
   1800014da:	4c 8b 44 24 58       	mov    0x58(%rsp),%r8
   1800014df:	48 8b 54 24 60       	mov    0x60(%rsp),%rdx
   1800014e4:	33 c9                	xor    %ecx,%ecx
   1800014e6:	e8 e9 3a 00 00       	callq  0x180004fd4
   1800014eb:	eb 22                	jmp    0x18000150f
   1800014ed:	48 8b 84 24 88 00 00 	mov    0x88(%rsp),%rax
   1800014f4:	00 
   1800014f5:	48 89 05 1c 66 00 00 	mov    %rax,0x661c(%rip)        # 0x180007b18
   1800014fc:	48 8d 84 24 88 00 00 	lea    0x88(%rsp),%rax
   180001503:	00 
   180001504:	48 83 c0 08          	add    $0x8,%rax
   180001508:	48 89 05 a9 65 00 00 	mov    %rax,0x65a9(%rip)        # 0x180007ab8
   18000150f:	48 8b 05 02 66 00 00 	mov    0x6602(%rip),%rax        # 0x180007b18
   180001516:	48 89 05 73 64 00 00 	mov    %rax,0x6473(%rip)        # 0x180007990
   18000151d:	48 8b 84 24 90 00 00 	mov    0x90(%rsp),%rax
   180001524:	00 
   180001525:	48 89 05 74 65 00 00 	mov    %rax,0x6574(%rip)        # 0x180007aa0
   18000152c:	c7 05 4a 64 00 00 09 	movl   $0xc0000409,0x644a(%rip)        # 0x180007980
   180001533:	04 00 c0 
   180001536:	c7 05 44 64 00 00 01 	movl   $0x1,0x6444(%rip)        # 0x180007984
   18000153d:	00 00 00 
   180001540:	48 8b 05 c1 5a 00 00 	mov    0x5ac1(%rip),%rax        # 0x180007008
   180001547:	48 89 44 24 68       	mov    %rax,0x68(%rsp)
   18000154c:	48 8b 05 bd 5a 00 00 	mov    0x5abd(%rip),%rax        # 0x180007010
   180001553:	48 89 44 24 70       	mov    %rax,0x70(%rsp)
   180001558:	33 c9                	xor    %ecx,%ecx
   18000155a:	ff 15 5c 63 00 00    	callq  *0x635c(%rip)        # 0x1800078bc
   180001560:	48 8d 0d a9 4b 00 00 	lea    0x4ba9(%rip),%rcx        # 0x180006110
   180001567:	ff 15 1c 63 00 00    	callq  *0x631c(%rip)        # 0x180007889
   18000156d:	ff 15 ef 62 00 00    	callq  *0x62ef(%rip)        # 0x180007862
   180001573:	ba 09 04 00 c0       	mov    $0xc0000409,%edx
   180001578:	48 8b c8             	mov    %rax,%rcx
   18000157b:	ff 15 c0 62 00 00    	callq  *0x62c0(%rip)        # 0x180007841
   180001581:	48 81 c4 88 00 00 00 	add    $0x88,%rsp
   180001588:	c3                   	retq   
   180001589:	cc                   	int3   
   18000158a:	cc                   	int3   
   18000158b:	cc                   	int3   
   18000158c:	cc                   	int3   
   18000158d:	cc                   	int3   
   18000158e:	cc                   	int3   
   18000158f:	cc                   	int3   
   180001590:	48 8b c1             	mov    %rcx,%rax
   180001593:	b9 4d 5a 00 00       	mov    $0x5a4d,%ecx
   180001598:	66 39 08             	cmp    %cx,(%rax)
   18000159b:	74 03                	je     0x1800015a0
   18000159d:	33 c0                	xor    %eax,%eax
   18000159f:	c3                   	retq   
   1800015a0:	48 63 48 3c          	movslq 0x3c(%rax),%rcx
   1800015a4:	48 03 c8             	add    %rax,%rcx
   1800015a7:	33 c0                	xor    %eax,%eax
   1800015a9:	81 39 50 45 00 00    	cmpl   $0x4550,(%rcx)
   1800015af:	75 0c                	jne    0x1800015bd
   1800015b1:	ba 0b 02 00 00       	mov    $0x20b,%edx
   1800015b6:	66 39 51 18          	cmp    %dx,0x18(%rcx)
   1800015ba:	0f 94 c0             	sete   %al
   1800015bd:	f3 c3                	repz retq 
   1800015bf:	cc                   	int3   
   1800015c0:	4c 63 41 3c          	movslq 0x3c(%rcx),%r8
   1800015c4:	45 33 c9             	xor    %r9d,%r9d
   1800015c7:	4c 8b d2             	mov    %rdx,%r10
   1800015ca:	4c 03 c1             	add    %rcx,%r8
   1800015cd:	41 0f b7 40 14       	movzwl 0x14(%r8),%eax
   1800015d2:	45 0f b7 58 06       	movzwl 0x6(%r8),%r11d
   1800015d7:	4a 8d 4c 00 18       	lea    0x18(%rax,%r8,1),%rcx
   1800015dc:	45 85 db             	test   %r11d,%r11d
   1800015df:	74 1e                	je     0x1800015ff
   1800015e1:	8b 51 0c             	mov    0xc(%rcx),%edx
   1800015e4:	4c 3b d2             	cmp    %rdx,%r10
   1800015e7:	72 0a                	jb     0x1800015f3
   1800015e9:	8b 41 08             	mov    0x8(%rcx),%eax
   1800015ec:	03 c2                	add    %edx,%eax
   1800015ee:	4c 3b d0             	cmp    %rax,%r10
   1800015f1:	72 0f                	jb     0x180001602
   1800015f3:	41 ff c1             	inc    %r9d
   1800015f6:	48 83 c1 28          	add    $0x28,%rcx
   1800015fa:	45 3b cb             	cmp    %r11d,%r9d
   1800015fd:	72 e2                	jb     0x1800015e1
   1800015ff:	33 c0                	xor    %eax,%eax
   180001601:	c3                   	retq   
   180001602:	48 8b c1             	mov    %rcx,%rax
   180001605:	c3                   	retq   
   180001606:	cc                   	int3   
   180001607:	cc                   	int3   
   180001608:	48 83 ec 28          	sub    $0x28,%rsp
   18000160c:	4c 8b c1             	mov    %rcx,%r8
   18000160f:	4c 8d 0d ea e9 ff ff 	lea    -0x1616(%rip),%r9        # 0x180000000
   180001616:	49 8b c9             	mov    %r9,%rcx
   180001619:	e8 72 ff ff ff       	callq  0x180001590
   18000161e:	85 c0                	test   %eax,%eax
   180001620:	74 22                	je     0x180001644
   180001622:	4d 2b c1             	sub    %r9,%r8
   180001625:	49 8b d0             	mov    %r8,%rdx
   180001628:	49 8b c9             	mov    %r9,%rcx
   18000162b:	e8 90 ff ff ff       	callq  0x1800015c0
   180001630:	48 85 c0             	test   %rax,%rax
   180001633:	74 0f                	je     0x180001644
   180001635:	8b 40 24             	mov    0x24(%rax),%eax
   180001638:	c1 e8 1f             	shr    $0x1f,%eax
   18000163b:	f7 d0                	not    %eax
   18000163d:	83 e0 01             	and    $0x1,%eax
   180001640:	eb 02                	jmp    0x180001644
   180001642:	33 c0                	xor    %eax,%eax
   180001644:	48 83 c4 28          	add    $0x28,%rsp
   180001648:	c3                   	retq   
   180001649:	cc                   	int3   
   18000164a:	cc                   	int3   
   18000164b:	cc                   	int3   
   18000164c:	48 89 5c 24 18       	mov    %rbx,0x18(%rsp)
   180001651:	57                   	push   %rdi
   180001652:	48 83 ec 20          	sub    $0x20,%rsp
   180001656:	48 8b 05 ab 59 00 00 	mov    0x59ab(%rip),%rax        # 0x180007008
   18000165d:	48 83 64 24 30 00    	andq   $0x0,0x30(%rsp)
   180001663:	48 bf 32 a2 df 2d 99 	movabs $0x2b992ddfa232,%rdi
   18000166a:	2b 00 00 
   18000166d:	48 3b c7             	cmp    %rdi,%rax
   180001670:	74 0c                	je     0x18000167e
   180001672:	48 f7 d0             	not    %rax
   180001675:	48 89 05 94 59 00 00 	mov    %rax,0x5994(%rip)        # 0x180007010
   18000167c:	eb 76                	jmp    0x1800016f4
   18000167e:	48 8d 4c 24 30       	lea    0x30(%rsp),%rcx
   180001683:	ff 15 9f 62 00 00    	callq  *0x629f(%rip)        # 0x180007928
   180001689:	48 8b 5c 24 30       	mov    0x30(%rsp),%rbx
   18000168e:	ff 15 90 5d 00 00    	callq  *0x5d90(%rip)        # 0x180007424
   180001694:	44 8b d8             	mov    %eax,%r11d
   180001697:	49 33 db             	xor    %r11,%rbx
   18000169a:	ff 15 83 5e 00 00    	callq  *0x5e83(%rip)        # 0x180007523
   1800016a0:	44 8b d8             	mov    %eax,%r11d
   1800016a3:	49 33 db             	xor    %r11,%rbx
   1800016a6:	ff 15 51 62 00 00    	callq  *0x6251(%rip)        # 0x1800078fd
   1800016ac:	48 8d 4c 24 38       	lea    0x38(%rsp),%rcx
   1800016b1:	44 8b d8             	mov    %eax,%r11d
   1800016b4:	49 33 db             	xor    %r11,%rbx
   1800016b7:	ff 15 2b 62 00 00    	callq  *0x622b(%rip)        # 0x1800078e8
   1800016bd:	4c 8b 5c 24 38       	mov    0x38(%rsp),%r11
   1800016c2:	4c 33 db             	xor    %rbx,%r11
   1800016c5:	48 b8 ff ff ff ff ff 	movabs $0xffffffffffff,%rax
   1800016cc:	ff 00 00 
   1800016cf:	4c 23 d8             	and    %rax,%r11
   1800016d2:	48 b8 33 a2 df 2d 99 	movabs $0x2b992ddfa233,%rax
   1800016d9:	2b 00 00 
   1800016dc:	4c 3b df             	cmp    %rdi,%r11
   1800016df:	4c 0f 44 d8          	cmove  %rax,%r11
   1800016e3:	4c 89 1d 1e 59 00 00 	mov    %r11,0x591e(%rip)        # 0x180007008
   1800016ea:	49 f7 d3             	not    %r11
   1800016ed:	4c 89 1d 1c 59 00 00 	mov    %r11,0x591c(%rip)        # 0x180007010
   1800016f4:	48 8b 5c 24 40       	mov    0x40(%rsp),%rbx
   1800016f9:	48 83 c4 20          	add    $0x20,%rsp
   1800016fd:	5f                   	pop    %rdi
   1800016fe:	c3                   	retq   
   1800016ff:	cc                   	int3   
   180001700:	48 81 ec 08 01 00 00 	sub    $0x108,%rsp
   180001707:	48 89 4c 24 30       	mov    %rcx,0x30(%rsp)
   18000170c:	48 89 54 24 38       	mov    %rdx,0x38(%rsp)
   180001711:	4c 89 44 24 40       	mov    %r8,0x40(%rsp)
   180001716:	4c 89 4c 24 48       	mov    %r9,0x48(%rsp)
   18000171b:	f3 0f 7f 44 24 50    	movdqu %xmm0,0x50(%rsp)
   180001721:	f3 0f 7f 4c 24 60    	movdqu %xmm1,0x60(%rsp)
   180001727:	f3 0f 7f 54 24 70    	movdqu %xmm2,0x70(%rsp)
   18000172d:	f3 0f 7f 9c 24 80 00 	movdqu %xmm3,0x80(%rsp)
   180001734:	00 00 
   180001736:	f3 0f 7f a4 24 90 00 	movdqu %xmm4,0x90(%rsp)
   18000173d:	00 00 
   18000173f:	f3 0f 7f ac 24 a0 00 	movdqu %xmm5,0xa0(%rsp)
   180001746:	00 00 
   180001748:	48 8d 0d e1 61 00 00 	lea    0x61e1(%rip),%rcx        # 0x180007930
   18000174f:	e8 92 38 00 00       	callq  0x180004fe6
   180001754:	48 85 c0             	test   %rax,%rax
   180001757:	75 0c                	jne    0x180001765
   180001759:	48 8d 0d d0 61 00 00 	lea    0x61d0(%rip),%rcx        # 0x180007930
   180001760:	e8 7b 38 00 00       	callq  0x180004fe0
   180001765:	48 8b c8             	mov    %rax,%rcx
   180001768:	48 8d 15 b1 5b 00 00 	lea    0x5bb1(%rip),%rdx        # 0x180007320
   18000176f:	e8 78 38 00 00       	callq  0x180004fec
   180001774:	48 8b 4c 24 30       	mov    0x30(%rsp),%rcx
   180001779:	48 8b 54 24 38       	mov    0x38(%rsp),%rdx
   18000177e:	4c 8b 44 24 40       	mov    0x40(%rsp),%r8
   180001783:	4c 8b 4c 24 48       	mov    0x48(%rsp),%r9
   180001788:	f3 0f 6f 44 24 50    	movdqu 0x50(%rsp),%xmm0
   18000178e:	f3 0f 6f 4c 24 60    	movdqu 0x60(%rsp),%xmm1
   180001794:	f3 0f 6f 54 24 70    	movdqu 0x70(%rsp),%xmm2
   18000179a:	f3 0f 6f 9c 24 80 00 	movdqu 0x80(%rsp),%xmm3
   1800017a1:	00 00 
   1800017a3:	f3 0f 6f a4 24 90 00 	movdqu 0x90(%rsp),%xmm4
   1800017aa:	00 00 
   1800017ac:	f3 0f 6f ac 24 a0 00 	movdqu 0xa0(%rsp),%xmm5
   1800017b3:	00 00 
   1800017b5:	48 81 c4 08 01 00 00 	add    $0x108,%rsp
   1800017bc:	ff e0                	jmpq   *%rax
   1800017be:	66 90                	xchg   %ax,%ax
   1800017c0:	48 81 ec 08 01 00 00 	sub    $0x108,%rsp
   1800017c7:	48 89 4c 24 30       	mov    %rcx,0x30(%rsp)
   1800017cc:	48 89 54 24 38       	mov    %rdx,0x38(%rsp)
   1800017d1:	4c 89 44 24 40       	mov    %r8,0x40(%rsp)
   1800017d6:	4c 89 4c 24 48       	mov    %r9,0x48(%rsp)
   1800017db:	f3 0f 7f 44 24 50    	movdqu %xmm0,0x50(%rsp)
   1800017e1:	f3 0f 7f 4c 24 60    	movdqu %xmm1,0x60(%rsp)
   1800017e7:	f3 0f 7f 54 24 70    	movdqu %xmm2,0x70(%rsp)
   1800017ed:	f3 0f 7f 9c 24 80 00 	movdqu %xmm3,0x80(%rsp)
   1800017f4:	00 00 
   1800017f6:	f3 0f 7f a4 24 90 00 	movdqu %xmm4,0x90(%rsp)
   1800017fd:	00 00 
   1800017ff:	f3 0f 7f ac 24 a0 00 	movdqu %xmm5,0xa0(%rsp)
   180001806:	00 00 
   180001808:	48 8d 0d 21 61 00 00 	lea    0x6121(%rip),%rcx        # 0x180007930
   18000180f:	e8 d2 37 00 00       	callq  0x180004fe6
   180001814:	48 85 c0             	test   %rax,%rax
   180001817:	75 0c                	jne    0x180001825
   180001819:	48 8d 0d 10 61 00 00 	lea    0x6110(%rip),%rcx        # 0x180007930
   180001820:	e8 bb 37 00 00       	callq  0x180004fe0
   180001825:	48 8b c8             	mov    %rax,%rcx
   180001828:	48 8d 15 11 5b 00 00 	lea    0x5b11(%rip),%rdx        # 0x180007340
   18000182f:	e8 b8 37 00 00       	callq  0x180004fec
   180001834:	48 8b 4c 24 30       	mov    0x30(%rsp),%rcx
   180001839:	48 8b 54 24 38       	mov    0x38(%rsp),%rdx
   18000183e:	4c 8b 44 24 40       	mov    0x40(%rsp),%r8
   180001843:	4c 8b 4c 24 48       	mov    0x48(%rsp),%r9
   180001848:	f3 0f 6f 44 24 50    	movdqu 0x50(%rsp),%xmm0
   18000184e:	f3 0f 6f 4c 24 60    	movdqu 0x60(%rsp),%xmm1
   180001854:	f3 0f 6f 54 24 70    	movdqu 0x70(%rsp),%xmm2
   18000185a:	f3 0f 6f 9c 24 80 00 	movdqu 0x80(%rsp),%xmm3
   180001861:	00 00 
   180001863:	f3 0f 6f a4 24 90 00 	movdqu 0x90(%rsp),%xmm4
   18000186a:	00 00 
   18000186c:	f3 0f 6f ac 24 a0 00 	movdqu 0xa0(%rsp),%xmm5
   180001873:	00 00 
   180001875:	48 81 c4 08 01 00 00 	add    $0x108,%rsp
   18000187c:	ff e0                	jmpq   *%rax
   18000187e:	66 90                	xchg   %ax,%ax
   180001880:	48 81 ec 08 01 00 00 	sub    $0x108,%rsp
   180001887:	48 89 4c 24 30       	mov    %rcx,0x30(%rsp)
   18000188c:	48 89 54 24 38       	mov    %rdx,0x38(%rsp)
   180001891:	4c 89 44 24 40       	mov    %r8,0x40(%rsp)
   180001896:	4c 89 4c 24 48       	mov    %r9,0x48(%rsp)
   18000189b:	f3 0f 7f 44 24 50    	movdqu %xmm0,0x50(%rsp)
   1800018a1:	f3 0f 7f 4c 24 60    	movdqu %xmm1,0x60(%rsp)
   1800018a7:	f3 0f 7f 54 24 70    	movdqu %xmm2,0x70(%rsp)
   1800018ad:	f3 0f 7f 9c 24 80 00 	movdqu %xmm3,0x80(%rsp)
   1800018b4:	00 00 
   1800018b6:	f3 0f 7f a4 24 90 00 	movdqu %xmm4,0x90(%rsp)
   1800018bd:	00 00 
   1800018bf:	f3 0f 7f ac 24 a0 00 	movdqu %xmm5,0xa0(%rsp)
   1800018c6:	00 00 
   1800018c8:	48 8d 0d 61 60 00 00 	lea    0x6061(%rip),%rcx        # 0x180007930
   1800018cf:	e8 12 37 00 00       	callq  0x180004fe6
   1800018d4:	48 85 c0             	test   %rax,%rax
   1800018d7:	75 0c                	jne    0x1800018e5
   1800018d9:	48 8d 0d 50 60 00 00 	lea    0x6050(%rip),%rcx        # 0x180007930
   1800018e0:	e8 fb 36 00 00       	callq  0x180004fe0
   1800018e5:	48 8b c8             	mov    %rax,%rcx
   1800018e8:	48 8d 15 61 5a 00 00 	lea    0x5a61(%rip),%rdx        # 0x180007350
   1800018ef:	e8 f8 36 00 00       	callq  0x180004fec
   1800018f4:	48 8b 4c 24 30       	mov    0x30(%rsp),%rcx
   1800018f9:	48 8b 54 24 38       	mov    0x38(%rsp),%rdx
   1800018fe:	4c 8b 44 24 40       	mov    0x40(%rsp),%r8
   180001903:	4c 8b 4c 24 48       	mov    0x48(%rsp),%r9
   180001908:	f3 0f 6f 44 24 50    	movdqu 0x50(%rsp),%xmm0
   18000190e:	f3 0f 6f 4c 24 60    	movdqu 0x60(%rsp),%xmm1
   180001914:	f3 0f 6f 54 24 70    	movdqu 0x70(%rsp),%xmm2
   18000191a:	f3 0f 6f 9c 24 80 00 	movdqu 0x80(%rsp),%xmm3
   180001921:	00 00 
   180001923:	f3 0f 6f a4 24 90 00 	movdqu 0x90(%rsp),%xmm4
   18000192a:	00 00 
   18000192c:	f3 0f 6f ac 24 a0 00 	movdqu 0xa0(%rsp),%xmm5
   180001933:	00 00 
   180001935:	48 81 c4 08 01 00 00 	add    $0x108,%rsp
   18000193c:	ff e0                	jmpq   *%rax
   18000193e:	66 90                	xchg   %ax,%ax
   180001940:	48 81 ec 08 01 00 00 	sub    $0x108,%rsp
   180001947:	48 89 4c 24 30       	mov    %rcx,0x30(%rsp)
   18000194c:	48 89 54 24 38       	mov    %rdx,0x38(%rsp)
   180001951:	4c 89 44 24 40       	mov    %r8,0x40(%rsp)
   180001956:	4c 89 4c 24 48       	mov    %r9,0x48(%rsp)
   18000195b:	f3 0f 7f 44 24 50    	movdqu %xmm0,0x50(%rsp)
   180001961:	f3 0f 7f 4c 24 60    	movdqu %xmm1,0x60(%rsp)
   180001967:	f3 0f 7f 54 24 70    	movdqu %xmm2,0x70(%rsp)
   18000196d:	f3 0f 7f 9c 24 80 00 	movdqu %xmm3,0x80(%rsp)
   180001974:	00 00 
   180001976:	f3 0f 7f a4 24 90 00 	movdqu %xmm4,0x90(%rsp)
   18000197d:	00 00 
   18000197f:	f3 0f 7f ac 24 a0 00 	movdqu %xmm5,0xa0(%rsp)
   180001986:	00 00 
   180001988:	48 8d 0d a1 5f 00 00 	lea    0x5fa1(%rip),%rcx        # 0x180007930
   18000198f:	e8 52 36 00 00       	callq  0x180004fe6
   180001994:	48 85 c0             	test   %rax,%rax
   180001997:	75 0c                	jne    0x1800019a5
   180001999:	48 8d 0d 90 5f 00 00 	lea    0x5f90(%rip),%rcx        # 0x180007930
   1800019a0:	e8 3b 36 00 00       	callq  0x180004fe0
   1800019a5:	48 8b c8             	mov    %rax,%rcx
   1800019a8:	48 8d 15 c1 59 00 00 	lea    0x59c1(%rip),%rdx        # 0x180007370
   1800019af:	e8 38 36 00 00       	callq  0x180004fec
   1800019b4:	48 8b 4c 24 30       	mov    0x30(%rsp),%rcx
   1800019b9:	48 8b 54 24 38       	mov    0x38(%rsp),%rdx
   1800019be:	4c 8b 44 24 40       	mov    0x40(%rsp),%r8
   1800019c3:	4c 8b 4c 24 48       	mov    0x48(%rsp),%r9
   1800019c8:	f3 0f 6f 44 24 50    	movdqu 0x50(%rsp),%xmm0
   1800019ce:	f3 0f 6f 4c 24 60    	movdqu 0x60(%rsp),%xmm1
   1800019d4:	f3 0f 6f 54 24 70    	movdqu 0x70(%rsp),%xmm2
   1800019da:	f3 0f 6f 9c 24 80 00 	movdqu 0x80(%rsp),%xmm3
   1800019e1:	00 00 
   1800019e3:	f3 0f 6f a4 24 90 00 	movdqu 0x90(%rsp),%xmm4
   1800019ea:	00 00 
   1800019ec:	f3 0f 6f ac 24 a0 00 	movdqu 0xa0(%rsp),%xmm5
   1800019f3:	00 00 
   1800019f5:	48 81 c4 08 01 00 00 	add    $0x108,%rsp
   1800019fc:	ff e0                	jmpq   *%rax
   1800019fe:	66 90                	xchg   %ax,%ax
   180001a00:	48 81 ec 08 01 00 00 	sub    $0x108,%rsp
   180001a07:	48 89 4c 24 30       	mov    %rcx,0x30(%rsp)
   180001a0c:	48 89 54 24 38       	mov    %rdx,0x38(%rsp)
   180001a11:	4c 89 44 24 40       	mov    %r8,0x40(%rsp)
   180001a16:	4c 89 4c 24 48       	mov    %r9,0x48(%rsp)
   180001a1b:	f3 0f 7f 44 24 50    	movdqu %xmm0,0x50(%rsp)
   180001a21:	f3 0f 7f 4c 24 60    	movdqu %xmm1,0x60(%rsp)
   180001a27:	f3 0f 7f 54 24 70    	movdqu %xmm2,0x70(%rsp)
   180001a2d:	f3 0f 7f 9c 24 80 00 	movdqu %xmm3,0x80(%rsp)
   180001a34:	00 00 
   180001a36:	f3 0f 7f a4 24 90 00 	movdqu %xmm4,0x90(%rsp)
   180001a3d:	00 00 
   180001a3f:	f3 0f 7f ac 24 a0 00 	movdqu %xmm5,0xa0(%rsp)
   180001a46:	00 00 
   180001a48:	48 8d 0d e1 5e 00 00 	lea    0x5ee1(%rip),%rcx        # 0x180007930
   180001a4f:	e8 92 35 00 00       	callq  0x180004fe6
   180001a54:	48 85 c0             	test   %rax,%rax
   180001a57:	75 0c                	jne    0x180001a65
   180001a59:	48 8d 0d d0 5e 00 00 	lea    0x5ed0(%rip),%rcx        # 0x180007930
   180001a60:	e8 7b 35 00 00       	callq  0x180004fe0
   180001a65:	48 8b c8             	mov    %rax,%rcx
   180001a68:	48 8d 15 21 59 00 00 	lea    0x5921(%rip),%rdx        # 0x180007390
   180001a6f:	e8 78 35 00 00       	callq  0x180004fec
   180001a74:	48 8b 4c 24 30       	mov    0x30(%rsp),%rcx
   180001a79:	48 8b 54 24 38       	mov    0x38(%rsp),%rdx
   180001a7e:	4c 8b 44 24 40       	mov    0x40(%rsp),%r8
   180001a83:	4c 8b 4c 24 48       	mov    0x48(%rsp),%r9
   180001a88:	f3 0f 6f 44 24 50    	movdqu 0x50(%rsp),%xmm0
   180001a8e:	f3 0f 6f 4c 24 60    	movdqu 0x60(%rsp),%xmm1
   180001a94:	f3 0f 6f 54 24 70    	movdqu 0x70(%rsp),%xmm2
   180001a9a:	f3 0f 6f 9c 24 80 00 	movdqu 0x80(%rsp),%xmm3
   180001aa1:	00 00 
   180001aa3:	f3 0f 6f a4 24 90 00 	movdqu 0x90(%rsp),%xmm4
   180001aaa:	00 00 
   180001aac:	f3 0f 6f ac 24 a0 00 	movdqu 0xa0(%rsp),%xmm5
   180001ab3:	00 00 
   180001ab5:	48 81 c4 08 01 00 00 	add    $0x108,%rsp
   180001abc:	ff e0                	jmpq   *%rax
   180001abe:	66 90                	xchg   %ax,%ax
   180001ac0:	48 81 ec 08 01 00 00 	sub    $0x108,%rsp
   180001ac7:	48 89 4c 24 30       	mov    %rcx,0x30(%rsp)
   180001acc:	48 89 54 24 38       	mov    %rdx,0x38(%rsp)
   180001ad1:	4c 89 44 24 40       	mov    %r8,0x40(%rsp)
   180001ad6:	4c 89 4c 24 48       	mov    %r9,0x48(%rsp)
   180001adb:	f3 0f 7f 44 24 50    	movdqu %xmm0,0x50(%rsp)
   180001ae1:	f3 0f 7f 4c 24 60    	movdqu %xmm1,0x60(%rsp)
   180001ae7:	f3 0f 7f 54 24 70    	movdqu %xmm2,0x70(%rsp)
   180001aed:	f3 0f 7f 9c 24 80 00 	movdqu %xmm3,0x80(%rsp)
   180001af4:	00 00 
   180001af6:	f3 0f 7f a4 24 90 00 	movdqu %xmm4,0x90(%rsp)
   180001afd:	00 00 
   180001aff:	f3 0f 7f ac 24 a0 00 	movdqu %xmm5,0xa0(%rsp)
   180001b06:	00 00 
   180001b08:	48 8d 0d 21 5e 00 00 	lea    0x5e21(%rip),%rcx        # 0x180007930
   180001b0f:	e8 d2 34 00 00       	callq  0x180004fe6
   180001b14:	48 85 c0             	test   %rax,%rax
   180001b17:	75 0c                	jne    0x180001b25
   180001b19:	48 8d 0d 10 5e 00 00 	lea    0x5e10(%rip),%rcx        # 0x180007930
   180001b20:	e8 bb 34 00 00       	callq  0x180004fe0
   180001b25:	48 8b c8             	mov    %rax,%rcx
   180001b28:	48 8d 15 81 58 00 00 	lea    0x5881(%rip),%rdx        # 0x1800073b0
   180001b2f:	e8 b8 34 00 00       	callq  0x180004fec
   180001b34:	48 8b 4c 24 30       	mov    0x30(%rsp),%rcx
   180001b39:	48 8b 54 24 38       	mov    0x38(%rsp),%rdx
   180001b3e:	4c 8b 44 24 40       	mov    0x40(%rsp),%r8
   180001b43:	4c 8b 4c 24 48       	mov    0x48(%rsp),%r9
   180001b48:	f3 0f 6f 44 24 50    	movdqu 0x50(%rsp),%xmm0
   180001b4e:	f3 0f 6f 4c 24 60    	movdqu 0x60(%rsp),%xmm1
   180001b54:	f3 0f 6f 54 24 70    	movdqu 0x70(%rsp),%xmm2
   180001b5a:	f3 0f 6f 9c 24 80 00 	movdqu 0x80(%rsp),%xmm3
   180001b61:	00 00 
   180001b63:	f3 0f 6f a4 24 90 00 	movdqu 0x90(%rsp),%xmm4
   180001b6a:	00 00 
   180001b6c:	f3 0f 6f ac 24 a0 00 	movdqu 0xa0(%rsp),%xmm5
   180001b73:	00 00 
   180001b75:	48 81 c4 08 01 00 00 	add    $0x108,%rsp
   180001b7c:	ff e0                	jmpq   *%rax
   180001b7e:	66 90                	xchg   %ax,%ax
   180001b80:	48 81 ec 08 01 00 00 	sub    $0x108,%rsp
   180001b87:	48 89 4c 24 30       	mov    %rcx,0x30(%rsp)
   180001b8c:	48 89 54 24 38       	mov    %rdx,0x38(%rsp)
   180001b91:	4c 89 44 24 40       	mov    %r8,0x40(%rsp)
   180001b96:	4c 89 4c 24 48       	mov    %r9,0x48(%rsp)
   180001b9b:	f3 0f 7f 44 24 50    	movdqu %xmm0,0x50(%rsp)
   180001ba1:	f3 0f 7f 4c 24 60    	movdqu %xmm1,0x60(%rsp)
   180001ba7:	f3 0f 7f 54 24 70    	movdqu %xmm2,0x70(%rsp)
   180001bad:	f3 0f 7f 9c 24 80 00 	movdqu %xmm3,0x80(%rsp)
   180001bb4:	00 00 
   180001bb6:	f3 0f 7f a4 24 90 00 	movdqu %xmm4,0x90(%rsp)
   180001bbd:	00 00 
   180001bbf:	f3 0f 7f ac 24 a0 00 	movdqu %xmm5,0xa0(%rsp)
   180001bc6:	00 00 
   180001bc8:	48 8d 0d 61 5d 00 00 	lea    0x5d61(%rip),%rcx        # 0x180007930
   180001bcf:	e8 12 34 00 00       	callq  0x180004fe6
   180001bd4:	48 85 c0             	test   %rax,%rax
   180001bd7:	75 0c                	jne    0x180001be5
   180001bd9:	48 8d 0d 50 5d 00 00 	lea    0x5d50(%rip),%rcx        # 0x180007930
   180001be0:	e8 fb 33 00 00       	callq  0x180004fe0
   180001be5:	48 8b c8             	mov    %rax,%rcx
   180001be8:	48 8d 15 e1 57 00 00 	lea    0x57e1(%rip),%rdx        # 0x1800073d0
   180001bef:	e8 f8 33 00 00       	callq  0x180004fec
   180001bf4:	48 8b 4c 24 30       	mov    0x30(%rsp),%rcx
   180001bf9:	48 8b 54 24 38       	mov    0x38(%rsp),%rdx
   180001bfe:	4c 8b 44 24 40       	mov    0x40(%rsp),%r8
   180001c03:	4c 8b 4c 24 48       	mov    0x48(%rsp),%r9
   180001c08:	f3 0f 6f 44 24 50    	movdqu 0x50(%rsp),%xmm0
   180001c0e:	f3 0f 6f 4c 24 60    	movdqu 0x60(%rsp),%xmm1
   180001c14:	f3 0f 6f 54 24 70    	movdqu 0x70(%rsp),%xmm2
   180001c1a:	f3 0f 6f 9c 24 80 00 	movdqu 0x80(%rsp),%xmm3
   180001c21:	00 00 
   180001c23:	f3 0f 6f a4 24 90 00 	movdqu 0x90(%rsp),%xmm4
   180001c2a:	00 00 
   180001c2c:	f3 0f 6f ac 24 a0 00 	movdqu 0xa0(%rsp),%xmm5
   180001c33:	00 00 
   180001c35:	48 81 c4 08 01 00 00 	add    $0x108,%rsp
   180001c3c:	ff e0                	jmpq   *%rax
   180001c3e:	66 90                	xchg   %ax,%ax
   180001c40:	48 81 ec 08 01 00 00 	sub    $0x108,%rsp
   180001c47:	48 89 4c 24 30       	mov    %rcx,0x30(%rsp)
   180001c4c:	48 89 54 24 38       	mov    %rdx,0x38(%rsp)
   180001c51:	4c 89 44 24 40       	mov    %r8,0x40(%rsp)
   180001c56:	4c 89 4c 24 48       	mov    %r9,0x48(%rsp)
   180001c5b:	f3 0f 7f 44 24 50    	movdqu %xmm0,0x50(%rsp)
   180001c61:	f3 0f 7f 4c 24 60    	movdqu %xmm1,0x60(%rsp)
   180001c67:	f3 0f 7f 54 24 70    	movdqu %xmm2,0x70(%rsp)
   180001c6d:	f3 0f 7f 9c 24 80 00 	movdqu %xmm3,0x80(%rsp)
   180001c74:	00 00 
   180001c76:	f3 0f 7f a4 24 90 00 	movdqu %xmm4,0x90(%rsp)
   180001c7d:	00 00 
   180001c7f:	f3 0f 7f ac 24 a0 00 	movdqu %xmm5,0xa0(%rsp)
   180001c86:	00 00 
   180001c88:	48 8d 0d a1 5c 00 00 	lea    0x5ca1(%rip),%rcx        # 0x180007930
   180001c8f:	e8 52 33 00 00       	callq  0x180004fe6
   180001c94:	48 85 c0             	test   %rax,%rax
   180001c97:	75 0c                	jne    0x180001ca5
   180001c99:	48 8d 0d 90 5c 00 00 	lea    0x5c90(%rip),%rcx        # 0x180007930
   180001ca0:	e8 3b 33 00 00       	callq  0x180004fe0
   180001ca5:	48 8b c8             	mov    %rax,%rcx
   180001ca8:	48 8d 15 41 57 00 00 	lea    0x5741(%rip),%rdx        # 0x1800073f0
   180001caf:	e8 38 33 00 00       	callq  0x180004fec
   180001cb4:	48 8b 4c 24 30       	mov    0x30(%rsp),%rcx
   180001cb9:	48 8b 54 24 38       	mov    0x38(%rsp),%rdx
   180001cbe:	4c 8b 44 24 40       	mov    0x40(%rsp),%r8
   180001cc3:	4c 8b 4c 24 48       	mov    0x48(%rsp),%r9
   180001cc8:	f3 0f 6f 44 24 50    	movdqu 0x50(%rsp),%xmm0
   180001cce:	f3 0f 6f 4c 24 60    	movdqu 0x60(%rsp),%xmm1
   180001cd4:	f3 0f 6f 54 24 70    	movdqu 0x70(%rsp),%xmm2
   180001cda:	f3 0f 6f 9c 24 80 00 	movdqu 0x80(%rsp),%xmm3
   180001ce1:	00 00 
   180001ce3:	f3 0f 6f a4 24 90 00 	movdqu 0x90(%rsp),%xmm4
   180001cea:	00 00 
   180001cec:	f3 0f 6f ac 24 a0 00 	movdqu 0xa0(%rsp),%xmm5
   180001cf3:	00 00 
   180001cf5:	48 81 c4 08 01 00 00 	add    $0x108,%rsp
   180001cfc:	ff e0                	jmpq   *%rax
   180001cfe:	66 90                	xchg   %ax,%ax
   180001d00:	48 81 ec 08 01 00 00 	sub    $0x108,%rsp
   180001d07:	48 89 4c 24 30       	mov    %rcx,0x30(%rsp)
   180001d0c:	48 89 54 24 38       	mov    %rdx,0x38(%rsp)
   180001d11:	4c 89 44 24 40       	mov    %r8,0x40(%rsp)
   180001d16:	4c 89 4c 24 48       	mov    %r9,0x48(%rsp)
   180001d1b:	f3 0f 7f 44 24 50    	movdqu %xmm0,0x50(%rsp)
   180001d21:	f3 0f 7f 4c 24 60    	movdqu %xmm1,0x60(%rsp)
   180001d27:	f3 0f 7f 54 24 70    	movdqu %xmm2,0x70(%rsp)
   180001d2d:	f3 0f 7f 9c 24 80 00 	movdqu %xmm3,0x80(%rsp)
   180001d34:	00 00 
   180001d36:	f3 0f 7f a4 24 90 00 	movdqu %xmm4,0x90(%rsp)
   180001d3d:	00 00 
   180001d3f:	f3 0f 7f ac 24 a0 00 	movdqu %xmm5,0xa0(%rsp)
   180001d46:	00 00 
   180001d48:	48 8d 0d e1 5b 00 00 	lea    0x5be1(%rip),%rcx        # 0x180007930
   180001d4f:	e8 92 32 00 00       	callq  0x180004fe6
   180001d54:	48 85 c0             	test   %rax,%rax
   180001d57:	75 0c                	jne    0x180001d65
   180001d59:	48 8d 0d d0 5b 00 00 	lea    0x5bd0(%rip),%rcx        # 0x180007930
   180001d60:	e8 7b 32 00 00       	callq  0x180004fe0
   180001d65:	48 8b c8             	mov    %rax,%rcx
   180001d68:	48 8d 15 a1 56 00 00 	lea    0x56a1(%rip),%rdx        # 0x180007410
   180001d6f:	e8 78 32 00 00       	callq  0x180004fec
   180001d74:	48 8b 4c 24 30       	mov    0x30(%rsp),%rcx
   180001d79:	48 8b 54 24 38       	mov    0x38(%rsp),%rdx
   180001d7e:	4c 8b 44 24 40       	mov    0x40(%rsp),%r8
   180001d83:	4c 8b 4c 24 48       	mov    0x48(%rsp),%r9
   180001d88:	f3 0f 6f 44 24 50    	movdqu 0x50(%rsp),%xmm0
   180001d8e:	f3 0f 6f 4c 24 60    	movdqu 0x60(%rsp),%xmm1
   180001d94:	f3 0f 6f 54 24 70    	movdqu 0x70(%rsp),%xmm2
   180001d9a:	f3 0f 6f 9c 24 80 00 	movdqu 0x80(%rsp),%xmm3
   180001da1:	00 00 
   180001da3:	f3 0f 6f a4 24 90 00 	movdqu 0x90(%rsp),%xmm4
   180001daa:	00 00 
   180001dac:	f3 0f 6f ac 24 a0 00 	movdqu 0xa0(%rsp),%xmm5
   180001db3:	00 00 
   180001db5:	48 81 c4 08 01 00 00 	add    $0x108,%rsp
   180001dbc:	ff e0                	jmpq   *%rax
   180001dbe:	66 90                	xchg   %ax,%ax
   180001dc0:	48 81 ec 08 01 00 00 	sub    $0x108,%rsp
   180001dc7:	48 89 4c 24 30       	mov    %rcx,0x30(%rsp)
   180001dcc:	48 89 54 24 38       	mov    %rdx,0x38(%rsp)
   180001dd1:	4c 89 44 24 40       	mov    %r8,0x40(%rsp)
   180001dd6:	4c 89 4c 24 48       	mov    %r9,0x48(%rsp)
   180001ddb:	f3 0f 7f 44 24 50    	movdqu %xmm0,0x50(%rsp)
   180001de1:	f3 0f 7f 4c 24 60    	movdqu %xmm1,0x60(%rsp)
   180001de7:	f3 0f 7f 54 24 70    	movdqu %xmm2,0x70(%rsp)
   180001ded:	f3 0f 7f 9c 24 80 00 	movdqu %xmm3,0x80(%rsp)
   180001df4:	00 00 
   180001df6:	f3 0f 7f a4 24 90 00 	movdqu %xmm4,0x90(%rsp)
   180001dfd:	00 00 
   180001dff:	f3 0f 7f ac 24 a0 00 	movdqu %xmm5,0xa0(%rsp)
   180001e06:	00 00 
   180001e08:	48 8d 0d 21 5b 00 00 	lea    0x5b21(%rip),%rcx        # 0x180007930
   180001e0f:	e8 d2 31 00 00       	callq  0x180004fe6
   180001e14:	48 85 c0             	test   %rax,%rax
   180001e17:	75 0c                	jne    0x180001e25
   180001e19:	48 8d 0d 10 5b 00 00 	lea    0x5b10(%rip),%rcx        # 0x180007930
   180001e20:	e8 bb 31 00 00       	callq  0x180004fe0
   180001e25:	48 8b c8             	mov    %rax,%rcx
   180001e28:	48 8d 15 01 56 00 00 	lea    0x5601(%rip),%rdx        # 0x180007430
   180001e2f:	e8 b8 31 00 00       	callq  0x180004fec
   180001e34:	48 8b 4c 24 30       	mov    0x30(%rsp),%rcx
   180001e39:	48 8b 54 24 38       	mov    0x38(%rsp),%rdx
   180001e3e:	4c 8b 44 24 40       	mov    0x40(%rsp),%r8
   180001e43:	4c 8b 4c 24 48       	mov    0x48(%rsp),%r9
   180001e48:	f3 0f 6f 44 24 50    	movdqu 0x50(%rsp),%xmm0
   180001e4e:	f3 0f 6f 4c 24 60    	movdqu 0x60(%rsp),%xmm1
   180001e54:	f3 0f 6f 54 24 70    	movdqu 0x70(%rsp),%xmm2
   180001e5a:	f3 0f 6f 9c 24 80 00 	movdqu 0x80(%rsp),%xmm3
   180001e61:	00 00 
   180001e63:	f3 0f 6f a4 24 90 00 	movdqu 0x90(%rsp),%xmm4
   180001e6a:	00 00 
   180001e6c:	f3 0f 6f ac 24 a0 00 	movdqu 0xa0(%rsp),%xmm5
   180001e73:	00 00 
   180001e75:	48 81 c4 08 01 00 00 	add    $0x108,%rsp
   180001e7c:	ff e0                	jmpq   *%rax
   180001e7e:	66 90                	xchg   %ax,%ax
   180001e80:	48 81 ec 08 01 00 00 	sub    $0x108,%rsp
   180001e87:	48 89 4c 24 30       	mov    %rcx,0x30(%rsp)
   180001e8c:	48 89 54 24 38       	mov    %rdx,0x38(%rsp)
   180001e91:	4c 89 44 24 40       	mov    %r8,0x40(%rsp)
   180001e96:	4c 89 4c 24 48       	mov    %r9,0x48(%rsp)
   180001e9b:	f3 0f 7f 44 24 50    	movdqu %xmm0,0x50(%rsp)
   180001ea1:	f3 0f 7f 4c 24 60    	movdqu %xmm1,0x60(%rsp)
   180001ea7:	f3 0f 7f 54 24 70    	movdqu %xmm2,0x70(%rsp)
   180001ead:	f3 0f 7f 9c 24 80 00 	movdqu %xmm3,0x80(%rsp)
   180001eb4:	00 00 
   180001eb6:	f3 0f 7f a4 24 90 00 	movdqu %xmm4,0x90(%rsp)
   180001ebd:	00 00 
   180001ebf:	f3 0f 7f ac 24 a0 00 	movdqu %xmm5,0xa0(%rsp)
   180001ec6:	00 00 
   180001ec8:	48 8d 0d 61 5a 00 00 	lea    0x5a61(%rip),%rcx        # 0x180007930
   180001ecf:	e8 12 31 00 00       	callq  0x180004fe6
   180001ed4:	48 85 c0             	test   %rax,%rax
   180001ed7:	75 0c                	jne    0x180001ee5
   180001ed9:	48 8d 0d 50 5a 00 00 	lea    0x5a50(%rip),%rcx        # 0x180007930
   180001ee0:	e8 fb 30 00 00       	callq  0x180004fe0
   180001ee5:	48 8b c8             	mov    %rax,%rcx
   180001ee8:	48 8d 15 61 55 00 00 	lea    0x5561(%rip),%rdx        # 0x180007450
   180001eef:	e8 f8 30 00 00       	callq  0x180004fec
   180001ef4:	48 8b 4c 24 30       	mov    0x30(%rsp),%rcx
   180001ef9:	48 8b 54 24 38       	mov    0x38(%rsp),%rdx
   180001efe:	4c 8b 44 24 40       	mov    0x40(%rsp),%r8
   180001f03:	4c 8b 4c 24 48       	mov    0x48(%rsp),%r9
   180001f08:	f3 0f 6f 44 24 50    	movdqu 0x50(%rsp),%xmm0
   180001f0e:	f3 0f 6f 4c 24 60    	movdqu 0x60(%rsp),%xmm1
   180001f14:	f3 0f 6f 54 24 70    	movdqu 0x70(%rsp),%xmm2
   180001f1a:	f3 0f 6f 9c 24 80 00 	movdqu 0x80(%rsp),%xmm3
   180001f21:	00 00 
   180001f23:	f3 0f 6f a4 24 90 00 	movdqu 0x90(%rsp),%xmm4
   180001f2a:	00 00 
   180001f2c:	f3 0f 6f ac 24 a0 00 	movdqu 0xa0(%rsp),%xmm5
   180001f33:	00 00 
   180001f35:	48 81 c4 08 01 00 00 	add    $0x108,%rsp
   180001f3c:	ff e0                	jmpq   *%rax
   180001f3e:	66 90                	xchg   %ax,%ax
   180001f40:	48 81 ec 08 01 00 00 	sub    $0x108,%rsp
   180001f47:	48 89 4c 24 30       	mov    %rcx,0x30(%rsp)
   180001f4c:	48 89 54 24 38       	mov    %rdx,0x38(%rsp)
   180001f51:	4c 89 44 24 40       	mov    %r8,0x40(%rsp)
   180001f56:	4c 89 4c 24 48       	mov    %r9,0x48(%rsp)
   180001f5b:	f3 0f 7f 44 24 50    	movdqu %xmm0,0x50(%rsp)
   180001f61:	f3 0f 7f 4c 24 60    	movdqu %xmm1,0x60(%rsp)
   180001f67:	f3 0f 7f 54 24 70    	movdqu %xmm2,0x70(%rsp)
   180001f6d:	f3 0f 7f 9c 24 80 00 	movdqu %xmm3,0x80(%rsp)
   180001f74:	00 00 
   180001f76:	f3 0f 7f a4 24 90 00 	movdqu %xmm4,0x90(%rsp)
   180001f7d:	00 00 
   180001f7f:	f3 0f 7f ac 24 a0 00 	movdqu %xmm5,0xa0(%rsp)
   180001f86:	00 00 
   180001f88:	48 8d 0d a1 59 00 00 	lea    0x59a1(%rip),%rcx        # 0x180007930
   180001f8f:	e8 52 30 00 00       	callq  0x180004fe6
   180001f94:	48 85 c0             	test   %rax,%rax
   180001f97:	75 0c                	jne    0x180001fa5
   180001f99:	48 8d 0d 90 59 00 00 	lea    0x5990(%rip),%rcx        # 0x180007930
   180001fa0:	e8 3b 30 00 00       	callq  0x180004fe0
   180001fa5:	48 8b c8             	mov    %rax,%rcx
   180001fa8:	48 8d 15 c1 54 00 00 	lea    0x54c1(%rip),%rdx        # 0x180007470
   180001faf:	e8 38 30 00 00       	callq  0x180004fec
   180001fb4:	48 8b 4c 24 30       	mov    0x30(%rsp),%rcx
   180001fb9:	48 8b 54 24 38       	mov    0x38(%rsp),%rdx
   180001fbe:	4c 8b 44 24 40       	mov    0x40(%rsp),%r8
   180001fc3:	4c 8b 4c 24 48       	mov    0x48(%rsp),%r9
   180001fc8:	f3 0f 6f 44 24 50    	movdqu 0x50(%rsp),%xmm0
   180001fce:	f3 0f 6f 4c 24 60    	movdqu 0x60(%rsp),%xmm1
   180001fd4:	f3 0f 6f 54 24 70    	movdqu 0x70(%rsp),%xmm2
   180001fda:	f3 0f 6f 9c 24 80 00 	movdqu 0x80(%rsp),%xmm3
   180001fe1:	00 00 
   180001fe3:	f3 0f 6f a4 24 90 00 	movdqu 0x90(%rsp),%xmm4
   180001fea:	00 00 
   180001fec:	f3 0f 6f ac 24 a0 00 	movdqu 0xa0(%rsp),%xmm5
   180001ff3:	00 00 
   180001ff5:	48 81 c4 08 01 00 00 	add    $0x108,%rsp
   180001ffc:	ff e0                	jmpq   *%rax
   180001ffe:	66 90                	xchg   %ax,%ax
   180002000:	48 81 ec 08 01 00 00 	sub    $0x108,%rsp
   180002007:	48 89 4c 24 30       	mov    %rcx,0x30(%rsp)
   18000200c:	48 89 54 24 38       	mov    %rdx,0x38(%rsp)
   180002011:	4c 89 44 24 40       	mov    %r8,0x40(%rsp)
   180002016:	4c 89 4c 24 48       	mov    %r9,0x48(%rsp)
   18000201b:	f3 0f 7f 44 24 50    	movdqu %xmm0,0x50(%rsp)
   180002021:	f3 0f 7f 4c 24 60    	movdqu %xmm1,0x60(%rsp)
   180002027:	f3 0f 7f 54 24 70    	movdqu %xmm2,0x70(%rsp)
   18000202d:	f3 0f 7f 9c 24 80 00 	movdqu %xmm3,0x80(%rsp)
   180002034:	00 00 
   180002036:	f3 0f 7f a4 24 90 00 	movdqu %xmm4,0x90(%rsp)
   18000203d:	00 00 
   18000203f:	f3 0f 7f ac 24 a0 00 	movdqu %xmm5,0xa0(%rsp)
   180002046:	00 00 
   180002048:	48 8d 0d e1 58 00 00 	lea    0x58e1(%rip),%rcx        # 0x180007930
   18000204f:	e8 92 2f 00 00       	callq  0x180004fe6
   180002054:	48 85 c0             	test   %rax,%rax
   180002057:	75 0c                	jne    0x180002065
   180002059:	48 8d 0d d0 58 00 00 	lea    0x58d0(%rip),%rcx        # 0x180007930
   180002060:	e8 7b 2f 00 00       	callq  0x180004fe0
   180002065:	48 8b c8             	mov    %rax,%rcx
   180002068:	48 8d 15 21 54 00 00 	lea    0x5421(%rip),%rdx        # 0x180007490
   18000206f:	e8 78 2f 00 00       	callq  0x180004fec
   180002074:	48 8b 4c 24 30       	mov    0x30(%rsp),%rcx
   180002079:	48 8b 54 24 38       	mov    0x38(%rsp),%rdx
   18000207e:	4c 8b 44 24 40       	mov    0x40(%rsp),%r8
   180002083:	4c 8b 4c 24 48       	mov    0x48(%rsp),%r9
   180002088:	f3 0f 6f 44 24 50    	movdqu 0x50(%rsp),%xmm0
   18000208e:	f3 0f 6f 4c 24 60    	movdqu 0x60(%rsp),%xmm1
   180002094:	f3 0f 6f 54 24 70    	movdqu 0x70(%rsp),%xmm2
   18000209a:	f3 0f 6f 9c 24 80 00 	movdqu 0x80(%rsp),%xmm3
   1800020a1:	00 00 
   1800020a3:	f3 0f 6f a4 24 90 00 	movdqu 0x90(%rsp),%xmm4
   1800020aa:	00 00 
   1800020ac:	f3 0f 6f ac 24 a0 00 	movdqu 0xa0(%rsp),%xmm5
   1800020b3:	00 00 
   1800020b5:	48 81 c4 08 01 00 00 	add    $0x108,%rsp
   1800020bc:	ff e0                	jmpq   *%rax
   1800020be:	66 90                	xchg   %ax,%ax
   1800020c0:	48 81 ec 08 01 00 00 	sub    $0x108,%rsp
   1800020c7:	48 89 4c 24 30       	mov    %rcx,0x30(%rsp)
   1800020cc:	48 89 54 24 38       	mov    %rdx,0x38(%rsp)
   1800020d1:	4c 89 44 24 40       	mov    %r8,0x40(%rsp)
   1800020d6:	4c 89 4c 24 48       	mov    %r9,0x48(%rsp)
   1800020db:	f3 0f 7f 44 24 50    	movdqu %xmm0,0x50(%rsp)
   1800020e1:	f3 0f 7f 4c 24 60    	movdqu %xmm1,0x60(%rsp)
   1800020e7:	f3 0f 7f 54 24 70    	movdqu %xmm2,0x70(%rsp)
   1800020ed:	f3 0f 7f 9c 24 80 00 	movdqu %xmm3,0x80(%rsp)
   1800020f4:	00 00 
   1800020f6:	f3 0f 7f a4 24 90 00 	movdqu %xmm4,0x90(%rsp)
   1800020fd:	00 00 
   1800020ff:	f3 0f 7f ac 24 a0 00 	movdqu %xmm5,0xa0(%rsp)
   180002106:	00 00 
   180002108:	48 8d 0d 21 58 00 00 	lea    0x5821(%rip),%rcx        # 0x180007930
   18000210f:	e8 d2 2e 00 00       	callq  0x180004fe6
   180002114:	48 85 c0             	test   %rax,%rax
   180002117:	75 0c                	jne    0x180002125
   180002119:	48 8d 0d 10 58 00 00 	lea    0x5810(%rip),%rcx        # 0x180007930
   180002120:	e8 bb 2e 00 00       	callq  0x180004fe0
   180002125:	48 8b c8             	mov    %rax,%rcx
   180002128:	48 8d 15 81 53 00 00 	lea    0x5381(%rip),%rdx        # 0x1800074b0
   18000212f:	e8 b8 2e 00 00       	callq  0x180004fec
   180002134:	48 8b 4c 24 30       	mov    0x30(%rsp),%rcx
   180002139:	48 8b 54 24 38       	mov    0x38(%rsp),%rdx
   18000213e:	4c 8b 44 24 40       	mov    0x40(%rsp),%r8
   180002143:	4c 8b 4c 24 48       	mov    0x48(%rsp),%r9
   180002148:	f3 0f 6f 44 24 50    	movdqu 0x50(%rsp),%xmm0
   18000214e:	f3 0f 6f 4c 24 60    	movdqu 0x60(%rsp),%xmm1
   180002154:	f3 0f 6f 54 24 70    	movdqu 0x70(%rsp),%xmm2
   18000215a:	f3 0f 6f 9c 24 80 00 	movdqu 0x80(%rsp),%xmm3
   180002161:	00 00 
   180002163:	f3 0f 6f a4 24 90 00 	movdqu 0x90(%rsp),%xmm4
   18000216a:	00 00 
   18000216c:	f3 0f 6f ac 24 a0 00 	movdqu 0xa0(%rsp),%xmm5
   180002173:	00 00 
   180002175:	48 81 c4 08 01 00 00 	add    $0x108,%rsp
   18000217c:	ff e0                	jmpq   *%rax
   18000217e:	66 90                	xchg   %ax,%ax
   180002180:	48 81 ec 08 01 00 00 	sub    $0x108,%rsp
   180002187:	48 89 4c 24 30       	mov    %rcx,0x30(%rsp)
   18000218c:	48 89 54 24 38       	mov    %rdx,0x38(%rsp)
   180002191:	4c 89 44 24 40       	mov    %r8,0x40(%rsp)
   180002196:	4c 89 4c 24 48       	mov    %r9,0x48(%rsp)
   18000219b:	f3 0f 7f 44 24 50    	movdqu %xmm0,0x50(%rsp)
   1800021a1:	f3 0f 7f 4c 24 60    	movdqu %xmm1,0x60(%rsp)
   1800021a7:	f3 0f 7f 54 24 70    	movdqu %xmm2,0x70(%rsp)
   1800021ad:	f3 0f 7f 9c 24 80 00 	movdqu %xmm3,0x80(%rsp)
   1800021b4:	00 00 
   1800021b6:	f3 0f 7f a4 24 90 00 	movdqu %xmm4,0x90(%rsp)
   1800021bd:	00 00 
   1800021bf:	f3 0f 7f ac 24 a0 00 	movdqu %xmm5,0xa0(%rsp)
   1800021c6:	00 00 
   1800021c8:	48 8d 0d 61 57 00 00 	lea    0x5761(%rip),%rcx        # 0x180007930
   1800021cf:	e8 12 2e 00 00       	callq  0x180004fe6
   1800021d4:	48 85 c0             	test   %rax,%rax
   1800021d7:	75 0c                	jne    0x1800021e5
   1800021d9:	48 8d 0d 50 57 00 00 	lea    0x5750(%rip),%rcx        # 0x180007930
   1800021e0:	e8 fb 2d 00 00       	callq  0x180004fe0
   1800021e5:	48 8b c8             	mov    %rax,%rcx
   1800021e8:	48 8d 15 e1 52 00 00 	lea    0x52e1(%rip),%rdx        # 0x1800074d0
   1800021ef:	e8 f8 2d 00 00       	callq  0x180004fec
   1800021f4:	48 8b 4c 24 30       	mov    0x30(%rsp),%rcx
   1800021f9:	48 8b 54 24 38       	mov    0x38(%rsp),%rdx
   1800021fe:	4c 8b 44 24 40       	mov    0x40(%rsp),%r8
   180002203:	4c 8b 4c 24 48       	mov    0x48(%rsp),%r9
   180002208:	f3 0f 6f 44 24 50    	movdqu 0x50(%rsp),%xmm0
   18000220e:	f3 0f 6f 4c 24 60    	movdqu 0x60(%rsp),%xmm1
   180002214:	f3 0f 6f 54 24 70    	movdqu 0x70(%rsp),%xmm2
   18000221a:	f3 0f 6f 9c 24 80 00 	movdqu 0x80(%rsp),%xmm3
   180002221:	00 00 
   180002223:	f3 0f 6f a4 24 90 00 	movdqu 0x90(%rsp),%xmm4
   18000222a:	00 00 
   18000222c:	f3 0f 6f ac 24 a0 00 	movdqu 0xa0(%rsp),%xmm5
   180002233:	00 00 
   180002235:	48 81 c4 08 01 00 00 	add    $0x108,%rsp
   18000223c:	ff e0                	jmpq   *%rax
   18000223e:	66 90                	xchg   %ax,%ax
   180002240:	48 81 ec 08 01 00 00 	sub    $0x108,%rsp
   180002247:	48 89 4c 24 30       	mov    %rcx,0x30(%rsp)
   18000224c:	48 89 54 24 38       	mov    %rdx,0x38(%rsp)
   180002251:	4c 89 44 24 40       	mov    %r8,0x40(%rsp)
   180002256:	4c 89 4c 24 48       	mov    %r9,0x48(%rsp)
   18000225b:	f3 0f 7f 44 24 50    	movdqu %xmm0,0x50(%rsp)
   180002261:	f3 0f 7f 4c 24 60    	movdqu %xmm1,0x60(%rsp)
   180002267:	f3 0f 7f 54 24 70    	movdqu %xmm2,0x70(%rsp)
   18000226d:	f3 0f 7f 9c 24 80 00 	movdqu %xmm3,0x80(%rsp)
   180002274:	00 00 
   180002276:	f3 0f 7f a4 24 90 00 	movdqu %xmm4,0x90(%rsp)
   18000227d:	00 00 
   18000227f:	f3 0f 7f ac 24 a0 00 	movdqu %xmm5,0xa0(%rsp)
   180002286:	00 00 
   180002288:	48 8d 0d a1 56 00 00 	lea    0x56a1(%rip),%rcx        # 0x180007930
   18000228f:	e8 52 2d 00 00       	callq  0x180004fe6
   180002294:	48 85 c0             	test   %rax,%rax
   180002297:	75 0c                	jne    0x1800022a5
   180002299:	48 8d 0d 90 56 00 00 	lea    0x5690(%rip),%rcx        # 0x180007930
   1800022a0:	e8 3b 2d 00 00       	callq  0x180004fe0
   1800022a5:	48 8b c8             	mov    %rax,%rcx
   1800022a8:	48 8d 15 41 52 00 00 	lea    0x5241(%rip),%rdx        # 0x1800074f0
   1800022af:	e8 38 2d 00 00       	callq  0x180004fec
   1800022b4:	48 8b 4c 24 30       	mov    0x30(%rsp),%rcx
   1800022b9:	48 8b 54 24 38       	mov    0x38(%rsp),%rdx
   1800022be:	4c 8b 44 24 40       	mov    0x40(%rsp),%r8
   1800022c3:	4c 8b 4c 24 48       	mov    0x48(%rsp),%r9
   1800022c8:	f3 0f 6f 44 24 50    	movdqu 0x50(%rsp),%xmm0
   1800022ce:	f3 0f 6f 4c 24 60    	movdqu 0x60(%rsp),%xmm1
   1800022d4:	f3 0f 6f 54 24 70    	movdqu 0x70(%rsp),%xmm2
   1800022da:	f3 0f 6f 9c 24 80 00 	movdqu 0x80(%rsp),%xmm3
   1800022e1:	00 00 
   1800022e3:	f3 0f 6f a4 24 90 00 	movdqu 0x90(%rsp),%xmm4
   1800022ea:	00 00 
   1800022ec:	f3 0f 6f ac 24 a0 00 	movdqu 0xa0(%rsp),%xmm5
   1800022f3:	00 00 
   1800022f5:	48 81 c4 08 01 00 00 	add    $0x108,%rsp
   1800022fc:	ff e0                	jmpq   *%rax
   1800022fe:	66 90                	xchg   %ax,%ax
   180002300:	48 81 ec 08 01 00 00 	sub    $0x108,%rsp
   180002307:	48 89 4c 24 30       	mov    %rcx,0x30(%rsp)
   18000230c:	48 89 54 24 38       	mov    %rdx,0x38(%rsp)
   180002311:	4c 89 44 24 40       	mov    %r8,0x40(%rsp)
   180002316:	4c 89 4c 24 48       	mov    %r9,0x48(%rsp)
   18000231b:	f3 0f 7f 44 24 50    	movdqu %xmm0,0x50(%rsp)
   180002321:	f3 0f 7f 4c 24 60    	movdqu %xmm1,0x60(%rsp)
   180002327:	f3 0f 7f 54 24 70    	movdqu %xmm2,0x70(%rsp)
   18000232d:	f3 0f 7f 9c 24 80 00 	movdqu %xmm3,0x80(%rsp)
   180002334:	00 00 
   180002336:	f3 0f 7f a4 24 90 00 	movdqu %xmm4,0x90(%rsp)
   18000233d:	00 00 
   18000233f:	f3 0f 7f ac 24 a0 00 	movdqu %xmm5,0xa0(%rsp)
   180002346:	00 00 
   180002348:	48 8d 0d e1 55 00 00 	lea    0x55e1(%rip),%rcx        # 0x180007930
   18000234f:	e8 92 2c 00 00       	callq  0x180004fe6
   180002354:	48 85 c0             	test   %rax,%rax
   180002357:	75 0c                	jne    0x180002365
   180002359:	48 8d 0d d0 55 00 00 	lea    0x55d0(%rip),%rcx        # 0x180007930
   180002360:	e8 7b 2c 00 00       	callq  0x180004fe0
   180002365:	48 8b c8             	mov    %rax,%rcx
   180002368:	48 8d 15 a1 51 00 00 	lea    0x51a1(%rip),%rdx        # 0x180007510
   18000236f:	e8 78 2c 00 00       	callq  0x180004fec
   180002374:	48 8b 4c 24 30       	mov    0x30(%rsp),%rcx
   180002379:	48 8b 54 24 38       	mov    0x38(%rsp),%rdx
   18000237e:	4c 8b 44 24 40       	mov    0x40(%rsp),%r8
   180002383:	4c 8b 4c 24 48       	mov    0x48(%rsp),%r9
   180002388:	f3 0f 6f 44 24 50    	movdqu 0x50(%rsp),%xmm0
   18000238e:	f3 0f 6f 4c 24 60    	movdqu 0x60(%rsp),%xmm1
   180002394:	f3 0f 6f 54 24 70    	movdqu 0x70(%rsp),%xmm2
   18000239a:	f3 0f 6f 9c 24 80 00 	movdqu 0x80(%rsp),%xmm3
   1800023a1:	00 00 
   1800023a3:	f3 0f 6f a4 24 90 00 	movdqu 0x90(%rsp),%xmm4
   1800023aa:	00 00 
   1800023ac:	f3 0f 6f ac 24 a0 00 	movdqu 0xa0(%rsp),%xmm5
   1800023b3:	00 00 
   1800023b5:	48 81 c4 08 01 00 00 	add    $0x108,%rsp
   1800023bc:	ff e0                	jmpq   *%rax
   1800023be:	66 90                	xchg   %ax,%ax
   1800023c0:	48 81 ec 08 01 00 00 	sub    $0x108,%rsp
   1800023c7:	48 89 4c 24 30       	mov    %rcx,0x30(%rsp)
   1800023cc:	48 89 54 24 38       	mov    %rdx,0x38(%rsp)
   1800023d1:	4c 89 44 24 40       	mov    %r8,0x40(%rsp)
   1800023d6:	4c 89 4c 24 48       	mov    %r9,0x48(%rsp)
   1800023db:	f3 0f 7f 44 24 50    	movdqu %xmm0,0x50(%rsp)
   1800023e1:	f3 0f 7f 4c 24 60    	movdqu %xmm1,0x60(%rsp)
   1800023e7:	f3 0f 7f 54 24 70    	movdqu %xmm2,0x70(%rsp)
   1800023ed:	f3 0f 7f 9c 24 80 00 	movdqu %xmm3,0x80(%rsp)
   1800023f4:	00 00 
   1800023f6:	f3 0f 7f a4 24 90 00 	movdqu %xmm4,0x90(%rsp)
   1800023fd:	00 00 
   1800023ff:	f3 0f 7f ac 24 a0 00 	movdqu %xmm5,0xa0(%rsp)
   180002406:	00 00 
   180002408:	48 8d 0d 31 55 00 00 	lea    0x5531(%rip),%rcx        # 0x180007940
   18000240f:	e8 d2 2b 00 00       	callq  0x180004fe6
   180002414:	48 85 c0             	test   %rax,%rax
   180002417:	75 0c                	jne    0x180002425
   180002419:	48 8d 0d 20 55 00 00 	lea    0x5520(%rip),%rcx        # 0x180007940
   180002420:	e8 bb 2b 00 00       	callq  0x180004fe0
   180002425:	48 8b c8             	mov    %rax,%rcx
   180002428:	48 8d 15 01 51 00 00 	lea    0x5101(%rip),%rdx        # 0x180007530
   18000242f:	e8 b8 2b 00 00       	callq  0x180004fec
   180002434:	48 8b 4c 24 30       	mov    0x30(%rsp),%rcx
   180002439:	48 8b 54 24 38       	mov    0x38(%rsp),%rdx
   18000243e:	4c 8b 44 24 40       	mov    0x40(%rsp),%r8
   180002443:	4c 8b 4c 24 48       	mov    0x48(%rsp),%r9
   180002448:	f3 0f 6f 44 24 50    	movdqu 0x50(%rsp),%xmm0
   18000244e:	f3 0f 6f 4c 24 60    	movdqu 0x60(%rsp),%xmm1
   180002454:	f3 0f 6f 54 24 70    	movdqu 0x70(%rsp),%xmm2
   18000245a:	f3 0f 6f 9c 24 80 00 	movdqu 0x80(%rsp),%xmm3
   180002461:	00 00 
   180002463:	f3 0f 6f a4 24 90 00 	movdqu 0x90(%rsp),%xmm4
   18000246a:	00 00 
   18000246c:	f3 0f 6f ac 24 a0 00 	movdqu 0xa0(%rsp),%xmm5
   180002473:	00 00 
   180002475:	48 81 c4 08 01 00 00 	add    $0x108,%rsp
   18000247c:	ff e0                	jmpq   *%rax
   18000247e:	66 90                	xchg   %ax,%ax
   180002480:	48 81 ec 08 01 00 00 	sub    $0x108,%rsp
   180002487:	48 89 4c 24 30       	mov    %rcx,0x30(%rsp)
   18000248c:	48 89 54 24 38       	mov    %rdx,0x38(%rsp)
   180002491:	4c 89 44 24 40       	mov    %r8,0x40(%rsp)
   180002496:	4c 89 4c 24 48       	mov    %r9,0x48(%rsp)
   18000249b:	f3 0f 7f 44 24 50    	movdqu %xmm0,0x50(%rsp)
   1800024a1:	f3 0f 7f 4c 24 60    	movdqu %xmm1,0x60(%rsp)
   1800024a7:	f3 0f 7f 54 24 70    	movdqu %xmm2,0x70(%rsp)
   1800024ad:	f3 0f 7f 9c 24 80 00 	movdqu %xmm3,0x80(%rsp)
   1800024b4:	00 00 
   1800024b6:	f3 0f 7f a4 24 90 00 	movdqu %xmm4,0x90(%rsp)
   1800024bd:	00 00 
   1800024bf:	f3 0f 7f ac 24 a0 00 	movdqu %xmm5,0xa0(%rsp)
   1800024c6:	00 00 
   1800024c8:	48 8d 0d 61 54 00 00 	lea    0x5461(%rip),%rcx        # 0x180007930
   1800024cf:	e8 12 2b 00 00       	callq  0x180004fe6
   1800024d4:	48 85 c0             	test   %rax,%rax
   1800024d7:	75 0c                	jne    0x1800024e5
   1800024d9:	48 8d 0d 50 54 00 00 	lea    0x5450(%rip),%rcx        # 0x180007930
   1800024e0:	e8 fb 2a 00 00       	callq  0x180004fe0
   1800024e5:	48 8b c8             	mov    %rax,%rcx
   1800024e8:	48 8d 15 61 50 00 00 	lea    0x5061(%rip),%rdx        # 0x180007550
   1800024ef:	e8 f8 2a 00 00       	callq  0x180004fec
   1800024f4:	48 8b 4c 24 30       	mov    0x30(%rsp),%rcx
   1800024f9:	48 8b 54 24 38       	mov    0x38(%rsp),%rdx
   1800024fe:	4c 8b 44 24 40       	mov    0x40(%rsp),%r8
   180002503:	4c 8b 4c 24 48       	mov    0x48(%rsp),%r9
   180002508:	f3 0f 6f 44 24 50    	movdqu 0x50(%rsp),%xmm0
   18000250e:	f3 0f 6f 4c 24 60    	movdqu 0x60(%rsp),%xmm1
   180002514:	f3 0f 6f 54 24 70    	movdqu 0x70(%rsp),%xmm2
   18000251a:	f3 0f 6f 9c 24 80 00 	movdqu 0x80(%rsp),%xmm3
   180002521:	00 00 
   180002523:	f3 0f 6f a4 24 90 00 	movdqu 0x90(%rsp),%xmm4
   18000252a:	00 00 
   18000252c:	f3 0f 6f ac 24 a0 00 	movdqu 0xa0(%rsp),%xmm5
   180002533:	00 00 
   180002535:	48 81 c4 08 01 00 00 	add    $0x108,%rsp
   18000253c:	ff e0                	jmpq   *%rax
   18000253e:	66 90                	xchg   %ax,%ax
   180002540:	48 81 ec 08 01 00 00 	sub    $0x108,%rsp
   180002547:	48 89 4c 24 30       	mov    %rcx,0x30(%rsp)
   18000254c:	48 89 54 24 38       	mov    %rdx,0x38(%rsp)
   180002551:	4c 89 44 24 40       	mov    %r8,0x40(%rsp)
   180002556:	4c 89 4c 24 48       	mov    %r9,0x48(%rsp)
   18000255b:	f3 0f 7f 44 24 50    	movdqu %xmm0,0x50(%rsp)
   180002561:	f3 0f 7f 4c 24 60    	movdqu %xmm1,0x60(%rsp)
   180002567:	f3 0f 7f 54 24 70    	movdqu %xmm2,0x70(%rsp)
   18000256d:	f3 0f 7f 9c 24 80 00 	movdqu %xmm3,0x80(%rsp)
   180002574:	00 00 
   180002576:	f3 0f 7f a4 24 90 00 	movdqu %xmm4,0x90(%rsp)
   18000257d:	00 00 
   18000257f:	f3 0f 7f ac 24 a0 00 	movdqu %xmm5,0xa0(%rsp)
   180002586:	00 00 
   180002588:	48 8d 0d a1 53 00 00 	lea    0x53a1(%rip),%rcx        # 0x180007930
   18000258f:	e8 52 2a 00 00       	callq  0x180004fe6
   180002594:	48 85 c0             	test   %rax,%rax
   180002597:	75 0c                	jne    0x1800025a5
   180002599:	48 8d 0d 90 53 00 00 	lea    0x5390(%rip),%rcx        # 0x180007930
   1800025a0:	e8 3b 2a 00 00       	callq  0x180004fe0
   1800025a5:	48 8b c8             	mov    %rax,%rcx
   1800025a8:	48 8d 15 c1 4f 00 00 	lea    0x4fc1(%rip),%rdx        # 0x180007570
   1800025af:	e8 38 2a 00 00       	callq  0x180004fec
   1800025b4:	48 8b 4c 24 30       	mov    0x30(%rsp),%rcx
   1800025b9:	48 8b 54 24 38       	mov    0x38(%rsp),%rdx
   1800025be:	4c 8b 44 24 40       	mov    0x40(%rsp),%r8
   1800025c3:	4c 8b 4c 24 48       	mov    0x48(%rsp),%r9
   1800025c8:	f3 0f 6f 44 24 50    	movdqu 0x50(%rsp),%xmm0
   1800025ce:	f3 0f 6f 4c 24 60    	movdqu 0x60(%rsp),%xmm1
   1800025d4:	f3 0f 6f 54 24 70    	movdqu 0x70(%rsp),%xmm2
   1800025da:	f3 0f 6f 9c 24 80 00 	movdqu 0x80(%rsp),%xmm3
   1800025e1:	00 00 
   1800025e3:	f3 0f 6f a4 24 90 00 	movdqu 0x90(%rsp),%xmm4
   1800025ea:	00 00 
   1800025ec:	f3 0f 6f ac 24 a0 00 	movdqu 0xa0(%rsp),%xmm5
   1800025f3:	00 00 
   1800025f5:	48 81 c4 08 01 00 00 	add    $0x108,%rsp
   1800025fc:	ff e0                	jmpq   *%rax
   1800025fe:	66 90                	xchg   %ax,%ax
   180002600:	48 81 ec 08 01 00 00 	sub    $0x108,%rsp
   180002607:	48 89 4c 24 30       	mov    %rcx,0x30(%rsp)
   18000260c:	48 89 54 24 38       	mov    %rdx,0x38(%rsp)
   180002611:	4c 89 44 24 40       	mov    %r8,0x40(%rsp)
   180002616:	4c 89 4c 24 48       	mov    %r9,0x48(%rsp)
   18000261b:	f3 0f 7f 44 24 50    	movdqu %xmm0,0x50(%rsp)
   180002621:	f3 0f 7f 4c 24 60    	movdqu %xmm1,0x60(%rsp)
   180002627:	f3 0f 7f 54 24 70    	movdqu %xmm2,0x70(%rsp)
   18000262d:	f3 0f 7f 9c 24 80 00 	movdqu %xmm3,0x80(%rsp)
   180002634:	00 00 
   180002636:	f3 0f 7f a4 24 90 00 	movdqu %xmm4,0x90(%rsp)
   18000263d:	00 00 
   18000263f:	f3 0f 7f ac 24 a0 00 	movdqu %xmm5,0xa0(%rsp)
   180002646:	00 00 
   180002648:	48 8d 0d e1 52 00 00 	lea    0x52e1(%rip),%rcx        # 0x180007930
   18000264f:	e8 92 29 00 00       	callq  0x180004fe6
   180002654:	48 85 c0             	test   %rax,%rax
   180002657:	75 0c                	jne    0x180002665
   180002659:	48 8d 0d d0 52 00 00 	lea    0x52d0(%rip),%rcx        # 0x180007930
   180002660:	e8 7b 29 00 00       	callq  0x180004fe0
   180002665:	48 8b c8             	mov    %rax,%rcx
   180002668:	48 8d 15 21 4f 00 00 	lea    0x4f21(%rip),%rdx        # 0x180007590
   18000266f:	e8 78 29 00 00       	callq  0x180004fec
   180002674:	48 8b 4c 24 30       	mov    0x30(%rsp),%rcx
   180002679:	48 8b 54 24 38       	mov    0x38(%rsp),%rdx
   18000267e:	4c 8b 44 24 40       	mov    0x40(%rsp),%r8
   180002683:	4c 8b 4c 24 48       	mov    0x48(%rsp),%r9
   180002688:	f3 0f 6f 44 24 50    	movdqu 0x50(%rsp),%xmm0
   18000268e:	f3 0f 6f 4c 24 60    	movdqu 0x60(%rsp),%xmm1
   180002694:	f3 0f 6f 54 24 70    	movdqu 0x70(%rsp),%xmm2
   18000269a:	f3 0f 6f 9c 24 80 00 	movdqu 0x80(%rsp),%xmm3
   1800026a1:	00 00 
   1800026a3:	f3 0f 6f a4 24 90 00 	movdqu 0x90(%rsp),%xmm4
   1800026aa:	00 00 
   1800026ac:	f3 0f 6f ac 24 a0 00 	movdqu 0xa0(%rsp),%xmm5
   1800026b3:	00 00 
   1800026b5:	48 81 c4 08 01 00 00 	add    $0x108,%rsp
   1800026bc:	ff e0                	jmpq   *%rax
   1800026be:	66 90                	xchg   %ax,%ax
   1800026c0:	48 81 ec 08 01 00 00 	sub    $0x108,%rsp
   1800026c7:	48 89 4c 24 30       	mov    %rcx,0x30(%rsp)
   1800026cc:	48 89 54 24 38       	mov    %rdx,0x38(%rsp)
   1800026d1:	4c 89 44 24 40       	mov    %r8,0x40(%rsp)
   1800026d6:	4c 89 4c 24 48       	mov    %r9,0x48(%rsp)
   1800026db:	f3 0f 7f 44 24 50    	movdqu %xmm0,0x50(%rsp)
   1800026e1:	f3 0f 7f 4c 24 60    	movdqu %xmm1,0x60(%rsp)
   1800026e7:	f3 0f 7f 54 24 70    	movdqu %xmm2,0x70(%rsp)
   1800026ed:	f3 0f 7f 9c 24 80 00 	movdqu %xmm3,0x80(%rsp)
   1800026f4:	00 00 
   1800026f6:	f3 0f 7f a4 24 90 00 	movdqu %xmm4,0x90(%rsp)
   1800026fd:	00 00 
   1800026ff:	f3 0f 7f ac 24 a0 00 	movdqu %xmm5,0xa0(%rsp)
   180002706:	00 00 
   180002708:	48 8d 0d 21 52 00 00 	lea    0x5221(%rip),%rcx        # 0x180007930
   18000270f:	e8 d2 28 00 00       	callq  0x180004fe6
   180002714:	48 85 c0             	test   %rax,%rax
   180002717:	75 0c                	jne    0x180002725
   180002719:	48 8d 0d 10 52 00 00 	lea    0x5210(%rip),%rcx        # 0x180007930
   180002720:	e8 bb 28 00 00       	callq  0x180004fe0
   180002725:	48 8b c8             	mov    %rax,%rcx
   180002728:	48 8d 15 81 4e 00 00 	lea    0x4e81(%rip),%rdx        # 0x1800075b0
   18000272f:	e8 b8 28 00 00       	callq  0x180004fec
   180002734:	48 8b 4c 24 30       	mov    0x30(%rsp),%rcx
   180002739:	48 8b 54 24 38       	mov    0x38(%rsp),%rdx
   18000273e:	4c 8b 44 24 40       	mov    0x40(%rsp),%r8
   180002743:	4c 8b 4c 24 48       	mov    0x48(%rsp),%r9
   180002748:	f3 0f 6f 44 24 50    	movdqu 0x50(%rsp),%xmm0
   18000274e:	f3 0f 6f 4c 24 60    	movdqu 0x60(%rsp),%xmm1
   180002754:	f3 0f 6f 54 24 70    	movdqu 0x70(%rsp),%xmm2
   18000275a:	f3 0f 6f 9c 24 80 00 	movdqu 0x80(%rsp),%xmm3
   180002761:	00 00 
   180002763:	f3 0f 6f a4 24 90 00 	movdqu 0x90(%rsp),%xmm4
   18000276a:	00 00 
   18000276c:	f3 0f 6f ac 24 a0 00 	movdqu 0xa0(%rsp),%xmm5
   180002773:	00 00 
   180002775:	48 81 c4 08 01 00 00 	add    $0x108,%rsp
   18000277c:	ff e0                	jmpq   *%rax
   18000277e:	66 90                	xchg   %ax,%ax
   180002780:	48 81 ec 08 01 00 00 	sub    $0x108,%rsp
   180002787:	48 89 4c 24 30       	mov    %rcx,0x30(%rsp)
   18000278c:	48 89 54 24 38       	mov    %rdx,0x38(%rsp)
   180002791:	4c 89 44 24 40       	mov    %r8,0x40(%rsp)
   180002796:	4c 89 4c 24 48       	mov    %r9,0x48(%rsp)
   18000279b:	f3 0f 7f 44 24 50    	movdqu %xmm0,0x50(%rsp)
   1800027a1:	f3 0f 7f 4c 24 60    	movdqu %xmm1,0x60(%rsp)
   1800027a7:	f3 0f 7f 54 24 70    	movdqu %xmm2,0x70(%rsp)
   1800027ad:	f3 0f 7f 9c 24 80 00 	movdqu %xmm3,0x80(%rsp)
   1800027b4:	00 00 
   1800027b6:	f3 0f 7f a4 24 90 00 	movdqu %xmm4,0x90(%rsp)
   1800027bd:	00 00 
   1800027bf:	f3 0f 7f ac 24 a0 00 	movdqu %xmm5,0xa0(%rsp)
   1800027c6:	00 00 
   1800027c8:	48 8d 0d 61 51 00 00 	lea    0x5161(%rip),%rcx        # 0x180007930
   1800027cf:	e8 12 28 00 00       	callq  0x180004fe6
   1800027d4:	48 85 c0             	test   %rax,%rax
   1800027d7:	75 0c                	jne    0x1800027e5
   1800027d9:	48 8d 0d 50 51 00 00 	lea    0x5150(%rip),%rcx        # 0x180007930
   1800027e0:	e8 fb 27 00 00       	callq  0x180004fe0
   1800027e5:	48 8b c8             	mov    %rax,%rcx
   1800027e8:	48 8d 15 e1 4d 00 00 	lea    0x4de1(%rip),%rdx        # 0x1800075d0
   1800027ef:	e8 f8 27 00 00       	callq  0x180004fec
   1800027f4:	48 8b 4c 24 30       	mov    0x30(%rsp),%rcx
   1800027f9:	48 8b 54 24 38       	mov    0x38(%rsp),%rdx
   1800027fe:	4c 8b 44 24 40       	mov    0x40(%rsp),%r8
   180002803:	4c 8b 4c 24 48       	mov    0x48(%rsp),%r9
   180002808:	f3 0f 6f 44 24 50    	movdqu 0x50(%rsp),%xmm0
   18000280e:	f3 0f 6f 4c 24 60    	movdqu 0x60(%rsp),%xmm1
   180002814:	f3 0f 6f 54 24 70    	movdqu 0x70(%rsp),%xmm2
   18000281a:	f3 0f 6f 9c 24 80 00 	movdqu 0x80(%rsp),%xmm3
   180002821:	00 00 
   180002823:	f3 0f 6f a4 24 90 00 	movdqu 0x90(%rsp),%xmm4
   18000282a:	00 00 
   18000282c:	f3 0f 6f ac 24 a0 00 	movdqu 0xa0(%rsp),%xmm5
   180002833:	00 00 
   180002835:	48 81 c4 08 01 00 00 	add    $0x108,%rsp
   18000283c:	ff e0                	jmpq   *%rax
   18000283e:	66 90                	xchg   %ax,%ax
   180002840:	48 81 ec 08 01 00 00 	sub    $0x108,%rsp
   180002847:	48 89 4c 24 30       	mov    %rcx,0x30(%rsp)
   18000284c:	48 89 54 24 38       	mov    %rdx,0x38(%rsp)
   180002851:	4c 89 44 24 40       	mov    %r8,0x40(%rsp)
   180002856:	4c 89 4c 24 48       	mov    %r9,0x48(%rsp)
   18000285b:	f3 0f 7f 44 24 50    	movdqu %xmm0,0x50(%rsp)
   180002861:	f3 0f 7f 4c 24 60    	movdqu %xmm1,0x60(%rsp)
   180002867:	f3 0f 7f 54 24 70    	movdqu %xmm2,0x70(%rsp)
   18000286d:	f3 0f 7f 9c 24 80 00 	movdqu %xmm3,0x80(%rsp)
   180002874:	00 00 
   180002876:	f3 0f 7f a4 24 90 00 	movdqu %xmm4,0x90(%rsp)
   18000287d:	00 00 
   18000287f:	f3 0f 7f ac 24 a0 00 	movdqu %xmm5,0xa0(%rsp)
   180002886:	00 00 
   180002888:	48 8d 0d b1 50 00 00 	lea    0x50b1(%rip),%rcx        # 0x180007940
   18000288f:	e8 52 27 00 00       	callq  0x180004fe6
   180002894:	48 85 c0             	test   %rax,%rax
   180002897:	75 0c                	jne    0x1800028a5
   180002899:	48 8d 0d a0 50 00 00 	lea    0x50a0(%rip),%rcx        # 0x180007940
   1800028a0:	e8 3b 27 00 00       	callq  0x180004fe0
   1800028a5:	48 8b c8             	mov    %rax,%rcx
   1800028a8:	48 8d 15 41 4d 00 00 	lea    0x4d41(%rip),%rdx        # 0x1800075f0
   1800028af:	e8 38 27 00 00       	callq  0x180004fec
   1800028b4:	48 8b 4c 24 30       	mov    0x30(%rsp),%rcx
   1800028b9:	48 8b 54 24 38       	mov    0x38(%rsp),%rdx
   1800028be:	4c 8b 44 24 40       	mov    0x40(%rsp),%r8
   1800028c3:	4c 8b 4c 24 48       	mov    0x48(%rsp),%r9
   1800028c8:	f3 0f 6f 44 24 50    	movdqu 0x50(%rsp),%xmm0
   1800028ce:	f3 0f 6f 4c 24 60    	movdqu 0x60(%rsp),%xmm1
   1800028d4:	f3 0f 6f 54 24 70    	movdqu 0x70(%rsp),%xmm2
   1800028da:	f3 0f 6f 9c 24 80 00 	movdqu 0x80(%rsp),%xmm3
   1800028e1:	00 00 
   1800028e3:	f3 0f 6f a4 24 90 00 	movdqu 0x90(%rsp),%xmm4
   1800028ea:	00 00 
   1800028ec:	f3 0f 6f ac 24 a0 00 	movdqu 0xa0(%rsp),%xmm5
   1800028f3:	00 00 
   1800028f5:	48 81 c4 08 01 00 00 	add    $0x108,%rsp
   1800028fc:	ff e0                	jmpq   *%rax
   1800028fe:	66 90                	xchg   %ax,%ax
   180002900:	48 81 ec 08 01 00 00 	sub    $0x108,%rsp
   180002907:	48 89 4c 24 30       	mov    %rcx,0x30(%rsp)
   18000290c:	48 89 54 24 38       	mov    %rdx,0x38(%rsp)
   180002911:	4c 89 44 24 40       	mov    %r8,0x40(%rsp)
   180002916:	4c 89 4c 24 48       	mov    %r9,0x48(%rsp)
   18000291b:	f3 0f 7f 44 24 50    	movdqu %xmm0,0x50(%rsp)
   180002921:	f3 0f 7f 4c 24 60    	movdqu %xmm1,0x60(%rsp)
   180002927:	f3 0f 7f 54 24 70    	movdqu %xmm2,0x70(%rsp)
   18000292d:	f3 0f 7f 9c 24 80 00 	movdqu %xmm3,0x80(%rsp)
   180002934:	00 00 
   180002936:	f3 0f 7f a4 24 90 00 	movdqu %xmm4,0x90(%rsp)
   18000293d:	00 00 
   18000293f:	f3 0f 7f ac 24 a0 00 	movdqu %xmm5,0xa0(%rsp)
   180002946:	00 00 
   180002948:	48 8d 0d e1 4f 00 00 	lea    0x4fe1(%rip),%rcx        # 0x180007930
   18000294f:	e8 92 26 00 00       	callq  0x180004fe6
   180002954:	48 85 c0             	test   %rax,%rax
   180002957:	75 0c                	jne    0x180002965
   180002959:	48 8d 0d d0 4f 00 00 	lea    0x4fd0(%rip),%rcx        # 0x180007930
   180002960:	e8 7b 26 00 00       	callq  0x180004fe0
   180002965:	48 8b c8             	mov    %rax,%rcx
   180002968:	48 8d 15 a1 4c 00 00 	lea    0x4ca1(%rip),%rdx        # 0x180007610
   18000296f:	e8 78 26 00 00       	callq  0x180004fec
   180002974:	48 8b 4c 24 30       	mov    0x30(%rsp),%rcx
   180002979:	48 8b 54 24 38       	mov    0x38(%rsp),%rdx
   18000297e:	4c 8b 44 24 40       	mov    0x40(%rsp),%r8
   180002983:	4c 8b 4c 24 48       	mov    0x48(%rsp),%r9
   180002988:	f3 0f 6f 44 24 50    	movdqu 0x50(%rsp),%xmm0
   18000298e:	f3 0f 6f 4c 24 60    	movdqu 0x60(%rsp),%xmm1
   180002994:	f3 0f 6f 54 24 70    	movdqu 0x70(%rsp),%xmm2
   18000299a:	f3 0f 6f 9c 24 80 00 	movdqu 0x80(%rsp),%xmm3
   1800029a1:	00 00 
   1800029a3:	f3 0f 6f a4 24 90 00 	movdqu 0x90(%rsp),%xmm4
   1800029aa:	00 00 
   1800029ac:	f3 0f 6f ac 24 a0 00 	movdqu 0xa0(%rsp),%xmm5
   1800029b3:	00 00 
   1800029b5:	48 81 c4 08 01 00 00 	add    $0x108,%rsp
   1800029bc:	ff e0                	jmpq   *%rax
   1800029be:	66 90                	xchg   %ax,%ax
   1800029c0:	48 81 ec 08 01 00 00 	sub    $0x108,%rsp
   1800029c7:	48 89 4c 24 30       	mov    %rcx,0x30(%rsp)
   1800029cc:	48 89 54 24 38       	mov    %rdx,0x38(%rsp)
   1800029d1:	4c 89 44 24 40       	mov    %r8,0x40(%rsp)
   1800029d6:	4c 89 4c 24 48       	mov    %r9,0x48(%rsp)
   1800029db:	f3 0f 7f 44 24 50    	movdqu %xmm0,0x50(%rsp)
   1800029e1:	f3 0f 7f 4c 24 60    	movdqu %xmm1,0x60(%rsp)
   1800029e7:	f3 0f 7f 54 24 70    	movdqu %xmm2,0x70(%rsp)
   1800029ed:	f3 0f 7f 9c 24 80 00 	movdqu %xmm3,0x80(%rsp)
   1800029f4:	00 00 
   1800029f6:	f3 0f 7f a4 24 90 00 	movdqu %xmm4,0x90(%rsp)
   1800029fd:	00 00 
   1800029ff:	f3 0f 7f ac 24 a0 00 	movdqu %xmm5,0xa0(%rsp)
   180002a06:	00 00 
   180002a08:	48 8d 0d 21 4f 00 00 	lea    0x4f21(%rip),%rcx        # 0x180007930
   180002a0f:	e8 d2 25 00 00       	callq  0x180004fe6
   180002a14:	48 85 c0             	test   %rax,%rax
   180002a17:	75 0c                	jne    0x180002a25
   180002a19:	48 8d 0d 10 4f 00 00 	lea    0x4f10(%rip),%rcx        # 0x180007930
   180002a20:	e8 bb 25 00 00       	callq  0x180004fe0
   180002a25:	48 8b c8             	mov    %rax,%rcx
   180002a28:	48 8d 15 01 4c 00 00 	lea    0x4c01(%rip),%rdx        # 0x180007630
   180002a2f:	e8 b8 25 00 00       	callq  0x180004fec
   180002a34:	48 8b 4c 24 30       	mov    0x30(%rsp),%rcx
   180002a39:	48 8b 54 24 38       	mov    0x38(%rsp),%rdx
   180002a3e:	4c 8b 44 24 40       	mov    0x40(%rsp),%r8
   180002a43:	4c 8b 4c 24 48       	mov    0x48(%rsp),%r9
   180002a48:	f3 0f 6f 44 24 50    	movdqu 0x50(%rsp),%xmm0
   180002a4e:	f3 0f 6f 4c 24 60    	movdqu 0x60(%rsp),%xmm1
   180002a54:	f3 0f 6f 54 24 70    	movdqu 0x70(%rsp),%xmm2
   180002a5a:	f3 0f 6f 9c 24 80 00 	movdqu 0x80(%rsp),%xmm3
   180002a61:	00 00 
   180002a63:	f3 0f 6f a4 24 90 00 	movdqu 0x90(%rsp),%xmm4
   180002a6a:	00 00 
   180002a6c:	f3 0f 6f ac 24 a0 00 	movdqu 0xa0(%rsp),%xmm5
   180002a73:	00 00 
   180002a75:	48 81 c4 08 01 00 00 	add    $0x108,%rsp
   180002a7c:	ff e0                	jmpq   *%rax
   180002a7e:	66 90                	xchg   %ax,%ax
   180002a80:	48 81 ec 08 01 00 00 	sub    $0x108,%rsp
   180002a87:	48 89 4c 24 30       	mov    %rcx,0x30(%rsp)
   180002a8c:	48 89 54 24 38       	mov    %rdx,0x38(%rsp)
   180002a91:	4c 89 44 24 40       	mov    %r8,0x40(%rsp)
   180002a96:	4c 89 4c 24 48       	mov    %r9,0x48(%rsp)
   180002a9b:	f3 0f 7f 44 24 50    	movdqu %xmm0,0x50(%rsp)
   180002aa1:	f3 0f 7f 4c 24 60    	movdqu %xmm1,0x60(%rsp)
   180002aa7:	f3 0f 7f 54 24 70    	movdqu %xmm2,0x70(%rsp)
   180002aad:	f3 0f 7f 9c 24 80 00 	movdqu %xmm3,0x80(%rsp)
   180002ab4:	00 00 
   180002ab6:	f3 0f 7f a4 24 90 00 	movdqu %xmm4,0x90(%rsp)
   180002abd:	00 00 
   180002abf:	f3 0f 7f ac 24 a0 00 	movdqu %xmm5,0xa0(%rsp)
   180002ac6:	00 00 
   180002ac8:	48 8d 0d 61 4e 00 00 	lea    0x4e61(%rip),%rcx        # 0x180007930
   180002acf:	e8 12 25 00 00       	callq  0x180004fe6
   180002ad4:	48 85 c0             	test   %rax,%rax
   180002ad7:	75 0c                	jne    0x180002ae5
   180002ad9:	48 8d 0d 50 4e 00 00 	lea    0x4e50(%rip),%rcx        # 0x180007930
   180002ae0:	e8 fb 24 00 00       	callq  0x180004fe0
   180002ae5:	48 8b c8             	mov    %rax,%rcx
   180002ae8:	48 8d 15 61 4b 00 00 	lea    0x4b61(%rip),%rdx        # 0x180007650
   180002aef:	e8 f8 24 00 00       	callq  0x180004fec
   180002af4:	48 8b 4c 24 30       	mov    0x30(%rsp),%rcx
   180002af9:	48 8b 54 24 38       	mov    0x38(%rsp),%rdx
   180002afe:	4c 8b 44 24 40       	mov    0x40(%rsp),%r8
   180002b03:	4c 8b 4c 24 48       	mov    0x48(%rsp),%r9
   180002b08:	f3 0f 6f 44 24 50    	movdqu 0x50(%rsp),%xmm0
   180002b0e:	f3 0f 6f 4c 24 60    	movdqu 0x60(%rsp),%xmm1
   180002b14:	f3 0f 6f 54 24 70    	movdqu 0x70(%rsp),%xmm2
   180002b1a:	f3 0f 6f 9c 24 80 00 	movdqu 0x80(%rsp),%xmm3
   180002b21:	00 00 
   180002b23:	f3 0f 6f a4 24 90 00 	movdqu 0x90(%rsp),%xmm4
   180002b2a:	00 00 
   180002b2c:	f3 0f 6f ac 24 a0 00 	movdqu 0xa0(%rsp),%xmm5
   180002b33:	00 00 
   180002b35:	48 81 c4 08 01 00 00 	add    $0x108,%rsp
   180002b3c:	ff e0                	jmpq   *%rax
   180002b3e:	66 90                	xchg   %ax,%ax
   180002b40:	48 81 ec 08 01 00 00 	sub    $0x108,%rsp
   180002b47:	48 89 4c 24 30       	mov    %rcx,0x30(%rsp)
   180002b4c:	48 89 54 24 38       	mov    %rdx,0x38(%rsp)
   180002b51:	4c 89 44 24 40       	mov    %r8,0x40(%rsp)
   180002b56:	4c 89 4c 24 48       	mov    %r9,0x48(%rsp)
   180002b5b:	f3 0f 7f 44 24 50    	movdqu %xmm0,0x50(%rsp)
   180002b61:	f3 0f 7f 4c 24 60    	movdqu %xmm1,0x60(%rsp)
   180002b67:	f3 0f 7f 54 24 70    	movdqu %xmm2,0x70(%rsp)
   180002b6d:	f3 0f 7f 9c 24 80 00 	movdqu %xmm3,0x80(%rsp)
   180002b74:	00 00 
   180002b76:	f3 0f 7f a4 24 90 00 	movdqu %xmm4,0x90(%rsp)
   180002b7d:	00 00 
   180002b7f:	f3 0f 7f ac 24 a0 00 	movdqu %xmm5,0xa0(%rsp)
   180002b86:	00 00 
   180002b88:	48 8d 0d a1 4d 00 00 	lea    0x4da1(%rip),%rcx        # 0x180007930
   180002b8f:	e8 52 24 00 00       	callq  0x180004fe6
   180002b94:	48 85 c0             	test   %rax,%rax
   180002b97:	75 0c                	jne    0x180002ba5
   180002b99:	48 8d 0d 90 4d 00 00 	lea    0x4d90(%rip),%rcx        # 0x180007930
   180002ba0:	e8 3b 24 00 00       	callq  0x180004fe0
   180002ba5:	48 8b c8             	mov    %rax,%rcx
   180002ba8:	48 8d 15 c1 4a 00 00 	lea    0x4ac1(%rip),%rdx        # 0x180007670
   180002baf:	e8 38 24 00 00       	callq  0x180004fec
   180002bb4:	48 8b 4c 24 30       	mov    0x30(%rsp),%rcx
   180002bb9:	48 8b 54 24 38       	mov    0x38(%rsp),%rdx
   180002bbe:	4c 8b 44 24 40       	mov    0x40(%rsp),%r8
   180002bc3:	4c 8b 4c 24 48       	mov    0x48(%rsp),%r9
   180002bc8:	f3 0f 6f 44 24 50    	movdqu 0x50(%rsp),%xmm0
   180002bce:	f3 0f 6f 4c 24 60    	movdqu 0x60(%rsp),%xmm1
   180002bd4:	f3 0f 6f 54 24 70    	movdqu 0x70(%rsp),%xmm2
   180002bda:	f3 0f 6f 9c 24 80 00 	movdqu 0x80(%rsp),%xmm3
   180002be1:	00 00 
   180002be3:	f3 0f 6f a4 24 90 00 	movdqu 0x90(%rsp),%xmm4
   180002bea:	00 00 
   180002bec:	f3 0f 6f ac 24 a0 00 	movdqu 0xa0(%rsp),%xmm5
   180002bf3:	00 00 
   180002bf5:	48 81 c4 08 01 00 00 	add    $0x108,%rsp
   180002bfc:	ff e0                	jmpq   *%rax
   180002bfe:	66 90                	xchg   %ax,%ax
   180002c00:	48 81 ec 08 01 00 00 	sub    $0x108,%rsp
   180002c07:	48 89 4c 24 30       	mov    %rcx,0x30(%rsp)
   180002c0c:	48 89 54 24 38       	mov    %rdx,0x38(%rsp)
   180002c11:	4c 89 44 24 40       	mov    %r8,0x40(%rsp)
   180002c16:	4c 89 4c 24 48       	mov    %r9,0x48(%rsp)
   180002c1b:	f3 0f 7f 44 24 50    	movdqu %xmm0,0x50(%rsp)
   180002c21:	f3 0f 7f 4c 24 60    	movdqu %xmm1,0x60(%rsp)
   180002c27:	f3 0f 7f 54 24 70    	movdqu %xmm2,0x70(%rsp)
   180002c2d:	f3 0f 7f 9c 24 80 00 	movdqu %xmm3,0x80(%rsp)
   180002c34:	00 00 
   180002c36:	f3 0f 7f a4 24 90 00 	movdqu %xmm4,0x90(%rsp)
   180002c3d:	00 00 
   180002c3f:	f3 0f 7f ac 24 a0 00 	movdqu %xmm5,0xa0(%rsp)
   180002c46:	00 00 
   180002c48:	48 8d 0d 01 4d 00 00 	lea    0x4d01(%rip),%rcx        # 0x180007950
   180002c4f:	e8 92 23 00 00       	callq  0x180004fe6
   180002c54:	48 85 c0             	test   %rax,%rax
   180002c57:	75 0c                	jne    0x180002c65
   180002c59:	48 8d 0d f0 4c 00 00 	lea    0x4cf0(%rip),%rcx        # 0x180007950
   180002c60:	e8 7b 23 00 00       	callq  0x180004fe0
   180002c65:	48 8b c8             	mov    %rax,%rcx
   180002c68:	48 8d 15 21 4a 00 00 	lea    0x4a21(%rip),%rdx        # 0x180007690
   180002c6f:	e8 78 23 00 00       	callq  0x180004fec
   180002c74:	48 8b 4c 24 30       	mov    0x30(%rsp),%rcx
   180002c79:	48 8b 54 24 38       	mov    0x38(%rsp),%rdx
   180002c7e:	4c 8b 44 24 40       	mov    0x40(%rsp),%r8
   180002c83:	4c 8b 4c 24 48       	mov    0x48(%rsp),%r9
   180002c88:	f3 0f 6f 44 24 50    	movdqu 0x50(%rsp),%xmm0
   180002c8e:	f3 0f 6f 4c 24 60    	movdqu 0x60(%rsp),%xmm1
   180002c94:	f3 0f 6f 54 24 70    	movdqu 0x70(%rsp),%xmm2
   180002c9a:	f3 0f 6f 9c 24 80 00 	movdqu 0x80(%rsp),%xmm3
   180002ca1:	00 00 
   180002ca3:	f3 0f 6f a4 24 90 00 	movdqu 0x90(%rsp),%xmm4
   180002caa:	00 00 
   180002cac:	f3 0f 6f ac 24 a0 00 	movdqu 0xa0(%rsp),%xmm5
   180002cb3:	00 00 
   180002cb5:	48 81 c4 08 01 00 00 	add    $0x108,%rsp
   180002cbc:	ff e0                	jmpq   *%rax
   180002cbe:	66 90                	xchg   %ax,%ax
   180002cc0:	48 81 ec 08 01 00 00 	sub    $0x108,%rsp
   180002cc7:	48 89 4c 24 30       	mov    %rcx,0x30(%rsp)
   180002ccc:	48 89 54 24 38       	mov    %rdx,0x38(%rsp)
   180002cd1:	4c 89 44 24 40       	mov    %r8,0x40(%rsp)
   180002cd6:	4c 89 4c 24 48       	mov    %r9,0x48(%rsp)
   180002cdb:	f3 0f 7f 44 24 50    	movdqu %xmm0,0x50(%rsp)
   180002ce1:	f3 0f 7f 4c 24 60    	movdqu %xmm1,0x60(%rsp)
   180002ce7:	f3 0f 7f 54 24 70    	movdqu %xmm2,0x70(%rsp)
   180002ced:	f3 0f 7f 9c 24 80 00 	movdqu %xmm3,0x80(%rsp)
   180002cf4:	00 00 
   180002cf6:	f3 0f 7f a4 24 90 00 	movdqu %xmm4,0x90(%rsp)
   180002cfd:	00 00 
   180002cff:	f3 0f 7f ac 24 a0 00 	movdqu %xmm5,0xa0(%rsp)
   180002d06:	00 00 
   180002d08:	48 8d 0d 41 4c 00 00 	lea    0x4c41(%rip),%rcx        # 0x180007950
   180002d0f:	e8 d2 22 00 00       	callq  0x180004fe6
   180002d14:	48 85 c0             	test   %rax,%rax
   180002d17:	75 0c                	jne    0x180002d25
   180002d19:	48 8d 0d 30 4c 00 00 	lea    0x4c30(%rip),%rcx        # 0x180007950
   180002d20:	e8 bb 22 00 00       	callq  0x180004fe0
   180002d25:	48 8b c8             	mov    %rax,%rcx
   180002d28:	48 8d 15 91 49 00 00 	lea    0x4991(%rip),%rdx        # 0x1800076c0
   180002d2f:	e8 b8 22 00 00       	callq  0x180004fec
   180002d34:	48 8b 4c 24 30       	mov    0x30(%rsp),%rcx
   180002d39:	48 8b 54 24 38       	mov    0x38(%rsp),%rdx
   180002d3e:	4c 8b 44 24 40       	mov    0x40(%rsp),%r8
   180002d43:	4c 8b 4c 24 48       	mov    0x48(%rsp),%r9
   180002d48:	f3 0f 6f 44 24 50    	movdqu 0x50(%rsp),%xmm0
   180002d4e:	f3 0f 6f 4c 24 60    	movdqu 0x60(%rsp),%xmm1
   180002d54:	f3 0f 6f 54 24 70    	movdqu 0x70(%rsp),%xmm2
   180002d5a:	f3 0f 6f 9c 24 80 00 	movdqu 0x80(%rsp),%xmm3
   180002d61:	00 00 
   180002d63:	f3 0f 6f a4 24 90 00 	movdqu 0x90(%rsp),%xmm4
   180002d6a:	00 00 
   180002d6c:	f3 0f 6f ac 24 a0 00 	movdqu 0xa0(%rsp),%xmm5
   180002d73:	00 00 
   180002d75:	48 81 c4 08 01 00 00 	add    $0x108,%rsp
   180002d7c:	ff e0                	jmpq   *%rax
   180002d7e:	66 90                	xchg   %ax,%ax
   180002d80:	48 81 ec 08 01 00 00 	sub    $0x108,%rsp
   180002d87:	48 89 4c 24 30       	mov    %rcx,0x30(%rsp)
   180002d8c:	48 89 54 24 38       	mov    %rdx,0x38(%rsp)
   180002d91:	4c 89 44 24 40       	mov    %r8,0x40(%rsp)
   180002d96:	4c 89 4c 24 48       	mov    %r9,0x48(%rsp)
   180002d9b:	f3 0f 7f 44 24 50    	movdqu %xmm0,0x50(%rsp)
   180002da1:	f3 0f 7f 4c 24 60    	movdqu %xmm1,0x60(%rsp)
   180002da7:	f3 0f 7f 54 24 70    	movdqu %xmm2,0x70(%rsp)
   180002dad:	f3 0f 7f 9c 24 80 00 	movdqu %xmm3,0x80(%rsp)
   180002db4:	00 00 
   180002db6:	f3 0f 7f a4 24 90 00 	movdqu %xmm4,0x90(%rsp)
   180002dbd:	00 00 
   180002dbf:	f3 0f 7f ac 24 a0 00 	movdqu %xmm5,0xa0(%rsp)
   180002dc6:	00 00 
   180002dc8:	48 8d 0d 81 4b 00 00 	lea    0x4b81(%rip),%rcx        # 0x180007950
   180002dcf:	e8 12 22 00 00       	callq  0x180004fe6
   180002dd4:	48 85 c0             	test   %rax,%rax
   180002dd7:	75 0c                	jne    0x180002de5
   180002dd9:	48 8d 0d 70 4b 00 00 	lea    0x4b70(%rip),%rcx        # 0x180007950
   180002de0:	e8 fb 21 00 00       	callq  0x180004fe0
   180002de5:	48 8b c8             	mov    %rax,%rcx
   180002de8:	48 8d 15 01 49 00 00 	lea    0x4901(%rip),%rdx        # 0x1800076f0
   180002def:	e8 f8 21 00 00       	callq  0x180004fec
   180002df4:	48 8b 4c 24 30       	mov    0x30(%rsp),%rcx
   180002df9:	48 8b 54 24 38       	mov    0x38(%rsp),%rdx
   180002dfe:	4c 8b 44 24 40       	mov    0x40(%rsp),%r8
   180002e03:	4c 8b 4c 24 48       	mov    0x48(%rsp),%r9
   180002e08:	f3 0f 6f 44 24 50    	movdqu 0x50(%rsp),%xmm0
   180002e0e:	f3 0f 6f 4c 24 60    	movdqu 0x60(%rsp),%xmm1
   180002e14:	f3 0f 6f 54 24 70    	movdqu 0x70(%rsp),%xmm2
   180002e1a:	f3 0f 6f 9c 24 80 00 	movdqu 0x80(%rsp),%xmm3
   180002e21:	00 00 
   180002e23:	f3 0f 6f a4 24 90 00 	movdqu 0x90(%rsp),%xmm4
   180002e2a:	00 00 
   180002e2c:	f3 0f 6f ac 24 a0 00 	movdqu 0xa0(%rsp),%xmm5
   180002e33:	00 00 
   180002e35:	48 81 c4 08 01 00 00 	add    $0x108,%rsp
   180002e3c:	ff e0                	jmpq   *%rax
   180002e3e:	66 90                	xchg   %ax,%ax
   180002e40:	48 81 ec 08 01 00 00 	sub    $0x108,%rsp
   180002e47:	48 89 4c 24 30       	mov    %rcx,0x30(%rsp)
   180002e4c:	48 89 54 24 38       	mov    %rdx,0x38(%rsp)
   180002e51:	4c 89 44 24 40       	mov    %r8,0x40(%rsp)
   180002e56:	4c 89 4c 24 48       	mov    %r9,0x48(%rsp)
   180002e5b:	f3 0f 7f 44 24 50    	movdqu %xmm0,0x50(%rsp)
   180002e61:	f3 0f 7f 4c 24 60    	movdqu %xmm1,0x60(%rsp)
   180002e67:	f3 0f 7f 54 24 70    	movdqu %xmm2,0x70(%rsp)
   180002e6d:	f3 0f 7f 9c 24 80 00 	movdqu %xmm3,0x80(%rsp)
   180002e74:	00 00 
   180002e76:	f3 0f 7f a4 24 90 00 	movdqu %xmm4,0x90(%rsp)
   180002e7d:	00 00 
   180002e7f:	f3 0f 7f ac 24 a0 00 	movdqu %xmm5,0xa0(%rsp)
   180002e86:	00 00 
   180002e88:	48 8d 0d c1 4a 00 00 	lea    0x4ac1(%rip),%rcx        # 0x180007950
   180002e8f:	e8 52 21 00 00       	callq  0x180004fe6
   180002e94:	48 85 c0             	test   %rax,%rax
   180002e97:	75 0c                	jne    0x180002ea5
   180002e99:	48 8d 0d b0 4a 00 00 	lea    0x4ab0(%rip),%rcx        # 0x180007950
   180002ea0:	e8 3b 21 00 00       	callq  0x180004fe0
   180002ea5:	48 8b c8             	mov    %rax,%rcx
   180002ea8:	48 8d 15 81 48 00 00 	lea    0x4881(%rip),%rdx        # 0x180007730
   180002eaf:	e8 38 21 00 00       	callq  0x180004fec
   180002eb4:	48 8b 4c 24 30       	mov    0x30(%rsp),%rcx
   180002eb9:	48 8b 54 24 38       	mov    0x38(%rsp),%rdx
   180002ebe:	4c 8b 44 24 40       	mov    0x40(%rsp),%r8
   180002ec3:	4c 8b 4c 24 48       	mov    0x48(%rsp),%r9
   180002ec8:	f3 0f 6f 44 24 50    	movdqu 0x50(%rsp),%xmm0
   180002ece:	f3 0f 6f 4c 24 60    	movdqu 0x60(%rsp),%xmm1
   180002ed4:	f3 0f 6f 54 24 70    	movdqu 0x70(%rsp),%xmm2
   180002eda:	f3 0f 6f 9c 24 80 00 	movdqu 0x80(%rsp),%xmm3
   180002ee1:	00 00 
   180002ee3:	f3 0f 6f a4 24 90 00 	movdqu 0x90(%rsp),%xmm4
   180002eea:	00 00 
   180002eec:	f3 0f 6f ac 24 a0 00 	movdqu 0xa0(%rsp),%xmm5
   180002ef3:	00 00 
   180002ef5:	48 81 c4 08 01 00 00 	add    $0x108,%rsp
   180002efc:	ff e0                	jmpq   *%rax
   180002efe:	66 90                	xchg   %ax,%ax
   180002f00:	48 81 ec 08 01 00 00 	sub    $0x108,%rsp
   180002f07:	48 89 4c 24 30       	mov    %rcx,0x30(%rsp)
   180002f0c:	48 89 54 24 38       	mov    %rdx,0x38(%rsp)
   180002f11:	4c 89 44 24 40       	mov    %r8,0x40(%rsp)
   180002f16:	4c 89 4c 24 48       	mov    %r9,0x48(%rsp)
   180002f1b:	f3 0f 7f 44 24 50    	movdqu %xmm0,0x50(%rsp)
   180002f21:	f3 0f 7f 4c 24 60    	movdqu %xmm1,0x60(%rsp)
   180002f27:	f3 0f 7f 54 24 70    	movdqu %xmm2,0x70(%rsp)
   180002f2d:	f3 0f 7f 9c 24 80 00 	movdqu %xmm3,0x80(%rsp)
   180002f34:	00 00 
   180002f36:	f3 0f 7f a4 24 90 00 	movdqu %xmm4,0x90(%rsp)
   180002f3d:	00 00 
   180002f3f:	f3 0f 7f ac 24 a0 00 	movdqu %xmm5,0xa0(%rsp)
   180002f46:	00 00 
   180002f48:	48 8d 0d 01 4a 00 00 	lea    0x4a01(%rip),%rcx        # 0x180007950
   180002f4f:	e8 92 20 00 00       	callq  0x180004fe6
   180002f54:	48 85 c0             	test   %rax,%rax
   180002f57:	75 0c                	jne    0x180002f65
   180002f59:	48 8d 0d f0 49 00 00 	lea    0x49f0(%rip),%rcx        # 0x180007950
   180002f60:	e8 7b 20 00 00       	callq  0x180004fe0
   180002f65:	48 8b c8             	mov    %rax,%rcx
   180002f68:	48 8d 15 f1 47 00 00 	lea    0x47f1(%rip),%rdx        # 0x180007760
   180002f6f:	e8 78 20 00 00       	callq  0x180004fec
   180002f74:	48 8b 4c 24 30       	mov    0x30(%rsp),%rcx
   180002f79:	48 8b 54 24 38       	mov    0x38(%rsp),%rdx
   180002f7e:	4c 8b 44 24 40       	mov    0x40(%rsp),%r8
   180002f83:	4c 8b 4c 24 48       	mov    0x48(%rsp),%r9
   180002f88:	f3 0f 6f 44 24 50    	movdqu 0x50(%rsp),%xmm0
   180002f8e:	f3 0f 6f 4c 24 60    	movdqu 0x60(%rsp),%xmm1
   180002f94:	f3 0f 6f 54 24 70    	movdqu 0x70(%rsp),%xmm2
   180002f9a:	f3 0f 6f 9c 24 80 00 	movdqu 0x80(%rsp),%xmm3
   180002fa1:	00 00 
   180002fa3:	f3 0f 6f a4 24 90 00 	movdqu 0x90(%rsp),%xmm4
   180002faa:	00 00 
   180002fac:	f3 0f 6f ac 24 a0 00 	movdqu 0xa0(%rsp),%xmm5
   180002fb3:	00 00 
   180002fb5:	48 81 c4 08 01 00 00 	add    $0x108,%rsp
   180002fbc:	ff e0                	jmpq   *%rax
   180002fbe:	66 90                	xchg   %ax,%ax
   180002fc0:	48 81 ec 08 01 00 00 	sub    $0x108,%rsp
   180002fc7:	48 89 4c 24 30       	mov    %rcx,0x30(%rsp)
   180002fcc:	48 89 54 24 38       	mov    %rdx,0x38(%rsp)
   180002fd1:	4c 89 44 24 40       	mov    %r8,0x40(%rsp)
   180002fd6:	4c 89 4c 24 48       	mov    %r9,0x48(%rsp)
   180002fdb:	f3 0f 7f 44 24 50    	movdqu %xmm0,0x50(%rsp)
   180002fe1:	f3 0f 7f 4c 24 60    	movdqu %xmm1,0x60(%rsp)
   180002fe7:	f3 0f 7f 54 24 70    	movdqu %xmm2,0x70(%rsp)
   180002fed:	f3 0f 7f 9c 24 80 00 	movdqu %xmm3,0x80(%rsp)
   180002ff4:	00 00 
   180002ff6:	f3 0f 7f a4 24 90 00 	movdqu %xmm4,0x90(%rsp)
   180002ffd:	00 00 
   180002fff:	f3 0f 7f ac 24 a0 00 	movdqu %xmm5,0xa0(%rsp)
   180003006:	00 00 
   180003008:	48 8d 0d 21 49 00 00 	lea    0x4921(%rip),%rcx        # 0x180007930
   18000300f:	e8 d2 1f 00 00       	callq  0x180004fe6
   180003014:	48 85 c0             	test   %rax,%rax
   180003017:	75 0c                	jne    0x180003025
   180003019:	48 8d 0d 10 49 00 00 	lea    0x4910(%rip),%rcx        # 0x180007930
   180003020:	e8 bb 1f 00 00       	callq  0x180004fe0
   180003025:	48 8b c8             	mov    %rax,%rcx
   180003028:	48 8d 15 61 47 00 00 	lea    0x4761(%rip),%rdx        # 0x180007790
   18000302f:	e8 b8 1f 00 00       	callq  0x180004fec
   180003034:	48 8b 4c 24 30       	mov    0x30(%rsp),%rcx
   180003039:	48 8b 54 24 38       	mov    0x38(%rsp),%rdx
   18000303e:	4c 8b 44 24 40       	mov    0x40(%rsp),%r8
   180003043:	4c 8b 4c 24 48       	mov    0x48(%rsp),%r9
   180003048:	f3 0f 6f 44 24 50    	movdqu 0x50(%rsp),%xmm0
   18000304e:	f3 0f 6f 4c 24 60    	movdqu 0x60(%rsp),%xmm1
   180003054:	f3 0f 6f 54 24 70    	movdqu 0x70(%rsp),%xmm2
   18000305a:	f3 0f 6f 9c 24 80 00 	movdqu 0x80(%rsp),%xmm3
   180003061:	00 00 
   180003063:	f3 0f 6f a4 24 90 00 	movdqu 0x90(%rsp),%xmm4
   18000306a:	00 00 
   18000306c:	f3 0f 6f ac 24 a0 00 	movdqu 0xa0(%rsp),%xmm5
   180003073:	00 00 
   180003075:	48 81 c4 08 01 00 00 	add    $0x108,%rsp
   18000307c:	ff e0                	jmpq   *%rax
   18000307e:	66 90                	xchg   %ax,%ax
   180003080:	48 81 ec 08 01 00 00 	sub    $0x108,%rsp
   180003087:	48 89 4c 24 30       	mov    %rcx,0x30(%rsp)
   18000308c:	48 89 54 24 38       	mov    %rdx,0x38(%rsp)
   180003091:	4c 89 44 24 40       	mov    %r8,0x40(%rsp)
   180003096:	4c 89 4c 24 48       	mov    %r9,0x48(%rsp)
   18000309b:	f3 0f 7f 44 24 50    	movdqu %xmm0,0x50(%rsp)
   1800030a1:	f3 0f 7f 4c 24 60    	movdqu %xmm1,0x60(%rsp)
   1800030a7:	f3 0f 7f 54 24 70    	movdqu %xmm2,0x70(%rsp)
   1800030ad:	f3 0f 7f 9c 24 80 00 	movdqu %xmm3,0x80(%rsp)
   1800030b4:	00 00 
   1800030b6:	f3 0f 7f a4 24 90 00 	movdqu %xmm4,0x90(%rsp)
   1800030bd:	00 00 
   1800030bf:	f3 0f 7f ac 24 a0 00 	movdqu %xmm5,0xa0(%rsp)
   1800030c6:	00 00 
   1800030c8:	48 8d 0d 61 48 00 00 	lea    0x4861(%rip),%rcx        # 0x180007930
   1800030cf:	e8 12 1f 00 00       	callq  0x180004fe6
   1800030d4:	48 85 c0             	test   %rax,%rax
   1800030d7:	75 0c                	jne    0x1800030e5
   1800030d9:	48 8d 0d 50 48 00 00 	lea    0x4850(%rip),%rcx        # 0x180007930
   1800030e0:	e8 fb 1e 00 00       	callq  0x180004fe0
   1800030e5:	48 8b c8             	mov    %rax,%rcx
   1800030e8:	48 8d 15 c1 46 00 00 	lea    0x46c1(%rip),%rdx        # 0x1800077b0
   1800030ef:	e8 f8 1e 00 00       	callq  0x180004fec
   1800030f4:	48 8b 4c 24 30       	mov    0x30(%rsp),%rcx
   1800030f9:	48 8b 54 24 38       	mov    0x38(%rsp),%rdx
   1800030fe:	4c 8b 44 24 40       	mov    0x40(%rsp),%r8
   180003103:	4c 8b 4c 24 48       	mov    0x48(%rsp),%r9
   180003108:	f3 0f 6f 44 24 50    	movdqu 0x50(%rsp),%xmm0
   18000310e:	f3 0f 6f 4c 24 60    	movdqu 0x60(%rsp),%xmm1
   180003114:	f3 0f 6f 54 24 70    	movdqu 0x70(%rsp),%xmm2
   18000311a:	f3 0f 6f 9c 24 80 00 	movdqu 0x80(%rsp),%xmm3
   180003121:	00 00 
   180003123:	f3 0f 6f a4 24 90 00 	movdqu 0x90(%rsp),%xmm4
   18000312a:	00 00 
   18000312c:	f3 0f 6f ac 24 a0 00 	movdqu 0xa0(%rsp),%xmm5
   180003133:	00 00 
   180003135:	48 81 c4 08 01 00 00 	add    $0x108,%rsp
   18000313c:	ff e0                	jmpq   *%rax
   18000313e:	66 90                	xchg   %ax,%ax
   180003140:	48 81 ec 08 01 00 00 	sub    $0x108,%rsp
   180003147:	48 89 4c 24 30       	mov    %rcx,0x30(%rsp)
   18000314c:	48 89 54 24 38       	mov    %rdx,0x38(%rsp)
   180003151:	4c 89 44 24 40       	mov    %r8,0x40(%rsp)
   180003156:	4c 89 4c 24 48       	mov    %r9,0x48(%rsp)
   18000315b:	f3 0f 7f 44 24 50    	movdqu %xmm0,0x50(%rsp)
   180003161:	f3 0f 7f 4c 24 60    	movdqu %xmm1,0x60(%rsp)
   180003167:	f3 0f 7f 54 24 70    	movdqu %xmm2,0x70(%rsp)
   18000316d:	f3 0f 7f 9c 24 80 00 	movdqu %xmm3,0x80(%rsp)
   180003174:	00 00 
   180003176:	f3 0f 7f a4 24 90 00 	movdqu %xmm4,0x90(%rsp)
   18000317d:	00 00 
   18000317f:	f3 0f 7f ac 24 a0 00 	movdqu %xmm5,0xa0(%rsp)
   180003186:	00 00 
   180003188:	48 8d 0d a1 47 00 00 	lea    0x47a1(%rip),%rcx        # 0x180007930
   18000318f:	e8 52 1e 00 00       	callq  0x180004fe6
   180003194:	48 85 c0             	test   %rax,%rax
   180003197:	75 0c                	jne    0x1800031a5
   180003199:	48 8d 0d 90 47 00 00 	lea    0x4790(%rip),%rcx        # 0x180007930
   1800031a0:	e8 3b 1e 00 00       	callq  0x180004fe0
   1800031a5:	48 8b c8             	mov    %rax,%rcx
   1800031a8:	48 8d 15 21 46 00 00 	lea    0x4621(%rip),%rdx        # 0x1800077d0
   1800031af:	e8 38 1e 00 00       	callq  0x180004fec
   1800031b4:	48 8b 4c 24 30       	mov    0x30(%rsp),%rcx
   1800031b9:	48 8b 54 24 38       	mov    0x38(%rsp),%rdx
   1800031be:	4c 8b 44 24 40       	mov    0x40(%rsp),%r8
   1800031c3:	4c 8b 4c 24 48       	mov    0x48(%rsp),%r9
   1800031c8:	f3 0f 6f 44 24 50    	movdqu 0x50(%rsp),%xmm0
   1800031ce:	f3 0f 6f 4c 24 60    	movdqu 0x60(%rsp),%xmm1
   1800031d4:	f3 0f 6f 54 24 70    	movdqu 0x70(%rsp),%xmm2
   1800031da:	f3 0f 6f 9c 24 80 00 	movdqu 0x80(%rsp),%xmm3
   1800031e1:	00 00 
   1800031e3:	f3 0f 6f a4 24 90 00 	movdqu 0x90(%rsp),%xmm4
   1800031ea:	00 00 
   1800031ec:	f3 0f 6f ac 24 a0 00 	movdqu 0xa0(%rsp),%xmm5
   1800031f3:	00 00 
   1800031f5:	48 81 c4 08 01 00 00 	add    $0x108,%rsp
   1800031fc:	ff e0                	jmpq   *%rax
   1800031fe:	66 90                	xchg   %ax,%ax
   180003200:	48 81 ec 08 01 00 00 	sub    $0x108,%rsp
   180003207:	48 89 4c 24 30       	mov    %rcx,0x30(%rsp)
   18000320c:	48 89 54 24 38       	mov    %rdx,0x38(%rsp)
   180003211:	4c 89 44 24 40       	mov    %r8,0x40(%rsp)
   180003216:	4c 89 4c 24 48       	mov    %r9,0x48(%rsp)
   18000321b:	f3 0f 7f 44 24 50    	movdqu %xmm0,0x50(%rsp)
   180003221:	f3 0f 7f 4c 24 60    	movdqu %xmm1,0x60(%rsp)
   180003227:	f3 0f 7f 54 24 70    	movdqu %xmm2,0x70(%rsp)
   18000322d:	f3 0f 7f 9c 24 80 00 	movdqu %xmm3,0x80(%rsp)
   180003234:	00 00 
   180003236:	f3 0f 7f a4 24 90 00 	movdqu %xmm4,0x90(%rsp)
   18000323d:	00 00 
   18000323f:	f3 0f 7f ac 24 a0 00 	movdqu %xmm5,0xa0(%rsp)
   180003246:	00 00 
   180003248:	48 8d 0d e1 46 00 00 	lea    0x46e1(%rip),%rcx        # 0x180007930
   18000324f:	e8 92 1d 00 00       	callq  0x180004fe6
   180003254:	48 85 c0             	test   %rax,%rax
   180003257:	75 0c                	jne    0x180003265
   180003259:	48 8d 0d d0 46 00 00 	lea    0x46d0(%rip),%rcx        # 0x180007930
   180003260:	e8 7b 1d 00 00       	callq  0x180004fe0
   180003265:	48 8b c8             	mov    %rax,%rcx
   180003268:	48 8d 15 81 45 00 00 	lea    0x4581(%rip),%rdx        # 0x1800077f0
   18000326f:	e8 78 1d 00 00       	callq  0x180004fec
   180003274:	48 8b 4c 24 30       	mov    0x30(%rsp),%rcx
   180003279:	48 8b 54 24 38       	mov    0x38(%rsp),%rdx
   18000327e:	4c 8b 44 24 40       	mov    0x40(%rsp),%r8
   180003283:	4c 8b 4c 24 48       	mov    0x48(%rsp),%r9
   180003288:	f3 0f 6f 44 24 50    	movdqu 0x50(%rsp),%xmm0
   18000328e:	f3 0f 6f 4c 24 60    	movdqu 0x60(%rsp),%xmm1
   180003294:	f3 0f 6f 54 24 70    	movdqu 0x70(%rsp),%xmm2
   18000329a:	f3 0f 6f 9c 24 80 00 	movdqu 0x80(%rsp),%xmm3
   1800032a1:	00 00 
   1800032a3:	f3 0f 6f a4 24 90 00 	movdqu 0x90(%rsp),%xmm4
   1800032aa:	00 00 
   1800032ac:	f3 0f 6f ac 24 a0 00 	movdqu 0xa0(%rsp),%xmm5
   1800032b3:	00 00 
   1800032b5:	48 81 c4 08 01 00 00 	add    $0x108,%rsp
   1800032bc:	ff e0                	jmpq   *%rax
   1800032be:	66 90                	xchg   %ax,%ax
   1800032c0:	48 81 ec 08 01 00 00 	sub    $0x108,%rsp
   1800032c7:	48 89 4c 24 30       	mov    %rcx,0x30(%rsp)
   1800032cc:	48 89 54 24 38       	mov    %rdx,0x38(%rsp)
   1800032d1:	4c 89 44 24 40       	mov    %r8,0x40(%rsp)
   1800032d6:	4c 89 4c 24 48       	mov    %r9,0x48(%rsp)
   1800032db:	f3 0f 7f 44 24 50    	movdqu %xmm0,0x50(%rsp)
   1800032e1:	f3 0f 7f 4c 24 60    	movdqu %xmm1,0x60(%rsp)
   1800032e7:	f3 0f 7f 54 24 70    	movdqu %xmm2,0x70(%rsp)
   1800032ed:	f3 0f 7f 9c 24 80 00 	movdqu %xmm3,0x80(%rsp)
   1800032f4:	00 00 
   1800032f6:	f3 0f 7f a4 24 90 00 	movdqu %xmm4,0x90(%rsp)
   1800032fd:	00 00 
   1800032ff:	f3 0f 7f ac 24 a0 00 	movdqu %xmm5,0xa0(%rsp)
   180003306:	00 00 
   180003308:	48 8d 0d 21 46 00 00 	lea    0x4621(%rip),%rcx        # 0x180007930
   18000330f:	e8 d2 1c 00 00       	callq  0x180004fe6
   180003314:	48 85 c0             	test   %rax,%rax
   180003317:	75 0c                	jne    0x180003325
   180003319:	48 8d 0d 10 46 00 00 	lea    0x4610(%rip),%rcx        # 0x180007930
   180003320:	e8 bb 1c 00 00       	callq  0x180004fe0
   180003325:	48 8b c8             	mov    %rax,%rcx
   180003328:	48 8d 15 e1 44 00 00 	lea    0x44e1(%rip),%rdx        # 0x180007810
   18000332f:	e8 b8 1c 00 00       	callq  0x180004fec
   180003334:	48 8b 4c 24 30       	mov    0x30(%rsp),%rcx
   180003339:	48 8b 54 24 38       	mov    0x38(%rsp),%rdx
   18000333e:	4c 8b 44 24 40       	mov    0x40(%rsp),%r8
   180003343:	4c 8b 4c 24 48       	mov    0x48(%rsp),%r9
   180003348:	f3 0f 6f 44 24 50    	movdqu 0x50(%rsp),%xmm0
   18000334e:	f3 0f 6f 4c 24 60    	movdqu 0x60(%rsp),%xmm1
   180003354:	f3 0f 6f 54 24 70    	movdqu 0x70(%rsp),%xmm2
   18000335a:	f3 0f 6f 9c 24 80 00 	movdqu 0x80(%rsp),%xmm3
   180003361:	00 00 
   180003363:	f3 0f 6f a4 24 90 00 	movdqu 0x90(%rsp),%xmm4
   18000336a:	00 00 
   18000336c:	f3 0f 6f ac 24 a0 00 	movdqu 0xa0(%rsp),%xmm5
   180003373:	00 00 
   180003375:	48 81 c4 08 01 00 00 	add    $0x108,%rsp
   18000337c:	ff e0                	jmpq   *%rax
   18000337e:	66 90                	xchg   %ax,%ax
   180003380:	48 81 ec 08 01 00 00 	sub    $0x108,%rsp
   180003387:	48 89 4c 24 30       	mov    %rcx,0x30(%rsp)
   18000338c:	48 89 54 24 38       	mov    %rdx,0x38(%rsp)
   180003391:	4c 89 44 24 40       	mov    %r8,0x40(%rsp)
   180003396:	4c 89 4c 24 48       	mov    %r9,0x48(%rsp)
   18000339b:	f3 0f 7f 44 24 50    	movdqu %xmm0,0x50(%rsp)
   1800033a1:	f3 0f 7f 4c 24 60    	movdqu %xmm1,0x60(%rsp)
   1800033a7:	f3 0f 7f 54 24 70    	movdqu %xmm2,0x70(%rsp)
   1800033ad:	f3 0f 7f 9c 24 80 00 	movdqu %xmm3,0x80(%rsp)
   1800033b4:	00 00 
   1800033b6:	f3 0f 7f a4 24 90 00 	movdqu %xmm4,0x90(%rsp)
   1800033bd:	00 00 
   1800033bf:	f3 0f 7f ac 24 a0 00 	movdqu %xmm5,0xa0(%rsp)
   1800033c6:	00 00 
   1800033c8:	48 8d 0d 61 45 00 00 	lea    0x4561(%rip),%rcx        # 0x180007930
   1800033cf:	e8 12 1c 00 00       	callq  0x180004fe6
   1800033d4:	48 85 c0             	test   %rax,%rax
   1800033d7:	75 0c                	jne    0x1800033e5
   1800033d9:	48 8d 0d 50 45 00 00 	lea    0x4550(%rip),%rcx        # 0x180007930
   1800033e0:	e8 fb 1b 00 00       	callq  0x180004fe0
   1800033e5:	48 8b c8             	mov    %rax,%rcx
   1800033e8:	48 8d 15 41 44 00 00 	lea    0x4441(%rip),%rdx        # 0x180007830
   1800033ef:	e8 f8 1b 00 00       	callq  0x180004fec
   1800033f4:	48 8b 4c 24 30       	mov    0x30(%rsp),%rcx
   1800033f9:	48 8b 54 24 38       	mov    0x38(%rsp),%rdx
   1800033fe:	4c 8b 44 24 40       	mov    0x40(%rsp),%r8
   180003403:	4c 8b 4c 24 48       	mov    0x48(%rsp),%r9
   180003408:	f3 0f 6f 44 24 50    	movdqu 0x50(%rsp),%xmm0
   18000340e:	f3 0f 6f 4c 24 60    	movdqu 0x60(%rsp),%xmm1
   180003414:	f3 0f 6f 54 24 70    	movdqu 0x70(%rsp),%xmm2
   18000341a:	f3 0f 6f 9c 24 80 00 	movdqu 0x80(%rsp),%xmm3
   180003421:	00 00 
   180003423:	f3 0f 6f a4 24 90 00 	movdqu 0x90(%rsp),%xmm4
   18000342a:	00 00 
   18000342c:	f3 0f 6f ac 24 a0 00 	movdqu 0xa0(%rsp),%xmm5
   180003433:	00 00 
   180003435:	48 81 c4 08 01 00 00 	add    $0x108,%rsp
   18000343c:	ff e0                	jmpq   *%rax
   18000343e:	66 90                	xchg   %ax,%ax
   180003440:	48 81 ec 08 01 00 00 	sub    $0x108,%rsp
   180003447:	48 89 4c 24 30       	mov    %rcx,0x30(%rsp)
   18000344c:	48 89 54 24 38       	mov    %rdx,0x38(%rsp)
   180003451:	4c 89 44 24 40       	mov    %r8,0x40(%rsp)
   180003456:	4c 89 4c 24 48       	mov    %r9,0x48(%rsp)
   18000345b:	f3 0f 7f 44 24 50    	movdqu %xmm0,0x50(%rsp)
   180003461:	f3 0f 7f 4c 24 60    	movdqu %xmm1,0x60(%rsp)
   180003467:	f3 0f 7f 54 24 70    	movdqu %xmm2,0x70(%rsp)
   18000346d:	f3 0f 7f 9c 24 80 00 	movdqu %xmm3,0x80(%rsp)
   180003474:	00 00 
   180003476:	f3 0f 7f a4 24 90 00 	movdqu %xmm4,0x90(%rsp)
   18000347d:	00 00 
   18000347f:	f3 0f 7f ac 24 a0 00 	movdqu %xmm5,0xa0(%rsp)
   180003486:	00 00 
   180003488:	48 8d 0d a1 44 00 00 	lea    0x44a1(%rip),%rcx        # 0x180007930
   18000348f:	e8 52 1b 00 00       	callq  0x180004fe6
   180003494:	48 85 c0             	test   %rax,%rax
   180003497:	75 0c                	jne    0x1800034a5
   180003499:	48 8d 0d 90 44 00 00 	lea    0x4490(%rip),%rcx        # 0x180007930
   1800034a0:	e8 3b 1b 00 00       	callq  0x180004fe0
   1800034a5:	48 8b c8             	mov    %rax,%rcx
   1800034a8:	48 8d 15 a1 43 00 00 	lea    0x43a1(%rip),%rdx        # 0x180007850
   1800034af:	e8 38 1b 00 00       	callq  0x180004fec
   1800034b4:	48 8b 4c 24 30       	mov    0x30(%rsp),%rcx
   1800034b9:	48 8b 54 24 38       	mov    0x38(%rsp),%rdx
   1800034be:	4c 8b 44 24 40       	mov    0x40(%rsp),%r8
   1800034c3:	4c 8b 4c 24 48       	mov    0x48(%rsp),%r9
   1800034c8:	f3 0f 6f 44 24 50    	movdqu 0x50(%rsp),%xmm0
   1800034ce:	f3 0f 6f 4c 24 60    	movdqu 0x60(%rsp),%xmm1
   1800034d4:	f3 0f 6f 54 24 70    	movdqu 0x70(%rsp),%xmm2
   1800034da:	f3 0f 6f 9c 24 80 00 	movdqu 0x80(%rsp),%xmm3
   1800034e1:	00 00 
   1800034e3:	f3 0f 6f a4 24 90 00 	movdqu 0x90(%rsp),%xmm4
   1800034ea:	00 00 
   1800034ec:	f3 0f 6f ac 24 a0 00 	movdqu 0xa0(%rsp),%xmm5
   1800034f3:	00 00 
   1800034f5:	48 81 c4 08 01 00 00 	add    $0x108,%rsp
   1800034fc:	ff e0                	jmpq   *%rax
   1800034fe:	66 90                	xchg   %ax,%ax
   180003500:	48 81 ec 08 01 00 00 	sub    $0x108,%rsp
   180003507:	48 89 4c 24 30       	mov    %rcx,0x30(%rsp)
   18000350c:	48 89 54 24 38       	mov    %rdx,0x38(%rsp)
   180003511:	4c 89 44 24 40       	mov    %r8,0x40(%rsp)
   180003516:	4c 89 4c 24 48       	mov    %r9,0x48(%rsp)
   18000351b:	f3 0f 7f 44 24 50    	movdqu %xmm0,0x50(%rsp)
   180003521:	f3 0f 7f 4c 24 60    	movdqu %xmm1,0x60(%rsp)
   180003527:	f3 0f 7f 54 24 70    	movdqu %xmm2,0x70(%rsp)
   18000352d:	f3 0f 7f 9c 24 80 00 	movdqu %xmm3,0x80(%rsp)
   180003534:	00 00 
   180003536:	f3 0f 7f a4 24 90 00 	movdqu %xmm4,0x90(%rsp)
   18000353d:	00 00 
   18000353f:	f3 0f 7f ac 24 a0 00 	movdqu %xmm5,0xa0(%rsp)
   180003546:	00 00 
   180003548:	48 8d 0d e1 43 00 00 	lea    0x43e1(%rip),%rcx        # 0x180007930
   18000354f:	e8 92 1a 00 00       	callq  0x180004fe6
   180003554:	48 85 c0             	test   %rax,%rax
   180003557:	75 0c                	jne    0x180003565
   180003559:	48 8d 0d d0 43 00 00 	lea    0x43d0(%rip),%rcx        # 0x180007930
   180003560:	e8 7b 1a 00 00       	callq  0x180004fe0
   180003565:	48 8b c8             	mov    %rax,%rcx
   180003568:	48 8d 15 01 43 00 00 	lea    0x4301(%rip),%rdx        # 0x180007870
   18000356f:	e8 78 1a 00 00       	callq  0x180004fec
   180003574:	48 8b 4c 24 30       	mov    0x30(%rsp),%rcx
   180003579:	48 8b 54 24 38       	mov    0x38(%rsp),%rdx
   18000357e:	4c 8b 44 24 40       	mov    0x40(%rsp),%r8
   180003583:	4c 8b 4c 24 48       	mov    0x48(%rsp),%r9
   180003588:	f3 0f 6f 44 24 50    	movdqu 0x50(%rsp),%xmm0
   18000358e:	f3 0f 6f 4c 24 60    	movdqu 0x60(%rsp),%xmm1
   180003594:	f3 0f 6f 54 24 70    	movdqu 0x70(%rsp),%xmm2
   18000359a:	f3 0f 6f 9c 24 80 00 	movdqu 0x80(%rsp),%xmm3
   1800035a1:	00 00 
   1800035a3:	f3 0f 6f a4 24 90 00 	movdqu 0x90(%rsp),%xmm4
   1800035aa:	00 00 
   1800035ac:	f3 0f 6f ac 24 a0 00 	movdqu 0xa0(%rsp),%xmm5
   1800035b3:	00 00 
   1800035b5:	48 81 c4 08 01 00 00 	add    $0x108,%rsp
   1800035bc:	ff e0                	jmpq   *%rax
   1800035be:	66 90                	xchg   %ax,%ax
   1800035c0:	48 81 ec 08 01 00 00 	sub    $0x108,%rsp
   1800035c7:	48 89 4c 24 30       	mov    %rcx,0x30(%rsp)
   1800035cc:	48 89 54 24 38       	mov    %rdx,0x38(%rsp)
   1800035d1:	4c 89 44 24 40       	mov    %r8,0x40(%rsp)
   1800035d6:	4c 89 4c 24 48       	mov    %r9,0x48(%rsp)
   1800035db:	f3 0f 7f 44 24 50    	movdqu %xmm0,0x50(%rsp)
   1800035e1:	f3 0f 7f 4c 24 60    	movdqu %xmm1,0x60(%rsp)
   1800035e7:	f3 0f 7f 54 24 70    	movdqu %xmm2,0x70(%rsp)
   1800035ed:	f3 0f 7f 9c 24 80 00 	movdqu %xmm3,0x80(%rsp)
   1800035f4:	00 00 
   1800035f6:	f3 0f 7f a4 24 90 00 	movdqu %xmm4,0x90(%rsp)
   1800035fd:	00 00 
   1800035ff:	f3 0f 7f ac 24 a0 00 	movdqu %xmm5,0xa0(%rsp)
   180003606:	00 00 
   180003608:	48 8d 0d 21 43 00 00 	lea    0x4321(%rip),%rcx        # 0x180007930
   18000360f:	e8 d2 19 00 00       	callq  0x180004fe6
   180003614:	48 85 c0             	test   %rax,%rax
   180003617:	75 0c                	jne    0x180003625
   180003619:	48 8d 0d 10 43 00 00 	lea    0x4310(%rip),%rcx        # 0x180007930
   180003620:	e8 bb 19 00 00       	callq  0x180004fe0
   180003625:	48 8b c8             	mov    %rax,%rcx
   180003628:	48 8d 15 71 42 00 00 	lea    0x4271(%rip),%rdx        # 0x1800078a0
   18000362f:	e8 b8 19 00 00       	callq  0x180004fec
   180003634:	48 8b 4c 24 30       	mov    0x30(%rsp),%rcx
   180003639:	48 8b 54 24 38       	mov    0x38(%rsp),%rdx
   18000363e:	4c 8b 44 24 40       	mov    0x40(%rsp),%r8
   180003643:	4c 8b 4c 24 48       	mov    0x48(%rsp),%r9
   180003648:	f3 0f 6f 44 24 50    	movdqu 0x50(%rsp),%xmm0
   18000364e:	f3 0f 6f 4c 24 60    	movdqu 0x60(%rsp),%xmm1
   180003654:	f3 0f 6f 54 24 70    	movdqu 0x70(%rsp),%xmm2
   18000365a:	f3 0f 6f 9c 24 80 00 	movdqu 0x80(%rsp),%xmm3
   180003661:	00 00 
   180003663:	f3 0f 6f a4 24 90 00 	movdqu 0x90(%rsp),%xmm4
   18000366a:	00 00 
   18000366c:	f3 0f 6f ac 24 a0 00 	movdqu 0xa0(%rsp),%xmm5
   180003673:	00 00 
   180003675:	48 81 c4 08 01 00 00 	add    $0x108,%rsp
   18000367c:	ff e0                	jmpq   *%rax
   18000367e:	66 90                	xchg   %ax,%ax
   180003680:	48 81 ec 08 01 00 00 	sub    $0x108,%rsp
   180003687:	48 89 4c 24 30       	mov    %rcx,0x30(%rsp)
   18000368c:	48 89 54 24 38       	mov    %rdx,0x38(%rsp)
   180003691:	4c 89 44 24 40       	mov    %r8,0x40(%rsp)
   180003696:	4c 89 4c 24 48       	mov    %r9,0x48(%rsp)
   18000369b:	f3 0f 7f 44 24 50    	movdqu %xmm0,0x50(%rsp)
   1800036a1:	f3 0f 7f 4c 24 60    	movdqu %xmm1,0x60(%rsp)
   1800036a7:	f3 0f 7f 54 24 70    	movdqu %xmm2,0x70(%rsp)
   1800036ad:	f3 0f 7f 9c 24 80 00 	movdqu %xmm3,0x80(%rsp)
   1800036b4:	00 00 
   1800036b6:	f3 0f 7f a4 24 90 00 	movdqu %xmm4,0x90(%rsp)
   1800036bd:	00 00 
   1800036bf:	f3 0f 7f ac 24 a0 00 	movdqu %xmm5,0xa0(%rsp)
   1800036c6:	00 00 
   1800036c8:	48 8d 0d 61 42 00 00 	lea    0x4261(%rip),%rcx        # 0x180007930
   1800036cf:	e8 12 19 00 00       	callq  0x180004fe6
   1800036d4:	48 85 c0             	test   %rax,%rax
   1800036d7:	75 0c                	jne    0x1800036e5
   1800036d9:	48 8d 0d 50 42 00 00 	lea    0x4250(%rip),%rcx        # 0x180007930
   1800036e0:	e8 fb 18 00 00       	callq  0x180004fe0
   1800036e5:	48 8b c8             	mov    %rax,%rcx
   1800036e8:	48 8d 15 e1 41 00 00 	lea    0x41e1(%rip),%rdx        # 0x1800078d0
   1800036ef:	e8 f8 18 00 00       	callq  0x180004fec
   1800036f4:	48 8b 4c 24 30       	mov    0x30(%rsp),%rcx
   1800036f9:	48 8b 54 24 38       	mov    0x38(%rsp),%rdx
   1800036fe:	4c 8b 44 24 40       	mov    0x40(%rsp),%r8
   180003703:	4c 8b 4c 24 48       	mov    0x48(%rsp),%r9
   180003708:	f3 0f 6f 44 24 50    	movdqu 0x50(%rsp),%xmm0
   18000370e:	f3 0f 6f 4c 24 60    	movdqu 0x60(%rsp),%xmm1
   180003714:	f3 0f 6f 54 24 70    	movdqu 0x70(%rsp),%xmm2
   18000371a:	f3 0f 6f 9c 24 80 00 	movdqu 0x80(%rsp),%xmm3
   180003721:	00 00 
   180003723:	f3 0f 6f a4 24 90 00 	movdqu 0x90(%rsp),%xmm4
   18000372a:	00 00 
   18000372c:	f3 0f 6f ac 24 a0 00 	movdqu 0xa0(%rsp),%xmm5
   180003733:	00 00 
   180003735:	48 81 c4 08 01 00 00 	add    $0x108,%rsp
   18000373c:	ff e0                	jmpq   *%rax
   18000373e:	66 90                	xchg   %ax,%ax
   180003740:	48 81 ec 08 01 00 00 	sub    $0x108,%rsp
   180003747:	48 89 4c 24 30       	mov    %rcx,0x30(%rsp)
   18000374c:	48 89 54 24 38       	mov    %rdx,0x38(%rsp)
   180003751:	4c 89 44 24 40       	mov    %r8,0x40(%rsp)
   180003756:	4c 89 4c 24 48       	mov    %r9,0x48(%rsp)
   18000375b:	f3 0f 7f 44 24 50    	movdqu %xmm0,0x50(%rsp)
   180003761:	f3 0f 7f 4c 24 60    	movdqu %xmm1,0x60(%rsp)
   180003767:	f3 0f 7f 54 24 70    	movdqu %xmm2,0x70(%rsp)
   18000376d:	f3 0f 7f 9c 24 80 00 	movdqu %xmm3,0x80(%rsp)
   180003774:	00 00 
   180003776:	f3 0f 7f a4 24 90 00 	movdqu %xmm4,0x90(%rsp)
   18000377d:	00 00 
   18000377f:	f3 0f 7f ac 24 a0 00 	movdqu %xmm5,0xa0(%rsp)
   180003786:	00 00 
   180003788:	48 8d 0d a1 41 00 00 	lea    0x41a1(%rip),%rcx        # 0x180007930
   18000378f:	e8 52 18 00 00       	callq  0x180004fe6
   180003794:	48 85 c0             	test   %rax,%rax
   180003797:	75 0c                	jne    0x1800037a5
   180003799:	48 8d 0d 90 41 00 00 	lea    0x4190(%rip),%rcx        # 0x180007930
   1800037a0:	e8 3b 18 00 00       	callq  0x180004fe0
   1800037a5:	48 8b c8             	mov    %rax,%rcx
   1800037a8:	48 8d 15 41 41 00 00 	lea    0x4141(%rip),%rdx        # 0x1800078f0
   1800037af:	e8 38 18 00 00       	callq  0x180004fec
   1800037b4:	48 8b 4c 24 30       	mov    0x30(%rsp),%rcx
   1800037b9:	48 8b 54 24 38       	mov    0x38(%rsp),%rdx
   1800037be:	4c 8b 44 24 40       	mov    0x40(%rsp),%r8
   1800037c3:	4c 8b 4c 24 48       	mov    0x48(%rsp),%r9
   1800037c8:	f3 0f 6f 44 24 50    	movdqu 0x50(%rsp),%xmm0
   1800037ce:	f3 0f 6f 4c 24 60    	movdqu 0x60(%rsp),%xmm1
   1800037d4:	f3 0f 6f 54 24 70    	movdqu 0x70(%rsp),%xmm2
   1800037da:	f3 0f 6f 9c 24 80 00 	movdqu 0x80(%rsp),%xmm3
   1800037e1:	00 00 
   1800037e3:	f3 0f 6f a4 24 90 00 	movdqu 0x90(%rsp),%xmm4
   1800037ea:	00 00 
   1800037ec:	f3 0f 6f ac 24 a0 00 	movdqu 0xa0(%rsp),%xmm5
   1800037f3:	00 00 
   1800037f5:	48 81 c4 08 01 00 00 	add    $0x108,%rsp
   1800037fc:	ff e0                	jmpq   *%rax
   1800037fe:	66 90                	xchg   %ax,%ax
   180003800:	48 81 ec 08 01 00 00 	sub    $0x108,%rsp
   180003807:	48 89 4c 24 30       	mov    %rcx,0x30(%rsp)
   18000380c:	48 89 54 24 38       	mov    %rdx,0x38(%rsp)
   180003811:	4c 89 44 24 40       	mov    %r8,0x40(%rsp)
   180003816:	4c 89 4c 24 48       	mov    %r9,0x48(%rsp)
   18000381b:	f3 0f 7f 44 24 50    	movdqu %xmm0,0x50(%rsp)
   180003821:	f3 0f 7f 4c 24 60    	movdqu %xmm1,0x60(%rsp)
   180003827:	f3 0f 7f 54 24 70    	movdqu %xmm2,0x70(%rsp)
   18000382d:	f3 0f 7f 9c 24 80 00 	movdqu %xmm3,0x80(%rsp)
   180003834:	00 00 
   180003836:	f3 0f 7f a4 24 90 00 	movdqu %xmm4,0x90(%rsp)
   18000383d:	00 00 
   18000383f:	f3 0f 7f ac 24 a0 00 	movdqu %xmm5,0xa0(%rsp)
   180003846:	00 00 
   180003848:	48 8d 0d e1 40 00 00 	lea    0x40e1(%rip),%rcx        # 0x180007930
   18000384f:	e8 92 17 00 00       	callq  0x180004fe6
   180003854:	48 85 c0             	test   %rax,%rax
   180003857:	75 0c                	jne    0x180003865
   180003859:	48 8d 0d d0 40 00 00 	lea    0x40d0(%rip),%rcx        # 0x180007930
   180003860:	e8 7b 17 00 00       	callq  0x180004fe0
   180003865:	48 8b c8             	mov    %rax,%rcx
   180003868:	48 8d 15 a1 40 00 00 	lea    0x40a1(%rip),%rdx        # 0x180007910
   18000386f:	e8 78 17 00 00       	callq  0x180004fec
   180003874:	48 8b 4c 24 30       	mov    0x30(%rsp),%rcx
   180003879:	48 8b 54 24 38       	mov    0x38(%rsp),%rdx
   18000387e:	4c 8b 44 24 40       	mov    0x40(%rsp),%r8
   180003883:	4c 8b 4c 24 48       	mov    0x48(%rsp),%r9
   180003888:	f3 0f 6f 44 24 50    	movdqu 0x50(%rsp),%xmm0
   18000388e:	f3 0f 6f 4c 24 60    	movdqu 0x60(%rsp),%xmm1
   180003894:	f3 0f 6f 54 24 70    	movdqu 0x70(%rsp),%xmm2
   18000389a:	f3 0f 6f 9c 24 80 00 	movdqu 0x80(%rsp),%xmm3
   1800038a1:	00 00 
   1800038a3:	f3 0f 6f a4 24 90 00 	movdqu 0x90(%rsp),%xmm4
   1800038aa:	00 00 
   1800038ac:	f3 0f 6f ac 24 a0 00 	movdqu 0xa0(%rsp),%xmm5
   1800038b3:	00 00 
   1800038b5:	48 81 c4 08 01 00 00 	add    $0x108,%rsp
   1800038bc:	ff e0                	jmpq   *%rax
   1800038be:	66 90                	xchg   %ax,%ax
   1800038c0:	48 8d 05 c9 46 00 00 	lea    0x46c9(%rip),%rax        # 0x180007f90
   1800038c7:	c3                   	retq   
   1800038c8:	48 89 5c 24 08       	mov    %rbx,0x8(%rsp)
   1800038cd:	48 89 74 24 10       	mov    %rsi,0x10(%rsp)
   1800038d2:	57                   	push   %rdi
   1800038d3:	48 81 ec 10 02 00 00 	sub    $0x210,%rsp
   1800038da:	65 48 8b 04 25 60 00 	mov    %gs:0x60,%rax
   1800038e1:	00 00 
   1800038e3:	be 20 00 00 00       	mov    $0x20,%esi
   1800038e8:	8b d9                	mov    %ecx,%ebx
   1800038ea:	4c 8b 40 18          	mov    0x18(%rax),%r8
   1800038ee:	4c 03 c6             	add    %rsi,%r8
   1800038f1:	49 8b 00             	mov    (%r8),%rax
   1800038f4:	49 3b c0             	cmp    %r8,%rax
   1800038f7:	0f 84 f7 00 00 00    	je     0x1800039f4
   1800038fd:	33 ff                	xor    %edi,%edi
   1800038ff:	4c 8d 48 f0          	lea    -0x10(%rax),%r9
   180003903:	41 ba c6 4f f8 67    	mov    $0x67f84fc6,%r10d
   180003909:	49 8b 51 60          	mov    0x60(%r9),%rdx
   18000390d:	4c 8b da             	mov    %rdx,%r11
   180003910:	0f b7 0a             	movzwl (%rdx),%ecx
   180003913:	eb 2e                	jmp    0x180003943
   180003915:	8d 41 bf             	lea    -0x41(%rcx),%eax
   180003918:	66 83 f8 19          	cmp    $0x19,%ax
   18000391c:	77 03                	ja     0x180003921
   18000391e:	66 03 ce             	add    %si,%cx
   180003921:	0f b7 c9             	movzwl %cx,%ecx
   180003924:	8b c1                	mov    %ecx,%eax
   180003926:	83 e0 07             	and    $0x7,%eax
   180003929:	0f af c9             	imul   %ecx,%ecx
   18000392c:	c1 e0 09             	shl    $0x9,%eax
   18000392f:	05 27 0c a2 08       	add    $0x8a20c27,%eax
   180003934:	44 0f af d0          	imul   %eax,%r10d
   180003938:	44 33 d1             	xor    %ecx,%r10d
   18000393b:	49 83 c3 02          	add    $0x2,%r11
   18000393f:	41 0f b7 0b          	movzwl (%r11),%ecx
   180003943:	66 85 c9             	test   %cx,%cx
   180003946:	75 cd                	jne    0x180003915
   180003948:	44 3b d3             	cmp    %ebx,%r10d
   18000394b:	0f 84 ba 00 00 00    	je     0x180003a0b
   180003951:	b8 08 02 00 00       	mov    $0x208,%eax
   180003956:	66 41 39 41 58       	cmp    %ax,0x58(%r9)
   18000395b:	0f 83 86 00 00 00    	jae    0x1800039e7
   180003961:	0f b7 0a             	movzwl (%rdx),%ecx
   180003964:	66 89 0c 24          	mov    %cx,(%rsp)
   180003968:	66 85 c9             	test   %cx,%cx
   18000396b:	74 1b                	je     0x180003988
   18000396d:	48 8d 0c 24          	lea    (%rsp),%rcx
   180003971:	48 2b ca             	sub    %rdx,%rcx
   180003974:	48 8d 52 02          	lea    0x2(%rdx),%rdx
   180003978:	0f b7 02             	movzwl (%rdx),%eax
   18000397b:	66 89 04 11          	mov    %ax,(%rcx,%rdx,1)
   18000397f:	66 85 c0             	test   %ax,%ax
   180003982:	75 f0                	jne    0x180003974
   180003984:	0f b7 0c 24          	movzwl (%rsp),%ecx
   180003988:	48 8d 04 24          	lea    (%rsp),%rax
   18000398c:	66 85 c9             	test   %cx,%cx
   18000398f:	74 0f                	je     0x1800039a0
   180003991:	66 83 38 2e          	cmpw   $0x2e,(%rax)
   180003995:	74 09                	je     0x1800039a0
   180003997:	48 83 c0 02          	add    $0x2,%rax
   18000399b:	66 39 38             	cmp    %di,(%rax)
   18000399e:	75 f1                	jne    0x180003991
   1800039a0:	66 89 38             	mov    %di,(%rax)
   1800039a3:	0f b7 0c 24          	movzwl (%rsp),%ecx
   1800039a7:	4c 8d 14 24          	lea    (%rsp),%r10
   1800039ab:	ba c6 4f f8 67       	mov    $0x67f84fc6,%edx
   1800039b0:	eb 2c                	jmp    0x1800039de
   1800039b2:	8d 41 bf             	lea    -0x41(%rcx),%eax
   1800039b5:	66 83 f8 19          	cmp    $0x19,%ax
   1800039b9:	77 03                	ja     0x1800039be
   1800039bb:	66 03 ce             	add    %si,%cx
   1800039be:	0f b7 c9             	movzwl %cx,%ecx
   1800039c1:	8b c1                	mov    %ecx,%eax
   1800039c3:	83 e0 07             	and    $0x7,%eax
   1800039c6:	0f af c9             	imul   %ecx,%ecx
   1800039c9:	c1 e0 09             	shl    $0x9,%eax
   1800039cc:	05 27 0c a2 08       	add    $0x8a20c27,%eax
   1800039d1:	0f af d0             	imul   %eax,%edx
   1800039d4:	33 d1                	xor    %ecx,%edx
   1800039d6:	49 83 c2 02          	add    $0x2,%r10
   1800039da:	41 0f b7 0a          	movzwl (%r10),%ecx
   1800039de:	66 85 c9             	test   %cx,%cx
   1800039e1:	75 cf                	jne    0x1800039b2
   1800039e3:	3b d3                	cmp    %ebx,%edx
   1800039e5:	74 24                	je     0x180003a0b
   1800039e7:	49 8b 41 10          	mov    0x10(%r9),%rax
   1800039eb:	49 3b c0             	cmp    %r8,%rax
   1800039ee:	0f 85 0b ff ff ff    	jne    0x1800038ff
   1800039f4:	33 c0                	xor    %eax,%eax
   1800039f6:	4c 8d 9c 24 10 02 00 	lea    0x210(%rsp),%r11
   1800039fd:	00 
   1800039fe:	49 8b 5b 10          	mov    0x10(%r11),%rbx
   180003a02:	49 8b 73 18          	mov    0x18(%r11),%rsi
   180003a06:	49 8b e3             	mov    %r11,%rsp
   180003a09:	5f                   	pop    %rdi
   180003a0a:	c3                   	retq   
   180003a0b:	49 8b 41 30          	mov    0x30(%r9),%rax
   180003a0f:	eb e5                	jmp    0x1800039f6
   180003a11:	cc                   	int3   
   180003a12:	cc                   	int3   
   180003a13:	cc                   	int3   
   180003a14:	48 89 5c 24 08       	mov    %rbx,0x8(%rsp)
   180003a19:	48 89 6c 24 10       	mov    %rbp,0x10(%rsp)
   180003a1e:	48 89 74 24 18       	mov    %rsi,0x18(%rsp)
   180003a23:	57                   	push   %rdi
   180003a24:	48 81 ec 30 02 00 00 	sub    $0x230,%rsp
   180003a2b:	e8 90 fe ff ff       	callq  0x1800038c0
   180003a30:	48 8b d8             	mov    %rax,%rbx
   180003a33:	81 38 74 42 38 72    	cmpl   $0x72384274,(%rax)
   180003a39:	75 0a                	jne    0x180003a45
   180003a3b:	b8 01 00 00 00       	mov    $0x1,%eax
   180003a40:	e9 aa 00 00 00       	jmpq   0x180003aef
   180003a45:	8b 05 75 28 00 00    	mov    0x2875(%rip),%eax        # 0x1800062c0
   180003a4b:	be f1 86 f1 86       	mov    $0x86f186f1,%esi
   180003a50:	33 ff                	xor    %edi,%edi
   180003a52:	33 c6                	xor    %esi,%eax
   180003a54:	48 8d 2d a5 c5 ff ff 	lea    -0x3a5b(%rip),%rbp        # 0x180000000
   180003a5b:	89 44 24 20          	mov    %eax,0x20(%rsp)
   180003a5f:	66 3b c7             	cmp    %di,%ax
   180003a62:	74 1f                	je     0x180003a83
   180003a64:	8b cf                	mov    %edi,%ecx
   180003a66:	66 39 7c 0c 22       	cmp    %di,0x22(%rsp,%rcx,1)
   180003a6b:	74 16                	je     0x180003a83
   180003a6d:	8b 84 29 c4 62 00 00 	mov    0x62c4(%rcx,%rbp,1),%eax
   180003a74:	48 83 c1 04          	add    $0x4,%rcx
   180003a78:	33 c6                	xor    %esi,%eax
   180003a7a:	89 44 0c 20          	mov    %eax,0x20(%rsp,%rcx,1)
   180003a7e:	66 85 c0             	test   %ax,%ax
   180003a81:	75 e3                	jne    0x180003a66
   180003a83:	48 8d 4c 24 20       	lea    0x20(%rsp),%rcx
   180003a88:	ff 15 9a 25 00 00    	callq  *0x259a(%rip)        # 0x180006028
   180003a8e:	48 89 83 88 01 00 00 	mov    %rax,0x188(%rbx)
   180003a95:	8b 05 e5 27 00 00    	mov    0x27e5(%rip),%eax        # 0x180006280
   180003a9b:	33 c6                	xor    %esi,%eax
   180003a9d:	89 44 24 20          	mov    %eax,0x20(%rsp)
   180003aa1:	66 3b c7             	cmp    %di,%ax
   180003aa4:	74 20                	je     0x180003ac6
   180003aa6:	48 8b cf             	mov    %rdi,%rcx
   180003aa9:	66 39 7c 0c 22       	cmp    %di,0x22(%rsp,%rcx,1)
   180003aae:	74 16                	je     0x180003ac6
   180003ab0:	8b 84 29 84 62 00 00 	mov    0x6284(%rcx,%rbp,1),%eax
   180003ab7:	48 83 c1 04          	add    $0x4,%rcx
   180003abb:	33 c6                	xor    %esi,%eax
   180003abd:	89 44 0c 20          	mov    %eax,0x20(%rsp,%rcx,1)
   180003ac1:	66 85 c0             	test   %ax,%ax
   180003ac4:	75 e3                	jne    0x180003aa9
   180003ac6:	48 8d 4c 24 20       	lea    0x20(%rsp),%rcx
   180003acb:	ff 15 57 25 00 00    	callq  *0x2557(%rip)        # 0x180006028
   180003ad1:	48 89 83 80 01 00 00 	mov    %rax,0x180(%rbx)
   180003ad8:	48 39 bb 88 01 00 00 	cmp    %rdi,0x188(%rbx)
   180003adf:	74 0c                	je     0x180003aed
   180003ae1:	48 85 c0             	test   %rax,%rax
   180003ae4:	74 07                	je     0x180003aed
   180003ae6:	e8 1d 00 00 00       	callq  0x180003b08
   180003aeb:	eb 02                	jmp    0x180003aef
   180003aed:	33 c0                	xor    %eax,%eax
   180003aef:	4c 8d 9c 24 30 02 00 	lea    0x230(%rsp),%r11
   180003af6:	00 
   180003af7:	49 8b 5b 10          	mov    0x10(%r11),%rbx
   180003afb:	49 8b 6b 18          	mov    0x18(%r11),%rbp
   180003aff:	49 8b 73 20          	mov    0x20(%r11),%rsi
   180003b03:	49 8b e3             	mov    %r11,%rsp
   180003b06:	5f                   	pop    %rdi
   180003b07:	c3                   	retq   
   180003b08:	48 89 5c 24 08       	mov    %rbx,0x8(%rsp)
   180003b0d:	48 89 74 24 10       	mov    %rsi,0x10(%rsp)
   180003b12:	57                   	push   %rdi
   180003b13:	48 83 ec 20          	sub    $0x20,%rsp
   180003b17:	e8 a4 fd ff ff       	callq  0x1800038c0
   180003b1c:	ba 5b 55 3f bc       	mov    $0xbc3f555b,%edx
   180003b21:	48 8b 88 80 01 00 00 	mov    0x180(%rax),%rcx
   180003b28:	48 83 a0 78 01 00 00 	andq   $0x0,0x178(%rax)
   180003b2f:	00 
   180003b30:	48 83 60 20 00       	andq   $0x0,0x20(%rax)
   180003b35:	48 8b d8             	mov    %rax,%rbx
   180003b38:	e8 2f 0b 00 00       	callq  0x18000466c
   180003b3d:	48 8d 35 7c 27 00 00 	lea    0x277c(%rip),%rsi        # 0x1800062c0
   180003b44:	48 8b ce             	mov    %rsi,%rcx
   180003b47:	ba b8 2b 05 c9       	mov    $0xc9052bb8,%edx
   180003b4c:	48 89 83 00 01 00 00 	mov    %rax,0x100(%rbx)
   180003b53:	e8 8c 0a 00 00       	callq  0x1800045e4
   180003b58:	ba 5c 86 f3 ea       	mov    $0xeaf3865c,%edx
   180003b5d:	48 8b ce             	mov    %rsi,%rcx
   180003b60:	48 89 43 60          	mov    %rax,0x60(%rbx)
   180003b64:	e8 7b 0a 00 00       	callq  0x1800045e4
   180003b69:	48 89 43 68          	mov    %rax,0x68(%rbx)
   180003b6d:	48 85 c0             	test   %rax,%rax
   180003b70:	0f 84 17 03 00 00    	je     0x180003e8d
   180003b76:	ba 74 fb 32 af       	mov    $0xaf32fb74,%edx
   180003b7b:	48 8b ce             	mov    %rsi,%rcx
   180003b7e:	e8 61 0a 00 00       	callq  0x1800045e4
   180003b83:	ba 94 1c ee c9       	mov    $0xc9ee1c94,%edx
   180003b88:	48 8b ce             	mov    %rsi,%rcx
   180003b8b:	48 89 83 a8 00 00 00 	mov    %rax,0xa8(%rbx)
   180003b92:	e8 4d 0a 00 00       	callq  0x1800045e4
   180003b97:	ba 27 60 f0 46       	mov    $0x46f06027,%edx
   180003b9c:	48 8b ce             	mov    %rsi,%rcx
   180003b9f:	48 89 43 70          	mov    %rax,0x70(%rbx)
   180003ba3:	e8 3c 0a 00 00       	callq  0x1800045e4
   180003ba8:	48 89 43 78          	mov    %rax,0x78(%rbx)
   180003bac:	48 85 c0             	test   %rax,%rax
   180003baf:	0f 84 d8 02 00 00    	je     0x180003e8d
   180003bb5:	ba cf 0d 74 4c       	mov    $0x4c740dcf,%edx
   180003bba:	48 8b ce             	mov    %rsi,%rcx
   180003bbd:	e8 22 0a 00 00       	callq  0x1800045e4
   180003bc2:	48 89 43 18          	mov    %rax,0x18(%rbx)
   180003bc6:	48 85 c0             	test   %rax,%rax
   180003bc9:	0f 84 be 02 00 00    	je     0x180003e8d
   180003bcf:	ba 10 ee 27 d3       	mov    $0xd327ee10,%edx
   180003bd4:	48 8b ce             	mov    %rsi,%rcx
   180003bd7:	e8 08 0a 00 00       	callq  0x1800045e4
   180003bdc:	48 89 43 40          	mov    %rax,0x40(%rbx)
   180003be0:	48 85 c0             	test   %rax,%rax
   180003be3:	0f 84 a4 02 00 00    	je     0x180003e8d
   180003be9:	ba f7 1a d5 00       	mov    $0xd51af7,%edx
   180003bee:	48 8b ce             	mov    %rsi,%rcx
   180003bf1:	e8 ee 09 00 00       	callq  0x1800045e4
   180003bf6:	48 8d 3d 83 26 00 00 	lea    0x2683(%rip),%rdi        # 0x180006280
   180003bfd:	ba 0d ed 35 15       	mov    $0x1535ed0d,%edx
   180003c02:	48 8b cf             	mov    %rdi,%rcx
   180003c05:	48 89 83 98 00 00 00 	mov    %rax,0x98(%rbx)
   180003c0c:	e8 d3 09 00 00       	callq  0x1800045e4
   180003c11:	ba 0b 7b b6 ba       	mov    $0xbab67b0b,%edx
   180003c16:	48 8b cf             	mov    %rdi,%rcx
   180003c19:	48 89 43 08          	mov    %rax,0x8(%rbx)
   180003c1d:	e8 c2 09 00 00       	callq  0x1800045e4
   180003c22:	48 89 43 10          	mov    %rax,0x10(%rbx)
   180003c26:	48 85 c0             	test   %rax,%rax
   180003c29:	0f 84 5e 02 00 00    	je     0x180003e8d
   180003c2f:	ba 86 0a bf ae       	mov    $0xaebf0a86,%edx
   180003c34:	48 8b cf             	mov    %rdi,%rcx
   180003c37:	e8 a8 09 00 00       	callq  0x1800045e4
   180003c3c:	ba 66 15 ed 66       	mov    $0x66ed1566,%edx
   180003c41:	48 8b cf             	mov    %rdi,%rcx
   180003c44:	48 89 43 28          	mov    %rax,0x28(%rbx)
   180003c48:	e8 97 09 00 00       	callq  0x1800045e4
   180003c4d:	ba 19 72 9c 9f       	mov    $0x9f9c7219,%edx
   180003c52:	48 8b cf             	mov    %rdi,%rcx
   180003c55:	48 89 43 30          	mov    %rax,0x30(%rbx)
   180003c59:	e8 86 09 00 00       	callq  0x1800045e4
   180003c5e:	ba 4c 12 41 f2       	mov    $0xf241124c,%edx
   180003c63:	48 8b cf             	mov    %rdi,%rcx
   180003c66:	48 89 43 58          	mov    %rax,0x58(%rbx)
   180003c6a:	e8 75 09 00 00       	callq  0x1800045e4
   180003c6f:	48 89 43 38          	mov    %rax,0x38(%rbx)
   180003c73:	48 85 c0             	test   %rax,%rax
   180003c76:	0f 84 11 02 00 00    	je     0x180003e8d
   180003c7c:	ba ec 8c e1 54       	mov    $0x54e18cec,%edx
   180003c81:	48 8b cf             	mov    %rdi,%rcx
   180003c84:	e8 5b 09 00 00       	callq  0x1800045e4
   180003c89:	ba 8e ac ac 75       	mov    $0x75acac8e,%edx
   180003c8e:	48 8b cf             	mov    %rdi,%rcx
   180003c91:	48 89 43 48          	mov    %rax,0x48(%rbx)
   180003c95:	e8 4a 09 00 00       	callq  0x1800045e4
   180003c9a:	ba 12 25 33 9c       	mov    $0x9c332512,%edx
   180003c9f:	48 8b cf             	mov    %rdi,%rcx
   180003ca2:	48 89 43 50          	mov    %rax,0x50(%rbx)
   180003ca6:	e8 39 09 00 00       	callq  0x1800045e4
   180003cab:	48 89 83 d0 00 00 00 	mov    %rax,0xd0(%rbx)
   180003cb2:	48 85 c0             	test   %rax,%rax
   180003cb5:	0f 84 d2 01 00 00    	je     0x180003e8d
   180003cbb:	ba 6e 3d c9 22       	mov    $0x22c93d6e,%edx
   180003cc0:	48 8b cf             	mov    %rdi,%rcx
   180003cc3:	e8 1c 09 00 00       	callq  0x1800045e4
   180003cc8:	48 89 83 f8 00 00 00 	mov    %rax,0xf8(%rbx)
   180003ccf:	48 85 c0             	test   %rax,%rax
   180003cd2:	0f 84 b5 01 00 00    	je     0x180003e8d
   180003cd8:	ba 03 41 0d 2c       	mov    $0x2c0d4103,%edx
   180003cdd:	48 8b cf             	mov    %rdi,%rcx
   180003ce0:	e8 ff 08 00 00       	callq  0x1800045e4
   180003ce5:	ba 4f a0 60 28       	mov    $0x2860a04f,%edx
   180003cea:	48 8b cf             	mov    %rdi,%rcx
   180003ced:	48 89 83 d8 00 00 00 	mov    %rax,0xd8(%rbx)
   180003cf4:	e8 eb 08 00 00       	callq  0x1800045e4
   180003cf9:	ba 10 8e da b3       	mov    $0xb3da8e10,%edx
   180003cfe:	48 8b cf             	mov    %rdi,%rcx
   180003d01:	48 89 83 80 00 00 00 	mov    %rax,0x80(%rbx)
   180003d08:	e8 d7 08 00 00       	callq  0x1800045e4
   180003d0d:	ba fa 67 93 7e       	mov    $0x7e9367fa,%edx
   180003d12:	48 8b ce             	mov    %rsi,%rcx
   180003d15:	48 89 83 88 00 00 00 	mov    %rax,0x88(%rbx)
   180003d1c:	e8 c3 08 00 00       	callq  0x1800045e4
   180003d21:	ba b5 d8 4a 64       	mov    $0x644ad8b5,%edx
   180003d26:	48 8b cf             	mov    %rdi,%rcx
   180003d29:	48 89 83 b8 00 00 00 	mov    %rax,0xb8(%rbx)
   180003d30:	e8 af 08 00 00       	callq  0x1800045e4
   180003d35:	ba cd c1 85 ad       	mov    $0xad85c1cd,%edx
   180003d3a:	48 8b cf             	mov    %rdi,%rcx
   180003d3d:	48 89 83 90 00 00 00 	mov    %rax,0x90(%rbx)
   180003d44:	e8 9b 08 00 00       	callq  0x1800045e4
   180003d49:	48 89 83 b0 00 00 00 	mov    %rax,0xb0(%rbx)
   180003d50:	48 85 c0             	test   %rax,%rax
   180003d53:	0f 84 34 01 00 00    	je     0x180003e8d
   180003d59:	ba 3d 18 50 1d       	mov    $0x1d50183d,%edx
   180003d5e:	48 8b cf             	mov    %rdi,%rcx
   180003d61:	e8 7e 08 00 00       	callq  0x1800045e4
   180003d66:	48 89 83 a0 00 00 00 	mov    %rax,0xa0(%rbx)
   180003d6d:	48 85 c0             	test   %rax,%rax
   180003d70:	0f 84 17 01 00 00    	je     0x180003e8d
   180003d76:	ba 6b 87 b4 1c       	mov    $0x1cb4876b,%edx
   180003d7b:	48 8b cf             	mov    %rdi,%rcx
   180003d7e:	e8 61 08 00 00       	callq  0x1800045e4
   180003d83:	ba db 8b 08 4a       	mov    $0x4a088bdb,%edx
   180003d88:	48 8b cf             	mov    %rdi,%rcx
   180003d8b:	48 89 83 c0 00 00 00 	mov    %rax,0xc0(%rbx)
   180003d92:	e8 4d 08 00 00       	callq  0x1800045e4
   180003d97:	ba 7c 78 b8 b1       	mov    $0xb1b8787c,%edx
   180003d9c:	48 8b cf             	mov    %rdi,%rcx
   180003d9f:	48 89 83 c8 00 00 00 	mov    %rax,0xc8(%rbx)
   180003da6:	e8 39 08 00 00       	callq  0x1800045e4
   180003dab:	ba 24 41 35 d1       	mov    $0xd1354124,%edx
   180003db0:	48 8b cf             	mov    %rdi,%rcx
   180003db3:	48 89 83 e0 00 00 00 	mov    %rax,0xe0(%rbx)
   180003dba:	e8 25 08 00 00       	callq  0x1800045e4
   180003dbf:	48 89 83 e8 00 00 00 	mov    %rax,0xe8(%rbx)
   180003dc6:	48 85 c0             	test   %rax,%rax
   180003dc9:	0f 84 be 00 00 00    	je     0x180003e8d
   180003dcf:	ba 73 80 73 49       	mov    $0x49738073,%edx
   180003dd4:	48 8b cf             	mov    %rdi,%rcx
   180003dd7:	e8 08 08 00 00       	callq  0x1800045e4
   180003ddc:	48 89 83 f0 00 00 00 	mov    %rax,0xf0(%rbx)
   180003de3:	48 85 c0             	test   %rax,%rax
   180003de6:	0f 84 a1 00 00 00    	je     0x180003e8d
   180003dec:	ba cf 3f cf 8d       	mov    $0x8dcf3fcf,%edx
   180003df1:	48 8b ce             	mov    %rsi,%rcx
   180003df4:	e8 eb 07 00 00       	callq  0x1800045e4
   180003df9:	ba 68 63 ff 1e       	mov    $0x1eff6368,%edx
   180003dfe:	48 8b ce             	mov    %rsi,%rcx
   180003e01:	48 89 83 10 01 00 00 	mov    %rax,0x110(%rbx)
   180003e08:	e8 d7 07 00 00       	callq  0x1800045e4
   180003e0d:	48 8d 0d 1c 24 00 00 	lea    0x241c(%rip),%rcx        # 0x180006230
   180003e14:	ba c0 ed 4c 61       	mov    $0x614cedc0,%edx
   180003e19:	48 89 83 08 01 00 00 	mov    %rax,0x108(%rbx)
   180003e20:	e8 bf 07 00 00       	callq  0x1800045e4
   180003e25:	48 8d 0d 04 24 00 00 	lea    0x2404(%rip),%rcx        # 0x180006230
   180003e2c:	ba fe f5 47 ab       	mov    $0xab47f5fe,%edx
   180003e31:	48 89 83 18 01 00 00 	mov    %rax,0x118(%rbx)
   180003e38:	e8 a7 07 00 00       	callq  0x1800045e4
   180003e3d:	ba 78 97 8b 33       	mov    $0x338b9778,%edx
   180003e42:	48 8b cf             	mov    %rdi,%rcx
   180003e45:	48 89 83 20 01 00 00 	mov    %rax,0x120(%rbx)
   180003e4c:	e8 93 07 00 00       	callq  0x1800045e4
   180003e51:	ba 58 59 00 4e       	mov    $0x4e005958,%edx
   180003e56:	48 8b cf             	mov    %rdi,%rcx
   180003e59:	48 89 83 28 01 00 00 	mov    %rax,0x128(%rbx)
   180003e60:	e8 7f 07 00 00       	callq  0x1800045e4
   180003e65:	ba 00 51 7b a1       	mov    $0xa17b5100,%edx
   180003e6a:	48 8b cf             	mov    %rdi,%rcx
   180003e6d:	48 89 83 30 01 00 00 	mov    %rax,0x130(%rbx)
   180003e74:	e8 6b 07 00 00       	callq  0x1800045e4
   180003e79:	c7 03 74 42 38 72    	movl   $0x72384274,(%rbx)
   180003e7f:	48 89 83 38 01 00 00 	mov    %rax,0x138(%rbx)
   180003e86:	b8 01 00 00 00       	mov    $0x1,%eax
   180003e8b:	eb 02                	jmp    0x180003e8f
   180003e8d:	33 c0                	xor    %eax,%eax
   180003e8f:	48 8b 5c 24 30       	mov    0x30(%rsp),%rbx
   180003e94:	48 8b 74 24 38       	mov    0x38(%rsp),%rsi
   180003e99:	48 83 c4 20          	add    $0x20,%rsp
   180003e9d:	5f                   	pop    %rdi
   180003e9e:	c3                   	retq   
   180003e9f:	cc                   	int3   
   180003ea0:	48 89 5c 24 10       	mov    %rbx,0x10(%rsp)
   180003ea5:	57                   	push   %rdi
   180003ea6:	48 83 ec 30          	sub    $0x30,%rsp
   180003eaa:	83 64 24 40 00       	andl   $0x0,0x40(%rsp)
   180003eaf:	48 83 39 ff          	cmpq   $0xffffffffffffffff,(%rcx)
   180003eb3:	48 8b d9             	mov    %rcx,%rbx
   180003eb6:	74 2d                	je     0x180003ee5
   180003eb8:	e8 03 fa ff ff       	callq  0x1800038c0
   180003ebd:	48 8b 09             	mov    (%rcx),%rcx
   180003ec0:	48 83 64 24 20 00    	andq   $0x0,0x20(%rsp)
   180003ec6:	4c 8d 4c 24 40       	lea    0x40(%rsp),%r9
   180003ecb:	48 8b f8             	mov    %rax,%rdi
   180003ece:	ff 90 c8 00 00 00    	callq  *0xc8(%rax)
   180003ed4:	85 c0                	test   %eax,%eax
   180003ed6:	75 0d                	jne    0x180003ee5
   180003ed8:	48 8b 0b             	mov    (%rbx),%rcx
   180003edb:	ff 97 98 00 00 00    	callq  *0x98(%rdi)
   180003ee1:	48 83 0b ff          	orq    $0xffffffffffffffff,(%rbx)
   180003ee5:	48 8b 5c 24 48       	mov    0x48(%rsp),%rbx
   180003eea:	48 83 c4 30          	add    $0x30,%rsp
   180003eee:	5f                   	pop    %rdi
   180003eef:	c3                   	retq   
   180003ef0:	48 8b c4             	mov    %rsp,%rax
   180003ef3:	48 89 58 08          	mov    %rbx,0x8(%rax)
   180003ef7:	48 89 70 10          	mov    %rsi,0x10(%rax)
   180003efb:	57                   	push   %rdi
   180003efc:	48 83 ec 20          	sub    $0x20,%rsp
   180003f00:	41 8b d8             	mov    %r8d,%ebx
   180003f03:	48 8b fa             	mov    %rdx,%rdi
   180003f06:	48 8d 50 18          	lea    0x18(%rax),%rdx
   180003f0a:	41 b8 04 00 00 00    	mov    $0x4,%r8d
   180003f10:	48 8b f1             	mov    %rcx,%rsi
   180003f13:	89 58 18             	mov    %ebx,0x18(%rax)
   180003f16:	e8 85 ff ff ff       	callq  0x180003ea0
   180003f1b:	44 8b c3             	mov    %ebx,%r8d
   180003f1e:	48 8b d7             	mov    %rdi,%rdx
   180003f21:	48 8b ce             	mov    %rsi,%rcx
   180003f24:	48 8b 5c 24 30       	mov    0x30(%rsp),%rbx
   180003f29:	48 8b 74 24 38       	mov    0x38(%rsp),%rsi
   180003f2e:	48 83 c4 20          	add    $0x20,%rsp
   180003f32:	5f                   	pop    %rdi
   180003f33:	e9 68 ff ff ff       	jmpq   0x180003ea0
   180003f38:	48 8b c4             	mov    %rsp,%rax
   180003f3b:	48 89 58 08          	mov    %rbx,0x8(%rax)
   180003f3f:	48 89 70 10          	mov    %rsi,0x10(%rax)
   180003f43:	48 89 78 18          	mov    %rdi,0x18(%rax)
   180003f47:	55                   	push   %rbp
   180003f48:	48 8d 68 a1          	lea    -0x5f(%rax),%rbp
   180003f4c:	48 81 ec 90 00 00 00 	sub    $0x90,%rsp
   180003f53:	8a d9                	mov    %cl,%bl
   180003f55:	48 8d 0d 24 23 00 00 	lea    0x2324(%rip),%rcx        # 0x180006280
   180003f5c:	ba c5 68 1b 11       	mov    $0x111b68c5,%edx
   180003f61:	e8 7e 06 00 00       	callq  0x1800045e4
   180003f66:	33 ff                	xor    %edi,%edi
   180003f68:	c7 45 eb 2e 00 5c 00 	movl   $0x5c002e,-0x15(%rbp)
   180003f6f:	48 8b f0             	mov    %rax,%rsi
   180003f72:	b8 70 00 00 00       	mov    $0x70,%eax
   180003f77:	c7 45 f1 69 00 70 00 	movl   $0x700069,-0xf(%rbp)
   180003f7e:	66 89 45 ef          	mov    %ax,-0x11(%rbp)
   180003f82:	c7 45 e7 5c 00 5c 00 	movl   $0x5c005c,-0x19(%rbp)
   180003f89:	c7 45 f5 65 00 5c 00 	movl   $0x5c0065,-0xb(%rbp)
   180003f90:	48 8d 45 e7          	lea    -0x19(%rbp),%rax
   180003f94:	66 89 7d f9          	mov    %di,-0x7(%rbp)
   180003f98:	8b cf                	mov    %edi,%ecx
   180003f9a:	48 8d 40 02          	lea    0x2(%rax),%rax
   180003f9e:	ff c1                	inc    %ecx
   180003fa0:	66 39 38             	cmp    %di,(%rax)
   180003fa3:	75 f5                	jne    0x180003f9a
   180003fa5:	48 63 c1             	movslq %ecx,%rax
   180003fa8:	48 8d 55 e7          	lea    -0x19(%rbp),%rdx
   180003fac:	8a cb                	mov    %bl,%cl
   180003fae:	48 8d 14 42          	lea    (%rdx,%rax,2),%rdx
   180003fb2:	e8 c1 00 00 00       	callq  0x180004078
   180003fb7:	85 c0                	test   %eax,%eax
   180003fb9:	74 2c                	je     0x180003fe7
   180003fbb:	48 8d 4d e7          	lea    -0x19(%rbp),%rcx
   180003fbf:	33 d2                	xor    %edx,%edx
   180003fc1:	ff d6                	callq  *%rsi
   180003fc3:	8b d8                	mov    %eax,%ebx
   180003fc5:	e8 f6 f8 ff ff       	callq  0x1800038c0
   180003fca:	ff 90 38 01 00 00    	callq  *0x138(%rax)
   180003fd0:	85 db                	test   %ebx,%ebx
   180003fd2:	75 0c                	jne    0x180003fe0
   180003fd4:	83 f8 79             	cmp    $0x79,%eax
   180003fd7:	74 07                	je     0x180003fe0
   180003fd9:	3d e7 00 00 00       	cmp    $0xe7,%eax
   180003fde:	75 05                	jne    0x180003fe5
   180003fe0:	bf 01 00 00 00       	mov    $0x1,%edi
   180003fe5:	8b c7                	mov    %edi,%eax
   180003fe7:	4c 8d 9c 24 90 00 00 	lea    0x90(%rsp),%r11
   180003fee:	00 
   180003fef:	49 8b 5b 10          	mov    0x10(%r11),%rbx
   180003ff3:	49 8b 73 18          	mov    0x18(%r11),%rsi
   180003ff7:	49 8b 7b 20          	mov    0x20(%r11),%rdi
   180003ffb:	49 8b e3             	mov    %r11,%rsp
   180003ffe:	5d                   	pop    %rbp
   180003fff:	c3                   	retq   
   180004000:	48 89 5c 24 08       	mov    %rbx,0x8(%rsp)
   180004005:	48 89 74 24 10       	mov    %rsi,0x10(%rsp)
   18000400a:	57                   	push   %rdi
   18000400b:	48 83 ec 20          	sub    $0x20,%rsp
   18000400f:	0f b6 f9             	movzbl %cl,%edi
   180004012:	48 8d 35 ff 3e 00 00 	lea    0x3eff(%rip),%rsi        # 0x180007f18
   180004019:	83 3c be 00          	cmpl   $0x0,(%rsi,%rdi,4)
   18000401d:	8b df                	mov    %edi,%ebx
   18000401f:	74 20                	je     0x180004041
   180004021:	e8 9a f8 ff ff       	callq  0x1800038c0
   180004026:	ff 90 d0 00 00 00    	callq  *0xd0(%rax)
   18000402c:	3b 04 9e             	cmp    (%rsi,%rbx,4),%eax
   18000402f:	73 06                	jae    0x180004037
   180004031:	83 24 9e 00          	andl   $0x0,(%rsi,%rbx,4)
   180004035:	eb 0a                	jmp    0x180004041
   180004037:	2b 04 9e             	sub    (%rsi,%rbx,4),%eax
   18000403a:	3d 30 75 00 00       	cmp    $0x7530,%eax
   18000403f:	72 25                	jb     0x180004066
   180004041:	40 8a cf             	mov    %dil,%cl
   180004044:	e8 ef fe ff ff       	callq  0x180003f38
   180004049:	85 c0                	test   %eax,%eax
   18000404b:	74 0b                	je     0x180004058
   18000404d:	83 24 9e 00          	andl   $0x0,(%rsi,%rbx,4)
   180004051:	b8 01 00 00 00       	mov    $0x1,%eax
   180004056:	eb 10                	jmp    0x180004068
   180004058:	e8 63 f8 ff ff       	callq  0x1800038c0
   18000405d:	ff 90 d0 00 00 00    	callq  *0xd0(%rax)
   180004063:	89 04 9e             	mov    %eax,(%rsi,%rbx,4)
   180004066:	33 c0                	xor    %eax,%eax
   180004068:	48 8b 5c 24 30       	mov    0x30(%rsp),%rbx
   18000406d:	48 8b 74 24 38       	mov    0x38(%rsp),%rsi
   180004072:	48 83 c4 20          	add    $0x20,%rsp
   180004076:	5f                   	pop    %rdi
   180004077:	c3                   	retq   
   180004078:	48 89 5c 24 08       	mov    %rbx,0x8(%rsp)
   18000407d:	48 89 74 24 10       	mov    %rsi,0x10(%rsp)
   180004082:	57                   	push   %rdi
   180004083:	48 83 ec 40          	sub    $0x40,%rsp
   180004087:	48 8b fa             	mov    %rdx,%rdi
   18000408a:	40 8a f1             	mov    %cl,%sil
   18000408d:	c7 44 24 60 10 00 00 	movl   $0x10,0x60(%rsp)
   180004094:	00 
   180004095:	e8 7a f9 ff ff       	callq  0x180003a14
   18000409a:	33 db                	xor    %ebx,%ebx
   18000409c:	85 c0                	test   %eax,%eax
   18000409e:	75 07                	jne    0x1800040a7
   1800040a0:	33 c0                	xor    %eax,%eax
   1800040a2:	e9 94 00 00 00       	jmpq   0x18000413b
   1800040a7:	48 8d 0d d2 21 00 00 	lea    0x21d2(%rip),%rcx        # 0x180006280
   1800040ae:	ba 23 72 15 d3       	mov    $0xd3157223,%edx
   1800040b3:	e8 2c 05 00 00       	callq  0x1800045e4
   1800040b8:	48 85 c0             	test   %rax,%rax
   1800040bb:	74 e3                	je     0x1800040a0
   1800040bd:	48 8d 54 24 60       	lea    0x60(%rsp),%rdx
   1800040c2:	48 8d 4c 24 20       	lea    0x20(%rsp),%rcx
   1800040c7:	ff d0                	callq  *%rax
   1800040c9:	85 c0                	test   %eax,%eax
   1800040cb:	74 d3                	je     0x1800040a0
   1800040cd:	0f b7 4c 24 20       	movzwl 0x20(%rsp),%ecx
   1800040d2:	48 8d 54 24 20       	lea    0x20(%rsp),%rdx
   1800040d7:	41 b8 c6 4f f8 67    	mov    $0x67f84fc6,%r8d
   1800040dd:	eb 2e                	jmp    0x18000410d
   1800040df:	8d 41 bf             	lea    -0x41(%rcx),%eax
   1800040e2:	66 83 f8 19          	cmp    $0x19,%ax
   1800040e6:	77 04                	ja     0x1800040ec
   1800040e8:	66 83 c1 20          	add    $0x20,%cx
   1800040ec:	0f b7 c9             	movzwl %cx,%ecx
   1800040ef:	8b c1                	mov    %ecx,%eax
   1800040f1:	83 e0 07             	and    $0x7,%eax
   1800040f4:	0f af c9             	imul   %ecx,%ecx
   1800040f7:	c1 e0 09             	shl    $0x9,%eax
   1800040fa:	05 27 0c a2 08       	add    $0x8a20c27,%eax
   1800040ff:	44 0f af c0          	imul   %eax,%r8d
   180004103:	44 33 c1             	xor    %ecx,%r8d
   180004106:	48 83 c2 02          	add    $0x2,%rdx
   18000410a:	0f b7 0a             	movzwl (%rdx),%ecx
   18000410d:	66 85 c9             	test   %cx,%cx
   180004110:	75 cd                	jne    0x1800040df
   180004112:	40 0f b6 d6          	movzbl %sil,%edx
   180004116:	42 8d 0c 02          	lea    (%rdx,%r8,1),%ecx
   18000411a:	44 2b c2             	sub    %edx,%r8d
   18000411d:	48 8b d7             	mov    %rdi,%rdx
   180004120:	89 4c 24 60          	mov    %ecx,0x60(%rsp)
   180004124:	44 89 44 24 64       	mov    %r8d,0x64(%rsp)
   180004129:	48 8b 4c 24 60       	mov    0x60(%rsp),%rcx
   18000412e:	e8 c9 0b 00 00       	callq  0x180004cfc
   180004133:	83 f8 ff             	cmp    $0xffffffff,%eax
   180004136:	0f 95 c3             	setne  %bl
   180004139:	8b c3                	mov    %ebx,%eax
   18000413b:	48 8b 5c 24 50       	mov    0x50(%rsp),%rbx
   180004140:	48 8b 74 24 58       	mov    0x58(%rsp),%rsi
   180004145:	48 83 c4 40          	add    $0x40,%rsp
   180004149:	5f                   	pop    %rdi
   18000414a:	c3                   	retq   
   18000414b:	cc                   	int3   
   18000414c:	48 8b c4             	mov    %rsp,%rax
   18000414f:	48 89 58 08          	mov    %rbx,0x8(%rax)
   180004153:	48 89 70 10          	mov    %rsi,0x10(%rax)
   180004157:	48 89 78 18          	mov    %rdi,0x18(%rax)
   18000415b:	55                   	push   %rbp
   18000415c:	41 56                	push   %r14
   18000415e:	41 57                	push   %r15
   180004160:	48 8d 68 a1          	lea    -0x5f(%rax),%rbp
   180004164:	48 81 ec b0 00 00 00 	sub    $0xb0,%rsp
   18000416b:	8a d9                	mov    %cl,%bl
   18000416d:	48 8d 0d 0c 21 00 00 	lea    0x210c(%rip),%rcx        # 0x180006280
   180004174:	49 83 cf ff          	or     $0xffffffffffffffff,%r15
   180004178:	ba c5 68 1b 11       	mov    $0x111b68c5,%edx
   18000417d:	49 8b ff             	mov    %r15,%rdi
   180004180:	e8 5f 04 00 00       	callq  0x1800045e4
   180004185:	45 33 f6             	xor    %r14d,%r14d
   180004188:	48 8b f0             	mov    %rax,%rsi
   18000418b:	48 85 c0             	test   %rax,%rax
   18000418e:	75 08                	jne    0x180004198
   180004190:	49 8b c7             	mov    %r15,%rax
   180004193:	e9 c2 00 00 00       	jmpq   0x18000425a
   180004198:	b8 70 00 00 00       	mov    $0x70,%eax
   18000419d:	c7 45 db 2e 00 5c 00 	movl   $0x5c002e,-0x25(%rbp)
   1800041a4:	c7 45 e1 69 00 70 00 	movl   $0x700069,-0x1f(%rbp)
   1800041ab:	66 89 45 df          	mov    %ax,-0x21(%rbp)
   1800041af:	c7 45 d7 5c 00 5c 00 	movl   $0x5c005c,-0x29(%rbp)
   1800041b6:	c7 45 e5 65 00 5c 00 	movl   $0x5c0065,-0x1b(%rbp)
   1800041bd:	48 8d 45 d7          	lea    -0x29(%rbp),%rax
   1800041c1:	66 44 89 75 e9       	mov    %r14w,-0x17(%rbp)
   1800041c6:	41 8b ce             	mov    %r14d,%ecx
   1800041c9:	48 8d 40 02          	lea    0x2(%rax),%rax
   1800041cd:	ff c1                	inc    %ecx
   1800041cf:	66 44 39 30          	cmp    %r14w,(%rax)
   1800041d3:	75 f4                	jne    0x1800041c9
   1800041d5:	48 63 c1             	movslq %ecx,%rax
   1800041d8:	48 8d 55 d7          	lea    -0x29(%rbp),%rdx
   1800041dc:	8a cb                	mov    %bl,%cl
   1800041de:	48 8d 14 42          	lea    (%rdx,%rax,2),%rdx
   1800041e2:	e8 91 fe ff ff       	callq  0x180004078
   1800041e7:	85 c0                	test   %eax,%eax
   1800041e9:	74 a5                	je     0x180004190
   1800041eb:	41 8b de             	mov    %r14d,%ebx
   1800041ee:	48 8d 4d d7          	lea    -0x29(%rbp),%rcx
   1800041f2:	ba 32 00 00 00       	mov    $0x32,%edx
   1800041f7:	ff d6                	callq  *%rsi
   1800041f9:	85 c0                	test   %eax,%eax
   1800041fb:	75 1f                	jne    0x18000421c
   1800041fd:	e8 be f6 ff ff       	callq  0x1800038c0
   180004202:	ff 90 38 01 00 00    	callq  *0x138(%rax)
   180004208:	3d e7 00 00 00       	cmp    $0xe7,%eax
   18000420d:	75 48                	jne    0x180004257
   18000420f:	b9 32 00 00 00       	mov    $0x32,%ecx
   180004214:	ff 15 2c 31 00 00    	callq  *0x312c(%rip)        # 0x180007346
   18000421a:	eb 34                	jmp    0x180004250
   18000421c:	e8 9f f6 ff ff       	callq  0x1800038c0
   180004221:	4c 89 74 24 30       	mov    %r14,0x30(%rsp)
   180004226:	48 8d 4d d7          	lea    -0x29(%rbp),%rcx
   18000422a:	45 33 c9             	xor    %r9d,%r9d
   18000422d:	45 33 c0             	xor    %r8d,%r8d
   180004230:	ba 00 00 00 40       	mov    $0x40000000,%edx
   180004235:	44 89 74 24 28       	mov    %r14d,0x28(%rsp)
   18000423a:	c7 44 24 20 03 00 00 	movl   $0x3,0x20(%rsp)
   180004241:	00 
   180004242:	ff 90 c0 00 00 00    	callq  *0xc0(%rax)
   180004248:	48 8b f8             	mov    %rax,%rdi
   18000424b:	49 3b c7             	cmp    %r15,%rax
   18000424e:	75 07                	jne    0x180004257
   180004250:	ff c3                	inc    %ebx
   180004252:	83 fb 05             	cmp    $0x5,%ebx
   180004255:	72 97                	jb     0x1800041ee
   180004257:	48 8b c7             	mov    %rdi,%rax
   18000425a:	4c 8d 9c 24 b0 00 00 	lea    0xb0(%rsp),%r11
   180004261:	00 
   180004262:	49 8b 5b 20          	mov    0x20(%r11),%rbx
   180004266:	49 8b 73 28          	mov    0x28(%r11),%rsi
   18000426a:	49 8b 7b 30          	mov    0x30(%r11),%rdi
   18000426e:	49 8b e3             	mov    %r11,%rsp
   180004271:	41 5f                	pop    %r15
   180004273:	41 5e                	pop    %r14
   180004275:	5d                   	pop    %rbp
   180004276:	c3                   	retq   
   180004277:	cc                   	int3   
   180004278:	44 89 4c 24 20       	mov    %r9d,0x20(%rsp)
   18000427d:	53                   	push   %rbx
   18000427e:	56                   	push   %rsi
   18000427f:	57                   	push   %rdi
   180004280:	41 55                	push   %r13
   180004282:	41 56                	push   %r14
   180004284:	41 57                	push   %r15
   180004286:	48 81 ec d8 00 00 00 	sub    $0xd8,%rsp
   18000428d:	49 8b f0             	mov    %r8,%rsi
   180004290:	44 8b f2             	mov    %edx,%r14d
   180004293:	40 8a f9             	mov    %cl,%dil
   180004296:	48 83 4c 24 20 ff    	orq    $0xffffffffffffffff,0x20(%rsp)
   18000429c:	45 33 ff             	xor    %r15d,%r15d
   18000429f:	44 89 7c 24 48       	mov    %r15d,0x48(%rsp)
   1800042a4:	4c 89 7c 24 40       	mov    %r15,0x40(%rsp)
   1800042a9:	48 81 f6 41 51 a9 12 	xor    $0x12a95141,%rsi
   1800042b0:	80 f9 0b             	cmp    $0xb,%cl
   1800042b3:	0f 87 18 03 00 00    	ja     0x1800045d1
   1800042b9:	e8 56 f7 ff ff       	callq  0x180003a14
   1800042be:	85 c0                	test   %eax,%eax
   1800042c0:	0f 84 0b 03 00 00    	je     0x1800045d1
   1800042c6:	40 8a cf             	mov    %dil,%cl
   1800042c9:	e8 32 fd ff ff       	callq  0x180004000
   1800042ce:	85 c0                	test   %eax,%eax
   1800042d0:	0f 84 fb 02 00 00    	je     0x1800045d1
   1800042d6:	40 8a cf             	mov    %dil,%cl
   1800042d9:	e8 6e fe ff ff       	callq  0x18000414c
   1800042de:	48 89 44 24 20       	mov    %rax,0x20(%rsp)
   1800042e3:	48 83 f8 ff          	cmp    $0xffffffffffffffff,%rax
   1800042e7:	0f 84 e4 02 00 00    	je     0x1800045d1
   1800042ed:	48 8d 9c 24 30 01 00 	lea    0x130(%rsp),%rbx
   1800042f4:	00 
   1800042f5:	44 88 7c 24 30       	mov    %r15b,0x30(%rsp)
   1800042fa:	41 b8 01 00 00 00    	mov    $0x1,%r8d
   180004300:	48 8d 54 24 30       	lea    0x30(%rsp),%rdx
   180004305:	48 8d 4c 24 20       	lea    0x20(%rsp),%rcx
   18000430a:	e8 91 fb ff ff       	callq  0x180003ea0
   18000430f:	c7 84 24 a0 00 00 00 	movl   $0x1,0xa0(%rsp)
   180004316:	01 00 00 00 
   18000431a:	41 bd 04 00 00 00    	mov    $0x4,%r13d
   180004320:	45 8b c5             	mov    %r13d,%r8d
   180004323:	48 8d 94 24 a0 00 00 	lea    0xa0(%rsp),%rdx
   18000432a:	00 
   18000432b:	48 8d 4c 24 20       	lea    0x20(%rsp),%rcx
   180004330:	e8 6b fb ff ff       	callq  0x180003ea0
   180004335:	c6 44 24 38 01       	movb   $0x1,0x38(%rsp)
   18000433a:	45 8d 45 fd          	lea    -0x3(%r13),%r8d
   18000433e:	48 8d 54 24 38       	lea    0x38(%rsp),%rdx
   180004343:	48 8d 4c 24 20       	lea    0x20(%rsp),%rcx
   180004348:	e8 53 fb ff ff       	callq  0x180003ea0
   18000434d:	ff 15 d1 30 00 00    	callq  *0x30d1(%rip)        # 0x180007424
   180004353:	89 84 24 90 00 00 00 	mov    %eax,0x90(%rsp)
   18000435a:	45 8b c5             	mov    %r13d,%r8d
   18000435d:	48 8d 94 24 90 00 00 	lea    0x90(%rsp),%rdx
   180004364:	00 
   180004365:	48 8d 4c 24 20       	lea    0x20(%rsp),%rcx
   18000436a:	e8 31 fb ff ff       	callq  0x180003ea0
   18000436f:	ff 15 ae 31 00 00    	callq  *0x31ae(%rip)        # 0x180007523
   180004375:	89 44 24 68          	mov    %eax,0x68(%rsp)
   180004379:	45 8b c5             	mov    %r13d,%r8d
   18000437c:	48 8d 54 24 68       	lea    0x68(%rsp),%rdx
   180004381:	48 8d 4c 24 20       	lea    0x20(%rsp),%rcx
   180004386:	e8 15 fb ff ff       	callq  0x180003ea0
   18000438b:	8b 84 24 28 01 00 00 	mov    0x128(%rsp),%eax
   180004392:	35 41 51 a9 12       	xor    $0x12a95141,%eax
   180004397:	89 44 24 78          	mov    %eax,0x78(%rsp)
   18000439b:	45 8b c5             	mov    %r13d,%r8d
   18000439e:	48 8d 54 24 78       	lea    0x78(%rsp),%rdx
   1800043a3:	48 8d 4c 24 20       	lea    0x20(%rsp),%rcx
   1800043a8:	e8 f3 fa ff ff       	callq  0x180003ea0
   1800043ad:	44 89 bc 24 a8 00 00 	mov    %r15d,0xa8(%rsp)
   1800043b4:	00 
   1800043b5:	45 8b c5             	mov    %r13d,%r8d
   1800043b8:	48 8d 94 24 a8 00 00 	lea    0xa8(%rsp),%rdx
   1800043bf:	00 
   1800043c0:	48 8d 4c 24 20       	lea    0x20(%rsp),%rcx
   1800043c5:	e8 d6 fa ff ff       	callq  0x180003ea0
   1800043ca:	41 81 f6 41 51 a9 12 	xor    $0x12a95141,%r14d
   1800043d1:	44 89 74 24 70       	mov    %r14d,0x70(%rsp)
   1800043d6:	45 8b c5             	mov    %r13d,%r8d
   1800043d9:	48 8d 54 24 70       	lea    0x70(%rsp),%rdx
   1800043de:	48 8d 4c 24 20       	lea    0x20(%rsp),%rcx
   1800043e3:	e8 b8 fa ff ff       	callq  0x180003ea0
   1800043e8:	40 88 7c 24 28       	mov    %dil,0x28(%rsp)
   1800043ed:	45 8d 45 fd          	lea    -0x3(%r13),%r8d
   1800043f1:	48 8d 54 24 28       	lea    0x28(%rsp),%rdx
   1800043f6:	48 8d 4c 24 20       	lea    0x20(%rsp),%rcx
   1800043fb:	e8 a0 fa ff ff       	callq  0x180003ea0
   180004400:	48 8b ce             	mov    %rsi,%rcx
   180004403:	41 8b d7             	mov    %r15d,%edx
   180004406:	89 54 24 48          	mov    %edx,0x48(%rsp)
   18000440a:	48 89 8c 24 88 00 00 	mov    %rcx,0x88(%rsp)
   180004411:	00 
   180004412:	48 85 c9             	test   %rcx,%rcx
   180004415:	74 0f                	je     0x180004426
   180004417:	8b c1                	mov    %ecx,%eax
   180004419:	83 e0 0f             	and    $0xf,%eax
   18000441c:	74 08                	je     0x180004426
   18000441e:	48 c1 e9 04          	shr    $0x4,%rcx
   180004422:	ff c2                	inc    %edx
   180004424:	eb e0                	jmp    0x180004406
   180004426:	89 54 24 58          	mov    %edx,0x58(%rsp)
   18000442a:	45 8b c5             	mov    %r13d,%r8d
   18000442d:	48 8d 54 24 58       	lea    0x58(%rsp),%rdx
   180004432:	48 8d 4c 24 20       	lea    0x20(%rsp),%rcx
   180004437:	e8 64 fa ff ff       	callq  0x180003ea0
   18000443c:	41 be 08 00 00 00    	mov    $0x8,%r14d
   180004442:	48 89 b4 24 88 00 00 	mov    %rsi,0x88(%rsp)
   180004449:	00 
   18000444a:	48 85 f6             	test   %rsi,%rsi
   18000444d:	0f 84 61 01 00 00    	je     0x1800045b4
   180004453:	8b fe                	mov    %esi,%edi
   180004455:	83 e7 0f             	and    $0xf,%edi
   180004458:	0f 84 56 01 00 00    	je     0x1800045b4
   18000445e:	89 bc 24 80 00 00 00 	mov    %edi,0x80(%rsp)
   180004465:	45 8b c5             	mov    %r13d,%r8d
   180004468:	48 8d 94 24 80 00 00 	lea    0x80(%rsp),%rdx
   18000446f:	00 
   180004470:	48 8d 4c 24 20       	lea    0x20(%rsp),%rcx
   180004475:	e8 26 fa ff ff       	callq  0x180003ea0
   18000447a:	83 ff 01             	cmp    $0x1,%edi
   18000447d:	0f 84 db 00 00 00    	je     0x18000455e
   180004483:	83 ff 02             	cmp    $0x2,%edi
   180004486:	0f 84 b9 00 00 00    	je     0x180004545
   18000448c:	83 ff 03             	cmp    $0x3,%edi
   18000448f:	74 6c                	je     0x1800044fd
   180004491:	41 3b fd             	cmp    %r13d,%edi
   180004494:	74 43                	je     0x1800044d9
   180004496:	83 ff 05             	cmp    $0x5,%edi
   180004499:	0f 84 a6 00 00 00    	je     0x180004545
   18000449f:	83 ff 06             	cmp    $0x6,%edi
   1800044a2:	74 11                	je     0x1800044b5
   1800044a4:	8d 47 f9             	lea    -0x7(%rdi),%eax
   1800044a7:	83 f8 01             	cmp    $0x1,%eax
   1800044aa:	0f 86 95 00 00 00    	jbe    0x180004545
   1800044b0:	e9 f6 00 00 00       	jmpq   0x1800045ab
   1800044b5:	49 03 de             	add    %r14,%rbx
   1800044b8:	48 89 5c 24 40       	mov    %rbx,0x40(%rsp)
   1800044bd:	48 8b 43 f8          	mov    -0x8(%rbx),%rax
   1800044c1:	48 89 84 24 b0 00 00 	mov    %rax,0xb0(%rsp)
   1800044c8:	00 
   1800044c9:	45 8b c6             	mov    %r14d,%r8d
   1800044cc:	48 8d 94 24 b0 00 00 	lea    0xb0(%rsp),%rdx
   1800044d3:	00 
   1800044d4:	e9 c8 00 00 00       	jmpq   0x1800045a1
   1800044d9:	49 03 de             	add    %r14,%rbx
   1800044dc:	48 89 5c 24 40       	mov    %rbx,0x40(%rsp)
   1800044e1:	48 8b 43 f8          	mov    -0x8(%rbx),%rax
   1800044e5:	48 89 84 24 c0 00 00 	mov    %rax,0xc0(%rsp)
   1800044ec:	00 
   1800044ed:	45 8b c6             	mov    %r14d,%r8d
   1800044f0:	48 8d 94 24 c0 00 00 	lea    0xc0(%rsp),%rdx
   1800044f7:	00 
   1800044f8:	e9 a4 00 00 00       	jmpq   0x1800045a1
   1800044fd:	49 03 de             	add    %r14,%rbx
   180004500:	48 89 5c 24 40       	mov    %rbx,0x40(%rsp)
   180004505:	48 8b 53 f8          	mov    -0x8(%rbx),%rdx
   180004509:	48 8b c2             	mov    %rdx,%rax
   18000450c:	48 89 94 24 b8 00 00 	mov    %rdx,0xb8(%rsp)
   180004513:	00 
   180004514:	45 8b c7             	mov    %r15d,%r8d
   180004517:	48 85 d2             	test   %rdx,%rdx
   18000451a:	0f 84 81 00 00 00    	je     0x1800045a1
   180004520:	44 89 bc 24 98 00 00 	mov    %r15d,0x98(%rsp)
   180004527:	00 
   180004528:	44 38 38             	cmp    %r15b,(%rax)
   18000452b:	74 74                	je     0x1800045a1
   18000452d:	48 ff c0             	inc    %rax
   180004530:	48 89 84 24 b8 00 00 	mov    %rax,0xb8(%rsp)
   180004537:	00 
   180004538:	41 ff c0             	inc    %r8d
   18000453b:	44 89 84 24 98 00 00 	mov    %r8d,0x98(%rsp)
   180004542:	00 
   180004543:	eb e3                	jmp    0x180004528
   180004545:	49 03 de             	add    %r14,%rbx
   180004548:	48 89 5c 24 40       	mov    %rbx,0x40(%rsp)
   18000454d:	8b 43 f8             	mov    -0x8(%rbx),%eax
   180004550:	89 44 24 50          	mov    %eax,0x50(%rsp)
   180004554:	45 8b c5             	mov    %r13d,%r8d
   180004557:	48 8d 54 24 50       	lea    0x50(%rsp),%rdx
   18000455c:	eb 43                	jmp    0x1800045a1
   18000455e:	49 03 de             	add    %r14,%rbx
   180004561:	48 89 5c 24 40       	mov    %rbx,0x40(%rsp)
   180004566:	48 8b 53 f8          	mov    -0x8(%rbx),%rdx
   18000456a:	48 8b c2             	mov    %rdx,%rax
   18000456d:	48 89 94 24 c8 00 00 	mov    %rdx,0xc8(%rsp)
   180004574:	00 
   180004575:	45 8b c7             	mov    %r15d,%r8d
   180004578:	48 85 d2             	test   %rdx,%rdx
   18000457b:	74 21                	je     0x18000459e
   18000457d:	44 89 7c 24 60       	mov    %r15d,0x60(%rsp)
   180004582:	66 44 39 38          	cmp    %r15w,(%rax)
   180004586:	74 16                	je     0x18000459e
   180004588:	48 83 c0 02          	add    $0x2,%rax
   18000458c:	48 89 84 24 c8 00 00 	mov    %rax,0xc8(%rsp)
   180004593:	00 
   180004594:	41 ff c0             	inc    %r8d
   180004597:	44 89 44 24 60       	mov    %r8d,0x60(%rsp)
   18000459c:	eb e4                	jmp    0x180004582
   18000459e:	45 03 c0             	add    %r8d,%r8d
   1800045a1:	48 8d 4c 24 20       	lea    0x20(%rsp),%rcx
   1800045a6:	e8 45 f9 ff ff       	callq  0x180003ef0
   1800045ab:	48 c1 ee 04          	shr    $0x4,%rsi
   1800045af:	e9 8e fe ff ff       	jmpq   0x180004442
   1800045b4:	48 8b 4c 24 20       	mov    0x20(%rsp),%rcx
   1800045b9:	48 83 f9 ff          	cmp    $0xffffffffffffffff,%rcx
   1800045bd:	74 0b                	je     0x1800045ca
   1800045bf:	e8 fc f2 ff ff       	callq  0x1800038c0
   1800045c4:	ff 90 98 00 00 00    	callq  *0x98(%rax)
   1800045ca:	4c 89 7c 24 40       	mov    %r15,0x40(%rsp)
   1800045cf:	eb 00                	jmp    0x1800045d1
   1800045d1:	48 81 c4 d8 00 00 00 	add    $0xd8,%rsp
   1800045d8:	41 5f                	pop    %r15
   1800045da:	41 5e                	pop    %r14
   1800045dc:	41 5d                	pop    %r13
   1800045de:	5f                   	pop    %rdi
   1800045df:	5e                   	pop    %rsi
   1800045e0:	5b                   	pop    %rbx
   1800045e1:	c3                   	retq   
   1800045e2:	cc                   	int3   
   1800045e3:	cc                   	int3   
   1800045e4:	40 53                	rex push %rbx
   1800045e6:	48 81 ec 30 02 00 00 	sub    $0x230,%rsp
   1800045ed:	45 33 c9             	xor    %r9d,%r9d
   1800045f0:	8b da                	mov    %edx,%ebx
   1800045f2:	4c 8d 44 24 20       	lea    0x20(%rsp),%r8
   1800045f7:	48 85 c9             	test   %rcx,%rcx
   1800045fa:	75 08                	jne    0x180004604
   1800045fc:	66 44 89 4c 24 20    	mov    %r9w,0x20(%rsp)
   180004602:	eb 43                	jmp    0x180004647
   180004604:	8b 01                	mov    (%rcx),%eax
   180004606:	41 ba f1 86 f1 86    	mov    $0x86f186f1,%r10d
   18000460c:	41 33 c2             	xor    %r10d,%eax
   18000460f:	89 44 24 20          	mov    %eax,0x20(%rsp)
   180004613:	66 41 3b c1          	cmp    %r9w,%ax
   180004617:	74 2e                	je     0x180004647
   180004619:	48 8d 54 24 22       	lea    0x22(%rsp),%rdx
   18000461e:	48 8d 44 24 20       	lea    0x20(%rsp),%rax
   180004623:	48 2b d1             	sub    %rcx,%rdx
   180004626:	48 2b c8             	sub    %rax,%rcx
   180004629:	48 8d 04 0a          	lea    (%rdx,%rcx,1),%rax
   18000462d:	66 46 39 0c 00       	cmp    %r9w,(%rax,%r8,1)
   180004632:	74 13                	je     0x180004647
   180004634:	49 83 c0 04          	add    $0x4,%r8
   180004638:	42 8b 04 01          	mov    (%rcx,%r8,1),%eax
   18000463c:	41 33 c2             	xor    %r10d,%eax
   18000463f:	41 89 00             	mov    %eax,(%r8)
   180004642:	66 85 c0             	test   %ax,%ax
   180004645:	75 e2                	jne    0x180004629
   180004647:	e8 74 f2 ff ff       	callq  0x1800038c0
   18000464c:	48 8d 4c 24 20       	lea    0x20(%rsp),%rcx
   180004651:	ff 90 00 01 00 00    	callq  *0x100(%rax)
   180004657:	8b d3                	mov    %ebx,%edx
   180004659:	48 8b c8             	mov    %rax,%rcx
   18000465c:	e8 0b 00 00 00       	callq  0x18000466c
   180004661:	48 81 c4 30 02 00 00 	add    $0x230,%rsp
   180004668:	5b                   	pop    %rbx
   180004669:	c3                   	retq   
   18000466a:	cc                   	int3   
   18000466b:	cc                   	int3   
   18000466c:	89 54 24 10          	mov    %edx,0x10(%rsp)
   180004670:	55                   	push   %rbp
   180004671:	53                   	push   %rbx
   180004672:	56                   	push   %rsi
   180004673:	57                   	push   %rdi
   180004674:	48 8b ec             	mov    %rsp,%rbp
   180004677:	48 83 ec 48          	sub    $0x48,%rsp
   18000467b:	4c 8b c1             	mov    %rcx,%r8
   18000467e:	33 c9                	xor    %ecx,%ecx
   180004680:	4d 85 c0             	test   %r8,%r8
   180004683:	0f 84 db 00 00 00    	je     0x180004764
   180004689:	41 0f b7 00          	movzwl (%r8),%eax
   18000468d:	41 ba ab 4f 5e cd    	mov    $0xcd5e4fab,%r10d
   180004693:	41 33 c2             	xor    %r10d,%eax
   180004696:	3d e6 15 5e cd       	cmp    $0xcd5e15e6,%eax
   18000469b:	0f 85 c3 00 00 00    	jne    0x180004764
   1800046a1:	4d 63 48 3c          	movslq 0x3c(%r8),%r9
   1800046a5:	4d 03 c8             	add    %r8,%r9
   1800046a8:	4c 89 4d 40          	mov    %r9,0x40(%rbp)
   1800046ac:	41 8b 01             	mov    (%r9),%eax
   1800046af:	41 8b 91 88 00 00 00 	mov    0x88(%r9),%edx
   1800046b6:	41 33 c2             	xor    %r10d,%eax
   1800046b9:	49 03 d0             	add    %r8,%rdx
   1800046bc:	3d fb 0a 5e cd       	cmp    $0xcd5e0afb,%eax
   1800046c1:	0f 85 9d 00 00 00    	jne    0x180004764
   1800046c7:	49 3b d0             	cmp    %r8,%rdx
   1800046ca:	0f 84 94 00 00 00    	je     0x180004764
   1800046d0:	8b 42 1c             	mov    0x1c(%rdx),%eax
   1800046d3:	44 8b 52 20          	mov    0x20(%rdx),%r10d
   1800046d7:	8b 7a 24             	mov    0x24(%rdx),%edi
   1800046da:	49 03 c0             	add    %r8,%rax
   1800046dd:	4d 03 d0             	add    %r8,%r10
   1800046e0:	49 03 f8             	add    %r8,%rdi
   1800046e3:	48 89 45 d8          	mov    %rax,-0x28(%rbp)
   1800046e7:	44 8b d9             	mov    %ecx,%r11d
   1800046ea:	39 4a 18             	cmp    %ecx,0x18(%rdx)
   1800046ed:	76 75                	jbe    0x180004764
   1800046ef:	b8 ff ff 3f 00       	mov    $0x3fffff,%eax
   1800046f4:	be c6 4f f8 67       	mov    $0x67f84fc6,%esi
   1800046f9:	41 8b 1a             	mov    (%r10),%ebx
   1800046fc:	4c 8b 4d 40          	mov    0x40(%rbp),%r9
   180004700:	8b c8                	mov    %eax,%ecx
   180004702:	49 03 d8             	add    %r8,%rbx
   180004705:	89 45 38             	mov    %eax,0x38(%rbp)
   180004708:	8b c6                	mov    %esi,%eax
   18000470a:	80 3b 00             	cmpb   $0x0,(%rbx)
   18000470d:	89 45 28             	mov    %eax,0x28(%rbp)
   180004710:	74 3b                	je     0x18000474d
   180004712:	44 8a 0b             	mov    (%rbx),%r9b
   180004715:	85 c9                	test   %ecx,%ecx
   180004717:	7e 30                	jle    0x180004749
   180004719:	41 0f b6 c1          	movzbl %r9b,%eax
   18000471d:	48 ff c3             	inc    %rbx
   180004720:	44 8a 0b             	mov    (%rbx),%r9b
   180004723:	8b c8                	mov    %eax,%ecx
   180004725:	83 e0 07             	and    $0x7,%eax
   180004728:	c1 e0 09             	shl    $0x9,%eax
   18000472b:	0f af c9             	imul   %ecx,%ecx
   18000472e:	05 27 0c a2 08       	add    $0x8a20c27,%eax
   180004733:	0f af 45 28          	imul   0x28(%rbp),%eax
   180004737:	33 c1                	xor    %ecx,%eax
   180004739:	8b 4d 38             	mov    0x38(%rbp),%ecx
   18000473c:	ff c9                	dec    %ecx
   18000473e:	89 45 28             	mov    %eax,0x28(%rbp)
   180004741:	89 4d 38             	mov    %ecx,0x38(%rbp)
   180004744:	45 84 c9             	test   %r9b,%r9b
   180004747:	75 cc                	jne    0x180004715
   180004749:	4c 8b 4d 40          	mov    0x40(%rbp),%r9
   18000474d:	39 45 30             	cmp    %eax,0x30(%rbp)
   180004750:	74 1d                	je     0x18000476f
   180004752:	41 ff c3             	inc    %r11d
   180004755:	49 83 c2 04          	add    $0x4,%r10
   180004759:	b8 ff ff 3f 00       	mov    $0x3fffff,%eax
   18000475e:	44 3b 5a 18          	cmp    0x18(%rdx),%r11d
   180004762:	72 95                	jb     0x1800046f9
   180004764:	33 c0                	xor    %eax,%eax
   180004766:	48 83 c4 48          	add    $0x48,%rsp
   18000476a:	5f                   	pop    %rdi
   18000476b:	5e                   	pop    %rsi
   18000476c:	5b                   	pop    %rbx
   18000476d:	5d                   	pop    %rbp
   18000476e:	c3                   	retq   
   18000476f:	41 8b c3             	mov    %r11d,%eax
   180004772:	0f b7 0c 47          	movzwl (%rdi,%rax,2),%ecx
   180004776:	48 8b 45 d8          	mov    -0x28(%rbp),%rax
   18000477a:	8b 1c 88             	mov    (%rax,%rcx,4),%ebx
   18000477d:	49 03 d8             	add    %r8,%rbx
   180004780:	48 3b da             	cmp    %rdx,%rbx
   180004783:	0f 82 45 01 00 00    	jb     0x1800048ce
   180004789:	41 8b 81 8c 00 00 00 	mov    0x8c(%r9),%eax
   180004790:	48 03 c2             	add    %rdx,%rax
   180004793:	48 3b d8             	cmp    %rax,%rbx
   180004796:	0f 83 32 01 00 00    	jae    0x1800048ce
   18000479c:	8a 03                	mov    (%rbx),%al
   18000479e:	45 33 db             	xor    %r11d,%r11d
   1800047a1:	48 8b cb             	mov    %rbx,%rcx
   1800047a4:	41 8b fb             	mov    %r11d,%edi
   1800047a7:	84 c0                	test   %al,%al
   1800047a9:	74 b9                	je     0x180004764
   1800047ab:	3c 2e                	cmp    $0x2e,%al
   1800047ad:	75 04                	jne    0x1800047b3
   1800047af:	8b f9                	mov    %ecx,%edi
   1800047b1:	2b fb                	sub    %ebx,%edi
   1800047b3:	48 ff c1             	inc    %rcx
   1800047b6:	8a 01                	mov    (%rcx),%al
   1800047b8:	84 c0                	test   %al,%al
   1800047ba:	75 ef                	jne    0x1800047ab
   1800047bc:	85 ff                	test   %edi,%edi
   1800047be:	7e a4                	jle    0x180004764
   1800047c0:	44 8b d7             	mov    %edi,%r10d
   1800047c3:	4c 8b cb             	mov    %rbx,%r9
   1800047c6:	44 8b c6             	mov    %esi,%r8d
   1800047c9:	45 85 d2             	test   %r10d,%r10d
   1800047cc:	7e 36                	jle    0x180004804
   1800047ce:	41 0f b6 09          	movzbl (%r9),%ecx
   1800047d2:	8d 41 bf             	lea    -0x41(%rcx),%eax
   1800047d5:	66 83 f8 19          	cmp    $0x19,%ax
   1800047d9:	77 04                	ja     0x1800047df
   1800047db:	66 83 c1 20          	add    $0x20,%cx
   1800047df:	0f b7 d1             	movzwl %cx,%edx
   1800047e2:	49 ff c1             	inc    %r9
   1800047e5:	41 ff ca             	dec    %r10d
   1800047e8:	8b c2                	mov    %edx,%eax
   1800047ea:	83 e0 07             	and    $0x7,%eax
   1800047ed:	c1 e0 09             	shl    $0x9,%eax
   1800047f0:	05 27 0c a2 08       	add    $0x8a20c27,%eax
   1800047f5:	0f af d2             	imul   %edx,%edx
   1800047f8:	44 0f af c0          	imul   %eax,%r8d
   1800047fc:	44 33 c2             	xor    %edx,%r8d
   1800047ff:	45 38 19             	cmp    %r11b,(%r9)
   180004802:	75 c5                	jne    0x1800047c9
   180004804:	41 8b c8             	mov    %r8d,%ecx
   180004807:	e8 bc f0 ff ff       	callq  0x1800038c8
   18000480c:	4c 8b c0             	mov    %rax,%r8
   18000480f:	48 89 45 28          	mov    %rax,0x28(%rbp)
   180004813:	48 85 c0             	test   %rax,%rax
   180004816:	75 66                	jne    0x18000487e
   180004818:	48 89 5d e0          	mov    %rbx,-0x20(%rbp)
   18000481c:	66 89 7d d8          	mov    %di,-0x28(%rbp)
   180004820:	66 89 7d da          	mov    %di,-0x26(%rbp)
   180004824:	e8 97 f0 ff ff       	callq  0x1800038c0
   180004829:	48 8d 55 d8          	lea    -0x28(%rbp),%rdx
   18000482d:	48 8d 4d e8          	lea    -0x18(%rbp),%rcx
   180004831:	41 b0 01             	mov    $0x1,%r8b
   180004834:	48 89 45 38          	mov    %rax,0x38(%rbp)
   180004838:	ff 50 18             	callq  *0x18(%rax)
   18000483b:	85 c0                	test   %eax,%eax
   18000483d:	0f 85 21 ff ff ff    	jne    0x180004764
   180004843:	48 8b 45 38          	mov    0x38(%rbp),%rax
   180004847:	4c 8d 4d 28          	lea    0x28(%rbp),%r9
   18000484b:	4c 8d 45 e8          	lea    -0x18(%rbp),%r8
   18000484f:	33 d2                	xor    %edx,%edx
   180004851:	33 c9                	xor    %ecx,%ecx
   180004853:	ff 50 60             	callq  *0x60(%rax)
   180004856:	48 8b 4d 28          	mov    0x28(%rbp),%rcx
   18000485a:	33 d2                	xor    %edx,%edx
   18000485c:	85 c0                	test   %eax,%eax
   18000485e:	48 8b 45 38          	mov    0x38(%rbp),%rax
   180004862:	48 0f 45 ca          	cmovne %rdx,%rcx
   180004866:	48 89 4d 28          	mov    %rcx,0x28(%rbp)
   18000486a:	48 8d 4d e8          	lea    -0x18(%rbp),%rcx
   18000486e:	ff 50 40             	callq  *0x40(%rax)
   180004871:	4c 8b 45 28          	mov    0x28(%rbp),%r8
   180004875:	4d 85 c0             	test   %r8,%r8
   180004878:	0f 84 e6 fe ff ff    	je     0x180004764
   18000487e:	48 63 c7             	movslq %edi,%rax
   180004881:	48 8d 53 01          	lea    0x1(%rbx),%rdx
   180004885:	48 03 d0             	add    %rax,%rdx
   180004888:	8a 02                	mov    (%rdx),%al
   18000488a:	84 c0                	test   %al,%al
   18000488c:	74 31                	je     0x1800048bf
   18000488e:	41 b9 ff ff 3f 00    	mov    $0x3fffff,%r9d
   180004894:	45 85 c9             	test   %r9d,%r9d
   180004897:	7e 26                	jle    0x1800048bf
   180004899:	0f b6 c0             	movzbl %al,%eax
   18000489c:	48 ff c2             	inc    %rdx
   18000489f:	41 ff c9             	dec    %r9d
   1800048a2:	8b c8                	mov    %eax,%ecx
   1800048a4:	83 e0 07             	and    $0x7,%eax
   1800048a7:	c1 e0 09             	shl    $0x9,%eax
   1800048aa:	05 27 0c a2 08       	add    $0x8a20c27,%eax
   1800048af:	0f af c9             	imul   %ecx,%ecx
   1800048b2:	0f af c6             	imul   %esi,%eax
   1800048b5:	8b f0                	mov    %eax,%esi
   1800048b7:	8a 02                	mov    (%rdx),%al
   1800048b9:	33 f1                	xor    %ecx,%esi
   1800048bb:	84 c0                	test   %al,%al
   1800048bd:	75 d5                	jne    0x180004894
   1800048bf:	8b d6                	mov    %esi,%edx
   1800048c1:	49 8b c8             	mov    %r8,%rcx
   1800048c4:	e8 a3 fd ff ff       	callq  0x18000466c
   1800048c9:	e9 98 fe ff ff       	jmpq   0x180004766
   1800048ce:	48 8b c3             	mov    %rbx,%rax
   1800048d1:	e9 90 fe ff ff       	jmpq   0x180004766
   1800048d6:	cc                   	int3   
   1800048d7:	cc                   	int3   
   1800048d8:	48 83 ec 38          	sub    $0x38,%rsp
   1800048dc:	83 fa 01             	cmp    $0x1,%edx
   1800048df:	75 25                	jne    0x180004906
   1800048e1:	ff 15 3d 2b 00 00    	callq  *0x2b3d(%rip)        # 0x180007424
   1800048e7:	ba f2 c9 dd 2d       	mov    $0x2dddc9f2,%edx
   1800048ec:	41 b9 c9 86 63 ae    	mov    $0xae6386c9,%r9d
   1800048f2:	41 b8 43 51 a9 12    	mov    $0x12a95143,%r8d
   1800048f8:	b9 02 00 00 00       	mov    $0x2,%ecx
   1800048fd:	89 44 24 20          	mov    %eax,0x20(%rsp)
   180004901:	e8 72 f9 ff ff       	callq  0x180004278
   180004906:	b8 01 00 00 00       	mov    $0x1,%eax
   18000490b:	48 83 c4 38          	add    $0x38,%rsp
   18000490f:	c3                   	retq   
   180004910:	48 83 ec 38          	sub    $0x38,%rsp
   180004914:	ff c9                	dec    %ecx
   180004916:	75 5a                	jne    0x180004972
   180004918:	21 0d e2 35 00 00    	and    %ecx,0x35e2(%rip)        # 0x180007f00
   18000491e:	c7 05 d4 35 00 00 20 	movl   $0x20,0x35d4(%rip)        # 0x180007efc
   180004925:	00 00 00 
   180004928:	21 0d d6 35 00 00    	and    %ecx,0x35d6(%rip)        # 0x180007f04
   18000492e:	c7 05 d4 35 00 00 04 	movl   $0x4,0x35d4(%rip)        # 0x180007f0c
   180004935:	00 00 00 
   180004938:	48 8d 15 b9 35 00 00 	lea    0x35b9(%rip),%rdx        # 0x180007ef8
   18000493f:	48 8b 0d aa 35 00 00 	mov    0x35aa(%rip),%rcx        # 0x180007ef0
   180004946:	ff 15 c4 16 00 00    	callq  *0x16c4(%rip)        # 0x180006010
   18000494c:	85 c0                	test   %eax,%eax
   18000494e:	75 22                	jne    0x180004972
   180004950:	ff 15 67 2a 00 00    	callq  *0x2a67(%rip)        # 0x1800073bd
   180004956:	89 44 24 20          	mov    %eax,0x20(%rsp)
   18000495a:	ba f2 cf 51 93       	mov    $0x9351cff2,%edx
   18000495f:	33 c9                	xor    %ecx,%ecx
   180004961:	41 b9 c9 86 63 ae    	mov    $0xae6386c9,%r9d
   180004967:	41 b8 43 51 a9 12    	mov    $0x12a95143,%r8d
   18000496d:	e8 06 f9 ff ff       	callq  0x180004278
   180004972:	eb 19                	jmp    0x18000498d
   180004974:	ba 73 e2 0d e4       	mov    $0xe40de273,%edx
   180004979:	33 c9                	xor    %ecx,%ecx
   18000497b:	41 b9 c9 86 63 ae    	mov    $0xae6386c9,%r9d
   180004981:	41 b8 41 51 a9 12    	mov    $0x12a95141,%r8d
   180004987:	e8 ec f8 ff ff       	callq  0x180004278
   18000498c:	90                   	nop
   18000498d:	48 83 c4 38          	add    $0x38,%rsp
   180004991:	c3                   	retq   
   180004992:	cc                   	int3   
   180004993:	cc                   	int3   
   180004994:	48 89 5c 24 08       	mov    %rbx,0x8(%rsp)
   180004999:	56                   	push   %rsi
   18000499a:	48 83 ec 40          	sub    $0x40,%rsp
   18000499e:	33 db                	xor    %ebx,%ebx
   1800049a0:	c7 05 56 35 00 00 01 	movl   $0x1,0x3556(%rip)        # 0x180007f00
   1800049a7:	00 00 00 
   1800049aa:	c7 05 48 35 00 00 04 	movl   $0x4,0x3548(%rip)        # 0x180007efc
   1800049b1:	00 00 00 
   1800049b4:	21 1d 4a 35 00 00    	and    %ebx,0x354a(%rip)        # 0x180007f04
   1800049ba:	21 1d 4c 35 00 00    	and    %ebx,0x354c(%rip)        # 0x180007f0c
   1800049c0:	be c9 86 63 ae       	mov    $0xae6386c9,%esi
   1800049c5:	44 8b ce             	mov    %esi,%r9d
   1800049c8:	ba 5d af 14 a9       	mov    $0xa914af5d,%edx
   1800049cd:	8d 4b 02             	lea    0x2(%rbx),%ecx
   1800049d0:	41 b8 41 51 a9 12    	mov    $0x12a95141,%r8d
   1800049d6:	e8 9d f8 ff ff       	callq  0x180004278
   1800049db:	48 8d 15 2e ff ff ff 	lea    -0xd2(%rip),%rdx        # 0x180004910
   1800049e2:	48 8d 0d 97 17 00 00 	lea    0x1797(%rip),%rcx        # 0x180006180
   1800049e9:	ff 15 19 16 00 00    	callq  *0x1619(%rip)        # 0x180006008
   1800049ef:	48 89 05 fa 34 00 00 	mov    %rax,0x34fa(%rip)        # 0x180007ef0
   1800049f6:	48 85 c0             	test   %rax,%rax
   1800049f9:	75 24                	jne    0x180004a1f
   1800049fb:	ff 15 bc 29 00 00    	callq  *0x29bc(%rip)        # 0x1800073bd
   180004a01:	ba 07 10 ac 12       	mov    $0x12ac1007,%edx
   180004a06:	44 8b ce             	mov    %esi,%r9d
   180004a09:	89 44 24 20          	mov    %eax,0x20(%rsp)
   180004a0d:	33 c9                	xor    %ecx,%ecx
   180004a0f:	41 b8 43 51 a9 12    	mov    $0x12a95143,%r8d
   180004a15:	e8 5e f8 ff ff       	callq  0x180004278
   180004a1a:	e9 eb 00 00 00       	jmpq   0x180004b0a
   180004a1f:	48 8d 15 d2 34 00 00 	lea    0x34d2(%rip),%rdx        # 0x180007ef8
   180004a26:	48 8b c8             	mov    %rax,%rcx
   180004a29:	ff 15 e1 15 00 00    	callq  *0x15e1(%rip)        # 0x180006010
   180004a2f:	85 c0                	test   %eax,%eax
   180004a31:	75 0d                	jne    0x180004a40
   180004a33:	ff 15 84 29 00 00    	callq  *0x2984(%rip)        # 0x1800073bd
   180004a39:	ba 67 14 f0 90       	mov    $0x90f01467,%edx
   180004a3e:	eb c6                	jmp    0x180004a06
   180004a40:	83 25 b9 34 00 00 00 	andl   $0x0,0x34b9(%rip)        # 0x180007f00
   180004a47:	c7 05 ab 34 00 00 01 	movl   $0x1,0x34ab(%rip)        # 0x180007efc
   180004a4e:	00 00 00 
   180004a51:	83 25 ac 34 00 00 00 	andl   $0x0,0x34ac(%rip)        # 0x180007f04
   180004a58:	c7 05 aa 34 00 00 03 	movl   $0x3,0x34aa(%rip)        # 0x180007f0c
   180004a5f:	00 00 00 
   180004a62:	b9 10 27 00 00       	mov    $0x2710,%ecx
   180004a67:	ff 15 d9 28 00 00    	callq  *0x28d9(%rip)        # 0x180007346
   180004a6d:	48 8d 15 84 34 00 00 	lea    0x3484(%rip),%rdx        # 0x180007ef8
   180004a74:	48 8b 0d 75 34 00 00 	mov    0x3475(%rip),%rcx        # 0x180007ef0
   180004a7b:	ff 15 8f 15 00 00    	callq  *0x158f(%rip)        # 0x180006010
   180004a81:	85 c0                	test   %eax,%eax
   180004a83:	75 1f                	jne    0x180004aa4
   180004a85:	ff 15 32 29 00 00    	callq  *0x2932(%rip)        # 0x1800073bd
   180004a8b:	89 44 24 20          	mov    %eax,0x20(%rsp)
   180004a8f:	44 8b ce             	mov    %esi,%r9d
   180004a92:	ba 11 d1 ce a7       	mov    $0xa7ced111,%edx
   180004a97:	33 c9                	xor    %ecx,%ecx
   180004a99:	41 b8 43 51 a9 12    	mov    $0x12a95143,%r8d
   180004a9f:	e8 d4 f7 ff ff       	callq  0x180004278
   180004aa4:	83 3d b5 2e 00 00 00 	cmpl   $0x0,0x2eb5(%rip)        # 0x180007960
   180004aab:	74 14                	je     0x180004ac1
   180004aad:	e8 46 04 00 00       	callq  0x180004ef8
   180004ab2:	85 c0                	test   %eax,%eax
   180004ab4:	75 04                	jne    0x180004aba
   180004ab6:	33 c9                	xor    %ecx,%ecx
   180004ab8:	eb 0e                	jmp    0x180004ac8
   180004aba:	83 25 9f 2e 00 00 00 	andl   $0x0,0x2e9f(%rip)        # 0x180007960
   180004ac1:	48 8d 0d 80 34 00 00 	lea    0x3480(%rip),%rcx        # 0x180007f48
   180004ac8:	4c 8d 0d d1 16 00 00 	lea    0x16d1(%rip),%r9        # 0x1800061a0
   180004acf:	45 33 c0             	xor    %r8d,%r8d
   180004ad2:	41 8d 50 01          	lea    0x1(%r8),%edx
   180004ad6:	ff 15 01 29 00 00    	callq  *0x2901(%rip)        # 0x1800073dd
   180004adc:	48 8b d8             	mov    %rax,%rbx
   180004adf:	48 89 44 24 30       	mov    %rax,0x30(%rsp)
   180004ae4:	48 85 c0             	test   %rax,%rax
   180004ae7:	74 21                	je     0x180004b0a
   180004ae9:	44 8b ce             	mov    %esi,%r9d
   180004aec:	ba 48 78 cf 29       	mov    $0x29cf7848,%edx
   180004af1:	b9 02 00 00 00       	mov    $0x2,%ecx
   180004af6:	41 b8 41 51 a9 12    	mov    $0x12a95141,%r8d
   180004afc:	e8 77 f7 ff ff       	callq  0x180004278
   180004b01:	48 8b cb             	mov    %rbx,%rcx
   180004b04:	ff 15 8f 28 00 00    	callq  *0x288f(%rip)        # 0x180007399
   180004b0a:	48 85 db             	test   %rbx,%rbx
   180004b0d:	74 09                	je     0x180004b18
   180004b0f:	48 8b cb             	mov    %rbx,%rcx
   180004b12:	ff 15 e4 28 00 00    	callq  *0x28e4(%rip)        # 0x1800073fc
   180004b18:	eb 19                	jmp    0x180004b33
   180004b1a:	ba 73 e2 0d e4       	mov    $0xe40de273,%edx
   180004b1f:	33 c9                	xor    %ecx,%ecx
   180004b21:	41 b9 c9 86 63 ae    	mov    $0xae6386c9,%r9d
   180004b27:	41 b8 41 51 a9 12    	mov    $0x12a95141,%r8d
   180004b2d:	e8 46 f7 ff ff       	callq  0x180004278
   180004b32:	90                   	nop
   180004b33:	48 8b 5c 24 50       	mov    0x50(%rsp),%rbx
   180004b38:	48 83 c4 40          	add    $0x40,%rsp
   180004b3c:	5e                   	pop    %rsi
   180004b3d:	c3                   	retq   
   180004b3e:	cc                   	int3   
   180004b3f:	cc                   	int3   
   180004b40:	4c 8b dc             	mov    %rsp,%r11
   180004b43:	49 89 73 08          	mov    %rsi,0x8(%r11)
   180004b47:	49 89 7b 10          	mov    %rdi,0x10(%r11)
   180004b4b:	41 57                	push   %r15
   180004b4d:	48 83 ec 40          	sub    $0x40,%rsp
   180004b51:	49 83 63 d8 00       	andq   $0x0,-0x28(%r11)
   180004b56:	48 8d 05 37 fe ff ff 	lea    -0x1c9(%rip),%rax        # 0x180004994
   180004b5d:	49 89 43 e0          	mov    %rax,-0x20(%r11)
   180004b61:	49 83 63 e8 00       	andq   $0x0,-0x18(%r11)
   180004b66:	49 83 63 f0 00       	andq   $0x0,-0x10(%r11)
   180004b6b:	33 f6                	xor    %esi,%esi
   180004b6d:	c7 05 81 33 00 00 10 	movl   $0x10,0x3381(%rip)        # 0x180007ef8
   180004b74:	00 00 00 
   180004b77:	44 8d 7e 02          	lea    0x2(%rsi),%r15d
   180004b7b:	44 89 3d 7a 33 00 00 	mov    %r15d,0x337a(%rip)        # 0x180007efc
   180004b82:	48 8d 05 f7 15 00 00 	lea    0x15f7(%rip),%rax        # 0x180006180
   180004b89:	49 89 43 d8          	mov    %rax,-0x28(%r11)
   180004b8d:	ff 15 cd 27 00 00    	callq  *0x27cd(%rip)        # 0x180007360
   180004b93:	48 8b c8             	mov    %rax,%rcx
   180004b96:	48 8d 15 63 16 00 00 	lea    0x1663(%rip),%rdx        # 0x180006200
   180004b9d:	e8 d2 02 00 00       	callq  0x180004e74
   180004ba2:	48 85 c0             	test   %rax,%rax
   180004ba5:	74 20                	je     0x180004bc7
   180004ba7:	bf 41 51 a9 12       	mov    $0x12a95141,%edi
   180004bac:	41 b9 c9 86 63 ae    	mov    $0xae6386c9,%r9d
   180004bb2:	44 8b c7             	mov    %edi,%r8d
   180004bb5:	ba d0 26 5f 1a       	mov    $0x1a5f26d0,%edx
   180004bba:	41 8b cf             	mov    %r15d,%ecx
   180004bbd:	e8 b6 f6 ff ff       	callq  0x180004278
   180004bc2:	e9 ca 00 00 00       	jmpq   0x180004c91
   180004bc7:	ff 15 93 27 00 00    	callq  *0x2793(%rip)        # 0x180007360
   180004bcd:	48 8b c8             	mov    %rax,%rcx
   180004bd0:	48 8d 15 39 16 00 00 	lea    0x1639(%rip),%rdx        # 0x180006210
   180004bd7:	e8 98 02 00 00       	callq  0x180004e74
   180004bdc:	bf 41 51 a9 12       	mov    $0x12a95141,%edi
   180004be1:	41 b9 c9 86 63 ae    	mov    $0xae6386c9,%r9d
   180004be7:	41 8b cf             	mov    %r15d,%ecx
   180004bea:	44 8b c7             	mov    %edi,%r8d
   180004bed:	48 85 c0             	test   %rax,%rax
   180004bf0:	0f 84 a8 00 00 00    	je     0x180004c9e
   180004bf6:	ba 24 2d 14 be       	mov    $0xbe142d24,%edx
   180004bfb:	e8 78 f6 ff ff       	callq  0x180004278
   180004c00:	83 3d 59 2d 00 00 00 	cmpl   $0x0,0x2d59(%rip)        # 0x180007960
   180004c07:	74 14                	je     0x180004c1d
   180004c09:	e8 ea 02 00 00       	callq  0x180004ef8
   180004c0e:	85 c0                	test   %eax,%eax
   180004c10:	75 04                	jne    0x180004c16
   180004c12:	33 c9                	xor    %ecx,%ecx
   180004c14:	eb 0e                	jmp    0x180004c24
   180004c16:	83 25 43 2d 00 00 00 	andl   $0x0,0x2d43(%rip)        # 0x180007960
   180004c1d:	48 8d 0d 24 33 00 00 	lea    0x3324(%rip),%rcx        # 0x180007f48
   180004c24:	4c 8d 0d 75 15 00 00 	lea    0x1575(%rip),%r9        # 0x1800061a0
   180004c2b:	45 33 c0             	xor    %r8d,%r8d
   180004c2e:	41 8d 50 01          	lea    0x1(%r8),%edx
   180004c32:	ff 15 a5 27 00 00    	callq  *0x27a5(%rip)        # 0x1800073dd
   180004c38:	48 8b f0             	mov    %rax,%rsi
   180004c3b:	48 85 c0             	test   %rax,%rax
   180004c3e:	75 1c                	jne    0x180004c5c
   180004c40:	41 b9 c9 86 63 ae    	mov    $0xae6386c9,%r9d
   180004c46:	4c 8b c7             	mov    %rdi,%r8
   180004c49:	ba 60 3c 9a 05       	mov    $0x59a3c60,%edx
   180004c4e:	33 c9                	xor    %ecx,%ecx
   180004c50:	e8 23 f6 ff ff       	callq  0x180004278
   180004c55:	33 c0                	xor    %eax,%eax
   180004c57:	e9 8e 00 00 00       	jmpq   0x180004cea
   180004c5c:	ba 20 4e 00 00       	mov    $0x4e20,%edx
   180004c61:	48 8b c8             	mov    %rax,%rcx
   180004c64:	ff 15 1a 27 00 00    	callq  *0x271a(%rip)        # 0x180007384
   180004c6a:	3d 02 01 00 00       	cmp    $0x102,%eax
   180004c6f:	75 37                	jne    0x180004ca8
   180004c71:	41 b9 c9 86 63 ae    	mov    $0xae6386c9,%r9d
   180004c77:	4c 8b c7             	mov    %rdi,%r8
   180004c7a:	ba 1b c9 a4 d1       	mov    $0xd1a4c91b,%edx
   180004c7f:	33 c9                	xor    %ecx,%ecx
   180004c81:	e8 f2 f5 ff ff       	callq  0x180004278
   180004c86:	48 8b ce             	mov    %rsi,%rcx
   180004c89:	ff 15 6d 27 00 00    	callq  *0x276d(%rip)        # 0x1800073fc
   180004c8f:	33 f6                	xor    %esi,%esi
   180004c91:	48 8d 4c 24 20       	lea    0x20(%rsp),%rcx
   180004c96:	ff 15 64 13 00 00    	callq  *0x1364(%rip)        # 0x180006000
   180004c9c:	eb 0a                	jmp    0x180004ca8
   180004c9e:	ba db cc a3 dd       	mov    $0xdda3ccdb,%edx
   180004ca3:	e8 d0 f5 ff ff       	callq  0x180004278
   180004ca8:	41 b9 c9 86 63 ae    	mov    $0xae6386c9,%r9d
   180004cae:	4c 8b c7             	mov    %rdi,%r8
   180004cb1:	ba db 4b 5b d9       	mov    $0xd95b4bdb,%edx
   180004cb6:	41 8b cf             	mov    %r15d,%ecx
   180004cb9:	e8 ba f5 ff ff       	callq  0x180004278
   180004cbe:	48 85 f6             	test   %rsi,%rsi
   180004cc1:	74 09                	je     0x180004ccc
   180004cc3:	48 8b ce             	mov    %rsi,%rcx
   180004cc6:	ff 15 30 27 00 00    	callq  *0x2730(%rip)        # 0x1800073fc
   180004ccc:	33 c0                	xor    %eax,%eax
   180004cce:	eb 1a                	jmp    0x180004cea
   180004cd0:	ba 10 9d 28 7a       	mov    $0x7a289d10,%edx
   180004cd5:	33 c9                	xor    %ecx,%ecx
   180004cd7:	41 b9 c9 86 63 ae    	mov    $0xae6386c9,%r9d
   180004cdd:	41 b8 41 51 a9 12    	mov    $0x12a95141,%r8d
   180004ce3:	e8 90 f5 ff ff       	callq  0x180004278
   180004ce8:	33 c0                	xor    %eax,%eax
   180004cea:	48 8b 74 24 50       	mov    0x50(%rsp),%rsi
   180004cef:	48 8b 7c 24 58       	mov    0x58(%rsp),%rdi
   180004cf4:	48 83 c4 40          	add    $0x40,%rsp
   180004cf8:	41 5f                	pop    %r15
   180004cfa:	c3                   	retq   
   180004cfb:	cc                   	int3   
   180004cfc:	48 89 74 24 10       	mov    %rsi,0x10(%rsp)
   180004d01:	4c 8b c2             	mov    %rdx,%r8
   180004d04:	48 8b c1             	mov    %rcx,%rax
   180004d07:	69 d1 f8 1d 1a a6    	imul   $0xa61a1df8,%ecx,%edx
   180004d0d:	48 c1 e8 20          	shr    $0x20,%rax
   180004d11:	48 89 4c 24 08       	mov    %rcx,0x8(%rsp)
   180004d16:	44 69 d8 4e 2f 75 bf 	imul   $0xbf752f4e,%eax,%r11d
   180004d1d:	b8 7b 00 00 00       	mov    $0x7b,%eax
   180004d22:	45 33 d2             	xor    %r10d,%r10d
   180004d25:	66 41 89 00          	mov    %ax,(%r8)
   180004d29:	b8 2d 00 00 00       	mov    $0x2d,%eax
   180004d2e:	41 c7 40 4a 7d 00 00 	movl   $0x7d,0x4a(%r8)
   180004d35:	00 
   180004d36:	8d 70 23             	lea    0x23(%rax),%esi
   180004d39:	66 41 89 40 12       	mov    %ax,0x12(%r8)
   180004d3e:	66 41 89 40 1c       	mov    %ax,0x1c(%r8)
   180004d43:	66 41 89 40 26       	mov    %ax,0x26(%r8)
   180004d48:	66 41 89 40 30       	mov    %ax,0x30(%r8)
   180004d4d:	41 8b c3             	mov    %r11d,%eax
   180004d50:	83 e0 0f             	and    $0xf,%eax
   180004d53:	83 f8 0a             	cmp    $0xa,%eax
   180004d56:	72 09                	jb     0x180004d61
   180004d58:	44 8b ce             	mov    %esi,%r9d
   180004d5b:	66 44 2b c8          	sub    %ax,%r9w
   180004d5f:	eb 04                	jmp    0x180004d65
   180004d61:	44 8d 48 30          	lea    0x30(%rax),%r9d
   180004d65:	66 47 89 4c 50 02    	mov    %r9w,0x2(%r8,%r10,2)
   180004d6b:	49 ff c2             	inc    %r10
   180004d6e:	41 c1 eb 04          	shr    $0x4,%r11d
   180004d72:	49 83 fa 07          	cmp    $0x7,%r10
   180004d76:	7e d5                	jle    0x180004d4d
   180004d78:	41 b9 09 00 00 00    	mov    $0x9,%r9d
   180004d7e:	8b c2                	mov    %edx,%eax
   180004d80:	83 e0 0f             	and    $0xf,%eax
   180004d83:	83 f8 0a             	cmp    $0xa,%eax
   180004d86:	72 09                	jb     0x180004d91
   180004d88:	44 8b d6             	mov    %esi,%r10d
   180004d8b:	66 44 2b d0          	sub    %ax,%r10w
   180004d8f:	eb 04                	jmp    0x180004d95
   180004d91:	44 8d 50 30          	lea    0x30(%rax),%r10d
   180004d95:	66 47 89 54 48 02    	mov    %r10w,0x2(%r8,%r9,2)
   180004d9b:	49 ff c1             	inc    %r9
   180004d9e:	c1 ea 04             	shr    $0x4,%edx
   180004da1:	49 83 f9 0c          	cmp    $0xc,%r9
   180004da5:	7e d7                	jle    0x180004d7e
   180004da7:	41 b9 0e 00 00 00    	mov    $0xe,%r9d
   180004dad:	8b c2                	mov    %edx,%eax
   180004daf:	83 e0 0f             	and    $0xf,%eax
   180004db2:	83 f8 0a             	cmp    $0xa,%eax
   180004db5:	72 09                	jb     0x180004dc0
   180004db7:	44 8b d6             	mov    %esi,%r10d
   180004dba:	66 44 2b d0          	sub    %ax,%r10w
   180004dbe:	eb 08                	jmp    0x180004dc8
   180004dc0:	66 83 c0 30          	add    $0x30,%ax
   180004dc4:	44 0f b7 d0          	movzwl %ax,%r10d
   180004dc8:	66 47 89 54 48 02    	mov    %r10w,0x2(%r8,%r9,2)
   180004dce:	49 ff c1             	inc    %r9
   180004dd1:	c1 ea 04             	shr    $0x4,%edx
   180004dd4:	49 83 f9 11          	cmp    $0x11,%r9
   180004dd8:	7e d3                	jle    0x180004dad
   180004dda:	69 d1 4e 2f 75 bf    	imul   $0xbf752f4e,%ecx,%edx
   180004de0:	69 4c 24 0c f8 1d 1a 	imul   $0xa61a1df8,0xc(%rsp),%ecx
   180004de7:	a6 
   180004de8:	41 b9 13 00 00 00    	mov    $0x13,%r9d
   180004dee:	83 e1 0f             	and    $0xf,%ecx
   180004df1:	83 f9 0a             	cmp    $0xa,%ecx
   180004df4:	72 07                	jb     0x180004dfd
   180004df6:	8b c6                	mov    %esi,%eax
   180004df8:	66 2b c1             	sub    %cx,%ax
   180004dfb:	eb 03                	jmp    0x180004e00
   180004dfd:	8d 41 30             	lea    0x30(%rcx),%eax
   180004e00:	66 43 89 44 48 02    	mov    %ax,0x2(%r8,%r9,2)
   180004e06:	49 ff c1             	inc    %r9
   180004e09:	c1 ea 04             	shr    $0x4,%edx
   180004e0c:	49 83 f9 16          	cmp    $0x16,%r9
   180004e10:	7e df                	jle    0x180004df1
   180004e12:	b9 18 00 00 00       	mov    $0x18,%ecx
   180004e17:	8b c2                	mov    %edx,%eax
   180004e19:	83 e0 0f             	and    $0xf,%eax
   180004e1c:	83 f8 0a             	cmp    $0xa,%eax
   180004e1f:	72 09                	jb     0x180004e2a
   180004e21:	44 8b ce             	mov    %esi,%r9d
   180004e24:	66 44 2b c8          	sub    %ax,%r9w
   180004e28:	eb 08                	jmp    0x180004e32
   180004e2a:	66 83 c0 30          	add    $0x30,%ax
   180004e2e:	44 0f b7 c8          	movzwl %ax,%r9d
   180004e32:	66 45 89 4c 48 02    	mov    %r9w,0x2(%r8,%rcx,2)
   180004e38:	48 ff c1             	inc    %rcx
   180004e3b:	c1 ea 04             	shr    $0x4,%edx
   180004e3e:	48 83 f9 1b          	cmp    $0x1b,%rcx
   180004e42:	7e d3                	jle    0x180004e17
   180004e44:	b9 1c 00 00 00       	mov    $0x1c,%ecx
   180004e49:	83 e2 0f             	and    $0xf,%edx
   180004e4c:	83 fa 0a             	cmp    $0xa,%edx
   180004e4f:	72 07                	jb     0x180004e58
   180004e51:	8b c6                	mov    %esi,%eax
   180004e53:	66 2b c2             	sub    %dx,%ax
   180004e56:	eb 03                	jmp    0x180004e5b
   180004e58:	8d 42 30             	lea    0x30(%rdx),%eax
   180004e5b:	66 41 89 44 48 02    	mov    %ax,0x2(%r8,%rcx,2)
   180004e61:	48 ff c1             	inc    %rcx
   180004e64:	48 83 f9 23          	cmp    $0x23,%rcx
   180004e68:	7e e2                	jle    0x180004e4c
   180004e6a:	48 8b 74 24 10       	mov    0x10(%rsp),%rsi
   180004e6f:	33 c0                	xor    %eax,%eax
   180004e71:	c3                   	retq   
   180004e72:	cc                   	int3   
   180004e73:	cc                   	int3   
   180004e74:	66 83 3a 00          	cmpw   $0x0,(%rdx)
   180004e78:	4c 8b da             	mov    %rdx,%r11
   180004e7b:	4c 8b c1             	mov    %rcx,%r8
   180004e7e:	75 04                	jne    0x180004e84
   180004e80:	48 8b c1             	mov    %rcx,%rax
   180004e83:	c3                   	retq   
   180004e84:	0f b7 01             	movzwl (%rcx),%eax
   180004e87:	66 85 c0             	test   %ax,%ax
   180004e8a:	74 64                	je     0x180004ef0
   180004e8c:	4c 8b c9             	mov    %rcx,%r9
   180004e8f:	4c 2b ca             	sub    %rdx,%r9
   180004e92:	49 8b d3             	mov    %r11,%rdx
   180004e95:	66 85 c0             	test   %ax,%ax
   180004e98:	74 3f                	je     0x180004ed9
   180004e9a:	0f b7 0a             	movzwl (%rdx),%ecx
   180004e9d:	66 85 c9             	test   %cx,%cx
   180004ea0:	74 51                	je     0x180004ef3
   180004ea2:	45 0f b7 14 11       	movzwl (%r9,%rdx,1),%r10d
   180004ea7:	41 8d 42 bf          	lea    -0x41(%r10),%eax
   180004eab:	66 83 f8 19          	cmp    $0x19,%ax
   180004eaf:	77 05                	ja     0x180004eb6
   180004eb1:	66 41 83 c2 20       	add    $0x20,%r10w
   180004eb6:	8d 41 bf             	lea    -0x41(%rcx),%eax
   180004eb9:	66 83 f8 19          	cmp    $0x19,%ax
   180004ebd:	77 04                	ja     0x180004ec3
   180004ebf:	66 83 c1 20          	add    $0x20,%cx
   180004ec3:	0f b7 c9             	movzwl %cx,%ecx
   180004ec6:	41 0f b7 c2          	movzwl %r10w,%eax
   180004eca:	2b c1                	sub    %ecx,%eax
   180004ecc:	75 0b                	jne    0x180004ed9
   180004ece:	48 83 c2 02          	add    $0x2,%rdx
   180004ed2:	66 41 39 04 11       	cmp    %ax,(%r9,%rdx,1)
   180004ed7:	75 c1                	jne    0x180004e9a
   180004ed9:	66 83 3a 00          	cmpw   $0x0,(%rdx)
   180004edd:	74 14                	je     0x180004ef3
   180004edf:	49 83 c0 02          	add    $0x2,%r8
   180004ee3:	49 83 c1 02          	add    $0x2,%r9
   180004ee7:	41 0f b7 00          	movzwl (%r8),%eax
   180004eeb:	66 85 c0             	test   %ax,%ax
   180004eee:	75 a2                	jne    0x180004e92
   180004ef0:	33 c0                	xor    %eax,%eax
   180004ef2:	c3                   	retq   
   180004ef3:	49 8b c0             	mov    %r8,%rax
   180004ef6:	c3                   	retq   
   180004ef7:	cc                   	int3   
   180004ef8:	48 89 54 24 10       	mov    %rdx,0x10(%rsp)
   180004efd:	48 89 4c 24 08       	mov    %rcx,0x8(%rsp)
   180004f02:	56                   	push   %rsi
   180004f03:	57                   	push   %rdi
   180004f04:	48 83 ec 28          	sub    $0x28,%rsp
   180004f08:	48 8d 35 51 30 00 00 	lea    0x3051(%rip),%rsi        # 0x180007f60
   180004f0f:	bf 01 00 00 00       	mov    $0x1,%edi
   180004f14:	48 8b ce             	mov    %rsi,%rcx
   180004f17:	8b d7                	mov    %edi,%edx
   180004f19:	ff 15 8e 27 00 00    	callq  *0x278e(%rip)        # 0x1800076ad
   180004f1f:	85 c0                	test   %eax,%eax
   180004f21:	75 07                	jne    0x180004f2a
   180004f23:	33 c0                	xor    %eax,%eax
   180004f25:	e9 8a 00 00 00       	jmpq   0x180004fb4
   180004f2a:	45 33 c9             	xor    %r9d,%r9d
   180004f2d:	45 33 c0             	xor    %r8d,%r8d
   180004f30:	8b d7                	mov    %edi,%edx
   180004f32:	48 8b ce             	mov    %rsi,%rcx
   180004f35:	ff 15 9f 27 00 00    	callq  *0x279f(%rip)        # 0x1800076da
   180004f3b:	85 c0                	test   %eax,%eax
   180004f3d:	74 e4                	je     0x180004f23
   180004f3f:	48 83 64 24 50 00    	andq   $0x0,0x50(%rsp)
   180004f45:	4c 8d 44 24 50       	lea    0x50(%rsp),%r8
   180004f4a:	48 8d 0d 87 13 00 00 	lea    0x1387(%rip),%rcx        # 0x1800062d8
   180004f51:	45 33 c9             	xor    %r9d,%r9d
   180004f54:	8b d7                	mov    %edi,%edx
   180004f56:	e8 25 de ff ff       	callq  0x180002d80
   180004f5b:	83 64 24 40 00       	andl   $0x0,0x40(%rsp)
   180004f60:	83 64 24 48 00       	andl   $0x0,0x48(%rsp)
   180004f65:	85 c0                	test   %eax,%eax
   180004f67:	74 31                	je     0x180004f9a
   180004f69:	48 8b 4c 24 50       	mov    0x50(%rsp),%rcx
   180004f6e:	4c 8d 4c 24 48       	lea    0x48(%rsp),%r9
   180004f73:	4c 8d 44 24 58       	lea    0x58(%rsp),%r8
   180004f78:	48 8d 54 24 40       	lea    0x40(%rsp),%rdx
   180004f7d:	ff 15 c7 27 00 00    	callq  *0x27c7(%rip)        # 0x18000774a
   180004f83:	85 c0                	test   %eax,%eax
   180004f85:	74 13                	je     0x180004f9a
   180004f87:	4c 8b 44 24 58       	mov    0x58(%rsp),%r8
   180004f8c:	45 33 c9             	xor    %r9d,%r9d
   180004f8f:	8b d7                	mov    %edi,%edx
   180004f91:	48 8b ce             	mov    %rsi,%rcx
   180004f94:	ff 15 e0 27 00 00    	callq  *0x27e0(%rip)        # 0x18000777a
   180004f9a:	83 25 b7 2f 00 00 00 	andl   $0x0,0x2fb7(%rip)        # 0x180007f58
   180004fa1:	c7 05 9d 2f 00 00 18 	movl   $0x18,0x2f9d(%rip)        # 0x180007f48
   180004fa8:	00 00 00 
   180004fab:	48 89 35 9e 2f 00 00 	mov    %rsi,0x2f9e(%rip)        # 0x180007f50
   180004fb2:	8b c7                	mov    %edi,%eax
   180004fb4:	48 83 c4 28          	add    $0x28,%rsp
   180004fb8:	5f                   	pop    %rdi
   180004fb9:	5e                   	pop    %rsi
   180004fba:	c3                   	retq   
   180004fbb:	cc                   	int3   
   180004fbc:	ff 25 ae 10 00 00    	jmpq   *0x10ae(%rip)        # 0x180006070
   180004fc2:	ff 25 b0 10 00 00    	jmpq   *0x10b0(%rip)        # 0x180006078
   180004fc8:	ff 25 b2 10 00 00    	jmpq   *0x10b2(%rip)        # 0x180006080
   180004fce:	ff 25 b4 10 00 00    	jmpq   *0x10b4(%rip)        # 0x180006088
   180004fd4:	ff 25 46 10 00 00    	jmpq   *0x1046(%rip)        # 0x180006020
   180004fda:	ff 25 58 10 00 00    	jmpq   *0x1058(%rip)        # 0x180006038
   180004fe0:	ff 25 4a 10 00 00    	jmpq   *0x104a(%rip)        # 0x180006030
   180004fe6:	ff 25 64 10 00 00    	jmpq   *0x1064(%rip)        # 0x180006050
   180004fec:	ff 25 56 10 00 00    	jmpq   *0x1056(%rip)        # 0x180006048
   180004ff2:	40 55                	rex push %rbp
   180004ff4:	48 83 ec 20          	sub    $0x20,%rsp
   180004ff8:	48 8b ea             	mov    %rdx,%rbp
   180004ffb:	48 89 8d 00 01 00 00 	mov    %rcx,0x100(%rbp)
   180005002:	48 8b 01             	mov    (%rcx),%rax
   180005005:	8b 10                	mov    (%rax),%edx
   180005007:	89 95 a8 00 00 00    	mov    %edx,0xa8(%rbp)
   18000500d:	48 89 8d f8 00 00 00 	mov    %rcx,0xf8(%rbp)
   180005014:	89 55 50             	mov    %edx,0x50(%rbp)
   180005017:	8b 45 50             	mov    0x50(%rbp),%eax
   18000501a:	3d 63 73 6d e0       	cmp    $0xe06d7363,%eax
   18000501f:	75 14                	jne    0x180005035
   180005021:	48 8b 95 f8 00 00 00 	mov    0xf8(%rbp),%rdx
   180005028:	8b 4d 50             	mov    0x50(%rbp),%ecx
   18000502b:	e8 92 ff ff ff       	callq  0x180004fc2
   180005030:	89 45 30             	mov    %eax,0x30(%rbp)
   180005033:	eb 07                	jmp    0x18000503c
   180005035:	c7 45 30 00 00 00 00 	movl   $0x0,0x30(%rbp)
   18000503c:	8b 45 30             	mov    0x30(%rbp),%eax
   18000503f:	48 83 c4 20          	add    $0x20,%rsp
   180005043:	5d                   	pop    %rbp
   180005044:	c3                   	retq   
   180005045:	cc                   	int3   
   180005046:	cc                   	int3   
   180005047:	cc                   	int3   
   180005048:	cc                   	int3   
   180005049:	cc                   	int3   
   18000504a:	cc                   	int3   
   18000504b:	cc                   	int3   
   18000504c:	cc                   	int3   
   18000504d:	cc                   	int3   
   18000504e:	cc                   	int3   
   18000504f:	cc                   	int3   
   180005050:	cc                   	int3   
   180005051:	cc                   	int3   
   180005052:	40 55                	rex push %rbp
   180005054:	48 83 ec 20          	sub    $0x20,%rsp
   180005058:	48 8b ea             	mov    %rdx,%rbp
   18000505b:	48 89 8d 10 01 00 00 	mov    %rcx,0x110(%rbp)
   180005062:	48 8b 01             	mov    (%rcx),%rax
   180005065:	8b 10                	mov    (%rax),%edx
   180005067:	89 95 98 00 00 00    	mov    %edx,0x98(%rbp)
   18000506d:	48 89 8d d0 00 00 00 	mov    %rcx,0xd0(%rbp)
   180005074:	89 55 70             	mov    %edx,0x70(%rbp)
   180005077:	8b 45 70             	mov    0x70(%rbp),%eax
   18000507a:	3d 63 73 6d e0       	cmp    $0xe06d7363,%eax
   18000507f:	75 14                	jne    0x180005095
   180005081:	48 8b 95 d0 00 00 00 	mov    0xd0(%rbp),%rdx
   180005088:	8b 4d 70             	mov    0x70(%rbp),%ecx
   18000508b:	e8 32 ff ff ff       	callq  0x180004fc2
   180005090:	89 45 38             	mov    %eax,0x38(%rbp)
   180005093:	eb 07                	jmp    0x18000509c
   180005095:	c7 45 38 00 00 00 00 	movl   $0x0,0x38(%rbp)
   18000509c:	8b 45 38             	mov    0x38(%rbp),%eax
   18000509f:	48 83 c4 20          	add    $0x20,%rsp
   1800050a3:	5d                   	pop    %rbp
   1800050a4:	c3                   	retq   
   1800050a5:	cc                   	int3   
   1800050a6:	cc                   	int3   
   1800050a7:	cc                   	int3   
   1800050a8:	cc                   	int3   
   1800050a9:	cc                   	int3   
   1800050aa:	cc                   	int3   
   1800050ab:	cc                   	int3   
   1800050ac:	cc                   	int3   
   1800050ad:	cc                   	int3   
   1800050ae:	cc                   	int3   
   1800050af:	cc                   	int3   
   1800050b0:	cc                   	int3   
   1800050b1:	cc                   	int3   
   1800050b2:	40 55                	rex push %rbp
   1800050b4:	48 83 ec 20          	sub    $0x20,%rsp
   1800050b8:	48 8b ea             	mov    %rdx,%rbp
   1800050bb:	48 89 8d 30 01 00 00 	mov    %rcx,0x130(%rbp)
   1800050c2:	48 8b 01             	mov    (%rcx),%rax
   1800050c5:	8b 10                	mov    (%rax),%edx
   1800050c7:	89 95 cc 00 00 00    	mov    %edx,0xcc(%rbp)
   1800050cd:	48 89 8d f0 00 00 00 	mov    %rcx,0xf0(%rbp)
   1800050d4:	89 55 60             	mov    %edx,0x60(%rbp)
   1800050d7:	8b 45 60             	mov    0x60(%rbp),%eax
   1800050da:	3d 63 73 6d e0       	cmp    $0xe06d7363,%eax
   1800050df:	75 14                	jne    0x1800050f5
   1800050e1:	48 8b 95 f0 00 00 00 	mov    0xf0(%rbp),%rdx
   1800050e8:	8b 4d 60             	mov    0x60(%rbp),%ecx
   1800050eb:	e8 d2 fe ff ff       	callq  0x180004fc2
   1800050f0:	89 45 48             	mov    %eax,0x48(%rbp)
   1800050f3:	eb 07                	jmp    0x1800050fc
   1800050f5:	c7 45 48 00 00 00 00 	movl   $0x0,0x48(%rbp)
   1800050fc:	8b 45 48             	mov    0x48(%rbp),%eax
   1800050ff:	48 83 c4 20          	add    $0x20,%rsp
   180005103:	5d                   	pop    %rbp
   180005104:	c3                   	retq   
   180005105:	cc                   	int3   
   180005106:	cc                   	int3   
   180005107:	cc                   	int3   
   180005108:	cc                   	int3   
   180005109:	cc                   	int3   
   18000510a:	cc                   	int3   
   18000510b:	cc                   	int3   
   18000510c:	cc                   	int3   
   18000510d:	cc                   	int3   
   18000510e:	cc                   	int3   
   18000510f:	cc                   	int3   
   180005110:	cc                   	int3   
   180005111:	cc                   	int3   
   180005112:	40 55                	rex push %rbp
   180005114:	48 83 ec 20          	sub    $0x20,%rsp
   180005118:	48 8b ea             	mov    %rdx,%rbp
   18000511b:	48 89 8d 20 01 00 00 	mov    %rcx,0x120(%rbp)
   180005122:	48 8b 01             	mov    (%rcx),%rax
   180005125:	8b 10                	mov    (%rax),%edx
   180005127:	89 95 8c 00 00 00    	mov    %edx,0x8c(%rbp)
   18000512d:	48 89 8d e0 00 00 00 	mov    %rcx,0xe0(%rbp)
   180005134:	89 95 80 00 00 00    	mov    %edx,0x80(%rbp)
   18000513a:	8b 85 80 00 00 00    	mov    0x80(%rbp),%eax
   180005140:	3d 63 73 6d e0       	cmp    $0xe06d7363,%eax
   180005145:	75 17                	jne    0x18000515e
   180005147:	48 8b 95 e0 00 00 00 	mov    0xe0(%rbp),%rdx
   18000514e:	8b 8d 80 00 00 00    	mov    0x80(%rbp),%ecx
   180005154:	e8 69 fe ff ff       	callq  0x180004fc2
   180005159:	89 45 24             	mov    %eax,0x24(%rbp)
   18000515c:	eb 07                	jmp    0x180005165
   18000515e:	c7 45 24 00 00 00 00 	movl   $0x0,0x24(%rbp)
   180005165:	8b 45 24             	mov    0x24(%rbp),%eax
   180005168:	48 83 c4 20          	add    $0x20,%rsp
   18000516c:	5d                   	pop    %rbp
   18000516d:	c3                   	retq   
   18000516e:	cc                   	int3   
   18000516f:	cc                   	int3   
   180005170:	cc                   	int3   
   180005171:	cc                   	int3   
   180005172:	40 55                	rex push %rbp
   180005174:	48 83 ec 20          	sub    $0x20,%rsp
   180005178:	48 8b ea             	mov    %rdx,%rbp
   18000517b:	48 89 8d 08 01 00 00 	mov    %rcx,0x108(%rbp)
   180005182:	48 8b 01             	mov    (%rcx),%rax
   180005185:	8b 10                	mov    (%rax),%edx
   180005187:	89 95 d8 00 00 00    	mov    %edx,0xd8(%rbp)
   18000518d:	48 89 8d 90 00 00 00 	mov    %rcx,0x90(%rbp)
   180005194:	89 55 28             	mov    %edx,0x28(%rbp)
   180005197:	8b 45 28             	mov    0x28(%rbp),%eax
   18000519a:	3d 63 73 6d e0       	cmp    $0xe06d7363,%eax
   18000519f:	75 14                	jne    0x1800051b5
   1800051a1:	48 8b 95 90 00 00 00 	mov    0x90(%rbp),%rdx
   1800051a8:	8b 4d 28             	mov    0x28(%rbp),%ecx
   1800051ab:	e8 12 fe ff ff       	callq  0x180004fc2
   1800051b0:	89 45 34             	mov    %eax,0x34(%rbp)
   1800051b3:	eb 07                	jmp    0x1800051bc
   1800051b5:	c7 45 34 00 00 00 00 	movl   $0x0,0x34(%rbp)
   1800051bc:	8b 45 34             	mov    0x34(%rbp),%eax
   1800051bf:	48 83 c4 20          	add    $0x20,%rsp
   1800051c3:	5d                   	pop    %rbp
   1800051c4:	c3                   	retq   
   1800051c5:	cc                   	int3   
   1800051c6:	cc                   	int3   
   1800051c7:	cc                   	int3   
   1800051c8:	cc                   	int3   
   1800051c9:	cc                   	int3   
   1800051ca:	cc                   	int3   
   1800051cb:	cc                   	int3   
   1800051cc:	cc                   	int3   
   1800051cd:	cc                   	int3   
   1800051ce:	cc                   	int3   
   1800051cf:	cc                   	int3   
   1800051d0:	cc                   	int3   
   1800051d1:	cc                   	int3   
   1800051d2:	40 55                	rex push %rbp
   1800051d4:	48 83 ec 20          	sub    $0x20,%rsp
   1800051d8:	48 8b ea             	mov    %rdx,%rbp
   1800051db:	48 89 8d 18 01 00 00 	mov    %rcx,0x118(%rbp)
   1800051e2:	48 8b 01             	mov    (%rcx),%rax
   1800051e5:	8b 10                	mov    (%rax),%edx
   1800051e7:	89 95 b8 00 00 00    	mov    %edx,0xb8(%rbp)
   1800051ed:	48 89 8d a0 00 00 00 	mov    %rcx,0xa0(%rbp)
   1800051f4:	89 55 40             	mov    %edx,0x40(%rbp)
   1800051f7:	8b 45 40             	mov    0x40(%rbp),%eax
   1800051fa:	3d 63 73 6d e0       	cmp    $0xe06d7363,%eax
   1800051ff:	75 14                	jne    0x180005215
   180005201:	48 8b 95 a0 00 00 00 	mov    0xa0(%rbp),%rdx
   180005208:	8b 4d 40             	mov    0x40(%rbp),%ecx
   18000520b:	e8 b2 fd ff ff       	callq  0x180004fc2
   180005210:	89 45 4c             	mov    %eax,0x4c(%rbp)
   180005213:	eb 07                	jmp    0x18000521c
   180005215:	c7 45 4c 00 00 00 00 	movl   $0x0,0x4c(%rbp)
   18000521c:	8b 45 4c             	mov    0x4c(%rbp),%eax
   18000521f:	48 83 c4 20          	add    $0x20,%rsp
   180005223:	5d                   	pop    %rbp
   180005224:	c3                   	retq   
   180005225:	cc                   	int3   
   180005226:	cc                   	int3   
   180005227:	cc                   	int3   
   180005228:	cc                   	int3   
   180005229:	cc                   	int3   
   18000522a:	cc                   	int3   
   18000522b:	cc                   	int3   
   18000522c:	cc                   	int3   
   18000522d:	cc                   	int3   
   18000522e:	cc                   	int3   
   18000522f:	cc                   	int3   
   180005230:	cc                   	int3   
   180005231:	cc                   	int3   
   180005232:	40 55                	rex push %rbp
   180005234:	48 83 ec 20          	sub    $0x20,%rsp
   180005238:	48 8b ea             	mov    %rdx,%rbp
   18000523b:	48 89 8d 28 01 00 00 	mov    %rcx,0x128(%rbp)
   180005242:	48 8b 01             	mov    (%rcx),%rax
   180005245:	8b 10                	mov    (%rax),%edx
   180005247:	89 95 e8 00 00 00    	mov    %edx,0xe8(%rbp)
   18000524d:	48 89 8d b0 00 00 00 	mov    %rcx,0xb0(%rbp)
   180005254:	89 55 58             	mov    %edx,0x58(%rbp)
   180005257:	8b 45 58             	mov    0x58(%rbp),%eax
   18000525a:	3d 63 73 6d e0       	cmp    $0xe06d7363,%eax
   18000525f:	75 14                	jne    0x180005275
   180005261:	48 8b 95 b0 00 00 00 	mov    0xb0(%rbp),%rdx
   180005268:	8b 4d 58             	mov    0x58(%rbp),%ecx
   18000526b:	e8 52 fd ff ff       	callq  0x180004fc2
   180005270:	89 45 68             	mov    %eax,0x68(%rbp)
   180005273:	eb 07                	jmp    0x18000527c
   180005275:	c7 45 68 00 00 00 00 	movl   $0x0,0x68(%rbp)
   18000527c:	8b 45 68             	mov    0x68(%rbp),%eax
   18000527f:	48 83 c4 20          	add    $0x20,%rsp
   180005283:	5d                   	pop    %rbp
   180005284:	c3                   	retq   
   180005285:	cc                   	int3   
   180005286:	cc                   	int3   
   180005287:	cc                   	int3   
   180005288:	cc                   	int3   
   180005289:	cc                   	int3   
   18000528a:	cc                   	int3   
   18000528b:	cc                   	int3   
   18000528c:	cc                   	int3   
   18000528d:	cc                   	int3   
   18000528e:	cc                   	int3   
   18000528f:	cc                   	int3   
   180005290:	cc                   	int3   
   180005291:	cc                   	int3   
   180005292:	40 55                	rex push %rbp
   180005294:	48 83 ec 20          	sub    $0x20,%rsp
   180005298:	48 8b ea             	mov    %rdx,%rbp
   18000529b:	48 89 8d 38 01 00 00 	mov    %rcx,0x138(%rbp)
   1800052a2:	48 8b 01             	mov    (%rcx),%rax
   1800052a5:	8b 10                	mov    (%rax),%edx
   1800052a7:	89 95 c8 00 00 00    	mov    %edx,0xc8(%rbp)
   1800052ad:	48 89 8d c0 00 00 00 	mov    %rcx,0xc0(%rbp)
   1800052b4:	89 55 78             	mov    %edx,0x78(%rbp)
   1800052b7:	8b 45 78             	mov    0x78(%rbp),%eax
   1800052ba:	3d 63 73 6d e0       	cmp    $0xe06d7363,%eax
   1800052bf:	75 17                	jne    0x1800052d8
   1800052c1:	48 8b 95 c0 00 00 00 	mov    0xc0(%rbp),%rdx
   1800052c8:	8b 4d 78             	mov    0x78(%rbp),%ecx
   1800052cb:	e8 f2 fc ff ff       	callq  0x180004fc2
   1800052d0:	89 85 88 00 00 00    	mov    %eax,0x88(%rbp)
   1800052d6:	eb 0a                	jmp    0x1800052e2
   1800052d8:	c7 85 88 00 00 00 00 	movl   $0x0,0x88(%rbp)
   1800052df:	00 00 00 
   1800052e2:	8b 85 88 00 00 00    	mov    0x88(%rbp),%eax
   1800052e8:	48 83 c4 20          	add    $0x20,%rsp
   1800052ec:	5d                   	pop    %rbp
   1800052ed:	c3                   	retq   
   1800052ee:	cc                   	int3   
   1800052ef:	cc                   	int3   
   1800052f0:	cc                   	int3   
   1800052f1:	cc                   	int3   
   1800052f2:	40 55                	rex push %rbp
   1800052f4:	48 83 ec 20          	sub    $0x20,%rsp
   1800052f8:	48 8b ea             	mov    %rdx,%rbp
   1800052fb:	c7 05 1b 1d 00 00 ff 	movl   $0xffffffff,0x1d1b(%rip)        # 0x180007020
   180005302:	ff ff ff 
   180005305:	48 83 c4 20          	add    $0x20,%rsp
   180005309:	5d                   	pop    %rbp
   18000530a:	c3                   	retq   
   18000530b:	40 55                	rex push %rbp
   18000530d:	48 83 ec 20          	sub    $0x20,%rsp
   180005311:	48 8b ea             	mov    %rdx,%rbp
   180005314:	48 8b 01             	mov    (%rcx),%rax
   180005317:	33 c9                	xor    %ecx,%ecx
   180005319:	81 38 05 00 00 c0    	cmpl   $0xc0000005,(%rax)
   18000531f:	0f 94 c1             	sete   %cl
   180005322:	8b c1                	mov    %ecx,%eax
   180005324:	8b c1                	mov    %ecx,%eax
   180005326:	48 83 c4 20          	add    $0x20,%rsp
   18000532a:	5d                   	pop    %rbp
   18000532b:	c3                   	retq   
