
b44634d90a9ff2ed8a9d0304c11bf612.bin:     file format pei-i386


Disassembly of section .text:

00401000 <.text>:
  401000:	55                   	push   %ebp
  401001:	8b ec                	mov    %esp,%ebp
  401003:	83 ec 18             	sub    $0x18,%esp
  401006:	66 c7 45 e8 00 00    	movw   $0x0,-0x18(%ebp)
  40100c:	33 c0                	xor    %eax,%eax
  40100e:	89 45 ea             	mov    %eax,-0x16(%ebp)
  401011:	89 45 ee             	mov    %eax,-0x12(%ebp)
  401014:	89 45 f2             	mov    %eax,-0xe(%ebp)
  401017:	66 89 45 f6          	mov    %ax,-0xa(%ebp)
  40101b:	c7 45 f8 00 00 00 00 	movl   $0x0,-0x8(%ebp)
  401022:	c7 45 fc 00 00 00 00 	movl   $0x0,-0x4(%ebp)
  401029:	6a 0a                	push   $0xa
  40102b:	ff 15 00 60 40 00    	call   *0x406000
  401031:	6a 00                	push   $0x0
  401033:	6a 00                	push   $0x0
  401035:	ff 15 dc 60 40 00    	call   *0x4060dc
  40103b:	83 f8 02             	cmp    $0x2,%eax
  40103e:	75 0a                	jne    0x40104a
  401040:	6a 00                	push   $0x0
  401042:	e8 13 00 00 00       	call   0x40105a
  401047:	83 c4 04             	add    $0x4,%esp
  40104a:	6a 00                	push   $0x0
  40104c:	ff 15 d4 60 40 00    	call   *0x4060d4
  401052:	33 c0                	xor    %eax,%eax
  401054:	8b e5                	mov    %ebp,%esp
  401056:	5d                   	pop    %ebp
  401057:	c2 10 00             	ret    $0x10
  40105a:	55                   	push   %ebp
  40105b:	8b ec                	mov    %esp,%ebp
  40105d:	81 ec 74 02 00 00    	sub    $0x274,%esp
  401063:	53                   	push   %ebx
  401064:	56                   	push   %esi
  401065:	57                   	push   %edi
  401066:	c7 85 60 ff ff ff 00 	movl   $0x0,-0xa0(%ebp)
  40106d:	00 00 00 
  401070:	c7 85 74 ff ff ff 00 	movl   $0x0,-0x8c(%ebp)
  401077:	00 00 00 
  40107a:	c7 45 e4 00 00 00 00 	movl   $0x0,-0x1c(%ebp)
  401081:	c7 85 64 ff ff ff 00 	movl   $0x0,-0x9c(%ebp)
  401088:	00 00 00 
  40108b:	c7 85 68 ff ff ff 00 	movl   $0x0,-0x98(%ebp)
  401092:	00 00 00 
  401095:	c7 45 e8 00 00 00 00 	movl   $0x0,-0x18(%ebp)
  40109c:	c7 45 f8 00 00 00 00 	movl   $0x0,-0x8(%ebp)
  4010a3:	b9 06 00 00 00       	mov    $0x6,%ecx
  4010a8:	be 1c fd 40 00       	mov    $0x40fd1c,%esi
  4010ad:	8d 7d 98             	lea    -0x68(%ebp),%edi
  4010b0:	f3 a5                	rep movsl %ds:(%esi),%es:(%edi)
  4010b2:	a4                   	movsb  %ds:(%esi),%es:(%edi)
  4010b3:	c7 45 d0 00 00 00 00 	movl   $0x0,-0x30(%ebp)
  4010ba:	c7 45 ec 00 00 00 00 	movl   $0x0,-0x14(%ebp)
  4010c1:	c7 45 d8 00 00 00 00 	movl   $0x0,-0x28(%ebp)
  4010c8:	c6 45 b4 00          	movb   $0x0,-0x4c(%ebp)
  4010cc:	c7 45 dc 00 00 00 00 	movl   $0x0,-0x24(%ebp)
  4010d3:	c7 45 b8 00 00 00 00 	movl   $0x0,-0x48(%ebp)
  4010da:	c7 45 d4 01 00 00 00 	movl   $0x1,-0x2c(%ebp)
  4010e1:	c7 85 6c ff ff ff 00 	movl   $0x0,-0x94(%ebp)
  4010e8:	00 00 00 
  4010eb:	c7 85 7c ff ff ff 00 	movl   $0x0,-0x84(%ebp)
  4010f2:	00 00 00 
  4010f5:	c7 45 94 1d 96 00 00 	movl   $0x961d,-0x6c(%ebp)
  4010fc:	c7 45 f0 00 00 00 00 	movl   $0x0,-0x10(%ebp)
  401103:	c6 45 e0 00          	movb   $0x0,-0x20(%ebp)
  401107:	c7 85 78 ff ff ff 00 	movl   $0x0,-0x88(%ebp)
  40110e:	00 00 00 
  401111:	8b 45 94             	mov    -0x6c(%ebp),%eax
  401114:	89 85 70 ff ff ff    	mov    %eax,-0x90(%ebp)
  40111a:	c7 85 5c ff ff ff 00 	movl   $0x0,-0xa4(%ebp)
  401121:	00 00 00 
  401124:	c7 45 f4 00 00 00 00 	movl   $0x0,-0xc(%ebp)
  40112b:	c7 45 fc 00 00 00 00 	movl   $0x0,-0x4(%ebp)
  401132:	c7 45 bc 00 00 00 00 	movl   $0x0,-0x44(%ebp)
  401139:	8b 0d 38 fd 40 00    	mov    0x40fd38,%ecx
  40113f:	89 4d 80             	mov    %ecx,-0x80(%ebp)
  401142:	8b 15 3c fd 40 00    	mov    0x40fd3c,%edx
  401148:	89 55 84             	mov    %edx,-0x7c(%ebp)
  40114b:	a1 40 fd 40 00       	mov    0x40fd40,%eax
  401150:	89 45 88             	mov    %eax,-0x78(%ebp)
  401153:	8b 0d 44 fd 40 00    	mov    0x40fd44,%ecx
  401159:	89 4d 8c             	mov    %ecx,-0x74(%ebp)
  40115c:	66 8b 15 48 fd 40 00 	mov    0x40fd48,%dx
  401163:	66 89 55 90          	mov    %dx,-0x70(%ebp)
  401167:	a1 4c fd 40 00       	mov    0x40fd4c,%eax
  40116c:	89 45 c0             	mov    %eax,-0x40(%ebp)
  40116f:	8b 0d 50 fd 40 00    	mov    0x40fd50,%ecx
  401175:	89 4d c4             	mov    %ecx,-0x3c(%ebp)
  401178:	8b 15 54 fd 40 00    	mov    0x40fd54,%edx
  40117e:	89 55 c8             	mov    %edx,-0x38(%ebp)
  401181:	a0 58 fd 40 00       	mov    0x40fd58,%al
  401186:	88 45 cc             	mov    %al,-0x34(%ebp)
  401189:	c6 45 81 69          	movb   $0x69,-0x7f(%ebp)
  40118d:	c6 45 c8 2e          	movb   $0x2e,-0x38(%ebp)
  401191:	8a 4d 89             	mov    -0x77(%ebp),%cl
  401194:	88 4d 88             	mov    %cl,-0x78(%ebp)
  401197:	8b 15 b4 09 41 00    	mov    0x4109b4,%edx
  40119d:	89 55 fc             	mov    %edx,-0x4(%ebp)
  4011a0:	a1 24 60 40 00       	mov    0x406024,%eax
  4011a5:	89 45 08             	mov    %eax,0x8(%ebp)
  4011a8:	6a 00                	push   $0x0
  4011aa:	8b 4d 08             	mov    0x8(%ebp),%ecx
  4011ad:	51                   	push   %ecx
  4011ae:	e8 24 03 00 00       	call   0x4014d7
  4011b3:	83 c4 08             	add    $0x8,%esp
  4011b6:	85 c0                	test   %eax,%eax
  4011b8:	0f 86 ab 02 00 00    	jbe    0x401469
  4011be:	8b 15 b4 09 41 00    	mov    0x4109b4,%edx
  4011c4:	89 55 fc             	mov    %edx,-0x4(%ebp)
  4011c7:	0f be 05 40 70 40 00 	movsbl 0x407040,%eax
  4011ce:	50                   	push   %eax
  4011cf:	6a 00                	push   $0x0
  4011d1:	ff 15 20 60 40 00    	call   *0x406020
  4011d7:	c7 85 54 ff ff ff 00 	movl   $0x0,-0xac(%ebp)
  4011de:	00 00 00 
  4011e1:	c7 85 58 ff ff ff 01 	movl   $0x1,-0xa8(%ebp)
  4011e8:	00 00 00 
  4011eb:	c7 85 5c ff ff ff 5c 	movl   $0x40fd5c,-0xa4(%ebp)
  4011f2:	fd 40 00 
  4011f5:	6a 00                	push   $0x0
  4011f7:	ff 15 1c 60 40 00    	call   *0x40601c
  4011fd:	68 98 fd 40 00       	push   $0x40fd98
  401202:	6a 00                	push   $0x0
  401204:	6a 00                	push   $0x0
  401206:	6a 00                	push   $0x0
  401208:	ff 15 18 60 40 00    	call   *0x406018
  40120e:	6a 00                	push   $0x0
  401210:	6a 00                	push   $0x0
  401212:	e8 df 03 00 00       	call   0x4015f6
  401217:	8b 8d 70 ff ff ff    	mov    -0x90(%ebp),%ecx
  40121d:	81 c1 00 00 20 00    	add    $0x200000,%ecx
  401223:	89 8d 70 ff ff ff    	mov    %ecx,-0x90(%ebp)
  401229:	8b 95 70 ff ff ff    	mov    -0x90(%ebp),%edx
  40122f:	81 c2 00 00 20 00    	add    $0x200000,%edx
  401235:	89 95 70 ff ff ff    	mov    %edx,-0x90(%ebp)
  40123b:	8d 45 ec             	lea    -0x14(%ebp),%eax
  40123e:	89 45 dc             	mov    %eax,-0x24(%ebp)
  401241:	c6 85 40 ff ff ff 47 	movb   $0x47,-0xc0(%ebp)
  401248:	c6 85 41 ff ff ff 00 	movb   $0x0,-0xbf(%ebp)
  40124f:	c6 85 42 ff ff ff 74 	movb   $0x74,-0xbe(%ebp)
  401256:	c6 85 43 ff ff ff 46 	movb   $0x46,-0xbd(%ebp)
  40125d:	c6 85 44 ff ff ff 69 	movb   $0x69,-0xbc(%ebp)
  401264:	c6 85 45 ff ff ff 6c 	movb   $0x6c,-0xbb(%ebp)
  40126b:	c6 85 46 ff ff ff 70 	movb   $0x70,-0xba(%ebp)
  401272:	c6 85 47 ff ff ff 41 	movb   $0x41,-0xb9(%ebp)
  401279:	c6 85 48 ff ff ff 74 	movb   $0x74,-0xb8(%ebp)
  401280:	c6 85 49 ff ff ff 74 	movb   $0x74,-0xb7(%ebp)
  401287:	c6 85 4a ff ff ff 72 	movb   $0x72,-0xb6(%ebp)
  40128e:	c6 85 4b ff ff ff 69 	movb   $0x69,-0xb5(%ebp)
  401295:	c6 85 4c ff ff ff 62 	movb   $0x62,-0xb4(%ebp)
  40129c:	c6 85 4d ff ff ff 75 	movb   $0x75,-0xb3(%ebp)
  4012a3:	c6 85 4e ff ff ff 74 	movb   $0x74,-0xb2(%ebp)
  4012aa:	c6 85 4f ff ff ff 65 	movb   $0x65,-0xb1(%ebp)
  4012b1:	c6 85 50 ff ff ff 73 	movb   $0x73,-0xb0(%ebp)
  4012b8:	c6 85 51 ff ff ff 41 	movb   $0x41,-0xaf(%ebp)
  4012bf:	c6 85 52 ff ff ff 00 	movb   $0x0,-0xae(%ebp)
  4012c6:	b9 08 00 00 00       	mov    $0x8,%ecx
  4012cb:	be b0 fd 40 00       	mov    $0x40fdb0,%esi
  4012d0:	8d bd 20 ff ff ff    	lea    -0xe0(%ebp),%edi
  4012d6:	f3 a5                	rep movsl %ds:(%esi),%es:(%edi)
  4012d8:	c7 05 b0 09 41 00 00 	movl   $0x900,0x4109b0
  4012df:	09 00 00 
  4012e2:	8b 0d b0 09 41 00    	mov    0x4109b0,%ecx
  4012e8:	81 c1 00 01 00 00    	add    $0x100,%ecx
  4012ee:	89 0d b0 09 41 00    	mov    %ecx,0x4109b0
  4012f4:	66 c7 85 20 ff ff ff 	movw   $0x6b,-0xe0(%ebp)
  4012fb:	6b 00 
  4012fd:	8a 95 28 ff ff ff    	mov    -0xd8(%ebp),%dl
  401303:	88 95 41 ff ff ff    	mov    %dl,-0xbf(%ebp)
  401309:	c6 45 9c 65          	movb   $0x65,-0x64(%ebp)
  40130d:	66 c7 85 22 ff ff ff 	movw   $0x65,-0xde(%ebp)
  401314:	65 00 
  401316:	c6 45 a2 45          	movb   $0x45,-0x5e(%ebp)
  40131a:	8a 85 22 ff ff ff    	mov    -0xde(%ebp),%al
  401320:	88 85 46 ff ff ff    	mov    %al,-0xba(%ebp)
  401326:	66 c7 85 2e ff ff ff 	movw   $0x32,-0xd2(%ebp)
  40132d:	32 00 
  40132f:	8d 4d 98             	lea    -0x68(%ebp),%ecx
  401332:	51                   	push   %ecx
  401333:	8d 95 20 ff ff ff    	lea    -0xe0(%ebp),%edx
  401339:	52                   	push   %edx
  40133a:	ff 15 14 60 40 00    	call   *0x406014
  401340:	50                   	push   %eax
  401341:	ff 15 10 60 40 00    	call   *0x406010
  401347:	89 85 54 ff ff ff    	mov    %eax,-0xac(%ebp)
  40134d:	8d 85 40 ff ff ff    	lea    -0xc0(%ebp),%eax
  401353:	50                   	push   %eax
  401354:	8d 8d 20 ff ff ff    	lea    -0xe0(%ebp),%ecx
  40135a:	51                   	push   %ecx
  40135b:	ff 15 0c 60 40 00    	call   *0x40600c
  401361:	50                   	push   %eax
  401362:	ff 15 10 60 40 00    	call   *0x406010
  401368:	89 45 bc             	mov    %eax,-0x44(%ebp)
  40136b:	8b 15 08 60 40 00    	mov    0x406008,%edx
  401371:	89 95 54 ff ff ff    	mov    %edx,-0xac(%ebp)
  401377:	ff b5 5c ff ff ff    	pushl  -0xa4(%ebp)
  40137d:	ff 95 54 ff ff ff    	call   *-0xac(%ebp)
  401383:	89 85 5c ff ff ff    	mov    %eax,-0xa4(%ebp)
  401389:	83 bd 5c ff ff ff 00 	cmpl   $0x0,-0xa4(%ebp)
  401390:	76 13                	jbe    0x4013a5
  401392:	8b 5d bc             	mov    -0x44(%ebp),%ebx
  401395:	ff d3                	call   *%ebx
  401397:	8b 9d 54 ff ff ff    	mov    -0xac(%ebp),%ebx
  40139d:	ff d3                	call   *%ebx
  40139f:	89 85 5c ff ff ff    	mov    %eax,-0xa4(%ebp)
  4013a5:	83 bd 5c ff ff ff 02 	cmpl   $0x2,-0xa4(%ebp)
  4013ac:	74 0d                	je     0x4013bb
  4013ae:	83 bd 5c ff ff ff 7b 	cmpl   $0x7b,-0xa4(%ebp)
  4013b5:	0f 85 ae 00 00 00    	jne    0x401469
  4013bb:	a1 04 60 40 00       	mov    0x406004,%eax
  4013c0:	89 45 d0             	mov    %eax,-0x30(%ebp)
  4013c3:	c7 85 1c ff ff ff 00 	movl   $0x0,-0xe4(%ebp)
  4013ca:	00 00 00 
  4013cd:	8b 4d ec             	mov    -0x14(%ebp),%ecx
  4013d0:	2b 0d b0 09 41 00    	sub    0x4109b0,%ecx
  4013d6:	81 f9 4c 0a 00 00    	cmp    $0xa4c,%ecx
  4013dc:	0f 84 81 00 00 00    	je     0x401463
  4013e2:	8b 95 60 ff ff ff    	mov    -0xa0(%ebp),%edx
  4013e8:	83 c2 01             	add    $0x1,%edx
  4013eb:	89 95 60 ff ff ff    	mov    %edx,-0xa0(%ebp)
  4013f1:	8b 85 70 ff ff ff    	mov    -0x90(%ebp),%eax
  4013f7:	03 45 ec             	add    -0x14(%ebp),%eax
  4013fa:	33 c9                	xor    %ecx,%ecx
  4013fc:	8a 08                	mov    (%eax),%cl
  4013fe:	81 c1 dd 00 00 00    	add    $0xdd,%ecx
  401404:	88 4d e0             	mov    %cl,-0x20(%ebp)
  401407:	8b 55 fc             	mov    -0x4(%ebp),%edx
  40140a:	03 55 ec             	add    -0x14(%ebp),%edx
  40140d:	c6 02 00             	movb   $0x0,(%edx)
  401410:	8b 45 e0             	mov    -0x20(%ebp),%eax
  401413:	25 ff 00 00 00       	and    $0xff,%eax
  401418:	39 85 1c ff ff ff    	cmp    %eax,-0xe4(%ebp)
  40141e:	7d 27                	jge    0x401447
  401420:	8b 4d fc             	mov    -0x4(%ebp),%ecx
  401423:	03 4d ec             	add    -0x14(%ebp),%ecx
  401426:	8a 11                	mov    (%ecx),%dl
  401428:	02 95 58 ff ff ff    	add    -0xa8(%ebp),%dl
  40142e:	8b 45 fc             	mov    -0x4(%ebp),%eax
  401431:	03 45 ec             	add    -0x14(%ebp),%eax
  401434:	88 10                	mov    %dl,(%eax)
  401436:	8b 8d 1c ff ff ff    	mov    -0xe4(%ebp),%ecx
  40143c:	83 c1 01             	add    $0x1,%ecx
  40143f:	89 8d 1c ff ff ff    	mov    %ecx,-0xe4(%ebp)
  401445:	eb c9                	jmp    0x401410
  401447:	8b 55 dc             	mov    -0x24(%ebp),%edx
  40144a:	8b 02                	mov    (%edx),%eax
  40144c:	83 c0 01             	add    $0x1,%eax
  40144f:	8b 4d dc             	mov    -0x24(%ebp),%ecx
  401452:	89 01                	mov    %eax,(%ecx)
  401454:	c7 85 1c ff ff ff 00 	movl   $0x0,-0xe4(%ebp)
  40145b:	00 00 00 
  40145e:	e9 6a ff ff ff       	jmp    0x4013cd
  401463:	ff 75 d0             	pushl  -0x30(%ebp)
  401466:	ff 75 d0             	pushl  -0x30(%ebp)
  401469:	6a 00                	push   $0x0
  40146b:	6a 00                	push   $0x0
  40146d:	6a 00                	push   $0x0
  40146f:	6a 00                	push   $0x0
  401471:	6a 00                	push   $0x0
  401473:	ff 15 e4 60 40 00    	call   *0x4060e4
  401479:	89 45 f8             	mov    %eax,-0x8(%ebp)
  40147c:	c7 85 8c fd ff ff 00 	movl   $0x0,-0x274(%ebp)
  401483:	00 00 00 
  401486:	b9 63 00 00 00       	mov    $0x63,%ecx
  40148b:	33 c0                	xor    %eax,%eax
  40148d:	8d bd 90 fd ff ff    	lea    -0x270(%ebp),%edi
  401493:	f3 ab                	rep stos %eax,%es:(%edi)
  401495:	68 e8 03 00 00       	push   $0x3e8
  40149a:	ff 15 00 60 40 00    	call   *0x406000
  4014a0:	8b 45 fc             	mov    -0x4(%ebp),%eax
  4014a3:	89 85 96 fd ff ff    	mov    %eax,-0x26a(%ebp)
  4014a9:	ff 95 96 fd ff ff    	call   *-0x26a(%ebp)
  4014af:	6a 00                	push   $0x0
  4014b1:	6a 00                	push   $0x0
  4014b3:	6a 00                	push   $0x0
  4014b5:	6a 00                	push   $0x0
  4014b7:	ff 15 d0 60 40 00    	call   *0x4060d0
  4014bd:	e8 14 42 00 00       	call   0x4056d6
  4014c2:	6a 00                	push   $0x0
  4014c4:	6a 00                	push   $0x0
  4014c6:	6a 00                	push   $0x0
  4014c8:	e8 2f 01 00 00       	call   0x4015fc
  4014cd:	83 c4 0c             	add    $0xc,%esp
  4014d0:	5f                   	pop    %edi
  4014d1:	5e                   	pop    %esi
  4014d2:	5b                   	pop    %ebx
  4014d3:	8b e5                	mov    %ebp,%esp
  4014d5:	5d                   	pop    %ebp
  4014d6:	c3                   	ret    
  4014d7:	55                   	push   %ebp
  4014d8:	8b ec                	mov    %esp,%ebp
  4014da:	83 ec 34             	sub    $0x34,%esp
  4014dd:	53                   	push   %ebx
  4014de:	56                   	push   %esi
  4014df:	57                   	push   %edi
  4014e0:	c7 45 d4 00 00 00 00 	movl   $0x0,-0x2c(%ebp)
  4014e7:	c7 45 d8 00 00 00 00 	movl   $0x0,-0x28(%ebp)
  4014ee:	c7 45 f0 00 00 00 00 	movl   $0x0,-0x10(%ebp)
  4014f5:	c7 45 fc 00 00 00 00 	movl   $0x0,-0x4(%ebp)
  4014fc:	c7 45 d0 00 00 00 00 	movl   $0x0,-0x30(%ebp)
  401503:	c7 45 e4 00 00 00 00 	movl   $0x0,-0x1c(%ebp)
  40150a:	c7 45 f4 00 00 00 00 	movl   $0x0,-0xc(%ebp)
  401511:	c7 45 e8 00 00 00 00 	movl   $0x0,-0x18(%ebp)
  401518:	c7 45 ec 00 00 00 00 	movl   $0x0,-0x14(%ebp)
  40151f:	c7 45 e0 00 00 00 00 	movl   $0x0,-0x20(%ebp)
  401526:	c7 45 dc 00 00 00 00 	movl   $0x0,-0x24(%ebp)
  40152d:	c7 45 f8 00 00 00 00 	movl   $0x0,-0x8(%ebp)
  401534:	8b 45 08             	mov    0x8(%ebp),%eax
  401537:	89 45 d0             	mov    %eax,-0x30(%ebp)
  40153a:	83 7d d0 00          	cmpl   $0x0,-0x30(%ebp)
  40153e:	74 4a                	je     0x40158a
  401540:	c7 45 cc 00 00 00 00 	movl   $0x0,-0x34(%ebp)
  401547:	b9 20 00 00 00       	mov    $0x20,%ecx
  40154c:	83 c1 20             	add    $0x20,%ecx
  40154f:	51                   	push   %ecx
  401550:	b9 00 10 00 00       	mov    $0x1000,%ecx
  401555:	51                   	push   %ecx
  401556:	b9 00 14 00 00       	mov    $0x1400,%ecx
  40155b:	51                   	push   %ecx
  40155c:	6a 00                	push   $0x0
  40155e:	8b 5d d0             	mov    -0x30(%ebp),%ebx
  401561:	b8 00 00 00 00       	mov    $0x0,%eax
  401566:	48                   	dec    %eax
  401567:	53                   	push   %ebx
  401568:	8f 45 d0             	popl   -0x30(%ebp)
  40156b:	ff 55 d0             	call   *-0x30(%ebp)
  40156e:	89 45 d0             	mov    %eax,-0x30(%ebp)
  401571:	8b 4d 08             	mov    0x8(%ebp),%ecx
  401574:	83 c1 01             	add    $0x1,%ecx
  401577:	89 4d 08             	mov    %ecx,0x8(%ebp)
  40157a:	8b 55 d0             	mov    -0x30(%ebp),%edx
  40157d:	89 15 b4 09 41 00    	mov    %edx,0x4109b4
  401583:	c7 45 08 0a 00 00 00 	movl   $0xa,0x8(%ebp)
  40158a:	8b 45 08             	mov    0x8(%ebp),%eax
  40158d:	5f                   	pop    %edi
  40158e:	5e                   	pop    %esi
  40158f:	5b                   	pop    %ebx
  401590:	8b e5                	mov    %ebp,%esp
  401592:	5d                   	pop    %ebp
  401593:	c3                   	ret    
  401594:	55                   	push   %ebp
  401595:	8b ec                	mov    %esp,%ebp
  401597:	e8 24 00 00 00       	call   0x4015c0
  40159c:	e8 02 00 00 00       	call   0x4015a3
  4015a1:	5d                   	pop    %ebp
  4015a2:	c3                   	ret    
  4015a3:	55                   	push   %ebp
  4015a4:	8b ec                	mov    %esp,%ebp
  4015a6:	68 f0 15 40 00       	push   $0x4015f0
  4015ab:	e8 eb 00 00 00       	call   0x40169b
  4015b0:	83 c4 04             	add    $0x4,%esp
  4015b3:	5d                   	pop    %ebp
  4015b4:	c3                   	ret    
  4015b5:	cc                   	int3   
  4015b6:	cc                   	int3   
  4015b7:	cc                   	int3   
  4015b8:	cc                   	int3   
  4015b9:	cc                   	int3   
  4015ba:	cc                   	int3   
  4015bb:	cc                   	int3   
  4015bc:	cc                   	int3   
  4015bd:	cc                   	int3   
  4015be:	cc                   	int3   
  4015bf:	cc                   	int3   
  4015c0:	55                   	push   %ebp
  4015c1:	8b ec                	mov    %esp,%ebp
  4015c3:	33 c0                	xor    %eax,%eax
  4015c5:	a0 74 0b 41 00       	mov    0x410b74,%al
  4015ca:	83 e0 01             	and    $0x1,%eax
  4015cd:	85 c0                	test   %eax,%eax
  4015cf:	75 0f                	jne    0x4015e0
  4015d1:	8a 0d 74 0b 41 00    	mov    0x410b74,%cl
  4015d7:	80 c9 01             	or     $0x1,%cl
  4015da:	88 0d 74 0b 41 00    	mov    %cl,0x410b74
  4015e0:	5d                   	pop    %ebp
  4015e1:	c3                   	ret    
  4015e2:	cc                   	int3   
  4015e3:	cc                   	int3   
  4015e4:	cc                   	int3   
  4015e5:	cc                   	int3   
  4015e6:	cc                   	int3   
  4015e7:	cc                   	int3   
  4015e8:	cc                   	int3   
  4015e9:	cc                   	int3   
  4015ea:	cc                   	int3   
  4015eb:	cc                   	int3   
  4015ec:	cc                   	int3   
  4015ed:	cc                   	int3   
  4015ee:	cc                   	int3   
  4015ef:	cc                   	int3   
  4015f0:	55                   	push   %ebp
  4015f1:	8b ec                	mov    %esp,%ebp
  4015f3:	5d                   	pop    %ebp
  4015f4:	c3                   	ret    
  4015f5:	cc                   	int3   
  4015f6:	ff 25 ec 60 40 00    	jmp    *0x4060ec
  4015fc:	55                   	push   %ebp
  4015fd:	8b ec                	mov    %esp,%ebp
  4015ff:	56                   	push   %esi
  401600:	57                   	push   %edi
  401601:	ff 75 08             	pushl  0x8(%ebp)
  401604:	e8 12 02 00 00       	call   0x40181b
  401609:	8b f0                	mov    %eax,%esi
  40160b:	8d 45 10             	lea    0x10(%ebp),%eax
  40160e:	50                   	push   %eax
  40160f:	ff 75 0c             	pushl  0xc(%ebp)
  401612:	ff 75 08             	pushl  0x8(%ebp)
  401615:	e8 cb 02 00 00       	call   0x4018e5
  40161a:	ff 75 08             	pushl  0x8(%ebp)
  40161d:	8b f8                	mov    %eax,%edi
  40161f:	56                   	push   %esi
  401620:	e8 83 02 00 00       	call   0x4018a8
  401625:	83 c4 18             	add    $0x18,%esp
  401628:	8b c7                	mov    %edi,%eax
  40162a:	5f                   	pop    %edi
  40162b:	5e                   	pop    %esi
  40162c:	5d                   	pop    %ebp
  40162d:	c3                   	ret    
  40162e:	56                   	push   %esi
  40162f:	ff 35 10 1f 41 00    	pushl  0x411f10
  401635:	e8 d7 0c 00 00       	call   0x402311
  40163a:	8b 15 10 1f 41 00    	mov    0x411f10,%edx
  401640:	59                   	pop    %ecx
  401641:	8b 0d 0c 1f 41 00    	mov    0x411f0c,%ecx
  401647:	8b f1                	mov    %ecx,%esi
  401649:	2b f2                	sub    %edx,%esi
  40164b:	83 c6 04             	add    $0x4,%esi
  40164e:	3b c6                	cmp    %esi,%eax
  401650:	5e                   	pop    %esi
  401651:	73 3a                	jae    0x40168d
  401653:	52                   	push   %edx
  401654:	e8 b8 0c 00 00       	call   0x402311
  401659:	83 c0 10             	add    $0x10,%eax
  40165c:	50                   	push   %eax
  40165d:	ff 35 10 1f 41 00    	pushl  0x411f10
  401663:	e8 87 0a 00 00       	call   0x4020ef
  401668:	83 c4 0c             	add    $0xc,%esp
  40166b:	85 c0                	test   %eax,%eax
  40166d:	75 01                	jne    0x401670
  40166f:	c3                   	ret    
  401670:	8b 0d 0c 1f 41 00    	mov    0x411f0c,%ecx
  401676:	2b 0d 10 1f 41 00    	sub    0x411f10,%ecx
  40167c:	a3 10 1f 41 00       	mov    %eax,0x411f10
  401681:	c1 f9 02             	sar    $0x2,%ecx
  401684:	8d 0c 88             	lea    (%eax,%ecx,4),%ecx
  401687:	89 0d 0c 1f 41 00    	mov    %ecx,0x411f0c
  40168d:	8b 44 24 04          	mov    0x4(%esp),%eax
  401691:	89 01                	mov    %eax,(%ecx)
  401693:	83 05 0c 1f 41 00 04 	addl   $0x4,0x411f0c
  40169a:	c3                   	ret    
  40169b:	ff 74 24 04          	pushl  0x4(%esp)
  40169f:	e8 8a ff ff ff       	call   0x40162e
  4016a4:	f7 d8                	neg    %eax
  4016a6:	1b c0                	sbb    %eax,%eax
  4016a8:	59                   	pop    %ecx
  4016a9:	f7 d8                	neg    %eax
  4016ab:	48                   	dec    %eax
  4016ac:	c3                   	ret    
  4016ad:	68 80 00 00 00       	push   $0x80
  4016b2:	e8 83 0c 00 00       	call   0x40233a
  4016b7:	85 c0                	test   %eax,%eax
  4016b9:	59                   	pop    %ecx
  4016ba:	a3 10 1f 41 00       	mov    %eax,0x411f10
  4016bf:	75 0d                	jne    0x4016ce
  4016c1:	6a 18                	push   $0x18
  4016c3:	e8 0a 01 00 00       	call   0x4017d2
  4016c8:	a1 10 1f 41 00       	mov    0x411f10,%eax
  4016cd:	59                   	pop    %ecx
  4016ce:	83 20 00             	andl   $0x0,(%eax)
  4016d1:	a1 10 1f 41 00       	mov    0x411f10,%eax
  4016d6:	a3 0c 1f 41 00       	mov    %eax,0x411f0c
  4016db:	c3                   	ret    
  4016dc:	55                   	push   %ebp
  4016dd:	8b ec                	mov    %esp,%ebp
  4016df:	6a ff                	push   $0xffffffff
  4016e1:	68 f8 60 40 00       	push   $0x4060f8
  4016e6:	68 a4 2c 40 00       	push   $0x402ca4
  4016eb:	64 a1 00 00 00 00    	mov    %fs:0x0,%eax
  4016f1:	50                   	push   %eax
  4016f2:	64 89 25 00 00 00 00 	mov    %esp,%fs:0x0
  4016f9:	83 ec 58             	sub    $0x58,%esp
  4016fc:	53                   	push   %ebx
  4016fd:	56                   	push   %esi
  4016fe:	57                   	push   %edi
  4016ff:	89 65 e8             	mov    %esp,-0x18(%ebp)
  401702:	ff 15 4c 60 40 00    	call   *0x40604c
  401708:	33 d2                	xor    %edx,%edx
  40170a:	8a d4                	mov    %ah,%dl
  40170c:	89 15 ec 09 41 00    	mov    %edx,0x4109ec
  401712:	8b c8                	mov    %eax,%ecx
  401714:	81 e1 ff 00 00 00    	and    $0xff,%ecx
  40171a:	89 0d e8 09 41 00    	mov    %ecx,0x4109e8
  401720:	c1 e1 08             	shl    $0x8,%ecx
  401723:	03 ca                	add    %edx,%ecx
  401725:	89 0d e4 09 41 00    	mov    %ecx,0x4109e4
  40172b:	c1 e8 10             	shr    $0x10,%eax
  40172e:	a3 e0 09 41 00       	mov    %eax,0x4109e0
  401733:	33 f6                	xor    %esi,%esi
  401735:	56                   	push   %esi
  401736:	e8 32 14 00 00       	call   0x402b6d
  40173b:	59                   	pop    %ecx
  40173c:	85 c0                	test   %eax,%eax
  40173e:	75 08                	jne    0x401748
  401740:	6a 1c                	push   $0x1c
  401742:	e8 b0 00 00 00       	call   0x4017f7
  401747:	59                   	pop    %ecx
  401748:	89 75 fc             	mov    %esi,-0x4(%ebp)
  40174b:	e8 72 12 00 00       	call   0x4029c2
  401750:	ff 15 48 60 40 00    	call   *0x406048
  401756:	a3 18 1f 41 00       	mov    %eax,0x411f18
  40175b:	e8 30 11 00 00       	call   0x402890
  401760:	a3 c0 09 41 00       	mov    %eax,0x4109c0
  401765:	e8 d9 0e 00 00       	call   0x402643
  40176a:	e8 1b 0e 00 00       	call   0x40258a
  40176f:	e8 9b 0a 00 00       	call   0x40220f
  401774:	89 75 d0             	mov    %esi,-0x30(%ebp)
  401777:	8d 45 a4             	lea    -0x5c(%ebp),%eax
  40177a:	50                   	push   %eax
  40177b:	ff 15 44 60 40 00    	call   *0x406044
  401781:	e8 ac 0d 00 00       	call   0x402532
  401786:	89 45 9c             	mov    %eax,-0x64(%ebp)
  401789:	f6 45 d0 01          	testb  $0x1,-0x30(%ebp)
  40178d:	74 06                	je     0x401795
  40178f:	0f b7 45 d4          	movzwl -0x2c(%ebp),%eax
  401793:	eb 03                	jmp    0x401798
  401795:	6a 0a                	push   $0xa
  401797:	58                   	pop    %eax
  401798:	50                   	push   %eax
  401799:	ff 75 9c             	pushl  -0x64(%ebp)
  40179c:	56                   	push   %esi
  40179d:	56                   	push   %esi
  40179e:	ff 15 04 60 40 00    	call   *0x406004
  4017a4:	50                   	push   %eax
  4017a5:	e8 56 f8 ff ff       	call   0x401000
  4017aa:	89 45 a0             	mov    %eax,-0x60(%ebp)
  4017ad:	50                   	push   %eax
  4017ae:	e8 89 0a 00 00       	call   0x40223c
  4017b3:	8b 45 ec             	mov    -0x14(%ebp),%eax
  4017b6:	8b 08                	mov    (%eax),%ecx
  4017b8:	8b 09                	mov    (%ecx),%ecx
  4017ba:	89 4d 98             	mov    %ecx,-0x68(%ebp)
  4017bd:	50                   	push   %eax
  4017be:	51                   	push   %ecx
  4017bf:	e8 ea 0b 00 00       	call   0x4023ae
  4017c4:	59                   	pop    %ecx
  4017c5:	59                   	pop    %ecx
  4017c6:	c3                   	ret    
  4017c7:	8b 65 e8             	mov    -0x18(%ebp),%esp
  4017ca:	ff 75 98             	pushl  -0x68(%ebp)
  4017cd:	e8 7b 0a 00 00       	call   0x40224d
  4017d2:	83 3d c8 09 41 00 01 	cmpl   $0x1,0x4109c8
  4017d9:	75 05                	jne    0x4017e0
  4017db:	e8 9c 15 00 00       	call   0x402d7c
  4017e0:	ff 74 24 04          	pushl  0x4(%esp)
  4017e4:	e8 cc 15 00 00       	call   0x402db5
  4017e9:	68 ff 00 00 00       	push   $0xff
  4017ee:	ff 15 d0 fd 40 00    	call   *0x40fdd0
  4017f4:	59                   	pop    %ecx
  4017f5:	59                   	pop    %ecx
  4017f6:	c3                   	ret    
  4017f7:	83 3d c8 09 41 00 01 	cmpl   $0x1,0x4109c8
  4017fe:	75 05                	jne    0x401805
  401800:	e8 77 15 00 00       	call   0x402d7c
  401805:	ff 74 24 04          	pushl  0x4(%esp)
  401809:	e8 a7 15 00 00       	call   0x402db5
  40180e:	59                   	pop    %ecx
  40180f:	68 ff 00 00 00       	push   $0xff
  401814:	ff 15 50 60 40 00    	call   *0x406050
  40181a:	c3                   	ret    
  40181b:	56                   	push   %esi
  40181c:	8b 74 24 08          	mov    0x8(%esp),%esi
  401820:	ff 76 10             	pushl  0x10(%esi)
  401823:	e8 99 17 00 00       	call   0x402fc1
  401828:	85 c0                	test   %eax,%eax
  40182a:	59                   	pop    %ecx
  40182b:	74 77                	je     0x4018a4
  40182d:	81 fe 38 ff 40 00    	cmp    $0x40ff38,%esi
  401833:	75 04                	jne    0x401839
  401835:	33 c0                	xor    %eax,%eax
  401837:	eb 0b                	jmp    0x401844
  401839:	81 fe 58 ff 40 00    	cmp    $0x40ff58,%esi
  40183f:	75 63                	jne    0x4018a4
  401841:	6a 01                	push   $0x1
  401843:	58                   	pop    %eax
  401844:	ff 05 30 0b 41 00    	incl   0x410b30
  40184a:	66 f7 46 0c 0c 01    	testw  $0x10c,0xc(%esi)
  401850:	75 52                	jne    0x4018a4
  401852:	83 3c 85 cc 09 41 00 	cmpl   $0x0,0x4109cc(,%eax,4)
  401859:	00 
  40185a:	53                   	push   %ebx
  40185b:	57                   	push   %edi
  40185c:	8d 3c 85 cc 09 41 00 	lea    0x4109cc(,%eax,4),%edi
  401863:	bb 00 10 00 00       	mov    $0x1000,%ebx
  401868:	75 20                	jne    0x40188a
  40186a:	53                   	push   %ebx
  40186b:	e8 ca 0a 00 00       	call   0x40233a
  401870:	85 c0                	test   %eax,%eax
  401872:	59                   	pop    %ecx
  401873:	89 07                	mov    %eax,(%edi)
  401875:	75 13                	jne    0x40188a
  401877:	8d 46 14             	lea    0x14(%esi),%eax
  40187a:	6a 02                	push   $0x2
  40187c:	89 46 08             	mov    %eax,0x8(%esi)
  40187f:	89 06                	mov    %eax,(%esi)
  401881:	58                   	pop    %eax
  401882:	89 46 18             	mov    %eax,0x18(%esi)
  401885:	89 46 04             	mov    %eax,0x4(%esi)
  401888:	eb 0d                	jmp    0x401897
  40188a:	8b 3f                	mov    (%edi),%edi
  40188c:	89 5e 18             	mov    %ebx,0x18(%esi)
  40188f:	89 7e 08             	mov    %edi,0x8(%esi)
  401892:	89 3e                	mov    %edi,(%esi)
  401894:	89 5e 04             	mov    %ebx,0x4(%esi)
  401897:	66 81 4e 0c 02 11    	orw    $0x1102,0xc(%esi)
  40189d:	6a 01                	push   $0x1
  40189f:	58                   	pop    %eax
  4018a0:	5f                   	pop    %edi
  4018a1:	5b                   	pop    %ebx
  4018a2:	5e                   	pop    %esi
  4018a3:	c3                   	ret    
  4018a4:	33 c0                	xor    %eax,%eax
  4018a6:	5e                   	pop    %esi
  4018a7:	c3                   	ret    
  4018a8:	83 7c 24 04 00       	cmpl   $0x0,0x4(%esp)
  4018ad:	56                   	push   %esi
  4018ae:	74 22                	je     0x4018d2
  4018b0:	8b 74 24 0c          	mov    0xc(%esp),%esi
  4018b4:	f6 46 0d 10          	testb  $0x10,0xd(%esi)
  4018b8:	74 29                	je     0x4018e3
  4018ba:	56                   	push   %esi
  4018bb:	e8 62 17 00 00       	call   0x403022
  4018c0:	80 66 0d ee          	andb   $0xee,0xd(%esi)
  4018c4:	83 66 18 00          	andl   $0x0,0x18(%esi)
  4018c8:	83 26 00             	andl   $0x0,(%esi)
  4018cb:	83 66 08 00          	andl   $0x0,0x8(%esi)
  4018cf:	59                   	pop    %ecx
  4018d0:	5e                   	pop    %esi
  4018d1:	c3                   	ret    
  4018d2:	8b 44 24 0c          	mov    0xc(%esp),%eax
  4018d6:	f6 40 0d 10          	testb  $0x10,0xd(%eax)
  4018da:	74 07                	je     0x4018e3
  4018dc:	50                   	push   %eax
  4018dd:	e8 40 17 00 00       	call   0x403022
  4018e2:	59                   	pop    %ecx
  4018e3:	5e                   	pop    %esi
  4018e4:	c3                   	ret    
  4018e5:	55                   	push   %ebp
  4018e6:	8b ec                	mov    %esp,%ebp
  4018e8:	81 ec 48 02 00 00    	sub    $0x248,%esp
  4018ee:	53                   	push   %ebx
  4018ef:	56                   	push   %esi
  4018f0:	57                   	push   %edi
  4018f1:	8b 7d 0c             	mov    0xc(%ebp),%edi
  4018f4:	33 f6                	xor    %esi,%esi
  4018f6:	8a 1f                	mov    (%edi),%bl
  4018f8:	47                   	inc    %edi
  4018f9:	84 db                	test   %bl,%bl
  4018fb:	89 75 f4             	mov    %esi,-0xc(%ebp)
  4018fe:	89 75 ec             	mov    %esi,-0x14(%ebp)
  401901:	89 7d 0c             	mov    %edi,0xc(%ebp)
  401904:	0f 84 f4 06 00 00    	je     0x401ffe
  40190a:	8b 4d f0             	mov    -0x10(%ebp),%ecx
  40190d:	33 d2                	xor    %edx,%edx
  40190f:	eb 08                	jmp    0x401919
  401911:	8b 4d f0             	mov    -0x10(%ebp),%ecx
  401914:	8b 75 d0             	mov    -0x30(%ebp),%esi
  401917:	33 d2                	xor    %edx,%edx
  401919:	39 55 ec             	cmp    %edx,-0x14(%ebp)
  40191c:	0f 8c dc 06 00 00    	jl     0x401ffe
  401922:	80 fb 20             	cmp    $0x20,%bl
  401925:	7c 13                	jl     0x40193a
  401927:	80 fb 78             	cmp    $0x78,%bl
  40192a:	7f 0e                	jg     0x40193a
  40192c:	0f be c3             	movsbl %bl,%eax
  40192f:	8a 80 e4 60 40 00    	mov    0x4060e4(%eax),%al
  401935:	83 e0 0f             	and    $0xf,%eax
  401938:	eb 02                	jmp    0x40193c
  40193a:	33 c0                	xor    %eax,%eax
  40193c:	0f be 84 c6 04 61 40 	movsbl 0x406104(%esi,%eax,8),%eax
  401943:	00 
  401944:	c1 f8 04             	sar    $0x4,%eax
  401947:	83 f8 07             	cmp    $0x7,%eax
  40194a:	89 45 d0             	mov    %eax,-0x30(%ebp)
  40194d:	0f 87 9a 06 00 00    	ja     0x401fed
  401953:	ff 24 85 06 20 40 00 	jmp    *0x402006(,%eax,4)
  40195a:	83 4d f0 ff          	orl    $0xffffffff,-0x10(%ebp)
  40195e:	89 55 cc             	mov    %edx,-0x34(%ebp)
  401961:	89 55 d8             	mov    %edx,-0x28(%ebp)
  401964:	89 55 e0             	mov    %edx,-0x20(%ebp)
  401967:	89 55 e4             	mov    %edx,-0x1c(%ebp)
  40196a:	89 55 fc             	mov    %edx,-0x4(%ebp)
  40196d:	89 55 dc             	mov    %edx,-0x24(%ebp)
  401970:	e9 78 06 00 00       	jmp    0x401fed
  401975:	0f be c3             	movsbl %bl,%eax
  401978:	83 e8 20             	sub    $0x20,%eax
  40197b:	74 3b                	je     0x4019b8
  40197d:	83 e8 03             	sub    $0x3,%eax
  401980:	74 2d                	je     0x4019af
  401982:	83 e8 08             	sub    $0x8,%eax
  401985:	74 1f                	je     0x4019a6
  401987:	48                   	dec    %eax
  401988:	48                   	dec    %eax
  401989:	74 12                	je     0x40199d
  40198b:	83 e8 03             	sub    $0x3,%eax
  40198e:	0f 85 59 06 00 00    	jne    0x401fed
  401994:	83 4d fc 08          	orl    $0x8,-0x4(%ebp)
  401998:	e9 50 06 00 00       	jmp    0x401fed
  40199d:	83 4d fc 04          	orl    $0x4,-0x4(%ebp)
  4019a1:	e9 47 06 00 00       	jmp    0x401fed
  4019a6:	83 4d fc 01          	orl    $0x1,-0x4(%ebp)
  4019aa:	e9 3e 06 00 00       	jmp    0x401fed
  4019af:	80 4d fc 80          	orb    $0x80,-0x4(%ebp)
  4019b3:	e9 35 06 00 00       	jmp    0x401fed
  4019b8:	83 4d fc 02          	orl    $0x2,-0x4(%ebp)
  4019bc:	e9 2c 06 00 00       	jmp    0x401fed
  4019c1:	80 fb 2a             	cmp    $0x2a,%bl
  4019c4:	75 23                	jne    0x4019e9
  4019c6:	8d 45 10             	lea    0x10(%ebp),%eax
  4019c9:	50                   	push   %eax
  4019ca:	e8 f5 06 00 00       	call   0x4020c4
  4019cf:	85 c0                	test   %eax,%eax
  4019d1:	59                   	pop    %ecx
  4019d2:	89 45 e0             	mov    %eax,-0x20(%ebp)
  4019d5:	0f 8d 12 06 00 00    	jge    0x401fed
  4019db:	83 4d fc 04          	orl    $0x4,-0x4(%ebp)
  4019df:	f7 d8                	neg    %eax
  4019e1:	89 45 e0             	mov    %eax,-0x20(%ebp)
  4019e4:	e9 04 06 00 00       	jmp    0x401fed
  4019e9:	8b 45 e0             	mov    -0x20(%ebp),%eax
  4019ec:	0f be cb             	movsbl %bl,%ecx
  4019ef:	8d 04 80             	lea    (%eax,%eax,4),%eax
  4019f2:	8d 44 41 d0          	lea    -0x30(%ecx,%eax,2),%eax
  4019f6:	eb e9                	jmp    0x4019e1
  4019f8:	89 55 f0             	mov    %edx,-0x10(%ebp)
  4019fb:	e9 ed 05 00 00       	jmp    0x401fed
  401a00:	80 fb 2a             	cmp    $0x2a,%bl
  401a03:	75 1e                	jne    0x401a23
  401a05:	8d 45 10             	lea    0x10(%ebp),%eax
  401a08:	50                   	push   %eax
  401a09:	e8 b6 06 00 00       	call   0x4020c4
  401a0e:	85 c0                	test   %eax,%eax
  401a10:	59                   	pop    %ecx
  401a11:	89 45 f0             	mov    %eax,-0x10(%ebp)
  401a14:	0f 8d d3 05 00 00    	jge    0x401fed
  401a1a:	83 4d f0 ff          	orl    $0xffffffff,-0x10(%ebp)
  401a1e:	e9 ca 05 00 00       	jmp    0x401fed
  401a23:	8d 04 89             	lea    (%ecx,%ecx,4),%eax
  401a26:	0f be cb             	movsbl %bl,%ecx
  401a29:	8d 44 41 d0          	lea    -0x30(%ecx,%eax,2),%eax
  401a2d:	89 45 f0             	mov    %eax,-0x10(%ebp)
  401a30:	e9 b8 05 00 00       	jmp    0x401fed
  401a35:	80 fb 49             	cmp    $0x49,%bl
  401a38:	74 2e                	je     0x401a68
  401a3a:	80 fb 68             	cmp    $0x68,%bl
  401a3d:	74 20                	je     0x401a5f
  401a3f:	80 fb 6c             	cmp    $0x6c,%bl
  401a42:	74 12                	je     0x401a56
  401a44:	80 fb 77             	cmp    $0x77,%bl
  401a47:	0f 85 a0 05 00 00    	jne    0x401fed
  401a4d:	80 4d fd 08          	orb    $0x8,-0x3(%ebp)
  401a51:	e9 97 05 00 00       	jmp    0x401fed
  401a56:	83 4d fc 10          	orl    $0x10,-0x4(%ebp)
  401a5a:	e9 8e 05 00 00       	jmp    0x401fed
  401a5f:	83 4d fc 20          	orl    $0x20,-0x4(%ebp)
  401a63:	e9 85 05 00 00       	jmp    0x401fed
  401a68:	80 3f 36             	cmpb   $0x36,(%edi)
  401a6b:	75 14                	jne    0x401a81
  401a6d:	80 7f 01 34          	cmpb   $0x34,0x1(%edi)
  401a71:	75 0e                	jne    0x401a81
  401a73:	47                   	inc    %edi
  401a74:	47                   	inc    %edi
  401a75:	80 4d fd 80          	orb    $0x80,-0x3(%ebp)
  401a79:	89 7d 0c             	mov    %edi,0xc(%ebp)
  401a7c:	e9 6c 05 00 00       	jmp    0x401fed
  401a81:	89 55 d0             	mov    %edx,-0x30(%ebp)
  401a84:	8b 0d b8 01 41 00    	mov    0x4101b8,%ecx
  401a8a:	89 55 dc             	mov    %edx,-0x24(%ebp)
  401a8d:	0f b6 c3             	movzbl %bl,%eax
  401a90:	f6 44 41 01 80       	testb  $0x80,0x1(%ecx,%eax,2)
  401a95:	74 19                	je     0x401ab0
  401a97:	8d 45 ec             	lea    -0x14(%ebp),%eax
  401a9a:	50                   	push   %eax
  401a9b:	ff 75 08             	pushl  0x8(%ebp)
  401a9e:	0f be c3             	movsbl %bl,%eax
  401aa1:	50                   	push   %eax
  401aa2:	e8 7f 05 00 00       	call   0x402026
  401aa7:	8a 1f                	mov    (%edi),%bl
  401aa9:	83 c4 0c             	add    $0xc,%esp
  401aac:	47                   	inc    %edi
  401aad:	89 7d 0c             	mov    %edi,0xc(%ebp)
  401ab0:	8d 45 ec             	lea    -0x14(%ebp),%eax
  401ab3:	50                   	push   %eax
  401ab4:	ff 75 08             	pushl  0x8(%ebp)
  401ab7:	0f be c3             	movsbl %bl,%eax
  401aba:	50                   	push   %eax
  401abb:	e8 66 05 00 00       	call   0x402026
  401ac0:	83 c4 0c             	add    $0xc,%esp
  401ac3:	e9 25 05 00 00       	jmp    0x401fed
  401ac8:	0f be c3             	movsbl %bl,%eax
  401acb:	83 f8 67             	cmp    $0x67,%eax
  401ace:	0f 8f 1c 02 00 00    	jg     0x401cf0
  401ad4:	83 f8 65             	cmp    $0x65,%eax
  401ad7:	0f 8d 96 00 00 00    	jge    0x401b73
  401add:	83 f8 58             	cmp    $0x58,%eax
  401ae0:	0f 8f eb 00 00 00    	jg     0x401bd1
  401ae6:	0f 84 78 02 00 00    	je     0x401d64
  401aec:	83 e8 43             	sub    $0x43,%eax
  401aef:	0f 84 9f 00 00 00    	je     0x401b94
  401af5:	48                   	dec    %eax
  401af6:	48                   	dec    %eax
  401af7:	74 70                	je     0x401b69
  401af9:	48                   	dec    %eax
  401afa:	48                   	dec    %eax
  401afb:	74 6c                	je     0x401b69
  401afd:	83 e8 0c             	sub    $0xc,%eax
  401b00:	0f 85 e9 03 00 00    	jne    0x401eef
  401b06:	66 f7 45 fc 30 08    	testw  $0x830,-0x4(%ebp)
  401b0c:	75 04                	jne    0x401b12
  401b0e:	80 4d fd 08          	orb    $0x8,-0x3(%ebp)
  401b12:	8b 75 f0             	mov    -0x10(%ebp),%esi
  401b15:	83 fe ff             	cmp    $0xffffffff,%esi
  401b18:	75 05                	jne    0x401b1f
  401b1a:	be ff ff ff 7f       	mov    $0x7fffffff,%esi
  401b1f:	8d 45 10             	lea    0x10(%ebp),%eax
  401b22:	50                   	push   %eax
  401b23:	e8 9c 05 00 00       	call   0x4020c4
  401b28:	66 f7 45 fc 10 08    	testw  $0x810,-0x4(%ebp)
  401b2e:	59                   	pop    %ecx
  401b2f:	8b c8                	mov    %eax,%ecx
  401b31:	89 4d f8             	mov    %ecx,-0x8(%ebp)
  401b34:	0f 84 fe 01 00 00    	je     0x401d38
  401b3a:	85 c9                	test   %ecx,%ecx
  401b3c:	75 09                	jne    0x401b47
  401b3e:	8b 0d dc fd 40 00    	mov    0x40fddc,%ecx
  401b44:	89 4d f8             	mov    %ecx,-0x8(%ebp)
  401b47:	c7 45 dc 01 00 00 00 	movl   $0x1,-0x24(%ebp)
  401b4e:	8b c1                	mov    %ecx,%eax
  401b50:	8b d6                	mov    %esi,%edx
  401b52:	4e                   	dec    %esi
  401b53:	85 d2                	test   %edx,%edx
  401b55:	0f 84 d4 01 00 00    	je     0x401d2f
  401b5b:	66 83 38 00          	cmpw   $0x0,(%eax)
  401b5f:	0f 84 ca 01 00 00    	je     0x401d2f
  401b65:	40                   	inc    %eax
  401b66:	40                   	inc    %eax
  401b67:	eb e7                	jmp    0x401b50
  401b69:	c7 45 cc 01 00 00 00 	movl   $0x1,-0x34(%ebp)
  401b70:	80 c3 20             	add    $0x20,%bl
  401b73:	83 4d fc 40          	orl    $0x40,-0x4(%ebp)
  401b77:	8d bd b8 fd ff ff    	lea    -0x248(%ebp),%edi
  401b7d:	3b ca                	cmp    %edx,%ecx
  401b7f:	89 7d f8             	mov    %edi,-0x8(%ebp)
  401b82:	0f 8d cf 00 00 00    	jge    0x401c57
  401b88:	c7 45 f0 06 00 00 00 	movl   $0x6,-0x10(%ebp)
  401b8f:	e9 d1 00 00 00       	jmp    0x401c65
  401b94:	66 f7 45 fc 30 08    	testw  $0x830,-0x4(%ebp)
  401b9a:	75 04                	jne    0x401ba0
  401b9c:	80 4d fd 08          	orb    $0x8,-0x3(%ebp)
  401ba0:	66 f7 45 fc 10 08    	testw  $0x810,-0x4(%ebp)
  401ba6:	8d 45 10             	lea    0x10(%ebp),%eax
  401ba9:	50                   	push   %eax
  401baa:	74 3b                	je     0x401be7
  401bac:	e8 30 05 00 00       	call   0x4020e1
  401bb1:	50                   	push   %eax
  401bb2:	8d 85 b8 fd ff ff    	lea    -0x248(%ebp),%eax
  401bb8:	50                   	push   %eax
  401bb9:	e8 bd 15 00 00       	call   0x40317b
  401bbe:	83 c4 0c             	add    $0xc,%esp
  401bc1:	89 45 f4             	mov    %eax,-0xc(%ebp)
  401bc4:	85 c0                	test   %eax,%eax
  401bc6:	7d 32                	jge    0x401bfa
  401bc8:	c7 45 d8 01 00 00 00 	movl   $0x1,-0x28(%ebp)
  401bcf:	eb 29                	jmp    0x401bfa
  401bd1:	83 e8 5a             	sub    $0x5a,%eax
  401bd4:	74 32                	je     0x401c08
  401bd6:	83 e8 09             	sub    $0x9,%eax
  401bd9:	74 c5                	je     0x401ba0
  401bdb:	48                   	dec    %eax
  401bdc:	0f 84 e8 01 00 00    	je     0x401dca
  401be2:	e9 08 03 00 00       	jmp    0x401eef
  401be7:	e8 d8 04 00 00       	call   0x4020c4
  401bec:	59                   	pop    %ecx
  401bed:	88 85 b8 fd ff ff    	mov    %al,-0x248(%ebp)
  401bf3:	c7 45 f4 01 00 00 00 	movl   $0x1,-0xc(%ebp)
  401bfa:	8d 85 b8 fd ff ff    	lea    -0x248(%ebp),%eax
  401c00:	89 45 f8             	mov    %eax,-0x8(%ebp)
  401c03:	e9 e7 02 00 00       	jmp    0x401eef
  401c08:	8d 45 10             	lea    0x10(%ebp),%eax
  401c0b:	50                   	push   %eax
  401c0c:	e8 b3 04 00 00       	call   0x4020c4
  401c11:	85 c0                	test   %eax,%eax
  401c13:	59                   	pop    %ecx
  401c14:	74 33                	je     0x401c49
  401c16:	8b 48 04             	mov    0x4(%eax),%ecx
  401c19:	85 c9                	test   %ecx,%ecx
  401c1b:	74 2c                	je     0x401c49
  401c1d:	f6 45 fd 08          	testb  $0x8,-0x3(%ebp)
  401c21:	74 17                	je     0x401c3a
  401c23:	0f bf 00             	movswl (%eax),%eax
  401c26:	d1 e8                	shr    %eax
  401c28:	89 4d f8             	mov    %ecx,-0x8(%ebp)
  401c2b:	89 45 f4             	mov    %eax,-0xc(%ebp)
  401c2e:	c7 45 dc 01 00 00 00 	movl   $0x1,-0x24(%ebp)
  401c35:	e9 b5 02 00 00       	jmp    0x401eef
  401c3a:	83 65 dc 00          	andl   $0x0,-0x24(%ebp)
  401c3e:	89 4d f8             	mov    %ecx,-0x8(%ebp)
  401c41:	0f bf 00             	movswl (%eax),%eax
  401c44:	e9 a3 02 00 00       	jmp    0x401eec
  401c49:	a1 d8 fd 40 00       	mov    0x40fdd8,%eax
  401c4e:	89 45 f8             	mov    %eax,-0x8(%ebp)
  401c51:	50                   	push   %eax
  401c52:	e9 8e 00 00 00       	jmp    0x401ce5
  401c57:	75 0c                	jne    0x401c65
  401c59:	80 fb 67             	cmp    $0x67,%bl
  401c5c:	75 07                	jne    0x401c65
  401c5e:	c7 45 f0 01 00 00 00 	movl   $0x1,-0x10(%ebp)
  401c65:	8b 45 10             	mov    0x10(%ebp),%eax
  401c68:	ff 75 cc             	pushl  -0x34(%ebp)
  401c6b:	83 c0 08             	add    $0x8,%eax
  401c6e:	89 45 10             	mov    %eax,0x10(%ebp)
  401c71:	ff 75 f0             	pushl  -0x10(%ebp)
  401c74:	8b 48 f8             	mov    -0x8(%eax),%ecx
  401c77:	89 4d b8             	mov    %ecx,-0x48(%ebp)
  401c7a:	8b 40 fc             	mov    -0x4(%eax),%eax
  401c7d:	89 45 bc             	mov    %eax,-0x44(%ebp)
  401c80:	0f be c3             	movsbl %bl,%eax
  401c83:	50                   	push   %eax
  401c84:	8d 85 b8 fd ff ff    	lea    -0x248(%ebp),%eax
  401c8a:	50                   	push   %eax
  401c8b:	8d 45 b8             	lea    -0x48(%ebp),%eax
  401c8e:	50                   	push   %eax
  401c8f:	ff 15 a0 01 41 00    	call   *0x4101a0
  401c95:	8b 75 fc             	mov    -0x4(%ebp),%esi
  401c98:	83 c4 14             	add    $0x14,%esp
  401c9b:	81 e6 80 00 00 00    	and    $0x80,%esi
  401ca1:	74 14                	je     0x401cb7
  401ca3:	83 7d f0 00          	cmpl   $0x0,-0x10(%ebp)
  401ca7:	75 0e                	jne    0x401cb7
  401ca9:	8d 85 b8 fd ff ff    	lea    -0x248(%ebp),%eax
  401caf:	50                   	push   %eax
  401cb0:	ff 15 ac 01 41 00    	call   *0x4101ac
  401cb6:	59                   	pop    %ecx
  401cb7:	80 fb 67             	cmp    $0x67,%bl
  401cba:	75 12                	jne    0x401cce
  401cbc:	85 f6                	test   %esi,%esi
  401cbe:	75 0e                	jne    0x401cce
  401cc0:	8d 85 b8 fd ff ff    	lea    -0x248(%ebp),%eax
  401cc6:	50                   	push   %eax
  401cc7:	ff 15 a4 01 41 00    	call   *0x4101a4
  401ccd:	59                   	pop    %ecx
  401cce:	80 bd b8 fd ff ff 2d 	cmpb   $0x2d,-0x248(%ebp)
  401cd5:	75 0d                	jne    0x401ce4
  401cd7:	80 4d fd 01          	orb    $0x1,-0x3(%ebp)
  401cdb:	8d bd b9 fd ff ff    	lea    -0x247(%ebp),%edi
  401ce1:	89 7d f8             	mov    %edi,-0x8(%ebp)
  401ce4:	57                   	push   %edi
  401ce5:	e8 16 14 00 00       	call   0x403100
  401cea:	59                   	pop    %ecx
  401ceb:	e9 fc 01 00 00       	jmp    0x401eec
  401cf0:	83 e8 69             	sub    $0x69,%eax
  401cf3:	0f 84 d1 00 00 00    	je     0x401dca
  401cf9:	83 e8 05             	sub    $0x5,%eax
  401cfc:	0f 84 9e 00 00 00    	je     0x401da0
  401d02:	48                   	dec    %eax
  401d03:	0f 84 84 00 00 00    	je     0x401d8d
  401d09:	48                   	dec    %eax
  401d0a:	74 51                	je     0x401d5d
  401d0c:	83 e8 03             	sub    $0x3,%eax
  401d0f:	0f 84 fd fd ff ff    	je     0x401b12
  401d15:	48                   	dec    %eax
  401d16:	48                   	dec    %eax
  401d17:	0f 84 b1 00 00 00    	je     0x401dce
  401d1d:	83 e8 03             	sub    $0x3,%eax
  401d20:	0f 85 c9 01 00 00    	jne    0x401eef
  401d26:	c7 45 d4 27 00 00 00 	movl   $0x27,-0x2c(%ebp)
  401d2d:	eb 3c                	jmp    0x401d6b
  401d2f:	2b c1                	sub    %ecx,%eax
  401d31:	d1 f8                	sar    %eax
  401d33:	e9 b4 01 00 00       	jmp    0x401eec
  401d38:	85 c9                	test   %ecx,%ecx
  401d3a:	75 09                	jne    0x401d45
  401d3c:	8b 0d d8 fd 40 00    	mov    0x40fdd8,%ecx
  401d42:	89 4d f8             	mov    %ecx,-0x8(%ebp)
  401d45:	8b c1                	mov    %ecx,%eax
  401d47:	8b d6                	mov    %esi,%edx
  401d49:	4e                   	dec    %esi
  401d4a:	85 d2                	test   %edx,%edx
  401d4c:	74 08                	je     0x401d56
  401d4e:	80 38 00             	cmpb   $0x0,(%eax)
  401d51:	74 03                	je     0x401d56
  401d53:	40                   	inc    %eax
  401d54:	eb f1                	jmp    0x401d47
  401d56:	2b c1                	sub    %ecx,%eax
  401d58:	e9 8f 01 00 00       	jmp    0x401eec
  401d5d:	c7 45 f0 08 00 00 00 	movl   $0x8,-0x10(%ebp)
  401d64:	c7 45 d4 07 00 00 00 	movl   $0x7,-0x2c(%ebp)
  401d6b:	f6 45 fc 80          	testb  $0x80,-0x4(%ebp)
  401d6f:	c7 45 f4 10 00 00 00 	movl   $0x10,-0xc(%ebp)
  401d76:	74 5d                	je     0x401dd5
  401d78:	8a 45 d4             	mov    -0x2c(%ebp),%al
  401d7b:	c6 45 ea 30          	movb   $0x30,-0x16(%ebp)
  401d7f:	04 51                	add    $0x51,%al
  401d81:	c7 45 e4 02 00 00 00 	movl   $0x2,-0x1c(%ebp)
  401d88:	88 45 eb             	mov    %al,-0x15(%ebp)
  401d8b:	eb 48                	jmp    0x401dd5
  401d8d:	f6 45 fc 80          	testb  $0x80,-0x4(%ebp)
  401d91:	c7 45 f4 08 00 00 00 	movl   $0x8,-0xc(%ebp)
  401d98:	74 3b                	je     0x401dd5
  401d9a:	80 4d fd 02          	orb    $0x2,-0x3(%ebp)
  401d9e:	eb 35                	jmp    0x401dd5
  401da0:	8d 45 10             	lea    0x10(%ebp),%eax
  401da3:	50                   	push   %eax
  401da4:	e8 1b 03 00 00       	call   0x4020c4
  401da9:	f6 45 fc 20          	testb  $0x20,-0x4(%ebp)
  401dad:	59                   	pop    %ecx
  401dae:	74 09                	je     0x401db9
  401db0:	66 8b 4d ec          	mov    -0x14(%ebp),%cx
  401db4:	66 89 08             	mov    %cx,(%eax)
  401db7:	eb 05                	jmp    0x401dbe
  401db9:	8b 4d ec             	mov    -0x14(%ebp),%ecx
  401dbc:	89 08                	mov    %ecx,(%eax)
  401dbe:	c7 45 d8 01 00 00 00 	movl   $0x1,-0x28(%ebp)
  401dc5:	e9 23 02 00 00       	jmp    0x401fed
  401dca:	83 4d fc 40          	orl    $0x40,-0x4(%ebp)
  401dce:	c7 45 f4 0a 00 00 00 	movl   $0xa,-0xc(%ebp)
  401dd5:	f6 45 fd 80          	testb  $0x80,-0x3(%ebp)
  401dd9:	74 0c                	je     0x401de7
  401ddb:	8d 45 10             	lea    0x10(%ebp),%eax
  401dde:	50                   	push   %eax
  401ddf:	e8 ed 02 00 00       	call   0x4020d1
  401de4:	59                   	pop    %ecx
  401de5:	eb 41                	jmp    0x401e28
  401de7:	f6 45 fc 20          	testb  $0x20,-0x4(%ebp)
  401deb:	74 21                	je     0x401e0e
  401ded:	f6 45 fc 40          	testb  $0x40,-0x4(%ebp)
  401df1:	8d 45 10             	lea    0x10(%ebp),%eax
  401df4:	50                   	push   %eax
  401df5:	74 0c                	je     0x401e03
  401df7:	e8 c8 02 00 00       	call   0x4020c4
  401dfc:	59                   	pop    %ecx
  401dfd:	0f bf c0             	movswl %ax,%eax
  401e00:	99                   	cltd   
  401e01:	eb 25                	jmp    0x401e28
  401e03:	e8 bc 02 00 00       	call   0x4020c4
  401e08:	59                   	pop    %ecx
  401e09:	0f b7 c0             	movzwl %ax,%eax
  401e0c:	eb f2                	jmp    0x401e00
  401e0e:	f6 45 fc 40          	testb  $0x40,-0x4(%ebp)
  401e12:	8d 45 10             	lea    0x10(%ebp),%eax
  401e15:	50                   	push   %eax
  401e16:	74 08                	je     0x401e20
  401e18:	e8 a7 02 00 00       	call   0x4020c4
  401e1d:	59                   	pop    %ecx
  401e1e:	eb e0                	jmp    0x401e00
  401e20:	e8 9f 02 00 00       	call   0x4020c4
  401e25:	59                   	pop    %ecx
  401e26:	33 d2                	xor    %edx,%edx
  401e28:	f6 45 fc 40          	testb  $0x40,-0x4(%ebp)
  401e2c:	74 1b                	je     0x401e49
  401e2e:	85 d2                	test   %edx,%edx
  401e30:	7f 17                	jg     0x401e49
  401e32:	7c 04                	jl     0x401e38
  401e34:	85 c0                	test   %eax,%eax
  401e36:	73 11                	jae    0x401e49
  401e38:	f7 d8                	neg    %eax
  401e3a:	83 d2 00             	adc    $0x0,%edx
  401e3d:	8b f0                	mov    %eax,%esi
  401e3f:	f7 da                	neg    %edx
  401e41:	80 4d fd 01          	orb    $0x1,-0x3(%ebp)
  401e45:	8b fa                	mov    %edx,%edi
  401e47:	eb 04                	jmp    0x401e4d
  401e49:	8b f0                	mov    %eax,%esi
  401e4b:	8b fa                	mov    %edx,%edi
  401e4d:	f6 45 fd 80          	testb  $0x80,-0x3(%ebp)
  401e51:	75 03                	jne    0x401e56
  401e53:	83 e7 00             	and    $0x0,%edi
  401e56:	83 7d f0 00          	cmpl   $0x0,-0x10(%ebp)
  401e5a:	7d 09                	jge    0x401e65
  401e5c:	c7 45 f0 01 00 00 00 	movl   $0x1,-0x10(%ebp)
  401e63:	eb 04                	jmp    0x401e69
  401e65:	83 65 fc f7          	andl   $0xfffffff7,-0x4(%ebp)
  401e69:	8b c6                	mov    %esi,%eax
  401e6b:	0b c7                	or     %edi,%eax
  401e6d:	75 04                	jne    0x401e73
  401e6f:	83 65 e4 00          	andl   $0x0,-0x1c(%ebp)
  401e73:	8d 45 b7             	lea    -0x49(%ebp),%eax
  401e76:	89 45 f8             	mov    %eax,-0x8(%ebp)
  401e79:	8b 45 f0             	mov    -0x10(%ebp),%eax
  401e7c:	ff 4d f0             	decl   -0x10(%ebp)
  401e7f:	85 c0                	test   %eax,%eax
  401e81:	7f 06                	jg     0x401e89
  401e83:	8b c6                	mov    %esi,%eax
  401e85:	0b c7                	or     %edi,%eax
  401e87:	74 3b                	je     0x401ec4
  401e89:	8b 45 f4             	mov    -0xc(%ebp),%eax
  401e8c:	99                   	cltd   
  401e8d:	52                   	push   %edx
  401e8e:	50                   	push   %eax
  401e8f:	57                   	push   %edi
  401e90:	56                   	push   %esi
  401e91:	89 45 c0             	mov    %eax,-0x40(%ebp)
  401e94:	89 55 c4             	mov    %edx,-0x3c(%ebp)
  401e97:	e8 c4 13 00 00       	call   0x403260
  401e9c:	ff 75 c4             	pushl  -0x3c(%ebp)
  401e9f:	8b d8                	mov    %eax,%ebx
  401ea1:	83 c3 30             	add    $0x30,%ebx
  401ea4:	ff 75 c0             	pushl  -0x40(%ebp)
  401ea7:	57                   	push   %edi
  401ea8:	56                   	push   %esi
  401ea9:	e8 42 13 00 00       	call   0x4031f0
  401eae:	83 fb 39             	cmp    $0x39,%ebx
  401eb1:	8b f0                	mov    %eax,%esi
  401eb3:	8b fa                	mov    %edx,%edi
  401eb5:	7e 03                	jle    0x401eba
  401eb7:	03 5d d4             	add    -0x2c(%ebp),%ebx
  401eba:	8b 45 f8             	mov    -0x8(%ebp),%eax
  401ebd:	ff 4d f8             	decl   -0x8(%ebp)
  401ec0:	88 18                	mov    %bl,(%eax)
  401ec2:	eb b5                	jmp    0x401e79
  401ec4:	8d 45 b7             	lea    -0x49(%ebp),%eax
  401ec7:	2b 45 f8             	sub    -0x8(%ebp),%eax
  401eca:	ff 45 f8             	incl   -0x8(%ebp)
  401ecd:	f6 45 fd 02          	testb  $0x2,-0x3(%ebp)
  401ed1:	89 45 f4             	mov    %eax,-0xc(%ebp)
  401ed4:	74 19                	je     0x401eef
  401ed6:	8b 4d f8             	mov    -0x8(%ebp),%ecx
  401ed9:	80 39 30             	cmpb   $0x30,(%ecx)
  401edc:	75 04                	jne    0x401ee2
  401ede:	85 c0                	test   %eax,%eax
  401ee0:	75 0d                	jne    0x401eef
  401ee2:	ff 4d f8             	decl   -0x8(%ebp)
  401ee5:	40                   	inc    %eax
  401ee6:	8b 4d f8             	mov    -0x8(%ebp),%ecx
  401ee9:	c6 01 30             	movb   $0x30,(%ecx)
  401eec:	89 45 f4             	mov    %eax,-0xc(%ebp)
  401eef:	83 7d d8 00          	cmpl   $0x0,-0x28(%ebp)
  401ef3:	0f 85 f4 00 00 00    	jne    0x401fed
  401ef9:	8b 5d fc             	mov    -0x4(%ebp),%ebx
  401efc:	f6 c3 40             	test   $0x40,%bl
  401eff:	74 26                	je     0x401f27
  401f01:	f6 c7 01             	test   $0x1,%bh
  401f04:	74 06                	je     0x401f0c
  401f06:	c6 45 ea 2d          	movb   $0x2d,-0x16(%ebp)
  401f0a:	eb 14                	jmp    0x401f20
  401f0c:	f6 c3 01             	test   $0x1,%bl
  401f0f:	74 06                	je     0x401f17
  401f11:	c6 45 ea 2b          	movb   $0x2b,-0x16(%ebp)
  401f15:	eb 09                	jmp    0x401f20
  401f17:	f6 c3 02             	test   $0x2,%bl
  401f1a:	74 0b                	je     0x401f27
  401f1c:	c6 45 ea 20          	movb   $0x20,-0x16(%ebp)
  401f20:	c7 45 e4 01 00 00 00 	movl   $0x1,-0x1c(%ebp)
  401f27:	8b 75 e0             	mov    -0x20(%ebp),%esi
  401f2a:	2b 75 e4             	sub    -0x1c(%ebp),%esi
  401f2d:	2b 75 f4             	sub    -0xc(%ebp),%esi
  401f30:	f6 c3 0c             	test   $0xc,%bl
  401f33:	75 12                	jne    0x401f47
  401f35:	8d 45 ec             	lea    -0x14(%ebp),%eax
  401f38:	50                   	push   %eax
  401f39:	ff 75 08             	pushl  0x8(%ebp)
  401f3c:	56                   	push   %esi
  401f3d:	6a 20                	push   $0x20
  401f3f:	e8 17 01 00 00       	call   0x40205b
  401f44:	83 c4 10             	add    $0x10,%esp
  401f47:	8d 45 ec             	lea    -0x14(%ebp),%eax
  401f4a:	50                   	push   %eax
  401f4b:	8d 45 ea             	lea    -0x16(%ebp),%eax
  401f4e:	ff 75 08             	pushl  0x8(%ebp)
  401f51:	ff 75 e4             	pushl  -0x1c(%ebp)
  401f54:	50                   	push   %eax
  401f55:	e8 32 01 00 00       	call   0x40208c
  401f5a:	83 c4 10             	add    $0x10,%esp
  401f5d:	f6 c3 08             	test   $0x8,%bl
  401f60:	74 17                	je     0x401f79
  401f62:	f6 c3 04             	test   $0x4,%bl
  401f65:	75 12                	jne    0x401f79
  401f67:	8d 45 ec             	lea    -0x14(%ebp),%eax
  401f6a:	50                   	push   %eax
  401f6b:	ff 75 08             	pushl  0x8(%ebp)
  401f6e:	56                   	push   %esi
  401f6f:	6a 30                	push   $0x30
  401f71:	e8 e5 00 00 00       	call   0x40205b
  401f76:	83 c4 10             	add    $0x10,%esp
  401f79:	83 7d dc 00          	cmpl   $0x0,-0x24(%ebp)
  401f7d:	74 41                	je     0x401fc0
  401f7f:	83 7d f4 00          	cmpl   $0x0,-0xc(%ebp)
  401f83:	7e 3b                	jle    0x401fc0
  401f85:	8b 45 f4             	mov    -0xc(%ebp),%eax
  401f88:	8b 5d f8             	mov    -0x8(%ebp),%ebx
  401f8b:	8d 78 ff             	lea    -0x1(%eax),%edi
  401f8e:	66 8b 03             	mov    (%ebx),%ax
  401f91:	43                   	inc    %ebx
  401f92:	50                   	push   %eax
  401f93:	8d 45 c8             	lea    -0x38(%ebp),%eax
  401f96:	50                   	push   %eax
  401f97:	43                   	inc    %ebx
  401f98:	e8 de 11 00 00       	call   0x40317b
  401f9d:	59                   	pop    %ecx
  401f9e:	85 c0                	test   %eax,%eax
  401fa0:	59                   	pop    %ecx
  401fa1:	7e 32                	jle    0x401fd5
  401fa3:	8d 4d ec             	lea    -0x14(%ebp),%ecx
  401fa6:	51                   	push   %ecx
  401fa7:	ff 75 08             	pushl  0x8(%ebp)
  401faa:	50                   	push   %eax
  401fab:	8d 45 c8             	lea    -0x38(%ebp),%eax
  401fae:	50                   	push   %eax
  401faf:	e8 d8 00 00 00       	call   0x40208c
  401fb4:	83 c4 10             	add    $0x10,%esp
  401fb7:	8b c7                	mov    %edi,%eax
  401fb9:	4f                   	dec    %edi
  401fba:	85 c0                	test   %eax,%eax
  401fbc:	75 d0                	jne    0x401f8e
  401fbe:	eb 15                	jmp    0x401fd5
  401fc0:	8d 45 ec             	lea    -0x14(%ebp),%eax
  401fc3:	50                   	push   %eax
  401fc4:	ff 75 08             	pushl  0x8(%ebp)
  401fc7:	ff 75 f4             	pushl  -0xc(%ebp)
  401fca:	ff 75 f8             	pushl  -0x8(%ebp)
  401fcd:	e8 ba 00 00 00       	call   0x40208c
  401fd2:	83 c4 10             	add    $0x10,%esp
  401fd5:	f6 45 fc 04          	testb  $0x4,-0x4(%ebp)
  401fd9:	74 12                	je     0x401fed
  401fdb:	8d 45 ec             	lea    -0x14(%ebp),%eax
  401fde:	50                   	push   %eax
  401fdf:	ff 75 08             	pushl  0x8(%ebp)
  401fe2:	56                   	push   %esi
  401fe3:	6a 20                	push   $0x20
  401fe5:	e8 71 00 00 00       	call   0x40205b
  401fea:	83 c4 10             	add    $0x10,%esp
  401fed:	8b 7d 0c             	mov    0xc(%ebp),%edi
  401ff0:	8a 1f                	mov    (%edi),%bl
  401ff2:	47                   	inc    %edi
  401ff3:	84 db                	test   %bl,%bl
  401ff5:	89 7d 0c             	mov    %edi,0xc(%ebp)
  401ff8:	0f 85 13 f9 ff ff    	jne    0x401911
  401ffe:	8b 45 ec             	mov    -0x14(%ebp),%eax
  402001:	5f                   	pop    %edi
  402002:	5e                   	pop    %esi
  402003:	5b                   	pop    %ebx
  402004:	c9                   	leave  
  402005:	c3                   	ret    
  402006:	84 1a                	test   %bl,(%edx)
  402008:	40                   	inc    %eax
  402009:	00 5a 19             	add    %bl,0x19(%edx)
  40200c:	40                   	inc    %eax
  40200d:	00 75 19             	add    %dh,0x19(%ebp)
  402010:	40                   	inc    %eax
  402011:	00 c1                	add    %al,%cl
  402013:	19 40 00             	sbb    %eax,0x0(%eax)
  402016:	f8                   	clc    
  402017:	19 40 00             	sbb    %eax,0x0(%eax)
  40201a:	00 1a                	add    %bl,(%edx)
  40201c:	40                   	inc    %eax
  40201d:	00 35 1a 40 00 c8    	add    %dh,0xc800401a
  402023:	1a 40 00             	sbb    0x0(%eax),%al
  402026:	55                   	push   %ebp
  402027:	8b ec                	mov    %esp,%ebp
  402029:	8b 4d 0c             	mov    0xc(%ebp),%ecx
  40202c:	ff 49 04             	decl   0x4(%ecx)
  40202f:	78 0e                	js     0x40203f
  402031:	8b 11                	mov    (%ecx),%edx
  402033:	8a 45 08             	mov    0x8(%ebp),%al
  402036:	88 02                	mov    %al,(%edx)
  402038:	ff 01                	incl   (%ecx)
  40203a:	0f b6 c0             	movzbl %al,%eax
  40203d:	eb 0b                	jmp    0x40204a
  40203f:	51                   	push   %ecx
  402040:	ff 75 08             	pushl  0x8(%ebp)
  402043:	e8 8d 12 00 00       	call   0x4032d5
  402048:	59                   	pop    %ecx
  402049:	59                   	pop    %ecx
  40204a:	83 f8 ff             	cmp    $0xffffffff,%eax
  40204d:	8b 45 10             	mov    0x10(%ebp),%eax
  402050:	75 05                	jne    0x402057
  402052:	83 08 ff             	orl    $0xffffffff,(%eax)
  402055:	5d                   	pop    %ebp
  402056:	c3                   	ret    
  402057:	ff 00                	incl   (%eax)
  402059:	5d                   	pop    %ebp
  40205a:	c3                   	ret    
  40205b:	56                   	push   %esi
  40205c:	57                   	push   %edi
  40205d:	8b 7c 24 10          	mov    0x10(%esp),%edi
  402061:	8b c7                	mov    %edi,%eax
  402063:	4f                   	dec    %edi
  402064:	85 c0                	test   %eax,%eax
  402066:	7e 21                	jle    0x402089
  402068:	8b 74 24 18          	mov    0x18(%esp),%esi
  40206c:	56                   	push   %esi
  40206d:	ff 74 24 18          	pushl  0x18(%esp)
  402071:	ff 74 24 14          	pushl  0x14(%esp)
  402075:	e8 ac ff ff ff       	call   0x402026
  40207a:	83 c4 0c             	add    $0xc,%esp
  40207d:	83 3e ff             	cmpl   $0xffffffff,(%esi)
  402080:	74 07                	je     0x402089
  402082:	8b c7                	mov    %edi,%eax
  402084:	4f                   	dec    %edi
  402085:	85 c0                	test   %eax,%eax
  402087:	7f e3                	jg     0x40206c
  402089:	5f                   	pop    %edi
  40208a:	5e                   	pop    %esi
  40208b:	c3                   	ret    
  40208c:	53                   	push   %ebx
  40208d:	8b 5c 24 0c          	mov    0xc(%esp),%ebx
  402091:	8b c3                	mov    %ebx,%eax
  402093:	4b                   	dec    %ebx
  402094:	56                   	push   %esi
  402095:	57                   	push   %edi
  402096:	85 c0                	test   %eax,%eax
  402098:	7e 26                	jle    0x4020c0
  40209a:	8b 7c 24 1c          	mov    0x1c(%esp),%edi
  40209e:	8b 74 24 10          	mov    0x10(%esp),%esi
  4020a2:	0f be 06             	movsbl (%esi),%eax
  4020a5:	57                   	push   %edi
  4020a6:	46                   	inc    %esi
  4020a7:	ff 74 24 1c          	pushl  0x1c(%esp)
  4020ab:	50                   	push   %eax
  4020ac:	e8 75 ff ff ff       	call   0x402026
  4020b1:	83 c4 0c             	add    $0xc,%esp
  4020b4:	83 3f ff             	cmpl   $0xffffffff,(%edi)
  4020b7:	74 07                	je     0x4020c0
  4020b9:	8b c3                	mov    %ebx,%eax
  4020bb:	4b                   	dec    %ebx
  4020bc:	85 c0                	test   %eax,%eax
  4020be:	7f e2                	jg     0x4020a2
  4020c0:	5f                   	pop    %edi
  4020c1:	5e                   	pop    %esi
  4020c2:	5b                   	pop    %ebx
  4020c3:	c3                   	ret    
  4020c4:	8b 44 24 04          	mov    0x4(%esp),%eax
  4020c8:	83 00 04             	addl   $0x4,(%eax)
  4020cb:	8b 00                	mov    (%eax),%eax
  4020cd:	8b 40 fc             	mov    -0x4(%eax),%eax
  4020d0:	c3                   	ret    
  4020d1:	8b 44 24 04          	mov    0x4(%esp),%eax
  4020d5:	83 00 08             	addl   $0x8,(%eax)
  4020d8:	8b 08                	mov    (%eax),%ecx
  4020da:	8b 41 f8             	mov    -0x8(%ecx),%eax
  4020dd:	8b 51 fc             	mov    -0x4(%ecx),%edx
  4020e0:	c3                   	ret    
  4020e1:	8b 44 24 04          	mov    0x4(%esp),%eax
  4020e5:	83 00 04             	addl   $0x4,(%eax)
  4020e8:	8b 00                	mov    (%eax),%eax
  4020ea:	66 8b 40 fc          	mov    -0x4(%eax),%ax
  4020ee:	c3                   	ret    
  4020ef:	53                   	push   %ebx
  4020f0:	8b 5c 24 08          	mov    0x8(%esp),%ebx
  4020f4:	55                   	push   %ebp
  4020f5:	56                   	push   %esi
  4020f6:	85 db                	test   %ebx,%ebx
  4020f8:	57                   	push   %edi
  4020f9:	75 0f                	jne    0x40210a
  4020fb:	ff 74 24 18          	pushl  0x18(%esp)
  4020ff:	e8 36 02 00 00       	call   0x40233a
  402104:	59                   	pop    %ecx
  402105:	e9 00 01 00 00       	jmp    0x40220a
  40210a:	8b 74 24 18          	mov    0x18(%esp),%esi
  40210e:	85 f6                	test   %esi,%esi
  402110:	75 0e                	jne    0x402120
  402112:	53                   	push   %ebx
  402113:	e8 6d 21 00 00       	call   0x404285
  402118:	59                   	pop    %ecx
  402119:	33 c0                	xor    %eax,%eax
  40211b:	e9 ea 00 00 00       	jmp    0x40220a
  402120:	33 ff                	xor    %edi,%edi
  402122:	83 fe e0             	cmp    $0xffffffe0,%esi
  402125:	0f 87 c0 00 00 00    	ja     0x4021eb
  40212b:	53                   	push   %ebx
  40212c:	e8 12 13 00 00       	call   0x403443
  402131:	8b e8                	mov    %eax,%ebp
  402133:	59                   	pop    %ecx
  402134:	85 ed                	test   %ebp,%ebp
  402136:	0f 84 8c 00 00 00    	je     0x4021c8
  40213c:	3b 35 d0 03 41 00    	cmp    0x4103d0,%esi
  402142:	77 44                	ja     0x402188
  402144:	56                   	push   %esi
  402145:	53                   	push   %ebx
  402146:	55                   	push   %ebp
  402147:	e8 02 1b 00 00       	call   0x403c4e
  40214c:	83 c4 0c             	add    $0xc,%esp
  40214f:	85 c0                	test   %eax,%eax
  402151:	74 04                	je     0x402157
  402153:	8b fb                	mov    %ebx,%edi
  402155:	eb 29                	jmp    0x402180
  402157:	56                   	push   %esi
  402158:	e8 3c 16 00 00       	call   0x403799
  40215d:	8b f8                	mov    %eax,%edi
  40215f:	59                   	pop    %ecx
  402160:	85 ff                	test   %edi,%edi
  402162:	74 24                	je     0x402188
  402164:	8b 43 fc             	mov    -0x4(%ebx),%eax
  402167:	48                   	dec    %eax
  402168:	3b c6                	cmp    %esi,%eax
  40216a:	72 02                	jb     0x40216e
  40216c:	8b c6                	mov    %esi,%eax
  40216e:	50                   	push   %eax
  40216f:	53                   	push   %ebx
  402170:	57                   	push   %edi
  402171:	e8 da 1d 00 00       	call   0x403f50
  402176:	53                   	push   %ebx
  402177:	55                   	push   %ebp
  402178:	e8 f1 12 00 00       	call   0x40346e
  40217d:	83 c4 14             	add    $0x14,%esp
  402180:	85 ff                	test   %edi,%edi
  402182:	0f 85 80 00 00 00    	jne    0x402208
  402188:	85 f6                	test   %esi,%esi
  40218a:	75 03                	jne    0x40218f
  40218c:	6a 01                	push   $0x1
  40218e:	5e                   	pop    %esi
  40218f:	83 c6 0f             	add    $0xf,%esi
  402192:	83 e6 f0             	and    $0xfffffff0,%esi
  402195:	56                   	push   %esi
  402196:	6a 00                	push   $0x0
  402198:	ff 35 e4 1d 41 00    	pushl  0x411de4
  40219e:	ff 15 58 60 40 00    	call   *0x406058
  4021a4:	8b f8                	mov    %eax,%edi
  4021a6:	85 ff                	test   %edi,%edi
  4021a8:	74 41                	je     0x4021eb
  4021aa:	8b 43 fc             	mov    -0x4(%ebx),%eax
  4021ad:	48                   	dec    %eax
  4021ae:	3b c6                	cmp    %esi,%eax
  4021b0:	72 02                	jb     0x4021b4
  4021b2:	8b c6                	mov    %esi,%eax
  4021b4:	50                   	push   %eax
  4021b5:	53                   	push   %ebx
  4021b6:	57                   	push   %edi
  4021b7:	e8 94 1d 00 00       	call   0x403f50
  4021bc:	53                   	push   %ebx
  4021bd:	55                   	push   %ebp
  4021be:	e8 ab 12 00 00       	call   0x40346e
  4021c3:	83 c4 14             	add    $0x14,%esp
  4021c6:	eb 1f                	jmp    0x4021e7
  4021c8:	85 f6                	test   %esi,%esi
  4021ca:	75 03                	jne    0x4021cf
  4021cc:	6a 01                	push   $0x1
  4021ce:	5e                   	pop    %esi
  4021cf:	83 c6 0f             	add    $0xf,%esi
  4021d2:	83 e6 f0             	and    $0xfffffff0,%esi
  4021d5:	56                   	push   %esi
  4021d6:	53                   	push   %ebx
  4021d7:	6a 00                	push   $0x0
  4021d9:	ff 35 e4 1d 41 00    	pushl  0x411de4
  4021df:	ff 15 54 60 40 00    	call   *0x406054
  4021e5:	8b f8                	mov    %eax,%edi
  4021e7:	85 ff                	test   %edi,%edi
  4021e9:	75 1d                	jne    0x402208
  4021eb:	83 3d 38 0b 41 00 00 	cmpl   $0x0,0x410b38
  4021f2:	74 14                	je     0x402208
  4021f4:	56                   	push   %esi
  4021f5:	e8 f0 11 00 00       	call   0x4033ea
  4021fa:	85 c0                	test   %eax,%eax
  4021fc:	59                   	pop    %ecx
  4021fd:	0f 85 1d ff ff ff    	jne    0x402120
  402203:	e9 11 ff ff ff       	jmp    0x402119
  402208:	8b c7                	mov    %edi,%eax
  40220a:	5f                   	pop    %edi
  40220b:	5e                   	pop    %esi
  40220c:	5d                   	pop    %ebp
  40220d:	5b                   	pop    %ebx
  40220e:	c3                   	ret    
  40220f:	a1 14 1f 41 00       	mov    0x411f14,%eax
  402214:	85 c0                	test   %eax,%eax
  402216:	74 02                	je     0x40221a
  402218:	ff d0                	call   *%eax
  40221a:	68 1c 70 40 00       	push   $0x40701c
  40221f:	68 0c 70 40 00       	push   $0x40700c
  402224:	e8 ce 00 00 00       	call   0x4022f7
  402229:	68 08 70 40 00       	push   $0x407008
  40222e:	68 00 70 40 00       	push   $0x407000
  402233:	e8 bf 00 00 00       	call   0x4022f7
  402238:	83 c4 10             	add    $0x10,%esp
  40223b:	c3                   	ret    
  40223c:	6a 00                	push   $0x0
  40223e:	6a 00                	push   $0x0
  402240:	ff 74 24 0c          	pushl  0xc(%esp)
  402244:	e8 15 00 00 00       	call   0x40225e
  402249:	83 c4 0c             	add    $0xc,%esp
  40224c:	c3                   	ret    
  40224d:	6a 00                	push   $0x0
  40224f:	6a 01                	push   $0x1
  402251:	ff 74 24 0c          	pushl  0xc(%esp)
  402255:	e8 04 00 00 00       	call   0x40225e
  40225a:	83 c4 0c             	add    $0xc,%esp
  40225d:	c3                   	ret    
  40225e:	57                   	push   %edi
  40225f:	6a 01                	push   $0x1
  402261:	5f                   	pop    %edi
  402262:	39 3d 1c 0a 41 00    	cmp    %edi,0x410a1c
  402268:	75 11                	jne    0x40227b
  40226a:	ff 74 24 08          	pushl  0x8(%esp)
  40226e:	ff 15 5c 60 40 00    	call   *0x40605c
  402274:	50                   	push   %eax
  402275:	ff 15 20 60 40 00    	call   *0x406020
  40227b:	83 7c 24 0c 00       	cmpl   $0x0,0xc(%esp)
  402280:	53                   	push   %ebx
  402281:	8b 5c 24 14          	mov    0x14(%esp),%ebx
  402285:	89 3d 18 0a 41 00    	mov    %edi,0x410a18
  40228b:	88 1d 14 0a 41 00    	mov    %bl,0x410a14
  402291:	75 3c                	jne    0x4022cf
  402293:	a1 10 1f 41 00       	mov    0x411f10,%eax
  402298:	85 c0                	test   %eax,%eax
  40229a:	74 22                	je     0x4022be
  40229c:	8b 0d 0c 1f 41 00    	mov    0x411f0c,%ecx
  4022a2:	56                   	push   %esi
  4022a3:	8d 71 fc             	lea    -0x4(%ecx),%esi
  4022a6:	3b f0                	cmp    %eax,%esi
  4022a8:	72 13                	jb     0x4022bd
  4022aa:	8b 06                	mov    (%esi),%eax
  4022ac:	85 c0                	test   %eax,%eax
  4022ae:	74 02                	je     0x4022b2
  4022b0:	ff d0                	call   *%eax
  4022b2:	83 ee 04             	sub    $0x4,%esi
  4022b5:	3b 35 10 1f 41 00    	cmp    0x411f10,%esi
  4022bb:	73 ed                	jae    0x4022aa
  4022bd:	5e                   	pop    %esi
  4022be:	68 2c 70 40 00       	push   $0x40702c
  4022c3:	68 20 70 40 00       	push   $0x407020
  4022c8:	e8 2a 00 00 00       	call   0x4022f7
  4022cd:	59                   	pop    %ecx
  4022ce:	59                   	pop    %ecx
  4022cf:	68 34 70 40 00       	push   $0x407034
  4022d4:	68 30 70 40 00       	push   $0x407030
  4022d9:	e8 19 00 00 00       	call   0x4022f7
  4022de:	59                   	pop    %ecx
  4022df:	59                   	pop    %ecx
  4022e0:	85 db                	test   %ebx,%ebx
  4022e2:	5b                   	pop    %ebx
  4022e3:	75 10                	jne    0x4022f5
  4022e5:	ff 74 24 08          	pushl  0x8(%esp)
  4022e9:	89 3d 1c 0a 41 00    	mov    %edi,0x410a1c
  4022ef:	ff 15 50 60 40 00    	call   *0x406050
  4022f5:	5f                   	pop    %edi
  4022f6:	c3                   	ret    
  4022f7:	56                   	push   %esi
  4022f8:	8b 74 24 08          	mov    0x8(%esp),%esi
  4022fc:	3b 74 24 0c          	cmp    0xc(%esp),%esi
  402300:	73 0d                	jae    0x40230f
  402302:	8b 06                	mov    (%esi),%eax
  402304:	85 c0                	test   %eax,%eax
  402306:	74 02                	je     0x40230a
  402308:	ff d0                	call   *%eax
  40230a:	83 c6 04             	add    $0x4,%esi
  40230d:	eb ed                	jmp    0x4022fc
  40230f:	5e                   	pop    %esi
  402310:	c3                   	ret    
  402311:	56                   	push   %esi
  402312:	8b 74 24 08          	mov    0x8(%esp),%esi
  402316:	56                   	push   %esi
  402317:	e8 27 11 00 00       	call   0x403443
  40231c:	85 c0                	test   %eax,%eax
  40231e:	59                   	pop    %ecx
  40231f:	74 08                	je     0x402329
  402321:	8b 46 fc             	mov    -0x4(%esi),%eax
  402324:	5e                   	pop    %esi
  402325:	83 e8 09             	sub    $0x9,%eax
  402328:	c3                   	ret    
  402329:	56                   	push   %esi
  40232a:	6a 00                	push   $0x0
  40232c:	ff 35 e4 1d 41 00    	pushl  0x411de4
  402332:	ff 15 60 60 40 00    	call   *0x406060
  402338:	5e                   	pop    %esi
  402339:	c3                   	ret    
  40233a:	ff 35 38 0b 41 00    	pushl  0x410b38
  402340:	ff 74 24 08          	pushl  0x8(%esp)
  402344:	e8 03 00 00 00       	call   0x40234c
  402349:	59                   	pop    %ecx
  40234a:	59                   	pop    %ecx
  40234b:	c3                   	ret    
  40234c:	83 7c 24 04 e0       	cmpl   $0xffffffe0,0x4(%esp)
  402351:	77 22                	ja     0x402375
  402353:	ff 74 24 04          	pushl  0x4(%esp)
  402357:	e8 1c 00 00 00       	call   0x402378
  40235c:	85 c0                	test   %eax,%eax
  40235e:	59                   	pop    %ecx
  40235f:	75 16                	jne    0x402377
  402361:	39 44 24 08          	cmp    %eax,0x8(%esp)
  402365:	74 10                	je     0x402377
  402367:	ff 74 24 04          	pushl  0x4(%esp)
  40236b:	e8 7a 10 00 00       	call   0x4033ea
  402370:	85 c0                	test   %eax,%eax
  402372:	59                   	pop    %ecx
  402373:	75 de                	jne    0x402353
  402375:	33 c0                	xor    %eax,%eax
  402377:	c3                   	ret    
  402378:	56                   	push   %esi
  402379:	8b 74 24 08          	mov    0x8(%esp),%esi
  40237d:	3b 35 d0 03 41 00    	cmp    0x4103d0,%esi
  402383:	77 0b                	ja     0x402390
  402385:	56                   	push   %esi
  402386:	e8 0e 14 00 00       	call   0x403799
  40238b:	85 c0                	test   %eax,%eax
  40238d:	59                   	pop    %ecx
  40238e:	75 1c                	jne    0x4023ac
  402390:	85 f6                	test   %esi,%esi
  402392:	75 03                	jne    0x402397
  402394:	6a 01                	push   $0x1
  402396:	5e                   	pop    %esi
  402397:	83 c6 0f             	add    $0xf,%esi
  40239a:	83 e6 f0             	and    $0xfffffff0,%esi
  40239d:	56                   	push   %esi
  40239e:	6a 00                	push   $0x0
  4023a0:	ff 35 e4 1d 41 00    	pushl  0x411de4
  4023a6:	ff 15 58 60 40 00    	call   *0x406058
  4023ac:	5e                   	pop    %esi
  4023ad:	c3                   	ret    
  4023ae:	55                   	push   %ebp
  4023af:	8b ec                	mov    %esp,%ebp
  4023b1:	53                   	push   %ebx
  4023b2:	ff 75 08             	pushl  0x8(%ebp)
  4023b5:	e8 35 01 00 00       	call   0x4024ef
  4023ba:	85 c0                	test   %eax,%eax
  4023bc:	59                   	pop    %ecx
  4023bd:	0f 84 20 01 00 00    	je     0x4024e3
  4023c3:	8b 58 08             	mov    0x8(%eax),%ebx
  4023c6:	85 db                	test   %ebx,%ebx
  4023c8:	0f 84 15 01 00 00    	je     0x4024e3
  4023ce:	83 fb 05             	cmp    $0x5,%ebx
  4023d1:	75 0c                	jne    0x4023df
  4023d3:	83 60 08 00          	andl   $0x0,0x8(%eax)
  4023d7:	6a 01                	push   $0x1
  4023d9:	58                   	pop    %eax
  4023da:	e9 0d 01 00 00       	jmp    0x4024ec
  4023df:	83 fb 01             	cmp    $0x1,%ebx
  4023e2:	0f 84 f6 00 00 00    	je     0x4024de
  4023e8:	8b 0d 20 0a 41 00    	mov    0x410a20,%ecx
  4023ee:	89 4d 08             	mov    %ecx,0x8(%ebp)
  4023f1:	8b 4d 0c             	mov    0xc(%ebp),%ecx
  4023f4:	89 0d 20 0a 41 00    	mov    %ecx,0x410a20
  4023fa:	8b 48 04             	mov    0x4(%eax),%ecx
  4023fd:	83 f9 08             	cmp    $0x8,%ecx
  402400:	0f 85 c8 00 00 00    	jne    0x4024ce
  402406:	8b 0d 58 fe 40 00    	mov    0x40fe58,%ecx
  40240c:	8b 15 5c fe 40 00    	mov    0x40fe5c,%edx
  402412:	03 d1                	add    %ecx,%edx
  402414:	56                   	push   %esi
  402415:	3b ca                	cmp    %edx,%ecx
  402417:	7d 15                	jge    0x40242e
  402419:	8d 34 49             	lea    (%ecx,%ecx,2),%esi
  40241c:	2b d1                	sub    %ecx,%edx
  40241e:	8d 34 b5 e8 fd 40 00 	lea    0x40fde8(,%esi,4),%esi
  402425:	83 26 00             	andl   $0x0,(%esi)
  402428:	83 c6 0c             	add    $0xc,%esi
  40242b:	4a                   	dec    %edx
  40242c:	75 f7                	jne    0x402425
  40242e:	8b 00                	mov    (%eax),%eax
  402430:	8b 35 64 fe 40 00    	mov    0x40fe64,%esi
  402436:	3d 8e 00 00 c0       	cmp    $0xc000008e,%eax
  40243b:	75 0c                	jne    0x402449
  40243d:	c7 05 64 fe 40 00 83 	movl   $0x83,0x40fe64
  402444:	00 00 00 
  402447:	eb 70                	jmp    0x4024b9
  402449:	3d 90 00 00 c0       	cmp    $0xc0000090,%eax
  40244e:	75 0c                	jne    0x40245c
  402450:	c7 05 64 fe 40 00 81 	movl   $0x81,0x40fe64
  402457:	00 00 00 
  40245a:	eb 5d                	jmp    0x4024b9
  40245c:	3d 91 00 00 c0       	cmp    $0xc0000091,%eax
  402461:	75 0c                	jne    0x40246f
  402463:	c7 05 64 fe 40 00 84 	movl   $0x84,0x40fe64
  40246a:	00 00 00 
  40246d:	eb 4a                	jmp    0x4024b9
  40246f:	3d 93 00 00 c0       	cmp    $0xc0000093,%eax
  402474:	75 0c                	jne    0x402482
  402476:	c7 05 64 fe 40 00 85 	movl   $0x85,0x40fe64
  40247d:	00 00 00 
  402480:	eb 37                	jmp    0x4024b9
  402482:	3d 8d 00 00 c0       	cmp    $0xc000008d,%eax
  402487:	75 0c                	jne    0x402495
  402489:	c7 05 64 fe 40 00 82 	movl   $0x82,0x40fe64
  402490:	00 00 00 
  402493:	eb 24                	jmp    0x4024b9
  402495:	3d 8f 00 00 c0       	cmp    $0xc000008f,%eax
  40249a:	75 0c                	jne    0x4024a8
  40249c:	c7 05 64 fe 40 00 86 	movl   $0x86,0x40fe64
  4024a3:	00 00 00 
  4024a6:	eb 11                	jmp    0x4024b9
  4024a8:	3d 92 00 00 c0       	cmp    $0xc0000092,%eax
  4024ad:	75 0a                	jne    0x4024b9
  4024af:	c7 05 64 fe 40 00 8a 	movl   $0x8a,0x40fe64
  4024b6:	00 00 00 
  4024b9:	ff 35 64 fe 40 00    	pushl  0x40fe64
  4024bf:	6a 08                	push   $0x8
  4024c1:	ff d3                	call   *%ebx
  4024c3:	59                   	pop    %ecx
  4024c4:	89 35 64 fe 40 00    	mov    %esi,0x40fe64
  4024ca:	59                   	pop    %ecx
  4024cb:	5e                   	pop    %esi
  4024cc:	eb 08                	jmp    0x4024d6
  4024ce:	83 60 08 00          	andl   $0x0,0x8(%eax)
  4024d2:	51                   	push   %ecx
  4024d3:	ff d3                	call   *%ebx
  4024d5:	59                   	pop    %ecx
  4024d6:	8b 45 08             	mov    0x8(%ebp),%eax
  4024d9:	a3 20 0a 41 00       	mov    %eax,0x410a20
  4024de:	83 c8 ff             	or     $0xffffffff,%eax
  4024e1:	eb 09                	jmp    0x4024ec
  4024e3:	ff 75 0c             	pushl  0xc(%ebp)
  4024e6:	ff 15 64 60 40 00    	call   *0x406064
  4024ec:	5b                   	pop    %ebx
  4024ed:	5d                   	pop    %ebp
  4024ee:	c3                   	ret    
  4024ef:	8b 54 24 04          	mov    0x4(%esp),%edx
  4024f3:	8b 0d 60 fe 40 00    	mov    0x40fe60,%ecx
  4024f9:	39 15 e0 fd 40 00    	cmp    %edx,0x40fde0
  4024ff:	56                   	push   %esi
  402500:	b8 e0 fd 40 00       	mov    $0x40fde0,%eax
  402505:	74 15                	je     0x40251c
  402507:	8d 34 49             	lea    (%ecx,%ecx,2),%esi
  40250a:	8d 34 b5 e0 fd 40 00 	lea    0x40fde0(,%esi,4),%esi
  402511:	83 c0 0c             	add    $0xc,%eax
  402514:	3b c6                	cmp    %esi,%eax
  402516:	73 04                	jae    0x40251c
  402518:	39 10                	cmp    %edx,(%eax)
  40251a:	75 f5                	jne    0x402511
  40251c:	8d 0c 49             	lea    (%ecx,%ecx,2),%ecx
  40251f:	5e                   	pop    %esi
  402520:	8d 0c 8d e0 fd 40 00 	lea    0x40fde0(,%ecx,4),%ecx
  402527:	3b c1                	cmp    %ecx,%eax
  402529:	73 04                	jae    0x40252f
  40252b:	39 10                	cmp    %edx,(%eax)
  40252d:	74 02                	je     0x402531
  40252f:	33 c0                	xor    %eax,%eax
  402531:	c3                   	ret    
  402532:	83 3d 08 1f 41 00 00 	cmpl   $0x0,0x411f08
  402539:	75 05                	jne    0x402540
  40253b:	e8 7a 21 00 00       	call   0x4046ba
  402540:	56                   	push   %esi
  402541:	8b 35 18 1f 41 00    	mov    0x411f18,%esi
  402547:	8a 06                	mov    (%esi),%al
  402549:	3c 22                	cmp    $0x22,%al
  40254b:	75 25                	jne    0x402572
  40254d:	8a 46 01             	mov    0x1(%esi),%al
  402550:	46                   	inc    %esi
  402551:	3c 22                	cmp    $0x22,%al
  402553:	74 15                	je     0x40256a
  402555:	84 c0                	test   %al,%al
  402557:	74 11                	je     0x40256a
  402559:	0f b6 c0             	movzbl %al,%eax
  40255c:	50                   	push   %eax
  40255d:	e8 52 1d 00 00       	call   0x4042b4
  402562:	85 c0                	test   %eax,%eax
  402564:	59                   	pop    %ecx
  402565:	74 e6                	je     0x40254d
  402567:	46                   	inc    %esi
  402568:	eb e3                	jmp    0x40254d
  40256a:	80 3e 22             	cmpb   $0x22,(%esi)
  40256d:	75 0d                	jne    0x40257c
  40256f:	46                   	inc    %esi
  402570:	eb 0a                	jmp    0x40257c
  402572:	3c 20                	cmp    $0x20,%al
  402574:	76 06                	jbe    0x40257c
  402576:	46                   	inc    %esi
  402577:	80 3e 20             	cmpb   $0x20,(%esi)
  40257a:	77 fa                	ja     0x402576
  40257c:	8a 06                	mov    (%esi),%al
  40257e:	84 c0                	test   %al,%al
  402580:	74 04                	je     0x402586
  402582:	3c 20                	cmp    $0x20,%al
  402584:	76 e9                	jbe    0x40256f
  402586:	8b c6                	mov    %esi,%eax
  402588:	5e                   	pop    %esi
  402589:	c3                   	ret    
  40258a:	53                   	push   %ebx
  40258b:	33 db                	xor    %ebx,%ebx
  40258d:	39 1d 08 1f 41 00    	cmp    %ebx,0x411f08
  402593:	56                   	push   %esi
  402594:	57                   	push   %edi
  402595:	75 05                	jne    0x40259c
  402597:	e8 1e 21 00 00       	call   0x4046ba
  40259c:	8b 35 c0 09 41 00    	mov    0x4109c0,%esi
  4025a2:	33 ff                	xor    %edi,%edi
  4025a4:	8a 06                	mov    (%esi),%al
  4025a6:	3a c3                	cmp    %bl,%al
  4025a8:	74 12                	je     0x4025bc
  4025aa:	3c 3d                	cmp    $0x3d,%al
  4025ac:	74 01                	je     0x4025af
  4025ae:	47                   	inc    %edi
  4025af:	56                   	push   %esi
  4025b0:	e8 4b 0b 00 00       	call   0x403100
  4025b5:	59                   	pop    %ecx
  4025b6:	8d 74 06 01          	lea    0x1(%esi,%eax,1),%esi
  4025ba:	eb e8                	jmp    0x4025a4
  4025bc:	8d 04 bd 04 00 00 00 	lea    0x4(,%edi,4),%eax
  4025c3:	50                   	push   %eax
  4025c4:	e8 71 fd ff ff       	call   0x40233a
  4025c9:	8b f0                	mov    %eax,%esi
  4025cb:	59                   	pop    %ecx
  4025cc:	3b f3                	cmp    %ebx,%esi
  4025ce:	89 35 fc 09 41 00    	mov    %esi,0x4109fc
  4025d4:	75 08                	jne    0x4025de
  4025d6:	6a 09                	push   $0x9
  4025d8:	e8 f5 f1 ff ff       	call   0x4017d2
  4025dd:	59                   	pop    %ecx
  4025de:	8b 3d c0 09 41 00    	mov    0x4109c0,%edi
  4025e4:	38 1f                	cmp    %bl,(%edi)
  4025e6:	74 39                	je     0x402621
  4025e8:	55                   	push   %ebp
  4025e9:	57                   	push   %edi
  4025ea:	e8 11 0b 00 00       	call   0x403100
  4025ef:	8b e8                	mov    %eax,%ebp
  4025f1:	59                   	pop    %ecx
  4025f2:	45                   	inc    %ebp
  4025f3:	80 3f 3d             	cmpb   $0x3d,(%edi)
  4025f6:	74 22                	je     0x40261a
  4025f8:	55                   	push   %ebp
  4025f9:	e8 3c fd ff ff       	call   0x40233a
  4025fe:	3b c3                	cmp    %ebx,%eax
  402600:	59                   	pop    %ecx
  402601:	89 06                	mov    %eax,(%esi)
  402603:	75 08                	jne    0x40260d
  402605:	6a 09                	push   $0x9
  402607:	e8 c6 f1 ff ff       	call   0x4017d2
  40260c:	59                   	pop    %ecx
  40260d:	57                   	push   %edi
  40260e:	ff 36                	pushl  (%esi)
  402610:	e8 cb 20 00 00       	call   0x4046e0
  402615:	59                   	pop    %ecx
  402616:	83 c6 04             	add    $0x4,%esi
  402619:	59                   	pop    %ecx
  40261a:	03 fd                	add    %ebp,%edi
  40261c:	38 1f                	cmp    %bl,(%edi)
  40261e:	75 c9                	jne    0x4025e9
  402620:	5d                   	pop    %ebp
  402621:	ff 35 c0 09 41 00    	pushl  0x4109c0
  402627:	e8 59 1c 00 00       	call   0x404285
  40262c:	59                   	pop    %ecx
  40262d:	89 1d c0 09 41 00    	mov    %ebx,0x4109c0
  402633:	89 1e                	mov    %ebx,(%esi)
  402635:	5f                   	pop    %edi
  402636:	5e                   	pop    %esi
  402637:	c7 05 04 1f 41 00 01 	movl   $0x1,0x411f04
  40263e:	00 00 00 
  402641:	5b                   	pop    %ebx
  402642:	c3                   	ret    
  402643:	55                   	push   %ebp
  402644:	8b ec                	mov    %esp,%ebp
  402646:	51                   	push   %ecx
  402647:	51                   	push   %ecx
  402648:	53                   	push   %ebx
  402649:	33 db                	xor    %ebx,%ebx
  40264b:	39 1d 08 1f 41 00    	cmp    %ebx,0x411f08
  402651:	56                   	push   %esi
  402652:	57                   	push   %edi
  402653:	75 05                	jne    0x40265a
  402655:	e8 60 20 00 00       	call   0x4046ba
  40265a:	be 24 0a 41 00       	mov    $0x410a24,%esi
  40265f:	68 04 01 00 00       	push   $0x104
  402664:	56                   	push   %esi
  402665:	53                   	push   %ebx
  402666:	ff 15 68 60 40 00    	call   *0x406068
  40266c:	a1 18 1f 41 00       	mov    0x411f18,%eax
  402671:	89 35 0c 0a 41 00    	mov    %esi,0x410a0c
  402677:	8b fe                	mov    %esi,%edi
  402679:	38 18                	cmp    %bl,(%eax)
  40267b:	74 02                	je     0x40267f
  40267d:	8b f8                	mov    %eax,%edi
  40267f:	8d 45 f8             	lea    -0x8(%ebp),%eax
  402682:	50                   	push   %eax
  402683:	8d 45 fc             	lea    -0x4(%ebp),%eax
  402686:	50                   	push   %eax
  402687:	53                   	push   %ebx
  402688:	53                   	push   %ebx
  402689:	57                   	push   %edi
  40268a:	e8 4d 00 00 00       	call   0x4026dc
  40268f:	8b 45 f8             	mov    -0x8(%ebp),%eax
  402692:	8b 4d fc             	mov    -0x4(%ebp),%ecx
  402695:	8d 04 88             	lea    (%eax,%ecx,4),%eax
  402698:	50                   	push   %eax
  402699:	e8 9c fc ff ff       	call   0x40233a
  40269e:	8b f0                	mov    %eax,%esi
  4026a0:	83 c4 18             	add    $0x18,%esp
  4026a3:	3b f3                	cmp    %ebx,%esi
  4026a5:	75 08                	jne    0x4026af
  4026a7:	6a 08                	push   $0x8
  4026a9:	e8 24 f1 ff ff       	call   0x4017d2
  4026ae:	59                   	pop    %ecx
  4026af:	8d 45 f8             	lea    -0x8(%ebp),%eax
  4026b2:	50                   	push   %eax
  4026b3:	8d 45 fc             	lea    -0x4(%ebp),%eax
  4026b6:	50                   	push   %eax
  4026b7:	8b 45 fc             	mov    -0x4(%ebp),%eax
  4026ba:	8d 04 86             	lea    (%esi,%eax,4),%eax
  4026bd:	50                   	push   %eax
  4026be:	56                   	push   %esi
  4026bf:	57                   	push   %edi
  4026c0:	e8 17 00 00 00       	call   0x4026dc
  4026c5:	8b 45 fc             	mov    -0x4(%ebp),%eax
  4026c8:	83 c4 14             	add    $0x14,%esp
  4026cb:	48                   	dec    %eax
  4026cc:	89 35 f4 09 41 00    	mov    %esi,0x4109f4
  4026d2:	5f                   	pop    %edi
  4026d3:	5e                   	pop    %esi
  4026d4:	a3 f0 09 41 00       	mov    %eax,0x4109f0
  4026d9:	5b                   	pop    %ebx
  4026da:	c9                   	leave  
  4026db:	c3                   	ret    
  4026dc:	55                   	push   %ebp
  4026dd:	8b ec                	mov    %esp,%ebp
  4026df:	8b 4d 18             	mov    0x18(%ebp),%ecx
  4026e2:	8b 45 14             	mov    0x14(%ebp),%eax
  4026e5:	53                   	push   %ebx
  4026e6:	56                   	push   %esi
  4026e7:	83 21 00             	andl   $0x0,(%ecx)
  4026ea:	8b 75 10             	mov    0x10(%ebp),%esi
  4026ed:	57                   	push   %edi
  4026ee:	8b 7d 0c             	mov    0xc(%ebp),%edi
  4026f1:	c7 00 01 00 00 00    	movl   $0x1,(%eax)
  4026f7:	8b 45 08             	mov    0x8(%ebp),%eax
  4026fa:	85 ff                	test   %edi,%edi
  4026fc:	74 08                	je     0x402706
  4026fe:	89 37                	mov    %esi,(%edi)
  402700:	83 c7 04             	add    $0x4,%edi
  402703:	89 7d 0c             	mov    %edi,0xc(%ebp)
  402706:	80 38 22             	cmpb   $0x22,(%eax)
  402709:	75 44                	jne    0x40274f
  40270b:	8a 50 01             	mov    0x1(%eax),%dl
  40270e:	40                   	inc    %eax
  40270f:	80 fa 22             	cmp    $0x22,%dl
  402712:	74 29                	je     0x40273d
  402714:	84 d2                	test   %dl,%dl
  402716:	74 25                	je     0x40273d
  402718:	0f b6 d2             	movzbl %dl,%edx
  40271b:	f6 82 a1 0c 41 00 04 	testb  $0x4,0x410ca1(%edx)
  402722:	74 0c                	je     0x402730
  402724:	ff 01                	incl   (%ecx)
  402726:	85 f6                	test   %esi,%esi
  402728:	74 06                	je     0x402730
  40272a:	8a 10                	mov    (%eax),%dl
  40272c:	88 16                	mov    %dl,(%esi)
  40272e:	46                   	inc    %esi
  40272f:	40                   	inc    %eax
  402730:	ff 01                	incl   (%ecx)
  402732:	85 f6                	test   %esi,%esi
  402734:	74 d5                	je     0x40270b
  402736:	8a 10                	mov    (%eax),%dl
  402738:	88 16                	mov    %dl,(%esi)
  40273a:	46                   	inc    %esi
  40273b:	eb ce                	jmp    0x40270b
  40273d:	ff 01                	incl   (%ecx)
  40273f:	85 f6                	test   %esi,%esi
  402741:	74 04                	je     0x402747
  402743:	80 26 00             	andb   $0x0,(%esi)
  402746:	46                   	inc    %esi
  402747:	80 38 22             	cmpb   $0x22,(%eax)
  40274a:	75 46                	jne    0x402792
  40274c:	40                   	inc    %eax
  40274d:	eb 43                	jmp    0x402792
  40274f:	ff 01                	incl   (%ecx)
  402751:	85 f6                	test   %esi,%esi
  402753:	74 05                	je     0x40275a
  402755:	8a 10                	mov    (%eax),%dl
  402757:	88 16                	mov    %dl,(%esi)
  402759:	46                   	inc    %esi
  40275a:	8a 10                	mov    (%eax),%dl
  40275c:	40                   	inc    %eax
  40275d:	0f b6 da             	movzbl %dl,%ebx
  402760:	f6 83 a1 0c 41 00 04 	testb  $0x4,0x410ca1(%ebx)
  402767:	74 0c                	je     0x402775
  402769:	ff 01                	incl   (%ecx)
  40276b:	85 f6                	test   %esi,%esi
  40276d:	74 05                	je     0x402774
  40276f:	8a 18                	mov    (%eax),%bl
  402771:	88 1e                	mov    %bl,(%esi)
  402773:	46                   	inc    %esi
  402774:	40                   	inc    %eax
  402775:	80 fa 20             	cmp    $0x20,%dl
  402778:	74 09                	je     0x402783
  40277a:	84 d2                	test   %dl,%dl
  40277c:	74 09                	je     0x402787
  40277e:	80 fa 09             	cmp    $0x9,%dl
  402781:	75 cc                	jne    0x40274f
  402783:	84 d2                	test   %dl,%dl
  402785:	75 03                	jne    0x40278a
  402787:	48                   	dec    %eax
  402788:	eb 08                	jmp    0x402792
  40278a:	85 f6                	test   %esi,%esi
  40278c:	74 04                	je     0x402792
  40278e:	80 66 ff 00          	andb   $0x0,-0x1(%esi)
  402792:	83 65 18 00          	andl   $0x0,0x18(%ebp)
  402796:	80 38 00             	cmpb   $0x0,(%eax)
  402799:	0f 84 e0 00 00 00    	je     0x40287f
  40279f:	8a 10                	mov    (%eax),%dl
  4027a1:	80 fa 20             	cmp    $0x20,%dl
  4027a4:	74 05                	je     0x4027ab
  4027a6:	80 fa 09             	cmp    $0x9,%dl
  4027a9:	75 03                	jne    0x4027ae
  4027ab:	40                   	inc    %eax
  4027ac:	eb f1                	jmp    0x40279f
  4027ae:	80 38 00             	cmpb   $0x0,(%eax)
  4027b1:	0f 84 c8 00 00 00    	je     0x40287f
  4027b7:	85 ff                	test   %edi,%edi
  4027b9:	74 08                	je     0x4027c3
  4027bb:	89 37                	mov    %esi,(%edi)
  4027bd:	83 c7 04             	add    $0x4,%edi
  4027c0:	89 7d 0c             	mov    %edi,0xc(%ebp)
  4027c3:	8b 55 14             	mov    0x14(%ebp),%edx
  4027c6:	ff 02                	incl   (%edx)
  4027c8:	c7 45 08 01 00 00 00 	movl   $0x1,0x8(%ebp)
  4027cf:	33 db                	xor    %ebx,%ebx
  4027d1:	80 38 5c             	cmpb   $0x5c,(%eax)
  4027d4:	75 04                	jne    0x4027da
  4027d6:	40                   	inc    %eax
  4027d7:	43                   	inc    %ebx
  4027d8:	eb f7                	jmp    0x4027d1
  4027da:	80 38 22             	cmpb   $0x22,(%eax)
  4027dd:	75 2c                	jne    0x40280b
  4027df:	f6 c3 01             	test   $0x1,%bl
  4027e2:	75 25                	jne    0x402809
  4027e4:	33 ff                	xor    %edi,%edi
  4027e6:	39 7d 18             	cmp    %edi,0x18(%ebp)
  4027e9:	74 0d                	je     0x4027f8
  4027eb:	80 78 01 22          	cmpb   $0x22,0x1(%eax)
  4027ef:	8d 50 01             	lea    0x1(%eax),%edx
  4027f2:	75 04                	jne    0x4027f8
  4027f4:	8b c2                	mov    %edx,%eax
  4027f6:	eb 03                	jmp    0x4027fb
  4027f8:	89 7d 08             	mov    %edi,0x8(%ebp)
  4027fb:	8b 7d 0c             	mov    0xc(%ebp),%edi
  4027fe:	33 d2                	xor    %edx,%edx
  402800:	39 55 18             	cmp    %edx,0x18(%ebp)
  402803:	0f 94 c2             	sete   %dl
  402806:	89 55 18             	mov    %edx,0x18(%ebp)
  402809:	d1 eb                	shr    %ebx
  40280b:	8b d3                	mov    %ebx,%edx
  40280d:	4b                   	dec    %ebx
  40280e:	85 d2                	test   %edx,%edx
  402810:	74 0e                	je     0x402820
  402812:	43                   	inc    %ebx
  402813:	85 f6                	test   %esi,%esi
  402815:	74 04                	je     0x40281b
  402817:	c6 06 5c             	movb   $0x5c,(%esi)
  40281a:	46                   	inc    %esi
  40281b:	ff 01                	incl   (%ecx)
  40281d:	4b                   	dec    %ebx
  40281e:	75 f3                	jne    0x402813
  402820:	8a 10                	mov    (%eax),%dl
  402822:	84 d2                	test   %dl,%dl
  402824:	74 4a                	je     0x402870
  402826:	83 7d 18 00          	cmpl   $0x0,0x18(%ebp)
  40282a:	75 0a                	jne    0x402836
  40282c:	80 fa 20             	cmp    $0x20,%dl
  40282f:	74 3f                	je     0x402870
  402831:	80 fa 09             	cmp    $0x9,%dl
  402834:	74 3a                	je     0x402870
  402836:	83 7d 08 00          	cmpl   $0x0,0x8(%ebp)
  40283a:	74 2e                	je     0x40286a
  40283c:	85 f6                	test   %esi,%esi
  40283e:	74 19                	je     0x402859
  402840:	0f b6 da             	movzbl %dl,%ebx
  402843:	f6 83 a1 0c 41 00 04 	testb  $0x4,0x410ca1(%ebx)
  40284a:	74 06                	je     0x402852
  40284c:	88 16                	mov    %dl,(%esi)
  40284e:	46                   	inc    %esi
  40284f:	40                   	inc    %eax
  402850:	ff 01                	incl   (%ecx)
  402852:	8a 10                	mov    (%eax),%dl
  402854:	88 16                	mov    %dl,(%esi)
  402856:	46                   	inc    %esi
  402857:	eb 0f                	jmp    0x402868
  402859:	0f b6 d2             	movzbl %dl,%edx
  40285c:	f6 82 a1 0c 41 00 04 	testb  $0x4,0x410ca1(%edx)
  402863:	74 03                	je     0x402868
  402865:	40                   	inc    %eax
  402866:	ff 01                	incl   (%ecx)
  402868:	ff 01                	incl   (%ecx)
  40286a:	40                   	inc    %eax
  40286b:	e9 58 ff ff ff       	jmp    0x4027c8
  402870:	85 f6                	test   %esi,%esi
  402872:	74 04                	je     0x402878
  402874:	80 26 00             	andb   $0x0,(%esi)
  402877:	46                   	inc    %esi
  402878:	ff 01                	incl   (%ecx)
  40287a:	e9 17 ff ff ff       	jmp    0x402796
  40287f:	85 ff                	test   %edi,%edi
  402881:	74 03                	je     0x402886
  402883:	83 27 00             	andl   $0x0,(%edi)
  402886:	8b 45 14             	mov    0x14(%ebp),%eax
  402889:	5f                   	pop    %edi
  40288a:	5e                   	pop    %esi
  40288b:	5b                   	pop    %ebx
  40288c:	ff 00                	incl   (%eax)
  40288e:	5d                   	pop    %ebp
  40288f:	c3                   	ret    
  402890:	51                   	push   %ecx
  402891:	51                   	push   %ecx
  402892:	a1 28 0b 41 00       	mov    0x410b28,%eax
  402897:	53                   	push   %ebx
  402898:	55                   	push   %ebp
  402899:	8b 2d 7c 60 40 00    	mov    0x40607c,%ebp
  40289f:	56                   	push   %esi
  4028a0:	57                   	push   %edi
  4028a1:	33 db                	xor    %ebx,%ebx
  4028a3:	33 f6                	xor    %esi,%esi
  4028a5:	33 ff                	xor    %edi,%edi
  4028a7:	3b c3                	cmp    %ebx,%eax
  4028a9:	75 33                	jne    0x4028de
  4028ab:	ff d5                	call   *%ebp
  4028ad:	8b f0                	mov    %eax,%esi
  4028af:	3b f3                	cmp    %ebx,%esi
  4028b1:	74 0c                	je     0x4028bf
  4028b3:	c7 05 28 0b 41 00 01 	movl   $0x1,0x410b28
  4028ba:	00 00 00 
  4028bd:	eb 28                	jmp    0x4028e7
  4028bf:	ff 15 78 60 40 00    	call   *0x406078
  4028c5:	8b f8                	mov    %eax,%edi
  4028c7:	3b fb                	cmp    %ebx,%edi
  4028c9:	0f 84 ea 00 00 00    	je     0x4029b9
  4028cf:	c7 05 28 0b 41 00 02 	movl   $0x2,0x410b28
  4028d6:	00 00 00 
  4028d9:	e9 8f 00 00 00       	jmp    0x40296d
  4028de:	83 f8 01             	cmp    $0x1,%eax
  4028e1:	0f 85 81 00 00 00    	jne    0x402968
  4028e7:	3b f3                	cmp    %ebx,%esi
  4028e9:	75 0c                	jne    0x4028f7
  4028eb:	ff d5                	call   *%ebp
  4028ed:	8b f0                	mov    %eax,%esi
  4028ef:	3b f3                	cmp    %ebx,%esi
  4028f1:	0f 84 c2 00 00 00    	je     0x4029b9
  4028f7:	66 39 1e             	cmp    %bx,(%esi)
  4028fa:	8b c6                	mov    %esi,%eax
  4028fc:	74 0e                	je     0x40290c
  4028fe:	40                   	inc    %eax
  4028ff:	40                   	inc    %eax
  402900:	66 39 18             	cmp    %bx,(%eax)
  402903:	75 f9                	jne    0x4028fe
  402905:	40                   	inc    %eax
  402906:	40                   	inc    %eax
  402907:	66 39 18             	cmp    %bx,(%eax)
  40290a:	75 f2                	jne    0x4028fe
  40290c:	2b c6                	sub    %esi,%eax
  40290e:	8b 3d 74 60 40 00    	mov    0x406074,%edi
  402914:	d1 f8                	sar    %eax
  402916:	53                   	push   %ebx
  402917:	53                   	push   %ebx
  402918:	40                   	inc    %eax
  402919:	53                   	push   %ebx
  40291a:	53                   	push   %ebx
  40291b:	50                   	push   %eax
  40291c:	56                   	push   %esi
  40291d:	53                   	push   %ebx
  40291e:	53                   	push   %ebx
  40291f:	89 44 24 34          	mov    %eax,0x34(%esp)
  402923:	ff d7                	call   *%edi
  402925:	8b e8                	mov    %eax,%ebp
  402927:	3b eb                	cmp    %ebx,%ebp
  402929:	74 32                	je     0x40295d
  40292b:	55                   	push   %ebp
  40292c:	e8 09 fa ff ff       	call   0x40233a
  402931:	3b c3                	cmp    %ebx,%eax
  402933:	59                   	pop    %ecx
  402934:	89 44 24 10          	mov    %eax,0x10(%esp)
  402938:	74 23                	je     0x40295d
  40293a:	53                   	push   %ebx
  40293b:	53                   	push   %ebx
  40293c:	55                   	push   %ebp
  40293d:	50                   	push   %eax
  40293e:	ff 74 24 24          	pushl  0x24(%esp)
  402942:	56                   	push   %esi
  402943:	53                   	push   %ebx
  402944:	53                   	push   %ebx
  402945:	ff d7                	call   *%edi
  402947:	85 c0                	test   %eax,%eax
  402949:	75 0e                	jne    0x402959
  40294b:	ff 74 24 10          	pushl  0x10(%esp)
  40294f:	e8 31 19 00 00       	call   0x404285
  402954:	59                   	pop    %ecx
  402955:	89 5c 24 10          	mov    %ebx,0x10(%esp)
  402959:	8b 5c 24 10          	mov    0x10(%esp),%ebx
  40295d:	56                   	push   %esi
  40295e:	ff 15 70 60 40 00    	call   *0x406070
  402964:	8b c3                	mov    %ebx,%eax
  402966:	eb 53                	jmp    0x4029bb
  402968:	83 f8 02             	cmp    $0x2,%eax
  40296b:	75 4c                	jne    0x4029b9
  40296d:	3b fb                	cmp    %ebx,%edi
  40296f:	75 0c                	jne    0x40297d
  402971:	ff 15 78 60 40 00    	call   *0x406078
  402977:	8b f8                	mov    %eax,%edi
  402979:	3b fb                	cmp    %ebx,%edi
  40297b:	74 3c                	je     0x4029b9
  40297d:	38 1f                	cmp    %bl,(%edi)
  40297f:	8b c7                	mov    %edi,%eax
  402981:	74 0a                	je     0x40298d
  402983:	40                   	inc    %eax
  402984:	38 18                	cmp    %bl,(%eax)
  402986:	75 fb                	jne    0x402983
  402988:	40                   	inc    %eax
  402989:	38 18                	cmp    %bl,(%eax)
  40298b:	75 f6                	jne    0x402983
  40298d:	2b c7                	sub    %edi,%eax
  40298f:	40                   	inc    %eax
  402990:	8b e8                	mov    %eax,%ebp
  402992:	55                   	push   %ebp
  402993:	e8 a2 f9 ff ff       	call   0x40233a
  402998:	8b f0                	mov    %eax,%esi
  40299a:	59                   	pop    %ecx
  40299b:	3b f3                	cmp    %ebx,%esi
  40299d:	75 04                	jne    0x4029a3
  40299f:	33 f6                	xor    %esi,%esi
  4029a1:	eb 0b                	jmp    0x4029ae
  4029a3:	55                   	push   %ebp
  4029a4:	57                   	push   %edi
  4029a5:	56                   	push   %esi
  4029a6:	e8 a5 15 00 00       	call   0x403f50
  4029ab:	83 c4 0c             	add    $0xc,%esp
  4029ae:	57                   	push   %edi
  4029af:	ff 15 6c 60 40 00    	call   *0x40606c
  4029b5:	8b c6                	mov    %esi,%eax
  4029b7:	eb 02                	jmp    0x4029bb
  4029b9:	33 c0                	xor    %eax,%eax
  4029bb:	5f                   	pop    %edi
  4029bc:	5e                   	pop    %esi
  4029bd:	5d                   	pop    %ebp
  4029be:	5b                   	pop    %ebx
  4029bf:	59                   	pop    %ecx
  4029c0:	59                   	pop    %ecx
  4029c1:	c3                   	ret    
  4029c2:	83 ec 44             	sub    $0x44,%esp
  4029c5:	53                   	push   %ebx
  4029c6:	55                   	push   %ebp
  4029c7:	56                   	push   %esi
  4029c8:	57                   	push   %edi
  4029c9:	68 00 01 00 00       	push   $0x100
  4029ce:	e8 67 f9 ff ff       	call   0x40233a
  4029d3:	8b f0                	mov    %eax,%esi
  4029d5:	59                   	pop    %ecx
  4029d6:	85 f6                	test   %esi,%esi
  4029d8:	75 08                	jne    0x4029e2
  4029da:	6a 1b                	push   $0x1b
  4029dc:	e8 f1 ed ff ff       	call   0x4017d2
  4029e1:	59                   	pop    %ecx
  4029e2:	89 35 00 1e 41 00    	mov    %esi,0x411e00
  4029e8:	c7 05 00 1f 41 00 20 	movl   $0x20,0x411f00
  4029ef:	00 00 00 
  4029f2:	8d 86 00 01 00 00    	lea    0x100(%esi),%eax
  4029f8:	3b f0                	cmp    %eax,%esi
  4029fa:	73 1a                	jae    0x402a16
  4029fc:	80 66 04 00          	andb   $0x0,0x4(%esi)
  402a00:	83 0e ff             	orl    $0xffffffff,(%esi)
  402a03:	c6 46 05 0a          	movb   $0xa,0x5(%esi)
  402a07:	a1 00 1e 41 00       	mov    0x411e00,%eax
  402a0c:	83 c6 08             	add    $0x8,%esi
  402a0f:	05 00 01 00 00       	add    $0x100,%eax
  402a14:	eb e2                	jmp    0x4029f8
  402a16:	8d 44 24 10          	lea    0x10(%esp),%eax
  402a1a:	50                   	push   %eax
  402a1b:	ff 15 44 60 40 00    	call   *0x406044
  402a21:	66 83 7c 24 42 00    	cmpw   $0x0,0x42(%esp)
  402a27:	0f 84 c5 00 00 00    	je     0x402af2
  402a2d:	8b 44 24 44          	mov    0x44(%esp),%eax
  402a31:	85 c0                	test   %eax,%eax
  402a33:	0f 84 b9 00 00 00    	je     0x402af2
  402a39:	8b 30                	mov    (%eax),%esi
  402a3b:	8d 68 04             	lea    0x4(%eax),%ebp
  402a3e:	b8 00 08 00 00       	mov    $0x800,%eax
  402a43:	3b f0                	cmp    %eax,%esi
  402a45:	8d 1c 2e             	lea    (%esi,%ebp,1),%ebx
  402a48:	7c 02                	jl     0x402a4c
  402a4a:	8b f0                	mov    %eax,%esi
  402a4c:	39 35 00 1f 41 00    	cmp    %esi,0x411f00
  402a52:	7d 52                	jge    0x402aa6
  402a54:	bf 04 1e 41 00       	mov    $0x411e04,%edi
  402a59:	68 00 01 00 00       	push   $0x100
  402a5e:	e8 d7 f8 ff ff       	call   0x40233a
  402a63:	85 c0                	test   %eax,%eax
  402a65:	59                   	pop    %ecx
  402a66:	74 38                	je     0x402aa0
  402a68:	83 05 00 1f 41 00 20 	addl   $0x20,0x411f00
  402a6f:	89 07                	mov    %eax,(%edi)
  402a71:	8d 88 00 01 00 00    	lea    0x100(%eax),%ecx
  402a77:	3b c1                	cmp    %ecx,%eax
  402a79:	73 18                	jae    0x402a93
  402a7b:	80 60 04 00          	andb   $0x0,0x4(%eax)
  402a7f:	83 08 ff             	orl    $0xffffffff,(%eax)
  402a82:	c6 40 05 0a          	movb   $0xa,0x5(%eax)
  402a86:	8b 0f                	mov    (%edi),%ecx
  402a88:	83 c0 08             	add    $0x8,%eax
  402a8b:	81 c1 00 01 00 00    	add    $0x100,%ecx
  402a91:	eb e4                	jmp    0x402a77
  402a93:	83 c7 04             	add    $0x4,%edi
  402a96:	39 35 00 1f 41 00    	cmp    %esi,0x411f00
  402a9c:	7c bb                	jl     0x402a59
  402a9e:	eb 06                	jmp    0x402aa6
  402aa0:	8b 35 00 1f 41 00    	mov    0x411f00,%esi
  402aa6:	33 ff                	xor    %edi,%edi
  402aa8:	85 f6                	test   %esi,%esi
  402aaa:	7e 46                	jle    0x402af2
  402aac:	8b 03                	mov    (%ebx),%eax
  402aae:	83 f8 ff             	cmp    $0xffffffff,%eax
  402ab1:	74 36                	je     0x402ae9
  402ab3:	8a 4d 00             	mov    0x0(%ebp),%cl
  402ab6:	f6 c1 01             	test   $0x1,%cl
  402ab9:	74 2e                	je     0x402ae9
  402abb:	f6 c1 08             	test   $0x8,%cl
  402abe:	75 0b                	jne    0x402acb
  402ac0:	50                   	push   %eax
  402ac1:	ff 15 88 60 40 00    	call   *0x406088
  402ac7:	85 c0                	test   %eax,%eax
  402ac9:	74 1e                	je     0x402ae9
  402acb:	8b c7                	mov    %edi,%eax
  402acd:	8b cf                	mov    %edi,%ecx
  402acf:	c1 f8 05             	sar    $0x5,%eax
  402ad2:	83 e1 1f             	and    $0x1f,%ecx
  402ad5:	8b 04 85 00 1e 41 00 	mov    0x411e00(,%eax,4),%eax
  402adc:	8d 04 c8             	lea    (%eax,%ecx,8),%eax
  402adf:	8b 0b                	mov    (%ebx),%ecx
  402ae1:	89 08                	mov    %ecx,(%eax)
  402ae3:	8a 4d 00             	mov    0x0(%ebp),%cl
  402ae6:	88 48 04             	mov    %cl,0x4(%eax)
  402ae9:	47                   	inc    %edi
  402aea:	45                   	inc    %ebp
  402aeb:	83 c3 04             	add    $0x4,%ebx
  402aee:	3b fe                	cmp    %esi,%edi
  402af0:	7c ba                	jl     0x402aac
  402af2:	33 db                	xor    %ebx,%ebx
  402af4:	a1 00 1e 41 00       	mov    0x411e00,%eax
  402af9:	83 3c d8 ff          	cmpl   $0xffffffff,(%eax,%ebx,8)
  402afd:	8d 34 d8             	lea    (%eax,%ebx,8),%esi
  402b00:	75 4d                	jne    0x402b4f
  402b02:	85 db                	test   %ebx,%ebx
  402b04:	c6 46 04 81          	movb   $0x81,0x4(%esi)
  402b08:	75 05                	jne    0x402b0f
  402b0a:	6a f6                	push   $0xfffffff6
  402b0c:	58                   	pop    %eax
  402b0d:	eb 0a                	jmp    0x402b19
  402b0f:	8b c3                	mov    %ebx,%eax
  402b11:	48                   	dec    %eax
  402b12:	f7 d8                	neg    %eax
  402b14:	1b c0                	sbb    %eax,%eax
  402b16:	83 c0 f5             	add    $0xfffffff5,%eax
  402b19:	50                   	push   %eax
  402b1a:	ff 15 84 60 40 00    	call   *0x406084
  402b20:	8b f8                	mov    %eax,%edi
  402b22:	83 ff ff             	cmp    $0xffffffff,%edi
  402b25:	74 17                	je     0x402b3e
  402b27:	57                   	push   %edi
  402b28:	ff 15 88 60 40 00    	call   *0x406088
  402b2e:	85 c0                	test   %eax,%eax
  402b30:	74 0c                	je     0x402b3e
  402b32:	25 ff 00 00 00       	and    $0xff,%eax
  402b37:	89 3e                	mov    %edi,(%esi)
  402b39:	83 f8 02             	cmp    $0x2,%eax
  402b3c:	75 06                	jne    0x402b44
  402b3e:	80 4e 04 40          	orb    $0x40,0x4(%esi)
  402b42:	eb 0f                	jmp    0x402b53
  402b44:	83 f8 03             	cmp    $0x3,%eax
  402b47:	75 0a                	jne    0x402b53
  402b49:	80 4e 04 08          	orb    $0x8,0x4(%esi)
  402b4d:	eb 04                	jmp    0x402b53
  402b4f:	80 4e 04 80          	orb    $0x80,0x4(%esi)
  402b53:	43                   	inc    %ebx
  402b54:	83 fb 03             	cmp    $0x3,%ebx
  402b57:	7c 9b                	jl     0x402af4
  402b59:	ff 35 00 1f 41 00    	pushl  0x411f00
  402b5f:	ff 15 80 60 40 00    	call   *0x406080
  402b65:	5f                   	pop    %edi
  402b66:	5e                   	pop    %esi
  402b67:	5d                   	pop    %ebp
  402b68:	5b                   	pop    %ebx
  402b69:	83 c4 44             	add    $0x44,%esp
  402b6c:	c3                   	ret    
  402b6d:	33 c0                	xor    %eax,%eax
  402b6f:	6a 00                	push   $0x0
  402b71:	39 44 24 08          	cmp    %eax,0x8(%esp)
  402b75:	68 00 10 00 00       	push   $0x1000
  402b7a:	0f 94 c0             	sete   %al
  402b7d:	50                   	push   %eax
  402b7e:	ff 15 90 60 40 00    	call   *0x406090
  402b84:	85 c0                	test   %eax,%eax
  402b86:	a3 e4 1d 41 00       	mov    %eax,0x411de4
  402b8b:	74 15                	je     0x402ba2
  402b8d:	e8 73 08 00 00       	call   0x403405
  402b92:	85 c0                	test   %eax,%eax
  402b94:	75 0f                	jne    0x402ba5
  402b96:	ff 35 e4 1d 41 00    	pushl  0x411de4
  402b9c:	ff 15 8c 60 40 00    	call   *0x40608c
  402ba2:	33 c0                	xor    %eax,%eax
  402ba4:	c3                   	ret    
  402ba5:	6a 01                	push   $0x1
  402ba7:	58                   	pop    %eax
  402ba8:	c3                   	ret    
  402ba9:	cc                   	int3   
  402baa:	cc                   	int3   
  402bab:	cc                   	int3   
  402bac:	55                   	push   %ebp
  402bad:	8b ec                	mov    %esp,%ebp
  402baf:	53                   	push   %ebx
  402bb0:	56                   	push   %esi
  402bb1:	57                   	push   %edi
  402bb2:	55                   	push   %ebp
  402bb3:	6a 00                	push   $0x0
  402bb5:	6a 00                	push   $0x0
  402bb7:	68 c4 2b 40 00       	push   $0x402bc4
  402bbc:	ff 75 08             	pushl  0x8(%ebp)
  402bbf:	e8 0c 2b 00 00       	call   0x4056d0
  402bc4:	5d                   	pop    %ebp
  402bc5:	5f                   	pop    %edi
  402bc6:	5e                   	pop    %esi
  402bc7:	5b                   	pop    %ebx
  402bc8:	8b e5                	mov    %ebp,%esp
  402bca:	5d                   	pop    %ebp
  402bcb:	c3                   	ret    
  402bcc:	8b 4c 24 04          	mov    0x4(%esp),%ecx
  402bd0:	f7 41 04 06 00 00 00 	testl  $0x6,0x4(%ecx)
  402bd7:	b8 01 00 00 00       	mov    $0x1,%eax
  402bdc:	74 0f                	je     0x402bed
  402bde:	8b 44 24 08          	mov    0x8(%esp),%eax
  402be2:	8b 54 24 10          	mov    0x10(%esp),%edx
  402be6:	89 02                	mov    %eax,(%edx)
  402be8:	b8 03 00 00 00       	mov    $0x3,%eax
  402bed:	c3                   	ret    
  402bee:	53                   	push   %ebx
  402bef:	56                   	push   %esi
  402bf0:	57                   	push   %edi
  402bf1:	8b 44 24 10          	mov    0x10(%esp),%eax
  402bf5:	50                   	push   %eax
  402bf6:	6a fe                	push   $0xfffffffe
  402bf8:	68 cc 2b 40 00       	push   $0x402bcc
  402bfd:	64 ff 35 00 00 00 00 	pushl  %fs:0x0
  402c04:	64 89 25 00 00 00 00 	mov    %esp,%fs:0x0
  402c0b:	8b 44 24 20          	mov    0x20(%esp),%eax
  402c0f:	8b 58 08             	mov    0x8(%eax),%ebx
  402c12:	8b 70 0c             	mov    0xc(%eax),%esi
  402c15:	83 fe ff             	cmp    $0xffffffff,%esi
  402c18:	74 2e                	je     0x402c48
  402c1a:	3b 74 24 24          	cmp    0x24(%esp),%esi
  402c1e:	74 28                	je     0x402c48
  402c20:	8d 34 76             	lea    (%esi,%esi,2),%esi
  402c23:	8b 0c b3             	mov    (%ebx,%esi,4),%ecx
  402c26:	89 4c 24 08          	mov    %ecx,0x8(%esp)
  402c2a:	89 48 0c             	mov    %ecx,0xc(%eax)
  402c2d:	83 7c b3 04 00       	cmpl   $0x0,0x4(%ebx,%esi,4)
  402c32:	75 12                	jne    0x402c46
  402c34:	68 01 01 00 00       	push   $0x101
  402c39:	8b 44 b3 08          	mov    0x8(%ebx,%esi,4),%eax
  402c3d:	e8 40 00 00 00       	call   0x402c82
  402c42:	ff 54 b3 08          	call   *0x8(%ebx,%esi,4)
  402c46:	eb c3                	jmp    0x402c0b
  402c48:	64 8f 05 00 00 00 00 	popl   %fs:0x0
  402c4f:	83 c4 0c             	add    $0xc,%esp
  402c52:	5f                   	pop    %edi
  402c53:	5e                   	pop    %esi
  402c54:	5b                   	pop    %ebx
  402c55:	c3                   	ret    
  402c56:	33 c0                	xor    %eax,%eax
  402c58:	64 8b 0d 00 00 00 00 	mov    %fs:0x0,%ecx
  402c5f:	81 79 04 cc 2b 40 00 	cmpl   $0x402bcc,0x4(%ecx)
  402c66:	75 10                	jne    0x402c78
  402c68:	8b 51 0c             	mov    0xc(%ecx),%edx
  402c6b:	8b 52 0c             	mov    0xc(%edx),%edx
  402c6e:	39 51 08             	cmp    %edx,0x8(%ecx)
  402c71:	75 05                	jne    0x402c78
  402c73:	b8 01 00 00 00       	mov    $0x1,%eax
  402c78:	c3                   	ret    
  402c79:	53                   	push   %ebx
  402c7a:	51                   	push   %ecx
  402c7b:	bb 74 fe 40 00       	mov    $0x40fe74,%ebx
  402c80:	eb 0a                	jmp    0x402c8c
  402c82:	53                   	push   %ebx
  402c83:	51                   	push   %ecx
  402c84:	bb 74 fe 40 00       	mov    $0x40fe74,%ebx
  402c89:	8b 4d 08             	mov    0x8(%ebp),%ecx
  402c8c:	89 4b 08             	mov    %ecx,0x8(%ebx)
  402c8f:	89 43 04             	mov    %eax,0x4(%ebx)
  402c92:	89 6b 0c             	mov    %ebp,0xc(%ebx)
  402c95:	59                   	pop    %ecx
  402c96:	5b                   	pop    %ebx
  402c97:	c2 04 00             	ret    $0x4
  402c9a:	cc                   	int3   
  402c9b:	cc                   	int3   
  402c9c:	56                   	push   %esi
  402c9d:	43                   	inc    %ebx
  402c9e:	32 30                	xor    (%eax),%dh
  402ca0:	58                   	pop    %eax
  402ca1:	43                   	inc    %ebx
  402ca2:	30 30                	xor    %dh,(%eax)
  402ca4:	55                   	push   %ebp
  402ca5:	8b ec                	mov    %esp,%ebp
  402ca7:	83 ec 08             	sub    $0x8,%esp
  402caa:	53                   	push   %ebx
  402cab:	56                   	push   %esi
  402cac:	57                   	push   %edi
  402cad:	55                   	push   %ebp
  402cae:	fc                   	cld    
  402caf:	8b 5d 0c             	mov    0xc(%ebp),%ebx
  402cb2:	8b 45 08             	mov    0x8(%ebp),%eax
  402cb5:	f7 40 04 06 00 00 00 	testl  $0x6,0x4(%eax)
  402cbc:	0f 85 82 00 00 00    	jne    0x402d44
  402cc2:	89 45 f8             	mov    %eax,-0x8(%ebp)
  402cc5:	8b 45 10             	mov    0x10(%ebp),%eax
  402cc8:	89 45 fc             	mov    %eax,-0x4(%ebp)
  402ccb:	8d 45 f8             	lea    -0x8(%ebp),%eax
  402cce:	89 43 fc             	mov    %eax,-0x4(%ebx)
  402cd1:	8b 73 0c             	mov    0xc(%ebx),%esi
  402cd4:	8b 7b 08             	mov    0x8(%ebx),%edi
  402cd7:	83 fe ff             	cmp    $0xffffffff,%esi
  402cda:	74 61                	je     0x402d3d
  402cdc:	8d 0c 76             	lea    (%esi,%esi,2),%ecx
  402cdf:	83 7c 8f 04 00       	cmpl   $0x0,0x4(%edi,%ecx,4)
  402ce4:	74 45                	je     0x402d2b
  402ce6:	56                   	push   %esi
  402ce7:	55                   	push   %ebp
  402ce8:	8d 6b 10             	lea    0x10(%ebx),%ebp
  402ceb:	ff 54 8f 04          	call   *0x4(%edi,%ecx,4)
  402cef:	5d                   	pop    %ebp
  402cf0:	5e                   	pop    %esi
  402cf1:	8b 5d 0c             	mov    0xc(%ebp),%ebx
  402cf4:	0b c0                	or     %eax,%eax
  402cf6:	74 33                	je     0x402d2b
  402cf8:	78 3c                	js     0x402d36
  402cfa:	8b 7b 08             	mov    0x8(%ebx),%edi
  402cfd:	53                   	push   %ebx
  402cfe:	e8 a9 fe ff ff       	call   0x402bac
  402d03:	83 c4 04             	add    $0x4,%esp
  402d06:	8d 6b 10             	lea    0x10(%ebx),%ebp
  402d09:	56                   	push   %esi
  402d0a:	53                   	push   %ebx
  402d0b:	e8 de fe ff ff       	call   0x402bee
  402d10:	83 c4 08             	add    $0x8,%esp
  402d13:	8d 0c 76             	lea    (%esi,%esi,2),%ecx
  402d16:	6a 01                	push   $0x1
  402d18:	8b 44 8f 08          	mov    0x8(%edi,%ecx,4),%eax
  402d1c:	e8 61 ff ff ff       	call   0x402c82
  402d21:	8b 04 8f             	mov    (%edi,%ecx,4),%eax
  402d24:	89 43 0c             	mov    %eax,0xc(%ebx)
  402d27:	ff 54 8f 08          	call   *0x8(%edi,%ecx,4)
  402d2b:	8b 7b 08             	mov    0x8(%ebx),%edi
  402d2e:	8d 0c 76             	lea    (%esi,%esi,2),%ecx
  402d31:	8b 34 8f             	mov    (%edi,%ecx,4),%esi
  402d34:	eb a1                	jmp    0x402cd7
  402d36:	b8 00 00 00 00       	mov    $0x0,%eax
  402d3b:	eb 1c                	jmp    0x402d59
  402d3d:	b8 01 00 00 00       	mov    $0x1,%eax
  402d42:	eb 15                	jmp    0x402d59
  402d44:	55                   	push   %ebp
  402d45:	8d 6b 10             	lea    0x10(%ebx),%ebp
  402d48:	6a ff                	push   $0xffffffff
  402d4a:	53                   	push   %ebx
  402d4b:	e8 9e fe ff ff       	call   0x402bee
  402d50:	83 c4 08             	add    $0x8,%esp
  402d53:	5d                   	pop    %ebp
  402d54:	b8 01 00 00 00       	mov    $0x1,%eax
  402d59:	5d                   	pop    %ebp
  402d5a:	5f                   	pop    %edi
  402d5b:	5e                   	pop    %esi
  402d5c:	5b                   	pop    %ebx
  402d5d:	8b e5                	mov    %ebp,%esp
  402d5f:	5d                   	pop    %ebp
  402d60:	c3                   	ret    
  402d61:	55                   	push   %ebp
  402d62:	8b 4c 24 08          	mov    0x8(%esp),%ecx
  402d66:	8b 29                	mov    (%ecx),%ebp
  402d68:	8b 41 1c             	mov    0x1c(%ecx),%eax
  402d6b:	50                   	push   %eax
  402d6c:	8b 41 18             	mov    0x18(%ecx),%eax
  402d6f:	50                   	push   %eax
  402d70:	e8 79 fe ff ff       	call   0x402bee
  402d75:	83 c4 08             	add    $0x8,%esp
  402d78:	5d                   	pop    %ebp
  402d79:	c2 04 00             	ret    $0x4
  402d7c:	a1 c8 09 41 00       	mov    0x4109c8,%eax
  402d81:	83 f8 01             	cmp    $0x1,%eax
  402d84:	74 0d                	je     0x402d93
  402d86:	85 c0                	test   %eax,%eax
  402d88:	75 2a                	jne    0x402db4
  402d8a:	83 3d d4 fd 40 00 01 	cmpl   $0x1,0x40fdd4
  402d91:	75 21                	jne    0x402db4
  402d93:	68 fc 00 00 00       	push   $0xfc
  402d98:	e8 18 00 00 00       	call   0x402db5
  402d9d:	a1 2c 0b 41 00       	mov    0x410b2c,%eax
  402da2:	59                   	pop    %ecx
  402da3:	85 c0                	test   %eax,%eax
  402da5:	74 02                	je     0x402da9
  402da7:	ff d0                	call   *%eax
  402da9:	68 ff 00 00 00       	push   $0xff
  402dae:	e8 02 00 00 00       	call   0x402db5
  402db3:	59                   	pop    %ecx
  402db4:	c3                   	ret    
  402db5:	55                   	push   %ebp
  402db6:	8b ec                	mov    %esp,%ebp
  402db8:	81 ec a4 01 00 00    	sub    $0x1a4,%esp
  402dbe:	8b 55 08             	mov    0x8(%ebp),%edx
  402dc1:	33 c9                	xor    %ecx,%ecx
  402dc3:	b8 88 fe 40 00       	mov    $0x40fe88,%eax
  402dc8:	3b 10                	cmp    (%eax),%edx
  402dca:	74 0b                	je     0x402dd7
  402dcc:	83 c0 08             	add    $0x8,%eax
  402dcf:	41                   	inc    %ecx
  402dd0:	3d 18 ff 40 00       	cmp    $0x40ff18,%eax
  402dd5:	7c f1                	jl     0x402dc8
  402dd7:	56                   	push   %esi
  402dd8:	8b f1                	mov    %ecx,%esi
  402dda:	c1 e6 03             	shl    $0x3,%esi
  402ddd:	3b 96 88 fe 40 00    	cmp    0x40fe88(%esi),%edx
  402de3:	0f 85 1c 01 00 00    	jne    0x402f05
  402de9:	a1 c8 09 41 00       	mov    0x4109c8,%eax
  402dee:	83 f8 01             	cmp    $0x1,%eax
  402df1:	0f 84 e8 00 00 00    	je     0x402edf
  402df7:	85 c0                	test   %eax,%eax
  402df9:	75 0d                	jne    0x402e08
  402dfb:	83 3d d4 fd 40 00 01 	cmpl   $0x1,0x40fdd4
  402e02:	0f 84 d7 00 00 00    	je     0x402edf
  402e08:	81 fa fc 00 00 00    	cmp    $0xfc,%edx
  402e0e:	0f 84 f1 00 00 00    	je     0x402f05
  402e14:	8d 85 5c fe ff ff    	lea    -0x1a4(%ebp),%eax
  402e1a:	68 04 01 00 00       	push   $0x104
  402e1f:	50                   	push   %eax
  402e20:	6a 00                	push   $0x0
  402e22:	ff 15 68 60 40 00    	call   *0x406068
  402e28:	85 c0                	test   %eax,%eax
  402e2a:	75 13                	jne    0x402e3f
  402e2c:	8d 85 5c fe ff ff    	lea    -0x1a4(%ebp),%eax
  402e32:	68 50 64 40 00       	push   $0x406450
  402e37:	50                   	push   %eax
  402e38:	e8 a3 18 00 00       	call   0x4046e0
  402e3d:	59                   	pop    %ecx
  402e3e:	59                   	pop    %ecx
  402e3f:	8d 85 5c fe ff ff    	lea    -0x1a4(%ebp),%eax
  402e45:	57                   	push   %edi
  402e46:	50                   	push   %eax
  402e47:	8d bd 5c fe ff ff    	lea    -0x1a4(%ebp),%edi
  402e4d:	e8 ae 02 00 00       	call   0x403100
  402e52:	40                   	inc    %eax
  402e53:	59                   	pop    %ecx
  402e54:	83 f8 3c             	cmp    $0x3c,%eax
  402e57:	76 29                	jbe    0x402e82
  402e59:	8d 85 5c fe ff ff    	lea    -0x1a4(%ebp),%eax
  402e5f:	50                   	push   %eax
  402e60:	e8 9b 02 00 00       	call   0x403100
  402e65:	8b f8                	mov    %eax,%edi
  402e67:	8d 85 5c fe ff ff    	lea    -0x1a4(%ebp),%eax
  402e6d:	83 e8 3b             	sub    $0x3b,%eax
  402e70:	6a 03                	push   $0x3
  402e72:	03 f8                	add    %eax,%edi
  402e74:	68 4c 64 40 00       	push   $0x40644c
  402e79:	57                   	push   %edi
  402e7a:	e8 e1 19 00 00       	call   0x404860
  402e7f:	83 c4 10             	add    $0x10,%esp
  402e82:	8d 85 60 ff ff ff    	lea    -0xa0(%ebp),%eax
  402e88:	68 30 64 40 00       	push   $0x406430
  402e8d:	50                   	push   %eax
  402e8e:	e8 4d 18 00 00       	call   0x4046e0
  402e93:	8d 85 60 ff ff ff    	lea    -0xa0(%ebp),%eax
  402e99:	57                   	push   %edi
  402e9a:	50                   	push   %eax
  402e9b:	e8 50 18 00 00       	call   0x4046f0
  402ea0:	8d 85 60 ff ff ff    	lea    -0xa0(%ebp),%eax
  402ea6:	68 2c 64 40 00       	push   $0x40642c
  402eab:	50                   	push   %eax
  402eac:	e8 3f 18 00 00       	call   0x4046f0
  402eb1:	ff b6 8c fe 40 00    	pushl  0x40fe8c(%esi)
  402eb7:	8d 85 60 ff ff ff    	lea    -0xa0(%ebp),%eax
  402ebd:	50                   	push   %eax
  402ebe:	e8 2d 18 00 00       	call   0x4046f0
  402ec3:	68 10 20 01 00       	push   $0x12010
  402ec8:	8d 85 60 ff ff ff    	lea    -0xa0(%ebp),%eax
  402ece:	68 04 64 40 00       	push   $0x406404
  402ed3:	50                   	push   %eax
  402ed4:	e8 f7 18 00 00       	call   0x4047d0
  402ed9:	83 c4 2c             	add    $0x2c,%esp
  402edc:	5f                   	pop    %edi
  402edd:	eb 26                	jmp    0x402f05
  402edf:	8d 45 08             	lea    0x8(%ebp),%eax
  402ee2:	8d b6 8c fe 40 00    	lea    0x40fe8c(%esi),%esi
  402ee8:	6a 00                	push   $0x0
  402eea:	50                   	push   %eax
  402eeb:	ff 36                	pushl  (%esi)
  402eed:	e8 0e 02 00 00       	call   0x403100
  402ef2:	59                   	pop    %ecx
  402ef3:	50                   	push   %eax
  402ef4:	ff 36                	pushl  (%esi)
  402ef6:	6a f4                	push   $0xfffffff4
  402ef8:	ff 15 84 60 40 00    	call   *0x406084
  402efe:	50                   	push   %eax
  402eff:	ff 15 a0 60 40 00    	call   *0x4060a0
  402f05:	5e                   	pop    %esi
  402f06:	c9                   	leave  
  402f07:	c3                   	ret    
  402f08:	a1 e0 1d 41 00       	mov    0x411de0,%eax
  402f0d:	56                   	push   %esi
  402f0e:	6a 14                	push   $0x14
  402f10:	85 c0                	test   %eax,%eax
  402f12:	5e                   	pop    %esi
  402f13:	75 07                	jne    0x402f1c
  402f15:	b8 00 02 00 00       	mov    $0x200,%eax
  402f1a:	eb 06                	jmp    0x402f22
  402f1c:	3b c6                	cmp    %esi,%eax
  402f1e:	7d 07                	jge    0x402f27
  402f20:	8b c6                	mov    %esi,%eax
  402f22:	a3 e0 1d 41 00       	mov    %eax,0x411de0
  402f27:	6a 04                	push   $0x4
  402f29:	50                   	push   %eax
  402f2a:	e8 2f 1a 00 00       	call   0x40495e
  402f2f:	59                   	pop    %ecx
  402f30:	a3 c0 0d 41 00       	mov    %eax,0x410dc0
  402f35:	85 c0                	test   %eax,%eax
  402f37:	59                   	pop    %ecx
  402f38:	75 21                	jne    0x402f5b
  402f3a:	6a 04                	push   $0x4
  402f3c:	56                   	push   %esi
  402f3d:	89 35 e0 1d 41 00    	mov    %esi,0x411de0
  402f43:	e8 16 1a 00 00       	call   0x40495e
  402f48:	59                   	pop    %ecx
  402f49:	a3 c0 0d 41 00       	mov    %eax,0x410dc0
  402f4e:	85 c0                	test   %eax,%eax
  402f50:	59                   	pop    %ecx
  402f51:	75 08                	jne    0x402f5b
  402f53:	6a 1a                	push   $0x1a
  402f55:	e8 78 e8 ff ff       	call   0x4017d2
  402f5a:	59                   	pop    %ecx
  402f5b:	33 c9                	xor    %ecx,%ecx
  402f5d:	b8 18 ff 40 00       	mov    $0x40ff18,%eax
  402f62:	8b 15 c0 0d 41 00    	mov    0x410dc0,%edx
  402f68:	89 04 11             	mov    %eax,(%ecx,%edx,1)
  402f6b:	83 c0 20             	add    $0x20,%eax
  402f6e:	83 c1 04             	add    $0x4,%ecx
  402f71:	3d 98 01 41 00       	cmp    $0x410198,%eax
  402f76:	7c ea                	jl     0x402f62
  402f78:	33 d2                	xor    %edx,%edx
  402f7a:	b9 28 ff 40 00       	mov    $0x40ff28,%ecx
  402f7f:	8b c2                	mov    %edx,%eax
  402f81:	8b f2                	mov    %edx,%esi
  402f83:	c1 f8 05             	sar    $0x5,%eax
  402f86:	83 e6 1f             	and    $0x1f,%esi
  402f89:	8b 04 85 00 1e 41 00 	mov    0x411e00(,%eax,4),%eax
  402f90:	8b 04 f0             	mov    (%eax,%esi,8),%eax
  402f93:	83 f8 ff             	cmp    $0xffffffff,%eax
  402f96:	74 04                	je     0x402f9c
  402f98:	85 c0                	test   %eax,%eax
  402f9a:	75 03                	jne    0x402f9f
  402f9c:	83 09 ff             	orl    $0xffffffff,(%ecx)
  402f9f:	83 c1 20             	add    $0x20,%ecx
  402fa2:	42                   	inc    %edx
  402fa3:	81 f9 88 ff 40 00    	cmp    $0x40ff88,%ecx
  402fa9:	7c d4                	jl     0x402f7f
  402fab:	5e                   	pop    %esi
  402fac:	c3                   	ret    
  402fad:	e8 cc 00 00 00       	call   0x40307e
  402fb2:	80 3d 14 0a 41 00 00 	cmpb   $0x0,0x410a14
  402fb9:	74 05                	je     0x402fc0
  402fbb:	e9 1b 1a 00 00       	jmp    0x4049db
  402fc0:	c3                   	ret    
  402fc1:	8b 44 24 04          	mov    0x4(%esp),%eax
  402fc5:	3b 05 00 1f 41 00    	cmp    0x411f00,%eax
  402fcb:	72 03                	jb     0x402fd0
  402fcd:	33 c0                	xor    %eax,%eax
  402fcf:	c3                   	ret    
  402fd0:	8b c8                	mov    %eax,%ecx
  402fd2:	83 e0 1f             	and    $0x1f,%eax
  402fd5:	c1 f9 05             	sar    $0x5,%ecx
  402fd8:	8b 0c 8d 00 1e 41 00 	mov    0x411e00(,%ecx,4),%ecx
  402fdf:	8a 44 c1 04          	mov    0x4(%ecx,%eax,8),%al
  402fe3:	83 e0 40             	and    $0x40,%eax
  402fe6:	c3                   	ret    
  402fe7:	56                   	push   %esi
  402fe8:	8b 74 24 08          	mov    0x8(%esp),%esi
  402fec:	85 f6                	test   %esi,%esi
  402fee:	75 09                	jne    0x402ff9
  402ff0:	56                   	push   %esi
  402ff1:	e8 91 00 00 00       	call   0x403087
  402ff6:	59                   	pop    %ecx
  402ff7:	5e                   	pop    %esi
  402ff8:	c3                   	ret    
  402ff9:	56                   	push   %esi
  402ffa:	e8 23 00 00 00       	call   0x403022
  402fff:	85 c0                	test   %eax,%eax
  403001:	59                   	pop    %ecx
  403002:	74 05                	je     0x403009
  403004:	83 c8 ff             	or     $0xffffffff,%eax
  403007:	5e                   	pop    %esi
  403008:	c3                   	ret    
  403009:	f6 46 0d 40          	testb  $0x40,0xd(%esi)
  40300d:	74 0f                	je     0x40301e
  40300f:	ff 76 10             	pushl  0x10(%esi)
  403012:	e8 1c 1a 00 00       	call   0x404a33
  403017:	f7 d8                	neg    %eax
  403019:	59                   	pop    %ecx
  40301a:	5e                   	pop    %esi
  40301b:	1b c0                	sbb    %eax,%eax
  40301d:	c3                   	ret    
  40301e:	33 c0                	xor    %eax,%eax
  403020:	5e                   	pop    %esi
  403021:	c3                   	ret    
  403022:	53                   	push   %ebx
  403023:	56                   	push   %esi
  403024:	8b 74 24 0c          	mov    0xc(%esp),%esi
  403028:	33 db                	xor    %ebx,%ebx
  40302a:	57                   	push   %edi
  40302b:	8b 46 0c             	mov    0xc(%esi),%eax
  40302e:	8b c8                	mov    %eax,%ecx
  403030:	83 e1 03             	and    $0x3,%ecx
  403033:	80 f9 02             	cmp    $0x2,%cl
  403036:	75 37                	jne    0x40306f
  403038:	66 a9 08 01          	test   $0x108,%ax
  40303c:	74 31                	je     0x40306f
  40303e:	8b 46 08             	mov    0x8(%esi),%eax
  403041:	8b 3e                	mov    (%esi),%edi
  403043:	2b f8                	sub    %eax,%edi
  403045:	85 ff                	test   %edi,%edi
  403047:	7e 26                	jle    0x40306f
  403049:	57                   	push   %edi
  40304a:	50                   	push   %eax
  40304b:	ff 76 10             	pushl  0x10(%esi)
  40304e:	e8 37 1a 00 00       	call   0x404a8a
  403053:	83 c4 0c             	add    $0xc,%esp
  403056:	3b c7                	cmp    %edi,%eax
  403058:	75 0e                	jne    0x403068
  40305a:	8b 46 0c             	mov    0xc(%esi),%eax
  40305d:	a8 80                	test   $0x80,%al
  40305f:	74 0e                	je     0x40306f
  403061:	24 fd                	and    $0xfd,%al
  403063:	89 46 0c             	mov    %eax,0xc(%esi)
  403066:	eb 07                	jmp    0x40306f
  403068:	83 4e 0c 20          	orl    $0x20,0xc(%esi)
  40306c:	83 cb ff             	or     $0xffffffff,%ebx
  40306f:	8b 46 08             	mov    0x8(%esi),%eax
  403072:	83 66 04 00          	andl   $0x0,0x4(%esi)
  403076:	89 06                	mov    %eax,(%esi)
  403078:	5f                   	pop    %edi
  403079:	8b c3                	mov    %ebx,%eax
  40307b:	5e                   	pop    %esi
  40307c:	5b                   	pop    %ebx
  40307d:	c3                   	ret    
  40307e:	6a 01                	push   $0x1
  403080:	e8 02 00 00 00       	call   0x403087
  403085:	59                   	pop    %ecx
  403086:	c3                   	ret    
  403087:	53                   	push   %ebx
  403088:	56                   	push   %esi
  403089:	57                   	push   %edi
  40308a:	33 f6                	xor    %esi,%esi
  40308c:	33 db                	xor    %ebx,%ebx
  40308e:	33 ff                	xor    %edi,%edi
  403090:	39 35 e0 1d 41 00    	cmp    %esi,0x411de0
  403096:	7e 4d                	jle    0x4030e5
  403098:	a1 c0 0d 41 00       	mov    0x410dc0,%eax
  40309d:	8b 04 b0             	mov    (%eax,%esi,4),%eax
  4030a0:	85 c0                	test   %eax,%eax
  4030a2:	74 38                	je     0x4030dc
  4030a4:	8b 48 0c             	mov    0xc(%eax),%ecx
  4030a7:	f6 c1 83             	test   $0x83,%cl
  4030aa:	74 30                	je     0x4030dc
  4030ac:	83 7c 24 10 01       	cmpl   $0x1,0x10(%esp)
  4030b1:	75 0f                	jne    0x4030c2
  4030b3:	50                   	push   %eax
  4030b4:	e8 2e ff ff ff       	call   0x402fe7
  4030b9:	83 f8 ff             	cmp    $0xffffffff,%eax
  4030bc:	59                   	pop    %ecx
  4030bd:	74 1d                	je     0x4030dc
  4030bf:	43                   	inc    %ebx
  4030c0:	eb 1a                	jmp    0x4030dc
  4030c2:	83 7c 24 10 00       	cmpl   $0x0,0x10(%esp)
  4030c7:	75 13                	jne    0x4030dc
  4030c9:	f6 c1 02             	test   $0x2,%cl
  4030cc:	74 0e                	je     0x4030dc
  4030ce:	50                   	push   %eax
  4030cf:	e8 13 ff ff ff       	call   0x402fe7
  4030d4:	83 f8 ff             	cmp    $0xffffffff,%eax
  4030d7:	59                   	pop    %ecx
  4030d8:	75 02                	jne    0x4030dc
  4030da:	0b f8                	or     %eax,%edi
  4030dc:	46                   	inc    %esi
  4030dd:	3b 35 e0 1d 41 00    	cmp    0x411de0,%esi
  4030e3:	7c b3                	jl     0x403098
  4030e5:	83 7c 24 10 01       	cmpl   $0x1,0x10(%esp)
  4030ea:	8b c3                	mov    %ebx,%eax
  4030ec:	74 02                	je     0x4030f0
  4030ee:	8b c7                	mov    %edi,%eax
  4030f0:	5f                   	pop    %edi
  4030f1:	5e                   	pop    %esi
  4030f2:	5b                   	pop    %ebx
  4030f3:	c3                   	ret    
  4030f4:	cc                   	int3   
  4030f5:	cc                   	int3   
  4030f6:	cc                   	int3   
  4030f7:	cc                   	int3   
  4030f8:	cc                   	int3   
  4030f9:	cc                   	int3   
  4030fa:	cc                   	int3   
  4030fb:	cc                   	int3   
  4030fc:	cc                   	int3   
  4030fd:	cc                   	int3   
  4030fe:	cc                   	int3   
  4030ff:	cc                   	int3   
  403100:	8b 4c 24 04          	mov    0x4(%esp),%ecx
  403104:	f7 c1 03 00 00 00    	test   $0x3,%ecx
  40310a:	74 14                	je     0x403120
  40310c:	8a 01                	mov    (%ecx),%al
  40310e:	41                   	inc    %ecx
  40310f:	84 c0                	test   %al,%al
  403111:	74 40                	je     0x403153
  403113:	f7 c1 03 00 00 00    	test   $0x3,%ecx
  403119:	75 f1                	jne    0x40310c
  40311b:	05 00 00 00 00       	add    $0x0,%eax
  403120:	8b 01                	mov    (%ecx),%eax
  403122:	ba ff fe fe 7e       	mov    $0x7efefeff,%edx
  403127:	03 d0                	add    %eax,%edx
  403129:	83 f0 ff             	xor    $0xffffffff,%eax
  40312c:	33 c2                	xor    %edx,%eax
  40312e:	83 c1 04             	add    $0x4,%ecx
  403131:	a9 00 01 01 81       	test   $0x81010100,%eax
  403136:	74 e8                	je     0x403120
  403138:	8b 41 fc             	mov    -0x4(%ecx),%eax
  40313b:	84 c0                	test   %al,%al
  40313d:	74 32                	je     0x403171
  40313f:	84 e4                	test   %ah,%ah
  403141:	74 24                	je     0x403167
  403143:	a9 00 00 ff 00       	test   $0xff0000,%eax
  403148:	74 13                	je     0x40315d
  40314a:	a9 00 00 00 ff       	test   $0xff000000,%eax
  40314f:	74 02                	je     0x403153
  403151:	eb cd                	jmp    0x403120
  403153:	8d 41 ff             	lea    -0x1(%ecx),%eax
  403156:	8b 4c 24 04          	mov    0x4(%esp),%ecx
  40315a:	2b c1                	sub    %ecx,%eax
  40315c:	c3                   	ret    
  40315d:	8d 41 fe             	lea    -0x2(%ecx),%eax
  403160:	8b 4c 24 04          	mov    0x4(%esp),%ecx
  403164:	2b c1                	sub    %ecx,%eax
  403166:	c3                   	ret    
  403167:	8d 41 fd             	lea    -0x3(%ecx),%eax
  40316a:	8b 4c 24 04          	mov    0x4(%esp),%ecx
  40316e:	2b c1                	sub    %ecx,%eax
  403170:	c3                   	ret    
  403171:	8d 41 fc             	lea    -0x4(%ecx),%eax
  403174:	8b 4c 24 04          	mov    0x4(%esp),%ecx
  403178:	2b c1                	sub    %ecx,%eax
  40317a:	c3                   	ret    
  40317b:	55                   	push   %ebp
  40317c:	8b ec                	mov    %esp,%ebp
  40317e:	8b 45 08             	mov    0x8(%ebp),%eax
  403181:	85 c0                	test   %eax,%eax
  403183:	75 02                	jne    0x403187
  403185:	5d                   	pop    %ebp
  403186:	c3                   	ret    
  403187:	83 3d 54 0b 41 00 00 	cmpl   $0x0,0x410b54
  40318e:	75 12                	jne    0x4031a2
  403190:	66 8b 4d 0c          	mov    0xc(%ebp),%cx
  403194:	66 81 f9 ff 00       	cmp    $0xff,%cx
  403199:	77 39                	ja     0x4031d4
  40319b:	6a 01                	push   $0x1
  40319d:	88 08                	mov    %cl,(%eax)
  40319f:	58                   	pop    %eax
  4031a0:	5d                   	pop    %ebp
  4031a1:	c3                   	ret    
  4031a2:	8d 4d 08             	lea    0x8(%ebp),%ecx
  4031a5:	83 65 08 00          	andl   $0x0,0x8(%ebp)
  4031a9:	51                   	push   %ecx
  4031aa:	6a 00                	push   $0x0
  4031ac:	ff 35 e0 04 41 00    	pushl  0x4104e0
  4031b2:	50                   	push   %eax
  4031b3:	8d 45 0c             	lea    0xc(%ebp),%eax
  4031b6:	6a 01                	push   $0x1
  4031b8:	50                   	push   %eax
  4031b9:	68 20 02 00 00       	push   $0x220
  4031be:	ff 35 64 0b 41 00    	pushl  0x410b64
  4031c4:	ff 15 74 60 40 00    	call   *0x406074
  4031ca:	85 c0                	test   %eax,%eax
  4031cc:	74 06                	je     0x4031d4
  4031ce:	83 7d 08 00          	cmpl   $0x0,0x8(%ebp)
  4031d2:	74 0d                	je     0x4031e1
  4031d4:	c7 05 d4 09 41 00 2a 	movl   $0x2a,0x4109d4
  4031db:	00 00 00 
  4031de:	83 c8 ff             	or     $0xffffffff,%eax
  4031e1:	5d                   	pop    %ebp
  4031e2:	c3                   	ret    
  4031e3:	cc                   	int3   
  4031e4:	cc                   	int3   
  4031e5:	cc                   	int3   
  4031e6:	cc                   	int3   
  4031e7:	cc                   	int3   
  4031e8:	cc                   	int3   
  4031e9:	cc                   	int3   
  4031ea:	cc                   	int3   
  4031eb:	cc                   	int3   
  4031ec:	cc                   	int3   
  4031ed:	cc                   	int3   
  4031ee:	cc                   	int3   
  4031ef:	cc                   	int3   
  4031f0:	53                   	push   %ebx
  4031f1:	56                   	push   %esi
  4031f2:	8b 44 24 18          	mov    0x18(%esp),%eax
  4031f6:	0b c0                	or     %eax,%eax
  4031f8:	75 18                	jne    0x403212
  4031fa:	8b 4c 24 14          	mov    0x14(%esp),%ecx
  4031fe:	8b 44 24 10          	mov    0x10(%esp),%eax
  403202:	33 d2                	xor    %edx,%edx
  403204:	f7 f1                	div    %ecx
  403206:	8b d8                	mov    %eax,%ebx
  403208:	8b 44 24 0c          	mov    0xc(%esp),%eax
  40320c:	f7 f1                	div    %ecx
  40320e:	8b d3                	mov    %ebx,%edx
  403210:	eb 41                	jmp    0x403253
  403212:	8b c8                	mov    %eax,%ecx
  403214:	8b 5c 24 14          	mov    0x14(%esp),%ebx
  403218:	8b 54 24 10          	mov    0x10(%esp),%edx
  40321c:	8b 44 24 0c          	mov    0xc(%esp),%eax
  403220:	d1 e9                	shr    %ecx
  403222:	d1 db                	rcr    %ebx
  403224:	d1 ea                	shr    %edx
  403226:	d1 d8                	rcr    %eax
  403228:	0b c9                	or     %ecx,%ecx
  40322a:	75 f4                	jne    0x403220
  40322c:	f7 f3                	div    %ebx
  40322e:	8b f0                	mov    %eax,%esi
  403230:	f7 64 24 18          	mull   0x18(%esp)
  403234:	8b c8                	mov    %eax,%ecx
  403236:	8b 44 24 14          	mov    0x14(%esp),%eax
  40323a:	f7 e6                	mul    %esi
  40323c:	03 d1                	add    %ecx,%edx
  40323e:	72 0e                	jb     0x40324e
  403240:	3b 54 24 10          	cmp    0x10(%esp),%edx
  403244:	77 08                	ja     0x40324e
  403246:	72 07                	jb     0x40324f
  403248:	3b 44 24 0c          	cmp    0xc(%esp),%eax
  40324c:	76 01                	jbe    0x40324f
  40324e:	4e                   	dec    %esi
  40324f:	33 d2                	xor    %edx,%edx
  403251:	8b c6                	mov    %esi,%eax
  403253:	5e                   	pop    %esi
  403254:	5b                   	pop    %ebx
  403255:	c2 10 00             	ret    $0x10
  403258:	cc                   	int3   
  403259:	cc                   	int3   
  40325a:	cc                   	int3   
  40325b:	cc                   	int3   
  40325c:	cc                   	int3   
  40325d:	cc                   	int3   
  40325e:	cc                   	int3   
  40325f:	cc                   	int3   
  403260:	53                   	push   %ebx
  403261:	8b 44 24 14          	mov    0x14(%esp),%eax
  403265:	0b c0                	or     %eax,%eax
  403267:	75 18                	jne    0x403281
  403269:	8b 4c 24 10          	mov    0x10(%esp),%ecx
  40326d:	8b 44 24 0c          	mov    0xc(%esp),%eax
  403271:	33 d2                	xor    %edx,%edx
  403273:	f7 f1                	div    %ecx
  403275:	8b 44 24 08          	mov    0x8(%esp),%eax
  403279:	f7 f1                	div    %ecx
  40327b:	8b c2                	mov    %edx,%eax
  40327d:	33 d2                	xor    %edx,%edx
  40327f:	eb 50                	jmp    0x4032d1
  403281:	8b c8                	mov    %eax,%ecx
  403283:	8b 5c 24 10          	mov    0x10(%esp),%ebx
  403287:	8b 54 24 0c          	mov    0xc(%esp),%edx
  40328b:	8b 44 24 08          	mov    0x8(%esp),%eax
  40328f:	d1 e9                	shr    %ecx
  403291:	d1 db                	rcr    %ebx
  403293:	d1 ea                	shr    %edx
  403295:	d1 d8                	rcr    %eax
  403297:	0b c9                	or     %ecx,%ecx
  403299:	75 f4                	jne    0x40328f
  40329b:	f7 f3                	div    %ebx
  40329d:	8b c8                	mov    %eax,%ecx
  40329f:	f7 64 24 14          	mull   0x14(%esp)
  4032a3:	91                   	xchg   %eax,%ecx
  4032a4:	f7 64 24 10          	mull   0x10(%esp)
  4032a8:	03 d1                	add    %ecx,%edx
  4032aa:	72 0e                	jb     0x4032ba
  4032ac:	3b 54 24 0c          	cmp    0xc(%esp),%edx
  4032b0:	77 08                	ja     0x4032ba
  4032b2:	72 0e                	jb     0x4032c2
  4032b4:	3b 44 24 08          	cmp    0x8(%esp),%eax
  4032b8:	76 08                	jbe    0x4032c2
  4032ba:	2b 44 24 10          	sub    0x10(%esp),%eax
  4032be:	1b 54 24 14          	sbb    0x14(%esp),%edx
  4032c2:	2b 44 24 08          	sub    0x8(%esp),%eax
  4032c6:	1b 54 24 0c          	sbb    0xc(%esp),%edx
  4032ca:	f7 da                	neg    %edx
  4032cc:	f7 d8                	neg    %eax
  4032ce:	83 da 00             	sbb    $0x0,%edx
  4032d1:	5b                   	pop    %ebx
  4032d2:	c2 10 00             	ret    $0x10
  4032d5:	55                   	push   %ebp
  4032d6:	8b ec                	mov    %esp,%ebp
  4032d8:	53                   	push   %ebx
  4032d9:	56                   	push   %esi
  4032da:	8b 75 0c             	mov    0xc(%ebp),%esi
  4032dd:	8b 46 0c             	mov    0xc(%esi),%eax
  4032e0:	8b 5e 10             	mov    0x10(%esi),%ebx
  4032e3:	a8 82                	test   $0x82,%al
  4032e5:	0f 84 f3 00 00 00    	je     0x4033de
  4032eb:	a8 40                	test   $0x40,%al
  4032ed:	0f 85 eb 00 00 00    	jne    0x4033de
  4032f3:	a8 01                	test   $0x1,%al
  4032f5:	74 16                	je     0x40330d
  4032f7:	83 66 04 00          	andl   $0x0,0x4(%esi)
  4032fb:	a8 10                	test   $0x10,%al
  4032fd:	0f 84 db 00 00 00    	je     0x4033de
  403303:	8b 4e 08             	mov    0x8(%esi),%ecx
  403306:	24 fe                	and    $0xfe,%al
  403308:	89 0e                	mov    %ecx,(%esi)
  40330a:	89 46 0c             	mov    %eax,0xc(%esi)
  40330d:	8b 46 0c             	mov    0xc(%esi),%eax
  403310:	83 66 04 00          	andl   $0x0,0x4(%esi)
  403314:	83 65 0c 00          	andl   $0x0,0xc(%ebp)
  403318:	24 ef                	and    $0xef,%al
  40331a:	0c 02                	or     $0x2,%al
  40331c:	66 a9 0c 01          	test   $0x10c,%ax
  403320:	89 46 0c             	mov    %eax,0xc(%esi)
  403323:	75 22                	jne    0x403347
  403325:	81 fe 38 ff 40 00    	cmp    $0x40ff38,%esi
  40332b:	74 08                	je     0x403335
  40332d:	81 fe 58 ff 40 00    	cmp    $0x40ff58,%esi
  403333:	75 0b                	jne    0x403340
  403335:	53                   	push   %ebx
  403336:	e8 86 fc ff ff       	call   0x402fc1
  40333b:	85 c0                	test   %eax,%eax
  40333d:	59                   	pop    %ecx
  40333e:	75 07                	jne    0x403347
  403340:	56                   	push   %esi
  403341:	e8 94 19 00 00       	call   0x404cda
  403346:	59                   	pop    %ecx
  403347:	66 f7 46 0c 08 01    	testw  $0x108,0xc(%esi)
  40334d:	57                   	push   %edi
  40334e:	74 64                	je     0x4033b4
  403350:	8b 46 08             	mov    0x8(%esi),%eax
  403353:	8b 3e                	mov    (%esi),%edi
  403355:	2b f8                	sub    %eax,%edi
  403357:	8d 48 01             	lea    0x1(%eax),%ecx
  40335a:	89 0e                	mov    %ecx,(%esi)
  40335c:	8b 4e 18             	mov    0x18(%esi),%ecx
  40335f:	49                   	dec    %ecx
  403360:	85 ff                	test   %edi,%edi
  403362:	89 4e 04             	mov    %ecx,0x4(%esi)
  403365:	7e 10                	jle    0x403377
  403367:	57                   	push   %edi
  403368:	50                   	push   %eax
  403369:	53                   	push   %ebx
  40336a:	e8 1b 17 00 00       	call   0x404a8a
  40336f:	83 c4 0c             	add    $0xc,%esp
  403372:	89 45 0c             	mov    %eax,0xc(%ebp)
  403375:	eb 33                	jmp    0x4033aa
  403377:	83 fb ff             	cmp    $0xffffffff,%ebx
  40337a:	74 16                	je     0x403392
  40337c:	8b c3                	mov    %ebx,%eax
  40337e:	8b cb                	mov    %ebx,%ecx
  403380:	c1 f8 05             	sar    $0x5,%eax
  403383:	83 e1 1f             	and    $0x1f,%ecx
  403386:	8b 04 85 00 1e 41 00 	mov    0x411e00(,%eax,4),%eax
  40338d:	8d 04 c8             	lea    (%eax,%ecx,8),%eax
  403390:	eb 05                	jmp    0x403397
  403392:	b8 68 fe 40 00       	mov    $0x40fe68,%eax
  403397:	f6 40 04 20          	testb  $0x20,0x4(%eax)
  40339b:	74 0d                	je     0x4033aa
  40339d:	6a 02                	push   $0x2
  40339f:	6a 00                	push   $0x0
  4033a1:	53                   	push   %ebx
  4033a2:	e8 99 18 00 00       	call   0x404c40
  4033a7:	83 c4 0c             	add    $0xc,%esp
  4033aa:	8b 46 08             	mov    0x8(%esi),%eax
  4033ad:	8a 4d 08             	mov    0x8(%ebp),%cl
  4033b0:	88 08                	mov    %cl,(%eax)
  4033b2:	eb 14                	jmp    0x4033c8
  4033b4:	6a 01                	push   $0x1
  4033b6:	8d 45 08             	lea    0x8(%ebp),%eax
  4033b9:	5f                   	pop    %edi
  4033ba:	57                   	push   %edi
  4033bb:	50                   	push   %eax
  4033bc:	53                   	push   %ebx
  4033bd:	e8 c8 16 00 00       	call   0x404a8a
  4033c2:	83 c4 0c             	add    $0xc,%esp
  4033c5:	89 45 0c             	mov    %eax,0xc(%ebp)
  4033c8:	39 7d 0c             	cmp    %edi,0xc(%ebp)
  4033cb:	5f                   	pop    %edi
  4033cc:	74 06                	je     0x4033d4
  4033ce:	83 4e 0c 20          	orl    $0x20,0xc(%esi)
  4033d2:	eb 0f                	jmp    0x4033e3
  4033d4:	8b 45 08             	mov    0x8(%ebp),%eax
  4033d7:	25 ff 00 00 00       	and    $0xff,%eax
  4033dc:	eb 08                	jmp    0x4033e6
  4033de:	0c 20                	or     $0x20,%al
  4033e0:	89 46 0c             	mov    %eax,0xc(%esi)
  4033e3:	83 c8 ff             	or     $0xffffffff,%eax
  4033e6:	5e                   	pop    %esi
  4033e7:	5b                   	pop    %ebx
  4033e8:	5d                   	pop    %ebp
  4033e9:	c3                   	ret    
  4033ea:	a1 34 0b 41 00       	mov    0x410b34,%eax
  4033ef:	85 c0                	test   %eax,%eax
  4033f1:	74 0f                	je     0x403402
  4033f3:	ff 74 24 04          	pushl  0x4(%esp)
  4033f7:	ff d0                	call   *%eax
  4033f9:	85 c0                	test   %eax,%eax
  4033fb:	59                   	pop    %ecx
  4033fc:	74 04                	je     0x403402
  4033fe:	6a 01                	push   $0x1
  403400:	58                   	pop    %eax
  403401:	c3                   	ret    
  403402:	33 c0                	xor    %eax,%eax
  403404:	c3                   	ret    
  403405:	68 40 01 00 00       	push   $0x140
  40340a:	6a 00                	push   $0x0
  40340c:	ff 35 e4 1d 41 00    	pushl  0x411de4
  403412:	ff 15 58 60 40 00    	call   *0x406058
  403418:	85 c0                	test   %eax,%eax
  40341a:	a3 bc 0d 41 00       	mov    %eax,0x410dbc
  40341f:	75 01                	jne    0x403422
  403421:	c3                   	ret    
  403422:	83 25 b4 0d 41 00 00 	andl   $0x0,0x410db4
  403429:	83 25 b8 0d 41 00 00 	andl   $0x0,0x410db8
  403430:	6a 01                	push   $0x1
  403432:	a3 b0 0d 41 00       	mov    %eax,0x410db0
  403437:	c7 05 a8 0d 41 00 10 	movl   $0x10,0x410da8
  40343e:	00 00 00 
  403441:	58                   	pop    %eax
  403442:	c3                   	ret    
  403443:	a1 b8 0d 41 00       	mov    0x410db8,%eax
  403448:	8d 0c 80             	lea    (%eax,%eax,4),%ecx
  40344b:	a1 bc 0d 41 00       	mov    0x410dbc,%eax
  403450:	8d 0c 88             	lea    (%eax,%ecx,4),%ecx
  403453:	3b c1                	cmp    %ecx,%eax
  403455:	73 14                	jae    0x40346b
  403457:	8b 54 24 04          	mov    0x4(%esp),%edx
  40345b:	2b 50 0c             	sub    0xc(%eax),%edx
  40345e:	81 fa 00 00 10 00    	cmp    $0x100000,%edx
  403464:	72 07                	jb     0x40346d
  403466:	83 c0 14             	add    $0x14,%eax
  403469:	eb e8                	jmp    0x403453
  40346b:	33 c0                	xor    %eax,%eax
  40346d:	c3                   	ret    
  40346e:	55                   	push   %ebp
  40346f:	8b ec                	mov    %esp,%ebp
  403471:	83 ec 14             	sub    $0x14,%esp
  403474:	8b 55 0c             	mov    0xc(%ebp),%edx
  403477:	8b 4d 08             	mov    0x8(%ebp),%ecx
  40347a:	53                   	push   %ebx
  40347b:	56                   	push   %esi
  40347c:	8b 41 10             	mov    0x10(%ecx),%eax
  40347f:	8b f2                	mov    %edx,%esi
  403481:	2b 71 0c             	sub    0xc(%ecx),%esi
  403484:	8b 5a fc             	mov    -0x4(%edx),%ebx
  403487:	83 c2 fc             	add    $0xfffffffc,%edx
  40348a:	57                   	push   %edi
  40348b:	c1 ee 0f             	shr    $0xf,%esi
  40348e:	8b ce                	mov    %esi,%ecx
  403490:	8b 7a fc             	mov    -0x4(%edx),%edi
  403493:	69 c9 04 02 00 00    	imul   $0x204,%ecx,%ecx
  403499:	4b                   	dec    %ebx
  40349a:	89 7d fc             	mov    %edi,-0x4(%ebp)
  40349d:	8d 8c 01 44 01 00 00 	lea    0x144(%ecx,%eax,1),%ecx
  4034a4:	89 5d f4             	mov    %ebx,-0xc(%ebp)
  4034a7:	89 4d f0             	mov    %ecx,-0x10(%ebp)
  4034aa:	8b 0c 13             	mov    (%ebx,%edx,1),%ecx
  4034ad:	f6 c1 01             	test   $0x1,%cl
  4034b0:	89 4d f8             	mov    %ecx,-0x8(%ebp)
  4034b3:	75 7f                	jne    0x403534
  4034b5:	c1 f9 04             	sar    $0x4,%ecx
  4034b8:	6a 3f                	push   $0x3f
  4034ba:	49                   	dec    %ecx
  4034bb:	5f                   	pop    %edi
  4034bc:	89 4d 0c             	mov    %ecx,0xc(%ebp)
  4034bf:	3b cf                	cmp    %edi,%ecx
  4034c1:	76 03                	jbe    0x4034c6
  4034c3:	89 7d 0c             	mov    %edi,0xc(%ebp)
  4034c6:	8b 4c 13 04          	mov    0x4(%ebx,%edx,1),%ecx
  4034ca:	3b 4c 13 08          	cmp    0x8(%ebx,%edx,1),%ecx
  4034ce:	75 48                	jne    0x403518
  4034d0:	8b 4d 0c             	mov    0xc(%ebp),%ecx
  4034d3:	83 f9 20             	cmp    $0x20,%ecx
  4034d6:	73 1c                	jae    0x4034f4
  4034d8:	bf 00 00 00 80       	mov    $0x80000000,%edi
  4034dd:	d3 ef                	shr    %cl,%edi
  4034df:	8d 4c 01 04          	lea    0x4(%ecx,%eax,1),%ecx
  4034e3:	f7 d7                	not    %edi
  4034e5:	21 7c b0 44          	and    %edi,0x44(%eax,%esi,4)
  4034e9:	fe 09                	decb   (%ecx)
  4034eb:	75 2b                	jne    0x403518
  4034ed:	8b 4d 08             	mov    0x8(%ebp),%ecx
  4034f0:	21 39                	and    %edi,(%ecx)
  4034f2:	eb 24                	jmp    0x403518
  4034f4:	83 c1 e0             	add    $0xffffffe0,%ecx
  4034f7:	bf 00 00 00 80       	mov    $0x80000000,%edi
  4034fc:	d3 ef                	shr    %cl,%edi
  4034fe:	8b 4d 0c             	mov    0xc(%ebp),%ecx
  403501:	8d 4c 01 04          	lea    0x4(%ecx,%eax,1),%ecx
  403505:	f7 d7                	not    %edi
  403507:	21 bc b0 c4 00 00 00 	and    %edi,0xc4(%eax,%esi,4)
  40350e:	fe 09                	decb   (%ecx)
  403510:	75 06                	jne    0x403518
  403512:	8b 4d 08             	mov    0x8(%ebp),%ecx
  403515:	21 79 04             	and    %edi,0x4(%ecx)
  403518:	8b 4c 13 08          	mov    0x8(%ebx,%edx,1),%ecx
  40351c:	8b 7c 13 04          	mov    0x4(%ebx,%edx,1),%edi
  403520:	89 79 04             	mov    %edi,0x4(%ecx)
  403523:	8b 4c 13 04          	mov    0x4(%ebx,%edx,1),%ecx
  403527:	8b 7c 13 08          	mov    0x8(%ebx,%edx,1),%edi
  40352b:	03 5d f8             	add    -0x8(%ebp),%ebx
  40352e:	89 79 08             	mov    %edi,0x8(%ecx)
  403531:	89 5d f4             	mov    %ebx,-0xc(%ebp)
  403534:	8b fb                	mov    %ebx,%edi
  403536:	c1 ff 04             	sar    $0x4,%edi
  403539:	4f                   	dec    %edi
  40353a:	83 ff 3f             	cmp    $0x3f,%edi
  40353d:	76 03                	jbe    0x403542
  40353f:	6a 3f                	push   $0x3f
  403541:	5f                   	pop    %edi
  403542:	8b 4d fc             	mov    -0x4(%ebp),%ecx
  403545:	83 e1 01             	and    $0x1,%ecx
  403548:	89 4d ec             	mov    %ecx,-0x14(%ebp)
  40354b:	0f 85 a0 00 00 00    	jne    0x4035f1
  403551:	2b 55 fc             	sub    -0x4(%ebp),%edx
  403554:	8b 4d fc             	mov    -0x4(%ebp),%ecx
  403557:	c1 f9 04             	sar    $0x4,%ecx
  40355a:	6a 3f                	push   $0x3f
  40355c:	89 55 f8             	mov    %edx,-0x8(%ebp)
  40355f:	49                   	dec    %ecx
  403560:	5a                   	pop    %edx
  403561:	3b ca                	cmp    %edx,%ecx
  403563:	89 4d 0c             	mov    %ecx,0xc(%ebp)
  403566:	76 05                	jbe    0x40356d
  403568:	89 55 0c             	mov    %edx,0xc(%ebp)
  40356b:	8b ca                	mov    %edx,%ecx
  40356d:	03 5d fc             	add    -0x4(%ebp),%ebx
  403570:	8b fb                	mov    %ebx,%edi
  403572:	89 5d f4             	mov    %ebx,-0xc(%ebp)
  403575:	c1 ff 04             	sar    $0x4,%edi
  403578:	4f                   	dec    %edi
  403579:	3b fa                	cmp    %edx,%edi
  40357b:	76 02                	jbe    0x40357f
  40357d:	8b fa                	mov    %edx,%edi
  40357f:	3b cf                	cmp    %edi,%ecx
  403581:	74 6b                	je     0x4035ee
  403583:	8b 4d f8             	mov    -0x8(%ebp),%ecx
  403586:	8b 51 04             	mov    0x4(%ecx),%edx
  403589:	3b 51 08             	cmp    0x8(%ecx),%edx
  40358c:	75 48                	jne    0x4035d6
  40358e:	8b 4d 0c             	mov    0xc(%ebp),%ecx
  403591:	83 f9 20             	cmp    $0x20,%ecx
  403594:	73 1c                	jae    0x4035b2
  403596:	ba 00 00 00 80       	mov    $0x80000000,%edx
  40359b:	d3 ea                	shr    %cl,%edx
  40359d:	8d 4c 01 04          	lea    0x4(%ecx,%eax,1),%ecx
  4035a1:	f7 d2                	not    %edx
  4035a3:	21 54 b0 44          	and    %edx,0x44(%eax,%esi,4)
  4035a7:	fe 09                	decb   (%ecx)
  4035a9:	75 2b                	jne    0x4035d6
  4035ab:	8b 4d 08             	mov    0x8(%ebp),%ecx
  4035ae:	21 11                	and    %edx,(%ecx)
  4035b0:	eb 24                	jmp    0x4035d6
  4035b2:	83 c1 e0             	add    $0xffffffe0,%ecx
  4035b5:	ba 00 00 00 80       	mov    $0x80000000,%edx
  4035ba:	d3 ea                	shr    %cl,%edx
  4035bc:	8b 4d 0c             	mov    0xc(%ebp),%ecx
  4035bf:	8d 4c 01 04          	lea    0x4(%ecx,%eax,1),%ecx
  4035c3:	f7 d2                	not    %edx
  4035c5:	21 94 b0 c4 00 00 00 	and    %edx,0xc4(%eax,%esi,4)
  4035cc:	fe 09                	decb   (%ecx)
  4035ce:	75 06                	jne    0x4035d6
  4035d0:	8b 4d 08             	mov    0x8(%ebp),%ecx
  4035d3:	21 51 04             	and    %edx,0x4(%ecx)
  4035d6:	8b 4d f8             	mov    -0x8(%ebp),%ecx
  4035d9:	8b 51 08             	mov    0x8(%ecx),%edx
  4035dc:	8b 49 04             	mov    0x4(%ecx),%ecx
  4035df:	89 4a 04             	mov    %ecx,0x4(%edx)
  4035e2:	8b 4d f8             	mov    -0x8(%ebp),%ecx
  4035e5:	8b 51 04             	mov    0x4(%ecx),%edx
  4035e8:	8b 49 08             	mov    0x8(%ecx),%ecx
  4035eb:	89 4a 08             	mov    %ecx,0x8(%edx)
  4035ee:	8b 55 f8             	mov    -0x8(%ebp),%edx
  4035f1:	83 7d ec 00          	cmpl   $0x0,-0x14(%ebp)
  4035f5:	75 09                	jne    0x403600
  4035f7:	39 7d 0c             	cmp    %edi,0xc(%ebp)
  4035fa:	0f 84 89 00 00 00    	je     0x403689
  403600:	8b 4d f0             	mov    -0x10(%ebp),%ecx
  403603:	8d 0c f9             	lea    (%ecx,%edi,8),%ecx
  403606:	8b 49 04             	mov    0x4(%ecx),%ecx
  403609:	89 4a 04             	mov    %ecx,0x4(%edx)
  40360c:	8b 4d f0             	mov    -0x10(%ebp),%ecx
  40360f:	8d 0c f9             	lea    (%ecx,%edi,8),%ecx
  403612:	89 4a 08             	mov    %ecx,0x8(%edx)
  403615:	89 51 04             	mov    %edx,0x4(%ecx)
  403618:	8b 4a 04             	mov    0x4(%edx),%ecx
  40361b:	89 51 08             	mov    %edx,0x8(%ecx)
  40361e:	8b 4a 04             	mov    0x4(%edx),%ecx
  403621:	3b 4a 08             	cmp    0x8(%edx),%ecx
  403624:	75 63                	jne    0x403689
  403626:	8a 4c 07 04          	mov    0x4(%edi,%eax,1),%cl
  40362a:	83 ff 20             	cmp    $0x20,%edi
  40362d:	88 4d 0f             	mov    %cl,0xf(%ebp)
  403630:	fe c1                	inc    %cl
  403632:	88 4c 07 04          	mov    %cl,0x4(%edi,%eax,1)
  403636:	73 25                	jae    0x40365d
  403638:	80 7d 0f 00          	cmpb   $0x0,0xf(%ebp)
  40363c:	75 0e                	jne    0x40364c
  40363e:	bb 00 00 00 80       	mov    $0x80000000,%ebx
  403643:	8b cf                	mov    %edi,%ecx
  403645:	d3 eb                	shr    %cl,%ebx
  403647:	8b 4d 08             	mov    0x8(%ebp),%ecx
  40364a:	09 19                	or     %ebx,(%ecx)
  40364c:	bb 00 00 00 80       	mov    $0x80000000,%ebx
  403651:	8b cf                	mov    %edi,%ecx
  403653:	d3 eb                	shr    %cl,%ebx
  403655:	8d 44 b0 44          	lea    0x44(%eax,%esi,4),%eax
  403659:	09 18                	or     %ebx,(%eax)
  40365b:	eb 29                	jmp    0x403686
  40365d:	80 7d 0f 00          	cmpb   $0x0,0xf(%ebp)
  403661:	75 10                	jne    0x403673
  403663:	8d 4f e0             	lea    -0x20(%edi),%ecx
  403666:	bb 00 00 00 80       	mov    $0x80000000,%ebx
  40366b:	d3 eb                	shr    %cl,%ebx
  40366d:	8b 4d 08             	mov    0x8(%ebp),%ecx
  403670:	09 59 04             	or     %ebx,0x4(%ecx)
  403673:	8d 4f e0             	lea    -0x20(%edi),%ecx
  403676:	bf 00 00 00 80       	mov    $0x80000000,%edi
  40367b:	d3 ef                	shr    %cl,%edi
  40367d:	8d 84 b0 c4 00 00 00 	lea    0xc4(%eax,%esi,4),%eax
  403684:	09 38                	or     %edi,(%eax)
  403686:	8b 5d f4             	mov    -0xc(%ebp),%ebx
  403689:	8b 45 f0             	mov    -0x10(%ebp),%eax
  40368c:	89 1a                	mov    %ebx,(%edx)
  40368e:	89 5c 13 fc          	mov    %ebx,-0x4(%ebx,%edx,1)
  403692:	ff 08                	decl   (%eax)
  403694:	0f 85 fa 00 00 00    	jne    0x403794
  40369a:	a1 b4 0d 41 00       	mov    0x410db4,%eax
  40369f:	85 c0                	test   %eax,%eax
  4036a1:	0f 84 df 00 00 00    	je     0x403786
  4036a7:	8b 0d ac 0d 41 00    	mov    0x410dac,%ecx
  4036ad:	8b 3d 94 60 40 00    	mov    0x406094,%edi
  4036b3:	c1 e1 0f             	shl    $0xf,%ecx
  4036b6:	03 48 0c             	add    0xc(%eax),%ecx
  4036b9:	bb 00 80 00 00       	mov    $0x8000,%ebx
  4036be:	68 00 40 00 00       	push   $0x4000
  4036c3:	53                   	push   %ebx
  4036c4:	51                   	push   %ecx
  4036c5:	ff d7                	call   *%edi
  4036c7:	8b 0d ac 0d 41 00    	mov    0x410dac,%ecx
  4036cd:	a1 b4 0d 41 00       	mov    0x410db4,%eax
  4036d2:	ba 00 00 00 80       	mov    $0x80000000,%edx
  4036d7:	d3 ea                	shr    %cl,%edx
  4036d9:	09 50 08             	or     %edx,0x8(%eax)
  4036dc:	a1 b4 0d 41 00       	mov    0x410db4,%eax
  4036e1:	8b 0d ac 0d 41 00    	mov    0x410dac,%ecx
  4036e7:	8b 40 10             	mov    0x10(%eax),%eax
  4036ea:	83 a4 88 c4 00 00 00 	andl   $0x0,0xc4(%eax,%ecx,4)
  4036f1:	00 
  4036f2:	a1 b4 0d 41 00       	mov    0x410db4,%eax
  4036f7:	8b 40 10             	mov    0x10(%eax),%eax
  4036fa:	fe 48 43             	decb   0x43(%eax)
  4036fd:	a1 b4 0d 41 00       	mov    0x410db4,%eax
  403702:	8b 48 10             	mov    0x10(%eax),%ecx
  403705:	80 79 43 00          	cmpb   $0x0,0x43(%ecx)
  403709:	75 09                	jne    0x403714
  40370b:	83 60 04 fe          	andl   $0xfffffffe,0x4(%eax)
  40370f:	a1 b4 0d 41 00       	mov    0x410db4,%eax
  403714:	83 78 08 ff          	cmpl   $0xffffffff,0x8(%eax)
  403718:	75 6c                	jne    0x403786
  40371a:	53                   	push   %ebx
  40371b:	6a 00                	push   $0x0
  40371d:	ff 70 0c             	pushl  0xc(%eax)
  403720:	ff d7                	call   *%edi
  403722:	a1 b4 0d 41 00       	mov    0x410db4,%eax
  403727:	ff 70 10             	pushl  0x10(%eax)
  40372a:	6a 00                	push   $0x0
  40372c:	ff 35 e4 1d 41 00    	pushl  0x411de4
  403732:	ff 15 98 60 40 00    	call   *0x406098
  403738:	a1 b8 0d 41 00       	mov    0x410db8,%eax
  40373d:	8b 15 bc 0d 41 00    	mov    0x410dbc,%edx
  403743:	8d 04 80             	lea    (%eax,%eax,4),%eax
  403746:	c1 e0 02             	shl    $0x2,%eax
  403749:	8b c8                	mov    %eax,%ecx
  40374b:	a1 b4 0d 41 00       	mov    0x410db4,%eax
  403750:	2b c8                	sub    %eax,%ecx
  403752:	8d 4c 11 ec          	lea    -0x14(%ecx,%edx,1),%ecx
  403756:	51                   	push   %ecx
  403757:	8d 48 14             	lea    0x14(%eax),%ecx
  40375a:	51                   	push   %ecx
  40375b:	50                   	push   %eax
  40375c:	e8 bf 15 00 00       	call   0x404d20
  403761:	8b 45 08             	mov    0x8(%ebp),%eax
  403764:	83 c4 0c             	add    $0xc,%esp
  403767:	ff 0d b8 0d 41 00    	decl   0x410db8
  40376d:	3b 05 b4 0d 41 00    	cmp    0x410db4,%eax
  403773:	76 03                	jbe    0x403778
  403775:	83 e8 14             	sub    $0x14,%eax
  403778:	8b 0d bc 0d 41 00    	mov    0x410dbc,%ecx
  40377e:	89 0d b0 0d 41 00    	mov    %ecx,0x410db0
  403784:	eb 03                	jmp    0x403789
  403786:	8b 45 08             	mov    0x8(%ebp),%eax
  403789:	a3 b4 0d 41 00       	mov    %eax,0x410db4
  40378e:	89 35 ac 0d 41 00    	mov    %esi,0x410dac
  403794:	5f                   	pop    %edi
  403795:	5e                   	pop    %esi
  403796:	5b                   	pop    %ebx
  403797:	c9                   	leave  
  403798:	c3                   	ret    
  403799:	55                   	push   %ebp
  40379a:	8b ec                	mov    %esp,%ebp
  40379c:	83 ec 14             	sub    $0x14,%esp
  40379f:	a1 b8 0d 41 00       	mov    0x410db8,%eax
  4037a4:	8b 15 bc 0d 41 00    	mov    0x410dbc,%edx
  4037aa:	53                   	push   %ebx
  4037ab:	56                   	push   %esi
  4037ac:	8d 04 80             	lea    (%eax,%eax,4),%eax
  4037af:	57                   	push   %edi
  4037b0:	8d 3c 82             	lea    (%edx,%eax,4),%edi
  4037b3:	8b 45 08             	mov    0x8(%ebp),%eax
  4037b6:	89 7d fc             	mov    %edi,-0x4(%ebp)
  4037b9:	8d 48 17             	lea    0x17(%eax),%ecx
  4037bc:	83 e1 f0             	and    $0xfffffff0,%ecx
  4037bf:	89 4d f0             	mov    %ecx,-0x10(%ebp)
  4037c2:	c1 f9 04             	sar    $0x4,%ecx
  4037c5:	49                   	dec    %ecx
  4037c6:	83 f9 20             	cmp    $0x20,%ecx
  4037c9:	7d 0e                	jge    0x4037d9
  4037cb:	83 ce ff             	or     $0xffffffff,%esi
  4037ce:	d3 ee                	shr    %cl,%esi
  4037d0:	83 4d f8 ff          	orl    $0xffffffff,-0x8(%ebp)
  4037d4:	89 75 f4             	mov    %esi,-0xc(%ebp)
  4037d7:	eb 10                	jmp    0x4037e9
  4037d9:	83 c1 e0             	add    $0xffffffe0,%ecx
  4037dc:	83 c8 ff             	or     $0xffffffff,%eax
  4037df:	33 f6                	xor    %esi,%esi
  4037e1:	d3 e8                	shr    %cl,%eax
  4037e3:	89 75 f4             	mov    %esi,-0xc(%ebp)
  4037e6:	89 45 f8             	mov    %eax,-0x8(%ebp)
  4037e9:	a1 b0 0d 41 00       	mov    0x410db0,%eax
  4037ee:	8b d8                	mov    %eax,%ebx
  4037f0:	3b df                	cmp    %edi,%ebx
  4037f2:	89 5d 08             	mov    %ebx,0x8(%ebp)
  4037f5:	73 19                	jae    0x403810
  4037f7:	8b 4b 04             	mov    0x4(%ebx),%ecx
  4037fa:	8b 3b                	mov    (%ebx),%edi
  4037fc:	23 4d f8             	and    -0x8(%ebp),%ecx
  4037ff:	23 fe                	and    %esi,%edi
  403801:	0b cf                	or     %edi,%ecx
  403803:	75 0b                	jne    0x403810
  403805:	83 c3 14             	add    $0x14,%ebx
  403808:	3b 5d fc             	cmp    -0x4(%ebp),%ebx
  40380b:	89 5d 08             	mov    %ebx,0x8(%ebp)
  40380e:	72 e7                	jb     0x4037f7
  403810:	3b 5d fc             	cmp    -0x4(%ebp),%ebx
  403813:	75 79                	jne    0x40388e
  403815:	8b da                	mov    %edx,%ebx
  403817:	3b d8                	cmp    %eax,%ebx
  403819:	89 5d 08             	mov    %ebx,0x8(%ebp)
  40381c:	73 15                	jae    0x403833
  40381e:	8b 4b 04             	mov    0x4(%ebx),%ecx
  403821:	8b 3b                	mov    (%ebx),%edi
  403823:	23 4d f8             	and    -0x8(%ebp),%ecx
  403826:	23 fe                	and    %esi,%edi
  403828:	0b cf                	or     %edi,%ecx
  40382a:	75 05                	jne    0x403831
  40382c:	83 c3 14             	add    $0x14,%ebx
  40382f:	eb e6                	jmp    0x403817
  403831:	3b d8                	cmp    %eax,%ebx
  403833:	75 59                	jne    0x40388e
  403835:	3b 5d fc             	cmp    -0x4(%ebp),%ebx
  403838:	73 11                	jae    0x40384b
  40383a:	83 7b 08 00          	cmpl   $0x0,0x8(%ebx)
  40383e:	75 08                	jne    0x403848
  403840:	83 c3 14             	add    $0x14,%ebx
  403843:	89 5d 08             	mov    %ebx,0x8(%ebp)
  403846:	eb ed                	jmp    0x403835
  403848:	3b 5d fc             	cmp    -0x4(%ebp),%ebx
  40384b:	75 26                	jne    0x403873
  40384d:	8b da                	mov    %edx,%ebx
  40384f:	3b d8                	cmp    %eax,%ebx
  403851:	89 5d 08             	mov    %ebx,0x8(%ebp)
  403854:	73 0d                	jae    0x403863
  403856:	83 7b 08 00          	cmpl   $0x0,0x8(%ebx)
  40385a:	75 05                	jne    0x403861
  40385c:	83 c3 14             	add    $0x14,%ebx
  40385f:	eb ee                	jmp    0x40384f
  403861:	3b d8                	cmp    %eax,%ebx
  403863:	75 0e                	jne    0x403873
  403865:	e8 38 02 00 00       	call   0x403aa2
  40386a:	8b d8                	mov    %eax,%ebx
  40386c:	85 db                	test   %ebx,%ebx
  40386e:	89 5d 08             	mov    %ebx,0x8(%ebp)
  403871:	74 14                	je     0x403887
  403873:	53                   	push   %ebx
  403874:	e8 da 02 00 00       	call   0x403b53
  403879:	59                   	pop    %ecx
  40387a:	8b 4b 10             	mov    0x10(%ebx),%ecx
  40387d:	89 01                	mov    %eax,(%ecx)
  40387f:	8b 43 10             	mov    0x10(%ebx),%eax
  403882:	83 38 ff             	cmpl   $0xffffffff,(%eax)
  403885:	75 07                	jne    0x40388e
  403887:	33 c0                	xor    %eax,%eax
  403889:	e9 0f 02 00 00       	jmp    0x403a9d
  40388e:	89 1d b0 0d 41 00    	mov    %ebx,0x410db0
  403894:	8b 43 10             	mov    0x10(%ebx),%eax
  403897:	8b 10                	mov    (%eax),%edx
  403899:	83 fa ff             	cmp    $0xffffffff,%edx
  40389c:	89 55 fc             	mov    %edx,-0x4(%ebp)
  40389f:	74 14                	je     0x4038b5
  4038a1:	8b 8c 90 c4 00 00 00 	mov    0xc4(%eax,%edx,4),%ecx
  4038a8:	8b 7c 90 44          	mov    0x44(%eax,%edx,4),%edi
  4038ac:	23 4d f8             	and    -0x8(%ebp),%ecx
  4038af:	23 fe                	and    %esi,%edi
  4038b1:	0b cf                	or     %edi,%ecx
  4038b3:	75 37                	jne    0x4038ec
  4038b5:	8b 90 c4 00 00 00    	mov    0xc4(%eax),%edx
  4038bb:	8b 70 44             	mov    0x44(%eax),%esi
  4038be:	23 55 f8             	and    -0x8(%ebp),%edx
  4038c1:	23 75 f4             	and    -0xc(%ebp),%esi
  4038c4:	83 65 fc 00          	andl   $0x0,-0x4(%ebp)
  4038c8:	8d 48 44             	lea    0x44(%eax),%ecx
  4038cb:	0b d6                	or     %esi,%edx
  4038cd:	8b 75 f4             	mov    -0xc(%ebp),%esi
  4038d0:	75 17                	jne    0x4038e9
  4038d2:	8b 91 84 00 00 00    	mov    0x84(%ecx),%edx
  4038d8:	ff 45 fc             	incl   -0x4(%ebp)
  4038db:	23 55 f8             	and    -0x8(%ebp),%edx
  4038de:	83 c1 04             	add    $0x4,%ecx
  4038e1:	8b fe                	mov    %esi,%edi
  4038e3:	23 39                	and    (%ecx),%edi
  4038e5:	0b d7                	or     %edi,%edx
  4038e7:	74 e9                	je     0x4038d2
  4038e9:	8b 55 fc             	mov    -0x4(%ebp),%edx
  4038ec:	8b ca                	mov    %edx,%ecx
  4038ee:	33 ff                	xor    %edi,%edi
  4038f0:	69 c9 04 02 00 00    	imul   $0x204,%ecx,%ecx
  4038f6:	8d 8c 01 44 01 00 00 	lea    0x144(%ecx,%eax,1),%ecx
  4038fd:	89 4d f4             	mov    %ecx,-0xc(%ebp)
  403900:	8b 4c 90 44          	mov    0x44(%eax,%edx,4),%ecx
  403904:	23 ce                	and    %esi,%ecx
  403906:	75 0d                	jne    0x403915
  403908:	8b 8c 90 c4 00 00 00 	mov    0xc4(%eax,%edx,4),%ecx
  40390f:	6a 20                	push   $0x20
  403911:	23 4d f8             	and    -0x8(%ebp),%ecx
  403914:	5f                   	pop    %edi
  403915:	85 c9                	test   %ecx,%ecx
  403917:	7c 05                	jl     0x40391e
  403919:	d1 e1                	shl    %ecx
  40391b:	47                   	inc    %edi
  40391c:	eb f7                	jmp    0x403915
  40391e:	8b 4d f4             	mov    -0xc(%ebp),%ecx
  403921:	8b 54 f9 04          	mov    0x4(%ecx,%edi,8),%edx
  403925:	8b 0a                	mov    (%edx),%ecx
  403927:	2b 4d f0             	sub    -0x10(%ebp),%ecx
  40392a:	8b f1                	mov    %ecx,%esi
  40392c:	89 4d f8             	mov    %ecx,-0x8(%ebp)
  40392f:	c1 fe 04             	sar    $0x4,%esi
  403932:	4e                   	dec    %esi
  403933:	83 fe 3f             	cmp    $0x3f,%esi
  403936:	7e 03                	jle    0x40393b
  403938:	6a 3f                	push   $0x3f
  40393a:	5e                   	pop    %esi
  40393b:	3b f7                	cmp    %edi,%esi
  40393d:	0f 84 0d 01 00 00    	je     0x403a50
  403943:	8b 4a 04             	mov    0x4(%edx),%ecx
  403946:	3b 4a 08             	cmp    0x8(%edx),%ecx
  403949:	75 61                	jne    0x4039ac
  40394b:	83 ff 20             	cmp    $0x20,%edi
  40394e:	7d 2b                	jge    0x40397b
  403950:	bb 00 00 00 80       	mov    $0x80000000,%ebx
  403955:	8b cf                	mov    %edi,%ecx
  403957:	d3 eb                	shr    %cl,%ebx
  403959:	8b 4d fc             	mov    -0x4(%ebp),%ecx
  40395c:	8d 7c 38 04          	lea    0x4(%eax,%edi,1),%edi
  403960:	f7 d3                	not    %ebx
  403962:	89 5d ec             	mov    %ebx,-0x14(%ebp)
  403965:	23 5c 88 44          	and    0x44(%eax,%ecx,4),%ebx
  403969:	89 5c 88 44          	mov    %ebx,0x44(%eax,%ecx,4)
  40396d:	fe 0f                	decb   (%edi)
  40396f:	75 38                	jne    0x4039a9
  403971:	8b 5d 08             	mov    0x8(%ebp),%ebx
  403974:	8b 4d ec             	mov    -0x14(%ebp),%ecx
  403977:	21 0b                	and    %ecx,(%ebx)
  403979:	eb 31                	jmp    0x4039ac
  40397b:	8d 4f e0             	lea    -0x20(%edi),%ecx
  40397e:	bb 00 00 00 80       	mov    $0x80000000,%ebx
  403983:	d3 eb                	shr    %cl,%ebx
  403985:	8b 4d fc             	mov    -0x4(%ebp),%ecx
  403988:	8d 7c 38 04          	lea    0x4(%eax,%edi,1),%edi
  40398c:	8d 8c 88 c4 00 00 00 	lea    0xc4(%eax,%ecx,4),%ecx
  403993:	f7 d3                	not    %ebx
  403995:	21 19                	and    %ebx,(%ecx)
  403997:	fe 0f                	decb   (%edi)
  403999:	89 5d ec             	mov    %ebx,-0x14(%ebp)
  40399c:	75 0b                	jne    0x4039a9
  40399e:	8b 5d 08             	mov    0x8(%ebp),%ebx
  4039a1:	8b 4d ec             	mov    -0x14(%ebp),%ecx
  4039a4:	21 4b 04             	and    %ecx,0x4(%ebx)
  4039a7:	eb 03                	jmp    0x4039ac
  4039a9:	8b 5d 08             	mov    0x8(%ebp),%ebx
  4039ac:	8b 4a 08             	mov    0x8(%edx),%ecx
  4039af:	8b 7a 04             	mov    0x4(%edx),%edi
  4039b2:	83 7d f8 00          	cmpl   $0x0,-0x8(%ebp)
  4039b6:	89 79 04             	mov    %edi,0x4(%ecx)
  4039b9:	8b 4a 04             	mov    0x4(%edx),%ecx
  4039bc:	8b 7a 08             	mov    0x8(%edx),%edi
  4039bf:	89 79 08             	mov    %edi,0x8(%ecx)
  4039c2:	0f 84 94 00 00 00    	je     0x403a5c
  4039c8:	8b 4d f4             	mov    -0xc(%ebp),%ecx
  4039cb:	8b 7c f1 04          	mov    0x4(%ecx,%esi,8),%edi
  4039cf:	8d 0c f1             	lea    (%ecx,%esi,8),%ecx
  4039d2:	89 7a 04             	mov    %edi,0x4(%edx)
  4039d5:	89 4a 08             	mov    %ecx,0x8(%edx)
  4039d8:	89 51 04             	mov    %edx,0x4(%ecx)
  4039db:	8b 4a 04             	mov    0x4(%edx),%ecx
  4039de:	89 51 08             	mov    %edx,0x8(%ecx)
  4039e1:	8b 4a 04             	mov    0x4(%edx),%ecx
  4039e4:	3b 4a 08             	cmp    0x8(%edx),%ecx
  4039e7:	75 64                	jne    0x403a4d
  4039e9:	8a 4c 06 04          	mov    0x4(%esi,%eax,1),%cl
  4039ed:	83 fe 20             	cmp    $0x20,%esi
  4039f0:	88 4d 0b             	mov    %cl,0xb(%ebp)
  4039f3:	7d 29                	jge    0x403a1e
  4039f5:	fe c1                	inc    %cl
  4039f7:	80 7d 0b 00          	cmpb   $0x0,0xb(%ebp)
  4039fb:	88 4c 06 04          	mov    %cl,0x4(%esi,%eax,1)
  4039ff:	75 0b                	jne    0x403a0c
  403a01:	bf 00 00 00 80       	mov    $0x80000000,%edi
  403a06:	8b ce                	mov    %esi,%ecx
  403a08:	d3 ef                	shr    %cl,%edi
  403a0a:	09 3b                	or     %edi,(%ebx)
  403a0c:	bf 00 00 00 80       	mov    $0x80000000,%edi
  403a11:	8b ce                	mov    %esi,%ecx
  403a13:	d3 ef                	shr    %cl,%edi
  403a15:	8b 4d fc             	mov    -0x4(%ebp),%ecx
  403a18:	09 7c 88 44          	or     %edi,0x44(%eax,%ecx,4)
  403a1c:	eb 2f                	jmp    0x403a4d
  403a1e:	fe c1                	inc    %cl
  403a20:	80 7d 0b 00          	cmpb   $0x0,0xb(%ebp)
  403a24:	88 4c 06 04          	mov    %cl,0x4(%esi,%eax,1)
  403a28:	75 0d                	jne    0x403a37
  403a2a:	8d 4e e0             	lea    -0x20(%esi),%ecx
  403a2d:	bf 00 00 00 80       	mov    $0x80000000,%edi
  403a32:	d3 ef                	shr    %cl,%edi
  403a34:	09 7b 04             	or     %edi,0x4(%ebx)
  403a37:	8b 4d fc             	mov    -0x4(%ebp),%ecx
  403a3a:	8d bc 88 c4 00 00 00 	lea    0xc4(%eax,%ecx,4),%edi
  403a41:	8d 4e e0             	lea    -0x20(%esi),%ecx
  403a44:	be 00 00 00 80       	mov    $0x80000000,%esi
  403a49:	d3 ee                	shr    %cl,%esi
  403a4b:	09 37                	or     %esi,(%edi)
  403a4d:	8b 4d f8             	mov    -0x8(%ebp),%ecx
  403a50:	85 c9                	test   %ecx,%ecx
  403a52:	74 0b                	je     0x403a5f
  403a54:	89 0a                	mov    %ecx,(%edx)
  403a56:	89 4c 11 fc          	mov    %ecx,-0x4(%ecx,%edx,1)
  403a5a:	eb 03                	jmp    0x403a5f
  403a5c:	8b 4d f8             	mov    -0x8(%ebp),%ecx
  403a5f:	8b 75 f0             	mov    -0x10(%ebp),%esi
  403a62:	03 d1                	add    %ecx,%edx
  403a64:	8d 4e 01             	lea    0x1(%esi),%ecx
  403a67:	89 0a                	mov    %ecx,(%edx)
  403a69:	89 4c 32 fc          	mov    %ecx,-0x4(%edx,%esi,1)
  403a6d:	8b 75 f4             	mov    -0xc(%ebp),%esi
  403a70:	8b 0e                	mov    (%esi),%ecx
  403a72:	85 c9                	test   %ecx,%ecx
  403a74:	8d 79 01             	lea    0x1(%ecx),%edi
  403a77:	89 3e                	mov    %edi,(%esi)
  403a79:	75 1a                	jne    0x403a95
  403a7b:	3b 1d b4 0d 41 00    	cmp    0x410db4,%ebx
  403a81:	75 12                	jne    0x403a95
  403a83:	8b 4d fc             	mov    -0x4(%ebp),%ecx
  403a86:	3b 0d ac 0d 41 00    	cmp    0x410dac,%ecx
  403a8c:	75 07                	jne    0x403a95
  403a8e:	83 25 b4 0d 41 00 00 	andl   $0x0,0x410db4
  403a95:	8b 4d fc             	mov    -0x4(%ebp),%ecx
  403a98:	89 08                	mov    %ecx,(%eax)
  403a9a:	8d 42 04             	lea    0x4(%edx),%eax
  403a9d:	5f                   	pop    %edi
  403a9e:	5e                   	pop    %esi
  403a9f:	5b                   	pop    %ebx
  403aa0:	c9                   	leave  
  403aa1:	c3                   	ret    
  403aa2:	a1 b8 0d 41 00       	mov    0x410db8,%eax
  403aa7:	8b 0d a8 0d 41 00    	mov    0x410da8,%ecx
  403aad:	56                   	push   %esi
  403aae:	57                   	push   %edi
  403aaf:	33 ff                	xor    %edi,%edi
  403ab1:	3b c1                	cmp    %ecx,%eax
  403ab3:	75 30                	jne    0x403ae5
  403ab5:	8d 44 89 50          	lea    0x50(%ecx,%ecx,4),%eax
  403ab9:	c1 e0 02             	shl    $0x2,%eax
  403abc:	50                   	push   %eax
  403abd:	ff 35 bc 0d 41 00    	pushl  0x410dbc
  403ac3:	57                   	push   %edi
  403ac4:	ff 35 e4 1d 41 00    	pushl  0x411de4
  403aca:	ff 15 54 60 40 00    	call   *0x406054
  403ad0:	3b c7                	cmp    %edi,%eax
  403ad2:	74 61                	je     0x403b35
  403ad4:	83 05 a8 0d 41 00 10 	addl   $0x10,0x410da8
  403adb:	a3 bc 0d 41 00       	mov    %eax,0x410dbc
  403ae0:	a1 b8 0d 41 00       	mov    0x410db8,%eax
  403ae5:	8b 0d bc 0d 41 00    	mov    0x410dbc,%ecx
  403aeb:	68 c4 41 00 00       	push   $0x41c4
  403af0:	6a 08                	push   $0x8
  403af2:	8d 04 80             	lea    (%eax,%eax,4),%eax
  403af5:	ff 35 e4 1d 41 00    	pushl  0x411de4
  403afb:	8d 34 81             	lea    (%ecx,%eax,4),%esi
  403afe:	ff 15 58 60 40 00    	call   *0x406058
  403b04:	3b c7                	cmp    %edi,%eax
  403b06:	89 46 10             	mov    %eax,0x10(%esi)
  403b09:	74 2a                	je     0x403b35
  403b0b:	6a 04                	push   $0x4
  403b0d:	68 00 20 00 00       	push   $0x2000
  403b12:	68 00 00 10 00       	push   $0x100000
  403b17:	57                   	push   %edi
  403b18:	ff 15 24 60 40 00    	call   *0x406024
  403b1e:	3b c7                	cmp    %edi,%eax
  403b20:	89 46 0c             	mov    %eax,0xc(%esi)
  403b23:	75 14                	jne    0x403b39
  403b25:	ff 76 10             	pushl  0x10(%esi)
  403b28:	57                   	push   %edi
  403b29:	ff 35 e4 1d 41 00    	pushl  0x411de4
  403b2f:	ff 15 98 60 40 00    	call   *0x406098
  403b35:	33 c0                	xor    %eax,%eax
  403b37:	eb 17                	jmp    0x403b50
  403b39:	83 4e 08 ff          	orl    $0xffffffff,0x8(%esi)
  403b3d:	89 3e                	mov    %edi,(%esi)
  403b3f:	89 7e 04             	mov    %edi,0x4(%esi)
  403b42:	ff 05 b8 0d 41 00    	incl   0x410db8
  403b48:	8b 46 10             	mov    0x10(%esi),%eax
  403b4b:	83 08 ff             	orl    $0xffffffff,(%eax)
  403b4e:	8b c6                	mov    %esi,%eax
  403b50:	5f                   	pop    %edi
  403b51:	5e                   	pop    %esi
  403b52:	c3                   	ret    
  403b53:	55                   	push   %ebp
  403b54:	8b ec                	mov    %esp,%ebp
  403b56:	51                   	push   %ecx
  403b57:	8b 4d 08             	mov    0x8(%ebp),%ecx
  403b5a:	53                   	push   %ebx
  403b5b:	56                   	push   %esi
  403b5c:	57                   	push   %edi
  403b5d:	8b 71 10             	mov    0x10(%ecx),%esi
  403b60:	8b 41 08             	mov    0x8(%ecx),%eax
  403b63:	33 db                	xor    %ebx,%ebx
  403b65:	85 c0                	test   %eax,%eax
  403b67:	7c 05                	jl     0x403b6e
  403b69:	d1 e0                	shl    %eax
  403b6b:	43                   	inc    %ebx
  403b6c:	eb f7                	jmp    0x403b65
  403b6e:	8b c3                	mov    %ebx,%eax
  403b70:	6a 3f                	push   $0x3f
  403b72:	69 c0 04 02 00 00    	imul   $0x204,%eax,%eax
  403b78:	5a                   	pop    %edx
  403b79:	8d 84 30 44 01 00 00 	lea    0x144(%eax,%esi,1),%eax
  403b80:	89 45 fc             	mov    %eax,-0x4(%ebp)
  403b83:	89 40 08             	mov    %eax,0x8(%eax)
  403b86:	89 40 04             	mov    %eax,0x4(%eax)
  403b89:	83 c0 08             	add    $0x8,%eax
  403b8c:	4a                   	dec    %edx
  403b8d:	75 f4                	jne    0x403b83
  403b8f:	8b fb                	mov    %ebx,%edi
  403b91:	6a 04                	push   $0x4
  403b93:	c1 e7 0f             	shl    $0xf,%edi
  403b96:	03 79 0c             	add    0xc(%ecx),%edi
  403b99:	68 00 10 00 00       	push   $0x1000
  403b9e:	68 00 80 00 00       	push   $0x8000
  403ba3:	57                   	push   %edi
  403ba4:	ff 15 24 60 40 00    	call   *0x406024
  403baa:	85 c0                	test   %eax,%eax
  403bac:	75 08                	jne    0x403bb6
  403bae:	83 c8 ff             	or     $0xffffffff,%eax
  403bb1:	e9 93 00 00 00       	jmp    0x403c49
  403bb6:	8d 97 00 70 00 00    	lea    0x7000(%edi),%edx
  403bbc:	3b fa                	cmp    %edx,%edi
  403bbe:	77 3c                	ja     0x403bfc
  403bc0:	8d 47 10             	lea    0x10(%edi),%eax
  403bc3:	83 48 f8 ff          	orl    $0xffffffff,-0x8(%eax)
  403bc7:	83 88 ec 0f 00 00 ff 	orl    $0xffffffff,0xfec(%eax)
  403bce:	8d 88 fc 0f 00 00    	lea    0xffc(%eax),%ecx
  403bd4:	c7 40 fc f0 0f 00 00 	movl   $0xff0,-0x4(%eax)
  403bdb:	89 08                	mov    %ecx,(%eax)
  403bdd:	8d 88 fc ef ff ff    	lea    -0x1004(%eax),%ecx
  403be3:	89 48 04             	mov    %ecx,0x4(%eax)
  403be6:	c7 80 e8 0f 00 00 f0 	movl   $0xff0,0xfe8(%eax)
  403bed:	0f 00 00 
  403bf0:	05 00 10 00 00       	add    $0x1000,%eax
  403bf5:	8d 48 f0             	lea    -0x10(%eax),%ecx
  403bf8:	3b ca                	cmp    %edx,%ecx
  403bfa:	76 c7                	jbe    0x403bc3
  403bfc:	8b 45 fc             	mov    -0x4(%ebp),%eax
  403bff:	8d 4f 0c             	lea    0xc(%edi),%ecx
  403c02:	05 f8 01 00 00       	add    $0x1f8,%eax
  403c07:	6a 01                	push   $0x1
  403c09:	5f                   	pop    %edi
  403c0a:	89 48 04             	mov    %ecx,0x4(%eax)
  403c0d:	89 41 08             	mov    %eax,0x8(%ecx)
  403c10:	8d 4a 0c             	lea    0xc(%edx),%ecx
  403c13:	89 48 08             	mov    %ecx,0x8(%eax)
  403c16:	89 41 04             	mov    %eax,0x4(%ecx)
  403c19:	83 64 9e 44 00       	andl   $0x0,0x44(%esi,%ebx,4)
  403c1e:	89 bc 9e c4 00 00 00 	mov    %edi,0xc4(%esi,%ebx,4)
  403c25:	8a 46 43             	mov    0x43(%esi),%al
  403c28:	8a c8                	mov    %al,%cl
  403c2a:	fe c1                	inc    %cl
  403c2c:	84 c0                	test   %al,%al
  403c2e:	8b 45 08             	mov    0x8(%ebp),%eax
  403c31:	88 4e 43             	mov    %cl,0x43(%esi)
  403c34:	75 03                	jne    0x403c39
  403c36:	09 78 04             	or     %edi,0x4(%eax)
  403c39:	ba 00 00 00 80       	mov    $0x80000000,%edx
  403c3e:	8b cb                	mov    %ebx,%ecx
  403c40:	d3 ea                	shr    %cl,%edx
  403c42:	f7 d2                	not    %edx
  403c44:	21 50 08             	and    %edx,0x8(%eax)
  403c47:	8b c3                	mov    %ebx,%eax
  403c49:	5f                   	pop    %edi
  403c4a:	5e                   	pop    %esi
  403c4b:	5b                   	pop    %ebx
  403c4c:	c9                   	leave  
  403c4d:	c3                   	ret    
  403c4e:	55                   	push   %ebp
  403c4f:	8b ec                	mov    %esp,%ebp
  403c51:	83 ec 0c             	sub    $0xc,%esp
  403c54:	8b 4d 08             	mov    0x8(%ebp),%ecx
  403c57:	8b 45 10             	mov    0x10(%ebp),%eax
  403c5a:	53                   	push   %ebx
  403c5b:	56                   	push   %esi
  403c5c:	57                   	push   %edi
  403c5d:	8b 7d 0c             	mov    0xc(%ebp),%edi
  403c60:	8b d7                	mov    %edi,%edx
  403c62:	8d 70 17             	lea    0x17(%eax),%esi
  403c65:	2b 51 0c             	sub    0xc(%ecx),%edx
  403c68:	8b 41 10             	mov    0x10(%ecx),%eax
  403c6b:	83 e6 f0             	and    $0xfffffff0,%esi
  403c6e:	c1 ea 0f             	shr    $0xf,%edx
  403c71:	8b ca                	mov    %edx,%ecx
  403c73:	69 c9 04 02 00 00    	imul   $0x204,%ecx,%ecx
  403c79:	8d 8c 01 44 01 00 00 	lea    0x144(%ecx,%eax,1),%ecx
  403c80:	89 4d f4             	mov    %ecx,-0xc(%ebp)
  403c83:	8b 4f fc             	mov    -0x4(%edi),%ecx
  403c86:	49                   	dec    %ecx
  403c87:	3b f1                	cmp    %ecx,%esi
  403c89:	89 4d 10             	mov    %ecx,0x10(%ebp)
  403c8c:	8b 5c 39 fc          	mov    -0x4(%ecx,%edi,1),%ebx
  403c90:	8d 7c 39 fc          	lea    -0x4(%ecx,%edi,1),%edi
  403c94:	89 5d fc             	mov    %ebx,-0x4(%ebp)
  403c97:	0f 8e 5f 01 00 00    	jle    0x403dfc
  403c9d:	f6 c3 01             	test   $0x1,%bl
  403ca0:	0f 85 4f 01 00 00    	jne    0x403df5
  403ca6:	03 d9                	add    %ecx,%ebx
  403ca8:	3b f3                	cmp    %ebx,%esi
  403caa:	0f 8f 45 01 00 00    	jg     0x403df5
  403cb0:	8b 4d fc             	mov    -0x4(%ebp),%ecx
  403cb3:	c1 f9 04             	sar    $0x4,%ecx
  403cb6:	49                   	dec    %ecx
  403cb7:	83 f9 3f             	cmp    $0x3f,%ecx
  403cba:	89 4d f8             	mov    %ecx,-0x8(%ebp)
  403cbd:	76 06                	jbe    0x403cc5
  403cbf:	6a 3f                	push   $0x3f
  403cc1:	59                   	pop    %ecx
  403cc2:	89 4d f8             	mov    %ecx,-0x8(%ebp)
  403cc5:	8b 5f 04             	mov    0x4(%edi),%ebx
  403cc8:	3b 5f 08             	cmp    0x8(%edi),%ebx
  403ccb:	75 48                	jne    0x403d15
  403ccd:	83 f9 20             	cmp    $0x20,%ecx
  403cd0:	73 1f                	jae    0x403cf1
  403cd2:	bb 00 00 00 80       	mov    $0x80000000,%ebx
  403cd7:	d3 eb                	shr    %cl,%ebx
  403cd9:	8b 4d f8             	mov    -0x8(%ebp),%ecx
  403cdc:	8d 4c 01 04          	lea    0x4(%ecx,%eax,1),%ecx
  403ce0:	f7 d3                	not    %ebx
  403ce2:	21 5c 90 44          	and    %ebx,0x44(%eax,%edx,4)
  403ce6:	fe 09                	decb   (%ecx)
  403ce8:	75 2b                	jne    0x403d15
  403cea:	8b 4d 08             	mov    0x8(%ebp),%ecx
  403ced:	21 19                	and    %ebx,(%ecx)
  403cef:	eb 24                	jmp    0x403d15
  403cf1:	83 c1 e0             	add    $0xffffffe0,%ecx
  403cf4:	bb 00 00 00 80       	mov    $0x80000000,%ebx
  403cf9:	d3 eb                	shr    %cl,%ebx
  403cfb:	8b 4d f8             	mov    -0x8(%ebp),%ecx
  403cfe:	8d 4c 01 04          	lea    0x4(%ecx,%eax,1),%ecx
  403d02:	f7 d3                	not    %ebx
  403d04:	21 9c 90 c4 00 00 00 	and    %ebx,0xc4(%eax,%edx,4)
  403d0b:	fe 09                	decb   (%ecx)
  403d0d:	75 06                	jne    0x403d15
  403d0f:	8b 4d 08             	mov    0x8(%ebp),%ecx
  403d12:	21 59 04             	and    %ebx,0x4(%ecx)
  403d15:	8b 4f 08             	mov    0x8(%edi),%ecx
  403d18:	8b 5f 04             	mov    0x4(%edi),%ebx
  403d1b:	89 59 04             	mov    %ebx,0x4(%ecx)
  403d1e:	8b 4f 04             	mov    0x4(%edi),%ecx
  403d21:	8b 7f 08             	mov    0x8(%edi),%edi
  403d24:	89 79 08             	mov    %edi,0x8(%ecx)
  403d27:	8b 4d 10             	mov    0x10(%ebp),%ecx
  403d2a:	2b ce                	sub    %esi,%ecx
  403d2c:	01 4d fc             	add    %ecx,-0x4(%ebp)
  403d2f:	83 7d fc 00          	cmpl   $0x0,-0x4(%ebp)
  403d33:	0f 8e aa 00 00 00    	jle    0x403de3
  403d39:	8b 7d fc             	mov    -0x4(%ebp),%edi
  403d3c:	8b 4d 0c             	mov    0xc(%ebp),%ecx
  403d3f:	c1 ff 04             	sar    $0x4,%edi
  403d42:	4f                   	dec    %edi
  403d43:	8d 4c 31 fc          	lea    -0x4(%ecx,%esi,1),%ecx
  403d47:	83 ff 3f             	cmp    $0x3f,%edi
  403d4a:	76 03                	jbe    0x403d4f
  403d4c:	6a 3f                	push   $0x3f
  403d4e:	5f                   	pop    %edi
  403d4f:	8b 5d f4             	mov    -0xc(%ebp),%ebx
  403d52:	8d 1c fb             	lea    (%ebx,%edi,8),%ebx
  403d55:	89 5d 10             	mov    %ebx,0x10(%ebp)
  403d58:	8b 5b 04             	mov    0x4(%ebx),%ebx
  403d5b:	89 59 04             	mov    %ebx,0x4(%ecx)
  403d5e:	8b 5d 10             	mov    0x10(%ebp),%ebx
  403d61:	89 59 08             	mov    %ebx,0x8(%ecx)
  403d64:	89 4b 04             	mov    %ecx,0x4(%ebx)
  403d67:	8b 59 04             	mov    0x4(%ecx),%ebx
  403d6a:	89 4b 08             	mov    %ecx,0x8(%ebx)
  403d6d:	8b 59 04             	mov    0x4(%ecx),%ebx
  403d70:	3b 59 08             	cmp    0x8(%ecx),%ebx
  403d73:	75 5c                	jne    0x403dd1
  403d75:	8a 4c 07 04          	mov    0x4(%edi,%eax,1),%cl
  403d79:	83 ff 20             	cmp    $0x20,%edi
  403d7c:	88 4d 13             	mov    %cl,0x13(%ebp)
  403d7f:	fe c1                	inc    %cl
  403d81:	88 4c 07 04          	mov    %cl,0x4(%edi,%eax,1)
  403d85:	73 21                	jae    0x403da8
  403d87:	80 7d 13 00          	cmpb   $0x0,0x13(%ebp)
  403d8b:	75 0e                	jne    0x403d9b
  403d8d:	bb 00 00 00 80       	mov    $0x80000000,%ebx
  403d92:	8b cf                	mov    %edi,%ecx
  403d94:	d3 eb                	shr    %cl,%ebx
  403d96:	8b 4d 08             	mov    0x8(%ebp),%ecx
  403d99:	09 19                	or     %ebx,(%ecx)
  403d9b:	8d 44 90 44          	lea    0x44(%eax,%edx,4),%eax
  403d9f:	ba 00 00 00 80       	mov    $0x80000000,%edx
  403da4:	8b cf                	mov    %edi,%ecx
  403da6:	eb 25                	jmp    0x403dcd
  403da8:	80 7d 13 00          	cmpb   $0x0,0x13(%ebp)
  403dac:	75 10                	jne    0x403dbe
  403dae:	8d 4f e0             	lea    -0x20(%edi),%ecx
  403db1:	bb 00 00 00 80       	mov    $0x80000000,%ebx
  403db6:	d3 eb                	shr    %cl,%ebx
  403db8:	8b 4d 08             	mov    0x8(%ebp),%ecx
  403dbb:	09 59 04             	or     %ebx,0x4(%ecx)
  403dbe:	8d 84 90 c4 00 00 00 	lea    0xc4(%eax,%edx,4),%eax
  403dc5:	8d 4f e0             	lea    -0x20(%edi),%ecx
  403dc8:	ba 00 00 00 80       	mov    $0x80000000,%edx
  403dcd:	d3 ea                	shr    %cl,%edx
  403dcf:	09 10                	or     %edx,(%eax)
  403dd1:	8b 55 0c             	mov    0xc(%ebp),%edx
  403dd4:	8b 4d fc             	mov    -0x4(%ebp),%ecx
  403dd7:	8d 44 32 fc          	lea    -0x4(%edx,%esi,1),%eax
  403ddb:	89 08                	mov    %ecx,(%eax)
  403ddd:	89 4c 01 fc          	mov    %ecx,-0x4(%ecx,%eax,1)
  403de1:	eb 03                	jmp    0x403de6
  403de3:	8b 55 0c             	mov    0xc(%ebp),%edx
  403de6:	8d 46 01             	lea    0x1(%esi),%eax
  403de9:	89 42 fc             	mov    %eax,-0x4(%edx)
  403dec:	89 44 32 f8          	mov    %eax,-0x8(%edx,%esi,1)
  403df0:	e9 47 01 00 00       	jmp    0x403f3c
  403df5:	33 c0                	xor    %eax,%eax
  403df7:	e9 43 01 00 00       	jmp    0x403f3f
  403dfc:	0f 8d 3a 01 00 00    	jge    0x403f3c
  403e02:	8b 5d 0c             	mov    0xc(%ebp),%ebx
  403e05:	29 75 10             	sub    %esi,0x10(%ebp)
  403e08:	8d 4e 01             	lea    0x1(%esi),%ecx
  403e0b:	89 4b fc             	mov    %ecx,-0x4(%ebx)
  403e0e:	8d 5c 33 fc          	lea    -0x4(%ebx,%esi,1),%ebx
  403e12:	8b 75 10             	mov    0x10(%ebp),%esi
  403e15:	89 5d 0c             	mov    %ebx,0xc(%ebp)
  403e18:	c1 fe 04             	sar    $0x4,%esi
  403e1b:	4e                   	dec    %esi
  403e1c:	89 4b fc             	mov    %ecx,-0x4(%ebx)
  403e1f:	83 fe 3f             	cmp    $0x3f,%esi
  403e22:	76 03                	jbe    0x403e27
  403e24:	6a 3f                	push   $0x3f
  403e26:	5e                   	pop    %esi
  403e27:	f6 45 fc 01          	testb  $0x1,-0x4(%ebp)
  403e2b:	0f 85 85 00 00 00    	jne    0x403eb6
  403e31:	8b 75 fc             	mov    -0x4(%ebp),%esi
  403e34:	c1 fe 04             	sar    $0x4,%esi
  403e37:	4e                   	dec    %esi
  403e38:	83 fe 3f             	cmp    $0x3f,%esi
  403e3b:	76 03                	jbe    0x403e40
  403e3d:	6a 3f                	push   $0x3f
  403e3f:	5e                   	pop    %esi
  403e40:	8b 4f 04             	mov    0x4(%edi),%ecx
  403e43:	3b 4f 08             	cmp    0x8(%edi),%ecx
  403e46:	75 47                	jne    0x403e8f
  403e48:	83 fe 20             	cmp    $0x20,%esi
  403e4b:	73 1e                	jae    0x403e6b
  403e4d:	bb 00 00 00 80       	mov    $0x80000000,%ebx
  403e52:	8b ce                	mov    %esi,%ecx
  403e54:	d3 eb                	shr    %cl,%ebx
  403e56:	8d 74 06 04          	lea    0x4(%esi,%eax,1),%esi
  403e5a:	f7 d3                	not    %ebx
  403e5c:	21 5c 90 44          	and    %ebx,0x44(%eax,%edx,4)
  403e60:	fe 0e                	decb   (%esi)
  403e62:	75 28                	jne    0x403e8c
  403e64:	8b 4d 08             	mov    0x8(%ebp),%ecx
  403e67:	21 19                	and    %ebx,(%ecx)
  403e69:	eb 21                	jmp    0x403e8c
  403e6b:	8d 4e e0             	lea    -0x20(%esi),%ecx
  403e6e:	bb 00 00 00 80       	mov    $0x80000000,%ebx
  403e73:	d3 eb                	shr    %cl,%ebx
  403e75:	8d 4c 06 04          	lea    0x4(%esi,%eax,1),%ecx
  403e79:	f7 d3                	not    %ebx
  403e7b:	21 9c 90 c4 00 00 00 	and    %ebx,0xc4(%eax,%edx,4)
  403e82:	fe 09                	decb   (%ecx)
  403e84:	75 06                	jne    0x403e8c
  403e86:	8b 4d 08             	mov    0x8(%ebp),%ecx
  403e89:	21 59 04             	and    %ebx,0x4(%ecx)
  403e8c:	8b 5d 0c             	mov    0xc(%ebp),%ebx
  403e8f:	8b 4f 08             	mov    0x8(%edi),%ecx
  403e92:	8b 77 04             	mov    0x4(%edi),%esi
  403e95:	89 71 04             	mov    %esi,0x4(%ecx)
  403e98:	8b 4f 04             	mov    0x4(%edi),%ecx
  403e9b:	8b 77 08             	mov    0x8(%edi),%esi
  403e9e:	89 71 08             	mov    %esi,0x8(%ecx)
  403ea1:	8b 75 10             	mov    0x10(%ebp),%esi
  403ea4:	03 75 fc             	add    -0x4(%ebp),%esi
  403ea7:	89 75 10             	mov    %esi,0x10(%ebp)
  403eaa:	c1 fe 04             	sar    $0x4,%esi
  403ead:	4e                   	dec    %esi
  403eae:	83 fe 3f             	cmp    $0x3f,%esi
  403eb1:	76 03                	jbe    0x403eb6
  403eb3:	6a 3f                	push   $0x3f
  403eb5:	5e                   	pop    %esi
  403eb6:	8b 4d f4             	mov    -0xc(%ebp),%ecx
  403eb9:	8b 7c f1 04          	mov    0x4(%ecx,%esi,8),%edi
  403ebd:	8d 0c f1             	lea    (%ecx,%esi,8),%ecx
  403ec0:	89 7b 04             	mov    %edi,0x4(%ebx)
  403ec3:	89 4b 08             	mov    %ecx,0x8(%ebx)
  403ec6:	89 59 04             	mov    %ebx,0x4(%ecx)
  403ec9:	8b 4b 04             	mov    0x4(%ebx),%ecx
  403ecc:	89 59 08             	mov    %ebx,0x8(%ecx)
  403ecf:	8b 4b 04             	mov    0x4(%ebx),%ecx
  403ed2:	3b 4b 08             	cmp    0x8(%ebx),%ecx
  403ed5:	75 5c                	jne    0x403f33
  403ed7:	8a 4c 06 04          	mov    0x4(%esi,%eax,1),%cl
  403edb:	83 fe 20             	cmp    $0x20,%esi
  403ede:	88 4d 0f             	mov    %cl,0xf(%ebp)
  403ee1:	fe c1                	inc    %cl
  403ee3:	88 4c 06 04          	mov    %cl,0x4(%esi,%eax,1)
  403ee7:	73 21                	jae    0x403f0a
  403ee9:	80 7d 0f 00          	cmpb   $0x0,0xf(%ebp)
  403eed:	75 0e                	jne    0x403efd
  403eef:	bf 00 00 00 80       	mov    $0x80000000,%edi
  403ef4:	8b ce                	mov    %esi,%ecx
  403ef6:	d3 ef                	shr    %cl,%edi
  403ef8:	8b 4d 08             	mov    0x8(%ebp),%ecx
  403efb:	09 39                	or     %edi,(%ecx)
  403efd:	8d 44 90 44          	lea    0x44(%eax,%edx,4),%eax
  403f01:	ba 00 00 00 80       	mov    $0x80000000,%edx
  403f06:	8b ce                	mov    %esi,%ecx
  403f08:	eb 25                	jmp    0x403f2f
  403f0a:	80 7d 0f 00          	cmpb   $0x0,0xf(%ebp)
  403f0e:	75 10                	jne    0x403f20
  403f10:	8d 4e e0             	lea    -0x20(%esi),%ecx
  403f13:	bf 00 00 00 80       	mov    $0x80000000,%edi
  403f18:	d3 ef                	shr    %cl,%edi
  403f1a:	8b 4d 08             	mov    0x8(%ebp),%ecx
  403f1d:	09 79 04             	or     %edi,0x4(%ecx)
  403f20:	8d 84 90 c4 00 00 00 	lea    0xc4(%eax,%edx,4),%eax
  403f27:	8d 4e e0             	lea    -0x20(%esi),%ecx
  403f2a:	ba 00 00 00 80       	mov    $0x80000000,%edx
  403f2f:	d3 ea                	shr    %cl,%edx
  403f31:	09 10                	or     %edx,(%eax)
  403f33:	8b 45 10             	mov    0x10(%ebp),%eax
  403f36:	89 03                	mov    %eax,(%ebx)
  403f38:	89 44 18 fc          	mov    %eax,-0x4(%eax,%ebx,1)
  403f3c:	6a 01                	push   $0x1
  403f3e:	58                   	pop    %eax
  403f3f:	5f                   	pop    %edi
  403f40:	5e                   	pop    %esi
  403f41:	5b                   	pop    %ebx
  403f42:	c9                   	leave  
  403f43:	c3                   	ret    
  403f44:	cc                   	int3   
  403f45:	cc                   	int3   
  403f46:	cc                   	int3   
  403f47:	cc                   	int3   
  403f48:	cc                   	int3   
  403f49:	cc                   	int3   
  403f4a:	cc                   	int3   
  403f4b:	cc                   	int3   
  403f4c:	cc                   	int3   
  403f4d:	cc                   	int3   
  403f4e:	cc                   	int3   
  403f4f:	cc                   	int3   
  403f50:	55                   	push   %ebp
  403f51:	8b ec                	mov    %esp,%ebp
  403f53:	57                   	push   %edi
  403f54:	56                   	push   %esi
  403f55:	8b 75 0c             	mov    0xc(%ebp),%esi
  403f58:	8b 4d 10             	mov    0x10(%ebp),%ecx
  403f5b:	8b 7d 08             	mov    0x8(%ebp),%edi
  403f5e:	8b c1                	mov    %ecx,%eax
  403f60:	8b d1                	mov    %ecx,%edx
  403f62:	03 c6                	add    %esi,%eax
  403f64:	3b fe                	cmp    %esi,%edi
  403f66:	76 08                	jbe    0x403f70
  403f68:	3b f8                	cmp    %eax,%edi
  403f6a:	0f 82 78 01 00 00    	jb     0x4040e8
  403f70:	f7 c7 03 00 00 00    	test   $0x3,%edi
  403f76:	75 14                	jne    0x403f8c
  403f78:	c1 e9 02             	shr    $0x2,%ecx
  403f7b:	83 e2 03             	and    $0x3,%edx
  403f7e:	83 f9 08             	cmp    $0x8,%ecx
  403f81:	72 29                	jb     0x403fac
  403f83:	f3 a5                	rep movsl %ds:(%esi),%es:(%edi)
  403f85:	ff 24 95 98 40 40 00 	jmp    *0x404098(,%edx,4)
  403f8c:	8b c7                	mov    %edi,%eax
  403f8e:	ba 03 00 00 00       	mov    $0x3,%edx
  403f93:	83 e9 04             	sub    $0x4,%ecx
  403f96:	72 0c                	jb     0x403fa4
  403f98:	83 e0 03             	and    $0x3,%eax
  403f9b:	03 c8                	add    %eax,%ecx
  403f9d:	ff 24 85 b0 3f 40 00 	jmp    *0x403fb0(,%eax,4)
  403fa4:	ff 24 8d a8 40 40 00 	jmp    *0x4040a8(,%ecx,4)
  403fab:	90                   	nop
  403fac:	ff 24 8d 2c 40 40 00 	jmp    *0x40402c(,%ecx,4)
  403fb3:	90                   	nop
  403fb4:	c0 3f 40             	sarb   $0x40,(%edi)
  403fb7:	00 ec                	add    %ch,%ah
  403fb9:	3f                   	aas    
  403fba:	40                   	inc    %eax
  403fbb:	00 10                	add    %dl,(%eax)
  403fbd:	40                   	inc    %eax
  403fbe:	40                   	inc    %eax
  403fbf:	00 23                	add    %ah,(%ebx)
  403fc1:	d1 8a 06 88 07 8a    	rorl   -0x75f877fa(%edx)
  403fc7:	46                   	inc    %esi
  403fc8:	01 88 47 01 8a 46    	add    %ecx,0x468a0147(%eax)
  403fce:	02 c1                	add    %cl,%al
  403fd0:	e9 02 88 47 02       	jmp    0x287c7d7
  403fd5:	83 c6 03             	add    $0x3,%esi
  403fd8:	83 c7 03             	add    $0x3,%edi
  403fdb:	83 f9 08             	cmp    $0x8,%ecx
  403fde:	72 cc                	jb     0x403fac
  403fe0:	f3 a5                	rep movsl %ds:(%esi),%es:(%edi)
  403fe2:	ff 24 95 98 40 40 00 	jmp    *0x404098(,%edx,4)
  403fe9:	8d 49 00             	lea    0x0(%ecx),%ecx
  403fec:	23 d1                	and    %ecx,%edx
  403fee:	8a 06                	mov    (%esi),%al
  403ff0:	88 07                	mov    %al,(%edi)
  403ff2:	8a 46 01             	mov    0x1(%esi),%al
  403ff5:	c1 e9 02             	shr    $0x2,%ecx
  403ff8:	88 47 01             	mov    %al,0x1(%edi)
  403ffb:	83 c6 02             	add    $0x2,%esi
  403ffe:	83 c7 02             	add    $0x2,%edi
  404001:	83 f9 08             	cmp    $0x8,%ecx
  404004:	72 a6                	jb     0x403fac
  404006:	f3 a5                	rep movsl %ds:(%esi),%es:(%edi)
  404008:	ff 24 95 98 40 40 00 	jmp    *0x404098(,%edx,4)
  40400f:	90                   	nop
  404010:	23 d1                	and    %ecx,%edx
  404012:	8a 06                	mov    (%esi),%al
  404014:	88 07                	mov    %al,(%edi)
  404016:	46                   	inc    %esi
  404017:	c1 e9 02             	shr    $0x2,%ecx
  40401a:	47                   	inc    %edi
  40401b:	83 f9 08             	cmp    $0x8,%ecx
  40401e:	72 8c                	jb     0x403fac
  404020:	f3 a5                	rep movsl %ds:(%esi),%es:(%edi)
  404022:	ff 24 95 98 40 40 00 	jmp    *0x404098(,%edx,4)
  404029:	8d 49 00             	lea    0x0(%ecx),%ecx
  40402c:	8f 40 40             	popl   0x40(%eax)
  40402f:	00 7c 40 40          	add    %bh,0x40(%eax,%eax,2)
  404033:	00 74 40 40          	add    %dh,0x40(%eax,%eax,2)
  404037:	00 6c 40 40          	add    %ch,0x40(%eax,%eax,2)
  40403b:	00 64 40 40          	add    %ah,0x40(%eax,%eax,2)
  40403f:	00 5c 40 40          	add    %bl,0x40(%eax,%eax,2)
  404043:	00 54 40 40          	add    %dl,0x40(%eax,%eax,2)
  404047:	00 4c 40 40          	add    %cl,0x40(%eax,%eax,2)
  40404b:	00 8b 44 8e e4 89    	add    %cl,-0x761b71bc(%ebx)
  404051:	44                   	inc    %esp
  404052:	8f                   	(bad)  
  404053:	e4 8b                	in     $0x8b,%al
  404055:	44                   	inc    %esp
  404056:	8e e8                	mov    %eax,%gs
  404058:	89 44 8f e8          	mov    %eax,-0x18(%edi,%ecx,4)
  40405c:	8b 44 8e ec          	mov    -0x14(%esi,%ecx,4),%eax
  404060:	89 44 8f ec          	mov    %eax,-0x14(%edi,%ecx,4)
  404064:	8b 44 8e f0          	mov    -0x10(%esi,%ecx,4),%eax
  404068:	89 44 8f f0          	mov    %eax,-0x10(%edi,%ecx,4)
  40406c:	8b 44 8e f4          	mov    -0xc(%esi,%ecx,4),%eax
  404070:	89 44 8f f4          	mov    %eax,-0xc(%edi,%ecx,4)
  404074:	8b 44 8e f8          	mov    -0x8(%esi,%ecx,4),%eax
  404078:	89 44 8f f8          	mov    %eax,-0x8(%edi,%ecx,4)
  40407c:	8b 44 8e fc          	mov    -0x4(%esi,%ecx,4),%eax
  404080:	89 44 8f fc          	mov    %eax,-0x4(%edi,%ecx,4)
  404084:	8d 04 8d 00 00 00 00 	lea    0x0(,%ecx,4),%eax
  40408b:	03 f0                	add    %eax,%esi
  40408d:	03 f8                	add    %eax,%edi
  40408f:	ff 24 95 98 40 40 00 	jmp    *0x404098(,%edx,4)
  404096:	8b ff                	mov    %edi,%edi
  404098:	a8 40                	test   $0x40,%al
  40409a:	40                   	inc    %eax
  40409b:	00 b0 40 40 00 bc    	add    %dh,-0x43ffbfc0(%eax)
  4040a1:	40                   	inc    %eax
  4040a2:	40                   	inc    %eax
  4040a3:	00 d0                	add    %dl,%al
  4040a5:	40                   	inc    %eax
  4040a6:	40                   	inc    %eax
  4040a7:	00 8b 45 08 5e 5f    	add    %cl,0x5f5e0845(%ebx)
  4040ad:	c9                   	leave  
  4040ae:	c3                   	ret    
  4040af:	90                   	nop
  4040b0:	8a 06                	mov    (%esi),%al
  4040b2:	88 07                	mov    %al,(%edi)
  4040b4:	8b 45 08             	mov    0x8(%ebp),%eax
  4040b7:	5e                   	pop    %esi
  4040b8:	5f                   	pop    %edi
  4040b9:	c9                   	leave  
  4040ba:	c3                   	ret    
  4040bb:	90                   	nop
  4040bc:	8a 06                	mov    (%esi),%al
  4040be:	88 07                	mov    %al,(%edi)
  4040c0:	8a 46 01             	mov    0x1(%esi),%al
  4040c3:	88 47 01             	mov    %al,0x1(%edi)
  4040c6:	8b 45 08             	mov    0x8(%ebp),%eax
  4040c9:	5e                   	pop    %esi
  4040ca:	5f                   	pop    %edi
  4040cb:	c9                   	leave  
  4040cc:	c3                   	ret    
  4040cd:	8d 49 00             	lea    0x0(%ecx),%ecx
  4040d0:	8a 06                	mov    (%esi),%al
  4040d2:	88 07                	mov    %al,(%edi)
  4040d4:	8a 46 01             	mov    0x1(%esi),%al
  4040d7:	88 47 01             	mov    %al,0x1(%edi)
  4040da:	8a 46 02             	mov    0x2(%esi),%al
  4040dd:	88 47 02             	mov    %al,0x2(%edi)
  4040e0:	8b 45 08             	mov    0x8(%ebp),%eax
  4040e3:	5e                   	pop    %esi
  4040e4:	5f                   	pop    %edi
  4040e5:	c9                   	leave  
  4040e6:	c3                   	ret    
  4040e7:	90                   	nop
  4040e8:	8d 74 31 fc          	lea    -0x4(%ecx,%esi,1),%esi
  4040ec:	8d 7c 39 fc          	lea    -0x4(%ecx,%edi,1),%edi
  4040f0:	f7 c7 03 00 00 00    	test   $0x3,%edi
  4040f6:	75 24                	jne    0x40411c
  4040f8:	c1 e9 02             	shr    $0x2,%ecx
  4040fb:	83 e2 03             	and    $0x3,%edx
  4040fe:	83 f9 08             	cmp    $0x8,%ecx
  404101:	72 0d                	jb     0x404110
  404103:	fd                   	std    
  404104:	f3 a5                	rep movsl %ds:(%esi),%es:(%edi)
  404106:	fc                   	cld    
  404107:	ff 24 95 30 42 40 00 	jmp    *0x404230(,%edx,4)
  40410e:	8b ff                	mov    %edi,%edi
  404110:	f7 d9                	neg    %ecx
  404112:	ff 24 8d e0 41 40 00 	jmp    *0x4041e0(,%ecx,4)
  404119:	8d 49 00             	lea    0x0(%ecx),%ecx
  40411c:	8b c7                	mov    %edi,%eax
  40411e:	ba 03 00 00 00       	mov    $0x3,%edx
  404123:	83 f9 04             	cmp    $0x4,%ecx
  404126:	72 0c                	jb     0x404134
  404128:	83 e0 03             	and    $0x3,%eax
  40412b:	2b c8                	sub    %eax,%ecx
  40412d:	ff 24 85 38 41 40 00 	jmp    *0x404138(,%eax,4)
  404134:	ff 24 8d 30 42 40 00 	jmp    *0x404230(,%ecx,4)
  40413b:	90                   	nop
  40413c:	48                   	dec    %eax
  40413d:	41                   	inc    %ecx
  40413e:	40                   	inc    %eax
  40413f:	00 68 41             	add    %ch,0x41(%eax)
  404142:	40                   	inc    %eax
  404143:	00 90 41 40 00 8a    	add    %dl,-0x75ffbfbf(%eax)
  404149:	46                   	inc    %esi
  40414a:	03 23                	add    (%ebx),%esp
  40414c:	d1 88 47 03 4e c1    	rorl   -0x3eb1fcb9(%eax)
  404152:	e9 02 4f 83 f9       	jmp    0xf9c39059
  404157:	08 72 b6             	or     %dh,-0x4a(%edx)
  40415a:	fd                   	std    
  40415b:	f3 a5                	rep movsl %ds:(%esi),%es:(%edi)
  40415d:	fc                   	cld    
  40415e:	ff 24 95 30 42 40 00 	jmp    *0x404230(,%edx,4)
  404165:	8d 49 00             	lea    0x0(%ecx),%ecx
  404168:	8a 46 03             	mov    0x3(%esi),%al
  40416b:	23 d1                	and    %ecx,%edx
  40416d:	88 47 03             	mov    %al,0x3(%edi)
  404170:	8a 46 02             	mov    0x2(%esi),%al
  404173:	c1 e9 02             	shr    $0x2,%ecx
  404176:	88 47 02             	mov    %al,0x2(%edi)
  404179:	83 ee 02             	sub    $0x2,%esi
  40417c:	83 ef 02             	sub    $0x2,%edi
  40417f:	83 f9 08             	cmp    $0x8,%ecx
  404182:	72 8c                	jb     0x404110
  404184:	fd                   	std    
  404185:	f3 a5                	rep movsl %ds:(%esi),%es:(%edi)
  404187:	fc                   	cld    
  404188:	ff 24 95 30 42 40 00 	jmp    *0x404230(,%edx,4)
  40418f:	90                   	nop
  404190:	8a 46 03             	mov    0x3(%esi),%al
  404193:	23 d1                	and    %ecx,%edx
  404195:	88 47 03             	mov    %al,0x3(%edi)
  404198:	8a 46 02             	mov    0x2(%esi),%al
  40419b:	88 47 02             	mov    %al,0x2(%edi)
  40419e:	8a 46 01             	mov    0x1(%esi),%al
  4041a1:	c1 e9 02             	shr    $0x2,%ecx
  4041a4:	88 47 01             	mov    %al,0x1(%edi)
  4041a7:	83 ee 03             	sub    $0x3,%esi
  4041aa:	83 ef 03             	sub    $0x3,%edi
  4041ad:	83 f9 08             	cmp    $0x8,%ecx
  4041b0:	0f 82 5a ff ff ff    	jb     0x404110
  4041b6:	fd                   	std    
  4041b7:	f3 a5                	rep movsl %ds:(%esi),%es:(%edi)
  4041b9:	fc                   	cld    
  4041ba:	ff 24 95 30 42 40 00 	jmp    *0x404230(,%edx,4)
  4041c1:	8d 49 00             	lea    0x0(%ecx),%ecx
  4041c4:	e4 41                	in     $0x41,%al
  4041c6:	40                   	inc    %eax
  4041c7:	00 ec                	add    %ch,%ah
  4041c9:	41                   	inc    %ecx
  4041ca:	40                   	inc    %eax
  4041cb:	00 f4                	add    %dh,%ah
  4041cd:	41                   	inc    %ecx
  4041ce:	40                   	inc    %eax
  4041cf:	00 fc                	add    %bh,%ah
  4041d1:	41                   	inc    %ecx
  4041d2:	40                   	inc    %eax
  4041d3:	00 04 42             	add    %al,(%edx,%eax,2)
  4041d6:	40                   	inc    %eax
  4041d7:	00 0c 42             	add    %cl,(%edx,%eax,2)
  4041da:	40                   	inc    %eax
  4041db:	00 14 42             	add    %dl,(%edx,%eax,2)
  4041de:	40                   	inc    %eax
  4041df:	00 27                	add    %ah,(%edi)
  4041e1:	42                   	inc    %edx
  4041e2:	40                   	inc    %eax
  4041e3:	00 8b 44 8e 1c 89    	add    %cl,-0x76e371bc(%ebx)
  4041e9:	44                   	inc    %esp
  4041ea:	8f                   	(bad)  
  4041eb:	1c 8b                	sbb    $0x8b,%al
  4041ed:	44                   	inc    %esp
  4041ee:	8e 18                	mov    (%eax),%ds
  4041f0:	89 44 8f 18          	mov    %eax,0x18(%edi,%ecx,4)
  4041f4:	8b 44 8e 14          	mov    0x14(%esi,%ecx,4),%eax
  4041f8:	89 44 8f 14          	mov    %eax,0x14(%edi,%ecx,4)
  4041fc:	8b 44 8e 10          	mov    0x10(%esi,%ecx,4),%eax
  404200:	89 44 8f 10          	mov    %eax,0x10(%edi,%ecx,4)
  404204:	8b 44 8e 0c          	mov    0xc(%esi,%ecx,4),%eax
  404208:	89 44 8f 0c          	mov    %eax,0xc(%edi,%ecx,4)
  40420c:	8b 44 8e 08          	mov    0x8(%esi,%ecx,4),%eax
  404210:	89 44 8f 08          	mov    %eax,0x8(%edi,%ecx,4)
  404214:	8b 44 8e 04          	mov    0x4(%esi,%ecx,4),%eax
  404218:	89 44 8f 04          	mov    %eax,0x4(%edi,%ecx,4)
  40421c:	8d 04 8d 00 00 00 00 	lea    0x0(,%ecx,4),%eax
  404223:	03 f0                	add    %eax,%esi
  404225:	03 f8                	add    %eax,%edi
  404227:	ff 24 95 30 42 40 00 	jmp    *0x404230(,%edx,4)
  40422e:	8b ff                	mov    %edi,%edi
  404230:	40                   	inc    %eax
  404231:	42                   	inc    %edx
  404232:	40                   	inc    %eax
  404233:	00 48 42             	add    %cl,0x42(%eax)
  404236:	40                   	inc    %eax
  404237:	00 58 42             	add    %bl,0x42(%eax)
  40423a:	40                   	inc    %eax
  40423b:	00 6c 42 40          	add    %ch,0x40(%edx,%eax,2)
  40423f:	00 8b 45 08 5e 5f    	add    %cl,0x5f5e0845(%ebx)
  404245:	c9                   	leave  
  404246:	c3                   	ret    
  404247:	90                   	nop
  404248:	8a 46 03             	mov    0x3(%esi),%al
  40424b:	88 47 03             	mov    %al,0x3(%edi)
  40424e:	8b 45 08             	mov    0x8(%ebp),%eax
  404251:	5e                   	pop    %esi
  404252:	5f                   	pop    %edi
  404253:	c9                   	leave  
  404254:	c3                   	ret    
  404255:	8d 49 00             	lea    0x0(%ecx),%ecx
  404258:	8a 46 03             	mov    0x3(%esi),%al
  40425b:	88 47 03             	mov    %al,0x3(%edi)
  40425e:	8a 46 02             	mov    0x2(%esi),%al
  404261:	88 47 02             	mov    %al,0x2(%edi)
  404264:	8b 45 08             	mov    0x8(%ebp),%eax
  404267:	5e                   	pop    %esi
  404268:	5f                   	pop    %edi
  404269:	c9                   	leave  
  40426a:	c3                   	ret    
  40426b:	90                   	nop
  40426c:	8a 46 03             	mov    0x3(%esi),%al
  40426f:	88 47 03             	mov    %al,0x3(%edi)
  404272:	8a 46 02             	mov    0x2(%esi),%al
  404275:	88 47 02             	mov    %al,0x2(%edi)
  404278:	8a 46 01             	mov    0x1(%esi),%al
  40427b:	88 47 01             	mov    %al,0x1(%edi)
  40427e:	8b 45 08             	mov    0x8(%ebp),%eax
  404281:	5e                   	pop    %esi
  404282:	5f                   	pop    %edi
  404283:	c9                   	leave  
  404284:	c3                   	ret    
  404285:	56                   	push   %esi
  404286:	8b 74 24 08          	mov    0x8(%esp),%esi
  40428a:	85 f6                	test   %esi,%esi
  40428c:	74 24                	je     0x4042b2
  40428e:	56                   	push   %esi
  40428f:	e8 af f1 ff ff       	call   0x403443
  404294:	59                   	pop    %ecx
  404295:	85 c0                	test   %eax,%eax
  404297:	56                   	push   %esi
  404298:	74 0a                	je     0x4042a4
  40429a:	50                   	push   %eax
  40429b:	e8 ce f1 ff ff       	call   0x40346e
  4042a0:	59                   	pop    %ecx
  4042a1:	59                   	pop    %ecx
  4042a2:	5e                   	pop    %esi
  4042a3:	c3                   	ret    
  4042a4:	6a 00                	push   $0x0
  4042a6:	ff 35 e4 1d 41 00    	pushl  0x411de4
  4042ac:	ff 15 98 60 40 00    	call   *0x406098
  4042b2:	5e                   	pop    %esi
  4042b3:	c3                   	ret    
  4042b4:	6a 04                	push   $0x4
  4042b6:	6a 00                	push   $0x0
  4042b8:	ff 74 24 0c          	pushl  0xc(%esp)
  4042bc:	e8 04 00 00 00       	call   0x4042c5
  4042c1:	83 c4 0c             	add    $0xc,%esp
  4042c4:	c3                   	ret    
  4042c5:	0f b6 44 24 04       	movzbl 0x4(%esp),%eax
  4042ca:	8a 4c 24 0c          	mov    0xc(%esp),%cl
  4042ce:	84 88 a1 0c 41 00    	test   %cl,0x410ca1(%eax)
  4042d4:	75 1c                	jne    0x4042f2
  4042d6:	83 7c 24 08 00       	cmpl   $0x0,0x8(%esp)
  4042db:	74 0e                	je     0x4042eb
  4042dd:	0f b7 04 45 c2 01 41 	movzwl 0x4101c2(,%eax,2),%eax
  4042e4:	00 
  4042e5:	23 44 24 08          	and    0x8(%esp),%eax
  4042e9:	eb 02                	jmp    0x4042ed
  4042eb:	33 c0                	xor    %eax,%eax
  4042ed:	85 c0                	test   %eax,%eax
  4042ef:	75 01                	jne    0x4042f2
  4042f1:	c3                   	ret    
  4042f2:	6a 01                	push   $0x1
  4042f4:	58                   	pop    %eax
  4042f5:	c3                   	ret    
  4042f6:	55                   	push   %ebp
  4042f7:	8b ec                	mov    %esp,%ebp
  4042f9:	83 ec 18             	sub    $0x18,%esp
  4042fc:	53                   	push   %ebx
  4042fd:	56                   	push   %esi
  4042fe:	57                   	push   %edi
  4042ff:	ff 75 08             	pushl  0x8(%ebp)
  404302:	e8 88 01 00 00       	call   0x40448f
  404307:	8b f0                	mov    %eax,%esi
  404309:	59                   	pop    %ecx
  40430a:	3b 35 78 0b 41 00    	cmp    0x410b78,%esi
  404310:	89 75 08             	mov    %esi,0x8(%ebp)
  404313:	0f 84 6a 01 00 00    	je     0x404483
  404319:	33 db                	xor    %ebx,%ebx
  40431b:	3b f3                	cmp    %ebx,%esi
  40431d:	0f 84 56 01 00 00    	je     0x404479
  404323:	33 d2                	xor    %edx,%edx
  404325:	b8 e8 03 41 00       	mov    $0x4103e8,%eax
  40432a:	39 30                	cmp    %esi,(%eax)
  40432c:	74 72                	je     0x4043a0
  40432e:	83 c0 30             	add    $0x30,%eax
  404331:	42                   	inc    %edx
  404332:	3d d8 04 41 00       	cmp    $0x4104d8,%eax
  404337:	7c f1                	jl     0x40432a
  404339:	8d 45 e8             	lea    -0x18(%ebp),%eax
  40433c:	50                   	push   %eax
  40433d:	56                   	push   %esi
  40433e:	ff 15 a4 60 40 00    	call   *0x4060a4
  404344:	83 f8 01             	cmp    $0x1,%eax
  404347:	0f 85 24 01 00 00    	jne    0x404471
  40434d:	6a 40                	push   $0x40
  40434f:	33 c0                	xor    %eax,%eax
  404351:	59                   	pop    %ecx
  404352:	bf a0 0c 41 00       	mov    $0x410ca0,%edi
  404357:	83 7d e8 01          	cmpl   $0x1,-0x18(%ebp)
  40435b:	89 35 78 0b 41 00    	mov    %esi,0x410b78
  404361:	f3 ab                	rep stos %eax,%es:(%edi)
  404363:	aa                   	stos   %al,%es:(%edi)
  404364:	89 1d a4 0d 41 00    	mov    %ebx,0x410da4
  40436a:	0f 86 ef 00 00 00    	jbe    0x40445f
  404370:	80 7d ee 00          	cmpb   $0x0,-0x12(%ebp)
  404374:	0f 84 bb 00 00 00    	je     0x404435
  40437a:	8d 4d ef             	lea    -0x11(%ebp),%ecx
  40437d:	8a 11                	mov    (%ecx),%dl
  40437f:	84 d2                	test   %dl,%dl
  404381:	0f 84 ae 00 00 00    	je     0x404435
  404387:	0f b6 41 ff          	movzbl -0x1(%ecx),%eax
  40438b:	0f b6 d2             	movzbl %dl,%edx
  40438e:	3b c2                	cmp    %edx,%eax
  404390:	0f 87 93 00 00 00    	ja     0x404429
  404396:	80 88 a1 0c 41 00 04 	orb    $0x4,0x410ca1(%eax)
  40439d:	40                   	inc    %eax
  40439e:	eb ee                	jmp    0x40438e
  4043a0:	6a 40                	push   $0x40
  4043a2:	33 c0                	xor    %eax,%eax
  4043a4:	59                   	pop    %ecx
  4043a5:	bf a0 0c 41 00       	mov    $0x410ca0,%edi
  4043aa:	f3 ab                	rep stos %eax,%es:(%edi)
  4043ac:	8d 34 52             	lea    (%edx,%edx,2),%esi
  4043af:	89 5d fc             	mov    %ebx,-0x4(%ebp)
  4043b2:	c1 e6 04             	shl    $0x4,%esi
  4043b5:	aa                   	stos   %al,%es:(%edi)
  4043b6:	8d 9e f8 03 41 00    	lea    0x4103f8(%esi),%ebx
  4043bc:	80 3b 00             	cmpb   $0x0,(%ebx)
  4043bf:	8b cb                	mov    %ebx,%ecx
  4043c1:	74 2c                	je     0x4043ef
  4043c3:	8a 51 01             	mov    0x1(%ecx),%dl
  4043c6:	84 d2                	test   %dl,%dl
  4043c8:	74 25                	je     0x4043ef
  4043ca:	0f b6 01             	movzbl (%ecx),%eax
  4043cd:	0f b6 fa             	movzbl %dl,%edi
  4043d0:	3b c7                	cmp    %edi,%eax
  4043d2:	77 14                	ja     0x4043e8
  4043d4:	8b 55 fc             	mov    -0x4(%ebp),%edx
  4043d7:	8a 92 e0 03 41 00    	mov    0x4103e0(%edx),%dl
  4043dd:	08 90 a1 0c 41 00    	or     %dl,0x410ca1(%eax)
  4043e3:	40                   	inc    %eax
  4043e4:	3b c7                	cmp    %edi,%eax
  4043e6:	76 f5                	jbe    0x4043dd
  4043e8:	41                   	inc    %ecx
  4043e9:	41                   	inc    %ecx
  4043ea:	80 39 00             	cmpb   $0x0,(%ecx)
  4043ed:	75 d4                	jne    0x4043c3
  4043ef:	ff 45 fc             	incl   -0x4(%ebp)
  4043f2:	83 c3 08             	add    $0x8,%ebx
  4043f5:	83 7d fc 04          	cmpl   $0x4,-0x4(%ebp)
  4043f9:	72 c1                	jb     0x4043bc
  4043fb:	8b 45 08             	mov    0x8(%ebp),%eax
  4043fe:	c7 05 8c 0b 41 00 01 	movl   $0x1,0x410b8c
  404405:	00 00 00 
  404408:	50                   	push   %eax
  404409:	a3 78 0b 41 00       	mov    %eax,0x410b78
  40440e:	e8 c6 00 00 00       	call   0x4044d9
  404413:	8d b6 ec 03 41 00    	lea    0x4103ec(%esi),%esi
  404419:	bf 80 0b 41 00       	mov    $0x410b80,%edi
  40441e:	a5                   	movsl  %ds:(%esi),%es:(%edi)
  40441f:	a5                   	movsl  %ds:(%esi),%es:(%edi)
  404420:	59                   	pop    %ecx
  404421:	a3 a4 0d 41 00       	mov    %eax,0x410da4
  404426:	a5                   	movsl  %ds:(%esi),%es:(%edi)
  404427:	eb 55                	jmp    0x40447e
  404429:	41                   	inc    %ecx
  40442a:	41                   	inc    %ecx
  40442b:	80 79 ff 00          	cmpb   $0x0,-0x1(%ecx)
  40442f:	0f 85 48 ff ff ff    	jne    0x40437d
  404435:	6a 01                	push   $0x1
  404437:	58                   	pop    %eax
  404438:	80 88 a1 0c 41 00 08 	orb    $0x8,0x410ca1(%eax)
  40443f:	40                   	inc    %eax
  404440:	3d ff 00 00 00       	cmp    $0xff,%eax
  404445:	72 f1                	jb     0x404438
  404447:	56                   	push   %esi
  404448:	e8 8c 00 00 00       	call   0x4044d9
  40444d:	59                   	pop    %ecx
  40444e:	a3 a4 0d 41 00       	mov    %eax,0x410da4
  404453:	c7 05 8c 0b 41 00 01 	movl   $0x1,0x410b8c
  40445a:	00 00 00 
  40445d:	eb 06                	jmp    0x404465
  40445f:	89 1d 8c 0b 41 00    	mov    %ebx,0x410b8c
  404465:	33 c0                	xor    %eax,%eax
  404467:	bf 80 0b 41 00       	mov    $0x410b80,%edi
  40446c:	ab                   	stos   %eax,%es:(%edi)
  40446d:	ab                   	stos   %eax,%es:(%edi)
  40446e:	ab                   	stos   %eax,%es:(%edi)
  40446f:	eb 0d                	jmp    0x40447e
  404471:	39 1d 3c 0b 41 00    	cmp    %ebx,0x410b3c
  404477:	74 0e                	je     0x404487
  404479:	e8 8e 00 00 00       	call   0x40450c
  40447e:	e8 b2 00 00 00       	call   0x404535
  404483:	33 c0                	xor    %eax,%eax
  404485:	eb 03                	jmp    0x40448a
  404487:	83 c8 ff             	or     $0xffffffff,%eax
  40448a:	5f                   	pop    %edi
  40448b:	5e                   	pop    %esi
  40448c:	5b                   	pop    %ebx
  40448d:	c9                   	leave  
  40448e:	c3                   	ret    
  40448f:	8b 44 24 04          	mov    0x4(%esp),%eax
  404493:	83 25 3c 0b 41 00 00 	andl   $0x0,0x410b3c
  40449a:	83 f8 fe             	cmp    $0xfffffffe,%eax
  40449d:	75 10                	jne    0x4044af
  40449f:	c7 05 3c 0b 41 00 01 	movl   $0x1,0x410b3c
  4044a6:	00 00 00 
  4044a9:	ff 25 ac 60 40 00    	jmp    *0x4060ac
  4044af:	83 f8 fd             	cmp    $0xfffffffd,%eax
  4044b2:	75 10                	jne    0x4044c4
  4044b4:	c7 05 3c 0b 41 00 01 	movl   $0x1,0x410b3c
  4044bb:	00 00 00 
  4044be:	ff 25 a8 60 40 00    	jmp    *0x4060a8
  4044c4:	83 f8 fc             	cmp    $0xfffffffc,%eax
  4044c7:	75 0f                	jne    0x4044d8
  4044c9:	a1 64 0b 41 00       	mov    0x410b64,%eax
  4044ce:	c7 05 3c 0b 41 00 01 	movl   $0x1,0x410b3c
  4044d5:	00 00 00 
  4044d8:	c3                   	ret    
  4044d9:	8b 44 24 04          	mov    0x4(%esp),%eax
  4044dd:	2d a4 03 00 00       	sub    $0x3a4,%eax
  4044e2:	74 22                	je     0x404506
  4044e4:	83 e8 04             	sub    $0x4,%eax
  4044e7:	74 17                	je     0x404500
  4044e9:	83 e8 0d             	sub    $0xd,%eax
  4044ec:	74 0c                	je     0x4044fa
  4044ee:	48                   	dec    %eax
  4044ef:	74 03                	je     0x4044f4
  4044f1:	33 c0                	xor    %eax,%eax
  4044f3:	c3                   	ret    
  4044f4:	b8 04 04 00 00       	mov    $0x404,%eax
  4044f9:	c3                   	ret    
  4044fa:	b8 12 04 00 00       	mov    $0x412,%eax
  4044ff:	c3                   	ret    
  404500:	b8 04 08 00 00       	mov    $0x804,%eax
  404505:	c3                   	ret    
  404506:	b8 11 04 00 00       	mov    $0x411,%eax
  40450b:	c3                   	ret    
  40450c:	57                   	push   %edi
  40450d:	6a 40                	push   $0x40
  40450f:	59                   	pop    %ecx
  404510:	33 c0                	xor    %eax,%eax
  404512:	bf a0 0c 41 00       	mov    $0x410ca0,%edi
  404517:	f3 ab                	rep stos %eax,%es:(%edi)
  404519:	aa                   	stos   %al,%es:(%edi)
  40451a:	33 c0                	xor    %eax,%eax
  40451c:	bf 80 0b 41 00       	mov    $0x410b80,%edi
  404521:	a3 78 0b 41 00       	mov    %eax,0x410b78
  404526:	a3 8c 0b 41 00       	mov    %eax,0x410b8c
  40452b:	a3 a4 0d 41 00       	mov    %eax,0x410da4
  404530:	ab                   	stos   %eax,%es:(%edi)
  404531:	ab                   	stos   %eax,%es:(%edi)
  404532:	ab                   	stos   %eax,%es:(%edi)
  404533:	5f                   	pop    %edi
  404534:	c3                   	ret    
  404535:	55                   	push   %ebp
  404536:	8b ec                	mov    %esp,%ebp
  404538:	81 ec 14 05 00 00    	sub    $0x514,%esp
  40453e:	8d 45 ec             	lea    -0x14(%ebp),%eax
  404541:	56                   	push   %esi
  404542:	50                   	push   %eax
  404543:	ff 35 78 0b 41 00    	pushl  0x410b78
  404549:	ff 15 a4 60 40 00    	call   *0x4060a4
  40454f:	83 f8 01             	cmp    $0x1,%eax
  404552:	0f 85 16 01 00 00    	jne    0x40466e
  404558:	33 c0                	xor    %eax,%eax
  40455a:	be 00 01 00 00       	mov    $0x100,%esi
  40455f:	88 84 05 ec fe ff ff 	mov    %al,-0x114(%ebp,%eax,1)
  404566:	40                   	inc    %eax
  404567:	3b c6                	cmp    %esi,%eax
  404569:	72 f4                	jb     0x40455f
  40456b:	8a 45 f2             	mov    -0xe(%ebp),%al
  40456e:	c6 85 ec fe ff ff 20 	movb   $0x20,-0x114(%ebp)
  404575:	84 c0                	test   %al,%al
  404577:	74 37                	je     0x4045b0
  404579:	53                   	push   %ebx
  40457a:	57                   	push   %edi
  40457b:	8d 55 f3             	lea    -0xd(%ebp),%edx
  40457e:	0f b6 0a             	movzbl (%edx),%ecx
  404581:	0f b6 c0             	movzbl %al,%eax
  404584:	3b c1                	cmp    %ecx,%eax
  404586:	77 1d                	ja     0x4045a5
  404588:	2b c8                	sub    %eax,%ecx
  40458a:	8d bc 05 ec fe ff ff 	lea    -0x114(%ebp,%eax,1),%edi
  404591:	41                   	inc    %ecx
  404592:	b8 20 20 20 20       	mov    $0x20202020,%eax
  404597:	8b d9                	mov    %ecx,%ebx
  404599:	c1 e9 02             	shr    $0x2,%ecx
  40459c:	f3 ab                	rep stos %eax,%es:(%edi)
  40459e:	8b cb                	mov    %ebx,%ecx
  4045a0:	83 e1 03             	and    $0x3,%ecx
  4045a3:	f3 aa                	rep stos %al,%es:(%edi)
  4045a5:	42                   	inc    %edx
  4045a6:	42                   	inc    %edx
  4045a7:	8a 42 ff             	mov    -0x1(%edx),%al
  4045aa:	84 c0                	test   %al,%al
  4045ac:	75 d0                	jne    0x40457e
  4045ae:	5f                   	pop    %edi
  4045af:	5b                   	pop    %ebx
  4045b0:	6a 00                	push   $0x0
  4045b2:	8d 85 ec fa ff ff    	lea    -0x514(%ebp),%eax
  4045b8:	ff 35 a4 0d 41 00    	pushl  0x410da4
  4045be:	ff 35 78 0b 41 00    	pushl  0x410b78
  4045c4:	50                   	push   %eax
  4045c5:	8d 85 ec fe ff ff    	lea    -0x114(%ebp),%eax
  4045cb:	56                   	push   %esi
  4045cc:	50                   	push   %eax
  4045cd:	6a 01                	push   $0x1
  4045cf:	e8 d0 0c 00 00       	call   0x4052a4
  4045d4:	6a 00                	push   $0x0
  4045d6:	8d 85 ec fd ff ff    	lea    -0x214(%ebp),%eax
  4045dc:	ff 35 78 0b 41 00    	pushl  0x410b78
  4045e2:	56                   	push   %esi
  4045e3:	50                   	push   %eax
  4045e4:	8d 85 ec fe ff ff    	lea    -0x114(%ebp),%eax
  4045ea:	56                   	push   %esi
  4045eb:	50                   	push   %eax
  4045ec:	56                   	push   %esi
  4045ed:	ff 35 a4 0d 41 00    	pushl  0x410da4
  4045f3:	e8 5d 0a 00 00       	call   0x405055
  4045f8:	6a 00                	push   $0x0
  4045fa:	8d 85 ec fc ff ff    	lea    -0x314(%ebp),%eax
  404600:	ff 35 78 0b 41 00    	pushl  0x410b78
  404606:	56                   	push   %esi
  404607:	50                   	push   %eax
  404608:	8d 85 ec fe ff ff    	lea    -0x114(%ebp),%eax
  40460e:	56                   	push   %esi
  40460f:	50                   	push   %eax
  404610:	68 00 02 00 00       	push   $0x200
  404615:	ff 35 a4 0d 41 00    	pushl  0x410da4
  40461b:	e8 35 0a 00 00       	call   0x405055
  404620:	83 c4 5c             	add    $0x5c,%esp
  404623:	33 c0                	xor    %eax,%eax
  404625:	8d 8d ec fa ff ff    	lea    -0x514(%ebp),%ecx
  40462b:	66 8b 11             	mov    (%ecx),%dx
  40462e:	f6 c2 01             	test   $0x1,%dl
  404631:	74 16                	je     0x404649
  404633:	80 88 a1 0c 41 00 10 	orb    $0x10,0x410ca1(%eax)
  40463a:	8a 94 05 ec fd ff ff 	mov    -0x214(%ebp,%eax,1),%dl
  404641:	88 90 a0 0b 41 00    	mov    %dl,0x410ba0(%eax)
  404647:	eb 1c                	jmp    0x404665
  404649:	f6 c2 02             	test   $0x2,%dl
  40464c:	74 10                	je     0x40465e
  40464e:	80 88 a1 0c 41 00 20 	orb    $0x20,0x410ca1(%eax)
  404655:	8a 94 05 ec fc ff ff 	mov    -0x314(%ebp,%eax,1),%dl
  40465c:	eb e3                	jmp    0x404641
  40465e:	80 a0 a0 0b 41 00 00 	andb   $0x0,0x410ba0(%eax)
  404665:	40                   	inc    %eax
  404666:	41                   	inc    %ecx
  404667:	41                   	inc    %ecx
  404668:	3b c6                	cmp    %esi,%eax
  40466a:	72 bf                	jb     0x40462b
  40466c:	eb 49                	jmp    0x4046b7
  40466e:	33 c0                	xor    %eax,%eax
  404670:	be 00 01 00 00       	mov    $0x100,%esi
  404675:	83 f8 41             	cmp    $0x41,%eax
  404678:	72 19                	jb     0x404693
  40467a:	83 f8 5a             	cmp    $0x5a,%eax
  40467d:	77 14                	ja     0x404693
  40467f:	80 88 a1 0c 41 00 10 	orb    $0x10,0x410ca1(%eax)
  404686:	8a c8                	mov    %al,%cl
  404688:	80 c1 20             	add    $0x20,%cl
  40468b:	88 88 a0 0b 41 00    	mov    %cl,0x410ba0(%eax)
  404691:	eb 1f                	jmp    0x4046b2
  404693:	83 f8 61             	cmp    $0x61,%eax
  404696:	72 13                	jb     0x4046ab
  404698:	83 f8 7a             	cmp    $0x7a,%eax
  40469b:	77 0e                	ja     0x4046ab
  40469d:	80 88 a1 0c 41 00 20 	orb    $0x20,0x410ca1(%eax)
  4046a4:	8a c8                	mov    %al,%cl
  4046a6:	80 e9 20             	sub    $0x20,%cl
  4046a9:	eb e0                	jmp    0x40468b
  4046ab:	80 a0 a0 0b 41 00 00 	andb   $0x0,0x410ba0(%eax)
  4046b2:	40                   	inc    %eax
  4046b3:	3b c6                	cmp    %esi,%eax
  4046b5:	72 be                	jb     0x404675
  4046b7:	5e                   	pop    %esi
  4046b8:	c9                   	leave  
  4046b9:	c3                   	ret    
  4046ba:	83 3d 08 1f 41 00 00 	cmpl   $0x0,0x411f08
  4046c1:	75 12                	jne    0x4046d5
  4046c3:	6a fd                	push   $0xfffffffd
  4046c5:	e8 2c fc ff ff       	call   0x4042f6
  4046ca:	59                   	pop    %ecx
  4046cb:	c7 05 08 1f 41 00 01 	movl   $0x1,0x411f08
  4046d2:	00 00 00 
  4046d5:	c3                   	ret    
  4046d6:	cc                   	int3   
  4046d7:	cc                   	int3   
  4046d8:	cc                   	int3   
  4046d9:	cc                   	int3   
  4046da:	cc                   	int3   
  4046db:	cc                   	int3   
  4046dc:	cc                   	int3   
  4046dd:	cc                   	int3   
  4046de:	cc                   	int3   
  4046df:	cc                   	int3   
  4046e0:	57                   	push   %edi
  4046e1:	8b 7c 24 08          	mov    0x8(%esp),%edi
  4046e5:	eb 6a                	jmp    0x404751
  4046e7:	8d a4 24 00 00 00 00 	lea    0x0(%esp),%esp
  4046ee:	8b ff                	mov    %edi,%edi
  4046f0:	8b 4c 24 04          	mov    0x4(%esp),%ecx
  4046f4:	57                   	push   %edi
  4046f5:	f7 c1 03 00 00 00    	test   $0x3,%ecx
  4046fb:	74 0f                	je     0x40470c
  4046fd:	8a 01                	mov    (%ecx),%al
  4046ff:	41                   	inc    %ecx
  404700:	84 c0                	test   %al,%al
  404702:	74 3b                	je     0x40473f
  404704:	f7 c1 03 00 00 00    	test   $0x3,%ecx
  40470a:	75 f1                	jne    0x4046fd
  40470c:	8b 01                	mov    (%ecx),%eax
  40470e:	ba ff fe fe 7e       	mov    $0x7efefeff,%edx
  404713:	03 d0                	add    %eax,%edx
  404715:	83 f0 ff             	xor    $0xffffffff,%eax
  404718:	33 c2                	xor    %edx,%eax
  40471a:	83 c1 04             	add    $0x4,%ecx
  40471d:	a9 00 01 01 81       	test   $0x81010100,%eax
  404722:	74 e8                	je     0x40470c
  404724:	8b 41 fc             	mov    -0x4(%ecx),%eax
  404727:	84 c0                	test   %al,%al
  404729:	74 23                	je     0x40474e
  40472b:	84 e4                	test   %ah,%ah
  40472d:	74 1a                	je     0x404749
  40472f:	a9 00 00 ff 00       	test   $0xff0000,%eax
  404734:	74 0e                	je     0x404744
  404736:	a9 00 00 00 ff       	test   $0xff000000,%eax
  40473b:	74 02                	je     0x40473f
  40473d:	eb cd                	jmp    0x40470c
  40473f:	8d 79 ff             	lea    -0x1(%ecx),%edi
  404742:	eb 0d                	jmp    0x404751
  404744:	8d 79 fe             	lea    -0x2(%ecx),%edi
  404747:	eb 08                	jmp    0x404751
  404749:	8d 79 fd             	lea    -0x3(%ecx),%edi
  40474c:	eb 03                	jmp    0x404751
  40474e:	8d 79 fc             	lea    -0x4(%ecx),%edi
  404751:	8b 4c 24 0c          	mov    0xc(%esp),%ecx
  404755:	f7 c1 03 00 00 00    	test   $0x3,%ecx
  40475b:	74 19                	je     0x404776
  40475d:	8a 11                	mov    (%ecx),%dl
  40475f:	41                   	inc    %ecx
  404760:	84 d2                	test   %dl,%dl
  404762:	74 64                	je     0x4047c8
  404764:	88 17                	mov    %dl,(%edi)
  404766:	47                   	inc    %edi
  404767:	f7 c1 03 00 00 00    	test   $0x3,%ecx
  40476d:	75 ee                	jne    0x40475d
  40476f:	eb 05                	jmp    0x404776
  404771:	89 17                	mov    %edx,(%edi)
  404773:	83 c7 04             	add    $0x4,%edi
  404776:	ba ff fe fe 7e       	mov    $0x7efefeff,%edx
  40477b:	8b 01                	mov    (%ecx),%eax
  40477d:	03 d0                	add    %eax,%edx
  40477f:	83 f0 ff             	xor    $0xffffffff,%eax
  404782:	33 c2                	xor    %edx,%eax
  404784:	8b 11                	mov    (%ecx),%edx
  404786:	83 c1 04             	add    $0x4,%ecx
  404789:	a9 00 01 01 81       	test   $0x81010100,%eax
  40478e:	74 e1                	je     0x404771
  404790:	84 d2                	test   %dl,%dl
  404792:	74 34                	je     0x4047c8
  404794:	84 f6                	test   %dh,%dh
  404796:	74 27                	je     0x4047bf
  404798:	f7 c2 00 00 ff 00    	test   $0xff0000,%edx
  40479e:	74 12                	je     0x4047b2
  4047a0:	f7 c2 00 00 00 ff    	test   $0xff000000,%edx
  4047a6:	74 02                	je     0x4047aa
  4047a8:	eb c7                	jmp    0x404771
  4047aa:	89 17                	mov    %edx,(%edi)
  4047ac:	8b 44 24 08          	mov    0x8(%esp),%eax
  4047b0:	5f                   	pop    %edi
  4047b1:	c3                   	ret    
  4047b2:	66 89 17             	mov    %dx,(%edi)
  4047b5:	8b 44 24 08          	mov    0x8(%esp),%eax
  4047b9:	c6 47 02 00          	movb   $0x0,0x2(%edi)
  4047bd:	5f                   	pop    %edi
  4047be:	c3                   	ret    
  4047bf:	66 89 17             	mov    %dx,(%edi)
  4047c2:	8b 44 24 08          	mov    0x8(%esp),%eax
  4047c6:	5f                   	pop    %edi
  4047c7:	c3                   	ret    
  4047c8:	88 17                	mov    %dl,(%edi)
  4047ca:	8b 44 24 08          	mov    0x8(%esp),%eax
  4047ce:	5f                   	pop    %edi
  4047cf:	c3                   	ret    
  4047d0:	53                   	push   %ebx
  4047d1:	33 db                	xor    %ebx,%ebx
  4047d3:	39 1d 40 0b 41 00    	cmp    %ebx,0x410b40
  4047d9:	56                   	push   %esi
  4047da:	57                   	push   %edi
  4047db:	75 42                	jne    0x40481f
  4047dd:	68 98 64 40 00       	push   $0x406498
  4047e2:	ff 15 b0 60 40 00    	call   *0x4060b0
  4047e8:	8b f8                	mov    %eax,%edi
  4047ea:	3b fb                	cmp    %ebx,%edi
  4047ec:	74 67                	je     0x404855
  4047ee:	8b 35 10 60 40 00    	mov    0x406010,%esi
  4047f4:	68 8c 64 40 00       	push   $0x40648c
  4047f9:	57                   	push   %edi
  4047fa:	ff d6                	call   *%esi
  4047fc:	85 c0                	test   %eax,%eax
  4047fe:	a3 40 0b 41 00       	mov    %eax,0x410b40
  404803:	74 50                	je     0x404855
  404805:	68 7c 64 40 00       	push   $0x40647c
  40480a:	57                   	push   %edi
  40480b:	ff d6                	call   *%esi
  40480d:	68 68 64 40 00       	push   $0x406468
  404812:	57                   	push   %edi
  404813:	a3 44 0b 41 00       	mov    %eax,0x410b44
  404818:	ff d6                	call   *%esi
  40481a:	a3 48 0b 41 00       	mov    %eax,0x410b48
  40481f:	a1 44 0b 41 00       	mov    0x410b44,%eax
  404824:	85 c0                	test   %eax,%eax
  404826:	74 16                	je     0x40483e
  404828:	ff d0                	call   *%eax
  40482a:	8b d8                	mov    %eax,%ebx
  40482c:	85 db                	test   %ebx,%ebx
  40482e:	74 0e                	je     0x40483e
  404830:	a1 48 0b 41 00       	mov    0x410b48,%eax
  404835:	85 c0                	test   %eax,%eax
  404837:	74 05                	je     0x40483e
  404839:	53                   	push   %ebx
  40483a:	ff d0                	call   *%eax
  40483c:	8b d8                	mov    %eax,%ebx
  40483e:	ff 74 24 18          	pushl  0x18(%esp)
  404842:	ff 74 24 18          	pushl  0x18(%esp)
  404846:	ff 74 24 18          	pushl  0x18(%esp)
  40484a:	53                   	push   %ebx
  40484b:	ff 15 40 0b 41 00    	call   *0x410b40
  404851:	5f                   	pop    %edi
  404852:	5e                   	pop    %esi
  404853:	5b                   	pop    %ebx
  404854:	c3                   	ret    
  404855:	33 c0                	xor    %eax,%eax
  404857:	eb f8                	jmp    0x404851
  404859:	cc                   	int3   
  40485a:	cc                   	int3   
  40485b:	cc                   	int3   
  40485c:	cc                   	int3   
  40485d:	cc                   	int3   
  40485e:	cc                   	int3   
  40485f:	cc                   	int3   
  404860:	8b 4c 24 0c          	mov    0xc(%esp),%ecx
  404864:	57                   	push   %edi
  404865:	85 c9                	test   %ecx,%ecx
  404867:	74 7a                	je     0x4048e3
  404869:	56                   	push   %esi
  40486a:	53                   	push   %ebx
  40486b:	8b d9                	mov    %ecx,%ebx
  40486d:	8b 74 24 14          	mov    0x14(%esp),%esi
  404871:	f7 c6 03 00 00 00    	test   $0x3,%esi
  404877:	8b 7c 24 10          	mov    0x10(%esp),%edi
  40487b:	75 07                	jne    0x404884
  40487d:	c1 e9 02             	shr    $0x2,%ecx
  404880:	75 6f                	jne    0x4048f1
  404882:	eb 21                	jmp    0x4048a5
  404884:	8a 06                	mov    (%esi),%al
  404886:	46                   	inc    %esi
  404887:	88 07                	mov    %al,(%edi)
  404889:	47                   	inc    %edi
  40488a:	49                   	dec    %ecx
  40488b:	74 25                	je     0x4048b2
  40488d:	84 c0                	test   %al,%al
  40488f:	74 29                	je     0x4048ba
  404891:	f7 c6 03 00 00 00    	test   $0x3,%esi
  404897:	75 eb                	jne    0x404884
  404899:	8b d9                	mov    %ecx,%ebx
  40489b:	c1 e9 02             	shr    $0x2,%ecx
  40489e:	75 51                	jne    0x4048f1
  4048a0:	83 e3 03             	and    $0x3,%ebx
  4048a3:	74 0d                	je     0x4048b2
  4048a5:	8a 06                	mov    (%esi),%al
  4048a7:	46                   	inc    %esi
  4048a8:	88 07                	mov    %al,(%edi)
  4048aa:	47                   	inc    %edi
  4048ab:	84 c0                	test   %al,%al
  4048ad:	74 2f                	je     0x4048de
  4048af:	4b                   	dec    %ebx
  4048b0:	75 f3                	jne    0x4048a5
  4048b2:	8b 44 24 10          	mov    0x10(%esp),%eax
  4048b6:	5b                   	pop    %ebx
  4048b7:	5e                   	pop    %esi
  4048b8:	5f                   	pop    %edi
  4048b9:	c3                   	ret    
  4048ba:	f7 c7 03 00 00 00    	test   $0x3,%edi
  4048c0:	74 12                	je     0x4048d4
  4048c2:	88 07                	mov    %al,(%edi)
  4048c4:	47                   	inc    %edi
  4048c5:	49                   	dec    %ecx
  4048c6:	0f 84 8a 00 00 00    	je     0x404956
  4048cc:	f7 c7 03 00 00 00    	test   $0x3,%edi
  4048d2:	75 ee                	jne    0x4048c2
  4048d4:	8b d9                	mov    %ecx,%ebx
  4048d6:	c1 e9 02             	shr    $0x2,%ecx
  4048d9:	75 6c                	jne    0x404947
  4048db:	88 07                	mov    %al,(%edi)
  4048dd:	47                   	inc    %edi
  4048de:	4b                   	dec    %ebx
  4048df:	75 fa                	jne    0x4048db
  4048e1:	5b                   	pop    %ebx
  4048e2:	5e                   	pop    %esi
  4048e3:	8b 44 24 08          	mov    0x8(%esp),%eax
  4048e7:	5f                   	pop    %edi
  4048e8:	c3                   	ret    
  4048e9:	89 17                	mov    %edx,(%edi)
  4048eb:	83 c7 04             	add    $0x4,%edi
  4048ee:	49                   	dec    %ecx
  4048ef:	74 af                	je     0x4048a0
  4048f1:	ba ff fe fe 7e       	mov    $0x7efefeff,%edx
  4048f6:	8b 06                	mov    (%esi),%eax
  4048f8:	03 d0                	add    %eax,%edx
  4048fa:	83 f0 ff             	xor    $0xffffffff,%eax
  4048fd:	33 c2                	xor    %edx,%eax
  4048ff:	8b 16                	mov    (%esi),%edx
  404901:	83 c6 04             	add    $0x4,%esi
  404904:	a9 00 01 01 81       	test   $0x81010100,%eax
  404909:	74 de                	je     0x4048e9
  40490b:	84 d2                	test   %dl,%dl
  40490d:	74 2c                	je     0x40493b
  40490f:	84 f6                	test   %dh,%dh
  404911:	74 1e                	je     0x404931
  404913:	f7 c2 00 00 ff 00    	test   $0xff0000,%edx
  404919:	74 0c                	je     0x404927
  40491b:	f7 c2 00 00 00 ff    	test   $0xff000000,%edx
  404921:	75 c6                	jne    0x4048e9
  404923:	89 17                	mov    %edx,(%edi)
  404925:	eb 18                	jmp    0x40493f
  404927:	81 e2 ff ff 00 00    	and    $0xffff,%edx
  40492d:	89 17                	mov    %edx,(%edi)
  40492f:	eb 0e                	jmp    0x40493f
  404931:	81 e2 ff 00 00 00    	and    $0xff,%edx
  404937:	89 17                	mov    %edx,(%edi)
  404939:	eb 04                	jmp    0x40493f
  40493b:	33 d2                	xor    %edx,%edx
  40493d:	89 17                	mov    %edx,(%edi)
  40493f:	83 c7 04             	add    $0x4,%edi
  404942:	33 c0                	xor    %eax,%eax
  404944:	49                   	dec    %ecx
  404945:	74 0a                	je     0x404951
  404947:	33 c0                	xor    %eax,%eax
  404949:	89 07                	mov    %eax,(%edi)
  40494b:	83 c7 04             	add    $0x4,%edi
  40494e:	49                   	dec    %ecx
  40494f:	75 f8                	jne    0x404949
  404951:	83 e3 03             	and    $0x3,%ebx
  404954:	75 85                	jne    0x4048db
  404956:	8b 44 24 10          	mov    0x10(%esp),%eax
  40495a:	5b                   	pop    %ebx
  40495b:	5e                   	pop    %esi
  40495c:	5f                   	pop    %edi
  40495d:	c3                   	ret    
  40495e:	53                   	push   %ebx
  40495f:	56                   	push   %esi
  404960:	8b 74 24 0c          	mov    0xc(%esp),%esi
  404964:	57                   	push   %edi
  404965:	0f af 74 24 14       	imul   0x14(%esp),%esi
  40496a:	83 fe e0             	cmp    $0xffffffe0,%esi
  40496d:	8b de                	mov    %esi,%ebx
  40496f:	77 0d                	ja     0x40497e
  404971:	85 f6                	test   %esi,%esi
  404973:	75 03                	jne    0x404978
  404975:	6a 01                	push   $0x1
  404977:	5e                   	pop    %esi
  404978:	83 c6 0f             	add    $0xf,%esi
  40497b:	83 e6 f0             	and    $0xfffffff0,%esi
  40497e:	33 ff                	xor    %edi,%edi
  404980:	83 fe e0             	cmp    $0xffffffe0,%esi
  404983:	77 2a                	ja     0x4049af
  404985:	3b 1d d0 03 41 00    	cmp    0x4103d0,%ebx
  40498b:	77 0d                	ja     0x40499a
  40498d:	53                   	push   %ebx
  40498e:	e8 06 ee ff ff       	call   0x403799
  404993:	8b f8                	mov    %eax,%edi
  404995:	59                   	pop    %ecx
  404996:	85 ff                	test   %edi,%edi
  404998:	75 2b                	jne    0x4049c5
  40499a:	56                   	push   %esi
  40499b:	6a 08                	push   $0x8
  40499d:	ff 35 e4 1d 41 00    	pushl  0x411de4
  4049a3:	ff 15 58 60 40 00    	call   *0x406058
  4049a9:	8b f8                	mov    %eax,%edi
  4049ab:	85 ff                	test   %edi,%edi
  4049ad:	75 22                	jne    0x4049d1
  4049af:	83 3d 38 0b 41 00 00 	cmpl   $0x0,0x410b38
  4049b6:	74 19                	je     0x4049d1
  4049b8:	56                   	push   %esi
  4049b9:	e8 2c ea ff ff       	call   0x4033ea
  4049be:	85 c0                	test   %eax,%eax
  4049c0:	59                   	pop    %ecx
  4049c1:	74 14                	je     0x4049d7
  4049c3:	eb b9                	jmp    0x40497e
  4049c5:	53                   	push   %ebx
  4049c6:	6a 00                	push   $0x0
  4049c8:	57                   	push   %edi
  4049c9:	e8 22 0a 00 00       	call   0x4053f0
  4049ce:	83 c4 0c             	add    $0xc,%esp
  4049d1:	8b c7                	mov    %edi,%eax
  4049d3:	5f                   	pop    %edi
  4049d4:	5e                   	pop    %esi
  4049d5:	5b                   	pop    %ebx
  4049d6:	c3                   	ret    
  4049d7:	33 c0                	xor    %eax,%eax
  4049d9:	eb f8                	jmp    0x4049d3
  4049db:	56                   	push   %esi
  4049dc:	57                   	push   %edi
  4049dd:	6a 03                	push   $0x3
  4049df:	33 ff                	xor    %edi,%edi
  4049e1:	5e                   	pop    %esi
  4049e2:	39 35 e0 1d 41 00    	cmp    %esi,0x411de0
  4049e8:	7e 44                	jle    0x404a2e
  4049ea:	a1 c0 0d 41 00       	mov    0x410dc0,%eax
  4049ef:	8b 04 b0             	mov    (%eax,%esi,4),%eax
  4049f2:	85 c0                	test   %eax,%eax
  4049f4:	74 2f                	je     0x404a25
  4049f6:	f6 40 0c 83          	testb  $0x83,0xc(%eax)
  4049fa:	74 0d                	je     0x404a09
  4049fc:	50                   	push   %eax
  4049fd:	e8 46 0a 00 00       	call   0x405448
  404a02:	83 f8 ff             	cmp    $0xffffffff,%eax
  404a05:	59                   	pop    %ecx
  404a06:	74 01                	je     0x404a09
  404a08:	47                   	inc    %edi
  404a09:	83 fe 14             	cmp    $0x14,%esi
  404a0c:	7c 17                	jl     0x404a25
  404a0e:	a1 c0 0d 41 00       	mov    0x410dc0,%eax
  404a13:	ff 34 b0             	pushl  (%eax,%esi,4)
  404a16:	e8 6a f8 ff ff       	call   0x404285
  404a1b:	a1 c0 0d 41 00       	mov    0x410dc0,%eax
  404a20:	59                   	pop    %ecx
  404a21:	83 24 b0 00          	andl   $0x0,(%eax,%esi,4)
  404a25:	46                   	inc    %esi
  404a26:	3b 35 e0 1d 41 00    	cmp    0x411de0,%esi
  404a2c:	7c bc                	jl     0x4049ea
  404a2e:	8b c7                	mov    %edi,%eax
  404a30:	5f                   	pop    %edi
  404a31:	5e                   	pop    %esi
  404a32:	c3                   	ret    
  404a33:	8b 44 24 04          	mov    0x4(%esp),%eax
  404a37:	3b 05 00 1f 41 00    	cmp    0x411f00,%eax
  404a3d:	73 3d                	jae    0x404a7c
  404a3f:	8b c8                	mov    %eax,%ecx
  404a41:	8b d0                	mov    %eax,%edx
  404a43:	c1 f9 05             	sar    $0x5,%ecx
  404a46:	83 e2 1f             	and    $0x1f,%edx
  404a49:	8b 0c 8d 00 1e 41 00 	mov    0x411e00(,%ecx,4),%ecx
  404a50:	f6 44 d1 04 01       	testb  $0x1,0x4(%ecx,%edx,8)
  404a55:	74 25                	je     0x404a7c
  404a57:	50                   	push   %eax
  404a58:	e8 bb 0a 00 00       	call   0x405518
  404a5d:	59                   	pop    %ecx
  404a5e:	50                   	push   %eax
  404a5f:	ff 15 b4 60 40 00    	call   *0x4060b4
  404a65:	85 c0                	test   %eax,%eax
  404a67:	75 08                	jne    0x404a71
  404a69:	ff 15 08 60 40 00    	call   *0x406008
  404a6f:	eb 02                	jmp    0x404a73
  404a71:	33 c0                	xor    %eax,%eax
  404a73:	85 c0                	test   %eax,%eax
  404a75:	74 12                	je     0x404a89
  404a77:	a3 d8 09 41 00       	mov    %eax,0x4109d8
  404a7c:	c7 05 d4 09 41 00 09 	movl   $0x9,0x4109d4
  404a83:	00 00 00 
  404a86:	83 c8 ff             	or     $0xffffffff,%eax
  404a89:	c3                   	ret    
  404a8a:	55                   	push   %ebp
  404a8b:	8b ec                	mov    %esp,%ebp
  404a8d:	81 ec 14 04 00 00    	sub    $0x414,%esp
  404a93:	8b 4d 08             	mov    0x8(%ebp),%ecx
  404a96:	53                   	push   %ebx
  404a97:	3b 0d 00 1f 41 00    	cmp    0x411f00,%ecx
  404a9d:	56                   	push   %esi
  404a9e:	57                   	push   %edi
  404a9f:	0f 83 79 01 00 00    	jae    0x404c1e
  404aa5:	8b c1                	mov    %ecx,%eax
  404aa7:	8b f1                	mov    %ecx,%esi
  404aa9:	c1 f8 05             	sar    $0x5,%eax
  404aac:	83 e6 1f             	and    $0x1f,%esi
  404aaf:	8d 1c 85 00 1e 41 00 	lea    0x411e00(,%eax,4),%ebx
  404ab6:	c1 e6 03             	shl    $0x3,%esi
  404ab9:	8b 03                	mov    (%ebx),%eax
  404abb:	8a 44 30 04          	mov    0x4(%eax,%esi,1),%al
  404abf:	a8 01                	test   $0x1,%al
  404ac1:	0f 84 57 01 00 00    	je     0x404c1e
  404ac7:	33 ff                	xor    %edi,%edi
  404ac9:	39 7d 10             	cmp    %edi,0x10(%ebp)
  404acc:	89 7d f8             	mov    %edi,-0x8(%ebp)
  404acf:	89 7d f0             	mov    %edi,-0x10(%ebp)
  404ad2:	75 07                	jne    0x404adb
  404ad4:	33 c0                	xor    %eax,%eax
  404ad6:	e9 57 01 00 00       	jmp    0x404c32
  404adb:	a8 20                	test   $0x20,%al
  404add:	74 0c                	je     0x404aeb
  404adf:	6a 02                	push   $0x2
  404ae1:	57                   	push   %edi
  404ae2:	51                   	push   %ecx
  404ae3:	e8 58 01 00 00       	call   0x404c40
  404ae8:	83 c4 0c             	add    $0xc,%esp
  404aeb:	8b 03                	mov    (%ebx),%eax
  404aed:	03 c6                	add    %esi,%eax
  404aef:	f6 40 04 80          	testb  $0x80,0x4(%eax)
  404af3:	0f 84 c1 00 00 00    	je     0x404bba
  404af9:	8b 45 0c             	mov    0xc(%ebp),%eax
  404afc:	39 7d 10             	cmp    %edi,0x10(%ebp)
  404aff:	89 45 fc             	mov    %eax,-0x4(%ebp)
  404b02:	89 7d 08             	mov    %edi,0x8(%ebp)
  404b05:	0f 86 e7 00 00 00    	jbe    0x404bf2
  404b0b:	8d 85 ec fb ff ff    	lea    -0x414(%ebp),%eax
  404b11:	8b 4d fc             	mov    -0x4(%ebp),%ecx
  404b14:	2b 4d 0c             	sub    0xc(%ebp),%ecx
  404b17:	3b 4d 10             	cmp    0x10(%ebp),%ecx
  404b1a:	73 29                	jae    0x404b45
  404b1c:	8b 4d fc             	mov    -0x4(%ebp),%ecx
  404b1f:	ff 45 fc             	incl   -0x4(%ebp)
  404b22:	8a 09                	mov    (%ecx),%cl
  404b24:	80 f9 0a             	cmp    $0xa,%cl
  404b27:	75 07                	jne    0x404b30
  404b29:	ff 45 f0             	incl   -0x10(%ebp)
  404b2c:	c6 00 0d             	movb   $0xd,(%eax)
  404b2f:	40                   	inc    %eax
  404b30:	88 08                	mov    %cl,(%eax)
  404b32:	40                   	inc    %eax
  404b33:	8b c8                	mov    %eax,%ecx
  404b35:	8d 95 ec fb ff ff    	lea    -0x414(%ebp),%edx
  404b3b:	2b ca                	sub    %edx,%ecx
  404b3d:	81 f9 00 04 00 00    	cmp    $0x400,%ecx
  404b43:	7c cc                	jl     0x404b11
  404b45:	8b f8                	mov    %eax,%edi
  404b47:	8d 85 ec fb ff ff    	lea    -0x414(%ebp),%eax
  404b4d:	2b f8                	sub    %eax,%edi
  404b4f:	8d 45 f4             	lea    -0xc(%ebp),%eax
  404b52:	6a 00                	push   $0x0
  404b54:	50                   	push   %eax
  404b55:	8d 85 ec fb ff ff    	lea    -0x414(%ebp),%eax
  404b5b:	57                   	push   %edi
  404b5c:	50                   	push   %eax
  404b5d:	8b 03                	mov    (%ebx),%eax
  404b5f:	ff 34 30             	pushl  (%eax,%esi,1)
  404b62:	ff 15 a0 60 40 00    	call   *0x4060a0
  404b68:	85 c0                	test   %eax,%eax
  404b6a:	74 43                	je     0x404baf
  404b6c:	8b 45 f4             	mov    -0xc(%ebp),%eax
  404b6f:	01 45 f8             	add    %eax,-0x8(%ebp)
  404b72:	3b c7                	cmp    %edi,%eax
  404b74:	7c 0b                	jl     0x404b81
  404b76:	8b 45 fc             	mov    -0x4(%ebp),%eax
  404b79:	2b 45 0c             	sub    0xc(%ebp),%eax
  404b7c:	3b 45 10             	cmp    0x10(%ebp),%eax
  404b7f:	72 8a                	jb     0x404b0b
  404b81:	33 ff                	xor    %edi,%edi
  404b83:	8b 45 f8             	mov    -0x8(%ebp),%eax
  404b86:	3b c7                	cmp    %edi,%eax
  404b88:	0f 85 8b 00 00 00    	jne    0x404c19
  404b8e:	39 7d 08             	cmp    %edi,0x8(%ebp)
  404b91:	74 5f                	je     0x404bf2
  404b93:	6a 05                	push   $0x5
  404b95:	58                   	pop    %eax
  404b96:	39 45 08             	cmp    %eax,0x8(%ebp)
  404b99:	75 4c                	jne    0x404be7
  404b9b:	c7 05 d4 09 41 00 09 	movl   $0x9,0x4109d4
  404ba2:	00 00 00 
  404ba5:	a3 d8 09 41 00       	mov    %eax,0x4109d8
  404baa:	e9 80 00 00 00       	jmp    0x404c2f
  404baf:	ff 15 08 60 40 00    	call   *0x406008
  404bb5:	89 45 08             	mov    %eax,0x8(%ebp)
  404bb8:	eb c7                	jmp    0x404b81
  404bba:	8d 4d f4             	lea    -0xc(%ebp),%ecx
  404bbd:	57                   	push   %edi
  404bbe:	51                   	push   %ecx
  404bbf:	ff 75 10             	pushl  0x10(%ebp)
  404bc2:	ff 75 0c             	pushl  0xc(%ebp)
  404bc5:	ff 30                	pushl  (%eax)
  404bc7:	ff 15 a0 60 40 00    	call   *0x4060a0
  404bcd:	85 c0                	test   %eax,%eax
  404bcf:	74 0b                	je     0x404bdc
  404bd1:	8b 45 f4             	mov    -0xc(%ebp),%eax
  404bd4:	89 7d 08             	mov    %edi,0x8(%ebp)
  404bd7:	89 45 f8             	mov    %eax,-0x8(%ebp)
  404bda:	eb a7                	jmp    0x404b83
  404bdc:	ff 15 08 60 40 00    	call   *0x406008
  404be2:	89 45 08             	mov    %eax,0x8(%ebp)
  404be5:	eb 9c                	jmp    0x404b83
  404be7:	ff 75 08             	pushl  0x8(%ebp)
  404bea:	e8 66 09 00 00       	call   0x405555
  404bef:	59                   	pop    %ecx
  404bf0:	eb 3d                	jmp    0x404c2f
  404bf2:	8b 03                	mov    (%ebx),%eax
  404bf4:	f6 44 30 04 40       	testb  $0x40,0x4(%eax,%esi,1)
  404bf9:	74 0c                	je     0x404c07
  404bfb:	8b 45 0c             	mov    0xc(%ebp),%eax
  404bfe:	80 38 1a             	cmpb   $0x1a,(%eax)
  404c01:	0f 84 cd fe ff ff    	je     0x404ad4
  404c07:	c7 05 d4 09 41 00 1c 	movl   $0x1c,0x4109d4
  404c0e:	00 00 00 
  404c11:	89 3d d8 09 41 00    	mov    %edi,0x4109d8
  404c17:	eb 16                	jmp    0x404c2f
  404c19:	2b 45 f0             	sub    -0x10(%ebp),%eax
  404c1c:	eb 14                	jmp    0x404c32
  404c1e:	83 25 d8 09 41 00 00 	andl   $0x0,0x4109d8
  404c25:	c7 05 d4 09 41 00 09 	movl   $0x9,0x4109d4
  404c2c:	00 00 00 
  404c2f:	83 c8 ff             	or     $0xffffffff,%eax
  404c32:	5f                   	pop    %edi
  404c33:	5e                   	pop    %esi
  404c34:	5b                   	pop    %ebx
  404c35:	c9                   	leave  
  404c36:	c3                   	ret    
  404c37:	6a 02                	push   $0x2
  404c39:	e8 94 cb ff ff       	call   0x4017d2
  404c3e:	59                   	pop    %ecx
  404c3f:	c3                   	ret    
  404c40:	8b 44 24 04          	mov    0x4(%esp),%eax
  404c44:	53                   	push   %ebx
  404c45:	3b 05 00 1f 41 00    	cmp    0x411f00,%eax
  404c4b:	56                   	push   %esi
  404c4c:	57                   	push   %edi
  404c4d:	73 73                	jae    0x404cc2
  404c4f:	8b c8                	mov    %eax,%ecx
  404c51:	8b f0                	mov    %eax,%esi
  404c53:	c1 f9 05             	sar    $0x5,%ecx
  404c56:	83 e6 1f             	and    $0x1f,%esi
  404c59:	8d 3c 8d 00 1e 41 00 	lea    0x411e00(,%ecx,4),%edi
  404c60:	c1 e6 03             	shl    $0x3,%esi
  404c63:	8b 0f                	mov    (%edi),%ecx
  404c65:	f6 44 31 04 01       	testb  $0x1,0x4(%ecx,%esi,1)
  404c6a:	74 56                	je     0x404cc2
  404c6c:	50                   	push   %eax
  404c6d:	e8 a6 08 00 00       	call   0x405518
  404c72:	83 f8 ff             	cmp    $0xffffffff,%eax
  404c75:	59                   	pop    %ecx
  404c76:	75 0c                	jne    0x404c84
  404c78:	c7 05 d4 09 41 00 09 	movl   $0x9,0x4109d4
  404c7f:	00 00 00 
  404c82:	eb 4f                	jmp    0x404cd3
  404c84:	ff 74 24 18          	pushl  0x18(%esp)
  404c88:	6a 00                	push   $0x0
  404c8a:	ff 74 24 1c          	pushl  0x1c(%esp)
  404c8e:	50                   	push   %eax
  404c8f:	ff 15 b8 60 40 00    	call   *0x4060b8
  404c95:	8b d8                	mov    %eax,%ebx
  404c97:	83 fb ff             	cmp    $0xffffffff,%ebx
  404c9a:	75 08                	jne    0x404ca4
  404c9c:	ff 15 08 60 40 00    	call   *0x406008
  404ca2:	eb 02                	jmp    0x404ca6
  404ca4:	33 c0                	xor    %eax,%eax
  404ca6:	85 c0                	test   %eax,%eax
  404ca8:	74 09                	je     0x404cb3
  404caa:	50                   	push   %eax
  404cab:	e8 a5 08 00 00       	call   0x405555
  404cb0:	59                   	pop    %ecx
  404cb1:	eb 20                	jmp    0x404cd3
  404cb3:	8b 07                	mov    (%edi),%eax
  404cb5:	80 64 30 04 fd       	andb   $0xfd,0x4(%eax,%esi,1)
  404cba:	8d 44 30 04          	lea    0x4(%eax,%esi,1),%eax
  404cbe:	8b c3                	mov    %ebx,%eax
  404cc0:	eb 14                	jmp    0x404cd6
  404cc2:	83 25 d8 09 41 00 00 	andl   $0x0,0x4109d8
  404cc9:	c7 05 d4 09 41 00 09 	movl   $0x9,0x4109d4
  404cd0:	00 00 00 
  404cd3:	83 c8 ff             	or     $0xffffffff,%eax
  404cd6:	5f                   	pop    %edi
  404cd7:	5e                   	pop    %esi
  404cd8:	5b                   	pop    %ebx
  404cd9:	c3                   	ret    
  404cda:	ff 05 30 0b 41 00    	incl   0x410b30
  404ce0:	68 00 10 00 00       	push   $0x1000
  404ce5:	e8 50 d6 ff ff       	call   0x40233a
  404cea:	59                   	pop    %ecx
  404ceb:	8b 4c 24 04          	mov    0x4(%esp),%ecx
  404cef:	85 c0                	test   %eax,%eax
  404cf1:	89 41 08             	mov    %eax,0x8(%ecx)
  404cf4:	74 0d                	je     0x404d03
  404cf6:	83 49 0c 08          	orl    $0x8,0xc(%ecx)
  404cfa:	c7 41 18 00 10 00 00 	movl   $0x1000,0x18(%ecx)
  404d01:	eb 11                	jmp    0x404d14
  404d03:	83 49 0c 04          	orl    $0x4,0xc(%ecx)
  404d07:	8d 41 14             	lea    0x14(%ecx),%eax
  404d0a:	89 41 08             	mov    %eax,0x8(%ecx)
  404d0d:	c7 41 18 02 00 00 00 	movl   $0x2,0x18(%ecx)
  404d14:	8b 41 08             	mov    0x8(%ecx),%eax
  404d17:	83 61 04 00          	andl   $0x0,0x4(%ecx)
  404d1b:	89 01                	mov    %eax,(%ecx)
  404d1d:	c3                   	ret    
  404d1e:	cc                   	int3   
  404d1f:	cc                   	int3   
  404d20:	55                   	push   %ebp
  404d21:	8b ec                	mov    %esp,%ebp
  404d23:	57                   	push   %edi
  404d24:	56                   	push   %esi
  404d25:	8b 75 0c             	mov    0xc(%ebp),%esi
  404d28:	8b 4d 10             	mov    0x10(%ebp),%ecx
  404d2b:	8b 7d 08             	mov    0x8(%ebp),%edi
  404d2e:	8b c1                	mov    %ecx,%eax
  404d30:	8b d1                	mov    %ecx,%edx
  404d32:	03 c6                	add    %esi,%eax
  404d34:	3b fe                	cmp    %esi,%edi
  404d36:	76 08                	jbe    0x404d40
  404d38:	3b f8                	cmp    %eax,%edi
  404d3a:	0f 82 78 01 00 00    	jb     0x404eb8
  404d40:	f7 c7 03 00 00 00    	test   $0x3,%edi
  404d46:	75 14                	jne    0x404d5c
  404d48:	c1 e9 02             	shr    $0x2,%ecx
  404d4b:	83 e2 03             	and    $0x3,%edx
  404d4e:	83 f9 08             	cmp    $0x8,%ecx
  404d51:	72 29                	jb     0x404d7c
  404d53:	f3 a5                	rep movsl %ds:(%esi),%es:(%edi)
  404d55:	ff 24 95 68 4e 40 00 	jmp    *0x404e68(,%edx,4)
  404d5c:	8b c7                	mov    %edi,%eax
  404d5e:	ba 03 00 00 00       	mov    $0x3,%edx
  404d63:	83 e9 04             	sub    $0x4,%ecx
  404d66:	72 0c                	jb     0x404d74
  404d68:	83 e0 03             	and    $0x3,%eax
  404d6b:	03 c8                	add    %eax,%ecx
  404d6d:	ff 24 85 80 4d 40 00 	jmp    *0x404d80(,%eax,4)
  404d74:	ff 24 8d 78 4e 40 00 	jmp    *0x404e78(,%ecx,4)
  404d7b:	90                   	nop
  404d7c:	ff 24 8d fc 4d 40 00 	jmp    *0x404dfc(,%ecx,4)
  404d83:	90                   	nop
  404d84:	90                   	nop
  404d85:	4d                   	dec    %ebp
  404d86:	40                   	inc    %eax
  404d87:	00 bc 4d 40 00 e0 4d 	add    %bh,0x4de00040(%ebp,%ecx,2)
  404d8e:	40                   	inc    %eax
  404d8f:	00 23                	add    %ah,(%ebx)
  404d91:	d1 8a 06 88 07 8a    	rorl   -0x75f877fa(%edx)
  404d97:	46                   	inc    %esi
  404d98:	01 88 47 01 8a 46    	add    %ecx,0x468a0147(%eax)
  404d9e:	02 c1                	add    %cl,%al
  404da0:	e9 02 88 47 02       	jmp    0x287d5a7
  404da5:	83 c6 03             	add    $0x3,%esi
  404da8:	83 c7 03             	add    $0x3,%edi
  404dab:	83 f9 08             	cmp    $0x8,%ecx
  404dae:	72 cc                	jb     0x404d7c
  404db0:	f3 a5                	rep movsl %ds:(%esi),%es:(%edi)
  404db2:	ff 24 95 68 4e 40 00 	jmp    *0x404e68(,%edx,4)
  404db9:	8d 49 00             	lea    0x0(%ecx),%ecx
  404dbc:	23 d1                	and    %ecx,%edx
  404dbe:	8a 06                	mov    (%esi),%al
  404dc0:	88 07                	mov    %al,(%edi)
  404dc2:	8a 46 01             	mov    0x1(%esi),%al
  404dc5:	c1 e9 02             	shr    $0x2,%ecx
  404dc8:	88 47 01             	mov    %al,0x1(%edi)
  404dcb:	83 c6 02             	add    $0x2,%esi
  404dce:	83 c7 02             	add    $0x2,%edi
  404dd1:	83 f9 08             	cmp    $0x8,%ecx
  404dd4:	72 a6                	jb     0x404d7c
  404dd6:	f3 a5                	rep movsl %ds:(%esi),%es:(%edi)
  404dd8:	ff 24 95 68 4e 40 00 	jmp    *0x404e68(,%edx,4)
  404ddf:	90                   	nop
  404de0:	23 d1                	and    %ecx,%edx
  404de2:	8a 06                	mov    (%esi),%al
  404de4:	88 07                	mov    %al,(%edi)
  404de6:	46                   	inc    %esi
  404de7:	c1 e9 02             	shr    $0x2,%ecx
  404dea:	47                   	inc    %edi
  404deb:	83 f9 08             	cmp    $0x8,%ecx
  404dee:	72 8c                	jb     0x404d7c
  404df0:	f3 a5                	rep movsl %ds:(%esi),%es:(%edi)
  404df2:	ff 24 95 68 4e 40 00 	jmp    *0x404e68(,%edx,4)
  404df9:	8d 49 00             	lea    0x0(%ecx),%ecx
  404dfc:	5f                   	pop    %edi
  404dfd:	4e                   	dec    %esi
  404dfe:	40                   	inc    %eax
  404dff:	00 4c 4e 40          	add    %cl,0x40(%esi,%ecx,2)
  404e03:	00 44 4e 40          	add    %al,0x40(%esi,%ecx,2)
  404e07:	00 3c 4e             	add    %bh,(%esi,%ecx,2)
  404e0a:	40                   	inc    %eax
  404e0b:	00 34 4e             	add    %dh,(%esi,%ecx,2)
  404e0e:	40                   	inc    %eax
  404e0f:	00 2c 4e             	add    %ch,(%esi,%ecx,2)
  404e12:	40                   	inc    %eax
  404e13:	00 24 4e             	add    %ah,(%esi,%ecx,2)
  404e16:	40                   	inc    %eax
  404e17:	00 1c 4e             	add    %bl,(%esi,%ecx,2)
  404e1a:	40                   	inc    %eax
  404e1b:	00 8b 44 8e e4 89    	add    %cl,-0x761b71bc(%ebx)
  404e21:	44                   	inc    %esp
  404e22:	8f                   	(bad)  
  404e23:	e4 8b                	in     $0x8b,%al
  404e25:	44                   	inc    %esp
  404e26:	8e e8                	mov    %eax,%gs
  404e28:	89 44 8f e8          	mov    %eax,-0x18(%edi,%ecx,4)
  404e2c:	8b 44 8e ec          	mov    -0x14(%esi,%ecx,4),%eax
  404e30:	89 44 8f ec          	mov    %eax,-0x14(%edi,%ecx,4)
  404e34:	8b 44 8e f0          	mov    -0x10(%esi,%ecx,4),%eax
  404e38:	89 44 8f f0          	mov    %eax,-0x10(%edi,%ecx,4)
  404e3c:	8b 44 8e f4          	mov    -0xc(%esi,%ecx,4),%eax
  404e40:	89 44 8f f4          	mov    %eax,-0xc(%edi,%ecx,4)
  404e44:	8b 44 8e f8          	mov    -0x8(%esi,%ecx,4),%eax
  404e48:	89 44 8f f8          	mov    %eax,-0x8(%edi,%ecx,4)
  404e4c:	8b 44 8e fc          	mov    -0x4(%esi,%ecx,4),%eax
  404e50:	89 44 8f fc          	mov    %eax,-0x4(%edi,%ecx,4)
  404e54:	8d 04 8d 00 00 00 00 	lea    0x0(,%ecx,4),%eax
  404e5b:	03 f0                	add    %eax,%esi
  404e5d:	03 f8                	add    %eax,%edi
  404e5f:	ff 24 95 68 4e 40 00 	jmp    *0x404e68(,%edx,4)
  404e66:	8b ff                	mov    %edi,%edi
  404e68:	78 4e                	js     0x404eb8
  404e6a:	40                   	inc    %eax
  404e6b:	00 80 4e 40 00 8c    	add    %al,-0x73ffbfb2(%eax)
  404e71:	4e                   	dec    %esi
  404e72:	40                   	inc    %eax
  404e73:	00 a0 4e 40 00 8b    	add    %ah,-0x74ffbfb2(%eax)
  404e79:	45                   	inc    %ebp
  404e7a:	08 5e 5f             	or     %bl,0x5f(%esi)
  404e7d:	c9                   	leave  
  404e7e:	c3                   	ret    
  404e7f:	90                   	nop
  404e80:	8a 06                	mov    (%esi),%al
  404e82:	88 07                	mov    %al,(%edi)
  404e84:	8b 45 08             	mov    0x8(%ebp),%eax
  404e87:	5e                   	pop    %esi
  404e88:	5f                   	pop    %edi
  404e89:	c9                   	leave  
  404e8a:	c3                   	ret    
  404e8b:	90                   	nop
  404e8c:	8a 06                	mov    (%esi),%al
  404e8e:	88 07                	mov    %al,(%edi)
  404e90:	8a 46 01             	mov    0x1(%esi),%al
  404e93:	88 47 01             	mov    %al,0x1(%edi)
  404e96:	8b 45 08             	mov    0x8(%ebp),%eax
  404e99:	5e                   	pop    %esi
  404e9a:	5f                   	pop    %edi
  404e9b:	c9                   	leave  
  404e9c:	c3                   	ret    
  404e9d:	8d 49 00             	lea    0x0(%ecx),%ecx
  404ea0:	8a 06                	mov    (%esi),%al
  404ea2:	88 07                	mov    %al,(%edi)
  404ea4:	8a 46 01             	mov    0x1(%esi),%al
  404ea7:	88 47 01             	mov    %al,0x1(%edi)
  404eaa:	8a 46 02             	mov    0x2(%esi),%al
  404ead:	88 47 02             	mov    %al,0x2(%edi)
  404eb0:	8b 45 08             	mov    0x8(%ebp),%eax
  404eb3:	5e                   	pop    %esi
  404eb4:	5f                   	pop    %edi
  404eb5:	c9                   	leave  
  404eb6:	c3                   	ret    
  404eb7:	90                   	nop
  404eb8:	8d 74 31 fc          	lea    -0x4(%ecx,%esi,1),%esi
  404ebc:	8d 7c 39 fc          	lea    -0x4(%ecx,%edi,1),%edi
  404ec0:	f7 c7 03 00 00 00    	test   $0x3,%edi
  404ec6:	75 24                	jne    0x404eec
  404ec8:	c1 e9 02             	shr    $0x2,%ecx
  404ecb:	83 e2 03             	and    $0x3,%edx
  404ece:	83 f9 08             	cmp    $0x8,%ecx
  404ed1:	72 0d                	jb     0x404ee0
  404ed3:	fd                   	std    
  404ed4:	f3 a5                	rep movsl %ds:(%esi),%es:(%edi)
  404ed6:	fc                   	cld    
  404ed7:	ff 24 95 00 50 40 00 	jmp    *0x405000(,%edx,4)
  404ede:	8b ff                	mov    %edi,%edi
  404ee0:	f7 d9                	neg    %ecx
  404ee2:	ff 24 8d b0 4f 40 00 	jmp    *0x404fb0(,%ecx,4)
  404ee9:	8d 49 00             	lea    0x0(%ecx),%ecx
  404eec:	8b c7                	mov    %edi,%eax
  404eee:	ba 03 00 00 00       	mov    $0x3,%edx
  404ef3:	83 f9 04             	cmp    $0x4,%ecx
  404ef6:	72 0c                	jb     0x404f04
  404ef8:	83 e0 03             	and    $0x3,%eax
  404efb:	2b c8                	sub    %eax,%ecx
  404efd:	ff 24 85 08 4f 40 00 	jmp    *0x404f08(,%eax,4)
  404f04:	ff 24 8d 00 50 40 00 	jmp    *0x405000(,%ecx,4)
  404f0b:	90                   	nop
  404f0c:	18 4f 40             	sbb    %cl,0x40(%edi)
  404f0f:	00 38                	add    %bh,(%eax)
  404f11:	4f                   	dec    %edi
  404f12:	40                   	inc    %eax
  404f13:	00 60 4f             	add    %ah,0x4f(%eax)
  404f16:	40                   	inc    %eax
  404f17:	00 8a 46 03 23 d1    	add    %cl,-0x2edcfcba(%edx)
  404f1d:	88 47 03             	mov    %al,0x3(%edi)
  404f20:	4e                   	dec    %esi
  404f21:	c1 e9 02             	shr    $0x2,%ecx
  404f24:	4f                   	dec    %edi
  404f25:	83 f9 08             	cmp    $0x8,%ecx
  404f28:	72 b6                	jb     0x404ee0
  404f2a:	fd                   	std    
  404f2b:	f3 a5                	rep movsl %ds:(%esi),%es:(%edi)
  404f2d:	fc                   	cld    
  404f2e:	ff 24 95 00 50 40 00 	jmp    *0x405000(,%edx,4)
  404f35:	8d 49 00             	lea    0x0(%ecx),%ecx
  404f38:	8a 46 03             	mov    0x3(%esi),%al
  404f3b:	23 d1                	and    %ecx,%edx
  404f3d:	88 47 03             	mov    %al,0x3(%edi)
  404f40:	8a 46 02             	mov    0x2(%esi),%al
  404f43:	c1 e9 02             	shr    $0x2,%ecx
  404f46:	88 47 02             	mov    %al,0x2(%edi)
  404f49:	83 ee 02             	sub    $0x2,%esi
  404f4c:	83 ef 02             	sub    $0x2,%edi
  404f4f:	83 f9 08             	cmp    $0x8,%ecx
  404f52:	72 8c                	jb     0x404ee0
  404f54:	fd                   	std    
  404f55:	f3 a5                	rep movsl %ds:(%esi),%es:(%edi)
  404f57:	fc                   	cld    
  404f58:	ff 24 95 00 50 40 00 	jmp    *0x405000(,%edx,4)
  404f5f:	90                   	nop
  404f60:	8a 46 03             	mov    0x3(%esi),%al
  404f63:	23 d1                	and    %ecx,%edx
  404f65:	88 47 03             	mov    %al,0x3(%edi)
  404f68:	8a 46 02             	mov    0x2(%esi),%al
  404f6b:	88 47 02             	mov    %al,0x2(%edi)
  404f6e:	8a 46 01             	mov    0x1(%esi),%al
  404f71:	c1 e9 02             	shr    $0x2,%ecx
  404f74:	88 47 01             	mov    %al,0x1(%edi)
  404f77:	83 ee 03             	sub    $0x3,%esi
  404f7a:	83 ef 03             	sub    $0x3,%edi
  404f7d:	83 f9 08             	cmp    $0x8,%ecx
  404f80:	0f 82 5a ff ff ff    	jb     0x404ee0
  404f86:	fd                   	std    
  404f87:	f3 a5                	rep movsl %ds:(%esi),%es:(%edi)
  404f89:	fc                   	cld    
  404f8a:	ff 24 95 00 50 40 00 	jmp    *0x405000(,%edx,4)
  404f91:	8d 49 00             	lea    0x0(%ecx),%ecx
  404f94:	b4 4f                	mov    $0x4f,%ah
  404f96:	40                   	inc    %eax
  404f97:	00 bc 4f 40 00 c4 4f 	add    %bh,0x4fc40040(%edi,%ecx,2)
  404f9e:	40                   	inc    %eax
  404f9f:	00 cc                	add    %cl,%ah
  404fa1:	4f                   	dec    %edi
  404fa2:	40                   	inc    %eax
  404fa3:	00 d4                	add    %dl,%ah
  404fa5:	4f                   	dec    %edi
  404fa6:	40                   	inc    %eax
  404fa7:	00 dc                	add    %bl,%ah
  404fa9:	4f                   	dec    %edi
  404faa:	40                   	inc    %eax
  404fab:	00 e4                	add    %ah,%ah
  404fad:	4f                   	dec    %edi
  404fae:	40                   	inc    %eax
  404faf:	00 f7                	add    %dh,%bh
  404fb1:	4f                   	dec    %edi
  404fb2:	40                   	inc    %eax
  404fb3:	00 8b 44 8e 1c 89    	add    %cl,-0x76e371bc(%ebx)
  404fb9:	44                   	inc    %esp
  404fba:	8f                   	(bad)  
  404fbb:	1c 8b                	sbb    $0x8b,%al
  404fbd:	44                   	inc    %esp
  404fbe:	8e 18                	mov    (%eax),%ds
  404fc0:	89 44 8f 18          	mov    %eax,0x18(%edi,%ecx,4)
  404fc4:	8b 44 8e 14          	mov    0x14(%esi,%ecx,4),%eax
  404fc8:	89 44 8f 14          	mov    %eax,0x14(%edi,%ecx,4)
  404fcc:	8b 44 8e 10          	mov    0x10(%esi,%ecx,4),%eax
  404fd0:	89 44 8f 10          	mov    %eax,0x10(%edi,%ecx,4)
  404fd4:	8b 44 8e 0c          	mov    0xc(%esi,%ecx,4),%eax
  404fd8:	89 44 8f 0c          	mov    %eax,0xc(%edi,%ecx,4)
  404fdc:	8b 44 8e 08          	mov    0x8(%esi,%ecx,4),%eax
  404fe0:	89 44 8f 08          	mov    %eax,0x8(%edi,%ecx,4)
  404fe4:	8b 44 8e 04          	mov    0x4(%esi,%ecx,4),%eax
  404fe8:	89 44 8f 04          	mov    %eax,0x4(%edi,%ecx,4)
  404fec:	8d 04 8d 00 00 00 00 	lea    0x0(,%ecx,4),%eax
  404ff3:	03 f0                	add    %eax,%esi
  404ff5:	03 f8                	add    %eax,%edi
  404ff7:	ff 24 95 00 50 40 00 	jmp    *0x405000(,%edx,4)
  404ffe:	8b ff                	mov    %edi,%edi
  405000:	10 50 40             	adc    %dl,0x40(%eax)
  405003:	00 18                	add    %bl,(%eax)
  405005:	50                   	push   %eax
  405006:	40                   	inc    %eax
  405007:	00 28                	add    %ch,(%eax)
  405009:	50                   	push   %eax
  40500a:	40                   	inc    %eax
  40500b:	00 3c 50             	add    %bh,(%eax,%edx,2)
  40500e:	40                   	inc    %eax
  40500f:	00 8b 45 08 5e 5f    	add    %cl,0x5f5e0845(%ebx)
  405015:	c9                   	leave  
  405016:	c3                   	ret    
  405017:	90                   	nop
  405018:	8a 46 03             	mov    0x3(%esi),%al
  40501b:	88 47 03             	mov    %al,0x3(%edi)
  40501e:	8b 45 08             	mov    0x8(%ebp),%eax
  405021:	5e                   	pop    %esi
  405022:	5f                   	pop    %edi
  405023:	c9                   	leave  
  405024:	c3                   	ret    
  405025:	8d 49 00             	lea    0x0(%ecx),%ecx
  405028:	8a 46 03             	mov    0x3(%esi),%al
  40502b:	88 47 03             	mov    %al,0x3(%edi)
  40502e:	8a 46 02             	mov    0x2(%esi),%al
  405031:	88 47 02             	mov    %al,0x2(%edi)
  405034:	8b 45 08             	mov    0x8(%ebp),%eax
  405037:	5e                   	pop    %esi
  405038:	5f                   	pop    %edi
  405039:	c9                   	leave  
  40503a:	c3                   	ret    
  40503b:	90                   	nop
  40503c:	8a 46 03             	mov    0x3(%esi),%al
  40503f:	88 47 03             	mov    %al,0x3(%edi)
  405042:	8a 46 02             	mov    0x2(%esi),%al
  405045:	88 47 02             	mov    %al,0x2(%edi)
  405048:	8a 46 01             	mov    0x1(%esi),%al
  40504b:	88 47 01             	mov    %al,0x1(%edi)
  40504e:	8b 45 08             	mov    0x8(%ebp),%eax
  405051:	5e                   	pop    %esi
  405052:	5f                   	pop    %edi
  405053:	c9                   	leave  
  405054:	c3                   	ret    
  405055:	55                   	push   %ebp
  405056:	8b ec                	mov    %esp,%ebp
  405058:	6a ff                	push   $0xffffffff
  40505a:	68 b0 64 40 00       	push   $0x4064b0
  40505f:	68 a4 2c 40 00       	push   $0x402ca4
  405064:	64 a1 00 00 00 00    	mov    %fs:0x0,%eax
  40506a:	50                   	push   %eax
  40506b:	64 89 25 00 00 00 00 	mov    %esp,%fs:0x0
  405072:	83 ec 1c             	sub    $0x1c,%esp
  405075:	53                   	push   %ebx
  405076:	56                   	push   %esi
  405077:	57                   	push   %edi
  405078:	89 65 e8             	mov    %esp,-0x18(%ebp)
  40507b:	33 ff                	xor    %edi,%edi
  40507d:	39 3d 6c 0b 41 00    	cmp    %edi,0x410b6c
  405083:	75 46                	jne    0x4050cb
  405085:	57                   	push   %edi
  405086:	57                   	push   %edi
  405087:	6a 01                	push   $0x1
  405089:	5b                   	pop    %ebx
  40508a:	53                   	push   %ebx
  40508b:	68 a8 64 40 00       	push   $0x4064a8
  405090:	be 00 01 00 00       	mov    $0x100,%esi
  405095:	56                   	push   %esi
  405096:	57                   	push   %edi
  405097:	ff 15 c4 60 40 00    	call   *0x4060c4
  40509d:	85 c0                	test   %eax,%eax
  40509f:	74 08                	je     0x4050a9
  4050a1:	89 1d 6c 0b 41 00    	mov    %ebx,0x410b6c
  4050a7:	eb 22                	jmp    0x4050cb
  4050a9:	57                   	push   %edi
  4050aa:	57                   	push   %edi
  4050ab:	53                   	push   %ebx
  4050ac:	68 a4 64 40 00       	push   $0x4064a4
  4050b1:	56                   	push   %esi
  4050b2:	57                   	push   %edi
  4050b3:	ff 15 c0 60 40 00    	call   *0x4060c0
  4050b9:	85 c0                	test   %eax,%eax
  4050bb:	0f 84 22 01 00 00    	je     0x4051e3
  4050c1:	c7 05 6c 0b 41 00 02 	movl   $0x2,0x410b6c
  4050c8:	00 00 00 
  4050cb:	39 7d 14             	cmp    %edi,0x14(%ebp)
  4050ce:	7e 10                	jle    0x4050e0
  4050d0:	ff 75 14             	pushl  0x14(%ebp)
  4050d3:	ff 75 10             	pushl  0x10(%ebp)
  4050d6:	e8 9e 01 00 00       	call   0x405279
  4050db:	59                   	pop    %ecx
  4050dc:	59                   	pop    %ecx
  4050dd:	89 45 14             	mov    %eax,0x14(%ebp)
  4050e0:	a1 6c 0b 41 00       	mov    0x410b6c,%eax
  4050e5:	83 f8 02             	cmp    $0x2,%eax
  4050e8:	75 1d                	jne    0x405107
  4050ea:	ff 75 1c             	pushl  0x1c(%ebp)
  4050ed:	ff 75 18             	pushl  0x18(%ebp)
  4050f0:	ff 75 14             	pushl  0x14(%ebp)
  4050f3:	ff 75 10             	pushl  0x10(%ebp)
  4050f6:	ff 75 0c             	pushl  0xc(%ebp)
  4050f9:	ff 75 08             	pushl  0x8(%ebp)
  4050fc:	ff 15 c0 60 40 00    	call   *0x4060c0
  405102:	e9 de 00 00 00       	jmp    0x4051e5
  405107:	83 f8 01             	cmp    $0x1,%eax
  40510a:	0f 85 d3 00 00 00    	jne    0x4051e3
  405110:	39 7d 20             	cmp    %edi,0x20(%ebp)
  405113:	75 08                	jne    0x40511d
  405115:	a1 64 0b 41 00       	mov    0x410b64,%eax
  40511a:	89 45 20             	mov    %eax,0x20(%ebp)
  40511d:	57                   	push   %edi
  40511e:	57                   	push   %edi
  40511f:	ff 75 14             	pushl  0x14(%ebp)
  405122:	ff 75 10             	pushl  0x10(%ebp)
  405125:	8b 45 24             	mov    0x24(%ebp),%eax
  405128:	f7 d8                	neg    %eax
  40512a:	1b c0                	sbb    %eax,%eax
  40512c:	83 e0 08             	and    $0x8,%eax
  40512f:	40                   	inc    %eax
  405130:	50                   	push   %eax
  405131:	ff 75 20             	pushl  0x20(%ebp)
  405134:	ff 15 bc 60 40 00    	call   *0x4060bc
  40513a:	8b d8                	mov    %eax,%ebx
  40513c:	89 5d e4             	mov    %ebx,-0x1c(%ebp)
  40513f:	3b df                	cmp    %edi,%ebx
  405141:	0f 84 9c 00 00 00    	je     0x4051e3
  405147:	89 7d fc             	mov    %edi,-0x4(%ebp)
  40514a:	8d 04 1b             	lea    (%ebx,%ebx,1),%eax
  40514d:	83 c0 03             	add    $0x3,%eax
  405150:	24 fc                	and    $0xfc,%al
  405152:	e8 69 04 00 00       	call   0x4055c0
  405157:	89 65 e8             	mov    %esp,-0x18(%ebp)
  40515a:	8b c4                	mov    %esp,%eax
  40515c:	89 45 dc             	mov    %eax,-0x24(%ebp)
  40515f:	83 4d fc ff          	orl    $0xffffffff,-0x4(%ebp)
  405163:	eb 13                	jmp    0x405178
  405165:	6a 01                	push   $0x1
  405167:	58                   	pop    %eax
  405168:	c3                   	ret    
  405169:	8b 65 e8             	mov    -0x18(%ebp),%esp
  40516c:	33 ff                	xor    %edi,%edi
  40516e:	89 7d dc             	mov    %edi,-0x24(%ebp)
  405171:	83 4d fc ff          	orl    $0xffffffff,-0x4(%ebp)
  405175:	8b 5d e4             	mov    -0x1c(%ebp),%ebx
  405178:	39 7d dc             	cmp    %edi,-0x24(%ebp)
  40517b:	74 66                	je     0x4051e3
  40517d:	53                   	push   %ebx
  40517e:	ff 75 dc             	pushl  -0x24(%ebp)
  405181:	ff 75 14             	pushl  0x14(%ebp)
  405184:	ff 75 10             	pushl  0x10(%ebp)
  405187:	6a 01                	push   $0x1
  405189:	ff 75 20             	pushl  0x20(%ebp)
  40518c:	ff 15 bc 60 40 00    	call   *0x4060bc
  405192:	85 c0                	test   %eax,%eax
  405194:	74 4d                	je     0x4051e3
  405196:	57                   	push   %edi
  405197:	57                   	push   %edi
  405198:	53                   	push   %ebx
  405199:	ff 75 dc             	pushl  -0x24(%ebp)
  40519c:	ff 75 0c             	pushl  0xc(%ebp)
  40519f:	ff 75 08             	pushl  0x8(%ebp)
  4051a2:	ff 15 c4 60 40 00    	call   *0x4060c4
  4051a8:	8b f0                	mov    %eax,%esi
  4051aa:	89 75 d8             	mov    %esi,-0x28(%ebp)
  4051ad:	3b f7                	cmp    %edi,%esi
  4051af:	74 32                	je     0x4051e3
  4051b1:	f6 45 0d 04          	testb  $0x4,0xd(%ebp)
  4051b5:	74 40                	je     0x4051f7
  4051b7:	39 7d 1c             	cmp    %edi,0x1c(%ebp)
  4051ba:	0f 84 b2 00 00 00    	je     0x405272
  4051c0:	3b 75 1c             	cmp    0x1c(%ebp),%esi
  4051c3:	7f 1e                	jg     0x4051e3
  4051c5:	ff 75 1c             	pushl  0x1c(%ebp)
  4051c8:	ff 75 18             	pushl  0x18(%ebp)
  4051cb:	53                   	push   %ebx
  4051cc:	ff 75 dc             	pushl  -0x24(%ebp)
  4051cf:	ff 75 0c             	pushl  0xc(%ebp)
  4051d2:	ff 75 08             	pushl  0x8(%ebp)
  4051d5:	ff 15 c4 60 40 00    	call   *0x4060c4
  4051db:	85 c0                	test   %eax,%eax
  4051dd:	0f 85 8f 00 00 00    	jne    0x405272
  4051e3:	33 c0                	xor    %eax,%eax
  4051e5:	8d 65 c8             	lea    -0x38(%ebp),%esp
  4051e8:	8b 4d f0             	mov    -0x10(%ebp),%ecx
  4051eb:	64 89 0d 00 00 00 00 	mov    %ecx,%fs:0x0
  4051f2:	5f                   	pop    %edi
  4051f3:	5e                   	pop    %esi
  4051f4:	5b                   	pop    %ebx
  4051f5:	c9                   	leave  
  4051f6:	c3                   	ret    
  4051f7:	c7 45 fc 01 00 00 00 	movl   $0x1,-0x4(%ebp)
  4051fe:	8d 04 36             	lea    (%esi,%esi,1),%eax
  405201:	83 c0 03             	add    $0x3,%eax
  405204:	24 fc                	and    $0xfc,%al
  405206:	e8 b5 03 00 00       	call   0x4055c0
  40520b:	89 65 e8             	mov    %esp,-0x18(%ebp)
  40520e:	8b dc                	mov    %esp,%ebx
  405210:	89 5d e0             	mov    %ebx,-0x20(%ebp)
  405213:	83 4d fc ff          	orl    $0xffffffff,-0x4(%ebp)
  405217:	eb 12                	jmp    0x40522b
  405219:	6a 01                	push   $0x1
  40521b:	58                   	pop    %eax
  40521c:	c3                   	ret    
  40521d:	8b 65 e8             	mov    -0x18(%ebp),%esp
  405220:	33 ff                	xor    %edi,%edi
  405222:	33 db                	xor    %ebx,%ebx
  405224:	83 4d fc ff          	orl    $0xffffffff,-0x4(%ebp)
  405228:	8b 75 d8             	mov    -0x28(%ebp),%esi
  40522b:	3b df                	cmp    %edi,%ebx
  40522d:	74 b4                	je     0x4051e3
  40522f:	56                   	push   %esi
  405230:	53                   	push   %ebx
  405231:	ff 75 e4             	pushl  -0x1c(%ebp)
  405234:	ff 75 dc             	pushl  -0x24(%ebp)
  405237:	ff 75 0c             	pushl  0xc(%ebp)
  40523a:	ff 75 08             	pushl  0x8(%ebp)
  40523d:	ff 15 c4 60 40 00    	call   *0x4060c4
  405243:	85 c0                	test   %eax,%eax
  405245:	74 9c                	je     0x4051e3
  405247:	39 7d 1c             	cmp    %edi,0x1c(%ebp)
  40524a:	57                   	push   %edi
  40524b:	57                   	push   %edi
  40524c:	75 04                	jne    0x405252
  40524e:	57                   	push   %edi
  40524f:	57                   	push   %edi
  405250:	eb 06                	jmp    0x405258
  405252:	ff 75 1c             	pushl  0x1c(%ebp)
  405255:	ff 75 18             	pushl  0x18(%ebp)
  405258:	56                   	push   %esi
  405259:	53                   	push   %ebx
  40525a:	68 20 02 00 00       	push   $0x220
  40525f:	ff 75 20             	pushl  0x20(%ebp)
  405262:	ff 15 74 60 40 00    	call   *0x406074
  405268:	8b f0                	mov    %eax,%esi
  40526a:	3b f7                	cmp    %edi,%esi
  40526c:	0f 84 71 ff ff ff    	je     0x4051e3
  405272:	8b c6                	mov    %esi,%eax
  405274:	e9 6c ff ff ff       	jmp    0x4051e5
  405279:	8b 54 24 08          	mov    0x8(%esp),%edx
  40527d:	8b 44 24 04          	mov    0x4(%esp),%eax
  405281:	85 d2                	test   %edx,%edx
  405283:	56                   	push   %esi
  405284:	8d 4a ff             	lea    -0x1(%edx),%ecx
  405287:	74 0d                	je     0x405296
  405289:	80 38 00             	cmpb   $0x0,(%eax)
  40528c:	74 08                	je     0x405296
  40528e:	40                   	inc    %eax
  40528f:	8b f1                	mov    %ecx,%esi
  405291:	49                   	dec    %ecx
  405292:	85 f6                	test   %esi,%esi
  405294:	75 f3                	jne    0x405289
  405296:	80 38 00             	cmpb   $0x0,(%eax)
  405299:	5e                   	pop    %esi
  40529a:	75 05                	jne    0x4052a1
  40529c:	2b 44 24 04          	sub    0x4(%esp),%eax
  4052a0:	c3                   	ret    
  4052a1:	8b c2                	mov    %edx,%eax
  4052a3:	c3                   	ret    
  4052a4:	55                   	push   %ebp
  4052a5:	8b ec                	mov    %esp,%ebp
  4052a7:	6a ff                	push   $0xffffffff
  4052a9:	68 c8 64 40 00       	push   $0x4064c8
  4052ae:	68 a4 2c 40 00       	push   $0x402ca4
  4052b3:	64 a1 00 00 00 00    	mov    %fs:0x0,%eax
  4052b9:	50                   	push   %eax
  4052ba:	64 89 25 00 00 00 00 	mov    %esp,%fs:0x0
  4052c1:	83 ec 18             	sub    $0x18,%esp
  4052c4:	53                   	push   %ebx
  4052c5:	56                   	push   %esi
  4052c6:	57                   	push   %edi
  4052c7:	89 65 e8             	mov    %esp,-0x18(%ebp)
  4052ca:	a1 70 0b 41 00       	mov    0x410b70,%eax
  4052cf:	33 db                	xor    %ebx,%ebx
  4052d1:	3b c3                	cmp    %ebx,%eax
  4052d3:	75 3e                	jne    0x405313
  4052d5:	8d 45 e4             	lea    -0x1c(%ebp),%eax
  4052d8:	50                   	push   %eax
  4052d9:	6a 01                	push   $0x1
  4052db:	5e                   	pop    %esi
  4052dc:	56                   	push   %esi
  4052dd:	68 a8 64 40 00       	push   $0x4064a8
  4052e2:	56                   	push   %esi
  4052e3:	ff 15 40 60 40 00    	call   *0x406040
  4052e9:	85 c0                	test   %eax,%eax
  4052eb:	74 04                	je     0x4052f1
  4052ed:	8b c6                	mov    %esi,%eax
  4052ef:	eb 1d                	jmp    0x40530e
  4052f1:	8d 45 e4             	lea    -0x1c(%ebp),%eax
  4052f4:	50                   	push   %eax
  4052f5:	56                   	push   %esi
  4052f6:	68 a4 64 40 00       	push   $0x4064a4
  4052fb:	56                   	push   %esi
  4052fc:	53                   	push   %ebx
  4052fd:	ff 15 c8 60 40 00    	call   *0x4060c8
  405303:	85 c0                	test   %eax,%eax
  405305:	0f 84 ce 00 00 00    	je     0x4053d9
  40530b:	6a 02                	push   $0x2
  40530d:	58                   	pop    %eax
  40530e:	a3 70 0b 41 00       	mov    %eax,0x410b70
  405313:	83 f8 02             	cmp    $0x2,%eax
  405316:	75 24                	jne    0x40533c
  405318:	8b 45 1c             	mov    0x1c(%ebp),%eax
  40531b:	3b c3                	cmp    %ebx,%eax
  40531d:	75 05                	jne    0x405324
  40531f:	a1 54 0b 41 00       	mov    0x410b54,%eax
  405324:	ff 75 14             	pushl  0x14(%ebp)
  405327:	ff 75 10             	pushl  0x10(%ebp)
  40532a:	ff 75 0c             	pushl  0xc(%ebp)
  40532d:	ff 75 08             	pushl  0x8(%ebp)
  405330:	50                   	push   %eax
  405331:	ff 15 c8 60 40 00    	call   *0x4060c8
  405337:	e9 9f 00 00 00       	jmp    0x4053db
  40533c:	83 f8 01             	cmp    $0x1,%eax
  40533f:	0f 85 94 00 00 00    	jne    0x4053d9
  405345:	39 5d 18             	cmp    %ebx,0x18(%ebp)
  405348:	75 08                	jne    0x405352
  40534a:	a1 64 0b 41 00       	mov    0x410b64,%eax
  40534f:	89 45 18             	mov    %eax,0x18(%ebp)
  405352:	53                   	push   %ebx
  405353:	53                   	push   %ebx
  405354:	ff 75 10             	pushl  0x10(%ebp)
  405357:	ff 75 0c             	pushl  0xc(%ebp)
  40535a:	8b 45 20             	mov    0x20(%ebp),%eax
  40535d:	f7 d8                	neg    %eax
  40535f:	1b c0                	sbb    %eax,%eax
  405361:	83 e0 08             	and    $0x8,%eax
  405364:	40                   	inc    %eax
  405365:	50                   	push   %eax
  405366:	ff 75 18             	pushl  0x18(%ebp)
  405369:	ff 15 bc 60 40 00    	call   *0x4060bc
  40536f:	89 45 e0             	mov    %eax,-0x20(%ebp)
  405372:	3b c3                	cmp    %ebx,%eax
  405374:	74 63                	je     0x4053d9
  405376:	89 5d fc             	mov    %ebx,-0x4(%ebp)
  405379:	8d 3c 00             	lea    (%eax,%eax,1),%edi
  40537c:	8b c7                	mov    %edi,%eax
  40537e:	83 c0 03             	add    $0x3,%eax
  405381:	24 fc                	and    $0xfc,%al
  405383:	e8 38 02 00 00       	call   0x4055c0
  405388:	89 65 e8             	mov    %esp,-0x18(%ebp)
  40538b:	8b f4                	mov    %esp,%esi
  40538d:	89 75 dc             	mov    %esi,-0x24(%ebp)
  405390:	57                   	push   %edi
  405391:	53                   	push   %ebx
  405392:	56                   	push   %esi
  405393:	e8 58 00 00 00       	call   0x4053f0
  405398:	83 c4 0c             	add    $0xc,%esp
  40539b:	eb 0b                	jmp    0x4053a8
  40539d:	6a 01                	push   $0x1
  40539f:	58                   	pop    %eax
  4053a0:	c3                   	ret    
  4053a1:	8b 65 e8             	mov    -0x18(%ebp),%esp
  4053a4:	33 db                	xor    %ebx,%ebx
  4053a6:	33 f6                	xor    %esi,%esi
  4053a8:	83 4d fc ff          	orl    $0xffffffff,-0x4(%ebp)
  4053ac:	3b f3                	cmp    %ebx,%esi
  4053ae:	74 29                	je     0x4053d9
  4053b0:	ff 75 e0             	pushl  -0x20(%ebp)
  4053b3:	56                   	push   %esi
  4053b4:	ff 75 10             	pushl  0x10(%ebp)
  4053b7:	ff 75 0c             	pushl  0xc(%ebp)
  4053ba:	6a 01                	push   $0x1
  4053bc:	ff 75 18             	pushl  0x18(%ebp)
  4053bf:	ff 15 bc 60 40 00    	call   *0x4060bc
  4053c5:	3b c3                	cmp    %ebx,%eax
  4053c7:	74 10                	je     0x4053d9
  4053c9:	ff 75 14             	pushl  0x14(%ebp)
  4053cc:	50                   	push   %eax
  4053cd:	56                   	push   %esi
  4053ce:	ff 75 08             	pushl  0x8(%ebp)
  4053d1:	ff 15 40 60 40 00    	call   *0x406040
  4053d7:	eb 02                	jmp    0x4053db
  4053d9:	33 c0                	xor    %eax,%eax
  4053db:	8d 65 cc             	lea    -0x34(%ebp),%esp
  4053de:	8b 4d f0             	mov    -0x10(%ebp),%ecx
  4053e1:	64 89 0d 00 00 00 00 	mov    %ecx,%fs:0x0
  4053e8:	5f                   	pop    %edi
  4053e9:	5e                   	pop    %esi
  4053ea:	5b                   	pop    %ebx
  4053eb:	c9                   	leave  
  4053ec:	c3                   	ret    
  4053ed:	cc                   	int3   
  4053ee:	cc                   	int3   
  4053ef:	cc                   	int3   
  4053f0:	8b 54 24 0c          	mov    0xc(%esp),%edx
  4053f4:	8b 4c 24 04          	mov    0x4(%esp),%ecx
  4053f8:	85 d2                	test   %edx,%edx
  4053fa:	74 47                	je     0x405443
  4053fc:	33 c0                	xor    %eax,%eax
  4053fe:	8a 44 24 08          	mov    0x8(%esp),%al
  405402:	57                   	push   %edi
  405403:	8b f9                	mov    %ecx,%edi
  405405:	83 fa 04             	cmp    $0x4,%edx
  405408:	72 2d                	jb     0x405437
  40540a:	f7 d9                	neg    %ecx
  40540c:	83 e1 03             	and    $0x3,%ecx
  40540f:	74 08                	je     0x405419
  405411:	2b d1                	sub    %ecx,%edx
  405413:	88 07                	mov    %al,(%edi)
  405415:	47                   	inc    %edi
  405416:	49                   	dec    %ecx
  405417:	75 fa                	jne    0x405413
  405419:	8b c8                	mov    %eax,%ecx
  40541b:	c1 e0 08             	shl    $0x8,%eax
  40541e:	03 c1                	add    %ecx,%eax
  405420:	8b c8                	mov    %eax,%ecx
  405422:	c1 e0 10             	shl    $0x10,%eax
  405425:	03 c1                	add    %ecx,%eax
  405427:	8b ca                	mov    %edx,%ecx
  405429:	83 e2 03             	and    $0x3,%edx
  40542c:	c1 e9 02             	shr    $0x2,%ecx
  40542f:	74 06                	je     0x405437
  405431:	f3 ab                	rep stos %eax,%es:(%edi)
  405433:	85 d2                	test   %edx,%edx
  405435:	74 06                	je     0x40543d
  405437:	88 07                	mov    %al,(%edi)
  405439:	47                   	inc    %edi
  40543a:	4a                   	dec    %edx
  40543b:	75 fa                	jne    0x405437
  40543d:	8b 44 24 08          	mov    0x8(%esp),%eax
  405441:	5f                   	pop    %edi
  405442:	c3                   	ret    
  405443:	8b 44 24 04          	mov    0x4(%esp),%eax
  405447:	c3                   	ret    
  405448:	56                   	push   %esi
  405449:	8b 74 24 08          	mov    0x8(%esp),%esi
  40544d:	57                   	push   %edi
  40544e:	83 cf ff             	or     $0xffffffff,%edi
  405451:	8b 46 0c             	mov    0xc(%esi),%eax
  405454:	a8 40                	test   $0x40,%al
  405456:	74 05                	je     0x40545d
  405458:	83 c8 ff             	or     $0xffffffff,%eax
  40545b:	eb 3a                	jmp    0x405497
  40545d:	a8 83                	test   $0x83,%al
  40545f:	74 34                	je     0x405495
  405461:	56                   	push   %esi
  405462:	e8 bb db ff ff       	call   0x403022
  405467:	56                   	push   %esi
  405468:	8b f8                	mov    %eax,%edi
  40546a:	e8 33 02 00 00       	call   0x4056a2
  40546f:	ff 76 10             	pushl  0x10(%esi)
  405472:	e8 78 01 00 00       	call   0x4055ef
  405477:	83 c4 0c             	add    $0xc,%esp
  40547a:	85 c0                	test   %eax,%eax
  40547c:	7d 05                	jge    0x405483
  40547e:	83 cf ff             	or     $0xffffffff,%edi
  405481:	eb 12                	jmp    0x405495
  405483:	8b 46 1c             	mov    0x1c(%esi),%eax
  405486:	85 c0                	test   %eax,%eax
  405488:	74 0b                	je     0x405495
  40548a:	50                   	push   %eax
  40548b:	e8 f5 ed ff ff       	call   0x404285
  405490:	83 66 1c 00          	andl   $0x0,0x1c(%esi)
  405494:	59                   	pop    %ecx
  405495:	8b c7                	mov    %edi,%eax
  405497:	83 66 0c 00          	andl   $0x0,0xc(%esi)
  40549b:	5f                   	pop    %edi
  40549c:	5e                   	pop    %esi
  40549d:	c3                   	ret    
  40549e:	8b 4c 24 04          	mov    0x4(%esp),%ecx
  4054a2:	56                   	push   %esi
  4054a3:	3b 0d 00 1f 41 00    	cmp    0x411f00,%ecx
  4054a9:	57                   	push   %edi
  4054aa:	73 55                	jae    0x405501
  4054ac:	8b c1                	mov    %ecx,%eax
  4054ae:	8b f1                	mov    %ecx,%esi
  4054b0:	c1 f8 05             	sar    $0x5,%eax
  4054b3:	83 e6 1f             	and    $0x1f,%esi
  4054b6:	8d 3c 85 00 1e 41 00 	lea    0x411e00(,%eax,4),%edi
  4054bd:	c1 e6 03             	shl    $0x3,%esi
  4054c0:	8b 07                	mov    (%edi),%eax
  4054c2:	03 c6                	add    %esi,%eax
  4054c4:	f6 40 04 01          	testb  $0x1,0x4(%eax)
  4054c8:	74 37                	je     0x405501
  4054ca:	83 38 ff             	cmpl   $0xffffffff,(%eax)
  4054cd:	74 32                	je     0x405501
  4054cf:	83 3d d4 fd 40 00 01 	cmpl   $0x1,0x40fdd4
  4054d6:	75 1f                	jne    0x4054f7
  4054d8:	33 c0                	xor    %eax,%eax
  4054da:	2b c8                	sub    %eax,%ecx
  4054dc:	74 10                	je     0x4054ee
  4054de:	49                   	dec    %ecx
  4054df:	74 08                	je     0x4054e9
  4054e1:	49                   	dec    %ecx
  4054e2:	75 13                	jne    0x4054f7
  4054e4:	50                   	push   %eax
  4054e5:	6a f4                	push   $0xfffffff4
  4054e7:	eb 08                	jmp    0x4054f1
  4054e9:	50                   	push   %eax
  4054ea:	6a f5                	push   $0xfffffff5
  4054ec:	eb 03                	jmp    0x4054f1
  4054ee:	50                   	push   %eax
  4054ef:	6a f6                	push   $0xfffffff6
  4054f1:	ff 15 3c 60 40 00    	call   *0x40603c
  4054f7:	8b 07                	mov    (%edi),%eax
  4054f9:	83 0c 30 ff          	orl    $0xffffffff,(%eax,%esi,1)
  4054fd:	33 c0                	xor    %eax,%eax
  4054ff:	eb 14                	jmp    0x405515
  405501:	83 25 d8 09 41 00 00 	andl   $0x0,0x4109d8
  405508:	c7 05 d4 09 41 00 09 	movl   $0x9,0x4109d4
  40550f:	00 00 00 
  405512:	83 c8 ff             	or     $0xffffffff,%eax
  405515:	5f                   	pop    %edi
  405516:	5e                   	pop    %esi
  405517:	c3                   	ret    
  405518:	8b 44 24 04          	mov    0x4(%esp),%eax
  40551c:	3b 05 00 1f 41 00    	cmp    0x411f00,%eax
  405522:	73 1c                	jae    0x405540
  405524:	8b c8                	mov    %eax,%ecx
  405526:	83 e0 1f             	and    $0x1f,%eax
  405529:	c1 f9 05             	sar    $0x5,%ecx
  40552c:	8b 0c 8d 00 1e 41 00 	mov    0x411e00(,%ecx,4),%ecx
  405533:	f6 44 c1 04 01       	testb  $0x1,0x4(%ecx,%eax,8)
  405538:	8d 04 c1             	lea    (%ecx,%eax,8),%eax
  40553b:	74 03                	je     0x405540
  40553d:	8b 00                	mov    (%eax),%eax
  40553f:	c3                   	ret    
  405540:	83 25 d8 09 41 00 00 	andl   $0x0,0x4109d8
  405547:	c7 05 d4 09 41 00 09 	movl   $0x9,0x4109d4
  40554e:	00 00 00 
  405551:	83 c8 ff             	or     $0xffffffff,%eax
  405554:	c3                   	ret    
  405555:	8b 4c 24 04          	mov    0x4(%esp),%ecx
  405559:	33 d2                	xor    %edx,%edx
  40555b:	89 0d d8 09 41 00    	mov    %ecx,0x4109d8
  405561:	b8 f0 04 41 00       	mov    $0x4104f0,%eax
  405566:	3b 08                	cmp    (%eax),%ecx
  405568:	74 20                	je     0x40558a
  40556a:	83 c0 08             	add    $0x8,%eax
  40556d:	42                   	inc    %edx
  40556e:	3d 58 06 41 00       	cmp    $0x410658,%eax
  405573:	7c f1                	jl     0x405566
  405575:	83 f9 13             	cmp    $0x13,%ecx
  405578:	72 1d                	jb     0x405597
  40557a:	83 f9 24             	cmp    $0x24,%ecx
  40557d:	77 18                	ja     0x405597
  40557f:	c7 05 d4 09 41 00 0d 	movl   $0xd,0x4109d4
  405586:	00 00 00 
  405589:	c3                   	ret    
  40558a:	8b 04 d5 f4 04 41 00 	mov    0x4104f4(,%edx,8),%eax
  405591:	a3 d4 09 41 00       	mov    %eax,0x4109d4
  405596:	c3                   	ret    
  405597:	81 f9 bc 00 00 00    	cmp    $0xbc,%ecx
  40559d:	72 12                	jb     0x4055b1
  40559f:	81 f9 ca 00 00 00    	cmp    $0xca,%ecx
  4055a5:	c7 05 d4 09 41 00 08 	movl   $0x8,0x4109d4
  4055ac:	00 00 00 
  4055af:	76 0a                	jbe    0x4055bb
  4055b1:	c7 05 d4 09 41 00 16 	movl   $0x16,0x4109d4
  4055b8:	00 00 00 
  4055bb:	c3                   	ret    
  4055bc:	cc                   	int3   
  4055bd:	cc                   	int3   
  4055be:	cc                   	int3   
  4055bf:	cc                   	int3   
  4055c0:	51                   	push   %ecx
  4055c1:	3d 00 10 00 00       	cmp    $0x1000,%eax
  4055c6:	8d 4c 24 08          	lea    0x8(%esp),%ecx
  4055ca:	72 14                	jb     0x4055e0
  4055cc:	81 e9 00 10 00 00    	sub    $0x1000,%ecx
  4055d2:	2d 00 10 00 00       	sub    $0x1000,%eax
  4055d7:	85 01                	test   %eax,(%ecx)
  4055d9:	3d 00 10 00 00       	cmp    $0x1000,%eax
  4055de:	73 ec                	jae    0x4055cc
  4055e0:	2b c8                	sub    %eax,%ecx
  4055e2:	8b c4                	mov    %esp,%eax
  4055e4:	85 01                	test   %eax,(%ecx)
  4055e6:	8b e1                	mov    %ecx,%esp
  4055e8:	8b 08                	mov    (%eax),%ecx
  4055ea:	8b 40 04             	mov    0x4(%eax),%eax
  4055ed:	50                   	push   %eax
  4055ee:	c3                   	ret    
  4055ef:	53                   	push   %ebx
  4055f0:	55                   	push   %ebp
  4055f1:	56                   	push   %esi
  4055f2:	57                   	push   %edi
  4055f3:	8b 7c 24 14          	mov    0x14(%esp),%edi
  4055f7:	3b 3d 00 1f 41 00    	cmp    0x411f00,%edi
  4055fd:	0f 83 86 00 00 00    	jae    0x405689
  405603:	8b c7                	mov    %edi,%eax
  405605:	8b f7                	mov    %edi,%esi
  405607:	c1 f8 05             	sar    $0x5,%eax
  40560a:	83 e6 1f             	and    $0x1f,%esi
  40560d:	8d 1c 85 00 1e 41 00 	lea    0x411e00(,%eax,4),%ebx
  405614:	c1 e6 03             	shl    $0x3,%esi
  405617:	8b 03                	mov    (%ebx),%eax
  405619:	f6 44 30 04 01       	testb  $0x1,0x4(%eax,%esi,1)
  40561e:	74 69                	je     0x405689
  405620:	57                   	push   %edi
  405621:	e8 f2 fe ff ff       	call   0x405518
  405626:	83 f8 ff             	cmp    $0xffffffff,%eax
  405629:	59                   	pop    %ecx
  40562a:	74 3c                	je     0x405668
  40562c:	83 ff 01             	cmp    $0x1,%edi
  40562f:	74 05                	je     0x405636
  405631:	83 ff 02             	cmp    $0x2,%edi
  405634:	75 16                	jne    0x40564c
  405636:	6a 02                	push   $0x2
  405638:	e8 db fe ff ff       	call   0x405518
  40563d:	6a 01                	push   $0x1
  40563f:	8b e8                	mov    %eax,%ebp
  405641:	e8 d2 fe ff ff       	call   0x405518
  405646:	59                   	pop    %ecx
  405647:	3b c5                	cmp    %ebp,%eax
  405649:	59                   	pop    %ecx
  40564a:	74 1c                	je     0x405668
  40564c:	57                   	push   %edi
  40564d:	e8 c6 fe ff ff       	call   0x405518
  405652:	59                   	pop    %ecx
  405653:	50                   	push   %eax
  405654:	ff 15 38 60 40 00    	call   *0x406038
  40565a:	85 c0                	test   %eax,%eax
  40565c:	75 0a                	jne    0x405668
  40565e:	ff 15 08 60 40 00    	call   *0x406008
  405664:	8b e8                	mov    %eax,%ebp
  405666:	eb 02                	jmp    0x40566a
  405668:	33 ed                	xor    %ebp,%ebp
  40566a:	57                   	push   %edi
  40566b:	e8 2e fe ff ff       	call   0x40549e
  405670:	8b 03                	mov    (%ebx),%eax
  405672:	59                   	pop    %ecx
  405673:	80 64 30 04 00       	andb   $0x0,0x4(%eax,%esi,1)
  405678:	85 ed                	test   %ebp,%ebp
  40567a:	74 09                	je     0x405685
  40567c:	55                   	push   %ebp
  40567d:	e8 d3 fe ff ff       	call   0x405555
  405682:	59                   	pop    %ecx
  405683:	eb 15                	jmp    0x40569a
  405685:	33 c0                	xor    %eax,%eax
  405687:	eb 14                	jmp    0x40569d
  405689:	83 25 d8 09 41 00 00 	andl   $0x0,0x4109d8
  405690:	c7 05 d4 09 41 00 09 	movl   $0x9,0x4109d4
  405697:	00 00 00 
  40569a:	83 c8 ff             	or     $0xffffffff,%eax
  40569d:	5f                   	pop    %edi
  40569e:	5e                   	pop    %esi
  40569f:	5d                   	pop    %ebp
  4056a0:	5b                   	pop    %ebx
  4056a1:	c3                   	ret    
  4056a2:	56                   	push   %esi
  4056a3:	8b 74 24 08          	mov    0x8(%esp),%esi
  4056a7:	8b 46 0c             	mov    0xc(%esi),%eax
  4056aa:	a8 83                	test   $0x83,%al
  4056ac:	74 1d                	je     0x4056cb
  4056ae:	a8 08                	test   $0x8,%al
  4056b0:	74 19                	je     0x4056cb
  4056b2:	ff 76 08             	pushl  0x8(%esi)
  4056b5:	e8 cb eb ff ff       	call   0x404285
  4056ba:	66 81 66 0c f7 fb    	andw   $0xfbf7,0xc(%esi)
  4056c0:	33 c0                	xor    %eax,%eax
  4056c2:	59                   	pop    %ecx
  4056c3:	89 06                	mov    %eax,(%esi)
  4056c5:	89 46 08             	mov    %eax,0x8(%esi)
  4056c8:	89 46 04             	mov    %eax,0x4(%esi)
  4056cb:	5e                   	pop    %esi
  4056cc:	c3                   	ret    
  4056cd:	cc                   	int3   
  4056ce:	cc                   	int3   
  4056cf:	cc                   	int3   
  4056d0:	ff 25 9c 60 40 00    	jmp    *0x40609c
  4056d6:	55                   	push   %ebp
  4056d7:	8b ec                	mov    %esp,%ebp
  4056d9:	83 ec 1c             	sub    $0x1c,%esp
  4056dc:	a1 a0 09 41 00       	mov    0x4109a0,%eax
  4056e1:	83 c9 ff             	or     $0xffffffff,%ecx
  4056e4:	3b c1                	cmp    %ecx,%eax
  4056e6:	74 0b                	je     0x4056f3
  4056e8:	0f b6 c0             	movzbl %al,%eax
  4056eb:	89 0d a0 09 41 00    	mov    %ecx,0x4109a0
  4056f1:	c9                   	leave  
  4056f2:	c3                   	ret    
  4056f3:	a1 a4 09 41 00       	mov    0x4109a4,%eax
  4056f8:	3b c1                	cmp    %ecx,%eax
  4056fa:	75 04                	jne    0x405700
  4056fc:	8b c1                	mov    %ecx,%eax
  4056fe:	c9                   	leave  
  4056ff:	c3                   	ret    
  405700:	83 f8 fe             	cmp    $0xfffffffe,%eax
  405703:	75 05                	jne    0x40570a
  405705:	e8 5d 01 00 00       	call   0x405867
  40570a:	53                   	push   %ebx
  40570b:	56                   	push   %esi
  40570c:	8d 45 f8             	lea    -0x8(%ebp),%eax
  40570f:	57                   	push   %edi
  405710:	50                   	push   %eax
  405711:	ff 35 a4 09 41 00    	pushl  0x4109a4
  405717:	ff 15 2c 60 40 00    	call   *0x40602c
  40571d:	8b 1d 30 60 40 00    	mov    0x406030,%ebx
  405723:	6a 00                	push   $0x0
  405725:	ff 35 a4 09 41 00    	pushl  0x4109a4
  40572b:	ff d3                	call   *%ebx
  40572d:	8b 35 34 60 40 00    	mov    0x406034,%esi
  405733:	8d 45 fc             	lea    -0x4(%ebp),%eax
  405736:	50                   	push   %eax
  405737:	8d 45 e4             	lea    -0x1c(%ebp),%eax
  40573a:	6a 01                	push   $0x1
  40573c:	50                   	push   %eax
  40573d:	ff 35 a4 09 41 00    	pushl  0x4109a4
  405743:	ff d6                	call   *%esi
  405745:	85 c0                	test   %eax,%eax
  405747:	74 49                	je     0x405792
  405749:	83 7d fc 00          	cmpl   $0x0,-0x4(%ebp)
  40574d:	74 43                	je     0x405792
  40574f:	66 83 7d e4 01       	cmpw   $0x1,-0x1c(%ebp)
  405754:	75 1c                	jne    0x405772
  405756:	83 7d e8 00          	cmpl   $0x0,-0x18(%ebp)
  40575a:	74 16                	je     0x405772
  40575c:	0f b6 7d f2          	movzbl -0xe(%ebp),%edi
  405760:	85 ff                	test   %edi,%edi
  405762:	75 31                	jne    0x405795
  405764:	8d 45 e8             	lea    -0x18(%ebp),%eax
  405767:	50                   	push   %eax
  405768:	e8 3a 00 00 00       	call   0x4057a7
  40576d:	85 c0                	test   %eax,%eax
  40576f:	59                   	pop    %ecx
  405770:	75 12                	jne    0x405784
  405772:	8d 45 fc             	lea    -0x4(%ebp),%eax
  405775:	50                   	push   %eax
  405776:	8d 45 e4             	lea    -0x1c(%ebp),%eax
  405779:	6a 01                	push   $0x1
  40577b:	50                   	push   %eax
  40577c:	ff 35 a4 09 41 00    	pushl  0x4109a4
  405782:	eb bf                	jmp    0x405743
  405784:	0f b6 38             	movzbl (%eax),%edi
  405787:	0f b6 40 01          	movzbl 0x1(%eax),%eax
  40578b:	a3 a0 09 41 00       	mov    %eax,0x4109a0
  405790:	eb 03                	jmp    0x405795
  405792:	83 cf ff             	or     $0xffffffff,%edi
  405795:	ff 75 f8             	pushl  -0x8(%ebp)
  405798:	ff 35 a4 09 41 00    	pushl  0x4109a4
  40579e:	ff d3                	call   *%ebx
  4057a0:	8b c7                	mov    %edi,%eax
  4057a2:	5f                   	pop    %edi
  4057a3:	5e                   	pop    %esi
  4057a4:	5b                   	pop    %ebx
  4057a5:	c9                   	leave  
  4057a6:	c3                   	ret    
  4057a7:	8b 54 24 04          	mov    0x4(%esp),%edx
  4057ab:	53                   	push   %ebx
  4057ac:	56                   	push   %esi
  4057ad:	8b 5a 0c             	mov    0xc(%edx),%ebx
  4057b0:	f6 c7 01             	test   $0x1,%bh
  4057b3:	74 5f                	je     0x405814
  4057b5:	66 8b 52 08          	mov    0x8(%edx),%dx
  4057b9:	33 c0                	xor    %eax,%eax
  4057bb:	33 c9                	xor    %ecx,%ecx
  4057bd:	be 60 06 41 00       	mov    $0x410660,%esi
  4057c2:	66 39 16             	cmp    %dx,(%esi)
  4057c5:	74 11                	je     0x4057d8
  4057c7:	83 c6 0a             	add    $0xa,%esi
  4057ca:	41                   	inc    %ecx
  4057cb:	81 fe d8 06 41 00    	cmp    $0x4106d8,%esi
  4057d1:	7c ef                	jl     0x4057c2
  4057d3:	e9 8c 00 00 00       	jmp    0x405864
  4057d8:	f6 c3 03             	test   $0x3,%bl
  4057db:	74 0c                	je     0x4057e9
  4057dd:	8d 04 89             	lea    (%ecx,%ecx,4),%eax
  4057e0:	8d 04 45 68 06 41 00 	lea    0x410668(,%eax,2),%eax
  4057e7:	eb 7b                	jmp    0x405864
  4057e9:	f6 c3 0c             	test   $0xc,%bl
  4057ec:	74 0c                	je     0x4057fa
  4057ee:	8d 04 89             	lea    (%ecx,%ecx,4),%eax
  4057f1:	8d 04 45 66 06 41 00 	lea    0x410666(,%eax,2),%eax
  4057f8:	eb 6a                	jmp    0x405864
  4057fa:	f6 c3 10             	test   $0x10,%bl
  4057fd:	8d 04 89             	lea    (%ecx,%ecx,4),%eax
  405800:	74 09                	je     0x40580b
  405802:	8d 04 45 64 06 41 00 	lea    0x410664(,%eax,2),%eax
  405809:	eb 59                	jmp    0x405864
  40580b:	8d 04 45 62 06 41 00 	lea    0x410662(,%eax,2),%eax
  405812:	eb 50                	jmp    0x405864
  405814:	f6 c3 03             	test   $0x3,%bl
  405817:	74 0d                	je     0x405826
  405819:	0f b7 42 08          	movzwl 0x8(%edx),%eax
  40581d:	8d 04 c5 de 06 41 00 	lea    0x4106de(,%eax,8),%eax
  405824:	eb 2b                	jmp    0x405851
  405826:	f6 c3 0c             	test   $0xc,%bl
  405829:	74 0d                	je     0x405838
  40582b:	0f b7 42 08          	movzwl 0x8(%edx),%eax
  40582f:	8d 04 c5 dc 06 41 00 	lea    0x4106dc(,%eax,8),%eax
  405836:	eb 19                	jmp    0x405851
  405838:	0f b7 42 08          	movzwl 0x8(%edx),%eax
  40583c:	f6 c3 10             	test   $0x10,%bl
  40583f:	74 09                	je     0x40584a
  405841:	8d 04 c5 da 06 41 00 	lea    0x4106da(,%eax,8),%eax
  405848:	eb 07                	jmp    0x405851
  40584a:	8d 04 c5 d8 06 41 00 	lea    0x4106d8(,%eax,8),%eax
  405851:	8a 08                	mov    (%eax),%cl
  405853:	84 c9                	test   %cl,%cl
  405855:	74 05                	je     0x40585c
  405857:	80 f9 e0             	cmp    $0xe0,%cl
  40585a:	75 06                	jne    0x405862
  40585c:	80 78 01 00          	cmpb   $0x0,0x1(%eax)
  405860:	75 02                	jne    0x405864
  405862:	33 c0                	xor    %eax,%eax
  405864:	5e                   	pop    %esi
  405865:	5b                   	pop    %ebx
  405866:	c3                   	ret    
  405867:	33 c0                	xor    %eax,%eax
  405869:	50                   	push   %eax
  40586a:	50                   	push   %eax
  40586b:	6a 03                	push   $0x3
  40586d:	50                   	push   %eax
  40586e:	6a 03                	push   $0x3
  405870:	68 00 00 00 c0       	push   $0xc0000000
  405875:	68 d4 64 40 00       	push   $0x4064d4
  40587a:	ff 15 28 60 40 00    	call   *0x406028
  405880:	a3 a4 09 41 00       	mov    %eax,0x4109a4
  405885:	c3                   	ret    
  405886:	a1 a8 09 41 00       	mov    0x4109a8,%eax
  40588b:	56                   	push   %esi
  40588c:	8b 35 38 60 40 00    	mov    0x406038,%esi
  405892:	83 f8 ff             	cmp    $0xffffffff,%eax
  405895:	74 08                	je     0x40589f
  405897:	83 f8 fe             	cmp    $0xfffffffe,%eax
  40589a:	74 03                	je     0x40589f
  40589c:	50                   	push   %eax
  40589d:	ff d6                	call   *%esi
  40589f:	a1 a4 09 41 00       	mov    0x4109a4,%eax
  4058a4:	83 f8 ff             	cmp    $0xffffffff,%eax
  4058a7:	74 08                	je     0x4058b1
  4058a9:	83 f8 fe             	cmp    $0xfffffffe,%eax
  4058ac:	74 03                	je     0x4058b1
  4058ae:	50                   	push   %eax
  4058af:	ff d6                	call   *%esi
  4058b1:	5e                   	pop    %esi
  4058b2:	c3                   	ret    
