
FancyBear.GermanParliament:     file format pei-x86-64


Disassembly of section .text:

0000000000401000 <.text>:
  401000:	c3                   	retq   
  401001:	66 66 66 66 66 66 2e 	data16 data16 data16 data16 data16 nopw %cs:0x0(%rax,%rax,1)
  401008:	0f 1f 84 00 00 00 00 
  40100f:	00 
  401010:	48 83 ec 38          	sub    $0x38,%rsp
  401014:	8b 05 66 80 00 00    	mov    0x8066(%rip),%eax        # 0x409080
  40101a:	44 8b 0d 6f 80 00 00 	mov    0x806f(%rip),%r9d        # 0x409090
  401021:	4c 8d 05 e8 7f 00 00 	lea    0x7fe8(%rip),%r8        # 0x409010
  401028:	48 8d 15 d9 7f 00 00 	lea    0x7fd9(%rip),%rdx        # 0x409008
  40102f:	48 8d 0d ce 7f 00 00 	lea    0x7fce(%rip),%rcx        # 0x409004
  401036:	89 05 e4 7f 00 00    	mov    %eax,0x7fe4(%rip)        # 0x409020
  40103c:	48 8d 05 dd 7f 00 00 	lea    0x7fdd(%rip),%rax        # 0x409020
  401043:	48 89 44 24 20       	mov    %rax,0x20(%rsp)
  401048:	e8 3b 2d 00 00       	callq  0x403d88
  40104d:	89 05 d1 7f 00 00    	mov    %eax,0x7fd1(%rip)        # 0x409024
  401053:	48 83 c4 38          	add    $0x38,%rsp
  401057:	c3                   	retq   
  401058:	0f 1f 84 00 00 00 00 	nopl   0x0(%rax,%rax,1)
  40105f:	00 
  401060:	48 83 ec 28          	sub    $0x28,%rsp
  401064:	31 c0                	xor    %eax,%eax
  401066:	66 81 3d 91 ef ff ff 	cmpw   $0x5a4d,-0x106f(%rip)        # 0x400000
  40106d:	4d 5a 
  40106f:	c7 05 2f 80 00 00 01 	movl   $0x1,0x802f(%rip)        # 0x4090a8
  401076:	00 00 00 
  401079:	c7 05 21 80 00 00 01 	movl   $0x1,0x8021(%rip)        # 0x4090a4
  401080:	00 00 00 
  401083:	c7 05 13 80 00 00 01 	movl   $0x1,0x8013(%rip)        # 0x4090a0
  40108a:	00 00 00 
  40108d:	c7 05 19 80 00 00 01 	movl   $0x1,0x8019(%rip)        # 0x4090b0
  401094:	00 00 00 
  401097:	74 67                	je     0x401100
  401099:	89 05 7d 7f 00 00    	mov    %eax,0x7f7d(%rip)        # 0x40901c
  40109f:	8b 05 1b 80 00 00    	mov    0x801b(%rip),%eax        # 0x4090c0
  4010a5:	85 c0                	test   %eax,%eax
  4010a7:	74 48                	je     0x4010f1
  4010a9:	b9 02 00 00 00       	mov    $0x2,%ecx
  4010ae:	e8 dd 2c 00 00       	callq  0x403d90
  4010b3:	48 c7 c1 ff ff ff ff 	mov    $0xffffffffffffffff,%rcx
  4010ba:	e8 01 17 00 00       	callq  0x4027c0
  4010bf:	8b 15 0b 80 00 00    	mov    0x800b(%rip),%edx        # 0x4090d0
  4010c5:	48 89 05 24 89 00 00 	mov    %rax,0x8924(%rip)        # 0x4099f0
  4010cc:	48 89 05 15 89 00 00 	mov    %rax,0x8915(%rip)        # 0x4099e8
  4010d3:	48 8b 05 fe 94 00 00 	mov    0x94fe(%rip),%rax        # 0x40a5d8
  4010da:	89 10                	mov    %edx,(%rax)
  4010dc:	e8 af 1d 00 00       	callq  0x402e90
  4010e1:	83 3d b8 3f 00 00 01 	cmpl   $0x1,0x3fb8(%rip)        # 0x4050a0
  4010e8:	74 66                	je     0x401150
  4010ea:	31 c0                	xor    %eax,%eax
  4010ec:	48 83 c4 28          	add    $0x28,%rsp
  4010f0:	c3                   	retq   
  4010f1:	b9 01 00 00 00       	mov    $0x1,%ecx
  4010f6:	e8 95 2c 00 00       	callq  0x403d90
  4010fb:	eb b6                	jmp    0x4010b3
  4010fd:	0f 1f 00             	nopl   (%rax)
  401100:	48 63 0d 35 ef ff ff 	movslq -0x10cb(%rip),%rcx        # 0x40003c
  401107:	48 8d 15 f2 ee ff ff 	lea    -0x110e(%rip),%rdx        # 0x400000
  40110e:	48 01 ca             	add    %rcx,%rdx
  401111:	81 3a 50 45 00 00    	cmpl   $0x4550,(%rdx)
  401117:	75 80                	jne    0x401099
  401119:	0f b7 4a 18          	movzwl 0x18(%rdx),%ecx
  40111d:	66 81 f9 0b 01       	cmp    $0x10b,%cx
  401122:	74 3f                	je     0x401163
  401124:	66 81 f9 0b 02       	cmp    $0x20b,%cx
  401129:	0f 85 6a ff ff ff    	jne    0x401099
  40112f:	83 ba 84 00 00 00 0e 	cmpl   $0xe,0x84(%rdx)
  401136:	0f 86 5d ff ff ff    	jbe    0x401099
  40113c:	8b 92 f8 00 00 00    	mov    0xf8(%rdx),%edx
  401142:	31 c0                	xor    %eax,%eax
  401144:	85 d2                	test   %edx,%edx
  401146:	0f 95 c0             	setne  %al
  401149:	e9 4b ff ff ff       	jmpq   0x401099
  40114e:	66 90                	xchg   %ax,%ax
  401150:	48 8d 0d 59 1c 00 00 	lea    0x1c59(%rip),%rcx        # 0x402db0
  401157:	e8 44 1c 00 00       	callq  0x402da0
  40115c:	31 c0                	xor    %eax,%eax
  40115e:	48 83 c4 28          	add    $0x28,%rsp
  401162:	c3                   	retq   
  401163:	83 7a 74 0e          	cmpl   $0xe,0x74(%rdx)
  401167:	0f 86 2c ff ff ff    	jbe    0x401099
  40116d:	8b 8a e8 00 00 00    	mov    0xe8(%rdx),%ecx
  401173:	31 c0                	xor    %eax,%eax
  401175:	85 c9                	test   %ecx,%ecx
  401177:	0f 95 c0             	setne  %al
  40117a:	e9 1a ff ff ff       	jmpq   0x401099
  40117f:	90                   	nop
  401180:	41 54                	push   %r12
  401182:	55                   	push   %rbp
  401183:	57                   	push   %rdi
  401184:	56                   	push   %rsi
  401185:	53                   	push   %rbx
  401186:	48 81 ec 90 00 00 00 	sub    $0x90,%rsp
  40118d:	44 8b 1d 2c 7f 00 00 	mov    0x7f2c(%rip),%r11d        # 0x4090c0
  401194:	31 c0                	xor    %eax,%eax
  401196:	b9 0d 00 00 00       	mov    $0xd,%ecx
  40119b:	48 8d 54 24 20       	lea    0x20(%rsp),%rdx
  4011a0:	45 85 db             	test   %r11d,%r11d
  4011a3:	48 89 d7             	mov    %rdx,%rdi
  4011a6:	f3 48 ab             	rep stos %rax,%es:(%rdi)
  4011a9:	0f 85 c3 02 00 00    	jne    0x401472
  4011af:	65 48 8b 04 25 30 00 	mov    %gs:0x30,%rax
  4011b6:	00 00 
  4011b8:	48 8b 58 08          	mov    0x8(%rax),%rbx
  4011bc:	31 c0                	xor    %eax,%eax
  4011be:	f0 48 0f b1 1d 39 88 	lock cmpxchg %rbx,0x8839(%rip)        # 0x409a00
  4011c5:	00 00 
  4011c7:	31 f6                	xor    %esi,%esi
  4011c9:	48 85 c0             	test   %rax,%rax
  4011cc:	74 36                	je     0x401204
  4011ce:	48 39 c3             	cmp    %rax,%rbx
  4011d1:	40 b6 01             	mov    $0x1,%sil
  4011d4:	74 2e                	je     0x401204
  4011d6:	48 8b 3d 4b 93 00 00 	mov    0x934b(%rip),%rdi        # 0x40a528
  4011dd:	31 f6                	xor    %esi,%esi
  4011df:	eb 09                	jmp    0x4011ea
  4011e1:	48 39 c3             	cmp    %rax,%rbx
  4011e4:	0f 84 36 02 00 00    	je     0x401420
  4011ea:	b9 e8 03 00 00       	mov    $0x3e8,%ecx
  4011ef:	ff d7                	callq  *%rdi
  4011f1:	48 89 f0             	mov    %rsi,%rax
  4011f4:	f0 48 0f b1 1d 03 88 	lock cmpxchg %rbx,0x8803(%rip)        # 0x409a00
  4011fb:	00 00 
  4011fd:	48 85 c0             	test   %rax,%rax
  401200:	75 df                	jne    0x4011e1
  401202:	31 f6                	xor    %esi,%esi
  401204:	8b 05 ee 87 00 00    	mov    0x87ee(%rip),%eax        # 0x4099f8
  40120a:	83 f8 01             	cmp    $0x1,%eax
  40120d:	0f 84 21 02 00 00    	je     0x401434
  401213:	8b 05 df 87 00 00    	mov    0x87df(%rip),%eax        # 0x4099f8
  401219:	85 c0                	test   %eax,%eax
  40121b:	0f 84 5f 02 00 00    	je     0x401480
  401221:	c7 05 d5 7d 00 00 01 	movl   $0x1,0x7dd5(%rip)        # 0x409000
  401228:	00 00 00 
  40122b:	8b 05 c7 87 00 00    	mov    0x87c7(%rip),%eax        # 0x4099f8
  401231:	83 f8 01             	cmp    $0x1,%eax
  401234:	0f 84 16 02 00 00    	je     0x401450
  40123a:	85 f6                	test   %esi,%esi
  40123c:	75 0a                	jne    0x401248
  40123e:	31 c0                	xor    %eax,%eax
  401240:	f0 48 87 05 b8 87 00 	lock xchg %rax,0x87b8(%rip)        # 0x409a00
  401247:	00 
  401248:	48 8b 05 f1 3d 00 00 	mov    0x3df1(%rip),%rax        # 0x405040
  40124f:	48 85 c0             	test   %rax,%rax
  401252:	74 0c                	je     0x401260
  401254:	45 31 c0             	xor    %r8d,%r8d
  401257:	ba 02 00 00 00       	mov    $0x2,%edx
  40125c:	31 c9                	xor    %ecx,%ecx
  40125e:	ff d0                	callq  *%rax
  401260:	e8 fb 1e 00 00       	callq  0x403160
  401265:	48 8d 0d e4 18 00 00 	lea    0x18e4(%rip),%rcx        # 0x402b50
  40126c:	ff 15 ae 92 00 00    	callq  *0x92ae(%rip)        # 0x40a520
  401272:	48 89 05 67 7e 00 00 	mov    %rax,0x7e67(%rip)        # 0x4090e0
  401279:	e8 c2 17 00 00       	callq  0x402a40
  40127e:	e8 0d 25 00 00       	callq  0x403790
  401283:	48 8d 15 76 4d 00 00 	lea    0x4d76(%rip),%rdx        # 0x406000
  40128a:	48 89 c1             	mov    %rax,%rcx
  40128d:	ff 15 0d 92 00 00    	callq  *0x920d(%rip)        # 0x40a4a0
  401293:	48 85 c0             	test   %rax,%rax
  401296:	74 09                	je     0x4012a1
  401298:	48 8d 0d 61 fd ff ff 	lea    -0x29f(%rip),%rcx        # 0x401000
  40129f:	ff d0                	callq  *%rax
  4012a1:	e8 ba 25 00 00       	callq  0x403860
  4012a6:	44 8b 15 13 7e 00 00 	mov    0x7e13(%rip),%r10d        # 0x4090c0
  4012ad:	45 85 d2             	test   %r10d,%r10d
  4012b0:	74 6d                	je     0x40131f
  4012b2:	48 8b 05 07 93 00 00 	mov    0x9307(%rip),%rax        # 0x40a5c0
  4012b9:	31 c9                	xor    %ecx,%ecx
  4012bb:	48 8b 00             	mov    (%rax),%rax
  4012be:	eb 0c                	jmp    0x4012cc
  4012c0:	84 d2                	test   %dl,%dl
  4012c2:	74 30                	je     0x4012f4
  4012c4:	84 c9                	test   %cl,%cl
  4012c6:	74 20                	je     0x4012e8
  4012c8:	48 83 c0 01          	add    $0x1,%rax
  4012cc:	0f b6 10             	movzbl (%rax),%edx
  4012cf:	80 fa 20             	cmp    $0x20,%dl
  4012d2:	7e ec                	jle    0x4012c0
  4012d4:	41 89 c8             	mov    %ecx,%r8d
  4012d7:	41 83 f0 01          	xor    $0x1,%r8d
  4012db:	80 fa 22             	cmp    $0x22,%dl
  4012de:	41 0f 44 c8          	cmove  %r8d,%ecx
  4012e2:	eb e4                	jmp    0x4012c8
  4012e4:	84 d2                	test   %dl,%dl
  4012e6:	74 0c                	je     0x4012f4
  4012e8:	48 83 c0 01          	add    $0x1,%rax
  4012ec:	0f b6 10             	movzbl (%rax),%edx
  4012ef:	80 fa 20             	cmp    $0x20,%dl
  4012f2:	7e f0                	jle    0x4012e4
  4012f4:	f6 44 24 5c 01       	testb  $0x1,0x5c(%rsp)
  4012f9:	48 8d 15 00 ed ff ff 	lea    -0x1300(%rip),%rdx        # 0x400000
  401300:	48 89 05 c9 86 00 00 	mov    %rax,0x86c9(%rip)        # 0x4099d0
  401307:	b8 0a 00 00 00       	mov    $0xa,%eax
  40130c:	48 89 15 cd 86 00 00 	mov    %rdx,0x86cd(%rip)        # 0x4099e0
  401313:	0f 85 f7 00 00 00    	jne    0x401410
  401319:	89 05 b9 86 00 00    	mov    %eax,0x86b9(%rip)        # 0x4099d8
  40131f:	8b 3d df 7c 00 00    	mov    0x7cdf(%rip),%edi        # 0x409004
  401325:	8d 4f 01             	lea    0x1(%rdi),%ecx
  401328:	48 63 c9             	movslq %ecx,%rcx
  40132b:	48 c1 e1 03          	shl    $0x3,%rcx
  40132f:	e8 6c 2a 00 00       	callq  0x403da0
  401334:	48 89 c5             	mov    %rax,%rbp
  401337:	31 c0                	xor    %eax,%eax
  401339:	85 ff                	test   %edi,%edi
  40133b:	48 8b 35 c6 7c 00 00 	mov    0x7cc6(%rip),%rsi        # 0x409008
  401342:	7e 4b                	jle    0x40138f
  401344:	31 db                	xor    %ebx,%ebx
  401346:	66 2e 0f 1f 84 00 00 	nopw   %cs:0x0(%rax,%rax,1)
  40134d:	00 00 00 
  401350:	48 8b 0c de          	mov    (%rsi,%rbx,8),%rcx
  401354:	e8 4f 2a 00 00       	callq  0x403da8
  401359:	44 8d 60 01          	lea    0x1(%rax),%r12d
  40135d:	4d 63 e4             	movslq %r12d,%r12
  401360:	4c 89 e1             	mov    %r12,%rcx
  401363:	e8 38 2a 00 00       	callq  0x403da0
  401368:	48 89 44 dd 00       	mov    %rax,0x0(%rbp,%rbx,8)
  40136d:	48 8b 14 de          	mov    (%rsi,%rbx,8),%rdx
  401371:	4d 89 e0             	mov    %r12,%r8
  401374:	48 89 c1             	mov    %rax,%rcx
  401377:	48 83 c3 01          	add    $0x1,%rbx
  40137b:	e8 18 2a 00 00       	callq  0x403d98
  401380:	39 df                	cmp    %ebx,%edi
  401382:	7f cc                	jg     0x401350
  401384:	48 63 ff             	movslq %edi,%rdi
  401387:	48 8d 04 fd 00 00 00 	lea    0x0(,%rdi,8),%rax
  40138e:	00 
  40138f:	48 c7 44 05 00 00 00 	movq   $0x0,0x0(%rbp,%rax,1)
  401396:	00 00 
  401398:	48 89 2d 69 7c 00 00 	mov    %rbp,0x7c69(%rip)        # 0x409008
  40139f:	e8 6c 25 00 00       	callq  0x403910
  4013a4:	48 8b 15 65 7c 00 00 	mov    0x7c65(%rip),%rdx        # 0x409010
  4013ab:	48 8b 05 e6 91 00 00 	mov    0x91e6(%rip),%rax        # 0x40a598
  4013b2:	8b 0d 4c 7c 00 00    	mov    0x7c4c(%rip),%ecx        # 0x409004
  4013b8:	48 89 10             	mov    %rdx,(%rax)
  4013bb:	4c 8b 05 4e 7c 00 00 	mov    0x7c4e(%rip),%r8        # 0x409010
  4013c2:	48 8b 15 3f 7c 00 00 	mov    0x7c3f(%rip),%rdx        # 0x409008
  4013c9:	e8 92 2c 00 00       	callq  0x404060
  4013ce:	44 8b 0d 47 7c 00 00 	mov    0x7c47(%rip),%r9d        # 0x40901c
  4013d5:	89 05 3d 7c 00 00    	mov    %eax,0x7c3d(%rip)        # 0x409018
  4013db:	45 85 c9             	test   %r9d,%r9d
  4013de:	0f 84 be 00 00 00    	je     0x4014a2
  4013e4:	44 8b 05 15 7c 00 00 	mov    0x7c15(%rip),%r8d        # 0x409000
  4013eb:	45 85 c0             	test   %r8d,%r8d
  4013ee:	75 0b                	jne    0x4013fb
  4013f0:	e8 bb 29 00 00       	callq  0x403db0
  4013f5:	8b 05 1d 7c 00 00    	mov    0x7c1d(%rip),%eax        # 0x409018
  4013fb:	48 81 c4 90 00 00 00 	add    $0x90,%rsp
  401402:	5b                   	pop    %rbx
  401403:	5e                   	pop    %rsi
  401404:	5f                   	pop    %rdi
  401405:	5d                   	pop    %rbp
  401406:	41 5c                	pop    %r12
  401408:	c3                   	retq   
  401409:	0f 1f 80 00 00 00 00 	nopl   0x0(%rax)
  401410:	0f b7 44 24 60       	movzwl 0x60(%rsp),%eax
  401415:	e9 ff fe ff ff       	jmpq   0x401319
  40141a:	66 0f 1f 44 00 00    	nopw   0x0(%rax,%rax,1)
  401420:	8b 05 d2 85 00 00    	mov    0x85d2(%rip),%eax        # 0x4099f8
  401426:	be 01 00 00 00       	mov    $0x1,%esi
  40142b:	83 f8 01             	cmp    $0x1,%eax
  40142e:	0f 85 df fd ff ff    	jne    0x401213
  401434:	b9 1f 00 00 00       	mov    $0x1f,%ecx
  401439:	e8 7a 29 00 00       	callq  0x403db8
  40143e:	8b 05 b4 85 00 00    	mov    0x85b4(%rip),%eax        # 0x4099f8
  401444:	83 f8 01             	cmp    $0x1,%eax
  401447:	0f 85 ed fd ff ff    	jne    0x40123a
  40144d:	0f 1f 00             	nopl   (%rax)
  401450:	48 8d 15 b9 9b 00 00 	lea    0x9bb9(%rip),%rdx        # 0x40b010
  401457:	48 8d 0d a2 9b 00 00 	lea    0x9ba2(%rip),%rcx        # 0x40b000
  40145e:	e8 5d 29 00 00       	callq  0x403dc0
  401463:	c7 05 8b 85 00 00 02 	movl   $0x2,0x858b(%rip)        # 0x4099f8
  40146a:	00 00 00 
  40146d:	e9 c8 fd ff ff       	jmpq   0x40123a
  401472:	48 89 d1             	mov    %rdx,%rcx
  401475:	ff 15 2d 90 00 00    	callq  *0x902d(%rip)        # 0x40a4a8
  40147b:	e9 2f fd ff ff       	jmpq   0x4011af
  401480:	48 8d 15 a9 9b 00 00 	lea    0x9ba9(%rip),%rdx        # 0x40b030
  401487:	48 8d 0d 8a 9b 00 00 	lea    0x9b8a(%rip),%rcx        # 0x40b018
  40148e:	c7 05 60 85 00 00 01 	movl   $0x1,0x8560(%rip)        # 0x4099f8
  401495:	00 00 00 
  401498:	e8 23 29 00 00       	callq  0x403dc0
  40149d:	e9 89 fd ff ff       	jmpq   0x40122b
  4014a2:	89 c1                	mov    %eax,%ecx
  4014a4:	e8 1f 29 00 00       	callq  0x403dc8
  4014a9:	90                   	nop
  4014aa:	66 0f 1f 44 00 00    	nopw   0x0(%rax,%rax,1)
  4014b0:	48 83 ec 28          	sub    $0x28,%rsp
  4014b4:	c7 05 02 7c 00 00 01 	movl   $0x1,0x7c02(%rip)        # 0x4090c0
  4014bb:	00 00 00 
  4014be:	e8 6d 24 00 00       	callq  0x403930
  4014c3:	e8 b8 fc ff ff       	callq  0x401180
  4014c8:	90                   	nop
  4014c9:	90                   	nop
  4014ca:	48 83 c4 28          	add    $0x28,%rsp
  4014ce:	c3                   	retq   
  4014cf:	90                   	nop
  4014d0:	48 83 ec 28          	sub    $0x28,%rsp
  4014d4:	c7 05 e2 7b 00 00 00 	movl   $0x0,0x7be2(%rip)        # 0x4090c0
  4014db:	00 00 00 
  4014de:	e8 4d 24 00 00       	callq  0x403930
  4014e3:	e8 98 fc ff ff       	callq  0x401180
  4014e8:	90                   	nop
  4014e9:	90                   	nop
  4014ea:	48 83 c4 28          	add    $0x28,%rsp
  4014ee:	c3                   	retq   
  4014ef:	90                   	nop
  4014f0:	48 83 ec 38          	sub    $0x38,%rsp
  4014f4:	c7 05 32 7b 00 00 30 	movl   $0x30,0x7b32(%rip)        # 0x409030
  4014fb:	00 00 00 
  4014fe:	c7 05 2c 7b 00 00 02 	movl   $0x2,0x7b2c(%rip)        # 0x409034
  401505:	00 00 00 
  401508:	48 8d 15 21 01 00 00 	lea    0x121(%rip),%rdx        # 0x401630
  40150f:	c7 05 1f 7b 00 00 03 	movl   $0x3,0x7b1f(%rip)        # 0x409038
  401516:	00 00 00 
  401519:	c7 05 19 7b 00 00 00 	movl   $0x0,0x7b19(%rip)        # 0x40903c
  401520:	00 00 00 
  401523:	48 8d 0d f6 4a 00 00 	lea    0x4af6(%rip),%rcx        # 0x406020
  40152a:	c7 05 0c 7b 00 00 00 	movl   $0x0,0x7b0c(%rip)        # 0x409040
  401531:	00 00 00 
  401534:	c7 05 06 7b 00 00 00 	movl   $0x0,0x7b06(%rip)        # 0x409044
  40153b:	00 00 00 
  40153e:	c7 05 00 7b 00 00 00 	movl   $0x0,0x7b00(%rip)        # 0x409048
  401545:	00 00 00 
  401548:	ff 15 8a 8e 00 00    	callq  *0x8e8a(%rip)        # 0x40a3d8
  40154e:	48 85 c0             	test   %rax,%rax
  401551:	48 89 05 f8 7a 00 00 	mov    %rax,0x7af8(%rip)        # 0x409050
  401558:	74 69                	je     0x4015c3
  40155a:	45 31 c9             	xor    %r9d,%r9d
  40155d:	31 d2                	xor    %edx,%edx
  40155f:	31 c9                	xor    %ecx,%ecx
  401561:	48 c7 44 24 28 00 00 	movq   $0x0,0x28(%rsp)
  401568:	00 00 
  40156a:	c7 44 24 20 00 00 00 	movl   $0x0,0x20(%rsp)
  401571:	00 
  401572:	4c 8d 05 37 0e 00 00 	lea    0xe37(%rip),%r8        # 0x4023b0
  401579:	ff 15 b1 8e 00 00    	callq  *0x8eb1(%rip)        # 0x40a430
  40157f:	48 85 c0             	test   %rax,%rax
  401582:	74 4c                	je     0x4015d0
  401584:	48 89 c1             	mov    %rax,%rcx
  401587:	ff 15 83 8e 00 00    	callq  *0x8e83(%rip)        # 0x40a410
  40158d:	c7 05 9d 7a 00 00 04 	movl   $0x4,0x7a9d(%rip)        # 0x409034
  401594:	00 00 00 
  401597:	c7 05 a3 7a 00 00 00 	movl   $0x0,0x7aa3(%rip)        # 0x409044
  40159e:	00 00 00 
  4015a1:	48 8d 15 88 7a 00 00 	lea    0x7a88(%rip),%rdx        # 0x409030
  4015a8:	c7 05 96 7a 00 00 00 	movl   $0x0,0x7a96(%rip)        # 0x409048
  4015af:	00 00 00 
  4015b2:	48 8b 0d 97 7a 00 00 	mov    0x7a97(%rip),%rcx        # 0x409050
  4015b9:	ff 15 39 8e 00 00    	callq  *0x8e39(%rip)        # 0x40a3f8
  4015bf:	85 c0                	test   %eax,%eax
  4015c1:	74 5d                	je     0x401620
  4015c3:	48 83 c4 38          	add    $0x38,%rsp
  4015c7:	c3                   	retq   
  4015c8:	0f 1f 84 00 00 00 00 	nopl   0x0(%rax,%rax,1)
  4015cf:	00 
  4015d0:	48 8b 0d 79 7a 00 00 	mov    0x7a79(%rip),%rcx        # 0x409050
  4015d7:	48 8b 05 1a 8e 00 00 	mov    0x8e1a(%rip),%rax        # 0x40a3f8
  4015de:	48 8d 15 4b 7a 00 00 	lea    0x7a4b(%rip),%rdx        # 0x409030
  4015e5:	c7 05 45 7a 00 00 01 	movl   $0x1,0x7a45(%rip)        # 0x409034
  4015ec:	00 00 00 
  4015ef:	c7 05 4b 7a 00 00 00 	movl   $0x0,0x7a4b(%rip)        # 0x409044
  4015f6:	00 00 00 
  4015f9:	c7 05 45 7a 00 00 00 	movl   $0x0,0x7a45(%rip)        # 0x409048
  401600:	00 00 00 
  401603:	c7 05 2f 7a 00 00 01 	movl   $0x1,0x7a2f(%rip)        # 0x40903c
  40160a:	00 00 00 
  40160d:	c7 05 29 7a 00 00 00 	movl   $0x0,0x7a29(%rip)        # 0x409040
  401614:	00 00 00 
  401617:	48 83 c4 38          	add    $0x38,%rsp
  40161b:	48 ff e0             	rex.W jmpq *%rax
  40161e:	66 90                	xchg   %ax,%ax
  401620:	48 8b 05 59 8e 00 00 	mov    0x8e59(%rip),%rax        # 0x40a480
  401627:	48 83 c4 38          	add    $0x38,%rsp
  40162b:	48 ff e0             	rex.W jmpq *%rax
  40162e:	66 90                	xchg   %ax,%ax
  401630:	48 83 ec 28          	sub    $0x28,%rsp
  401634:	83 f9 02             	cmp    $0x2,%ecx
  401637:	74 77                	je     0x4016b0
  401639:	83 f9 03             	cmp    $0x3,%ecx
  40163c:	74 62                	je     0x4016a0
  40163e:	83 f9 01             	cmp    $0x1,%ecx
  401641:	74 1d                	je     0x401660
  401643:	48 8d 15 e6 79 00 00 	lea    0x79e6(%rip),%rdx        # 0x409030
  40164a:	48 8b 0d ff 79 00 00 	mov    0x79ff(%rip),%rcx        # 0x409050
  401651:	ff 15 a1 8d 00 00    	callq  *0x8da1(%rip)        # 0x40a3f8
  401657:	85 c0                	test   %eax,%eax
  401659:	74 35                	je     0x401690
  40165b:	48 83 c4 28          	add    $0x28,%rsp
  40165f:	c3                   	retq   
  401660:	c7 05 d2 79 00 00 00 	movl   $0x0,0x79d2(%rip)        # 0x40903c
  401667:	00 00 00 
  40166a:	c7 05 c0 79 00 00 01 	movl   $0x1,0x79c0(%rip)        # 0x409034
  401671:	00 00 00 
  401674:	c7 05 c6 79 00 00 00 	movl   $0x0,0x79c6(%rip)        # 0x409044
  40167b:	00 00 00 
  40167e:	c7 05 c0 79 00 00 00 	movl   $0x0,0x79c0(%rip)        # 0x409048
  401685:	00 00 00 
  401688:	eb b9                	jmp    0x401643
  40168a:	66 0f 1f 44 00 00    	nopw   0x0(%rax,%rax,1)
  401690:	48 8b 05 e9 8d 00 00 	mov    0x8de9(%rip),%rax        # 0x40a480
  401697:	48 83 c4 28          	add    $0x28,%rsp
  40169b:	48 ff e0             	rex.W jmpq *%rax
  40169e:	66 90                	xchg   %ax,%ax
  4016a0:	c7 05 8a 79 00 00 04 	movl   $0x4,0x798a(%rip)        # 0x409034
  4016a7:	00 00 00 
  4016aa:	eb 97                	jmp    0x401643
  4016ac:	0f 1f 40 00          	nopl   0x0(%rax)
  4016b0:	c7 05 7a 79 00 00 07 	movl   $0x7,0x797a(%rip)        # 0x409034
  4016b7:	00 00 00 
  4016ba:	eb 87                	jmp    0x401643
  4016bc:	90                   	nop
  4016bd:	90                   	nop
  4016be:	90                   	nop
  4016bf:	90                   	nop
  4016c0:	57                   	push   %rdi
  4016c1:	56                   	push   %rsi
  4016c2:	53                   	push   %rbx
  4016c3:	48 81 ec 40 04 00 00 	sub    $0x440,%rsp
  4016ca:	48 89 ce             	mov    %rcx,%rsi
  4016cd:	4c 89 8c 24 78 04 00 	mov    %r9,0x478(%rsp)
  4016d4:	00 
  4016d5:	48 8d 5c 24 30       	lea    0x30(%rsp),%rbx
  4016da:	4c 8d 8c 24 70 04 00 	lea    0x470(%rsp),%r9
  4016e1:	00 
  4016e2:	48 8d 7e 08          	lea    0x8(%rsi),%rdi
  4016e6:	4c 89 84 24 70 04 00 	mov    %r8,0x470(%rsp)
  4016ed:	00 
  4016ee:	48 89 d9             	mov    %rbx,%rcx
  4016f1:	49 89 d0             	mov    %rdx,%r8
  4016f4:	ba 00 04 00 00       	mov    $0x400,%edx
  4016f9:	4c 89 8c 24 30 04 00 	mov    %r9,0x430(%rsp)
  401700:	00 
  401701:	ff 15 f9 8e 00 00    	callq  *0x8ef9(%rip)        # 0x40a600
  401707:	49 89 d8             	mov    %rbx,%r8
  40170a:	41 8b 10             	mov    (%r8),%edx
  40170d:	49 83 c0 04          	add    $0x4,%r8
  401711:	8d 82 ff fe fe fe    	lea    -0x1010101(%rdx),%eax
  401717:	f7 d2                	not    %edx
  401719:	21 d0                	and    %edx,%eax
  40171b:	25 80 80 80 80       	and    $0x80808080,%eax
  401720:	74 e8                	je     0x40170a
  401722:	89 c2                	mov    %eax,%edx
  401724:	48 89 7c 24 20       	mov    %rdi,0x20(%rsp)
  401729:	48 8b 0e             	mov    (%rsi),%rcx
  40172c:	c1 ea 10             	shr    $0x10,%edx
  40172f:	a9 80 80 00 00       	test   $0x8080,%eax
  401734:	0f 44 c2             	cmove  %edx,%eax
  401737:	49 8d 50 02          	lea    0x2(%r8),%rdx
  40173b:	4c 0f 44 c2          	cmove  %rdx,%r8
  40173f:	00 c0                	add    %al,%al
  401741:	48 89 da             	mov    %rbx,%rdx
  401744:	49 83 d8 03          	sbb    $0x3,%r8
  401748:	45 31 c9             	xor    %r9d,%r9d
  40174b:	41 29 d8             	sub    %ebx,%r8d
  40174e:	ff 15 0c 8e 00 00    	callq  *0x8e0c(%rip)        # 0x40a560
  401754:	85 c0                	test   %eax,%eax
  401756:	74 1b                	je     0x401773
  401758:	48 8b 0e             	mov    (%rsi),%rcx
  40175b:	ff 15 ef 8c 00 00    	callq  *0x8cef(%rip)        # 0x40a450
  401761:	8b 84 24 3c 04 00 00 	mov    0x43c(%rsp),%eax
  401768:	48 81 c4 40 04 00 00 	add    $0x440,%rsp
  40176f:	5b                   	pop    %rbx
  401770:	5e                   	pop    %rsi
  401771:	5f                   	pop    %rdi
  401772:	c3                   	retq   
  401773:	ff 15 07 8d 00 00    	callq  *0x8d07(%rip)        # 0x40a480
  401779:	3d e5 03 00 00       	cmp    $0x3e5,%eax
  40177e:	75 d8                	jne    0x401758
  401780:	41 b9 01 00 00 00    	mov    $0x1,%r9d
  401786:	4c 8d 84 24 3c 04 00 	lea    0x43c(%rsp),%r8
  40178d:	00 
  40178e:	48 89 fa             	mov    %rdi,%rdx
  401791:	48 8b 0e             	mov    (%rsi),%rcx
  401794:	ff 15 fe 8c 00 00    	callq  *0x8cfe(%rip)        # 0x40a498
  40179a:	eb bc                	jmp    0x401758
  40179c:	0f 1f 40 00          	nopl   0x0(%rax)
  4017a0:	55                   	push   %rbp
  4017a1:	57                   	push   %rdi
  4017a2:	56                   	push   %rsi
  4017a3:	53                   	push   %rbx
  4017a4:	48 83 ec 28          	sub    $0x28,%rsp
  4017a8:	48 8b 69 08          	mov    0x8(%rcx),%rbp
  4017ac:	ba 20 00 00 00       	mov    $0x20,%edx
  4017b1:	48 89 cb             	mov    %rcx,%rbx
  4017b4:	48 89 e9             	mov    %rbp,%rcx
  4017b7:	e8 1c 26 00 00       	callq  0x403dd8
  4017bc:	48 89 c7             	mov    %rax,%rdi
  4017bf:	31 c0                	xor    %eax,%eax
  4017c1:	48 85 ff             	test   %rdi,%rdi
  4017c4:	74 40                	je     0x401806
  4017c6:	48 8d 77 01          	lea    0x1(%rdi),%rsi
  4017ca:	48 8d 15 5f 48 00 00 	lea    0x485f(%rip),%rdx        # 0x406030
  4017d1:	48 89 f1             	mov    %rsi,%rcx
  4017d4:	e8 07 26 00 00       	callq  0x403de0
  4017d9:	48 39 f0             	cmp    %rsi,%rax
  4017dc:	74 57                	je     0x401835
  4017de:	48 8d 15 63 48 00 00 	lea    0x4863(%rip),%rdx        # 0x406048
  4017e5:	48 89 f1             	mov    %rsi,%rcx
  4017e8:	e8 f3 25 00 00       	callq  0x403de0
  4017ed:	48 39 f0             	cmp    %rsi,%rax
  4017f0:	74 1e                	je     0x401810
  4017f2:	48 8b 0b             	mov    (%rbx),%rcx
  4017f5:	48 8d 15 62 48 00 00 	lea    0x4862(%rip),%rdx        # 0x40605e
  4017fc:	49 89 e8             	mov    %rbp,%r8
  4017ff:	e8 bc fe ff ff       	callq  0x4016c0
  401804:	31 c0                	xor    %eax,%eax
  401806:	48 83 c4 28          	add    $0x28,%rsp
  40180a:	5b                   	pop    %rbx
  40180b:	5e                   	pop    %rsi
  40180c:	5f                   	pop    %rdi
  40180d:	5d                   	pop    %rbp
  40180e:	c3                   	retq   
  40180f:	90                   	nop
  401810:	80 7f 09 00          	cmpb   $0x0,0x9(%rdi)
  401814:	75 dc                	jne    0x4017f2
  401816:	ff 15 74 8c 00 00    	callq  *0x8c74(%rip)        # 0x40a490
  40181c:	48 8b 0b             	mov    (%rbx),%rcx
  40181f:	48 8d 15 2b 48 00 00 	lea    0x482b(%rip),%rdx        # 0x406051
  401826:	41 89 c0             	mov    %eax,%r8d
  401829:	e8 92 fe ff ff       	callq  0x4016c0
  40182e:	b8 01 00 00 00       	mov    $0x1,%eax
  401833:	eb d1                	jmp    0x401806
  401835:	80 7f 08 00          	cmpb   $0x0,0x8(%rdi)
  401839:	75 a3                	jne    0x4017de
  40183b:	48 8b 0b             	mov    (%rbx),%rcx
  40183e:	48 8d 15 f3 47 00 00 	lea    0x47f3(%rip),%rdx        # 0x406038
  401845:	41 b8 65 00 00 00    	mov    $0x65,%r8d
  40184b:	e8 70 fe ff ff       	callq  0x4016c0
  401850:	b8 01 00 00 00       	mov    $0x1,%eax
  401855:	eb af                	jmp    0x401806
  401857:	66 0f 1f 84 00 00 00 	nopw   0x0(%rax,%rax,1)
  40185e:	00 00 
  401860:	55                   	push   %rbp
  401861:	57                   	push   %rdi
  401862:	56                   	push   %rsi
  401863:	53                   	push   %rbx
  401864:	48 83 ec 28          	sub    $0x28,%rsp
  401868:	48 8b 69 08          	mov    0x8(%rcx),%rbp
  40186c:	ba 20 00 00 00       	mov    $0x20,%edx
  401871:	48 89 cb             	mov    %rcx,%rbx
  401874:	48 89 e9             	mov    %rbp,%rcx
  401877:	e8 5c 25 00 00       	callq  0x403dd8
  40187c:	48 89 c7             	mov    %rax,%rdi
  40187f:	31 c0                	xor    %eax,%eax
  401881:	48 85 ff             	test   %rdi,%rdi
  401884:	74 74                	je     0x4018fa
  401886:	48 8d 77 01          	lea    0x1(%rdi),%rsi
  40188a:	48 8d 15 ea 47 00 00 	lea    0x47ea(%rip),%rdx        # 0x40607b
  401891:	48 89 f1             	mov    %rsi,%rcx
  401894:	e8 47 25 00 00       	callq  0x403de0
  401899:	48 39 f0             	cmp    %rsi,%rax
  40189c:	0f 84 7e 00 00 00    	je     0x401920
  4018a2:	48 8d 15 d9 47 00 00 	lea    0x47d9(%rip),%rdx        # 0x406082
  4018a9:	48 89 f1             	mov    %rsi,%rcx
  4018ac:	e8 2f 25 00 00       	callq  0x403de0
  4018b1:	48 39 f0             	cmp    %rsi,%rax
  4018b4:	0f 84 86 00 00 00    	je     0x401940
  4018ba:	48 8d 15 ca 47 00 00 	lea    0x47ca(%rip),%rdx        # 0x40608b
  4018c1:	48 89 f1             	mov    %rsi,%rcx
  4018c4:	e8 17 25 00 00       	callq  0x403de0
  4018c9:	48 39 f0             	cmp    %rsi,%rax
  4018cc:	0f 84 8e 00 00 00    	je     0x401960
  4018d2:	48 8d 15 ba 47 00 00 	lea    0x47ba(%rip),%rdx        # 0x406093
  4018d9:	48 89 f1             	mov    %rsi,%rcx
  4018dc:	e8 ff 24 00 00       	callq  0x403de0
  4018e1:	48 39 f0             	cmp    %rsi,%rax
  4018e4:	74 1d                	je     0x401903
  4018e6:	48 8b 0b             	mov    (%rbx),%rcx
  4018e9:	48 8d 15 a9 47 00 00 	lea    0x47a9(%rip),%rdx        # 0x406099
  4018f0:	49 89 e8             	mov    %rbp,%r8
  4018f3:	e8 c8 fd ff ff       	callq  0x4016c0
  4018f8:	31 c0                	xor    %eax,%eax
  4018fa:	48 83 c4 28          	add    $0x28,%rsp
  4018fe:	5b                   	pop    %rbx
  4018ff:	5e                   	pop    %rsi
  401900:	5f                   	pop    %rdi
  401901:	5d                   	pop    %rbp
  401902:	c3                   	retq   
  401903:	80 7f 06 20          	cmpb   $0x20,0x6(%rdi)
  401907:	75 dd                	jne    0x4018e6
  401909:	48 8d 4f 07          	lea    0x7(%rdi),%rcx
  40190d:	e8 5e 24 00 00       	callq  0x403d70
  401912:	48 89 43 40          	mov    %rax,0x40(%rbx)
  401916:	b8 01 00 00 00       	mov    $0x1,%eax
  40191b:	eb dd                	jmp    0x4018fa
  40191d:	0f 1f 00             	nopl   (%rax)
  401920:	80 7f 07 20          	cmpb   $0x20,0x7(%rdi)
  401924:	0f 85 78 ff ff ff    	jne    0x4018a2
  40192a:	48 8d 4f 08          	lea    0x8(%rdi),%rcx
  40192e:	e8 b5 24 00 00       	callq  0x403de8
  401933:	89 43 34             	mov    %eax,0x34(%rbx)
  401936:	b8 01 00 00 00       	mov    $0x1,%eax
  40193b:	eb bd                	jmp    0x4018fa
  40193d:	0f 1f 00             	nopl   (%rax)
  401940:	80 7f 09 20          	cmpb   $0x20,0x9(%rdi)
  401944:	0f 85 70 ff ff ff    	jne    0x4018ba
  40194a:	48 8d 4f 0a          	lea    0xa(%rdi),%rcx
  40194e:	e8 95 24 00 00       	callq  0x403de8
  401953:	89 43 30             	mov    %eax,0x30(%rbx)
  401956:	b8 01 00 00 00       	mov    $0x1,%eax
  40195b:	eb 9d                	jmp    0x4018fa
  40195d:	0f 1f 00             	nopl   (%rax)
  401960:	80 7f 08 20          	cmpb   $0x20,0x8(%rdi)
  401964:	0f 85 68 ff ff ff    	jne    0x4018d2
  40196a:	48 8d 4f 09          	lea    0x9(%rdi),%rcx
  40196e:	e8 75 24 00 00       	callq  0x403de8
  401973:	89 43 38             	mov    %eax,0x38(%rbx)
  401976:	b8 01 00 00 00       	mov    $0x1,%eax
  40197b:	e9 7a ff ff ff       	jmpq   0x4018fa
  401980:	55                   	push   %rbp
  401981:	48 89 e5             	mov    %rsp,%rbp
  401984:	57                   	push   %rdi
  401985:	56                   	push   %rsi
  401986:	53                   	push   %rbx
  401987:	48 81 ec 78 01 00 00 	sub    $0x178,%rsp
  40198e:	31 c0                	xor    %eax,%eax
  401990:	48 8d 7d a0          	lea    -0x60(%rbp),%rdi
  401994:	48 89 cb             	mov    %rcx,%rbx
  401997:	b9 07 00 00 00       	mov    $0x7,%ecx
  40199c:	48 8d 74 24 20       	lea    0x20(%rsp),%rsi
  4019a1:	48 8d 55 dc          	lea    -0x24(%rbp),%rdx
  4019a5:	c7 45 dc 00 01 00 00 	movl   $0x100,-0x24(%rbp)
  4019ac:	f3 48 ab             	rep stos %rax,%es:(%rdi)
  4019af:	48 89 f1             	mov    %rsi,%rcx
  4019b2:	c7 45 a0 38 00 00 00 	movl   $0x38,-0x60(%rbp)
  4019b9:	ff 15 e9 89 00 00    	callq  *0x89e9(%rip)        # 0x40a3a8
  4019bf:	48 8b 0b             	mov    (%rbx),%rcx
  4019c2:	48 8d 55 a0          	lea    -0x60(%rbp),%rdx
  4019c6:	48 89 75 a8          	mov    %rsi,-0x58(%rbp)
  4019ca:	ff 15 c8 8c 00 00    	callq  *0x8cc8(%rip)        # 0x40a698
  4019d0:	48 8d 65 e8          	lea    -0x18(%rbp),%rsp
  4019d4:	5b                   	pop    %rbx
  4019d5:	5e                   	pop    %rsi
  4019d6:	5f                   	pop    %rdi
  4019d7:	5d                   	pop    %rbp
  4019d8:	c3                   	retq   
  4019d9:	0f 1f 80 00 00 00 00 	nopl   0x0(%rax)
  4019e0:	41 54                	push   %r12
  4019e2:	55                   	push   %rbp
  4019e3:	57                   	push   %rdi
  4019e4:	56                   	push   %rsi
  4019e5:	53                   	push   %rbx
  4019e6:	48 81 ec 10 02 00 00 	sub    $0x210,%rsp
  4019ed:	ba 20 00 00 00       	mov    $0x20,%edx
  4019f2:	48 89 cb             	mov    %rcx,%rbx
  4019f5:	48 8b 49 08          	mov    0x8(%rcx),%rcx
  4019f9:	e8 da 23 00 00       	callq  0x403dd8
  4019fe:	48 85 c0             	test   %rax,%rax
  401a01:	48 89 c5             	mov    %rax,%rbp
  401a04:	0f 84 2a 04 00 00    	je     0x401e34
  401a0a:	48 8b 7b 40          	mov    0x40(%rbx),%rdi
  401a0e:	48 85 ff             	test   %rdi,%rdi
  401a11:	0f 84 69 04 00 00    	je     0x401e80
  401a17:	ba 2f 00 00 00       	mov    $0x2f,%edx
  401a1c:	48 89 f9             	mov    %rdi,%rcx
  401a1f:	e8 b4 23 00 00       	callq  0x403dd8
  401a24:	48 85 c0             	test   %rax,%rax
  401a27:	0f 84 e3 04 00 00    	je     0x401f10
  401a2d:	4c 8d 60 01          	lea    0x1(%rax),%r12
  401a31:	c6 00 00             	movb   $0x0,(%rax)
  401a34:	ba 25 00 00 00       	mov    $0x25,%edx
  401a39:	4c 89 e1             	mov    %r12,%rcx
  401a3c:	e8 97 23 00 00       	callq  0x403dd8
  401a41:	48 85 c0             	test   %rax,%rax
  401a44:	48 89 c6             	mov    %rax,%rsi
  401a47:	74 07                	je     0x401a50
  401a49:	c6 00 00             	movb   $0x0,(%rax)
  401a4c:	48 83 c6 01          	add    $0x1,%rsi
  401a50:	48 8d 43 28          	lea    0x28(%rbx),%rax
  401a54:	c7 44 24 20 00 00 00 	movl   $0x0,0x20(%rsp)
  401a5b:	00 
  401a5c:	41 b9 02 00 00 00    	mov    $0x2,%r9d
  401a62:	49 89 f0             	mov    %rsi,%r8
  401a65:	48 89 fa             	mov    %rdi,%rdx
  401a68:	4c 89 e1             	mov    %r12,%rcx
  401a6b:	48 89 44 24 28       	mov    %rax,0x28(%rsp)
  401a70:	ff 15 4a 89 00 00    	callq  *0x894a(%rip)        # 0x40a3c0
  401a76:	85 c0                	test   %eax,%eax
  401a78:	0f 84 c6 03 00 00    	je     0x401e44
  401a7e:	ff 15 dc 89 00 00    	callq  *0x89dc(%rip)        # 0x40a460
  401a84:	89 c7                	mov    %eax,%edi
  401a86:	48 8d 15 12 47 00 00 	lea    0x4712(%rip),%rdx        # 0x40619f
  401a8d:	48 8d 4c 24 60       	lea    0x60(%rsp),%rcx
  401a92:	c1 e7 10             	shl    $0x10,%edi
  401a95:	03 7b 48             	add    0x48(%rbx),%edi
  401a98:	41 89 f8             	mov    %edi,%r8d
  401a9b:	e8 50 23 00 00       	callq  0x403df0
  401aa0:	48 8d 05 b9 75 00 00 	lea    0x75b9(%rip),%rax        # 0x409060
  401aa7:	45 31 c0             	xor    %r8d,%r8d
  401aaa:	c7 44 24 30 00 00 00 	movl   $0x0,0x30(%rsp)
  401ab1:	00 
  401ab2:	c7 44 24 28 00 01 00 	movl   $0x100,0x28(%rsp)
  401ab9:	00 
  401aba:	c7 44 24 20 00 01 00 	movl   $0x100,0x20(%rsp)
  401ac1:	00 
  401ac2:	41 b9 01 00 00 00    	mov    $0x1,%r9d
  401ac8:	48 89 44 24 38       	mov    %rax,0x38(%rsp)
  401acd:	ba 03 00 00 00       	mov    $0x3,%edx
  401ad2:	48 8d 4c 24 60       	lea    0x60(%rsp),%rcx
  401ad7:	48 8b 35 4a 89 00 00 	mov    0x894a(%rip),%rsi        # 0x40a428
  401ade:	ff d6                	callq  *%rsi
  401ae0:	48 83 f8 ff          	cmp    $0xffffffffffffffff,%rax
  401ae4:	48 89 43 10          	mov    %rax,0x10(%rbx)
  401ae8:	0f 84 42 05 00 00    	je     0x402030
  401aee:	48 8d 15 fa 46 00 00 	lea    0x46fa(%rip),%rdx        # 0x4061ef
  401af5:	48 8d 4c 24 60       	lea    0x60(%rsp),%rcx
  401afa:	41 89 f8             	mov    %edi,%r8d
  401afd:	e8 ee 22 00 00       	callq  0x403df0
  401b02:	48 8d 05 57 75 00 00 	lea    0x7557(%rip),%rax        # 0x409060
  401b09:	45 31 c0             	xor    %r8d,%r8d
  401b0c:	c7 44 24 30 00 00 00 	movl   $0x0,0x30(%rsp)
  401b13:	00 
  401b14:	c7 44 24 28 00 01 00 	movl   $0x100,0x28(%rsp)
  401b1b:	00 
  401b1c:	c7 44 24 20 00 01 00 	movl   $0x100,0x20(%rsp)
  401b23:	00 
  401b24:	41 b9 01 00 00 00    	mov    $0x1,%r9d
  401b2a:	48 89 44 24 38       	mov    %rax,0x38(%rsp)
  401b2f:	ba 03 00 00 00       	mov    $0x3,%edx
  401b34:	48 8d 4c 24 60       	lea    0x60(%rsp),%rcx
  401b39:	ff d6                	callq  *%rsi
  401b3b:	48 83 f8 ff          	cmp    $0xffffffffffffffff,%rax
  401b3f:	48 89 43 18          	mov    %rax,0x18(%rbx)
  401b43:	0f 84 17 05 00 00    	je     0x402060
  401b49:	48 8d 15 f0 46 00 00 	lea    0x46f0(%rip),%rdx        # 0x406240
  401b50:	48 8d 4c 24 60       	lea    0x60(%rsp),%rcx
  401b55:	41 89 f8             	mov    %edi,%r8d
  401b58:	e8 93 22 00 00       	callq  0x403df0
  401b5d:	48 8d 05 fc 74 00 00 	lea    0x74fc(%rip),%rax        # 0x409060
  401b64:	45 31 c0             	xor    %r8d,%r8d
  401b67:	c7 44 24 30 00 00 00 	movl   $0x0,0x30(%rsp)
  401b6e:	00 
  401b6f:	c7 44 24 28 00 01 00 	movl   $0x100,0x28(%rsp)
  401b76:	00 
  401b77:	c7 44 24 20 00 01 00 	movl   $0x100,0x20(%rsp)
  401b7e:	00 
  401b7f:	41 b9 01 00 00 00    	mov    $0x1,%r9d
  401b85:	48 89 44 24 38       	mov    %rax,0x38(%rsp)
  401b8a:	ba 03 00 00 00       	mov    $0x3,%edx
  401b8f:	48 8d 4c 24 60       	lea    0x60(%rsp),%rcx
  401b94:	ff d6                	callq  *%rsi
  401b96:	48 83 f8 ff          	cmp    $0xffffffffffffffff,%rax
  401b9a:	48 89 43 20          	mov    %rax,0x20(%rbx)
  401b9e:	0f 84 ec 03 00 00    	je     0x401f90
  401ba4:	48 8b 0b             	mov    (%rbx),%rcx
  401ba7:	48 8d 15 e2 46 00 00 	lea    0x46e2(%rip),%rdx        # 0x406290
  401bae:	41 89 f8             	mov    %edi,%r8d
  401bb1:	e8 0a fb ff ff       	callq  0x4016c0
  401bb6:	31 d2                	xor    %edx,%edx
  401bb8:	48 8b 4b 10          	mov    0x10(%rbx),%rcx
  401bbc:	48 8b 35 55 88 00 00 	mov    0x8855(%rip),%rsi        # 0x40a418
  401bc3:	ff d6                	callq  *%rsi
  401bc5:	85 c0                	test   %eax,%eax
  401bc7:	0f 84 27 02 00 00    	je     0x401df4
  401bcd:	31 d2                	xor    %edx,%edx
  401bcf:	48 8b 4b 18          	mov    0x18(%rbx),%rcx
  401bd3:	ff d6                	callq  *%rsi
  401bd5:	85 c0                	test   %eax,%eax
  401bd7:	0f 84 e3 04 00 00    	je     0x4020c0
  401bdd:	31 d2                	xor    %edx,%edx
  401bdf:	48 8b 4b 20          	mov    0x20(%rbx),%rcx
  401be3:	ff d6                	callq  *%rsi
  401be5:	85 c0                	test   %eax,%eax
  401be7:	0f 84 f3 03 00 00    	je     0x401fe0
  401bed:	48 8b 35 24 89 00 00 	mov    0x8924(%rip),%rsi        # 0x40a518
  401bf4:	48 8b 4b 10          	mov    0x10(%rbx),%rcx
  401bf8:	41 b8 01 00 00 00    	mov    $0x1,%r8d
  401bfe:	ba 01 00 00 00       	mov    $0x1,%edx
  401c03:	ff d6                	callq  *%rsi
  401c05:	48 8b 4b 18          	mov    0x18(%rbx),%rcx
  401c09:	41 b8 01 00 00 00    	mov    $0x1,%r8d
  401c0f:	ba 01 00 00 00       	mov    $0x1,%edx
  401c14:	ff d6                	callq  *%rsi
  401c16:	48 8b 4b 20          	mov    0x20(%rbx),%rcx
  401c1a:	41 b8 01 00 00 00    	mov    $0x1,%r8d
  401c20:	ba 01 00 00 00       	mov    $0x1,%edx
  401c25:	ff d6                	callq  *%rsi
  401c27:	8b 43 38             	mov    0x38(%rbx),%eax
  401c2a:	85 c0                	test   %eax,%eax
  401c2c:	0f 85 08 05 00 00    	jne    0x40213a
  401c32:	48 8d 94 24 60 01 00 	lea    0x160(%rsp),%rdx
  401c39:	00 
  401c3a:	31 c0                	xor    %eax,%eax
  401c3c:	b9 0d 00 00 00       	mov    $0xd,%ecx
  401c41:	4c 8d 84 24 d0 01 00 	lea    0x1d0(%rsp),%r8
  401c48:	00 
  401c49:	48 8d 75 01          	lea    0x1(%rbp),%rsi
  401c4d:	45 31 c9             	xor    %r9d,%r9d
  401c50:	48 89 d7             	mov    %rdx,%rdi
  401c53:	48 c7 84 24 d0 01 00 	movq   $0x0,0x1d0(%rsp)
  401c5a:	00 00 00 00 00 
  401c5f:	48 c7 84 24 d8 01 00 	movq   $0x0,0x1d8(%rsp)
  401c66:	00 00 00 00 00 
  401c6b:	f3 48 ab             	rep stos %rax,%es:(%rdi)
  401c6e:	48 c7 84 24 e0 01 00 	movq   $0x0,0x1e0(%rsp)
  401c75:	00 00 00 00 00 
  401c7a:	4c 89 44 24 50       	mov    %r8,0x50(%rsp)
  401c7f:	49 89 f0             	mov    %rsi,%r8
  401c82:	48 89 54 24 48       	mov    %rdx,0x48(%rsp)
  401c87:	c7 84 24 60 01 00 00 	movl   $0x68,0x160(%rsp)
  401c8e:	68 00 00 00 
  401c92:	31 d2                	xor    %edx,%edx
  401c94:	48 8b 43 10          	mov    0x10(%rbx),%rax
  401c98:	c7 84 24 9c 01 00 00 	movl   $0x100,0x19c(%rsp)
  401c9f:	00 01 00 00 
  401ca3:	48 8b 4b 28          	mov    0x28(%rbx),%rcx
  401ca7:	48 c7 44 24 40 00 00 	movq   $0x0,0x40(%rsp)
  401cae:	00 00 
  401cb0:	48 c7 44 24 38 00 00 	movq   $0x0,0x38(%rsp)
  401cb7:	00 00 
  401cb9:	c7 44 24 30 00 00 00 	movl   $0x0,0x30(%rsp)
  401cc0:	00 
  401cc1:	48 89 84 24 b0 01 00 	mov    %rax,0x1b0(%rsp)
  401cc8:	00 
  401cc9:	48 8b 43 18          	mov    0x18(%rbx),%rax
  401ccd:	c7 44 24 28 01 00 00 	movl   $0x1,0x28(%rsp)
  401cd4:	00 
  401cd5:	48 c7 44 24 20 00 00 	movq   $0x0,0x20(%rsp)
  401cdc:	00 00 
  401cde:	48 89 84 24 b8 01 00 	mov    %rax,0x1b8(%rsp)
  401ce5:	00 
  401ce6:	48 8b 43 20          	mov    0x20(%rbx),%rax
  401cea:	48 89 84 24 c0 01 00 	mov    %rax,0x1c0(%rsp)
  401cf1:	00 
  401cf2:	ff 15 a0 86 00 00    	callq  *0x86a0(%rip)        # 0x40a398
  401cf8:	85 c0                	test   %eax,%eax
  401cfa:	0f 84 13 04 00 00    	je     0x402113
  401d00:	48 8b 03             	mov    (%rbx),%rax
  401d03:	48 8b 48 20          	mov    0x20(%rax),%rcx
  401d07:	48 8b 84 24 d0 01 00 	mov    0x1d0(%rsp),%rax
  401d0e:	00 
  401d0f:	48 89 8c 24 f0 01 00 	mov    %rcx,0x1f0(%rsp)
  401d16:	00 
  401d17:	48 89 84 24 f8 01 00 	mov    %rax,0x1f8(%rsp)
  401d1e:	00 
  401d1f:	ff 15 cb 87 00 00    	callq  *0x87cb(%rip)        # 0x40a4f0
  401d25:	48 8b 03             	mov    (%rbx),%rax
  401d28:	45 31 c9             	xor    %r9d,%r9d
  401d2b:	41 b8 01 00 00 00    	mov    $0x1,%r8d
  401d31:	48 8d 50 08          	lea    0x8(%rax),%rdx
  401d35:	48 89 54 24 20       	mov    %rdx,0x20(%rsp)
  401d3a:	48 8d 94 24 0f 02 00 	lea    0x20f(%rsp),%rdx
  401d41:	00 
  401d42:	48 8b 08             	mov    (%rax),%rcx
  401d45:	ff 15 9d 87 00 00    	callq  *0x879d(%rip)        # 0x40a4e8
  401d4b:	85 c0                	test   %eax,%eax
  401d4d:	0f 84 18 04 00 00    	je     0x40216b
  401d53:	45 31 c0             	xor    %r8d,%r8d
  401d56:	41 b9 ff ff ff ff    	mov    $0xffffffff,%r9d
  401d5c:	48 8d 94 24 f0 01 00 	lea    0x1f0(%rsp),%rdx
  401d63:	00 
  401d64:	b9 02 00 00 00       	mov    $0x2,%ecx
  401d69:	ff 15 e9 87 00 00    	callq  *0x87e9(%rip)        # 0x40a558
  401d6f:	85 c0                	test   %eax,%eax
  401d71:	89 84 24 08 02 00 00 	mov    %eax,0x208(%rsp)
  401d78:	0f 84 ca 03 00 00    	je     0x402148
  401d7e:	48 8d 94 24 08 02 00 	lea    0x208(%rsp),%rdx
  401d85:	00 
  401d86:	48 8b 8c 24 d0 01 00 	mov    0x1d0(%rsp),%rcx
  401d8d:	00 
  401d8e:	ff 15 e4 86 00 00    	callq  *0x86e4(%rip)        # 0x40a478
  401d94:	48 8b 35 b5 86 00 00 	mov    0x86b5(%rip),%rsi        # 0x40a450
  401d9b:	48 8b 4b 18          	mov    0x18(%rbx),%rcx
  401d9f:	ff d6                	callq  *%rsi
  401da1:	48 8b 4b 20          	mov    0x20(%rbx),%rcx
  401da5:	ff d6                	callq  *%rsi
  401da7:	48 8b 8c 24 d0 01 00 	mov    0x1d0(%rsp),%rcx
  401dae:	00 
  401daf:	48 8b 35 5a 86 00 00 	mov    0x865a(%rip),%rsi        # 0x40a410
  401db6:	ff d6                	callq  *%rsi
  401db8:	48 8b 8c 24 d8 01 00 	mov    0x1d8(%rsp),%rcx
  401dbf:	00 
  401dc0:	ff d6                	callq  *%rsi
  401dc2:	44 8b 84 24 08 02 00 	mov    0x208(%rsp),%r8d
  401dc9:	00 
  401dca:	48 8b 0b             	mov    (%rbx),%rcx
  401dcd:	48 8d 15 26 45 00 00 	lea    0x4526(%rip),%rdx        # 0x4062fa
  401dd4:	e8 e7 f8 ff ff       	callq  0x4016c0
  401dd9:	48 8b 4b 20          	mov    0x20(%rbx),%rcx
  401ddd:	48 8b 3d 5c 86 00 00 	mov    0x865c(%rip),%rdi        # 0x40a440
  401de4:	ff d7                	callq  *%rdi
  401de6:	48 8b 4b 18          	mov    0x18(%rbx),%rcx
  401dea:	ff d7                	callq  *%rdi
  401dec:	48 8b 4b 10          	mov    0x10(%rbx),%rcx
  401df0:	ff d7                	callq  *%rdi
  401df2:	eb 28                	jmp    0x401e1c
  401df4:	ff 15 86 86 00 00    	callq  *0x8686(%rip)        # 0x40a480
  401dfa:	3d 17 02 00 00       	cmp    $0x217,%eax
  401dff:	90                   	nop
  401e00:	0f 84 c7 fd ff ff    	je     0x401bcd
  401e06:	48 8b 0b             	mov    (%rbx),%rcx
  401e09:	48 8d 15 91 44 00 00 	lea    0x4491(%rip),%rdx        # 0x4062a1
  401e10:	e8 ab f8 ff ff       	callq  0x4016c0
  401e15:	48 8b 35 f4 85 00 00 	mov    0x85f4(%rip),%rsi        # 0x40a410
  401e1c:	48 8b 4b 20          	mov    0x20(%rbx),%rcx
  401e20:	ff d6                	callq  *%rsi
  401e22:	48 8b 4b 18          	mov    0x18(%rbx),%rcx
  401e26:	ff d6                	callq  *%rsi
  401e28:	48 8b 4b 10          	mov    0x10(%rbx),%rcx
  401e2c:	ff d6                	callq  *%rsi
  401e2e:	48 8b 4b 28          	mov    0x28(%rbx),%rcx
  401e32:	ff d6                	callq  *%rsi
  401e34:	31 c0                	xor    %eax,%eax
  401e36:	48 81 c4 10 02 00 00 	add    $0x210,%rsp
  401e3d:	5b                   	pop    %rbx
  401e3e:	5e                   	pop    %rsi
  401e3f:	5f                   	pop    %rdi
  401e40:	5d                   	pop    %rbp
  401e41:	41 5c                	pop    %r12
  401e43:	c3                   	retq   
  401e44:	ff 15 36 86 00 00    	callq  *0x8636(%rip)        # 0x40a480
  401e4a:	48 8b 0b             	mov    (%rbx),%rcx
  401e4d:	48 8d 15 64 42 00 00 	lea    0x4264(%rip),%rdx        # 0x4060b8
  401e54:	49 89 f9             	mov    %rdi,%r9
  401e57:	4d 89 e0             	mov    %r12,%r8
  401e5a:	89 44 24 28          	mov    %eax,0x28(%rsp)
  401e5e:	48 89 74 24 20       	mov    %rsi,0x20(%rsp)
  401e63:	e8 58 f8 ff ff       	callq  0x4016c0
  401e68:	31 c0                	xor    %eax,%eax
  401e6a:	48 81 c4 10 02 00 00 	add    $0x210,%rsp
  401e71:	5b                   	pop    %rbx
  401e72:	5e                   	pop    %rsi
  401e73:	5f                   	pop    %rdi
  401e74:	5d                   	pop    %rbp
  401e75:	41 5c                	pop    %r12
  401e77:	c3                   	retq   
  401e78:	0f 1f 84 00 00 00 00 	nopl   0x0(%rax,%rax,1)
  401e7f:	00 
  401e80:	8b 4b 34             	mov    0x34(%rbx),%ecx
  401e83:	85 c9                	test   %ecx,%ecx
  401e85:	0f 84 aa 00 00 00    	je     0x401f35
  401e8b:	ff 15 c7 85 00 00    	callq  *0x85c7(%rip)        # 0x40a458
  401e91:	4c 8d 84 24 00 02 00 	lea    0x200(%rsp),%r8
  401e98:	00 
  401e99:	ba ff 01 0f 00       	mov    $0xf01ff,%edx
  401e9e:	48 89 c1             	mov    %rax,%rcx
  401ea1:	ff 15 21 85 00 00    	callq  *0x8521(%rip)        # 0x40a3c8
  401ea7:	85 c0                	test   %eax,%eax
  401ea9:	0f 84 64 01 00 00    	je     0x402013
  401eaf:	48 8d 43 28          	lea    0x28(%rbx),%rax
  401eb3:	45 31 c0             	xor    %r8d,%r8d
  401eb6:	44 8b 4b 30          	mov    0x30(%rbx),%r9d
  401eba:	c7 44 24 20 01 00 00 	movl   $0x1,0x20(%rsp)
  401ec1:	00 
  401ec2:	ba 00 00 00 02       	mov    $0x2000000,%edx
  401ec7:	48 8b 8c 24 00 02 00 	mov    0x200(%rsp),%rcx
  401ece:	00 
  401ecf:	48 89 44 24 28       	mov    %rax,0x28(%rsp)
  401ed4:	be 01 00 00 00       	mov    $0x1,%esi
  401ed9:	ff 15 c1 84 00 00    	callq  *0x84c1(%rip)        # 0x40a3a0
  401edf:	85 c0                	test   %eax,%eax
  401ee1:	0f 84 0c 02 00 00    	je     0x4020f3
  401ee7:	48 8b 8c 24 00 02 00 	mov    0x200(%rsp),%rcx
  401eee:	00 
  401eef:	ff 15 1b 85 00 00    	callq  *0x851b(%rip)        # 0x40a410
  401ef5:	8b 53 34             	mov    0x34(%rbx),%edx
  401ef8:	85 d2                	test   %edx,%edx
  401efa:	0f 84 90 01 00 00    	je     0x402090
  401f00:	85 f6                	test   %esi,%esi
  401f02:	0f 84 2c ff ff ff    	je     0x401e34
  401f08:	e9 71 fb ff ff       	jmpq   0x401a7e
  401f0d:	0f 1f 00             	nopl   (%rax)
  401f10:	ba 5c 00 00 00       	mov    $0x5c,%edx
  401f15:	48 89 f9             	mov    %rdi,%rcx
  401f18:	e8 bb 1e 00 00       	callq  0x403dd8
  401f1d:	48 85 c0             	test   %rax,%rax
  401f20:	0f 85 07 fb ff ff    	jne    0x401a2d
  401f26:	49 89 fc             	mov    %rdi,%r12
  401f29:	48 8d 3d 84 41 00 00 	lea    0x4184(%rip),%rdi        # 0x4060b4
  401f30:	e9 ff fa ff ff       	jmpq   0x401a34
  401f35:	48 8b 03             	mov    (%rbx),%rax
  401f38:	48 8b 08             	mov    (%rax),%rcx
  401f3b:	ff 15 6f 84 00 00    	callq  *0x846f(%rip)        # 0x40a3b0
  401f41:	85 c0                	test   %eax,%eax
  401f43:	74 7b                	je     0x401fc0
  401f45:	ff 15 1d 85 00 00    	callq  *0x851d(%rip)        # 0x40a468
  401f4b:	45 31 c0             	xor    %r8d,%r8d
  401f4e:	4c 8d 8c 24 00 02 00 	lea    0x200(%rsp),%r9
  401f55:	00 
  401f56:	ba ff 01 0f 00       	mov    $0xf01ff,%edx
  401f5b:	48 89 c1             	mov    %rax,%rcx
  401f5e:	ff 15 6c 84 00 00    	callq  *0x846c(%rip)        # 0x40a3d0
  401f64:	85 c0                	test   %eax,%eax
  401f66:	0f 85 43 ff ff ff    	jne    0x401eaf
  401f6c:	ff 15 0e 85 00 00    	callq  *0x850e(%rip)        # 0x40a480
  401f72:	48 8b 0b             	mov    (%rbx),%rcx
  401f75:	48 8d 15 bc 41 00 00 	lea    0x41bc(%rip),%rdx        # 0x406138
  401f7c:	41 89 c0             	mov    %eax,%r8d
  401f7f:	31 f6                	xor    %esi,%esi
  401f81:	e8 3a f7 ff ff       	callq  0x4016c0
  401f86:	e9 6a ff ff ff       	jmpq   0x401ef5
  401f8b:	0f 1f 44 00 00       	nopl   0x0(%rax,%rax,1)
  401f90:	ff 15 ea 84 00 00    	callq  *0x84ea(%rip)        # 0x40a480
  401f96:	48 8b 0b             	mov    (%rbx),%rcx
  401f99:	4c 8d 44 24 60       	lea    0x60(%rsp),%r8
  401f9e:	48 8d 15 bb 42 00 00 	lea    0x42bb(%rip),%rdx        # 0x406260
  401fa5:	41 89 c1             	mov    %eax,%r9d
  401fa8:	e8 13 f7 ff ff       	callq  0x4016c0
  401fad:	48 8b 35 5c 84 00 00 	mov    0x845c(%rip),%rsi        # 0x40a410
  401fb4:	e9 69 fe ff ff       	jmpq   0x401e22
  401fb9:	0f 1f 80 00 00 00 00 	nopl   0x0(%rax)
  401fc0:	ff 15 ba 84 00 00    	callq  *0x84ba(%rip)        # 0x40a480
  401fc6:	48 8b 0b             	mov    (%rbx),%rcx
  401fc9:	48 8d 15 38 41 00 00 	lea    0x4138(%rip),%rdx        # 0x406108
  401fd0:	41 89 c0             	mov    %eax,%r8d
  401fd3:	e8 e8 f6 ff ff       	callq  0x4016c0
  401fd8:	e9 57 fe ff ff       	jmpq   0x401e34
  401fdd:	0f 1f 00             	nopl   (%rax)
  401fe0:	ff 15 9a 84 00 00    	callq  *0x849a(%rip)        # 0x40a480
  401fe6:	3d 17 02 00 00       	cmp    $0x217,%eax
  401feb:	0f 84 fc fb ff ff    	je     0x401bed
  401ff1:	48 8b 0b             	mov    (%rbx),%rcx
  401ff4:	48 8d 15 e1 42 00 00 	lea    0x42e1(%rip),%rdx        # 0x4062dc
  401ffb:	e8 c0 f6 ff ff       	callq  0x4016c0
  402000:	48 8b 35 09 84 00 00 	mov    0x8409(%rip),%rsi        # 0x40a410
  402007:	48 8b 3d 32 84 00 00 	mov    0x8432(%rip),%rdi        # 0x40a440
  40200e:	e9 d3 fd ff ff       	jmpq   0x401de6
  402013:	ff 15 67 84 00 00    	callq  *0x8467(%rip)        # 0x40a480
  402019:	48 8b 0b             	mov    (%rbx),%rcx
  40201c:	48 8d 15 bd 40 00 00 	lea    0x40bd(%rip),%rdx        # 0x4060e0
  402023:	41 89 c0             	mov    %eax,%r8d
  402026:	e8 95 f6 ff ff       	callq  0x4016c0
  40202b:	e9 04 fe ff ff       	jmpq   0x401e34
  402030:	ff 15 4a 84 00 00    	callq  *0x844a(%rip)        # 0x40a480
  402036:	48 8b 0b             	mov    (%rbx),%rcx
  402039:	4c 8d 44 24 60       	lea    0x60(%rsp),%r8
  40203e:	48 8d 15 7b 41 00 00 	lea    0x417b(%rip),%rdx        # 0x4061c0
  402045:	41 89 c1             	mov    %eax,%r9d
  402048:	e8 73 f6 ff ff       	callq  0x4016c0
  40204d:	48 8b 35 bc 83 00 00 	mov    0x83bc(%rip),%rsi        # 0x40a410
  402054:	e9 d5 fd ff ff       	jmpq   0x401e2e
  402059:	0f 1f 80 00 00 00 00 	nopl   0x0(%rax)
  402060:	ff 15 1a 84 00 00    	callq  *0x841a(%rip)        # 0x40a480
  402066:	48 8b 0b             	mov    (%rbx),%rcx
  402069:	4c 8d 44 24 60       	lea    0x60(%rsp),%r8
  40206e:	48 8d 15 9b 41 00 00 	lea    0x419b(%rip),%rdx        # 0x406210
  402075:	41 89 c1             	mov    %eax,%r9d
  402078:	e8 43 f6 ff ff       	callq  0x4016c0
  40207d:	48 8b 35 8c 83 00 00 	mov    0x838c(%rip),%rsi        # 0x40a410
  402084:	e9 9f fd ff ff       	jmpq   0x401e28
  402089:	0f 1f 80 00 00 00 00 	nopl   0x0(%rax)
  402090:	ff 15 4a 83 00 00    	callq  *0x834a(%rip)        # 0x40a3e0
  402096:	85 c0                	test   %eax,%eax
  402098:	0f 85 62 fe ff ff    	jne    0x401f00
  40209e:	66 90                	xchg   %ax,%ax
  4020a0:	ff 15 da 83 00 00    	callq  *0x83da(%rip)        # 0x40a480
  4020a6:	48 8b 0b             	mov    (%rbx),%rcx
  4020a9:	48 8d 15 d1 40 00 00 	lea    0x40d1(%rip),%rdx        # 0x406181
  4020b0:	41 89 c0             	mov    %eax,%r8d
  4020b3:	e8 08 f6 ff ff       	callq  0x4016c0
  4020b8:	e9 77 fd ff ff       	jmpq   0x401e34
  4020bd:	0f 1f 00             	nopl   (%rax)
  4020c0:	ff 15 ba 83 00 00    	callq  *0x83ba(%rip)        # 0x40a480
  4020c6:	3d 17 02 00 00       	cmp    $0x217,%eax
  4020cb:	0f 84 0c fb ff ff    	je     0x401bdd
  4020d1:	48 8b 0b             	mov    (%rbx),%rcx
  4020d4:	48 8d 15 e3 41 00 00 	lea    0x41e3(%rip),%rdx        # 0x4062be
  4020db:	e8 e0 f5 ff ff       	callq  0x4016c0
  4020e0:	48 8b 35 29 83 00 00 	mov    0x8329(%rip),%rsi        # 0x40a410
  4020e7:	48 8b 3d 52 83 00 00 	mov    0x8352(%rip),%rdi        # 0x40a440
  4020ee:	e9 f9 fc ff ff       	jmpq   0x401dec
  4020f3:	ff 15 87 83 00 00    	callq  *0x8387(%rip)        # 0x40a480
  4020f9:	48 8b 0b             	mov    (%rbx),%rcx
  4020fc:	48 8d 15 5d 40 00 00 	lea    0x405d(%rip),%rdx        # 0x406160
  402103:	41 89 c0             	mov    %eax,%r8d
  402106:	40 30 f6             	xor    %sil,%sil
  402109:	e8 b2 f5 ff ff       	callq  0x4016c0
  40210e:	e9 d4 fd ff ff       	jmpq   0x401ee7
  402113:	ff 15 67 83 00 00    	callq  *0x8367(%rip)        # 0x40a480
  402119:	48 8b 0b             	mov    (%rbx),%rcx
  40211c:	48 8d 15 ed 41 00 00 	lea    0x41ed(%rip),%rdx        # 0x406310
  402123:	49 89 f0             	mov    %rsi,%r8
  402126:	41 89 c1             	mov    %eax,%r9d
  402129:	e8 92 f5 ff ff       	callq  0x4016c0
  40212e:	48 8b 35 db 82 00 00 	mov    0x82db(%rip),%rsi        # 0x40a410
  402135:	e9 9f fc ff ff       	jmpq   0x401dd9
  40213a:	48 8d 4b 28          	lea    0x28(%rbx),%rcx
  40213e:	e8 3d f8 ff ff       	callq  0x401980
  402143:	e9 ea fa ff ff       	jmpq   0x401c32
  402148:	c7 84 24 08 02 00 00 	movl   $0x1234,0x208(%rsp)
  40214f:	34 12 00 00 
  402153:	ba 34 12 00 00       	mov    $0x1234,%edx
  402158:	48 8b 8c 24 d0 01 00 	mov    0x1d0(%rsp),%rcx
  40215f:	00 
  402160:	ff 15 ca 83 00 00    	callq  *0x83ca(%rip)        # 0x40a530
  402166:	e9 29 fc ff ff       	jmpq   0x401d94
  40216b:	ff 15 0f 83 00 00    	callq  *0x830f(%rip)        # 0x40a480
  402171:	e9 dd fb ff ff       	jmpq   0x401d53
  402176:	66 2e 0f 1f 84 00 00 	nopw   %cs:0x0(%rax,%rax,1)
  40217d:	00 00 00 
  402180:	41 57                	push   %r15
  402182:	41 56                	push   %r14
  402184:	41 55                	push   %r13
  402186:	41 54                	push   %r12
  402188:	55                   	push   %rbp
  402189:	57                   	push   %rdi
  40218a:	56                   	push   %rsi
  40218b:	53                   	push   %rbx
  40218c:	48 81 ec a8 00 00 00 	sub    $0xa8,%rsp
  402193:	48 89 ce             	mov    %rcx,%rsi
  402196:	b9 00 80 00 00       	mov    $0x8000,%ecx
  40219b:	e8 00 1c 00 00       	callq  0x403da0
  4021a0:	48 85 c0             	test   %rax,%rax
  4021a3:	48 89 c3             	mov    %rax,%rbx
  4021a6:	0f 84 d7 01 00 00    	je     0x402383
  4021ac:	41 b8 00 80 00 00    	mov    $0x8000,%r8d
  4021b2:	31 d2                	xor    %edx,%edx
  4021b4:	48 89 c1             	mov    %rax,%rcx
  4021b7:	e8 3c 1c 00 00       	callq  0x403df8
  4021bc:	48 8d 44 24 40       	lea    0x40(%rsp),%rax
  4021c1:	b9 0a 00 00 00       	mov    $0xa,%ecx
  4021c6:	45 31 ed             	xor    %r13d,%r13d
  4021c9:	48 89 44 24 38       	mov    %rax,0x38(%rsp)
  4021ce:	48 8b 7c 24 38       	mov    0x38(%rsp),%rdi
  4021d3:	31 c0                	xor    %eax,%eax
  4021d5:	f3 48 ab             	rep stos %rax,%es:(%rdi)
  4021d8:	48 89 f1             	mov    %rsi,%rcx
  4021db:	48 89 5c 24 48       	mov    %rbx,0x48(%rsp)
  4021e0:	bf fe 7f 00 00       	mov    $0x7ffe,%edi
  4021e5:	48 8b 2e             	mov    (%rsi),%rbp
  4021e8:	8b 46 08             	mov    0x8(%rsi),%eax
  4021eb:	48 89 de             	mov    %rbx,%rsi
  4021ee:	48 89 6c 24 40       	mov    %rbp,0x40(%rsp)
  4021f3:	89 84 24 88 00 00 00 	mov    %eax,0x88(%rsp)
  4021fa:	4c 8d 65 08          	lea    0x8(%rbp),%r12
  4021fe:	e8 fd 1b 00 00       	callq  0x403e00
  402203:	4c 8b 35 de 82 00 00 	mov    0x82de(%rip),%r14        # 0x40a4e8
  40220a:	4c 8b 3d 87 82 00 00 	mov    0x8287(%rip),%r15        # 0x40a498
  402211:	eb 22                	jmp    0x402235
  402213:	44 8b 84 24 9c 00 00 	mov    0x9c(%rsp),%r8d
  40221a:	00 
  40221b:	45 85 c0             	test   %r8d,%r8d
  40221e:	74 5a                	je     0x40227a
  402220:	80 3e 0a             	cmpb   $0xa,(%rsi)
  402223:	74 55                	je     0x40227a
  402225:	83 ef 01             	sub    $0x1,%edi
  402228:	41 83 c5 01          	add    $0x1,%r13d
  40222c:	48 83 c6 01          	add    $0x1,%rsi
  402230:	83 ff ff             	cmp    $0xffffffff,%edi
  402233:	74 45                	je     0x40227a
  402235:	4c 89 64 24 20       	mov    %r12,0x20(%rsp)
  40223a:	45 31 c9             	xor    %r9d,%r9d
  40223d:	41 b8 01 00 00 00    	mov    $0x1,%r8d
  402243:	48 89 f2             	mov    %rsi,%rdx
  402246:	48 8b 4d 00          	mov    0x0(%rbp),%rcx
  40224a:	41 ff d6             	callq  *%r14
  40224d:	85 c0                	test   %eax,%eax
  40224f:	75 0d                	jne    0x40225e
  402251:	ff 15 29 82 00 00    	callq  *0x8229(%rip)        # 0x40a480
  402257:	3d e5 03 00 00       	cmp    $0x3e5,%eax
  40225c:	75 1c                	jne    0x40227a
  40225e:	41 b9 01 00 00 00    	mov    $0x1,%r9d
  402264:	4c 8d 84 24 9c 00 00 	lea    0x9c(%rsp),%r8
  40226b:	00 
  40226c:	4c 89 e2             	mov    %r12,%rdx
  40226f:	48 8b 4d 00          	mov    0x0(%rbp),%rcx
  402273:	41 ff d7             	callq  *%r15
  402276:	85 c0                	test   %eax,%eax
  402278:	75 99                	jne    0x402213
  40227a:	45 85 ed             	test   %r13d,%r13d
  40227d:	c6 06 00             	movb   $0x0,(%rsi)
  402280:	0f 84 a0 00 00 00    	je     0x402326
  402286:	48 8b 35 73 2d 00 00 	mov    0x2d73(%rip),%rsi        # 0x405000
  40228d:	48 8d 2d 6c 2d 00 00 	lea    0x2d6c(%rip),%rbp        # 0x405000
  402294:	48 85 f6             	test   %rsi,%rsi
  402297:	74 77                	je     0x402310
  402299:	48 89 ef             	mov    %rbp,%rdi
  40229c:	eb 1d                	jmp    0x4022bb
  40229e:	66 90                	xchg   %ax,%ax
  4022a0:	48 83 c7 10          	add    $0x10,%rdi
  4022a4:	48 8d 15 65 2d 00 00 	lea    0x2d65(%rip),%rdx        # 0x405010
  4022ab:	48 89 f8             	mov    %rdi,%rax
  4022ae:	48 29 e8             	sub    %rbp,%rax
  4022b1:	48 8b 74 02 f0       	mov    -0x10(%rdx,%rax,1),%rsi
  4022b6:	48 85 f6             	test   %rsi,%rsi
  4022b9:	74 55                	je     0x402310
  4022bb:	48 89 f2             	mov    %rsi,%rdx
  4022be:	48 89 d9             	mov    %rbx,%rcx
  4022c1:	e8 1a 1b 00 00       	callq  0x403de0
  4022c6:	48 39 d8             	cmp    %rbx,%rax
  4022c9:	75 d5                	jne    0x4022a0
  4022cb:	48 89 f1             	mov    %rsi,%rcx
  4022ce:	e8 d5 1a 00 00       	callq  0x403da8
  4022d3:	0f b6 04 03          	movzbl (%rbx,%rax,1),%eax
  4022d7:	3c 20                	cmp    $0x20,%al
  4022d9:	74 04                	je     0x4022df
  4022db:	84 c0                	test   %al,%al
  4022dd:	75 c1                	jne    0x4022a0
  4022df:	48 85 f6             	test   %rsi,%rsi
  4022e2:	74 2c                	je     0x402310
  4022e4:	48 8d 4c 24 40       	lea    0x40(%rsp),%rcx
  4022e9:	ff 57 08             	callq  *0x8(%rdi)
  4022ec:	85 c0                	test   %eax,%eax
  4022ee:	74 36                	je     0x402326
  4022f0:	48 8b 6c 24 40       	mov    0x40(%rsp),%rbp
  4022f5:	48 89 de             	mov    %rbx,%rsi
  4022f8:	bf fe 7f 00 00       	mov    $0x7ffe,%edi
  4022fd:	45 31 ed             	xor    %r13d,%r13d
  402300:	4c 8d 65 08          	lea    0x8(%rbp),%r12
  402304:	e9 2c ff ff ff       	jmpq   0x402235
  402309:	0f 1f 80 00 00 00 00 	nopl   0x0(%rax)
  402310:	48 8b 4c 24 40       	mov    0x40(%rsp),%rcx
  402315:	48 8d 15 44 40 00 00 	lea    0x4044(%rip),%rdx        # 0x406360
  40231c:	49 89 d8             	mov    %rbx,%r8
  40231f:	e8 9c f3 ff ff       	callq  0x4016c0
  402324:	eb ca                	jmp    0x4022f0
  402326:	48 8b 44 24 40       	mov    0x40(%rsp),%rax
  40232b:	48 8b 08             	mov    (%rax),%rcx
  40232e:	ff 15 1c 81 00 00    	callq  *0x811c(%rip)        # 0x40a450
  402334:	48 8b 44 24 40       	mov    0x40(%rsp),%rax
  402339:	48 8b 08             	mov    (%rax),%rcx
  40233c:	ff 15 fe 80 00 00    	callq  *0x80fe(%rip)        # 0x40a440
  402342:	48 8b 44 24 40       	mov    0x40(%rsp),%rax
  402347:	48 8b 35 c2 80 00 00 	mov    0x80c2(%rip),%rsi        # 0x40a410
  40234e:	48 8b 08             	mov    (%rax),%rcx
  402351:	ff d6                	callq  *%rsi
  402353:	48 8b 44 24 40       	mov    0x40(%rsp),%rax
  402358:	48 8b 48 20          	mov    0x20(%rax),%rcx
  40235c:	ff d6                	callq  *%rsi
  40235e:	48 8b 4c 24 40       	mov    0x40(%rsp),%rcx
  402363:	e8 98 1a 00 00       	callq  0x403e00
  402368:	48 89 d9             	mov    %rbx,%rcx
  40236b:	48 81 c4 a8 00 00 00 	add    $0xa8,%rsp
  402372:	5b                   	pop    %rbx
  402373:	5e                   	pop    %rsi
  402374:	5f                   	pop    %rdi
  402375:	5d                   	pop    %rbp
  402376:	41 5c                	pop    %r12
  402378:	41 5d                	pop    %r13
  40237a:	41 5e                	pop    %r14
  40237c:	41 5f                	pop    %r15
  40237e:	e9 7d 1a 00 00       	jmpq   0x403e00
  402383:	48 8b 0e             	mov    (%rsi),%rcx
  402386:	48 8d 15 a3 3f 00 00 	lea    0x3fa3(%rip),%rdx        # 0x406330
  40238d:	e8 2e f3 ff ff       	callq  0x4016c0
  402392:	90                   	nop
  402393:	48 81 c4 a8 00 00 00 	add    $0xa8,%rsp
  40239a:	5b                   	pop    %rbx
  40239b:	5e                   	pop    %rsi
  40239c:	5f                   	pop    %rdi
  40239d:	5d                   	pop    %rbp
  40239e:	41 5c                	pop    %r12
  4023a0:	41 5d                	pop    %r13
  4023a2:	41 5e                	pop    %r14
  4023a4:	41 5f                	pop    %r15
  4023a6:	c3                   	retq   
  4023a7:	66 0f 1f 84 00 00 00 	nopw   0x0(%rax,%rax,1)
  4023ae:	00 00 
  4023b0:	41 57                	push   %r15
  4023b2:	41 56                	push   %r14
  4023b4:	41 55                	push   %r13
  4023b6:	41 54                	push   %r12
  4023b8:	55                   	push   %rbp
  4023b9:	57                   	push   %rdi
  4023ba:	56                   	push   %rsi
  4023bb:	53                   	push   %rbx
  4023bc:	48 81 ec b8 00 00 00 	sub    $0xb8,%rsp
  4023c3:	41 b9 20 02 00 00    	mov    $0x220,%r9d
  4023c9:	41 b8 20 00 00 00    	mov    $0x20,%r8d
  4023cf:	ba 02 00 00 00       	mov    $0x2,%edx
  4023d4:	48 8d 84 24 90 00 00 	lea    0x90(%rsp),%rax
  4023db:	00 
  4023dc:	48 c7 84 24 90 00 00 	movq   $0x0,0x90(%rsp)
  4023e3:	00 00 00 00 00 
  4023e8:	48 c7 84 24 98 00 00 	movq   $0x0,0x98(%rsp)
  4023ef:	00 00 00 00 00 
  4023f4:	c6 84 24 a0 00 00 00 	movb   $0x0,0xa0(%rsp)
  4023fb:	00 
  4023fc:	c6 84 24 a1 00 00 00 	movb   $0x0,0xa1(%rsp)
  402403:	00 
  402404:	48 8d 8c 24 a0 00 00 	lea    0xa0(%rsp),%rcx
  40240b:	00 
  40240c:	c6 84 24 a2 00 00 00 	movb   $0x0,0xa2(%rsp)
  402413:	00 
  402414:	c6 84 24 a3 00 00 00 	movb   $0x0,0xa3(%rsp)
  40241b:	00 
  40241c:	bb ff ff ff ff       	mov    $0xffffffff,%ebx
  402421:	c6 84 24 a4 00 00 00 	movb   $0x0,0xa4(%rsp)
  402428:	00 
  402429:	c6 84 24 a5 00 00 00 	movb   $0x5,0xa5(%rsp)
  402430:	05 
  402431:	48 89 44 24 50       	mov    %rax,0x50(%rsp)
  402436:	c7 44 24 48 00 00 00 	movl   $0x0,0x48(%rsp)
  40243d:	00 
  40243e:	c7 44 24 40 00 00 00 	movl   $0x0,0x40(%rsp)
  402445:	00 
  402446:	c7 44 24 38 00 00 00 	movl   $0x0,0x38(%rsp)
  40244d:	00 
  40244e:	c7 44 24 30 00 00 00 	movl   $0x0,0x30(%rsp)
  402455:	00 
  402456:	c7 44 24 28 00 00 00 	movl   $0x0,0x28(%rsp)
  40245d:	00 
  40245e:	c7 44 24 20 00 00 00 	movl   $0x0,0x20(%rsp)
  402465:	00 
  402466:	ff 15 24 7f 00 00    	callq  *0x7f24(%rip)        # 0x40a390
  40246c:	85 c0                	test   %eax,%eax
  40246e:	75 20                	jne    0x402490
  402470:	89 d8                	mov    %ebx,%eax
  402472:	48 81 c4 b8 00 00 00 	add    $0xb8,%rsp
  402479:	5b                   	pop    %rbx
  40247a:	5e                   	pop    %rsi
  40247b:	5f                   	pop    %rdi
  40247c:	5d                   	pop    %rbp
  40247d:	41 5c                	pop    %r12
  40247f:	41 5d                	pop    %r13
  402481:	41 5e                	pop    %r14
  402483:	41 5f                	pop    %r15
  402485:	c3                   	retq   
  402486:	66 2e 0f 1f 84 00 00 	nopw   %cs:0x0(%rax,%rax,1)
  40248d:	00 00 00 
  402490:	48 8b 84 24 90 00 00 	mov    0x90(%rsp),%rax
  402497:	00 
  402498:	45 31 c0             	xor    %r8d,%r8d
  40249b:	c7 44 24 60 ff 01 1f 	movl   $0x1f01ff,0x60(%rsp)
  4024a2:	00 
  4024a3:	c7 44 24 64 02 00 00 	movl   $0x2,0x64(%rsp)
  4024aa:	00 
  4024ab:	c7 44 24 68 00 00 00 	movl   $0x0,0x68(%rsp)
  4024b2:	00 
  4024b3:	4c 8d 8c 24 98 00 00 	lea    0x98(%rsp),%r9
  4024ba:	00 
  4024bb:	c7 44 24 7c 00 00 00 	movl   $0x0,0x7c(%rsp)
  4024c2:	00 
  4024c3:	c7 84 24 80 00 00 00 	movl   $0x2,0x80(%rsp)
  4024ca:	02 00 00 00 
  4024ce:	48 8d 54 24 60       	lea    0x60(%rsp),%rdx
  4024d3:	48 89 84 24 88 00 00 	mov    %rax,0x88(%rsp)
  4024da:	00 
  4024db:	b9 01 00 00 00       	mov    $0x1,%ecx
  4024e0:	ff 15 02 7f 00 00    	callq  *0x7f02(%rip)        # 0x40a3e8
  4024e6:	85 c0                	test   %eax,%eax
  4024e8:	75 86                	jne    0x402470
  4024ea:	ba 28 00 00 00       	mov    $0x28,%edx
  4024ef:	b9 40 00 00 00       	mov    $0x40,%ecx
  4024f4:	ff 15 de 7f 00 00    	callq  *0x7fde(%rip)        # 0x40a4d8
  4024fa:	48 85 c0             	test   %rax,%rax
  4024fd:	48 89 c6             	mov    %rax,%rsi
  402500:	0f 84 6a ff ff ff    	je     0x402470
  402506:	ba 01 00 00 00       	mov    $0x1,%edx
  40250b:	48 89 c1             	mov    %rax,%rcx
  40250e:	ff 15 a4 7e 00 00    	callq  *0x7ea4(%rip)        # 0x40a3b8
  402514:	85 c0                	test   %eax,%eax
  402516:	0f 84 54 ff ff ff    	je     0x402470
  40251c:	45 31 c9             	xor    %r9d,%r9d
  40251f:	4c 8b 84 24 98 00 00 	mov    0x98(%rsp),%r8
  402526:	00 
  402527:	ba 01 00 00 00       	mov    $0x1,%edx
  40252c:	48 89 f1             	mov    %rsi,%rcx
  40252f:	ff 15 bb 7e 00 00    	callq  *0x7ebb(%rip)        # 0x40a3f0
  402535:	85 c0                	test   %eax,%eax
  402537:	0f 84 33 ff ff ff    	je     0x402470
  40253d:	4c 8b 25 dc 7e 00 00 	mov    0x7edc(%rip),%r12        # 0x40a420
  402544:	48 8b 2d dd 7e 00 00 	mov    0x7edd(%rip),%rbp        # 0x40a428
  40254b:	48 8b 3d be 7e 00 00 	mov    0x7ebe(%rip),%rdi        # 0x40a410
  402552:	4c 8b 2d bf 7e 00 00 	mov    0x7ebf(%rip),%r13        # 0x40a418
  402559:	4c 8b 3d 20 7f 00 00 	mov    0x7f20(%rip),%r15        # 0x40a480
  402560:	4c 8b 35 c9 7e 00 00 	mov    0x7ec9(%rip),%r14        # 0x40a430
  402567:	c7 05 ef 6a 00 00 18 	movl   $0x18,0x6aef(%rip)        # 0x409060
  40256e:	00 00 00 
  402571:	48 89 35 f0 6a 00 00 	mov    %rsi,0x6af0(%rip)        # 0x409068
  402578:	c7 05 ee 6a 00 00 00 	movl   $0x0,0x6aee(%rip)        # 0x409070
  40257f:	00 00 00 
  402582:	b9 28 00 00 00       	mov    $0x28,%ecx
  402587:	e8 14 18 00 00       	callq  0x403da0
  40258c:	48 8d 70 08          	lea    0x8(%rax),%rsi
  402590:	48 89 c3             	mov    %rax,%rbx
  402593:	48 c7 40 08 00 00 00 	movq   $0x0,0x8(%rax)
  40259a:	00 
  40259b:	45 31 c9             	xor    %r9d,%r9d
  40259e:	31 c9                	xor    %ecx,%ecx
  4025a0:	41 b8 01 00 00 00    	mov    $0x1,%r8d
  4025a6:	ba 01 00 00 00       	mov    $0x1,%edx
  4025ab:	48 c7 46 08 00 00 00 	movq   $0x0,0x8(%rsi)
  4025b2:	00 
  4025b3:	48 c7 46 10 00 00 00 	movq   $0x0,0x10(%rsi)
  4025ba:	00 
  4025bb:	48 c7 46 18 00 00 00 	movq   $0x0,0x18(%rsi)
  4025c2:	00 
  4025c3:	41 ff d4             	callq  *%r12
  4025c6:	48 89 43 20          	mov    %rax,0x20(%rbx)
  4025ca:	48 8d 05 8f 6a 00 00 	lea    0x6a8f(%rip),%rax        # 0x409060
  4025d1:	45 31 c0             	xor    %r8d,%r8d
  4025d4:	c7 44 24 30 00 00 00 	movl   $0x0,0x30(%rsp)
  4025db:	00 
  4025dc:	c7 44 24 28 00 01 00 	movl   $0x100,0x28(%rsp)
  4025e3:	00 
  4025e4:	41 b9 ff 00 00 00    	mov    $0xff,%r9d
  4025ea:	48 89 44 24 38       	mov    %rax,0x38(%rsp)
  4025ef:	c7 44 24 20 00 01 00 	movl   $0x100,0x20(%rsp)
  4025f6:	00 
  4025f7:	ba 03 00 00 40       	mov    $0x40000003,%edx
  4025fc:	48 8d 0d 82 3d 00 00 	lea    0x3d82(%rip),%rcx        # 0x406385
  402603:	ff d5                	callq  *%rbp
  402605:	48 83 f8 ff          	cmp    $0xffffffffffffffff,%rax
  402609:	48 89 03             	mov    %rax,(%rbx)
  40260c:	0f 84 b3 00 00 00    	je     0x4026c5
  402612:	48 89 f2             	mov    %rsi,%rdx
  402615:	48 89 c1             	mov    %rax,%rcx
  402618:	41 ff d5             	callq  *%r13
  40261b:	85 c0                	test   %eax,%eax
  40261d:	74 21                	je     0x402640
  40261f:	48 8b 0b             	mov    (%rbx),%rcx
  402622:	ff d7                	callq  *%rdi
  402624:	48 8b 4b 20          	mov    0x20(%rbx),%rcx
  402628:	ff d7                	callq  *%rdi
  40262a:	48 89 d9             	mov    %rbx,%rcx
  40262d:	e8 ce 17 00 00       	callq  0x403e00
  402632:	e9 4b ff ff ff       	jmpq   0x402582
  402637:	66 0f 1f 84 00 00 00 	nopw   0x0(%rax,%rax,1)
  40263e:	00 00 
  402640:	41 ff d7             	callq  *%r15
  402643:	3d 17 02 00 00       	cmp    $0x217,%eax
  402648:	74 25                	je     0x40266f
  40264a:	3d e5 03 00 00       	cmp    $0x3e5,%eax
  40264f:	75 ce                	jne    0x40261f
  402651:	41 b9 01 00 00 00    	mov    $0x1,%r9d
  402657:	4c 8d 84 24 ac 00 00 	lea    0xac(%rsp),%r8
  40265e:	00 
  40265f:	48 89 f2             	mov    %rsi,%rdx
  402662:	48 8b 0b             	mov    (%rbx),%rcx
  402665:	ff 15 2d 7e 00 00    	callq  *0x7e2d(%rip)        # 0x40a498
  40266b:	85 c0                	test   %eax,%eax
  40266d:	74 b0                	je     0x40261f
  40266f:	b9 10 00 00 00       	mov    $0x10,%ecx
  402674:	e8 27 17 00 00       	callq  0x403da0
  402679:	48 89 18             	mov    %rbx,(%rax)
  40267c:	49 89 c1             	mov    %rax,%r9
  40267f:	8b 05 f3 69 00 00    	mov    0x69f3(%rip),%eax        # 0x409078
  402685:	31 d2                	xor    %edx,%edx
  402687:	31 c9                	xor    %ecx,%ecx
  402689:	4c 8d 05 f0 fa ff ff 	lea    -0x510(%rip),%r8        # 0x402180
  402690:	83 c0 01             	add    $0x1,%eax
  402693:	41 89 41 08          	mov    %eax,0x8(%r9)
  402697:	89 05 db 69 00 00    	mov    %eax,0x69db(%rip)        # 0x409078
  40269d:	48 c7 44 24 28 00 00 	movq   $0x0,0x28(%rsp)
  4026a4:	00 00 
  4026a6:	c7 44 24 20 00 00 00 	movl   $0x0,0x20(%rsp)
  4026ad:	00 
  4026ae:	41 ff d6             	callq  *%r14
  4026b1:	48 85 c0             	test   %rax,%rax
  4026b4:	0f 84 65 ff ff ff    	je     0x40261f
  4026ba:	48 89 c1             	mov    %rax,%rcx
  4026bd:	ff d7                	callq  *%rdi
  4026bf:	90                   	nop
  4026c0:	e9 bd fe ff ff       	jmpq   0x402582
  4026c5:	48 8b 4b 20          	mov    0x20(%rbx),%rcx
  4026c9:	ff d7                	callq  *%rdi
  4026cb:	48 89 d9             	mov    %rbx,%rcx
  4026ce:	31 db                	xor    %ebx,%ebx
  4026d0:	e8 2b 17 00 00       	callq  0x403e00
  4026d5:	e9 96 fd ff ff       	jmpq   0x402470
  4026da:	90                   	nop
  4026db:	90                   	nop
  4026dc:	90                   	nop
  4026dd:	90                   	nop
  4026de:	90                   	nop
  4026df:	90                   	nop
  4026e0:	ff 25 b2 7f 00 00    	jmpq   *0x7fb2(%rip)        # 0x40a698
  4026e6:	90                   	nop
  4026e7:	90                   	nop
	...
  4026f0:	48 83 ec 28          	sub    $0x28,%rsp
  4026f4:	85 d2                	test   %edx,%edx
  4026f6:	74 18                	je     0x402710
  4026f8:	83 fa 03             	cmp    $0x3,%edx
  4026fb:	74 13                	je     0x402710
  4026fd:	b8 01 00 00 00       	mov    $0x1,%eax
  402702:	48 83 c4 28          	add    $0x28,%rsp
  402706:	c3                   	retq   
  402707:	66 0f 1f 84 00 00 00 	nopw   0x0(%rax,%rax,1)
  40270e:	00 00 
  402710:	e8 7b 15 00 00       	callq  0x403c90
  402715:	b8 01 00 00 00       	mov    $0x1,%eax
  40271a:	48 83 c4 28          	add    $0x28,%rsp
  40271e:	c3                   	retq   
  40271f:	90                   	nop
  402720:	56                   	push   %rsi
  402721:	53                   	push   %rbx
  402722:	48 83 ec 28          	sub    $0x28,%rsp
  402726:	83 3d 63 29 00 00 02 	cmpl   $0x2,0x2963(%rip)        # 0x405090
  40272d:	74 0a                	je     0x402739
  40272f:	c7 05 57 29 00 00 02 	movl   $0x2,0x2957(%rip)        # 0x405090
  402736:	00 00 00 
  402739:	83 fa 02             	cmp    $0x2,%edx
  40273c:	74 12                	je     0x402750
  40273e:	83 fa 01             	cmp    $0x1,%edx
  402741:	74 3f                	je     0x402782
  402743:	b8 01 00 00 00       	mov    $0x1,%eax
  402748:	48 83 c4 28          	add    $0x28,%rsp
  40274c:	5b                   	pop    %rbx
  40274d:	5e                   	pop    %rsi
  40274e:	c3                   	retq   
  40274f:	90                   	nop
  402750:	48 8d 1d 09 89 00 00 	lea    0x8909(%rip),%rbx        # 0x40b060
  402757:	48 8d 35 02 89 00 00 	lea    0x8902(%rip),%rsi        # 0x40b060
  40275e:	48 39 f3             	cmp    %rsi,%rbx
  402761:	74 e0                	je     0x402743
  402763:	48 8b 03             	mov    (%rbx),%rax
  402766:	48 85 c0             	test   %rax,%rax
  402769:	74 02                	je     0x40276d
  40276b:	ff d0                	callq  *%rax
  40276d:	48 83 c3 08          	add    $0x8,%rbx
  402771:	48 39 de             	cmp    %rbx,%rsi
  402774:	75 ed                	jne    0x402763
  402776:	b8 01 00 00 00       	mov    $0x1,%eax
  40277b:	48 83 c4 28          	add    $0x28,%rsp
  40277f:	5b                   	pop    %rbx
  402780:	5e                   	pop    %rsi
  402781:	c3                   	retq   
  402782:	e8 09 15 00 00       	callq  0x403c90
  402787:	eb ba                	jmp    0x402743
  402789:	0f 1f 80 00 00 00 00 	nopl   0x0(%rax)
  402790:	31 c0                	xor    %eax,%eax
  402792:	c3                   	retq   
  402793:	90                   	nop
  402794:	90                   	nop
  402795:	90                   	nop
  402796:	90                   	nop
  402797:	90                   	nop
  402798:	90                   	nop
  402799:	90                   	nop
  40279a:	90                   	nop
  40279b:	90                   	nop
  40279c:	90                   	nop
  40279d:	90                   	nop
  40279e:	90                   	nop
  40279f:	90                   	nop
  4027a0:	48 8b 05 01 7e 00 00 	mov    0x7e01(%rip),%rax        # 0x40a5a8
  4027a7:	48 ff e0             	rex.W jmpq *%rax
  4027aa:	90                   	nop
  4027ab:	90                   	nop
  4027ac:	90                   	nop
  4027ad:	90                   	nop
  4027ae:	90                   	nop
  4027af:	90                   	nop
  4027b0:	48 89 c8             	mov    %rcx,%rax
  4027b3:	c3                   	retq   
  4027b4:	66 66 66 2e 0f 1f 84 	data16 data16 nopw %cs:0x0(%rax,%rax,1)
  4027bb:	00 00 00 00 00 
  4027c0:	48 89 c8             	mov    %rcx,%rax
  4027c3:	c3                   	retq   
  4027c4:	90                   	nop
  4027c5:	90                   	nop
  4027c6:	90                   	nop
  4027c7:	90                   	nop
  4027c8:	90                   	nop
  4027c9:	90                   	nop
  4027ca:	90                   	nop
  4027cb:	90                   	nop
  4027cc:	90                   	nop
  4027cd:	90                   	nop
  4027ce:	90                   	nop
  4027cf:	90                   	nop
  4027d0:	53                   	push   %rbx
  4027d1:	48 83 ec 30          	sub    $0x30,%rsp
  4027d5:	48 89 cb             	mov    %rcx,%rbx
  4027d8:	48 8b 0d 09 72 00 00 	mov    0x7209(%rip),%rcx        # 0x4099e8
  4027df:	e8 cc ff ff ff       	callq  0x4027b0
  4027e4:	48 83 f8 ff          	cmp    $0xffffffffffffffff,%rax
  4027e8:	48 89 44 24 20       	mov    %rax,0x20(%rsp)
  4027ed:	74 76                	je     0x402865
  4027ef:	b9 08 00 00 00       	mov    $0x8,%ecx
  4027f4:	e8 1f 16 00 00       	callq  0x403e18
  4027f9:	48 8b 0d e8 71 00 00 	mov    0x71e8(%rip),%rcx        # 0x4099e8
  402800:	e8 ab ff ff ff       	callq  0x4027b0
  402805:	48 8b 0d e4 71 00 00 	mov    0x71e4(%rip),%rcx        # 0x4099f0
  40280c:	48 89 44 24 20       	mov    %rax,0x20(%rsp)
  402811:	e8 9a ff ff ff       	callq  0x4027b0
  402816:	4c 8d 44 24 28       	lea    0x28(%rsp),%r8
  40281b:	48 8d 54 24 20       	lea    0x20(%rsp),%rdx
  402820:	48 89 d9             	mov    %rbx,%rcx
  402823:	48 89 44 24 28       	mov    %rax,0x28(%rsp)
  402828:	e8 f3 15 00 00       	callq  0x403e20
  40282d:	48 8b 4c 24 20       	mov    0x20(%rsp),%rcx
  402832:	48 89 c3             	mov    %rax,%rbx
  402835:	e8 86 ff ff ff       	callq  0x4027c0
  40283a:	48 8b 4c 24 28       	mov    0x28(%rsp),%rcx
  40283f:	48 89 05 a2 71 00 00 	mov    %rax,0x71a2(%rip)        # 0x4099e8
  402846:	e8 75 ff ff ff       	callq  0x4027c0
  40284b:	b9 08 00 00 00       	mov    $0x8,%ecx
  402850:	48 89 05 99 71 00 00 	mov    %rax,0x7199(%rip)        # 0x4099f0
  402857:	e8 cc 15 00 00       	callq  0x403e28
  40285c:	48 89 d8             	mov    %rbx,%rax
  40285f:	48 83 c4 30          	add    $0x30,%rsp
  402863:	5b                   	pop    %rbx
  402864:	c3                   	retq   
  402865:	48 89 d9             	mov    %rbx,%rcx
  402868:	ff 15 82 7d 00 00    	callq  *0x7d82(%rip)        # 0x40a5f0
  40286e:	48 89 c3             	mov    %rax,%rbx
  402871:	48 89 d8             	mov    %rbx,%rax
  402874:	48 83 c4 30          	add    $0x30,%rsp
  402878:	5b                   	pop    %rbx
  402879:	c3                   	retq   
  40287a:	66 0f 1f 44 00 00    	nopw   0x0(%rax,%rax,1)
  402880:	48 83 ec 28          	sub    $0x28,%rsp
  402884:	e8 47 ff ff ff       	callq  0x4027d0
  402889:	48 83 f8 01          	cmp    $0x1,%rax
  40288d:	19 c0                	sbb    %eax,%eax
  40288f:	48 83 c4 28          	add    $0x28,%rsp
  402893:	c3                   	retq   
  402894:	90                   	nop
  402895:	90                   	nop
  402896:	90                   	nop
  402897:	90                   	nop
  402898:	90                   	nop
  402899:	90                   	nop
  40289a:	90                   	nop
  40289b:	90                   	nop
  40289c:	90                   	nop
  40289d:	90                   	nop
  40289e:	90                   	nop
  40289f:	90                   	nop
  4028a0:	53                   	push   %rbx
  4028a1:	48 83 ec 30          	sub    $0x30,%rsp
  4028a5:	8b 01                	mov    (%rcx),%eax
  4028a7:	3d 91 00 00 c0       	cmp    $0xc0000091,%eax
  4028ac:	77 42                	ja     0x4028f0
  4028ae:	3d 8d 00 00 c0       	cmp    $0xc000008d,%eax
  4028b3:	72 6b                	jb     0x402920
  4028b5:	bb 01 00 00 00       	mov    $0x1,%ebx
  4028ba:	31 d2                	xor    %edx,%edx
  4028bc:	b9 08 00 00 00       	mov    $0x8,%ecx
  4028c1:	e8 6a 15 00 00       	callq  0x403e30
  4028c6:	48 83 f8 01          	cmp    $0x1,%rax
  4028ca:	48 89 c2             	mov    %rax,%rdx
  4028cd:	0f 84 1d 01 00 00    	je     0x4029f0
  4028d3:	48 85 d2             	test   %rdx,%rdx
  4028d6:	b8 01 00 00 00       	mov    $0x1,%eax
  4028db:	74 09                	je     0x4028e6
  4028dd:	b9 08 00 00 00       	mov    $0x8,%ecx
  4028e2:	ff d2                	callq  *%rdx
  4028e4:	31 c0                	xor    %eax,%eax
  4028e6:	48 83 c4 30          	add    $0x30,%rsp
  4028ea:	5b                   	pop    %rbx
  4028eb:	c3                   	retq   
  4028ec:	0f 1f 40 00          	nopl   0x0(%rax)
  4028f0:	3d 94 00 00 c0       	cmp    $0xc0000094,%eax
  4028f5:	0f 84 c5 00 00 00    	je     0x4029c0
  4028fb:	77 77                	ja     0x402974
  4028fd:	3d 92 00 00 c0       	cmp    $0xc0000092,%eax
  402902:	0f 84 da 00 00 00    	je     0x4029e2
  402908:	3d 93 00 00 c0       	cmp    $0xc0000093,%eax
  40290d:	74 a6                	je     0x4028b5
  40290f:	b8 01 00 00 00       	mov    $0x1,%eax
  402914:	48 83 c4 30          	add    $0x30,%rsp
  402918:	5b                   	pop    %rbx
  402919:	c3                   	retq   
  40291a:	66 0f 1f 44 00 00    	nopw   0x0(%rax,%rax,1)
  402920:	3d 08 00 00 c0       	cmp    $0xc0000008,%eax
  402925:	0f 84 b7 00 00 00    	je     0x4029e2
  40292b:	0f 87 9f 00 00 00    	ja     0x4029d0
  402931:	3d 02 00 00 80       	cmp    $0x80000002,%eax
  402936:	0f 84 a6 00 00 00    	je     0x4029e2
  40293c:	3d 05 00 00 c0       	cmp    $0xc0000005,%eax
  402941:	75 cc                	jne    0x40290f
  402943:	31 d2                	xor    %edx,%edx
  402945:	b9 0b 00 00 00       	mov    $0xb,%ecx
  40294a:	e8 e1 14 00 00       	callq  0x403e30
  40294f:	48 83 f8 01          	cmp    $0x1,%rax
  402953:	48 89 c2             	mov    %rax,%rdx
  402956:	0f 84 ba 00 00 00    	je     0x402a16
  40295c:	48 85 d2             	test   %rdx,%rdx
  40295f:	b8 04 00 00 00       	mov    $0x4,%eax
  402964:	74 80                	je     0x4028e6
  402966:	b9 0b 00 00 00       	mov    $0xb,%ecx
  40296b:	ff d2                	callq  *%rdx
  40296d:	31 c0                	xor    %eax,%eax
  40296f:	e9 72 ff ff ff       	jmpq   0x4028e6
  402974:	3d 95 00 00 c0       	cmp    $0xc0000095,%eax
  402979:	74 67                	je     0x4029e2
  40297b:	3d 96 00 00 c0       	cmp    $0xc0000096,%eax
  402980:	75 8d                	jne    0x40290f
  402982:	31 d2                	xor    %edx,%edx
  402984:	b9 04 00 00 00       	mov    $0x4,%ecx
  402989:	e8 a2 14 00 00       	callq  0x403e30
  40298e:	48 83 f8 01          	cmp    $0x1,%rax
  402992:	48 89 c2             	mov    %rax,%rdx
  402995:	0f 84 8c 00 00 00    	je     0x402a27
  40299b:	48 85 d2             	test   %rdx,%rdx
  40299e:	b8 04 00 00 00       	mov    $0x4,%eax
  4029a3:	0f 84 3d ff ff ff    	je     0x4028e6
  4029a9:	b9 04 00 00 00       	mov    $0x4,%ecx
  4029ae:	ff d2                	callq  *%rdx
  4029b0:	31 c0                	xor    %eax,%eax
  4029b2:	e9 2f ff ff ff       	jmpq   0x4028e6
  4029b7:	66 0f 1f 84 00 00 00 	nopw   0x0(%rax,%rax,1)
  4029be:	00 00 
  4029c0:	31 db                	xor    %ebx,%ebx
  4029c2:	e9 f3 fe ff ff       	jmpq   0x4028ba
  4029c7:	66 0f 1f 84 00 00 00 	nopw   0x0(%rax,%rax,1)
  4029ce:	00 00 
  4029d0:	3d 1d 00 00 c0       	cmp    $0xc000001d,%eax
  4029d5:	74 ab                	je     0x402982
  4029d7:	3d 8c 00 00 c0       	cmp    $0xc000008c,%eax
  4029dc:	0f 85 2d ff ff ff    	jne    0x40290f
  4029e2:	31 c0                	xor    %eax,%eax
  4029e4:	48 83 c4 30          	add    $0x30,%rsp
  4029e8:	5b                   	pop    %rbx
  4029e9:	c3                   	retq   
  4029ea:	66 0f 1f 44 00 00    	nopw   0x0(%rax,%rax,1)
  4029f0:	b9 08 00 00 00       	mov    $0x8,%ecx
  4029f5:	e8 36 14 00 00       	callq  0x403e30
  4029fa:	31 c0                	xor    %eax,%eax
  4029fc:	85 db                	test   %ebx,%ebx
  4029fe:	0f 84 e2 fe ff ff    	je     0x4028e6
  402a04:	89 44 24 28          	mov    %eax,0x28(%rsp)
  402a08:	e8 53 0e 00 00       	callq  0x403860
  402a0d:	8b 44 24 28          	mov    0x28(%rsp),%eax
  402a11:	e9 d0 fe ff ff       	jmpq   0x4028e6
  402a16:	b9 0b 00 00 00       	mov    $0xb,%ecx
  402a1b:	e8 10 14 00 00       	callq  0x403e30
  402a20:	31 c0                	xor    %eax,%eax
  402a22:	e9 bf fe ff ff       	jmpq   0x4028e6
  402a27:	b9 04 00 00 00       	mov    $0x4,%ecx
  402a2c:	e8 ff 13 00 00       	callq  0x403e30
  402a31:	31 c0                	xor    %eax,%eax
  402a33:	e9 ae fe ff ff       	jmpq   0x4028e6
  402a38:	0f 1f 84 00 00 00 00 	nopl   0x0(%rax,%rax,1)
  402a3f:	00 
  402a40:	41 54                	push   %r12
  402a42:	55                   	push   %rbp
  402a43:	57                   	push   %rdi
  402a44:	56                   	push   %rsi
  402a45:	53                   	push   %rbx
  402a46:	48 83 ec 20          	sub    $0x20,%rsp
  402a4a:	e8 31 0c 00 00       	callq  0x403680
  402a4f:	48 89 c3             	mov    %rax,%rbx
  402a52:	8b 05 90 66 00 00    	mov    0x6690(%rip),%eax        # 0x4090e8
  402a58:	48 85 db             	test   %rbx,%rbx
  402a5b:	75 13                	jne    0x402a70
  402a5d:	48 83 c4 20          	add    $0x20,%rsp
  402a61:	5b                   	pop    %rbx
  402a62:	5e                   	pop    %rsi
  402a63:	5f                   	pop    %rdi
  402a64:	5d                   	pop    %rbp
  402a65:	41 5c                	pop    %r12
  402a67:	c3                   	retq   
  402a68:	0f 1f 84 00 00 00 00 	nopl   0x0(%rax,%rax,1)
  402a6f:	00 
  402a70:	85 c0                	test   %eax,%eax
  402a72:	75 e9                	jne    0x402a5d
  402a74:	48 8d 0d 35 39 00 00 	lea    0x3935(%rip),%rcx        # 0x4063b0
  402a7b:	c7 05 63 66 00 00 01 	movl   $0x1,0x6663(%rip)        # 0x4090e8
  402a82:	00 00 00 
  402a85:	e8 66 0a 00 00       	callq  0x4034f0
  402a8a:	49 89 c0             	mov    %rax,%r8
  402a8d:	b8 01 00 00 00       	mov    $0x1,%eax
  402a92:	4d 85 c0             	test   %r8,%r8
  402a95:	75 c6                	jne    0x402a5d
  402a97:	48 8d 15 62 66 00 00 	lea    0x6662(%rip),%rdx        # 0x409100
  402a9e:	4c 89 c0             	mov    %r8,%rax
  402aa1:	b9 30 00 00 00       	mov    $0x30,%ecx
  402aa6:	48 8d 35 d3 67 00 00 	lea    0x67d3(%rip),%rsi        # 0x409280
  402aad:	4c 8d 25 ec fd ff ff 	lea    -0x214(%rip),%r12        # 0x4028a0
  402ab4:	48 89 d7             	mov    %rdx,%rdi
  402ab7:	48 89 d5             	mov    %rdx,%rbp
  402aba:	f3 48 ab             	rep stos %rax,%es:(%rdi)
  402abd:	48 89 f7             	mov    %rsi,%rdi
  402ac0:	49 29 dc             	sub    %rbx,%r12
  402ac3:	b1 20                	mov    $0x20,%cl
  402ac5:	f3 48 ab             	rep stos %rax,%es:(%rdi)
  402ac8:	31 ff                	xor    %edi,%edi
  402aca:	eb 37                	jmp    0x402b03
  402acc:	0f 1f 40 00          	nopl   0x0(%rax)
  402ad0:	48 8d 15 ad 67 00 00 	lea    0x67ad(%rip),%rdx        # 0x409284
  402ad7:	c6 04 fe 09          	movb   $0x9,(%rsi,%rdi,8)
  402adb:	44 89 24 fa          	mov    %r12d,(%rdx,%rdi,8)
  402adf:	8b 50 0c             	mov    0xc(%rax),%edx
  402ae2:	89 55 00             	mov    %edx,0x0(%rbp)
  402ae5:	03 50 08             	add    0x8(%rax),%edx
  402ae8:	48 8d 04 fe          	lea    (%rsi,%rdi,8),%rax
  402aec:	48 83 c7 01          	add    $0x1,%rdi
  402af0:	48 29 d8             	sub    %rbx,%rax
  402af3:	89 45 08             	mov    %eax,0x8(%rbp)
  402af6:	89 55 04             	mov    %edx,0x4(%rbp)
  402af9:	48 83 c5 0c          	add    $0xc,%rbp
  402afd:	48 83 ff 20          	cmp    $0x20,%rdi
  402b01:	74 1d                	je     0x402b20
  402b03:	48 89 f9             	mov    %rdi,%rcx
  402b06:	e8 f5 0a 00 00       	callq  0x403600
  402b0b:	48 85 c0             	test   %rax,%rax
  402b0e:	75 c0                	jne    0x402ad0
  402b10:	48 85 ff             	test   %rdi,%rdi
  402b13:	75 2a                	jne    0x402b3f
  402b15:	b8 01 00 00 00       	mov    $0x1,%eax
  402b1a:	e9 3e ff ff ff       	jmpq   0x402a5d
  402b1f:	90                   	nop
  402b20:	ba 20 00 00 00       	mov    $0x20,%edx
  402b25:	49 89 d8             	mov    %rbx,%r8
  402b28:	48 8d 0d d1 65 00 00 	lea    0x65d1(%rip),%rcx        # 0x409100
  402b2f:	ff 15 c3 79 00 00    	callq  *0x79c3(%rip)        # 0x40a4f8
  402b35:	b8 01 00 00 00       	mov    $0x1,%eax
  402b3a:	e9 1e ff ff ff       	jmpq   0x402a5d
  402b3f:	89 fa                	mov    %edi,%edx
  402b41:	eb e2                	jmp    0x402b25
  402b43:	66 66 66 66 2e 0f 1f 	data16 data16 data16 nopw %cs:0x0(%rax,%rax,1)
  402b4a:	84 00 00 00 00 00 
  402b50:	56                   	push   %rsi
  402b51:	53                   	push   %rbx
  402b52:	48 83 ec 38          	sub    $0x38,%rsp
  402b56:	48 8b 11             	mov    (%rcx),%rdx
  402b59:	48 89 cb             	mov    %rcx,%rbx
  402b5c:	8b 02                	mov    (%rdx),%eax
  402b5e:	89 c1                	mov    %eax,%ecx
  402b60:	81 e1 ff ff ff 20    	and    $0x20ffffff,%ecx
  402b66:	81 f9 43 43 47 20    	cmp    $0x20474343,%ecx
  402b6c:	0f 84 8e 00 00 00    	je     0x402c00
  402b72:	3d 91 00 00 c0       	cmp    $0xc0000091,%eax
  402b77:	76 47                	jbe    0x402bc0
  402b79:	3d 94 00 00 c0       	cmp    $0xc0000094,%eax
  402b7e:	0f 84 31 01 00 00    	je     0x402cb5
  402b84:	0f 87 e7 00 00 00    	ja     0x402c71
  402b8a:	3d 92 00 00 c0       	cmp    $0xc0000092,%eax
  402b8f:	74 7f                	je     0x402c10
  402b91:	3d 93 00 00 c0       	cmp    $0xc0000093,%eax
  402b96:	74 2f                	je     0x402bc7
  402b98:	0f 1f 84 00 00 00 00 	nopl   0x0(%rax,%rax,1)
  402b9f:	00 
  402ba0:	48 8b 05 39 65 00 00 	mov    0x6539(%rip),%rax        # 0x4090e0
  402ba7:	48 85 c0             	test   %rax,%rax
  402baa:	0f 84 30 01 00 00    	je     0x402ce0
  402bb0:	48 89 d9             	mov    %rbx,%rcx
  402bb3:	48 83 c4 38          	add    $0x38,%rsp
  402bb7:	5b                   	pop    %rbx
  402bb8:	5e                   	pop    %rsi
  402bb9:	48 ff e0             	rex.W jmpq *%rax
  402bbc:	0f 1f 40 00          	nopl   0x0(%rax)
  402bc0:	3d 8d 00 00 c0       	cmp    $0xc000008d,%eax
  402bc5:	72 59                	jb     0x402c20
  402bc7:	be 01 00 00 00       	mov    $0x1,%esi
  402bcc:	31 d2                	xor    %edx,%edx
  402bce:	b9 08 00 00 00       	mov    $0x8,%ecx
  402bd3:	e8 58 12 00 00       	callq  0x403e30
  402bd8:	48 83 f8 01          	cmp    $0x1,%rax
  402bdc:	0f 84 0e 01 00 00    	je     0x402cf0
  402be2:	48 85 c0             	test   %rax,%rax
  402be5:	74 b9                	je     0x402ba0
  402be7:	b9 08 00 00 00       	mov    $0x8,%ecx
  402bec:	ff d0                	callq  *%rax
  402bee:	b8 ff ff ff ff       	mov    $0xffffffff,%eax
  402bf3:	48 83 c4 38          	add    $0x38,%rsp
  402bf7:	5b                   	pop    %rbx
  402bf8:	5e                   	pop    %rsi
  402bf9:	c3                   	retq   
  402bfa:	66 0f 1f 44 00 00    	nopw   0x0(%rax,%rax,1)
  402c00:	f6 42 04 01          	testb  $0x1,0x4(%rdx)
  402c04:	0f 85 68 ff ff ff    	jne    0x402b72
  402c0a:	66 0f 1f 44 00 00    	nopw   0x0(%rax,%rax,1)
  402c10:	b8 ff ff ff ff       	mov    $0xffffffff,%eax
  402c15:	48 83 c4 38          	add    $0x38,%rsp
  402c19:	5b                   	pop    %rbx
  402c1a:	5e                   	pop    %rsi
  402c1b:	c3                   	retq   
  402c1c:	0f 1f 40 00          	nopl   0x0(%rax)
  402c20:	3d 08 00 00 c0       	cmp    $0xc0000008,%eax
  402c25:	74 e9                	je     0x402c10
  402c27:	0f 87 93 00 00 00    	ja     0x402cc0
  402c2d:	3d 02 00 00 80       	cmp    $0x80000002,%eax
  402c32:	74 dc                	je     0x402c10
  402c34:	3d 05 00 00 c0       	cmp    $0xc0000005,%eax
  402c39:	0f 85 61 ff ff ff    	jne    0x402ba0
  402c3f:	31 d2                	xor    %edx,%edx
  402c41:	b9 0b 00 00 00       	mov    $0xb,%ecx
  402c46:	e8 e5 11 00 00       	callq  0x403e30
  402c4b:	48 83 f8 01          	cmp    $0x1,%rax
  402c4f:	0f 84 cb 00 00 00    	je     0x402d20
  402c55:	48 85 c0             	test   %rax,%rax
  402c58:	0f 84 42 ff ff ff    	je     0x402ba0
  402c5e:	b9 0b 00 00 00       	mov    $0xb,%ecx
  402c63:	ff d0                	callq  *%rax
  402c65:	b8 ff ff ff ff       	mov    $0xffffffff,%eax
  402c6a:	48 83 c4 38          	add    $0x38,%rsp
  402c6e:	5b                   	pop    %rbx
  402c6f:	5e                   	pop    %rsi
  402c70:	c3                   	retq   
  402c71:	3d 95 00 00 c0       	cmp    $0xc0000095,%eax
  402c76:	74 98                	je     0x402c10
  402c78:	3d 96 00 00 c0       	cmp    $0xc0000096,%eax
  402c7d:	0f 85 1d ff ff ff    	jne    0x402ba0
  402c83:	31 d2                	xor    %edx,%edx
  402c85:	b9 04 00 00 00       	mov    $0x4,%ecx
  402c8a:	e8 a1 11 00 00       	callq  0x403e30
  402c8f:	48 83 f8 01          	cmp    $0x1,%rax
  402c93:	0f 84 a7 00 00 00    	je     0x402d40
  402c99:	48 85 c0             	test   %rax,%rax
  402c9c:	0f 84 fe fe ff ff    	je     0x402ba0
  402ca2:	b9 04 00 00 00       	mov    $0x4,%ecx
  402ca7:	ff d0                	callq  *%rax
  402ca9:	b8 ff ff ff ff       	mov    $0xffffffff,%eax
  402cae:	48 83 c4 38          	add    $0x38,%rsp
  402cb2:	5b                   	pop    %rbx
  402cb3:	5e                   	pop    %rsi
  402cb4:	c3                   	retq   
  402cb5:	31 f6                	xor    %esi,%esi
  402cb7:	e9 10 ff ff ff       	jmpq   0x402bcc
  402cbc:	0f 1f 40 00          	nopl   0x0(%rax)
  402cc0:	3d 1d 00 00 c0       	cmp    $0xc000001d,%eax
  402cc5:	74 bc                	je     0x402c83
  402cc7:	3d 8c 00 00 c0       	cmp    $0xc000008c,%eax
  402ccc:	0f 85 ce fe ff ff    	jne    0x402ba0
  402cd2:	e9 39 ff ff ff       	jmpq   0x402c10
  402cd7:	66 0f 1f 84 00 00 00 	nopw   0x0(%rax,%rax,1)
  402cde:	00 00 
  402ce0:	31 c0                	xor    %eax,%eax
  402ce2:	e9 0c ff ff ff       	jmpq   0x402bf3
  402ce7:	66 0f 1f 84 00 00 00 	nopw   0x0(%rax,%rax,1)
  402cee:	00 00 
  402cf0:	ba 01 00 00 00       	mov    $0x1,%edx
  402cf5:	b9 08 00 00 00       	mov    $0x8,%ecx
  402cfa:	e8 31 11 00 00       	callq  0x403e30
  402cff:	85 f6                	test   %esi,%esi
  402d01:	b8 ff ff ff ff       	mov    $0xffffffff,%eax
  402d06:	0f 84 e7 fe ff ff    	je     0x402bf3
  402d0c:	89 44 24 28          	mov    %eax,0x28(%rsp)
  402d10:	e8 4b 0b 00 00       	callq  0x403860
  402d15:	8b 44 24 28          	mov    0x28(%rsp),%eax
  402d19:	e9 d5 fe ff ff       	jmpq   0x402bf3
  402d1e:	66 90                	xchg   %ax,%ax
  402d20:	ba 01 00 00 00       	mov    $0x1,%edx
  402d25:	b9 0b 00 00 00       	mov    $0xb,%ecx
  402d2a:	e8 01 11 00 00       	callq  0x403e30
  402d2f:	b8 ff ff ff ff       	mov    $0xffffffff,%eax
  402d34:	e9 ba fe ff ff       	jmpq   0x402bf3
  402d39:	0f 1f 80 00 00 00 00 	nopl   0x0(%rax)
  402d40:	ba 01 00 00 00       	mov    $0x1,%edx
  402d45:	b9 04 00 00 00       	mov    $0x4,%ecx
  402d4a:	e8 e1 10 00 00       	callq  0x403e30
  402d4f:	b8 ff ff ff ff       	mov    $0xffffffff,%eax
  402d54:	e9 9a fe ff ff       	jmpq   0x402bf3
  402d59:	90                   	nop
  402d5a:	90                   	nop
  402d5b:	90                   	nop
  402d5c:	90                   	nop
  402d5d:	90                   	nop
  402d5e:	90                   	nop
  402d5f:	90                   	nop
  402d60:	48 83 ec 58          	sub    $0x58,%rsp
  402d64:	48 8b 05 15 66 00 00 	mov    0x6615(%rip),%rax        # 0x409380
  402d6b:	48 85 c0             	test   %rax,%rax
  402d6e:	74 2a                	je     0x402d9a
  402d70:	48 89 54 24 28       	mov    %rdx,0x28(%rsp)
  402d75:	48 8b 94 24 80 00 00 	mov    0x80(%rsp),%rdx
  402d7c:	00 
  402d7d:	f2 0f 11 54 24 30    	movsd  %xmm2,0x30(%rsp)
  402d83:	89 4c 24 20          	mov    %ecx,0x20(%rsp)
  402d87:	f2 0f 11 5c 24 38    	movsd  %xmm3,0x38(%rsp)
  402d8d:	48 8d 4c 24 20       	lea    0x20(%rsp),%rcx
  402d92:	48 89 54 24 40       	mov    %rdx,0x40(%rsp)
  402d97:	ff d0                	callq  *%rax
  402d99:	90                   	nop
  402d9a:	48 83 c4 58          	add    $0x58,%rsp
  402d9e:	c3                   	retq   
  402d9f:	90                   	nop
  402da0:	48 89 0d d9 65 00 00 	mov    %rcx,0x65d9(%rip)        # 0x409380
  402da7:	e9 8c 10 00 00       	jmpq   0x403e38
  402dac:	0f 1f 40 00          	nopl   0x0(%rax)
  402db0:	41 54                	push   %r12
  402db2:	55                   	push   %rbp
  402db3:	57                   	push   %rdi
  402db4:	56                   	push   %rsi
  402db5:	53                   	push   %rbx
  402db6:	48 83 ec 40          	sub    $0x40,%rsp
  402dba:	83 39 06             	cmpl   $0x6,(%rcx)
  402dbd:	76 61                	jbe    0x402e20
  402dbf:	48 8d 1d e0 36 00 00 	lea    0x36e0(%rip),%rbx        # 0x4064a6
  402dc6:	66 2e 0f 1f 84 00 00 	nopw   %cs:0x0(%rax,%rax,1)
  402dcd:	00 00 00 
  402dd0:	48 8b 71 08          	mov    0x8(%rcx),%rsi
  402dd4:	4c 8b 61 20          	mov    0x20(%rcx),%r12
  402dd8:	48 8b 69 18          	mov    0x18(%rcx),%rbp
  402ddc:	48 8b 79 10          	mov    0x10(%rcx),%rdi
  402de0:	e8 5b 10 00 00       	callq  0x403e40
  402de5:	48 8d 15 cc 36 00 00 	lea    0x36cc(%rip),%rdx        # 0x4064b8
  402dec:	48 8d 48 60          	lea    0x60(%rax),%rcx
  402df0:	49 89 f1             	mov    %rsi,%r9
  402df3:	49 89 d8             	mov    %rbx,%r8
  402df6:	4c 89 64 24 30       	mov    %r12,0x30(%rsp)
  402dfb:	48 89 6c 24 28       	mov    %rbp,0x28(%rsp)
  402e00:	48 89 7c 24 20       	mov    %rdi,0x20(%rsp)
  402e05:	e8 3e 10 00 00       	callq  0x403e48
  402e0a:	31 c0                	xor    %eax,%eax
  402e0c:	48 83 c4 40          	add    $0x40,%rsp
  402e10:	5b                   	pop    %rbx
  402e11:	5e                   	pop    %rsi
  402e12:	5f                   	pop    %rdi
  402e13:	5d                   	pop    %rbp
  402e14:	41 5c                	pop    %r12
  402e16:	c3                   	retq   
  402e17:	66 0f 1f 84 00 00 00 	nopw   0x0(%rax,%rax,1)
  402e1e:	00 00 
  402e20:	8b 11                	mov    (%rcx),%edx
  402e22:	48 8d 05 bb 36 00 00 	lea    0x36bb(%rip),%rax        # 0x4064e4
  402e29:	48 63 14 90          	movslq (%rax,%rdx,4),%rdx
  402e2d:	48 01 d0             	add    %rdx,%rax
  402e30:	ff e0                	jmpq   *%rax
  402e32:	48 8d 1d e7 35 00 00 	lea    0x35e7(%rip),%rbx        # 0x406420
  402e39:	eb 95                	jmp    0x402dd0
  402e3b:	0f 1f 44 00 00       	nopl   0x0(%rax,%rax,1)
  402e40:	48 8d 1d 79 35 00 00 	lea    0x3579(%rip),%rbx        # 0x4063c0
  402e47:	eb 87                	jmp    0x402dd0
  402e49:	0f 1f 80 00 00 00 00 	nopl   0x0(%rax)
  402e50:	48 8d 1d 88 35 00 00 	lea    0x3588(%rip),%rbx        # 0x4063df
  402e57:	e9 74 ff ff ff       	jmpq   0x402dd0
  402e5c:	0f 1f 40 00          	nopl   0x0(%rax)
  402e60:	48 8d 1d 99 35 00 00 	lea    0x3599(%rip),%rbx        # 0x406400
  402e67:	e9 64 ff ff ff       	jmpq   0x402dd0
  402e6c:	0f 1f 40 00          	nopl   0x0(%rax)
  402e70:	48 8d 1d f9 35 00 00 	lea    0x35f9(%rip),%rbx        # 0x406470
  402e77:	e9 54 ff ff ff       	jmpq   0x402dd0
  402e7c:	0f 1f 40 00          	nopl   0x0(%rax)
  402e80:	48 8d 1d c1 35 00 00 	lea    0x35c1(%rip),%rbx        # 0x406448
  402e87:	e9 44 ff ff ff       	jmpq   0x402dd0
  402e8c:	90                   	nop
  402e8d:	90                   	nop
  402e8e:	90                   	nop
  402e8f:	90                   	nop
  402e90:	31 c0                	xor    %eax,%eax
  402e92:	c3                   	retq   
  402e93:	90                   	nop
  402e94:	90                   	nop
  402e95:	90                   	nop
  402e96:	90                   	nop
  402e97:	90                   	nop
  402e98:	90                   	nop
  402e99:	90                   	nop
  402e9a:	90                   	nop
  402e9b:	90                   	nop
  402e9c:	90                   	nop
  402e9d:	90                   	nop
  402e9e:	90                   	nop
  402e9f:	90                   	nop
  402ea0:	56                   	push   %rsi
  402ea1:	53                   	push   %rbx
  402ea2:	48 83 ec 38          	sub    $0x38,%rsp
  402ea6:	48 8d 44 24 58       	lea    0x58(%rsp),%rax
  402eab:	48 89 cb             	mov    %rcx,%rbx
  402eae:	48 89 54 24 58       	mov    %rdx,0x58(%rsp)
  402eb3:	4c 89 44 24 60       	mov    %r8,0x60(%rsp)
  402eb8:	4c 89 4c 24 68       	mov    %r9,0x68(%rsp)
  402ebd:	48 89 44 24 28       	mov    %rax,0x28(%rsp)
  402ec2:	e8 79 0f 00 00       	callq  0x403e40
  402ec7:	48 8d 0d 32 36 00 00 	lea    0x3632(%rip),%rcx        # 0x406500
  402ece:	4c 8d 48 60          	lea    0x60(%rax),%r9
  402ed2:	41 b8 1b 00 00 00    	mov    $0x1b,%r8d
  402ed8:	ba 01 00 00 00       	mov    $0x1,%edx
  402edd:	e8 6e 0f 00 00       	callq  0x403e50
  402ee2:	48 8b 74 24 28       	mov    0x28(%rsp),%rsi
  402ee7:	e8 54 0f 00 00       	callq  0x403e40
  402eec:	48 8d 48 60          	lea    0x60(%rax),%rcx
  402ef0:	48 89 da             	mov    %rbx,%rdx
  402ef3:	49 89 f0             	mov    %rsi,%r8
  402ef6:	e8 5d 0f 00 00       	callq  0x403e58
  402efb:	e8 60 0f 00 00       	callq  0x403e60
  402f00:	90                   	nop
  402f01:	66 66 66 66 66 66 2e 	data16 data16 data16 data16 data16 nopw %cs:0x0(%rax,%rax,1)
  402f08:	0f 1f 84 00 00 00 00 
  402f0f:	00 
  402f10:	41 55                	push   %r13
  402f12:	41 54                	push   %r12
  402f14:	55                   	push   %rbp
  402f15:	57                   	push   %rdi
  402f16:	56                   	push   %rsi
  402f17:	53                   	push   %rbx
  402f18:	48 81 ec 98 00 00 00 	sub    $0x98,%rsp
  402f1f:	4d 85 c0             	test   %r8,%r8
  402f22:	48 89 cb             	mov    %rcx,%rbx
  402f25:	48 89 d7             	mov    %rdx,%rdi
  402f28:	4c 89 c6             	mov    %r8,%rsi
  402f2b:	75 13                	jne    0x402f40
  402f2d:	48 81 c4 98 00 00 00 	add    $0x98,%rsp
  402f34:	5b                   	pop    %rbx
  402f35:	5e                   	pop    %rsi
  402f36:	5f                   	pop    %rdi
  402f37:	5d                   	pop    %rbp
  402f38:	41 5c                	pop    %r12
  402f3a:	41 5d                	pop    %r13
  402f3c:	c3                   	retq   
  402f3d:	0f 1f 00             	nopl   (%rax)
  402f40:	8b 0d 5a 64 00 00    	mov    0x645a(%rip),%ecx        # 0x4093a0
  402f46:	85 c9                	test   %ecx,%ecx
  402f48:	0f 8e c9 01 00 00    	jle    0x403117
  402f4e:	48 8b 05 43 64 00 00 	mov    0x6443(%rip),%rax        # 0x409398
  402f55:	31 ed                	xor    %ebp,%ebp
  402f57:	66 0f 1f 84 00 00 00 	nopw   0x0(%rax,%rax,1)
  402f5e:	00 00 
  402f60:	48 8b 50 08          	mov    0x8(%rax),%rdx
  402f64:	48 39 d3             	cmp    %rdx,%rbx
  402f67:	72 14                	jb     0x402f7d
  402f69:	4c 8b 40 10          	mov    0x10(%rax),%r8
  402f6d:	45 8b 40 08          	mov    0x8(%r8),%r8d
  402f71:	4c 01 c2             	add    %r8,%rdx
  402f74:	48 39 d3             	cmp    %rdx,%rbx
  402f77:	0f 82 13 01 00 00    	jb     0x403090
  402f7d:	83 c5 01             	add    $0x1,%ebp
  402f80:	48 83 c0 18          	add    $0x18,%rax
  402f84:	39 cd                	cmp    %ecx,%ebp
  402f86:	75 d8                	jne    0x402f60
  402f88:	48 89 d9             	mov    %rbx,%rcx
  402f8b:	e8 00 06 00 00       	callq  0x403590
  402f90:	48 85 c0             	test   %rax,%rax
  402f93:	49 89 c4             	mov    %rax,%r12
  402f96:	0f 84 82 01 00 00    	je     0x40311e
  402f9c:	48 63 ed             	movslq %ebp,%rbp
  402f9f:	4c 8d 6c 6d 00       	lea    0x0(%rbp,%rbp,2),%r13
  402fa4:	49 c1 e5 03          	shl    $0x3,%r13
  402fa8:	4c 89 ed             	mov    %r13,%rbp
  402fab:	48 03 2d e6 63 00 00 	add    0x63e6(%rip),%rbp        # 0x409398
  402fb2:	48 89 45 10          	mov    %rax,0x10(%rbp)
  402fb6:	c7 45 00 00 00 00 00 	movl   $0x0,0x0(%rbp)
  402fbd:	e8 be 06 00 00       	callq  0x403680
  402fc2:	41 8b 54 24 0c       	mov    0xc(%r12),%edx
  402fc7:	41 b8 30 00 00 00    	mov    $0x30,%r8d
  402fcd:	48 01 d0             	add    %rdx,%rax
  402fd0:	48 8d 54 24 50       	lea    0x50(%rsp),%rdx
  402fd5:	48 89 45 08          	mov    %rax,0x8(%rbp)
  402fd9:	48 8b 05 b8 63 00 00 	mov    0x63b8(%rip),%rax        # 0x409398
  402fe0:	48 8b 2d 69 75 00 00 	mov    0x7569(%rip),%rbp        # 0x40a550
  402fe7:	4a 8b 4c 28 08       	mov    0x8(%rax,%r13,1),%rcx
  402fec:	ff d5                	callq  *%rbp
  402fee:	48 85 c0             	test   %rax,%rax
  402ff1:	0f 84 36 01 00 00    	je     0x40312d
  402ff7:	8b 44 24 74          	mov    0x74(%rsp),%eax
  402ffb:	83 f8 04             	cmp    $0x4,%eax
  402ffe:	75 50                	jne    0x403050
  403000:	83 05 99 63 00 00 01 	addl   $0x1,0x6399(%rip)        # 0x4093a0
  403007:	41 b8 30 00 00 00    	mov    $0x30,%r8d
  40300d:	48 8d 54 24 20       	lea    0x20(%rsp),%rdx
  403012:	48 89 d9             	mov    %rbx,%rcx
  403015:	ff d5                	callq  *%rbp
  403017:	48 85 c0             	test   %rax,%rax
  40301a:	0f 84 2a 01 00 00    	je     0x40314a
  403020:	8b 44 24 44          	mov    0x44(%rsp),%eax
  403024:	83 f8 04             	cmp    $0x4,%eax
  403027:	75 77                	jne    0x4030a0
  403029:	49 89 f0             	mov    %rsi,%r8
  40302c:	48 89 fa             	mov    %rdi,%rdx
  40302f:	48 89 d9             	mov    %rbx,%rcx
  403032:	48 81 c4 98 00 00 00 	add    $0x98,%rsp
  403039:	5b                   	pop    %rbx
  40303a:	5e                   	pop    %rsi
  40303b:	5f                   	pop    %rdi
  40303c:	5d                   	pop    %rbp
  40303d:	41 5c                	pop    %r12
  40303f:	41 5d                	pop    %r13
  403041:	e9 52 0d 00 00       	jmpq   0x403d98
  403046:	66 2e 0f 1f 84 00 00 	nopw   %cs:0x0(%rax,%rax,1)
  40304d:	00 00 00 
  403050:	83 f8 40             	cmp    $0x40,%eax
  403053:	74 ab                	je     0x403000
  403055:	4c 8b 0d 3c 63 00 00 	mov    0x633c(%rip),%r9        # 0x409398
  40305c:	41 b8 40 00 00 00    	mov    $0x40,%r8d
  403062:	48 8b 54 24 68       	mov    0x68(%rsp),%rdx
  403067:	48 8b 4c 24 50       	mov    0x50(%rsp),%rcx
  40306c:	4d 01 e9             	add    %r13,%r9
  40306f:	ff 15 d3 74 00 00    	callq  *0x74d3(%rip)        # 0x40a548
  403075:	85 c0                	test   %eax,%eax
  403077:	75 87                	jne    0x403000
  403079:	ff 15 01 74 00 00    	callq  *0x7401(%rip)        # 0x40a480
  40307f:	48 8d 0d f2 34 00 00 	lea    0x34f2(%rip),%rcx        # 0x406578
  403086:	89 c2                	mov    %eax,%edx
  403088:	e8 13 fe ff ff       	callq  0x402ea0
  40308d:	0f 1f 00             	nopl   (%rax)
  403090:	48 8b 2d b9 74 00 00 	mov    0x74b9(%rip),%rbp        # 0x40a550
  403097:	e9 6b ff ff ff       	jmpq   0x403007
  40309c:	0f 1f 40 00          	nopl   0x0(%rax)
  4030a0:	83 f8 40             	cmp    $0x40,%eax
  4030a3:	74 84                	je     0x403029
  4030a5:	4c 8d 8c 24 8c 00 00 	lea    0x8c(%rsp),%r9
  4030ac:	00 
  4030ad:	41 b8 40 00 00 00    	mov    $0x40,%r8d
  4030b3:	48 8b 54 24 38       	mov    0x38(%rsp),%rdx
  4030b8:	48 8b 4c 24 20       	mov    0x20(%rsp),%rcx
  4030bd:	48 8b 2d 84 74 00 00 	mov    0x7484(%rip),%rbp        # 0x40a548
  4030c4:	ff d5                	callq  *%rbp
  4030c6:	49 89 f0             	mov    %rsi,%r8
  4030c9:	48 89 fa             	mov    %rdi,%rdx
  4030cc:	48 89 d9             	mov    %rbx,%rcx
  4030cf:	e8 c4 0c 00 00       	callq  0x403d98
  4030d4:	8b 44 24 44          	mov    0x44(%rsp),%eax
  4030d8:	83 f8 40             	cmp    $0x40,%eax
  4030db:	0f 84 4c fe ff ff    	je     0x402f2d
  4030e1:	83 f8 04             	cmp    $0x4,%eax
  4030e4:	0f 84 43 fe ff ff    	je     0x402f2d
  4030ea:	44 8b 84 24 8c 00 00 	mov    0x8c(%rsp),%r8d
  4030f1:	00 
  4030f2:	48 8b 54 24 38       	mov    0x38(%rsp),%rdx
  4030f7:	4c 8d 8c 24 8c 00 00 	lea    0x8c(%rsp),%r9
  4030fe:	00 
  4030ff:	48 8b 4c 24 20       	mov    0x20(%rsp),%rcx
  403104:	ff d5                	callq  *%rbp
  403106:	90                   	nop
  403107:	48 81 c4 98 00 00 00 	add    $0x98,%rsp
  40310e:	5b                   	pop    %rbx
  40310f:	5e                   	pop    %rsi
  403110:	5f                   	pop    %rdi
  403111:	5d                   	pop    %rbp
  403112:	41 5c                	pop    %r12
  403114:	41 5d                	pop    %r13
  403116:	c3                   	retq   
  403117:	31 ed                	xor    %ebp,%ebp
  403119:	e9 6a fe ff ff       	jmpq   0x402f88
  40311e:	48 8d 0d fb 33 00 00 	lea    0x33fb(%rip),%rcx        # 0x406520
  403125:	48 89 da             	mov    %rbx,%rdx
  403128:	e8 73 fd ff ff       	callq  0x402ea0
  40312d:	48 8b 05 64 62 00 00 	mov    0x6264(%rip),%rax        # 0x409398
  403134:	41 8b 54 24 08       	mov    0x8(%r12),%edx
  403139:	48 8d 0d 00 34 00 00 	lea    0x3400(%rip),%rcx        # 0x406540
  403140:	4e 8b 44 28 08       	mov    0x8(%rax,%r13,1),%r8
  403145:	e8 56 fd ff ff       	callq  0x402ea0
  40314a:	48 8d 0d ef 33 00 00 	lea    0x33ef(%rip),%rcx        # 0x406540
  403151:	49 89 d8             	mov    %rbx,%r8
  403154:	ba 30 00 00 00       	mov    $0x30,%edx
  403159:	e8 42 fd ff ff       	callq  0x402ea0
  40315e:	90                   	nop
  40315f:	90                   	nop
  403160:	55                   	push   %rbp
  403161:	48 89 e5             	mov    %rsp,%rbp
  403164:	41 54                	push   %r12
  403166:	57                   	push   %rdi
  403167:	56                   	push   %rsi
  403168:	53                   	push   %rbx
  403169:	48 83 ec 60          	sub    $0x60,%rsp
  40316d:	44 8b 25 1c 62 00 00 	mov    0x621c(%rip),%r12d        # 0x409390
  403174:	45 85 e4             	test   %r12d,%r12d
  403177:	74 0b                	je     0x403184
  403179:	48 8d 65 e0          	lea    -0x20(%rbp),%rsp
  40317d:	5b                   	pop    %rbx
  40317e:	5e                   	pop    %rsi
  40317f:	5f                   	pop    %rdi
  403180:	41 5c                	pop    %r12
  403182:	5d                   	pop    %rbp
  403183:	c3                   	retq   
  403184:	c7 05 02 62 00 00 01 	movl   $0x1,0x6202(%rip)        # 0x409390
  40318b:	00 00 00 
  40318e:	e8 3d 04 00 00       	callq  0x4035d0
  403193:	48 98                	cltq   
  403195:	48 8d 04 40          	lea    (%rax,%rax,2),%rax
  403199:	48 8d 04 c5 1e 00 00 	lea    0x1e(,%rax,8),%rax
  4031a0:	00 
  4031a1:	48 83 e0 f0          	and    $0xfffffffffffffff0,%rax
  4031a5:	e8 86 0b 00 00       	callq  0x403d30
  4031aa:	48 8d 35 7f 34 00 00 	lea    0x347f(%rip),%rsi        # 0x406630
  4031b1:	48 8d 1d 78 34 00 00 	lea    0x3478(%rip),%rbx        # 0x406630
  4031b8:	c7 05 de 61 00 00 00 	movl   $0x0,0x61de(%rip)        # 0x4093a0
  4031bf:	00 00 00 
  4031c2:	48 29 c4             	sub    %rax,%rsp
  4031c5:	48 8d 44 24 20       	lea    0x20(%rsp),%rax
  4031ca:	48 89 05 c7 61 00 00 	mov    %rax,0x61c7(%rip)        # 0x409398
  4031d1:	48 89 f0             	mov    %rsi,%rax
  4031d4:	48 29 d8             	sub    %rbx,%rax
  4031d7:	48 83 f8 07          	cmp    $0x7,%rax
  4031db:	7e 9c                	jle    0x403179
  4031dd:	48 83 f8 0b          	cmp    $0xb,%rax
  4031e1:	0f 8e e9 00 00 00    	jle    0x4032d0
  4031e7:	8b 3d 43 34 00 00    	mov    0x3443(%rip),%edi        # 0x406630
  4031ed:	85 ff                	test   %edi,%edi
  4031ef:	75 10                	jne    0x403201
  4031f1:	44 8b 1d 3c 34 00 00 	mov    0x343c(%rip),%r11d        # 0x406634
  4031f8:	45 85 db             	test   %r11d,%r11d
  4031fb:	0f 84 b7 00 00 00    	je     0x4032b8
  403201:	48 39 f3             	cmp    %rsi,%rbx
  403204:	0f 83 6f ff ff ff    	jae    0x403179
  40320a:	48 8d 3d ef cd ff ff 	lea    -0x3211(%rip),%rdi        # 0x400000
  403211:	8b 4b 04             	mov    0x4(%rbx),%ecx
  403214:	48 8d 55 dc          	lea    -0x24(%rbp),%rdx
  403218:	41 b8 04 00 00 00    	mov    $0x4,%r8d
  40321e:	48 01 f9             	add    %rdi,%rcx
  403221:	8b 01                	mov    (%rcx),%eax
  403223:	03 03                	add    (%rbx),%eax
  403225:	48 83 c3 08          	add    $0x8,%rbx
  403229:	89 45 dc             	mov    %eax,-0x24(%rbp)
  40322c:	e8 df fc ff ff       	callq  0x402f10
  403231:	48 39 f3             	cmp    %rsi,%rbx
  403234:	72 db                	jb     0x403211
  403236:	8b 0d 64 61 00 00    	mov    0x6164(%rip),%ecx        # 0x4093a0
  40323c:	85 c9                	test   %ecx,%ecx
  40323e:	0f 8e 35 ff ff ff    	jle    0x403179
  403244:	31 db                	xor    %ebx,%ebx
  403246:	31 f6                	xor    %esi,%esi
  403248:	4c 8b 25 01 73 00 00 	mov    0x7301(%rip),%r12        # 0x40a550
  40324f:	48 8b 3d f2 72 00 00 	mov    0x72f2(%rip),%rdi        # 0x40a548
  403256:	eb 1b                	jmp    0x403273
  403258:	0f 1f 84 00 00 00 00 	nopl   0x0(%rax,%rax,1)
  40325f:	00 
  403260:	83 c6 01             	add    $0x1,%esi
  403263:	48 83 c3 18          	add    $0x18,%rbx
  403267:	3b 35 33 61 00 00    	cmp    0x6133(%rip),%esi        # 0x4093a0
  40326d:	0f 8d 06 ff ff ff    	jge    0x403179
  403273:	48 89 d8             	mov    %rbx,%rax
  403276:	48 03 05 1b 61 00 00 	add    0x611b(%rip),%rax        # 0x409398
  40327d:	8b 10                	mov    (%rax),%edx
  40327f:	85 d2                	test   %edx,%edx
  403281:	74 dd                	je     0x403260
  403283:	48 8b 48 08          	mov    0x8(%rax),%rcx
  403287:	41 b8 30 00 00 00    	mov    $0x30,%r8d
  40328d:	48 8d 55 a0          	lea    -0x60(%rbp),%rdx
  403291:	41 ff d4             	callq  *%r12
  403294:	48 85 c0             	test   %rax,%rax
  403297:	0f 84 9c 01 00 00    	je     0x403439
  40329d:	48 8b 05 f4 60 00 00 	mov    0x60f4(%rip),%rax        # 0x409398
  4032a4:	4c 8d 4d dc          	lea    -0x24(%rbp),%r9
  4032a8:	48 8b 55 b8          	mov    -0x48(%rbp),%rdx
  4032ac:	48 8b 4d a0          	mov    -0x60(%rbp),%rcx
  4032b0:	44 8b 04 18          	mov    (%rax,%rbx,1),%r8d
  4032b4:	ff d7                	callq  *%rdi
  4032b6:	eb a8                	jmp    0x403260
  4032b8:	44 8b 15 79 33 00 00 	mov    0x3379(%rip),%r10d        # 0x406638
  4032bf:	45 85 d2             	test   %r10d,%r10d
  4032c2:	75 25                	jne    0x4032e9
  4032c4:	48 8d 1d 71 33 00 00 	lea    0x3371(%rip),%rbx        # 0x40663c
  4032cb:	0f 1f 44 00 00       	nopl   0x0(%rax,%rax,1)
  4032d0:	44 8b 0b             	mov    (%rbx),%r9d
  4032d3:	45 85 c9             	test   %r9d,%r9d
  4032d6:	0f 85 25 ff ff ff    	jne    0x403201
  4032dc:	44 8b 43 04          	mov    0x4(%rbx),%r8d
  4032e0:	45 85 c0             	test   %r8d,%r8d
  4032e3:	0f 85 18 ff ff ff    	jne    0x403201
  4032e9:	8b 53 08             	mov    0x8(%rbx),%edx
  4032ec:	83 fa 01             	cmp    $0x1,%edx
  4032ef:	0f 85 62 01 00 00    	jne    0x403457
  4032f5:	48 83 c3 0c          	add    $0xc,%rbx
  4032f9:	48 39 f3             	cmp    %rsi,%rbx
  4032fc:	0f 83 77 fe ff ff    	jae    0x403179
  403302:	48 8d 3d f7 cc ff ff 	lea    -0x3309(%rip),%rdi        # 0x400000
  403309:	49 bc 00 00 00 00 ff 	movabs $0xffffffff00000000,%r12
  403310:	ff ff ff 
  403313:	8b 4b 04             	mov    0x4(%rbx),%ecx
  403316:	8b 13                	mov    (%rbx),%edx
  403318:	44 8b 43 08          	mov    0x8(%rbx),%r8d
  40331c:	41 0f b6 c0          	movzbl %r8b,%eax
  403320:	48 01 fa             	add    %rdi,%rdx
  403323:	48 01 f9             	add    %rdi,%rcx
  403326:	83 f8 10             	cmp    $0x10,%eax
  403329:	4c 8b 0a             	mov    (%rdx),%r9
  40332c:	74 58                	je     0x403386
  40332e:	77 21                	ja     0x403351
  403330:	83 f8 08             	cmp    $0x8,%eax
  403333:	0f 84 d0 00 00 00    	je     0x403409
  403339:	48 8d 0d 98 32 00 00 	lea    0x3298(%rip),%rcx        # 0x4065d8
  403340:	41 0f b6 d0          	movzbl %r8b,%edx
  403344:	48 c7 45 d0 00 00 00 	movq   $0x0,-0x30(%rbp)
  40334b:	00 
  40334c:	e8 4f fb ff ff       	callq  0x402ea0
  403351:	83 f8 20             	cmp    $0x20,%eax
  403354:	0f 84 82 00 00 00    	je     0x4033dc
  40335a:	83 f8 40             	cmp    $0x40,%eax
  40335d:	75 da                	jne    0x403339
  40335f:	49 29 d1             	sub    %rdx,%r9
  403362:	4c 03 09             	add    (%rcx),%r9
  403365:	4c 89 4d d0          	mov    %r9,-0x30(%rbp)
  403369:	48 8d 55 d0          	lea    -0x30(%rbp),%rdx
  40336d:	41 b8 08 00 00 00    	mov    $0x8,%r8d
  403373:	e8 98 fb ff ff       	callq  0x402f10
  403378:	48 83 c3 0c          	add    $0xc,%rbx
  40337c:	48 39 f3             	cmp    %rsi,%rbx
  40337f:	72 92                	jb     0x403313
  403381:	e9 b0 fe ff ff       	jmpq   0x403236
  403386:	44 0f b7 01          	movzwl (%rcx),%r8d
  40338a:	41 f7 c0 00 80 00 00 	test   $0x8000,%r8d
  403391:	74 22                	je     0x4033b5
  403393:	49 81 c8 00 00 ff ff 	or     $0xffffffffffff0000,%r8
  40339a:	49 29 d0             	sub    %rdx,%r8
  40339d:	4d 01 c8             	add    %r9,%r8
  4033a0:	4c 89 45 d0          	mov    %r8,-0x30(%rbp)
  4033a4:	48 8d 55 d0          	lea    -0x30(%rbp),%rdx
  4033a8:	41 b8 02 00 00 00    	mov    $0x2,%r8d
  4033ae:	e8 5d fb ff ff       	callq  0x402f10
  4033b3:	eb c3                	jmp    0x403378
  4033b5:	49 29 d0             	sub    %rdx,%r8
  4033b8:	4d 01 c1             	add    %r8,%r9
  4033bb:	83 f8 10             	cmp    $0x10,%eax
  4033be:	4c 89 4d d0          	mov    %r9,-0x30(%rbp)
  4033c2:	74 e0                	je     0x4033a4
  4033c4:	77 60                	ja     0x403426
  4033c6:	83 f8 08             	cmp    $0x8,%eax
  4033c9:	75 ad                	jne    0x403378
  4033cb:	48 8d 55 d0          	lea    -0x30(%rbp),%rdx
  4033cf:	41 b8 01 00 00 00    	mov    $0x1,%r8d
  4033d5:	e8 36 fb ff ff       	callq  0x402f10
  4033da:	eb 9c                	jmp    0x403378
  4033dc:	44 8b 01             	mov    (%rcx),%r8d
  4033df:	41 f7 c0 00 00 00 80 	test   $0x80000000,%r8d
  4033e6:	74 cd                	je     0x4033b5
  4033e8:	4d 09 e0             	or     %r12,%r8
  4033eb:	49 29 d0             	sub    %rdx,%r8
  4033ee:	4d 01 c8             	add    %r9,%r8
  4033f1:	4c 89 45 d0          	mov    %r8,-0x30(%rbp)
  4033f5:	48 8d 55 d0          	lea    -0x30(%rbp),%rdx
  4033f9:	41 b8 04 00 00 00    	mov    $0x4,%r8d
  4033ff:	e8 0c fb ff ff       	callq  0x402f10
  403404:	e9 6f ff ff ff       	jmpq   0x403378
  403409:	44 0f b6 01          	movzbl (%rcx),%r8d
  40340d:	41 f6 c0 80          	test   $0x80,%r8b
  403411:	74 a2                	je     0x4033b5
  403413:	49 81 c8 00 ff ff ff 	or     $0xffffffffffffff00,%r8
  40341a:	49 29 d0             	sub    %rdx,%r8
  40341d:	4d 01 c8             	add    %r9,%r8
  403420:	4c 89 45 d0          	mov    %r8,-0x30(%rbp)
  403424:	eb a5                	jmp    0x4033cb
  403426:	83 f8 20             	cmp    $0x20,%eax
  403429:	74 ca                	je     0x4033f5
  40342b:	83 f8 40             	cmp    $0x40,%eax
  40342e:	0f 85 44 ff ff ff    	jne    0x403378
  403434:	e9 30 ff ff ff       	jmpq   0x403369
  403439:	48 03 1d 58 5f 00 00 	add    0x5f58(%rip),%rbx        # 0x409398
  403440:	48 8d 0d f9 30 00 00 	lea    0x30f9(%rip),%rcx        # 0x406540
  403447:	48 8b 43 10          	mov    0x10(%rbx),%rax
  40344b:	4c 8b 43 08          	mov    0x8(%rbx),%r8
  40344f:	8b 50 08             	mov    0x8(%rax),%edx
  403452:	e8 49 fa ff ff       	callq  0x402ea0
  403457:	48 8d 0d 42 31 00 00 	lea    0x3142(%rip),%rcx        # 0x4065a0
  40345e:	e8 3d fa ff ff       	callq  0x402ea0
  403463:	90                   	nop
  403464:	90                   	nop
  403465:	90                   	nop
  403466:	90                   	nop
  403467:	90                   	nop
  403468:	90                   	nop
  403469:	90                   	nop
  40346a:	90                   	nop
  40346b:	90                   	nop
  40346c:	90                   	nop
  40346d:	90                   	nop
  40346e:	90                   	nop
  40346f:	90                   	nop
  403470:	31 c0                	xor    %eax,%eax
  403472:	66 81 39 4d 5a       	cmpw   $0x5a4d,(%rcx)
  403477:	74 07                	je     0x403480
  403479:	f3 c3                	repz retq 
  40347b:	0f 1f 44 00 00       	nopl   0x0(%rax,%rax,1)
  403480:	48 63 51 3c          	movslq 0x3c(%rcx),%rdx
  403484:	48 01 d1             	add    %rdx,%rcx
  403487:	81 39 50 45 00 00    	cmpl   $0x4550,(%rcx)
  40348d:	75 ea                	jne    0x403479
  40348f:	31 c0                	xor    %eax,%eax
  403491:	66 81 79 18 0b 02    	cmpw   $0x20b,0x18(%rcx)
  403497:	0f 94 c0             	sete   %al
  40349a:	c3                   	retq   
  40349b:	0f 1f 44 00 00       	nopl   0x0(%rax,%rax,1)
  4034a0:	48 63 41 3c          	movslq 0x3c(%rcx),%rax
  4034a4:	48 01 c1             	add    %rax,%rcx
  4034a7:	31 c0                	xor    %eax,%eax
  4034a9:	44 0f b7 41 06       	movzwl 0x6(%rcx),%r8d
  4034ae:	44 0f b7 49 14       	movzwl 0x14(%rcx),%r9d
  4034b3:	45 85 c0             	test   %r8d,%r8d
  4034b6:	74 36                	je     0x4034ee
  4034b8:	45 0f b7 c9          	movzwl %r9w,%r9d
  4034bc:	41 83 e8 01          	sub    $0x1,%r8d
  4034c0:	4a 8d 44 09 18       	lea    0x18(%rcx,%r9,1),%rax
  4034c5:	4b 8d 0c 80          	lea    (%r8,%r8,4),%rcx
  4034c9:	4c 8d 4c c8 28       	lea    0x28(%rax,%rcx,8),%r9
  4034ce:	66 90                	xchg   %ax,%ax
  4034d0:	8b 48 0c             	mov    0xc(%rax),%ecx
  4034d3:	41 89 c8             	mov    %ecx,%r8d
  4034d6:	49 39 d0             	cmp    %rdx,%r8
  4034d9:	77 08                	ja     0x4034e3
  4034db:	03 48 08             	add    0x8(%rax),%ecx
  4034de:	48 39 ca             	cmp    %rcx,%rdx
  4034e1:	72 0b                	jb     0x4034ee
  4034e3:	48 83 c0 28          	add    $0x28,%rax
  4034e7:	4c 39 c8             	cmp    %r9,%rax
  4034ea:	75 e4                	jne    0x4034d0
  4034ec:	31 c0                	xor    %eax,%eax
  4034ee:	f3 c3                	repz retq 
  4034f0:	57                   	push   %rdi
  4034f1:	56                   	push   %rsi
  4034f2:	53                   	push   %rbx
  4034f3:	48 83 ec 20          	sub    $0x20,%rsp
  4034f7:	31 db                	xor    %ebx,%ebx
  4034f9:	48 89 ce             	mov    %rcx,%rsi
  4034fc:	e8 a7 08 00 00       	callq  0x403da8
  403501:	48 83 f8 08          	cmp    $0x8,%rax
  403505:	77 67                	ja     0x40356e
  403507:	48 8d 0d f2 ca ff ff 	lea    -0x350e(%rip),%rcx        # 0x400000
  40350e:	e8 5d ff ff ff       	callq  0x403470
  403513:	85 c0                	test   %eax,%eax
  403515:	74 57                	je     0x40356e
  403517:	48 63 15 1e cb ff ff 	movslq -0x34e2(%rip),%rdx        # 0x40003c
  40351e:	48 8d 05 db ca ff ff 	lea    -0x3525(%rip),%rax        # 0x400000
  403525:	48 01 d0             	add    %rdx,%rax
  403528:	0f b7 50 06          	movzwl 0x6(%rax),%edx
  40352c:	0f b7 48 14          	movzwl 0x14(%rax),%ecx
  403530:	85 d2                	test   %edx,%edx
  403532:	74 3a                	je     0x40356e
  403534:	0f b7 c9             	movzwl %cx,%ecx
  403537:	83 ea 01             	sub    $0x1,%edx
  40353a:	48 8d 5c 08 18       	lea    0x18(%rax,%rcx,1),%rbx
  40353f:	48 8d 04 92          	lea    (%rdx,%rdx,4),%rax
  403543:	48 8d 7c c3 28       	lea    0x28(%rbx,%rax,8),%rdi
  403548:	eb 0f                	jmp    0x403559
  40354a:	66 0f 1f 44 00 00    	nopw   0x0(%rax,%rax,1)
  403550:	48 83 c3 28          	add    $0x28,%rbx
  403554:	48 39 fb             	cmp    %rdi,%rbx
  403557:	74 27                	je     0x403580
  403559:	41 b8 08 00 00 00    	mov    $0x8,%r8d
  40355f:	48 89 f2             	mov    %rsi,%rdx
  403562:	48 89 d9             	mov    %rbx,%rcx
  403565:	e8 fe 08 00 00       	callq  0x403e68
  40356a:	85 c0                	test   %eax,%eax
  40356c:	75 e2                	jne    0x403550
  40356e:	48 89 d8             	mov    %rbx,%rax
  403571:	48 83 c4 20          	add    $0x20,%rsp
  403575:	5b                   	pop    %rbx
  403576:	5e                   	pop    %rsi
  403577:	5f                   	pop    %rdi
  403578:	c3                   	retq   
  403579:	0f 1f 80 00 00 00 00 	nopl   0x0(%rax)
  403580:	31 db                	xor    %ebx,%ebx
  403582:	48 89 d8             	mov    %rbx,%rax
  403585:	48 83 c4 20          	add    $0x20,%rsp
  403589:	5b                   	pop    %rbx
  40358a:	5e                   	pop    %rsi
  40358b:	5f                   	pop    %rdi
  40358c:	c3                   	retq   
  40358d:	0f 1f 00             	nopl   (%rax)
  403590:	53                   	push   %rbx
  403591:	48 83 ec 20          	sub    $0x20,%rsp
  403595:	48 89 cb             	mov    %rcx,%rbx
  403598:	48 8d 0d 61 ca ff ff 	lea    -0x359f(%rip),%rcx        # 0x400000
  40359f:	e8 cc fe ff ff       	callq  0x403470
  4035a4:	85 c0                	test   %eax,%eax
  4035a6:	74 18                	je     0x4035c0
  4035a8:	48 8d 0d 51 ca ff ff 	lea    -0x35af(%rip),%rcx        # 0x400000
  4035af:	48 89 da             	mov    %rbx,%rdx
  4035b2:	48 29 ca             	sub    %rcx,%rdx
  4035b5:	48 83 c4 20          	add    $0x20,%rsp
  4035b9:	5b                   	pop    %rbx
  4035ba:	e9 e1 fe ff ff       	jmpq   0x4034a0
  4035bf:	90                   	nop
  4035c0:	31 c0                	xor    %eax,%eax
  4035c2:	48 83 c4 20          	add    $0x20,%rsp
  4035c6:	5b                   	pop    %rbx
  4035c7:	c3                   	retq   
  4035c8:	0f 1f 84 00 00 00 00 	nopl   0x0(%rax,%rax,1)
  4035cf:	00 
  4035d0:	48 83 ec 28          	sub    $0x28,%rsp
  4035d4:	48 8d 0d 25 ca ff ff 	lea    -0x35db(%rip),%rcx        # 0x400000
  4035db:	e8 90 fe ff ff       	callq  0x403470
  4035e0:	31 d2                	xor    %edx,%edx
  4035e2:	85 c0                	test   %eax,%eax
  4035e4:	74 13                	je     0x4035f9
  4035e6:	48 63 05 4f ca ff ff 	movslq -0x35b1(%rip),%rax        # 0x40003c
  4035ed:	48 8d 15 0c ca ff ff 	lea    -0x35f4(%rip),%rdx        # 0x400000
  4035f4:	0f b7 54 02 06       	movzwl 0x6(%rdx,%rax,1),%edx
  4035f9:	89 d0                	mov    %edx,%eax
  4035fb:	48 83 c4 28          	add    $0x28,%rsp
  4035ff:	c3                   	retq   
  403600:	53                   	push   %rbx
  403601:	48 83 ec 20          	sub    $0x20,%rsp
  403605:	48 89 cb             	mov    %rcx,%rbx
  403608:	48 8d 0d f1 c9 ff ff 	lea    -0x360f(%rip),%rcx        # 0x400000
  40360f:	e8 5c fe ff ff       	callq  0x403470
  403614:	31 d2                	xor    %edx,%edx
  403616:	85 c0                	test   %eax,%eax
  403618:	74 50                	je     0x40366a
  40361a:	48 63 0d 1b ca ff ff 	movslq -0x35e5(%rip),%rcx        # 0x40003c
  403621:	48 8d 05 d8 c9 ff ff 	lea    -0x3628(%rip),%rax        # 0x400000
  403628:	48 01 c8             	add    %rcx,%rax
  40362b:	0f b7 48 06          	movzwl 0x6(%rax),%ecx
  40362f:	44 0f b7 40 14       	movzwl 0x14(%rax),%r8d
  403634:	85 c9                	test   %ecx,%ecx
  403636:	74 32                	je     0x40366a
  403638:	45 0f b7 c0          	movzwl %r8w,%r8d
  40363c:	83 e9 01             	sub    $0x1,%ecx
  40363f:	4a 8d 54 00 18       	lea    0x18(%rax,%r8,1),%rdx
  403644:	48 8d 04 89          	lea    (%rcx,%rcx,4),%rax
  403648:	48 8d 44 c2 28       	lea    0x28(%rdx,%rax,8),%rax
  40364d:	0f 1f 00             	nopl   (%rax)
  403650:	f6 42 27 20          	testb  $0x20,0x27(%rdx)
  403654:	74 09                	je     0x40365f
  403656:	48 85 db             	test   %rbx,%rbx
  403659:	74 0f                	je     0x40366a
  40365b:	48 83 eb 01          	sub    $0x1,%rbx
  40365f:	48 83 c2 28          	add    $0x28,%rdx
  403663:	48 39 c2             	cmp    %rax,%rdx
  403666:	75 e8                	jne    0x403650
  403668:	31 d2                	xor    %edx,%edx
  40366a:	48 89 d0             	mov    %rdx,%rax
  40366d:	48 83 c4 20          	add    $0x20,%rsp
  403671:	5b                   	pop    %rbx
  403672:	c3                   	retq   
  403673:	66 66 66 66 2e 0f 1f 	data16 data16 data16 nopw %cs:0x0(%rax,%rax,1)
  40367a:	84 00 00 00 00 00 
  403680:	48 83 ec 28          	sub    $0x28,%rsp
  403684:	48 8d 0d 75 c9 ff ff 	lea    -0x368b(%rip),%rcx        # 0x400000
  40368b:	e8 e0 fd ff ff       	callq  0x403470
  403690:	31 d2                	xor    %edx,%edx
  403692:	85 c0                	test   %eax,%eax
  403694:	48 8d 05 65 c9 ff ff 	lea    -0x369b(%rip),%rax        # 0x400000
  40369b:	48 0f 45 d0          	cmovne %rax,%rdx
  40369f:	48 89 d0             	mov    %rdx,%rax
  4036a2:	48 83 c4 28          	add    $0x28,%rsp
  4036a6:	c3                   	retq   
  4036a7:	66 0f 1f 84 00 00 00 	nopw   0x0(%rax,%rax,1)
  4036ae:	00 00 
  4036b0:	56                   	push   %rsi
  4036b1:	53                   	push   %rbx
  4036b2:	48 83 ec 28          	sub    $0x28,%rsp
  4036b6:	31 db                	xor    %ebx,%ebx
  4036b8:	48 89 ce             	mov    %rcx,%rsi
  4036bb:	48 8d 0d 3e c9 ff ff 	lea    -0x36c2(%rip),%rcx        # 0x400000
  4036c2:	e8 a9 fd ff ff       	callq  0x403470
  4036c7:	85 c0                	test   %eax,%eax
  4036c9:	75 09                	jne    0x4036d4
  4036cb:	89 d8                	mov    %ebx,%eax
  4036cd:	48 83 c4 28          	add    $0x28,%rsp
  4036d1:	5b                   	pop    %rbx
  4036d2:	5e                   	pop    %rsi
  4036d3:	c3                   	retq   
  4036d4:	48 8d 0d 25 c9 ff ff 	lea    -0x36db(%rip),%rcx        # 0x400000
  4036db:	48 89 f2             	mov    %rsi,%rdx
  4036de:	48 29 ca             	sub    %rcx,%rdx
  4036e1:	e8 ba fd ff ff       	callq  0x4034a0
  4036e6:	48 85 c0             	test   %rax,%rax
  4036e9:	74 e0                	je     0x4036cb
  4036eb:	8b 58 24             	mov    0x24(%rax),%ebx
  4036ee:	f7 d3                	not    %ebx
  4036f0:	c1 eb 1f             	shr    $0x1f,%ebx
  4036f3:	89 d8                	mov    %ebx,%eax
  4036f5:	48 83 c4 28          	add    $0x28,%rsp
  4036f9:	5b                   	pop    %rbx
  4036fa:	5e                   	pop    %rsi
  4036fb:	c3                   	retq   
  4036fc:	0f 1f 40 00          	nopl   0x0(%rax)
  403700:	55                   	push   %rbp
  403701:	57                   	push   %rdi
  403702:	56                   	push   %rsi
  403703:	53                   	push   %rbx
  403704:	48 83 ec 28          	sub    $0x28,%rsp
  403708:	31 ed                	xor    %ebp,%ebp
  40370a:	89 cb                	mov    %ecx,%ebx
  40370c:	48 8d 0d ed c8 ff ff 	lea    -0x3713(%rip),%rcx        # 0x400000
  403713:	e8 58 fd ff ff       	callq  0x403470
  403718:	85 c0                	test   %eax,%eax
  40371a:	74 53                	je     0x40376f
  40371c:	48 63 05 19 c9 ff ff 	movslq -0x36e7(%rip),%rax        # 0x40003c
  403723:	48 8d 35 d6 c8 ff ff 	lea    -0x372a(%rip),%rsi        # 0x400000
  40372a:	8b bc 06 90 00 00 00 	mov    0x90(%rsi,%rax,1),%edi
  403731:	85 ff                	test   %edi,%edi
  403733:	74 3a                	je     0x40376f
  403735:	48 89 fa             	mov    %rdi,%rdx
  403738:	48 89 f1             	mov    %rsi,%rcx
  40373b:	e8 60 fd ff ff       	callq  0x4034a0
  403740:	48 85 c0             	test   %rax,%rax
  403743:	74 2a                	je     0x40376f
  403745:	48 01 f7             	add    %rsi,%rdi
  403748:	75 0d                	jne    0x403757
  40374a:	eb 23                	jmp    0x40376f
  40374c:	0f 1f 40 00          	nopl   0x0(%rax)
  403750:	83 eb 01             	sub    $0x1,%ebx
  403753:	48 83 c7 14          	add    $0x14,%rdi
  403757:	8b 57 04             	mov    0x4(%rdi),%edx
  40375a:	85 d2                	test   %edx,%edx
  40375c:	75 07                	jne    0x403765
  40375e:	8b 47 0c             	mov    0xc(%rdi),%eax
  403761:	85 c0                	test   %eax,%eax
  403763:	74 1b                	je     0x403780
  403765:	85 db                	test   %ebx,%ebx
  403767:	7f e7                	jg     0x403750
  403769:	8b 6f 0c             	mov    0xc(%rdi),%ebp
  40376c:	48 01 f5             	add    %rsi,%rbp
  40376f:	48 89 e8             	mov    %rbp,%rax
  403772:	48 83 c4 28          	add    $0x28,%rsp
  403776:	5b                   	pop    %rbx
  403777:	5e                   	pop    %rsi
  403778:	5f                   	pop    %rdi
  403779:	5d                   	pop    %rbp
  40377a:	c3                   	retq   
  40377b:	0f 1f 44 00 00       	nopl   0x0(%rax,%rax,1)
  403780:	31 ed                	xor    %ebp,%ebp
  403782:	48 89 e8             	mov    %rbp,%rax
  403785:	48 83 c4 28          	add    $0x28,%rsp
  403789:	5b                   	pop    %rbx
  40378a:	5e                   	pop    %rsi
  40378b:	5f                   	pop    %rdi
  40378c:	5d                   	pop    %rbp
  40378d:	c3                   	retq   
  40378e:	66 90                	xchg   %ax,%ax
  403790:	53                   	push   %rbx
  403791:	48 83 ec 20          	sub    $0x20,%rsp
  403795:	48 8b 05 14 5c 00 00 	mov    0x5c14(%rip),%rax        # 0x4093b0
  40379c:	48 85 c0             	test   %rax,%rax
  40379f:	74 0f                	je     0x4037b0
  4037a1:	48 83 c4 20          	add    $0x20,%rsp
  4037a5:	5b                   	pop    %rbx
  4037a6:	c3                   	retq   
  4037a7:	66 0f 1f 84 00 00 00 	nopw   0x0(%rax,%rax,1)
  4037ae:	00 00 
  4037b0:	31 c9                	xor    %ecx,%ecx
  4037b2:	8d 59 01             	lea    0x1(%rcx),%ebx
  4037b5:	e8 46 ff ff ff       	callq  0x403700
  4037ba:	48 85 c0             	test   %rax,%rax
  4037bd:	0f 84 7d 00 00 00    	je     0x403840
  4037c3:	0f b6 10             	movzbl (%rax),%edx
  4037c6:	80 fa 4d             	cmp    $0x4d,%dl
  4037c9:	74 05                	je     0x4037d0
  4037cb:	80 fa 6d             	cmp    $0x6d,%dl
  4037ce:	75 50                	jne    0x403820
  4037d0:	0f b6 50 01          	movzbl 0x1(%rax),%edx
  4037d4:	80 fa 53             	cmp    $0x53,%dl
  4037d7:	74 05                	je     0x4037de
  4037d9:	80 fa 73             	cmp    $0x73,%dl
  4037dc:	75 42                	jne    0x403820
  4037de:	0f b6 50 02          	movzbl 0x2(%rax),%edx
  4037e2:	80 fa 56             	cmp    $0x56,%dl
  4037e5:	74 05                	je     0x4037ec
  4037e7:	80 fa 76             	cmp    $0x76,%dl
  4037ea:	75 34                	jne    0x403820
  4037ec:	0f b6 50 03          	movzbl 0x3(%rax),%edx
  4037f0:	80 fa 43             	cmp    $0x43,%dl
  4037f3:	74 05                	je     0x4037fa
  4037f5:	80 fa 63             	cmp    $0x63,%dl
  4037f8:	75 26                	jne    0x403820
  4037fa:	0f b6 50 04          	movzbl 0x4(%rax),%edx
  4037fe:	80 fa 52             	cmp    $0x52,%dl
  403801:	74 05                	je     0x403808
  403803:	80 fa 72             	cmp    $0x72,%dl
  403806:	75 18                	jne    0x403820
  403808:	0f b6 50 05          	movzbl 0x5(%rax),%edx
  40380c:	80 fa 54             	cmp    $0x54,%dl
  40380f:	74 13                	je     0x403824
  403811:	80 fa 74             	cmp    $0x74,%dl
  403814:	74 0e                	je     0x403824
  403816:	83 ea 30             	sub    $0x30,%edx
  403819:	80 fa 09             	cmp    $0x9,%dl
  40381c:	76 06                	jbe    0x403824
  40381e:	66 90                	xchg   %ax,%ax
  403820:	89 d9                	mov    %ebx,%ecx
  403822:	eb 8e                	jmp    0x4037b2
  403824:	48 89 c1             	mov    %rax,%rcx
  403827:	ff 15 5b 6c 00 00    	callq  *0x6c5b(%rip)        # 0x40a488
  40382d:	48 85 c0             	test   %rax,%rax
  403830:	48 89 05 79 5b 00 00 	mov    %rax,0x5b79(%rip)        # 0x4093b0
  403837:	0f 85 64 ff ff ff    	jne    0x4037a1
  40383d:	0f 1f 00             	nopl   (%rax)
  403840:	48 8d 0d c9 2d 00 00 	lea    0x2dc9(%rip),%rcx        # 0x406610
  403847:	ff 15 83 6c 00 00    	callq  *0x6c83(%rip)        # 0x40a4d0
  40384d:	48 89 05 5c 5b 00 00 	mov    %rax,0x5b5c(%rip)        # 0x4093b0
  403854:	e9 48 ff ff ff       	jmpq   0x4037a1
  403859:	90                   	nop
  40385a:	90                   	nop
  40385b:	90                   	nop
  40385c:	90                   	nop
  40385d:	90                   	nop
  40385e:	90                   	nop
  40385f:	90                   	nop
  403860:	db e3                	fninit 
  403862:	c3                   	retq   
  403863:	90                   	nop
  403864:	90                   	nop
  403865:	90                   	nop
  403866:	90                   	nop
  403867:	90                   	nop
  403868:	90                   	nop
  403869:	90                   	nop
  40386a:	90                   	nop
  40386b:	90                   	nop
  40386c:	90                   	nop
  40386d:	90                   	nop
  40386e:	90                   	nop
  40386f:	90                   	nop
  403870:	48 83 ec 28          	sub    $0x28,%rsp
  403874:	48 8b 05 f5 17 00 00 	mov    0x17f5(%rip),%rax        # 0x405070
  40387b:	48 8b 00             	mov    (%rax),%rax
  40387e:	48 85 c0             	test   %rax,%rax
  403881:	74 1d                	je     0x4038a0
  403883:	ff d0                	callq  *%rax
  403885:	48 8b 05 e4 17 00 00 	mov    0x17e4(%rip),%rax        # 0x405070
  40388c:	48 8d 50 08          	lea    0x8(%rax),%rdx
  403890:	48 8b 40 08          	mov    0x8(%rax),%rax
  403894:	48 89 15 d5 17 00 00 	mov    %rdx,0x17d5(%rip)        # 0x405070
  40389b:	48 85 c0             	test   %rax,%rax
  40389e:	75 e3                	jne    0x403883
  4038a0:	48 83 c4 28          	add    $0x28,%rsp
  4038a4:	c3                   	retq   
  4038a5:	66 66 2e 0f 1f 84 00 	data16 nopw %cs:0x0(%rax,%rax,1)
  4038ac:	00 00 00 00 
  4038b0:	56                   	push   %rsi
  4038b1:	53                   	push   %rbx
  4038b2:	48 83 ec 28          	sub    $0x28,%rsp
  4038b6:	48 8b 05 f3 07 00 00 	mov    0x7f3(%rip),%rax        # 0x4040b0
  4038bd:	83 f8 ff             	cmp    $0xffffffff,%eax
  4038c0:	89 c3                	mov    %eax,%ebx
  4038c2:	74 2c                	je     0x4038f0
  4038c4:	85 db                	test   %ebx,%ebx
  4038c6:	74 12                	je     0x4038da
  4038c8:	48 8d 35 e1 07 00 00 	lea    0x7e1(%rip),%rsi        # 0x4040b0
  4038cf:	90                   	nop
  4038d0:	89 d8                	mov    %ebx,%eax
  4038d2:	ff 14 c6             	callq  *(%rsi,%rax,8)
  4038d5:	83 eb 01             	sub    $0x1,%ebx
  4038d8:	75 f6                	jne    0x4038d0
  4038da:	48 8d 0d 8f ff ff ff 	lea    -0x71(%rip),%rcx        # 0x403870
  4038e1:	48 83 c4 28          	add    $0x28,%rsp
  4038e5:	5b                   	pop    %rbx
  4038e6:	5e                   	pop    %rsi
  4038e7:	e9 94 ef ff ff       	jmpq   0x402880
  4038ec:	0f 1f 40 00          	nopl   0x0(%rax)
  4038f0:	31 db                	xor    %ebx,%ebx
  4038f2:	48 8d 35 b7 07 00 00 	lea    0x7b7(%rip),%rsi        # 0x4040b0
  4038f9:	eb 07                	jmp    0x403902
  4038fb:	0f 1f 44 00 00       	nopl   0x0(%rax,%rax,1)
  403900:	89 c3                	mov    %eax,%ebx
  403902:	8d 43 01             	lea    0x1(%rbx),%eax
  403905:	89 c2                	mov    %eax,%edx
  403907:	48 83 3c d6 00       	cmpq   $0x0,(%rsi,%rdx,8)
  40390c:	75 f2                	jne    0x403900
  40390e:	eb b4                	jmp    0x4038c4
  403910:	8b 05 aa 5a 00 00    	mov    0x5aaa(%rip),%eax        # 0x4093c0
  403916:	85 c0                	test   %eax,%eax
  403918:	74 06                	je     0x403920
  40391a:	f3 c3                	repz retq 
  40391c:	0f 1f 40 00          	nopl   0x0(%rax)
  403920:	c7 05 96 5a 00 00 01 	movl   $0x1,0x5a96(%rip)        # 0x4093c0
  403927:	00 00 00 
  40392a:	eb 84                	jmp    0x4038b0
  40392c:	90                   	nop
  40392d:	90                   	nop
  40392e:	90                   	nop
  40392f:	90                   	nop
  403930:	41 54                	push   %r12
  403932:	55                   	push   %rbp
  403933:	57                   	push   %rdi
  403934:	56                   	push   %rsi
  403935:	53                   	push   %rbx
  403936:	48 83 ec 40          	sub    $0x40,%rsp
  40393a:	48 8b 1d 6f 17 00 00 	mov    0x176f(%rip),%rbx        # 0x4050b0
  403941:	48 b8 32 a2 df 2d 99 	movabs $0x2b992ddfa232,%rax
  403948:	2b 00 00 
  40394b:	48 c7 44 24 20 00 00 	movq   $0x0,0x20(%rsp)
  403952:	00 00 
  403954:	48 39 c3             	cmp    %rax,%rbx
  403957:	74 17                	je     0x403970
  403959:	48 f7 d3             	not    %rbx
  40395c:	48 89 1d 5d 17 00 00 	mov    %rbx,0x175d(%rip)        # 0x4050c0
  403963:	48 83 c4 40          	add    $0x40,%rsp
  403967:	5b                   	pop    %rbx
  403968:	5e                   	pop    %rsi
  403969:	5f                   	pop    %rdi
  40396a:	5d                   	pop    %rbp
  40396b:	41 5c                	pop    %r12
  40396d:	c3                   	retq   
  40396e:	66 90                	xchg   %ax,%ax
  403970:	48 8d 4c 24 20       	lea    0x20(%rsp),%rcx
  403975:	ff 15 35 6b 00 00    	callq  *0x6b35(%rip)        # 0x40a4b0
  40397b:	4c 8b 64 24 20       	mov    0x20(%rsp),%r12
  403980:	ff 15 da 6a 00 00    	callq  *0x6ada(%rip)        # 0x40a460
  403986:	89 c5                	mov    %eax,%ebp
  403988:	ff 15 e2 6a 00 00    	callq  *0x6ae2(%rip)        # 0x40a470
  40398e:	89 c7                	mov    %eax,%edi
  403990:	ff 15 22 6b 00 00    	callq  *0x6b22(%rip)        # 0x40a4b8
  403996:	48 8d 4c 24 30       	lea    0x30(%rsp),%rcx
  40399b:	89 c6                	mov    %eax,%esi
  40399d:	ff 15 3d 6b 00 00    	callq  *0x6b3d(%rip)        # 0x40a4e0
  4039a3:	4c 33 64 24 30       	xor    0x30(%rsp),%r12
  4039a8:	48 b8 ff ff ff ff ff 	movabs $0xffffffffffff,%rax
  4039af:	ff 00 00 
  4039b2:	49 31 ec             	xor    %rbp,%r12
  4039b5:	49 31 fc             	xor    %rdi,%r12
  4039b8:	49 31 f4             	xor    %rsi,%r12
  4039bb:	49 21 c4             	and    %rax,%r12
  4039be:	4c 89 e0             	mov    %r12,%rax
  4039c1:	49 39 dc             	cmp    %rbx,%r12
  4039c4:	48 f7 d0             	not    %rax
  4039c7:	74 19                	je     0x4039e2
  4039c9:	4c 89 25 e0 16 00 00 	mov    %r12,0x16e0(%rip)        # 0x4050b0
  4039d0:	48 89 05 e9 16 00 00 	mov    %rax,0x16e9(%rip)        # 0x4050c0
  4039d7:	48 83 c4 40          	add    $0x40,%rsp
  4039db:	5b                   	pop    %rbx
  4039dc:	5e                   	pop    %rsi
  4039dd:	5f                   	pop    %rdi
  4039de:	5d                   	pop    %rbp
  4039df:	41 5c                	pop    %r12
  4039e1:	c3                   	retq   
  4039e2:	48 b8 cc 5d 20 d2 66 	movabs $0xffffd466d2205dcc,%rax
  4039e9:	d4 ff ff 
  4039ec:	49 bc 33 a2 df 2d 99 	movabs $0x2b992ddfa233,%r12
  4039f3:	2b 00 00 
  4039f6:	eb d1                	jmp    0x4039c9
  4039f8:	0f 1f 84 00 00 00 00 	nopl   0x0(%rax,%rax,1)
  4039ff:	00 
  403a00:	55                   	push   %rbp
  403a01:	48 89 e5             	mov    %rsp,%rbp
  403a04:	56                   	push   %rsi
  403a05:	53                   	push   %rbx
  403a06:	48 83 ec 70          	sub    $0x70,%rsp
  403a0a:	48 89 ce             	mov    %rcx,%rsi
  403a0d:	48 8d 0d cc 59 00 00 	lea    0x59cc(%rip),%rcx        # 0x4093e0
  403a14:	ff 15 e6 6a 00 00    	callq  *0x6ae6(%rip)        # 0x40a500
  403a1a:	48 8b 1d b7 5a 00 00 	mov    0x5ab7(%rip),%rbx        # 0x4094d8
  403a21:	45 31 c0             	xor    %r8d,%r8d
  403a24:	48 8d 55 d8          	lea    -0x28(%rbp),%rdx
  403a28:	48 89 d9             	mov    %rbx,%rcx
  403a2b:	ff 15 d7 6a 00 00    	callq  *0x6ad7(%rip)        # 0x40a508
  403a31:	48 85 c0             	test   %rax,%rax
  403a34:	49 89 c1             	mov    %rax,%r9
  403a37:	0f 84 a3 00 00 00    	je     0x403ae0
  403a3d:	48 8d 45 e0          	lea    -0x20(%rbp),%rax
  403a41:	48 c7 44 24 38 00 00 	movq   $0x0,0x38(%rsp)
  403a48:	00 00 
  403a4a:	49 89 d8             	mov    %rbx,%r8
  403a4d:	48 8b 55 d8          	mov    -0x28(%rbp),%rdx
  403a51:	31 c9                	xor    %ecx,%ecx
  403a53:	48 89 44 24 30       	mov    %rax,0x30(%rsp)
  403a58:	48 8d 45 e8          	lea    -0x18(%rbp),%rax
  403a5c:	48 89 44 24 28       	mov    %rax,0x28(%rsp)
  403a61:	48 8d 05 78 59 00 00 	lea    0x5978(%rip),%rax        # 0x4093e0
  403a68:	48 89 44 24 20       	mov    %rax,0x20(%rsp)
  403a6d:	ff 15 9d 6a 00 00    	callq  *0x6a9d(%rip)        # 0x40a510
  403a73:	48 8b 05 5e 5a 00 00 	mov    0x5a5e(%rip),%rax        # 0x4094d8
  403a7a:	31 c9                	xor    %ecx,%ecx
  403a7c:	48 89 35 dd 59 00 00 	mov    %rsi,0x59dd(%rip)        # 0x409460
  403a83:	c7 05 33 5e 00 00 09 	movl   $0xc0000409,0x5e33(%rip)        # 0x4098c0
  403a8a:	04 00 c0 
  403a8d:	c7 05 2d 5e 00 00 01 	movl   $0x1,0x5e2d(%rip)        # 0x4098c4
  403a94:	00 00 00 
  403a97:	48 89 05 32 5e 00 00 	mov    %rax,0x5e32(%rip)        # 0x4098d0
  403a9e:	48 8b 05 0b 16 00 00 	mov    0x160b(%rip),%rax        # 0x4050b0
  403aa5:	48 89 45 c0          	mov    %rax,-0x40(%rbp)
  403aa9:	48 8b 05 10 16 00 00 	mov    0x1610(%rip),%rax        # 0x4050c0
  403ab0:	48 89 45 c8          	mov    %rax,-0x38(%rbp)
  403ab4:	ff 15 66 6a 00 00    	callq  *0x6a66(%rip)        # 0x40a520
  403aba:	48 8d 0d bf 15 00 00 	lea    0x15bf(%rip),%rcx        # 0x405080
  403ac1:	ff 15 79 6a 00 00    	callq  *0x6a79(%rip)        # 0x40a540
  403ac7:	ff 15 8b 69 00 00    	callq  *0x698b(%rip)        # 0x40a458
  403acd:	ba 09 04 00 c0       	mov    $0xc0000409,%edx
  403ad2:	48 89 c1             	mov    %rax,%rcx
  403ad5:	ff 15 55 6a 00 00    	callq  *0x6a55(%rip)        # 0x40a530
  403adb:	e8 80 03 00 00       	callq  0x403e60
  403ae0:	48 8b 45 08          	mov    0x8(%rbp),%rax
  403ae4:	48 89 05 ed 59 00 00 	mov    %rax,0x59ed(%rip)        # 0x4094d8
  403aeb:	48 8d 45 08          	lea    0x8(%rbp),%rax
  403aef:	48 89 05 82 59 00 00 	mov    %rax,0x5982(%rip)        # 0x409478
  403af6:	e9 78 ff ff ff       	jmpq   0x403a73
  403afb:	90                   	nop
  403afc:	90                   	nop
  403afd:	90                   	nop
  403afe:	90                   	nop
  403aff:	90                   	nop
  403b00:	55                   	push   %rbp
  403b01:	57                   	push   %rdi
  403b02:	56                   	push   %rsi
  403b03:	53                   	push   %rbx
  403b04:	48 83 ec 28          	sub    $0x28,%rsp
  403b08:	48 8d 0d 71 5e 00 00 	lea    0x5e71(%rip),%rcx        # 0x409980
  403b0f:	ff 15 33 69 00 00    	callq  *0x6933(%rip)        # 0x40a448
  403b15:	48 8b 1d 8c 5e 00 00 	mov    0x5e8c(%rip),%rbx        # 0x4099a8
  403b1c:	48 85 db             	test   %rbx,%rbx
  403b1f:	74 33                	je     0x403b54
  403b21:	48 8b 3d 10 6a 00 00 	mov    0x6a10(%rip),%rdi        # 0x40a538
  403b28:	48 8b 35 51 69 00 00 	mov    0x6951(%rip),%rsi        # 0x40a480
  403b2f:	90                   	nop
  403b30:	8b 0b                	mov    (%rbx),%ecx
  403b32:	ff d7                	callq  *%rdi
  403b34:	48 89 c5             	mov    %rax,%rbp
  403b37:	ff d6                	callq  *%rsi
  403b39:	85 c0                	test   %eax,%eax
  403b3b:	75 0e                	jne    0x403b4b
  403b3d:	48 85 ed             	test   %rbp,%rbp
  403b40:	74 09                	je     0x403b4b
  403b42:	48 8b 43 08          	mov    0x8(%rbx),%rax
  403b46:	48 89 e9             	mov    %rbp,%rcx
  403b49:	ff d0                	callq  *%rax
  403b4b:	48 8b 5b 10          	mov    0x10(%rbx),%rbx
  403b4f:	48 85 db             	test   %rbx,%rbx
  403b52:	75 dc                	jne    0x403b30
  403b54:	48 8b 05 6d 69 00 00 	mov    0x696d(%rip),%rax        # 0x40a4c8
  403b5b:	48 8d 0d 1e 5e 00 00 	lea    0x5e1e(%rip),%rcx        # 0x409980
  403b62:	48 83 c4 28          	add    $0x28,%rsp
  403b66:	5b                   	pop    %rbx
  403b67:	5e                   	pop    %rsi
  403b68:	5f                   	pop    %rdi
  403b69:	5d                   	pop    %rbp
  403b6a:	48 ff e0             	rex.W jmpq *%rax
  403b6d:	0f 1f 00             	nopl   (%rax)
  403b70:	55                   	push   %rbp
  403b71:	57                   	push   %rdi
  403b72:	56                   	push   %rsi
  403b73:	53                   	push   %rbx
  403b74:	48 83 ec 28          	sub    $0x28,%rsp
  403b78:	8b 05 e2 5d 00 00    	mov    0x5de2(%rip),%eax        # 0x409960
  403b7e:	31 db                	xor    %ebx,%ebx
  403b80:	89 cf                	mov    %ecx,%edi
  403b82:	48 89 d6             	mov    %rdx,%rsi
  403b85:	85 c0                	test   %eax,%eax
  403b87:	75 0b                	jne    0x403b94
  403b89:	89 d8                	mov    %ebx,%eax
  403b8b:	48 83 c4 28          	add    $0x28,%rsp
  403b8f:	5b                   	pop    %rbx
  403b90:	5e                   	pop    %rsi
  403b91:	5f                   	pop    %rdi
  403b92:	5d                   	pop    %rbp
  403b93:	c3                   	retq   
  403b94:	ba 18 00 00 00       	mov    $0x18,%edx
  403b99:	b9 01 00 00 00       	mov    $0x1,%ecx
  403b9e:	e8 cd 02 00 00       	callq  0x403e70
  403ba3:	48 85 c0             	test   %rax,%rax
  403ba6:	48 89 c5             	mov    %rax,%rbp
  403ba9:	74 3d                	je     0x403be8
  403bab:	89 38                	mov    %edi,(%rax)
  403bad:	48 89 70 08          	mov    %rsi,0x8(%rax)
  403bb1:	48 8d 0d c8 5d 00 00 	lea    0x5dc8(%rip),%rcx        # 0x409980
  403bb8:	ff 15 8a 68 00 00    	callq  *0x688a(%rip)        # 0x40a448
  403bbe:	48 8b 05 e3 5d 00 00 	mov    0x5de3(%rip),%rax        # 0x4099a8
  403bc5:	48 8d 0d b4 5d 00 00 	lea    0x5db4(%rip),%rcx        # 0x409980
  403bcc:	48 89 2d d5 5d 00 00 	mov    %rbp,0x5dd5(%rip)        # 0x4099a8
  403bd3:	48 89 45 10          	mov    %rax,0x10(%rbp)
  403bd7:	ff 15 eb 68 00 00    	callq  *0x68eb(%rip)        # 0x40a4c8
  403bdd:	89 d8                	mov    %ebx,%eax
  403bdf:	48 83 c4 28          	add    $0x28,%rsp
  403be3:	5b                   	pop    %rbx
  403be4:	5e                   	pop    %rsi
  403be5:	5f                   	pop    %rdi
  403be6:	5d                   	pop    %rbp
  403be7:	c3                   	retq   
  403be8:	bb ff ff ff ff       	mov    $0xffffffff,%ebx
  403bed:	eb 9a                	jmp    0x403b89
  403bef:	90                   	nop
  403bf0:	53                   	push   %rbx
  403bf1:	48 83 ec 20          	sub    $0x20,%rsp
  403bf5:	8b 05 65 5d 00 00    	mov    0x5d65(%rip),%eax        # 0x409960
  403bfb:	89 cb                	mov    %ecx,%ebx
  403bfd:	85 c0                	test   %eax,%eax
  403bff:	75 0f                	jne    0x403c10
  403c01:	31 c0                	xor    %eax,%eax
  403c03:	48 83 c4 20          	add    $0x20,%rsp
  403c07:	5b                   	pop    %rbx
  403c08:	c3                   	retq   
  403c09:	0f 1f 80 00 00 00 00 	nopl   0x0(%rax)
  403c10:	48 8d 0d 69 5d 00 00 	lea    0x5d69(%rip),%rcx        # 0x409980
  403c17:	ff 15 2b 68 00 00    	callq  *0x682b(%rip)        # 0x40a448
  403c1d:	48 8b 05 84 5d 00 00 	mov    0x5d84(%rip),%rax        # 0x4099a8
  403c24:	48 85 c0             	test   %rax,%rax
  403c27:	74 1a                	je     0x403c43
  403c29:	8b 10                	mov    (%rax),%edx
  403c2b:	39 da                	cmp    %ebx,%edx
  403c2d:	75 0b                	jne    0x403c3a
  403c2f:	eb 4b                	jmp    0x403c7c
  403c31:	8b 11                	mov    (%rcx),%edx
  403c33:	39 da                	cmp    %ebx,%edx
  403c35:	74 29                	je     0x403c60
  403c37:	48 89 c8             	mov    %rcx,%rax
  403c3a:	48 8b 48 10          	mov    0x10(%rax),%rcx
  403c3e:	48 85 c9             	test   %rcx,%rcx
  403c41:	75 ee                	jne    0x403c31
  403c43:	48 8d 0d 36 5d 00 00 	lea    0x5d36(%rip),%rcx        # 0x409980
  403c4a:	ff 15 78 68 00 00    	callq  *0x6878(%rip)        # 0x40a4c8
  403c50:	31 c0                	xor    %eax,%eax
  403c52:	48 83 c4 20          	add    $0x20,%rsp
  403c56:	5b                   	pop    %rbx
  403c57:	c3                   	retq   
  403c58:	0f 1f 84 00 00 00 00 	nopl   0x0(%rax,%rax,1)
  403c5f:	00 
  403c60:	48 8b 51 10          	mov    0x10(%rcx),%rdx
  403c64:	48 89 50 10          	mov    %rdx,0x10(%rax)
  403c68:	e8 93 01 00 00       	callq  0x403e00
  403c6d:	48 8d 0d 0c 5d 00 00 	lea    0x5d0c(%rip),%rcx        # 0x409980
  403c74:	ff 15 4e 68 00 00    	callq  *0x684e(%rip)        # 0x40a4c8
  403c7a:	eb d4                	jmp    0x403c50
  403c7c:	48 8b 50 10          	mov    0x10(%rax),%rdx
  403c80:	48 89 c1             	mov    %rax,%rcx
  403c83:	48 89 15 1e 5d 00 00 	mov    %rdx,0x5d1e(%rip)        # 0x4099a8
  403c8a:	eb dc                	jmp    0x403c68
  403c8c:	0f 1f 40 00          	nopl   0x0(%rax)
  403c90:	48 83 ec 28          	sub    $0x28,%rsp
  403c94:	83 fa 01             	cmp    $0x1,%edx
  403c97:	74 47                	je     0x403ce0
  403c99:	72 15                	jb     0x403cb0
  403c9b:	83 fa 03             	cmp    $0x3,%edx
  403c9e:	74 60                	je     0x403d00
  403ca0:	b8 01 00 00 00       	mov    $0x1,%eax
  403ca5:	48 83 c4 28          	add    $0x28,%rsp
  403ca9:	c3                   	retq   
  403caa:	66 0f 1f 44 00 00    	nopw   0x0(%rax,%rax,1)
  403cb0:	8b 05 aa 5c 00 00    	mov    0x5caa(%rip),%eax        # 0x409960
  403cb6:	85 c0                	test   %eax,%eax
  403cb8:	75 66                	jne    0x403d20
  403cba:	8b 05 a0 5c 00 00    	mov    0x5ca0(%rip),%eax        # 0x409960
  403cc0:	83 f8 01             	cmp    $0x1,%eax
  403cc3:	75 db                	jne    0x403ca0
  403cc5:	48 8d 0d b4 5c 00 00 	lea    0x5cb4(%rip),%rcx        # 0x409980
  403ccc:	c7 05 8a 5c 00 00 00 	movl   $0x0,0x5c8a(%rip)        # 0x409960
  403cd3:	00 00 00 
  403cd6:	ff 15 5c 67 00 00    	callq  *0x675c(%rip)        # 0x40a438
  403cdc:	eb c2                	jmp    0x403ca0
  403cde:	66 90                	xchg   %ax,%ax
  403ce0:	8b 05 7a 5c 00 00    	mov    0x5c7a(%rip),%eax        # 0x409960
  403ce6:	85 c0                	test   %eax,%eax
  403ce8:	74 27                	je     0x403d11
  403cea:	b8 01 00 00 00       	mov    $0x1,%eax
  403cef:	c7 05 67 5c 00 00 01 	movl   $0x1,0x5c67(%rip)        # 0x409960
  403cf6:	00 00 00 
  403cf9:	48 83 c4 28          	add    $0x28,%rsp
  403cfd:	c3                   	retq   
  403cfe:	66 90                	xchg   %ax,%ax
  403d00:	8b 05 5a 5c 00 00    	mov    0x5c5a(%rip),%eax        # 0x409960
  403d06:	85 c0                	test   %eax,%eax
  403d08:	74 96                	je     0x403ca0
  403d0a:	e8 f1 fd ff ff       	callq  0x403b00
  403d0f:	eb 8f                	jmp    0x403ca0
  403d11:	48 8d 0d 68 5c 00 00 	lea    0x5c68(%rip),%rcx        # 0x409980
  403d18:	ff 15 a2 67 00 00    	callq  *0x67a2(%rip)        # 0x40a4c0
  403d1e:	eb ca                	jmp    0x403cea
  403d20:	e8 db fd ff ff       	callq  0x403b00
  403d25:	eb 93                	jmp    0x403cba
  403d27:	90                   	nop
  403d28:	90                   	nop
  403d29:	90                   	nop
  403d2a:	90                   	nop
  403d2b:	90                   	nop
  403d2c:	90                   	nop
  403d2d:	90                   	nop
  403d2e:	90                   	nop
  403d2f:	90                   	nop
  403d30:	51                   	push   %rcx
  403d31:	50                   	push   %rax
  403d32:	48 3d 00 10 00 00    	cmp    $0x1000,%rax
  403d38:	48 8d 4c 24 18       	lea    0x18(%rsp),%rcx
  403d3d:	72 19                	jb     0x403d58
  403d3f:	48 81 e9 00 10 00 00 	sub    $0x1000,%rcx
  403d46:	48 83 09 00          	orq    $0x0,(%rcx)
  403d4a:	48 2d 00 10 00 00    	sub    $0x1000,%rax
  403d50:	48 3d 00 10 00 00    	cmp    $0x1000,%rax
  403d56:	77 e7                	ja     0x403d3f
  403d58:	48 29 c1             	sub    %rax,%rcx
  403d5b:	48 83 09 00          	orq    $0x0,(%rcx)
  403d5f:	58                   	pop    %rax
  403d60:	59                   	pop    %rcx
  403d61:	c3                   	retq   
  403d62:	90                   	nop
  403d63:	90                   	nop
  403d64:	90                   	nop
  403d65:	90                   	nop
  403d66:	90                   	nop
  403d67:	90                   	nop
  403d68:	90                   	nop
  403d69:	90                   	nop
  403d6a:	90                   	nop
  403d6b:	90                   	nop
  403d6c:	90                   	nop
  403d6d:	90                   	nop
  403d6e:	90                   	nop
  403d6f:	90                   	nop
  403d70:	ff 25 fa 67 00 00    	jmpq   *0x67fa(%rip)        # 0x40a570
  403d76:	90                   	nop
  403d77:	90                   	nop
	...
  403d80:	ff 25 fa 67 00 00    	jmpq   *0x67fa(%rip)        # 0x40a580
  403d86:	90                   	nop
  403d87:	90                   	nop
  403d88:	ff 25 02 68 00 00    	jmpq   *0x6802(%rip)        # 0x40a590
  403d8e:	90                   	nop
  403d8f:	90                   	nop
  403d90:	ff 25 1a 68 00 00    	jmpq   *0x681a(%rip)        # 0x40a5b0
  403d96:	90                   	nop
  403d97:	90                   	nop
  403d98:	ff 25 aa 68 00 00    	jmpq   *0x68aa(%rip)        # 0x40a648
  403d9e:	90                   	nop
  403d9f:	90                   	nop
  403da0:	ff 25 9a 68 00 00    	jmpq   *0x689a(%rip)        # 0x40a640
  403da6:	90                   	nop
  403da7:	90                   	nop
  403da8:	ff 25 c2 68 00 00    	jmpq   *0x68c2(%rip)        # 0x40a670
  403dae:	90                   	nop
  403daf:	90                   	nop
  403db0:	ff 25 1a 68 00 00    	jmpq   *0x681a(%rip)        # 0x40a5d0
  403db6:	90                   	nop
  403db7:	90                   	nop
  403db8:	ff 25 0a 68 00 00    	jmpq   *0x680a(%rip)        # 0x40a5c8
  403dbe:	90                   	nop
  403dbf:	90                   	nop
  403dc0:	ff 25 1a 68 00 00    	jmpq   *0x681a(%rip)        # 0x40a5e0
  403dc6:	90                   	nop
  403dc7:	90                   	nop
  403dc8:	ff 25 52 68 00 00    	jmpq   *0x6852(%rip)        # 0x40a620
  403dce:	90                   	nop
  403dcf:	90                   	nop
  403dd0:	ff 25 2a 68 00 00    	jmpq   *0x682a(%rip)        # 0x40a600
  403dd6:	90                   	nop
  403dd7:	90                   	nop
  403dd8:	ff 25 8a 68 00 00    	jmpq   *0x688a(%rip)        # 0x40a668
  403dde:	90                   	nop
  403ddf:	90                   	nop
  403de0:	ff 25 9a 68 00 00    	jmpq   *0x689a(%rip)        # 0x40a680
  403de6:	90                   	nop
  403de7:	90                   	nop
  403de8:	ff 25 22 68 00 00    	jmpq   *0x6822(%rip)        # 0x40a610
  403dee:	90                   	nop
  403def:	90                   	nop
  403df0:	ff 25 6a 68 00 00    	jmpq   *0x686a(%rip)        # 0x40a660
  403df6:	90                   	nop
  403df7:	90                   	nop
  403df8:	ff 25 52 68 00 00    	jmpq   *0x6852(%rip)        # 0x40a650
  403dfe:	90                   	nop
  403dff:	90                   	nop
  403e00:	ff 25 2a 68 00 00    	jmpq   *0x682a(%rip)        # 0x40a630
  403e06:	90                   	nop
  403e07:	90                   	nop
  403e08:	ff 25 9a 67 00 00    	jmpq   *0x679a(%rip)        # 0x40a5a8
  403e0e:	90                   	nop
  403e0f:	90                   	nop
  403e10:	ff 25 da 67 00 00    	jmpq   *0x67da(%rip)        # 0x40a5f0
  403e16:	90                   	nop
  403e17:	90                   	nop
  403e18:	ff 25 ca 67 00 00    	jmpq   *0x67ca(%rip)        # 0x40a5e8
  403e1e:	90                   	nop
  403e1f:	90                   	nop
  403e20:	ff 25 62 67 00 00    	jmpq   *0x6762(%rip)        # 0x40a588
  403e26:	90                   	nop
  403e27:	90                   	nop
  403e28:	ff 25 ca 67 00 00    	jmpq   *0x67ca(%rip)        # 0x40a5f8
  403e2e:	90                   	nop
  403e2f:	90                   	nop
  403e30:	ff 25 22 68 00 00    	jmpq   *0x6822(%rip)        # 0x40a658
  403e36:	90                   	nop
  403e37:	90                   	nop
  403e38:	ff 25 7a 67 00 00    	jmpq   *0x677a(%rip)        # 0x40a5b8
  403e3e:	90                   	nop
  403e3f:	90                   	nop
  403e40:	ff 25 5a 67 00 00    	jmpq   *0x675a(%rip)        # 0x40a5a0
  403e46:	90                   	nop
  403e47:	90                   	nop
  403e48:	ff 25 da 67 00 00    	jmpq   *0x67da(%rip)        # 0x40a628
  403e4e:	90                   	nop
  403e4f:	90                   	nop
  403e50:	ff 25 e2 67 00 00    	jmpq   *0x67e2(%rip)        # 0x40a638
  403e56:	90                   	nop
  403e57:	90                   	nop
  403e58:	ff 25 2a 68 00 00    	jmpq   *0x682a(%rip)        # 0x40a688
  403e5e:	90                   	nop
  403e5f:	90                   	nop
  403e60:	ff 25 a2 67 00 00    	jmpq   *0x67a2(%rip)        # 0x40a608
  403e66:	90                   	nop
  403e67:	90                   	nop
  403e68:	ff 25 0a 68 00 00    	jmpq   *0x680a(%rip)        # 0x40a678
  403e6e:	90                   	nop
  403e6f:	90                   	nop
  403e70:	ff 25 a2 67 00 00    	jmpq   *0x67a2(%rip)        # 0x40a618
  403e76:	90                   	nop
  403e77:	90                   	nop
	...
  403e80:	ff 25 52 65 00 00    	jmpq   *0x6552(%rip)        # 0x40a3d8
  403e86:	90                   	nop
  403e87:	90                   	nop
  403e88:	ff 25 6a 65 00 00    	jmpq   *0x656a(%rip)        # 0x40a3f8
  403e8e:	90                   	nop
  403e8f:	90                   	nop
  403e90:	ff 25 6a 65 00 00    	jmpq   *0x656a(%rip)        # 0x40a400
  403e96:	90                   	nop
  403e97:	90                   	nop
  403e98:	ff 25 0a 65 00 00    	jmpq   *0x650a(%rip)        # 0x40a3a8
  403e9e:	90                   	nop
  403e9f:	90                   	nop
  403ea0:	ff 25 1a 65 00 00    	jmpq   *0x651a(%rip)        # 0x40a3c0
  403ea6:	90                   	nop
  403ea7:	90                   	nop
  403ea8:	ff 25 ea 64 00 00    	jmpq   *0x64ea(%rip)        # 0x40a398
  403eae:	90                   	nop
  403eaf:	90                   	nop
  403eb0:	ff 25 12 65 00 00    	jmpq   *0x6512(%rip)        # 0x40a3c8
  403eb6:	90                   	nop
  403eb7:	90                   	nop
  403eb8:	ff 25 e2 64 00 00    	jmpq   *0x64e2(%rip)        # 0x40a3a0
  403ebe:	90                   	nop
  403ebf:	90                   	nop
  403ec0:	ff 25 ea 64 00 00    	jmpq   *0x64ea(%rip)        # 0x40a3b0
  403ec6:	90                   	nop
  403ec7:	90                   	nop
  403ec8:	ff 25 02 65 00 00    	jmpq   *0x6502(%rip)        # 0x40a3d0
  403ece:	90                   	nop
  403ecf:	90                   	nop
  403ed0:	ff 25 0a 65 00 00    	jmpq   *0x650a(%rip)        # 0x40a3e0
  403ed6:	90                   	nop
  403ed7:	90                   	nop
  403ed8:	ff 25 b2 64 00 00    	jmpq   *0x64b2(%rip)        # 0x40a390
  403ede:	90                   	nop
  403edf:	90                   	nop
  403ee0:	ff 25 02 65 00 00    	jmpq   *0x6502(%rip)        # 0x40a3e8
  403ee6:	90                   	nop
  403ee7:	90                   	nop
  403ee8:	ff 25 ca 64 00 00    	jmpq   *0x64ca(%rip)        # 0x40a3b8
  403eee:	90                   	nop
  403eef:	90                   	nop
  403ef0:	ff 25 fa 64 00 00    	jmpq   *0x64fa(%rip)        # 0x40a3f0
  403ef6:	90                   	nop
  403ef7:	90                   	nop
	...
  403f00:	ff 25 22 66 00 00    	jmpq   *0x6622(%rip)        # 0x40a528
  403f06:	90                   	nop
  403f07:	90                   	nop
  403f08:	ff 25 12 66 00 00    	jmpq   *0x6612(%rip)        # 0x40a520
  403f0e:	90                   	nop
  403f0f:	90                   	nop
  403f10:	ff 25 8a 65 00 00    	jmpq   *0x658a(%rip)        # 0x40a4a0
  403f16:	90                   	nop
  403f17:	90                   	nop
  403f18:	ff 25 8a 65 00 00    	jmpq   *0x658a(%rip)        # 0x40a4a8
  403f1e:	90                   	nop
  403f1f:	90                   	nop
  403f20:	ff 25 0a 65 00 00    	jmpq   *0x650a(%rip)        # 0x40a430
  403f26:	90                   	nop
  403f27:	90                   	nop
  403f28:	ff 25 e2 64 00 00    	jmpq   *0x64e2(%rip)        # 0x40a410
  403f2e:	90                   	nop
  403f2f:	90                   	nop
  403f30:	ff 25 4a 65 00 00    	jmpq   *0x654a(%rip)        # 0x40a480
  403f36:	90                   	nop
  403f37:	90                   	nop
  403f38:	ff 25 22 66 00 00    	jmpq   *0x6622(%rip)        # 0x40a560
  403f3e:	90                   	nop
  403f3f:	90                   	nop
  403f40:	ff 25 0a 65 00 00    	jmpq   *0x650a(%rip)        # 0x40a450
  403f46:	90                   	nop
  403f47:	90                   	nop
  403f48:	ff 25 4a 65 00 00    	jmpq   *0x654a(%rip)        # 0x40a498
  403f4e:	90                   	nop
  403f4f:	90                   	nop
  403f50:	ff 25 3a 65 00 00    	jmpq   *0x653a(%rip)        # 0x40a490
  403f56:	90                   	nop
  403f57:	90                   	nop
  403f58:	ff 25 02 65 00 00    	jmpq   *0x6502(%rip)        # 0x40a460
  403f5e:	90                   	nop
  403f5f:	90                   	nop
  403f60:	ff 25 c2 64 00 00    	jmpq   *0x64c2(%rip)        # 0x40a428
  403f66:	90                   	nop
  403f67:	90                   	nop
  403f68:	ff 25 aa 64 00 00    	jmpq   *0x64aa(%rip)        # 0x40a418
  403f6e:	90                   	nop
  403f6f:	90                   	nop
  403f70:	ff 25 a2 65 00 00    	jmpq   *0x65a2(%rip)        # 0x40a518
  403f76:	90                   	nop
  403f77:	90                   	nop
  403f78:	ff 25 72 65 00 00    	jmpq   *0x6572(%rip)        # 0x40a4f0
  403f7e:	90                   	nop
  403f7f:	90                   	nop
  403f80:	ff 25 62 65 00 00    	jmpq   *0x6562(%rip)        # 0x40a4e8
  403f86:	90                   	nop
  403f87:	90                   	nop
  403f88:	ff 25 ca 65 00 00    	jmpq   *0x65ca(%rip)        # 0x40a558
  403f8e:	90                   	nop
  403f8f:	90                   	nop
  403f90:	ff 25 e2 64 00 00    	jmpq   *0x64e2(%rip)        # 0x40a478
  403f96:	90                   	nop
  403f97:	90                   	nop
  403f98:	ff 25 a2 64 00 00    	jmpq   *0x64a2(%rip)        # 0x40a440
  403f9e:	90                   	nop
  403f9f:	90                   	nop
  403fa0:	ff 25 b2 64 00 00    	jmpq   *0x64b2(%rip)        # 0x40a458
  403fa6:	90                   	nop
  403fa7:	90                   	nop
  403fa8:	ff 25 ba 64 00 00    	jmpq   *0x64ba(%rip)        # 0x40a468
  403fae:	90                   	nop
  403faf:	90                   	nop
  403fb0:	ff 25 7a 65 00 00    	jmpq   *0x657a(%rip)        # 0x40a530
  403fb6:	90                   	nop
  403fb7:	90                   	nop
  403fb8:	ff 25 1a 65 00 00    	jmpq   *0x651a(%rip)        # 0x40a4d8
  403fbe:	90                   	nop
  403fbf:	90                   	nop
  403fc0:	ff 25 5a 64 00 00    	jmpq   *0x645a(%rip)        # 0x40a420
  403fc6:	90                   	nop
  403fc7:	90                   	nop
  403fc8:	ff 25 2a 65 00 00    	jmpq   *0x652a(%rip)        # 0x40a4f8
  403fce:	90                   	nop
  403fcf:	90                   	nop
  403fd0:	ff 25 7a 65 00 00    	jmpq   *0x657a(%rip)        # 0x40a550
  403fd6:	90                   	nop
  403fd7:	90                   	nop
  403fd8:	ff 25 6a 65 00 00    	jmpq   *0x656a(%rip)        # 0x40a548
  403fde:	90                   	nop
  403fdf:	90                   	nop
  403fe0:	ff 25 a2 64 00 00    	jmpq   *0x64a2(%rip)        # 0x40a488
  403fe6:	90                   	nop
  403fe7:	90                   	nop
  403fe8:	ff 25 e2 64 00 00    	jmpq   *0x64e2(%rip)        # 0x40a4d0
  403fee:	90                   	nop
  403fef:	90                   	nop
  403ff0:	ff 25 ba 64 00 00    	jmpq   *0x64ba(%rip)        # 0x40a4b0
  403ff6:	90                   	nop
  403ff7:	90                   	nop
  403ff8:	ff 25 72 64 00 00    	jmpq   *0x6472(%rip)        # 0x40a470
  403ffe:	90                   	nop
  403fff:	90                   	nop
  404000:	ff 25 b2 64 00 00    	jmpq   *0x64b2(%rip)        # 0x40a4b8
  404006:	90                   	nop
  404007:	90                   	nop
  404008:	ff 25 d2 64 00 00    	jmpq   *0x64d2(%rip)        # 0x40a4e0
  40400e:	90                   	nop
  40400f:	90                   	nop
  404010:	ff 25 ea 64 00 00    	jmpq   *0x64ea(%rip)        # 0x40a500
  404016:	90                   	nop
  404017:	90                   	nop
  404018:	ff 25 ea 64 00 00    	jmpq   *0x64ea(%rip)        # 0x40a508
  40401e:	90                   	nop
  40401f:	90                   	nop
  404020:	ff 25 ea 64 00 00    	jmpq   *0x64ea(%rip)        # 0x40a510
  404026:	90                   	nop
  404027:	90                   	nop
  404028:	ff 25 12 65 00 00    	jmpq   *0x6512(%rip)        # 0x40a540
  40402e:	90                   	nop
  40402f:	90                   	nop
  404030:	ff 25 12 64 00 00    	jmpq   *0x6412(%rip)        # 0x40a448
  404036:	90                   	nop
  404037:	90                   	nop
  404038:	ff 25 fa 64 00 00    	jmpq   *0x64fa(%rip)        # 0x40a538
  40403e:	90                   	nop
  40403f:	90                   	nop
  404040:	ff 25 82 64 00 00    	jmpq   *0x6482(%rip)        # 0x40a4c8
  404046:	90                   	nop
  404047:	90                   	nop
  404048:	ff 25 ea 63 00 00    	jmpq   *0x63ea(%rip)        # 0x40a438
  40404e:	90                   	nop
  40404f:	90                   	nop
  404050:	ff 25 6a 64 00 00    	jmpq   *0x646a(%rip)        # 0x40a4c0
  404056:	90                   	nop
  404057:	90                   	nop
	...
  404060:	48 83 ec 48          	sub    $0x48,%rsp
  404064:	e8 a7 f8 ff ff       	callq  0x403910
  404069:	48 8d 05 b0 1f 00 00 	lea    0x1fb0(%rip),%rax        # 0x406020
  404070:	48 8d 4c 24 20       	lea    0x20(%rsp),%rcx
  404075:	48 c7 44 24 30 00 00 	movq   $0x0,0x30(%rsp)
  40407c:	00 00 
  40407e:	48 c7 44 24 38 00 00 	movq   $0x0,0x38(%rsp)
  404085:	00 00 
  404087:	48 89 44 24 20       	mov    %rax,0x20(%rsp)
  40408c:	48 8d 05 5d d4 ff ff 	lea    -0x2ba3(%rip),%rax        # 0x4014f0
  404093:	48 89 44 24 28       	mov    %rax,0x28(%rsp)
  404098:	ff 15 62 63 00 00    	callq  *0x6362(%rip)        # 0x40a400
  40409e:	31 c0                	xor    %eax,%eax
  4040a0:	48 83 c4 48          	add    $0x48,%rsp
  4040a4:	c3                   	retq   
  4040a5:	90                   	nop
  4040a6:	90                   	nop
  4040a7:	90                   	nop
  4040a8:	90                   	nop
  4040a9:	90                   	nop
  4040aa:	90                   	nop
  4040ab:	90                   	nop
  4040ac:	90                   	nop
  4040ad:	90                   	nop
  4040ae:	90                   	nop
  4040af:	90                   	nop
  4040b0:	ff                   	(bad)  
  4040b1:	ff                   	(bad)  
  4040b2:	ff                   	(bad)  
  4040b3:	ff                   	(bad)  
  4040b4:	ff                   	(bad)  
  4040b5:	ff                   	(bad)  
  4040b6:	ff                   	(bad)  
  4040b7:	ff 00                	incl   (%rax)
  4040b9:	00 00                	add    %al,(%rax)
  4040bb:	00 00                	add    %al,(%rax)
  4040bd:	00 00                	add    %al,(%rax)
  4040bf:	00 ff                	add    %bh,%bh
  4040c1:	ff                   	(bad)  
  4040c2:	ff                   	(bad)  
  4040c3:	ff                   	(bad)  
  4040c4:	ff                   	(bad)  
  4040c5:	ff                   	(bad)  
  4040c6:	ff                   	(bad)  
  4040c7:	ff 00                	incl   (%rax)
  4040c9:	00 00                	add    %al,(%rax)
  4040cb:	00 00                	add    %al,(%rax)
  4040cd:	00 00                	add    %al,(%rax)
	...
