
EquationDrug_4556CE5EB007AF1DE5BD3B457F0B216D:     file format pei-i386


Disassembly of section .text:

00401000 <.text>:
  401000:	55                   	push   %ebp
  401001:	8b ec                	mov    %esp,%ebp
  401003:	83 ec 08             	sub    $0x8,%esp
  401006:	8b 45 08             	mov    0x8(%ebp),%eax
  401009:	50                   	push   %eax
  40100a:	e8 a7 70 00 00       	call   0x4080b6
  40100f:	83 c4 04             	add    $0x4,%esp
  401012:	89 45 fc             	mov    %eax,-0x4(%ebp)
  401015:	c7 45 f8 00 00 00 00 	movl   $0x0,-0x8(%ebp)
  40101c:	eb 09                	jmp    0x401027
  40101e:	8b 4d f8             	mov    -0x8(%ebp),%ecx
  401021:	83 c1 01             	add    $0x1,%ecx
  401024:	89 4d f8             	mov    %ecx,-0x8(%ebp)
  401027:	8b 55 f8             	mov    -0x8(%ebp),%edx
  40102a:	3b 55 fc             	cmp    -0x4(%ebp),%edx
  40102d:	7d 16                	jge    0x401045
  40102f:	8b 45 08             	mov    0x8(%ebp),%eax
  401032:	03 45 f8             	add    -0x8(%ebp),%eax
  401035:	0f be 08             	movsbl (%eax),%ecx
  401038:	33 4d 0c             	xor    0xc(%ebp),%ecx
  40103b:	8b 55 08             	mov    0x8(%ebp),%edx
  40103e:	03 55 f8             	add    -0x8(%ebp),%edx
  401041:	88 0a                	mov    %cl,(%edx)
  401043:	eb d9                	jmp    0x40101e
  401045:	8b e5                	mov    %ebp,%esp
  401047:	5d                   	pop    %ebp
  401048:	c3                   	ret    
  401049:	cc                   	int3   
  40104a:	cc                   	int3   
  40104b:	cc                   	int3   
  40104c:	cc                   	int3   
  40104d:	cc                   	int3   
  40104e:	cc                   	int3   
  40104f:	cc                   	int3   
  401050:	55                   	push   %ebp
  401051:	8b ec                	mov    %esp,%ebp
  401053:	6a 7f                	push   $0x7f
  401055:	8b 45 08             	mov    0x8(%ebp),%eax
  401058:	50                   	push   %eax
  401059:	e8 a2 ff ff ff       	call   0x401000
  40105e:	83 c4 08             	add    $0x8,%esp
  401061:	5d                   	pop    %ebp
  401062:	c3                   	ret    
  401063:	cc                   	int3   
  401064:	cc                   	int3   
  401065:	cc                   	int3   
  401066:	cc                   	int3   
  401067:	cc                   	int3   
  401068:	cc                   	int3   
  401069:	cc                   	int3   
  40106a:	cc                   	int3   
  40106b:	cc                   	int3   
  40106c:	cc                   	int3   
  40106d:	cc                   	int3   
  40106e:	cc                   	int3   
  40106f:	cc                   	int3   
  401070:	55                   	push   %ebp
  401071:	8b ec                	mov    %esp,%ebp
  401073:	6a 3c                	push   $0x3c
  401075:	8b 45 08             	mov    0x8(%ebp),%eax
  401078:	50                   	push   %eax
  401079:	e8 82 ff ff ff       	call   0x401000
  40107e:	83 c4 08             	add    $0x8,%esp
  401081:	5d                   	pop    %ebp
  401082:	c3                   	ret    
  401083:	cc                   	int3   
  401084:	cc                   	int3   
  401085:	cc                   	int3   
  401086:	cc                   	int3   
  401087:	cc                   	int3   
  401088:	cc                   	int3   
  401089:	cc                   	int3   
  40108a:	cc                   	int3   
  40108b:	cc                   	int3   
  40108c:	cc                   	int3   
  40108d:	cc                   	int3   
  40108e:	cc                   	int3   
  40108f:	cc                   	int3   
  401090:	55                   	push   %ebp
  401091:	8b ec                	mov    %esp,%ebp
  401093:	6a ff                	push   $0xffffffff
  401095:	68 d8 91 40 00       	push   $0x4091d8
  40109a:	68 c0 7b 40 00       	push   $0x407bc0
  40109f:	64 a1 00 00 00 00    	mov    %fs:0x0,%eax
  4010a5:	50                   	push   %eax
  4010a6:	64 89 25 00 00 00 00 	mov    %esp,%fs:0x0
  4010ad:	81 c4 98 fa ff ff    	add    $0xfffffa98,%esp
  4010b3:	53                   	push   %ebx
  4010b4:	56                   	push   %esi
  4010b5:	57                   	push   %edi
  4010b6:	89 65 e8             	mov    %esp,-0x18(%ebp)
  4010b9:	c7 85 74 ff ff ff 00 	movl   $0x0,-0x8c(%ebp)
  4010c0:	00 00 00 
  4010c3:	c7 45 9c 00 00 00 00 	movl   $0x0,-0x64(%ebp)
  4010ca:	c7 45 b8 00 00 00 00 	movl   $0x0,-0x48(%ebp)
  4010d1:	c7 45 8c 00 00 00 00 	movl   $0x0,-0x74(%ebp)
  4010d8:	c7 85 58 fe ff ff 00 	movl   $0x0,-0x1a8(%ebp)
  4010df:	00 00 00 
  4010e2:	c7 45 a0 00 00 00 00 	movl   $0x0,-0x60(%ebp)
  4010e9:	c6 45 bc 08          	movb   $0x8,-0x44(%ebp)
  4010ed:	c6 45 bd 16          	movb   $0x16,-0x43(%ebp)
  4010f1:	c6 45 be 11          	movb   $0x11,-0x42(%ebp)
  4010f5:	c6 45 bf 16          	movb   $0x16,-0x41(%ebp)
  4010f9:	c6 45 c0 11          	movb   $0x11,-0x40(%ebp)
  4010fd:	c6 45 c1 1a          	movb   $0x1a,-0x3f(%ebp)
  401101:	c6 45 c2 0b          	movb   $0xb,-0x3e(%ebp)
  401105:	c6 45 c3 51          	movb   $0x51,-0x3d(%ebp)
  401109:	c6 45 c4 1b          	movb   $0x1b,-0x3c(%ebp)
  40110d:	c6 45 c5 13          	movb   $0x13,-0x3b(%ebp)
  401111:	c6 45 c6 13          	movb   $0x13,-0x3a(%ebp)
  401115:	c6 45 c7 00          	movb   $0x0,-0x39(%ebp)
  401119:	c6 45 a4 32          	movb   $0x32,-0x5c(%ebp)
  40111d:	c6 45 a5 16          	movb   $0x16,-0x5b(%ebp)
  401121:	c6 45 a6 1c          	movb   $0x1c,-0x5a(%ebp)
  401125:	c6 45 a7 0d          	movb   $0xd,-0x59(%ebp)
  401129:	c6 45 a8 10          	movb   $0x10,-0x58(%ebp)
  40112d:	c6 45 a9 0c          	movb   $0xc,-0x57(%ebp)
  401131:	c6 45 aa 10          	movb   $0x10,-0x56(%ebp)
  401135:	c6 45 ab 19          	movb   $0x19,-0x55(%ebp)
  401139:	c6 45 ac 0b          	movb   $0xb,-0x54(%ebp)
  40113d:	c6 45 ad 00          	movb   $0x0,-0x53(%ebp)
  401141:	c6 45 d4 36          	movb   $0x36,-0x2c(%ebp)
  401145:	c6 45 d5 11          	movb   $0x11,-0x2b(%ebp)
  401149:	c6 45 d6 0b          	movb   $0xb,-0x2a(%ebp)
  40114d:	c6 45 d7 1a          	movb   $0x1a,-0x29(%ebp)
  401151:	c6 45 d8 0d          	movb   $0xd,-0x28(%ebp)
  401155:	c6 45 d9 11          	movb   $0x11,-0x27(%ebp)
  401159:	c6 45 da 1a          	movb   $0x1a,-0x26(%ebp)
  40115d:	c6 45 db 0b          	movb   $0xb,-0x25(%ebp)
  401161:	c6 45 dc 5f          	movb   $0x5f,-0x24(%ebp)
  401165:	c6 45 dd 3a          	movb   $0x3a,-0x23(%ebp)
  401169:	c6 45 de 07          	movb   $0x7,-0x22(%ebp)
  40116d:	c6 45 df 0f          	movb   $0xf,-0x21(%ebp)
  401171:	c6 45 e0 13          	movb   $0x13,-0x20(%ebp)
  401175:	c6 45 e1 10          	movb   $0x10,-0x1f(%ebp)
  401179:	c6 45 e2 0d          	movb   $0xd,-0x1e(%ebp)
  40117d:	c6 45 e3 1a          	movb   $0x1a,-0x1d(%ebp)
  401181:	c6 45 e4 0d          	movb   $0xd,-0x1c(%ebp)
  401185:	c6 45 e5 00          	movb   $0x0,-0x1b(%ebp)
  401189:	c6 45 c8 0c          	movb   $0xc,-0x38(%ebp)
  40118d:	c6 45 c9 17          	movb   $0x17,-0x37(%ebp)
  401191:	c6 45 ca 1a          	movb   $0x1a,-0x36(%ebp)
  401195:	c6 45 cb 13          	movb   $0x13,-0x35(%ebp)
  401199:	c6 45 cc 13          	movb   $0x13,-0x34(%ebp)
  40119d:	c6 45 cd 4c          	movb   $0x4c,-0x33(%ebp)
  4011a1:	c6 45 ce 4d          	movb   $0x4d,-0x32(%ebp)
  4011a5:	c6 45 cf 51          	movb   $0x51,-0x31(%ebp)
  4011a9:	c6 45 d0 1b          	movb   $0x1b,-0x30(%ebp)
  4011ad:	c6 45 d1 13          	movb   $0x13,-0x2f(%ebp)
  4011b1:	c6 45 d2 13          	movb   $0x13,-0x2e(%ebp)
  4011b5:	c6 45 d3 00          	movb   $0x0,-0x2d(%ebp)
  4011b9:	c6 85 78 ff ff ff 2c 	movb   $0x2c,-0x88(%ebp)
  4011c0:	c6 85 79 ff ff ff 37 	movb   $0x37,-0x87(%ebp)
  4011c7:	c6 85 7a ff ff ff 38 	movb   $0x38,-0x86(%ebp)
  4011ce:	c6 85 7b ff ff ff 1a 	movb   $0x1a,-0x85(%ebp)
  4011d5:	c6 85 7c ff ff ff 0b 	movb   $0xb,-0x84(%ebp)
  4011dc:	c6 85 7d ff ff ff 39 	movb   $0x39,-0x83(%ebp)
  4011e3:	c6 85 7e ff ff ff 10 	movb   $0x10,-0x82(%ebp)
  4011ea:	c6 85 7f ff ff ff 13 	movb   $0x13,-0x81(%ebp)
  4011f1:	c6 45 80 1b          	movb   $0x1b,-0x80(%ebp)
  4011f5:	c6 45 81 1a          	movb   $0x1a,-0x7f(%ebp)
  4011f9:	c6 45 82 0d          	movb   $0xd,-0x7e(%ebp)
  4011fd:	c6 45 83 2f          	movb   $0x2f,-0x7d(%ebp)
  401201:	c6 45 84 1e          	movb   $0x1e,-0x7c(%ebp)
  401205:	c6 45 85 0b          	movb   $0xb,-0x7b(%ebp)
  401209:	c6 45 86 17          	movb   $0x17,-0x7a(%ebp)
  40120d:	c6 45 87 3e          	movb   $0x3e,-0x79(%ebp)
  401211:	c6 45 88 00          	movb   $0x0,-0x78(%ebp)
  401215:	c6 45 b0 5a          	movb   $0x5a,-0x50(%ebp)
  401219:	c6 45 b1 0c          	movb   $0xc,-0x4f(%ebp)
  40121d:	c6 45 b2 23          	movb   $0x23,-0x4e(%ebp)
  401221:	c6 45 b3 5a          	movb   $0x5a,-0x4d(%ebp)
  401225:	c6 45 b4 0c          	movb   $0xc,-0x4c(%ebp)
  401229:	c6 45 b5 00          	movb   $0x0,-0x4b(%ebp)
  40122d:	c6 45 90 5a          	movb   $0x5a,-0x70(%ebp)
  401231:	c6 45 91 0c          	movb   $0xc,-0x6f(%ebp)
  401235:	c6 45 92 23          	movb   $0x23,-0x6e(%ebp)
  401239:	c6 45 93 5a          	movb   $0x5a,-0x6d(%ebp)
  40123d:	c6 45 94 0c          	movb   $0xc,-0x6c(%ebp)
  401241:	c6 45 95 23          	movb   $0x23,-0x6b(%ebp)
  401245:	c6 45 96 5a          	movb   $0x5a,-0x6a(%ebp)
  401249:	c6 45 97 0c          	movb   $0xc,-0x69(%ebp)
  40124d:	c6 45 98 00          	movb   $0x0,-0x68(%ebp)
  401251:	c6 85 5c fe ff ff 5a 	movb   $0x5a,-0x1a4(%ebp)
  401258:	c6 85 5d fe ff ff 0c 	movb   $0xc,-0x1a3(%ebp)
  40125f:	c6 85 5e fe ff ff 23 	movb   $0x23,-0x1a2(%ebp)
  401266:	c6 85 5f fe ff ff 5a 	movb   $0x5a,-0x1a1(%ebp)
  40126d:	c6 85 60 fe ff ff 0c 	movb   $0xc,-0x1a0(%ebp)
  401274:	c6 85 61 fe ff ff 23 	movb   $0x23,-0x19f(%ebp)
  40127b:	c6 85 62 fe ff ff 5a 	movb   $0x5a,-0x19e(%ebp)
  401282:	c6 85 63 fe ff ff 0c 	movb   $0xc,-0x19d(%ebp)
  401289:	c6 85 64 fe ff ff 23 	movb   $0x23,-0x19c(%ebp)
  401290:	c6 85 65 fe ff ff 5a 	movb   $0x5a,-0x19b(%ebp)
  401297:	c6 85 66 fe ff ff 0c 	movb   $0xc,-0x19a(%ebp)
  40129e:	c6 85 67 fe ff ff 00 	movb   $0x0,-0x199(%ebp)
  4012a5:	c7 45 fc 00 00 00 00 	movl   $0x0,-0x4(%ebp)
  4012ac:	c7 45 fc 01 00 00 00 	movl   $0x1,-0x4(%ebp)
  4012b3:	8d 45 bc             	lea    -0x44(%ebp),%eax
  4012b6:	50                   	push   %eax
  4012b7:	e8 94 fd ff ff       	call   0x401050
  4012bc:	83 c4 04             	add    $0x4,%esp
  4012bf:	8d 4d a4             	lea    -0x5c(%ebp),%ecx
  4012c2:	51                   	push   %ecx
  4012c3:	e8 88 fd ff ff       	call   0x401050
  4012c8:	83 c4 04             	add    $0x4,%esp
  4012cb:	8d 55 d4             	lea    -0x2c(%ebp),%edx
  4012ce:	52                   	push   %edx
  4012cf:	e8 7c fd ff ff       	call   0x401050
  4012d4:	83 c4 04             	add    $0x4,%esp
  4012d7:	8d 45 c8             	lea    -0x38(%ebp),%eax
  4012da:	50                   	push   %eax
  4012db:	e8 70 fd ff ff       	call   0x401050
  4012e0:	83 c4 04             	add    $0x4,%esp
  4012e3:	8d 8d 78 ff ff ff    	lea    -0x88(%ebp),%ecx
  4012e9:	51                   	push   %ecx
  4012ea:	e8 61 fd ff ff       	call   0x401050
  4012ef:	83 c4 04             	add    $0x4,%esp
  4012f2:	8d 55 b0             	lea    -0x50(%ebp),%edx
  4012f5:	52                   	push   %edx
  4012f6:	e8 55 fd ff ff       	call   0x401050
  4012fb:	83 c4 04             	add    $0x4,%esp
  4012fe:	8d 45 90             	lea    -0x70(%ebp),%eax
  401301:	50                   	push   %eax
  401302:	e8 49 fd ff ff       	call   0x401050
  401307:	83 c4 04             	add    $0x4,%esp
  40130a:	8d 8d 5c fe ff ff    	lea    -0x1a4(%ebp),%ecx
  401310:	51                   	push   %ecx
  401311:	e8 3a fd ff ff       	call   0x401050
  401316:	83 c4 04             	add    $0x4,%esp
  401319:	8b 95 74 ff ff ff    	mov    -0x8c(%ebp),%edx
  40131f:	52                   	push   %edx
  401320:	e8 8b 17 00 00       	call   0x402ab0
  401325:	83 c4 04             	add    $0x4,%esp
  401328:	85 c0                	test   %eax,%eax
  40132a:	74 05                	je     0x401331
  40132c:	e9 21 04 00 00       	jmp    0x401752
  401331:	c7 85 44 fc ff ff 00 	movl   $0x0,-0x3bc(%ebp)
  401338:	00 00 00 
  40133b:	6a 00                	push   $0x0
  40133d:	8b 85 74 ff ff ff    	mov    -0x8c(%ebp),%eax
  401343:	50                   	push   %eax
  401344:	8d 4d 9c             	lea    -0x64(%ebp),%ecx
  401347:	51                   	push   %ecx
  401348:	6a 06                	push   $0x6
  40134a:	e8 61 1f 00 00       	call   0x4032b0
  40134f:	83 c4 10             	add    $0x10,%esp
  401352:	89 85 44 fc ff ff    	mov    %eax,-0x3bc(%ebp)
  401358:	83 bd 44 fc ff ff ff 	cmpl   $0xffffffff,-0x3bc(%ebp)
  40135f:	75 05                	jne    0x401366
  401361:	e9 ec 03 00 00       	jmp    0x401752
  401366:	c7 85 38 fc ff ff 00 	movl   $0x0,-0x3c8(%ebp)
  40136d:	00 00 00 
  401370:	6a 00                	push   $0x0
  401372:	8b 95 74 ff ff ff    	mov    -0x8c(%ebp),%edx
  401378:	52                   	push   %edx
  401379:	8d 85 38 fc ff ff    	lea    -0x3c8(%ebp),%eax
  40137f:	50                   	push   %eax
  401380:	6a 07                	push   $0x7
  401382:	e8 29 1f 00 00       	call   0x4032b0
  401387:	83 c4 10             	add    $0x10,%esp
  40138a:	89 85 44 fc ff ff    	mov    %eax,-0x3bc(%ebp)
  401390:	83 bd 44 fc ff ff ff 	cmpl   $0xffffffff,-0x3bc(%ebp)
  401397:	75 05                	jne    0x40139e
  401399:	e9 b4 03 00 00       	jmp    0x401752
  40139e:	6a 04                	push   $0x4
  4013a0:	8b 8d 38 fc ff ff    	mov    -0x3c8(%ebp),%ecx
  4013a6:	51                   	push   %ecx
  4013a7:	8d 55 b8             	lea    -0x48(%ebp),%edx
  4013aa:	52                   	push   %edx
  4013ab:	e8 20 6d 00 00       	call   0x4080d0
  4013b0:	83 c4 0c             	add    $0xc,%esp
  4013b3:	8b 85 38 fc ff ff    	mov    -0x3c8(%ebp),%eax
  4013b9:	50                   	push   %eax
  4013ba:	ff 15 f8 90 40 00    	call   *0x4090f8
  4013c0:	c7 85 38 fc ff ff 00 	movl   $0x0,-0x3c8(%ebp)
  4013c7:	00 00 00 
  4013ca:	c7 85 3c fc ff ff 00 	movl   $0x0,-0x3c4(%ebp)
  4013d1:	00 00 00 
  4013d4:	6a 00                	push   $0x0
  4013d6:	8b 8d 74 ff ff ff    	mov    -0x8c(%ebp),%ecx
  4013dc:	51                   	push   %ecx
  4013dd:	8d 95 3c fc ff ff    	lea    -0x3c4(%ebp),%edx
  4013e3:	52                   	push   %edx
  4013e4:	6a 14                	push   $0x14
  4013e6:	e8 c5 1e 00 00       	call   0x4032b0
  4013eb:	83 c4 10             	add    $0x10,%esp
  4013ee:	89 85 44 fc ff ff    	mov    %eax,-0x3bc(%ebp)
  4013f4:	83 bd 44 fc ff ff ff 	cmpl   $0xffffffff,-0x3bc(%ebp)
  4013fb:	75 05                	jne    0x401402
  4013fd:	e9 50 03 00 00       	jmp    0x401752
  401402:	6a 04                	push   $0x4
  401404:	8b 85 3c fc ff ff    	mov    -0x3c4(%ebp),%eax
  40140a:	50                   	push   %eax
  40140b:	8d 4d 8c             	lea    -0x74(%ebp),%ecx
  40140e:	51                   	push   %ecx
  40140f:	e8 bc 6c 00 00       	call   0x4080d0
  401414:	83 c4 0c             	add    $0xc,%esp
  401417:	8b 95 3c fc ff ff    	mov    -0x3c4(%ebp),%edx
  40141d:	52                   	push   %edx
  40141e:	ff 15 f8 90 40 00    	call   *0x4090f8
  401424:	c7 85 3c fc ff ff 00 	movl   $0x0,-0x3c4(%ebp)
  40142b:	00 00 00 
  40142e:	c7 85 40 fc ff ff 00 	movl   $0x0,-0x3c0(%ebp)
  401435:	00 00 00 
  401438:	6a 00                	push   $0x0
  40143a:	8b 85 74 ff ff ff    	mov    -0x8c(%ebp),%eax
  401440:	50                   	push   %eax
  401441:	8d 8d 40 fc ff ff    	lea    -0x3c0(%ebp),%ecx
  401447:	51                   	push   %ecx
  401448:	6a 15                	push   $0x15
  40144a:	e8 61 1e 00 00       	call   0x4032b0
  40144f:	83 c4 10             	add    $0x10,%esp
  401452:	89 85 44 fc ff ff    	mov    %eax,-0x3bc(%ebp)
  401458:	83 bd 44 fc ff ff ff 	cmpl   $0xffffffff,-0x3bc(%ebp)
  40145f:	75 05                	jne    0x401466
  401461:	e9 ec 02 00 00       	jmp    0x401752
  401466:	6a 04                	push   $0x4
  401468:	8b 95 40 fc ff ff    	mov    -0x3c0(%ebp),%edx
  40146e:	52                   	push   %edx
  40146f:	8d 85 58 fe ff ff    	lea    -0x1a8(%ebp),%eax
  401475:	50                   	push   %eax
  401476:	e8 55 6c 00 00       	call   0x4080d0
  40147b:	83 c4 0c             	add    $0xc,%esp
  40147e:	8b 8d 40 fc ff ff    	mov    -0x3c0(%ebp),%ecx
  401484:	51                   	push   %ecx
  401485:	ff 15 f8 90 40 00    	call   *0x4090f8
  40148b:	c7 85 40 fc ff ff 00 	movl   $0x0,-0x3c0(%ebp)
  401492:	00 00 00 
  401495:	83 7d 8c 00          	cmpl   $0x0,-0x74(%ebp)
  401499:	72 35                	jb     0x4014d0
  40149b:	83 bd 58 fe ff ff 00 	cmpl   $0x0,-0x1a8(%ebp)
  4014a2:	76 2c                	jbe    0x4014d0
  4014a4:	8b 95 58 fe ff ff    	mov    -0x1a8(%ebp),%edx
  4014aa:	52                   	push   %edx
  4014ab:	8b 45 8c             	mov    -0x74(%ebp),%eax
  4014ae:	50                   	push   %eax
  4014af:	e8 2c 04 00 00       	call   0x4018e0
  4014b4:	83 c4 08             	add    $0x8,%esp
  4014b7:	89 85 34 fc ff ff    	mov    %eax,-0x3cc(%ebp)
  4014bd:	8b 8d 34 fc ff ff    	mov    -0x3cc(%ebp),%ecx
  4014c3:	69 c9 e8 03 00 00    	imul   $0x3e8,%ecx,%ecx
  4014c9:	51                   	push   %ecx
  4014ca:	ff 15 fc 90 40 00    	call   *0x4090fc
  4014d0:	e8 cb 07 00 00       	call   0x401ca0
  4014d5:	85 c0                	test   %eax,%eax
  4014d7:	75 05                	jne    0x4014de
  4014d9:	e9 74 02 00 00       	jmp    0x401752
  4014de:	68 05 01 00 00       	push   $0x105
  4014e3:	6a 00                	push   $0x0
  4014e5:	8d 95 48 fc ff ff    	lea    -0x3b8(%ebp),%edx
  4014eb:	52                   	push   %edx
  4014ec:	e8 d1 6b 00 00       	call   0x4080c2
  4014f1:	83 c4 0c             	add    $0xc,%esp
  4014f4:	68 05 01 00 00       	push   $0x105
  4014f9:	6a 00                	push   $0x0
  4014fb:	8d 85 68 fe ff ff    	lea    -0x198(%ebp),%eax
  401501:	50                   	push   %eax
  401502:	e8 bb 6b 00 00       	call   0x4080c2
  401507:	83 c4 0c             	add    $0xc,%esp
  40150a:	68 04 01 00 00       	push   $0x104
  40150f:	8d 8d 48 fc ff ff    	lea    -0x3b8(%ebp),%ecx
  401515:	51                   	push   %ecx
  401516:	ff 15 00 91 40 00    	call   *0x409100
  40151c:	8d 55 bc             	lea    -0x44(%ebp),%edx
  40151f:	52                   	push   %edx
  401520:	8d 85 48 fc ff ff    	lea    -0x3b8(%ebp),%eax
  401526:	50                   	push   %eax
  401527:	8d 4d b0             	lea    -0x50(%ebp),%ecx
  40152a:	51                   	push   %ecx
  40152b:	68 04 01 00 00       	push   $0x104
  401530:	8d 95 50 fd ff ff    	lea    -0x2b0(%ebp),%edx
  401536:	52                   	push   %edx
  401537:	ff 15 60 91 40 00    	call   *0x409160
  40153d:	83 c4 14             	add    $0x14,%esp
  401540:	83 7d b8 02          	cmpl   $0x2,-0x48(%ebp)
  401544:	0f 85 a8 01 00 00    	jne    0x4016f2
  40154a:	68 94 00 00 00       	push   $0x94
  40154f:	6a 00                	push   $0x0
  401551:	8d 85 98 fb ff ff    	lea    -0x468(%ebp),%eax
  401557:	50                   	push   %eax
  401558:	e8 65 6b 00 00       	call   0x4080c2
  40155d:	83 c4 0c             	add    $0xc,%esp
  401560:	c7 85 98 fb ff ff 94 	movl   $0x94,-0x468(%ebp)
  401567:	00 00 00 
  40156a:	8d 8d 98 fb ff ff    	lea    -0x468(%ebp),%ecx
  401570:	51                   	push   %ecx
  401571:	ff 15 04 91 40 00    	call   *0x409104
  401577:	85 c0                	test   %eax,%eax
  401579:	75 05                	jne    0x401580
  40157b:	e9 d2 01 00 00       	jmp    0x401752
  401580:	c7 45 b8 01 00 00 00 	movl   $0x1,-0x48(%ebp)
  401587:	83 bd 9c fb ff ff 05 	cmpl   $0x5,-0x464(%ebp)
  40158e:	0f 82 5e 01 00 00    	jb     0x4016f2
  401594:	8d 55 c8             	lea    -0x38(%ebp),%edx
  401597:	52                   	push   %edx
  401598:	ff 15 08 91 40 00    	call   *0x409108
  40159e:	89 45 a0             	mov    %eax,-0x60(%ebp)
  4015a1:	83 7d a0 00          	cmpl   $0x0,-0x60(%ebp)
  4015a5:	0f 84 2a 01 00 00    	je     0x4016d5
  4015ab:	8d 85 78 ff ff ff    	lea    -0x88(%ebp),%eax
  4015b1:	50                   	push   %eax
  4015b2:	8b 4d a0             	mov    -0x60(%ebp),%ecx
  4015b5:	51                   	push   %ecx
  4015b6:	ff 15 0c 91 40 00    	call   *0x40910c
  4015bc:	89 85 8c fa ff ff    	mov    %eax,-0x574(%ebp)
  4015c2:	83 bd 8c fa ff ff 00 	cmpl   $0x0,-0x574(%ebp)
  4015c9:	0f 84 fe 00 00 00    	je     0x4016cd
  4015cf:	8d 95 90 fa ff ff    	lea    -0x570(%ebp),%edx
  4015d5:	52                   	push   %edx
  4015d6:	6a 00                	push   $0x0
  4015d8:	6a 00                	push   $0x0
  4015da:	68 23 80 00 00       	push   $0x8023
  4015df:	6a 00                	push   $0x0
  4015e1:	ff 95 8c fa ff ff    	call   *-0x574(%ebp)
  4015e7:	85 c0                	test   %eax,%eax
  4015e9:	0f 85 dc 00 00 00    	jne    0x4016cb
  4015ef:	8d 45 a4             	lea    -0x5c(%ebp),%eax
  4015f2:	50                   	push   %eax
  4015f3:	8d 8d 90 fa ff ff    	lea    -0x570(%ebp),%ecx
  4015f9:	51                   	push   %ecx
  4015fa:	8d 55 b0             	lea    -0x50(%ebp),%edx
  4015fd:	52                   	push   %edx
  4015fe:	68 04 01 00 00       	push   $0x104
  401603:	8d 85 68 fe ff ff    	lea    -0x198(%ebp),%eax
  401609:	50                   	push   %eax
  40160a:	ff 15 60 91 40 00    	call   *0x409160
  401610:	83 c4 14             	add    $0x14,%esp
  401613:	6a 00                	push   $0x0
  401615:	8d 8d 68 fe ff ff    	lea    -0x198(%ebp),%ecx
  40161b:	51                   	push   %ecx
  40161c:	ff 15 10 91 40 00    	call   *0x409110
  401622:	89 85 88 fa ff ff    	mov    %eax,-0x578(%ebp)
  401628:	83 bd 88 fa ff ff 01 	cmpl   $0x1,-0x578(%ebp)
  40162f:	74 11                	je     0x401642
  401631:	ff 15 14 91 40 00    	call   *0x409114
  401637:	3d b7 00 00 00       	cmp    $0xb7,%eax
  40163c:	0f 85 89 00 00 00    	jne    0x4016cb
  401642:	8d 55 d4             	lea    -0x2c(%ebp),%edx
  401645:	52                   	push   %edx
  401646:	8d 45 a4             	lea    -0x5c(%ebp),%eax
  401649:	50                   	push   %eax
  40164a:	8d 8d 90 fa ff ff    	lea    -0x570(%ebp),%ecx
  401650:	51                   	push   %ecx
  401651:	8d 55 90             	lea    -0x70(%ebp),%edx
  401654:	52                   	push   %edx
  401655:	68 04 01 00 00       	push   $0x104
  40165a:	8d 85 68 fe ff ff    	lea    -0x198(%ebp),%eax
  401660:	50                   	push   %eax
  401661:	ff 15 60 91 40 00    	call   *0x409160
  401667:	83 c4 18             	add    $0x18,%esp
  40166a:	6a 00                	push   $0x0
  40166c:	8d 8d 68 fe ff ff    	lea    -0x198(%ebp),%ecx
  401672:	51                   	push   %ecx
  401673:	ff 15 10 91 40 00    	call   *0x409110
  401679:	89 85 88 fa ff ff    	mov    %eax,-0x578(%ebp)
  40167f:	83 bd 88 fa ff ff 01 	cmpl   $0x1,-0x578(%ebp)
  401686:	74 0d                	je     0x401695
  401688:	ff 15 14 91 40 00    	call   *0x409114
  40168e:	3d b7 00 00 00       	cmp    $0xb7,%eax
  401693:	75 36                	jne    0x4016cb
  401695:	8b 55 9c             	mov    -0x64(%ebp),%edx
  401698:	52                   	push   %edx
  401699:	8d 45 d4             	lea    -0x2c(%ebp),%eax
  40169c:	50                   	push   %eax
  40169d:	8d 4d a4             	lea    -0x5c(%ebp),%ecx
  4016a0:	51                   	push   %ecx
  4016a1:	8d 95 90 fa ff ff    	lea    -0x570(%ebp),%edx
  4016a7:	52                   	push   %edx
  4016a8:	8d 85 5c fe ff ff    	lea    -0x1a4(%ebp),%eax
  4016ae:	50                   	push   %eax
  4016af:	68 04 01 00 00       	push   $0x104
  4016b4:	8d 8d 68 fe ff ff    	lea    -0x198(%ebp),%ecx
  4016ba:	51                   	push   %ecx
  4016bb:	ff 15 60 91 40 00    	call   *0x409160
  4016c1:	83 c4 1c             	add    $0x1c,%esp
  4016c4:	c7 45 b8 02 00 00 00 	movl   $0x2,-0x48(%ebp)
  4016cb:	eb 06                	jmp    0x4016d3
  4016cd:	ff 15 14 91 40 00    	call   *0x409114
  4016d3:	eb 06                	jmp    0x4016db
  4016d5:	ff 15 14 91 40 00    	call   *0x409114
  4016db:	83 7d a0 00          	cmpl   $0x0,-0x60(%ebp)
  4016df:	74 11                	je     0x4016f2
  4016e1:	8b 55 a0             	mov    -0x60(%ebp),%edx
  4016e4:	52                   	push   %edx
  4016e5:	ff 15 18 91 40 00    	call   *0x409118
  4016eb:	c7 45 a0 00 00 00 00 	movl   $0x0,-0x60(%ebp)
  4016f2:	83 7d b8 01          	cmpl   $0x1,-0x48(%ebp)
  4016f6:	75 24                	jne    0x40171c
  4016f8:	8b 45 9c             	mov    -0x64(%ebp),%eax
  4016fb:	50                   	push   %eax
  4016fc:	8d 8d 48 fc ff ff    	lea    -0x3b8(%ebp),%ecx
  401702:	51                   	push   %ecx
  401703:	8d 55 b0             	lea    -0x50(%ebp),%edx
  401706:	52                   	push   %edx
  401707:	68 04 01 00 00       	push   $0x104
  40170c:	8d 85 68 fe ff ff    	lea    -0x198(%ebp),%eax
  401712:	50                   	push   %eax
  401713:	ff 15 60 91 40 00    	call   *0x409160
  401719:	83 c4 14             	add    $0x14,%esp
  40171c:	6a 01                	push   $0x1
  40171e:	8b 8d 74 ff ff ff    	mov    -0x8c(%ebp),%ecx
  401724:	51                   	push   %ecx
  401725:	6a 04                	push   $0x4
  401727:	8d 95 50 fd ff ff    	lea    -0x2b0(%ebp),%edx
  40172d:	52                   	push   %edx
  40172e:	8d 85 68 fe ff ff    	lea    -0x198(%ebp),%eax
  401734:	50                   	push   %eax
  401735:	e8 46 1d 00 00       	call   0x403480
  40173a:	83 c4 14             	add    $0x14,%esp
  40173d:	85 c0                	test   %eax,%eax
  40173f:	74 02                	je     0x401743
  401741:	eb 0f                	jmp    0x401752
  401743:	8d 8d 68 fe ff ff    	lea    -0x198(%ebp),%ecx
  401749:	51                   	push   %ecx
  40174a:	e8 c1 00 00 00       	call   0x401810
  40174f:	83 c4 04             	add    $0x4,%esp
  401752:	c7 45 fc 00 00 00 00 	movl   $0x0,-0x4(%ebp)
  401759:	e8 02 00 00 00       	call   0x401760
  40175e:	eb 2f                	jmp    0x40178f
  401760:	83 7d 9c 00          	cmpl   $0x0,-0x64(%ebp)
  401764:	74 11                	je     0x401777
  401766:	8b 55 9c             	mov    -0x64(%ebp),%edx
  401769:	52                   	push   %edx
  40176a:	ff 15 f8 90 40 00    	call   *0x4090f8
  401770:	c7 45 9c 00 00 00 00 	movl   $0x0,-0x64(%ebp)
  401777:	83 7d a0 00          	cmpl   $0x0,-0x60(%ebp)
  40177b:	74 11                	je     0x40178e
  40177d:	8b 45 a0             	mov    -0x60(%ebp),%eax
  401780:	50                   	push   %eax
  401781:	ff 15 18 91 40 00    	call   *0x409118
  401787:	c7 45 a0 00 00 00 00 	movl   $0x0,-0x60(%ebp)
  40178e:	c3                   	ret    
  40178f:	c7 45 fc ff ff ff ff 	movl   $0xffffffff,-0x4(%ebp)
  401796:	eb 40                	jmp    0x4017d8
  401798:	b8 01 00 00 00       	mov    $0x1,%eax
  40179d:	c3                   	ret    
  40179e:	8b 65 e8             	mov    -0x18(%ebp),%esp
  4017a1:	8d 8d 68 fe ff ff    	lea    -0x198(%ebp),%ecx
  4017a7:	51                   	push   %ecx
  4017a8:	e8 09 69 00 00       	call   0x4080b6
  4017ad:	83 c4 04             	add    $0x4,%esp
  4017b0:	85 c0                	test   %eax,%eax
  4017b2:	76 0d                	jbe    0x4017c1
  4017b4:	8d 95 68 fe ff ff    	lea    -0x198(%ebp),%edx
  4017ba:	52                   	push   %edx
  4017bb:	ff 15 1c 91 40 00    	call   *0x40911c
  4017c1:	8b 85 74 ff ff ff    	mov    -0x8c(%ebp),%eax
  4017c7:	50                   	push   %eax
  4017c8:	e8 a3 0c 00 00       	call   0x402470
  4017cd:	83 c4 04             	add    $0x4,%esp
  4017d0:	6a 00                	push   $0x0
  4017d2:	ff 15 20 91 40 00    	call   *0x409120
  4017d8:	8b 8d 74 ff ff ff    	mov    -0x8c(%ebp),%ecx
  4017de:	51                   	push   %ecx
  4017df:	e8 8c 0c 00 00       	call   0x402470
  4017e4:	83 c4 04             	add    $0x4,%esp
  4017e7:	6a 00                	push   $0x0
  4017e9:	ff 15 20 91 40 00    	call   *0x409120
  4017ef:	8b 4d f0             	mov    -0x10(%ebp),%ecx
  4017f2:	64 89 0d 00 00 00 00 	mov    %ecx,%fs:0x0
  4017f9:	5f                   	pop    %edi
  4017fa:	5e                   	pop    %esi
  4017fb:	5b                   	pop    %ebx
  4017fc:	8b e5                	mov    %ebp,%esp
  4017fe:	5d                   	pop    %ebp
  4017ff:	c2 10 00             	ret    $0x10
  401802:	cc                   	int3   
  401803:	cc                   	int3   
  401804:	cc                   	int3   
  401805:	cc                   	int3   
  401806:	cc                   	int3   
  401807:	cc                   	int3   
  401808:	cc                   	int3   
  401809:	cc                   	int3   
  40180a:	cc                   	int3   
  40180b:	cc                   	int3   
  40180c:	cc                   	int3   
  40180d:	cc                   	int3   
  40180e:	cc                   	int3   
  40180f:	cc                   	int3   
  401810:	55                   	push   %ebp
  401811:	8b ec                	mov    %esp,%ebp
  401813:	83 ec 68             	sub    $0x68,%esp
  401816:	c6 45 f8 51          	movb   $0x51,-0x8(%ebp)
  40181a:	c6 45 f9 1b          	movb   $0x1b,-0x7(%ebp)
  40181e:	c6 45 fa 13          	movb   $0x13,-0x6(%ebp)
  401822:	c6 45 fb 13          	movb   $0x13,-0x5(%ebp)
  401826:	c6 45 fc 00          	movb   $0x0,-0x4(%ebp)
  40182a:	8d 45 f8             	lea    -0x8(%ebp),%eax
  40182d:	50                   	push   %eax
  40182e:	e8 1d f8 ff ff       	call   0x401050
  401833:	83 c4 04             	add    $0x4,%esp
  401836:	8d 4d f8             	lea    -0x8(%ebp),%ecx
  401839:	51                   	push   %ecx
  40183a:	8b 55 08             	mov    0x8(%ebp),%edx
  40183d:	52                   	push   %edx
  40183e:	ff 15 68 91 40 00    	call   *0x409168
  401844:	83 c4 08             	add    $0x8,%esp
  401847:	85 c0                	test   %eax,%eax
  401849:	74 29                	je     0x401874
  40184b:	8b 45 08             	mov    0x8(%ebp),%eax
  40184e:	50                   	push   %eax
  40184f:	ff 15 08 91 40 00    	call   *0x409108
  401855:	89 45 f4             	mov    %eax,-0xc(%ebp)
  401858:	83 7d f4 00          	cmpl   $0x0,-0xc(%ebp)
  40185c:	75 14                	jne    0x401872
  40185e:	ff 15 14 91 40 00    	call   *0x409114
  401864:	89 45 f0             	mov    %eax,-0x10(%ebp)
  401867:	81 7d f0 5a 04 00 00 	cmpl   $0x45a,-0x10(%ebp)
  40186e:	74 02                	je     0x401872
  401870:	eb 39                	jmp    0x4018ab
  401872:	eb 37                	jmp    0x4018ab
  401874:	8d 4d 98             	lea    -0x68(%ebp),%ecx
  401877:	51                   	push   %ecx
  401878:	ff 15 f0 90 40 00    	call   *0x4090f0
  40187e:	66 c7 45 c8 00 00    	movw   $0x0,-0x38(%ebp)
  401884:	c7 45 c4 01 00 00 00 	movl   $0x1,-0x3c(%ebp)
  40188b:	8d 55 e0             	lea    -0x20(%ebp),%edx
  40188e:	52                   	push   %edx
  40188f:	8d 45 98             	lea    -0x68(%ebp),%eax
  401892:	50                   	push   %eax
  401893:	6a 00                	push   $0x0
  401895:	6a 00                	push   $0x0
  401897:	6a 00                	push   $0x0
  401899:	6a 01                	push   $0x1
  40189b:	6a 00                	push   $0x0
  40189d:	6a 00                	push   $0x0
  40189f:	6a 00                	push   $0x0
  4018a1:	8b 4d 08             	mov    0x8(%ebp),%ecx
  4018a4:	51                   	push   %ecx
  4018a5:	ff 15 f4 90 40 00    	call   *0x4090f4
  4018ab:	8b e5                	mov    %ebp,%esp
  4018ad:	5d                   	pop    %ebp
  4018ae:	c3                   	ret    
  4018af:	cc                   	int3   
  4018b0:	55                   	push   %ebp
  4018b1:	8b ec                	mov    %esp,%ebp
  4018b3:	83 ec 14             	sub    $0x14,%esp
  4018b6:	8d 45 f0             	lea    -0x10(%ebp),%eax
  4018b9:	50                   	push   %eax
  4018ba:	ff 15 ec 90 40 00    	call   *0x4090ec
  4018c0:	0f b7 45 fc          	movzwl -0x4(%ebp),%eax
  4018c4:	99                   	cltd   
  4018c5:	b9 0a 00 00 00       	mov    $0xa,%ecx
  4018ca:	f7 f9                	idiv   %ecx
  4018cc:	89 55 ec             	mov    %edx,-0x14(%ebp)
  4018cf:	db 45 ec             	fildl  -0x14(%ebp)
  4018d2:	dc 35 f0 91 40 00    	fdivl  0x4091f0
  4018d8:	8b e5                	mov    %ebp,%esp
  4018da:	5d                   	pop    %ebp
  4018db:	c3                   	ret    
  4018dc:	cc                   	int3   
  4018dd:	cc                   	int3   
  4018de:	cc                   	int3   
  4018df:	cc                   	int3   
  4018e0:	55                   	push   %ebp
  4018e1:	8b ec                	mov    %esp,%ebp
  4018e3:	83 ec 10             	sub    $0x10,%esp
  4018e6:	e8 c5 ff ff ff       	call   0x4018b0
  4018eb:	8b 45 0c             	mov    0xc(%ebp),%eax
  4018ee:	2b 45 08             	sub    0x8(%ebp),%eax
  4018f1:	83 c0 01             	add    $0x1,%eax
  4018f4:	89 45 f8             	mov    %eax,-0x8(%ebp)
  4018f7:	c7 45 fc 00 00 00 00 	movl   $0x0,-0x4(%ebp)
  4018fe:	df 6d f8             	fildll -0x8(%ebp)
  401901:	de c9                	fmulp  %st,%st(1)
  401903:	8b 4d 08             	mov    0x8(%ebp),%ecx
  401906:	89 4d f0             	mov    %ecx,-0x10(%ebp)
  401909:	c7 45 f4 00 00 00 00 	movl   $0x0,-0xc(%ebp)
  401910:	df 6d f0             	fildll -0x10(%ebp)
  401913:	de c1                	faddp  %st,%st(1)
  401915:	e8 be 67 00 00       	call   0x4080d8
  40191a:	8b e5                	mov    %ebp,%esp
  40191c:	5d                   	pop    %ebp
  40191d:	c3                   	ret    
  40191e:	cc                   	int3   
  40191f:	cc                   	int3   
  401920:	55                   	push   %ebp
  401921:	8b ec                	mov    %esp,%ebp
  401923:	6a ff                	push   $0xffffffff
  401925:	68 f8 91 40 00       	push   $0x4091f8
  40192a:	68 c0 7b 40 00       	push   $0x407bc0
  40192f:	64 a1 00 00 00 00    	mov    %fs:0x0,%eax
  401935:	50                   	push   %eax
  401936:	64 89 25 00 00 00 00 	mov    %esp,%fs:0x0
  40193d:	81 c4 50 ff ff ff    	add    $0xffffff50,%esp
  401943:	53                   	push   %ebx
  401944:	56                   	push   %esi
  401945:	57                   	push   %edi
  401946:	89 65 e8             	mov    %esp,-0x18(%ebp)
  401949:	c7 45 e0 00 00 00 00 	movl   $0x0,-0x20(%ebp)
  401950:	c6 45 d8 00          	movb   $0x0,-0x28(%ebp)
  401954:	c6 45 d9 00          	movb   $0x0,-0x27(%ebp)
  401958:	c6 45 da 00          	movb   $0x0,-0x26(%ebp)
  40195c:	c6 45 db 00          	movb   $0x0,-0x25(%ebp)
  401960:	c6 45 dc 00          	movb   $0x0,-0x24(%ebp)
  401964:	c6 45 dd 05          	movb   $0x5,-0x23(%ebp)
  401968:	c7 45 e4 00 00 00 00 	movl   $0x0,-0x1c(%ebp)
  40196f:	c7 45 fc 00 00 00 00 	movl   $0x0,-0x4(%ebp)
  401976:	c7 45 fc 01 00 00 00 	movl   $0x1,-0x4(%ebp)
  40197d:	c7 85 40 ff ff ff 94 	movl   $0x94,-0xc0(%ebp)
  401984:	00 00 00 
  401987:	8d 85 40 ff ff ff    	lea    -0xc0(%ebp),%eax
  40198d:	50                   	push   %eax
  40198e:	ff 15 04 91 40 00    	call   *0x409104
  401994:	85 c0                	test   %eax,%eax
  401996:	75 0c                	jne    0x4019a4
  401998:	c7 45 e0 00 00 00 00 	movl   $0x0,-0x20(%ebp)
  40199f:	e9 86 00 00 00       	jmp    0x401a2a
  4019a4:	83 bd 50 ff ff ff 01 	cmpl   $0x1,-0xb0(%ebp)
  4019ab:	75 09                	jne    0x4019b6
  4019ad:	c7 45 e0 01 00 00 00 	movl   $0x1,-0x20(%ebp)
  4019b4:	eb 74                	jmp    0x401a2a
  4019b6:	83 bd 50 ff ff ff 02 	cmpl   $0x2,-0xb0(%ebp)
  4019bd:	75 12                	jne    0x4019d1
  4019bf:	83 bd 44 ff ff ff 04 	cmpl   $0x4,-0xbc(%ebp)
  4019c6:	75 09                	jne    0x4019d1
  4019c8:	c7 45 e0 00 00 00 00 	movl   $0x0,-0x20(%ebp)
  4019cf:	eb 59                	jmp    0x401a2a
  4019d1:	8d 4d e4             	lea    -0x1c(%ebp),%ecx
  4019d4:	51                   	push   %ecx
  4019d5:	6a 00                	push   $0x0
  4019d7:	6a 00                	push   $0x0
  4019d9:	6a 00                	push   $0x0
  4019db:	6a 00                	push   $0x0
  4019dd:	6a 00                	push   $0x0
  4019df:	6a 00                	push   $0x0
  4019e1:	68 20 02 00 00       	push   $0x220
  4019e6:	6a 20                	push   $0x20
  4019e8:	6a 02                	push   $0x2
  4019ea:	8d 55 d8             	lea    -0x28(%ebp),%edx
  4019ed:	52                   	push   %edx
  4019ee:	ff 15 30 90 40 00    	call   *0x409030
  4019f4:	89 45 e0             	mov    %eax,-0x20(%ebp)
  4019f7:	83 7d e0 00          	cmpl   $0x0,-0x20(%ebp)
  4019fb:	74 2d                	je     0x401a2a
  4019fd:	8d 45 e0             	lea    -0x20(%ebp),%eax
  401a00:	50                   	push   %eax
  401a01:	8b 4d e4             	mov    -0x1c(%ebp),%ecx
  401a04:	51                   	push   %ecx
  401a05:	6a 00                	push   $0x0
  401a07:	e8 a4 07 00 00       	call   0x4021b0
  401a0c:	85 c0                	test   %eax,%eax
  401a0e:	75 09                	jne    0x401a19
  401a10:	c7 45 e0 00 00 00 00 	movl   $0x0,-0x20(%ebp)
  401a17:	eb 11                	jmp    0x401a2a
  401a19:	8b 55 e4             	mov    -0x1c(%ebp),%edx
  401a1c:	52                   	push   %edx
  401a1d:	ff 15 34 90 40 00    	call   *0x409034
  401a23:	c7 45 e4 00 00 00 00 	movl   $0x0,-0x1c(%ebp)
  401a2a:	c7 45 fc 00 00 00 00 	movl   $0x0,-0x4(%ebp)
  401a31:	e8 02 00 00 00       	call   0x401a38
  401a36:	eb 18                	jmp    0x401a50
  401a38:	83 7d e4 00          	cmpl   $0x0,-0x1c(%ebp)
  401a3c:	74 11                	je     0x401a4f
  401a3e:	8b 45 e4             	mov    -0x1c(%ebp),%eax
  401a41:	50                   	push   %eax
  401a42:	ff 15 34 90 40 00    	call   *0x409034
  401a48:	c7 45 e4 00 00 00 00 	movl   $0x0,-0x1c(%ebp)
  401a4f:	c3                   	ret    
  401a50:	c7 45 fc ff ff ff ff 	movl   $0xffffffff,-0x4(%ebp)
  401a57:	eb 10                	jmp    0x401a69
  401a59:	b8 01 00 00 00       	mov    $0x1,%eax
  401a5e:	c3                   	ret    
  401a5f:	8b 65 e8             	mov    -0x18(%ebp),%esp
  401a62:	c7 45 fc ff ff ff ff 	movl   $0xffffffff,-0x4(%ebp)
  401a69:	8b 45 e0             	mov    -0x20(%ebp),%eax
  401a6c:	8b 4d f0             	mov    -0x10(%ebp),%ecx
  401a6f:	64 89 0d 00 00 00 00 	mov    %ecx,%fs:0x0
  401a76:	5f                   	pop    %edi
  401a77:	5e                   	pop    %esi
  401a78:	5b                   	pop    %ebx
  401a79:	8b e5                	mov    %ebp,%esp
  401a7b:	5d                   	pop    %ebp
  401a7c:	c3                   	ret    
  401a7d:	cc                   	int3   
  401a7e:	cc                   	int3   
  401a7f:	cc                   	int3   
  401a80:	55                   	push   %ebp
  401a81:	8b ec                	mov    %esp,%ebp
  401a83:	6a ff                	push   $0xffffffff
  401a85:	68 10 92 40 00       	push   $0x409210
  401a8a:	68 c0 7b 40 00       	push   $0x407bc0
  401a8f:	64 a1 00 00 00 00    	mov    %fs:0x0,%eax
  401a95:	50                   	push   %eax
  401a96:	64 89 25 00 00 00 00 	mov    %esp,%fs:0x0
  401a9d:	81 c4 cc fb ff ff    	add    $0xfffffbcc,%esp
  401aa3:	53                   	push   %ebx
  401aa4:	56                   	push   %esi
  401aa5:	57                   	push   %edi
  401aa6:	89 65 e8             	mov    %esp,-0x18(%ebp)
  401aa9:	c7 45 dc ff ff ff ff 	movl   $0xffffffff,-0x24(%ebp)
  401ab0:	c7 45 e4 00 00 00 00 	movl   $0x0,-0x1c(%ebp)
  401ab7:	c7 45 e0 00 00 00 00 	movl   $0x0,-0x20(%ebp)
  401abe:	c7 45 fc 00 00 00 00 	movl   $0x0,-0x4(%ebp)
  401ac5:	c7 45 fc 01 00 00 00 	movl   $0x1,-0x4(%ebp)
  401acc:	c7 85 6c ff ff ff 00 	movl   $0x100,-0x94(%ebp)
  401ad3:	01 00 00 
  401ad6:	8d 85 6c ff ff ff    	lea    -0x94(%ebp),%eax
  401adc:	50                   	push   %eax
  401add:	8d 8d c0 fb ff ff    	lea    -0x440(%ebp),%ecx
  401ae3:	51                   	push   %ecx
  401ae4:	ff 15 28 90 40 00    	call   *0x409028
  401aea:	85 c0                	test   %eax,%eax
  401aec:	75 0c                	jne    0x401afa
  401aee:	c7 45 dc ff ff ff ff 	movl   $0xffffffff,-0x24(%ebp)
  401af5:	e9 ed 00 00 00       	jmp    0x401be7
  401afa:	c6 85 d0 fd ff ff 00 	movb   $0x0,-0x230(%ebp)
  401b01:	c6 85 d1 fd ff ff 00 	movb   $0x0,-0x22f(%ebp)
  401b08:	c6 85 d2 fd ff ff 00 	movb   $0x0,-0x22e(%ebp)
  401b0f:	c6 85 d3 fd ff ff 00 	movb   $0x0,-0x22d(%ebp)
  401b16:	c6 85 d4 fd ff ff 00 	movb   $0x0,-0x22c(%ebp)
  401b1d:	c6 85 d5 fd ff ff 05 	movb   $0x5,-0x22b(%ebp)
  401b24:	8d 95 70 ff ff ff    	lea    -0x90(%ebp),%edx
  401b2a:	89 55 e0             	mov    %edx,-0x20(%ebp)
  401b2d:	8d 45 e0             	lea    -0x20(%ebp),%eax
  401b30:	50                   	push   %eax
  401b31:	6a 00                	push   $0x0
  401b33:	6a 00                	push   $0x0
  401b35:	6a 00                	push   $0x0
  401b37:	6a 00                	push   $0x0
  401b39:	6a 00                	push   $0x0
  401b3b:	6a 00                	push   $0x0
  401b3d:	6a 00                	push   $0x0
  401b3f:	6a 12                	push   $0x12
  401b41:	6a 01                	push   $0x1
  401b43:	8d 8d d0 fd ff ff    	lea    -0x230(%ebp),%ecx
  401b49:	51                   	push   %ecx
  401b4a:	ff 15 30 90 40 00    	call   *0x409030
  401b50:	89 45 e4             	mov    %eax,-0x1c(%ebp)
  401b53:	83 7d e4 00          	cmpl   $0x0,-0x1c(%ebp)
  401b57:	75 0c                	jne    0x401b65
  401b59:	c7 45 dc ff ff ff ff 	movl   $0xffffffff,-0x24(%ebp)
  401b60:	e9 82 00 00 00       	jmp    0x401be7
  401b65:	68 82 00 00 00       	push   $0x82
  401b6a:	6a 00                	push   $0x0
  401b6c:	8d 95 e0 fe ff ff    	lea    -0x120(%ebp),%edx
  401b72:	52                   	push   %edx
  401b73:	e8 4a 65 00 00       	call   0x4080c2
  401b78:	83 c4 0c             	add    $0xc,%esp
  401b7b:	c7 85 cc fd ff ff 40 	movl   $0x40,-0x234(%ebp)
  401b82:	00 00 00 
  401b85:	c7 85 bc fb ff ff 80 	movl   $0x80,-0x444(%ebp)
  401b8c:	00 00 00 
  401b8f:	8d 45 d8             	lea    -0x28(%ebp),%eax
  401b92:	50                   	push   %eax
  401b93:	8d 8d bc fb ff ff    	lea    -0x444(%ebp),%ecx
  401b99:	51                   	push   %ecx
  401b9a:	8d 95 d8 fd ff ff    	lea    -0x228(%ebp),%edx
  401ba0:	52                   	push   %edx
  401ba1:	8d 85 cc fd ff ff    	lea    -0x234(%ebp),%eax
  401ba7:	50                   	push   %eax
  401ba8:	8d 8d e0 fe ff ff    	lea    -0x120(%ebp),%ecx
  401bae:	51                   	push   %ecx
  401baf:	8b 55 e0             	mov    -0x20(%ebp),%edx
  401bb2:	52                   	push   %edx
  401bb3:	6a 00                	push   $0x0
  401bb5:	ff 15 2c 90 40 00    	call   *0x40902c
  401bbb:	85 c0                	test   %eax,%eax
  401bbd:	75 09                	jne    0x401bc8
  401bbf:	c7 45 dc ff ff ff ff 	movl   $0xffffffff,-0x24(%ebp)
  401bc6:	eb 1f                	jmp    0x401be7
  401bc8:	8d 85 c0 fb ff ff    	lea    -0x440(%ebp),%eax
  401bce:	50                   	push   %eax
  401bcf:	8d 8d e0 fe ff ff    	lea    -0x120(%ebp),%ecx
  401bd5:	51                   	push   %ecx
  401bd6:	ff 15 6c 91 40 00    	call   *0x40916c
  401bdc:	83 c4 08             	add    $0x8,%esp
  401bdf:	f7 d8                	neg    %eax
  401be1:	1b c0                	sbb    %eax,%eax
  401be3:	40                   	inc    %eax
  401be4:	89 45 dc             	mov    %eax,-0x24(%ebp)
  401be7:	c7 45 fc 00 00 00 00 	movl   $0x0,-0x4(%ebp)
  401bee:	e8 02 00 00 00       	call   0x401bf5
  401bf3:	eb 1e                	jmp    0x401c13
  401bf5:	83 7d e4 00          	cmpl   $0x0,-0x1c(%ebp)
  401bf9:	74 17                	je     0x401c12
  401bfb:	83 7d e0 00          	cmpl   $0x0,-0x20(%ebp)
  401bff:	74 11                	je     0x401c12
  401c01:	8b 55 e0             	mov    -0x20(%ebp),%edx
  401c04:	52                   	push   %edx
  401c05:	ff 15 34 90 40 00    	call   *0x409034
  401c0b:	c7 45 e0 00 00 00 00 	movl   $0x0,-0x20(%ebp)
  401c12:	c3                   	ret    
  401c13:	c7 45 fc ff ff ff ff 	movl   $0xffffffff,-0x4(%ebp)
  401c1a:	eb 17                	jmp    0x401c33
  401c1c:	b8 01 00 00 00       	mov    $0x1,%eax
  401c21:	c3                   	ret    
  401c22:	8b 65 e8             	mov    -0x18(%ebp),%esp
  401c25:	c7 45 dc ff ff ff ff 	movl   $0xffffffff,-0x24(%ebp)
  401c2c:	c7 45 fc ff ff ff ff 	movl   $0xffffffff,-0x4(%ebp)
  401c33:	8b 45 dc             	mov    -0x24(%ebp),%eax
  401c36:	8b 4d f0             	mov    -0x10(%ebp),%ecx
  401c39:	64 89 0d 00 00 00 00 	mov    %ecx,%fs:0x0
  401c40:	5f                   	pop    %edi
  401c41:	5e                   	pop    %esi
  401c42:	5b                   	pop    %ebx
  401c43:	8b e5                	mov    %ebp,%esp
  401c45:	5d                   	pop    %ebp
  401c46:	c3                   	ret    
  401c47:	cc                   	int3   
  401c48:	cc                   	int3   
  401c49:	cc                   	int3   
  401c4a:	cc                   	int3   
  401c4b:	cc                   	int3   
  401c4c:	cc                   	int3   
  401c4d:	cc                   	int3   
  401c4e:	cc                   	int3   
  401c4f:	cc                   	int3   
  401c50:	55                   	push   %ebp
  401c51:	8b ec                	mov    %esp,%ebp
  401c53:	83 ec 20             	sub    $0x20,%esp
  401c56:	6a 01                	push   $0x1
  401c58:	8d 45 ec             	lea    -0x14(%ebp),%eax
  401c5b:	50                   	push   %eax
  401c5c:	ff 15 24 90 40 00    	call   *0x409024
  401c62:	85 c0                	test   %eax,%eax
  401c64:	74 27                	je     0x401c8d
  401c66:	c7 45 e0 0c 00 00 00 	movl   $0xc,-0x20(%ebp)
  401c6d:	c7 45 e8 00 00 00 00 	movl   $0x0,-0x18(%ebp)
  401c74:	8d 4d ec             	lea    -0x14(%ebp),%ecx
  401c77:	89 4d e4             	mov    %ecx,-0x1c(%ebp)
  401c7a:	68 28 92 40 00       	push   $0x409228
  401c7f:	6a 00                	push   $0x0
  401c81:	8d 55 e0             	lea    -0x20(%ebp),%edx
  401c84:	52                   	push   %edx
  401c85:	ff 15 94 90 40 00    	call   *0x409094
  401c8b:	eb 02                	jmp    0x401c8f
  401c8d:	33 c0                	xor    %eax,%eax
  401c8f:	8b e5                	mov    %ebp,%esp
  401c91:	5d                   	pop    %ebp
  401c92:	c3                   	ret    
  401c93:	cc                   	int3   
  401c94:	cc                   	int3   
  401c95:	cc                   	int3   
  401c96:	cc                   	int3   
  401c97:	cc                   	int3   
  401c98:	cc                   	int3   
  401c99:	cc                   	int3   
  401c9a:	cc                   	int3   
  401c9b:	cc                   	int3   
  401c9c:	cc                   	int3   
  401c9d:	cc                   	int3   
  401c9e:	cc                   	int3   
  401c9f:	cc                   	int3   
  401ca0:	55                   	push   %ebp
  401ca1:	8b ec                	mov    %esp,%ebp
  401ca3:	6a ff                	push   $0xffffffff
  401ca5:	68 38 92 40 00       	push   $0x409238
  401caa:	68 c0 7b 40 00       	push   $0x407bc0
  401caf:	64 a1 00 00 00 00    	mov    %fs:0x0,%eax
  401cb5:	50                   	push   %eax
  401cb6:	64 89 25 00 00 00 00 	mov    %esp,%fs:0x0
  401cbd:	81 c4 f4 fe ff ff    	add    $0xfffffef4,%esp
  401cc3:	53                   	push   %ebx
  401cc4:	56                   	push   %esi
  401cc5:	57                   	push   %edi
  401cc6:	89 65 e8             	mov    %esp,-0x18(%ebp)
  401cc9:	c7 85 3c ff ff ff 01 	movl   $0x1,-0xc4(%ebp)
  401cd0:	00 00 00 
  401cd3:	c7 45 e0 00 00 00 00 	movl   $0x0,-0x20(%ebp)
  401cda:	c7 85 40 ff ff ff 00 	movl   $0x0,-0xc0(%ebp)
  401ce1:	00 00 00 
  401ce4:	c7 45 e4 00 00 00 00 	movl   $0x0,-0x1c(%ebp)
  401ceb:	c7 45 fc 00 00 00 00 	movl   $0x0,-0x4(%ebp)
  401cf2:	c7 45 fc 01 00 00 00 	movl   $0x1,-0x4(%ebp)
  401cf9:	ff 15 e4 90 40 00    	call   *0x4090e4
  401cff:	89 85 44 ff ff ff    	mov    %eax,-0xbc(%ebp)
  401d05:	68 94 00 00 00       	push   $0x94
  401d0a:	6a 00                	push   $0x0
  401d0c:	8d 85 48 ff ff ff    	lea    -0xb8(%ebp),%eax
  401d12:	50                   	push   %eax
  401d13:	e8 aa 63 00 00       	call   0x4080c2
  401d18:	83 c4 0c             	add    $0xc,%esp
  401d1b:	c7 85 48 ff ff ff 94 	movl   $0x94,-0xb8(%ebp)
  401d22:	00 00 00 
  401d25:	8d 8d 48 ff ff ff    	lea    -0xb8(%ebp),%ecx
  401d2b:	51                   	push   %ecx
  401d2c:	ff 15 04 91 40 00    	call   *0x409104
  401d32:	85 c0                	test   %eax,%eax
  401d34:	75 0f                	jne    0x401d45
  401d36:	c7 85 3c ff ff ff 00 	movl   $0x0,-0xc4(%ebp)
  401d3d:	00 00 00 
  401d40:	e9 04 02 00 00       	jmp    0x401f49
  401d45:	83 bd 58 ff ff ff 02 	cmpl   $0x2,-0xa8(%ebp)
  401d4c:	0f 85 f7 01 00 00    	jne    0x401f49
  401d52:	e8 c9 fb ff ff       	call   0x401920
  401d57:	85 c0                	test   %eax,%eax
  401d59:	0f 85 b3 00 00 00    	jne    0x401e12
  401d5f:	e8 1c fd ff ff       	call   0x401a80
  401d64:	85 c0                	test   %eax,%eax
  401d66:	0f 85 a6 00 00 00    	jne    0x401e12
  401d6c:	e8 df fe ff ff       	call   0x401c50
  401d71:	a3 18 b1 40 00       	mov    %eax,0x40b118
  401d76:	83 3d 18 b1 40 00 00 	cmpl   $0x0,0x40b118
  401d7d:	74 52                	je     0x401dd1
  401d7f:	c7 85 34 ff ff ff 00 	movl   $0x0,-0xcc(%ebp)
  401d86:	00 00 00 
  401d89:	8d 95 34 ff ff ff    	lea    -0xcc(%ebp),%edx
  401d8f:	52                   	push   %edx
  401d90:	8b 85 44 ff ff ff    	mov    -0xbc(%ebp),%eax
  401d96:	50                   	push   %eax
  401d97:	e8 9d 28 00 00       	call   0x404639
  401d9c:	83 c4 08             	add    $0x8,%esp
  401d9f:	89 85 38 ff ff ff    	mov    %eax,-0xc8(%ebp)
  401da5:	83 bd 38 ff ff ff 00 	cmpl   $0x0,-0xc8(%ebp)
  401dac:	75 0c                	jne    0x401dba
  401dae:	c7 85 3c ff ff ff 01 	movl   $0x1,-0xc4(%ebp)
  401db5:	00 00 00 
  401db8:	eb 15                	jmp    0x401dcf
  401dba:	ff 15 14 91 40 00    	call   *0x409114
  401dc0:	c7 85 3c ff ff ff 00 	movl   $0x0,-0xc4(%ebp)
  401dc7:	00 00 00 
  401dca:	e9 7a 01 00 00       	jmp    0x401f49
  401dcf:	eb 0a                	jmp    0x401ddb
  401dd1:	c7 85 3c ff ff ff 00 	movl   $0x0,-0xc4(%ebp)
  401dd8:	00 00 00 
  401ddb:	83 3d 18 b1 40 00 00 	cmpl   $0x0,0x40b118
  401de2:	74 2c                	je     0x401e10
  401de4:	8b 0d 18 b1 40 00    	mov    0x40b118,%ecx
  401dea:	89 8d 08 ff ff ff    	mov    %ecx,-0xf8(%ebp)
  401df0:	83 bd 08 ff ff ff 00 	cmpl   $0x0,-0xf8(%ebp)
  401df7:	74 0d                	je     0x401e06
  401df9:	8b 95 08 ff ff ff    	mov    -0xf8(%ebp),%edx
  401dff:	52                   	push   %edx
  401e00:	ff 15 e8 90 40 00    	call   *0x4090e8
  401e06:	c7 05 18 b1 40 00 00 	movl   $0x0,0x40b118
  401e0d:	00 00 00 
  401e10:	eb 0a                	jmp    0x401e1c
  401e12:	c7 85 3c ff ff ff 01 	movl   $0x1,-0xc4(%ebp)
  401e19:	00 00 00 
  401e1c:	83 bd 4c ff ff ff 06 	cmpl   $0x6,-0xb4(%ebp)
  401e23:	0f 82 20 01 00 00    	jb     0x401f49
  401e29:	e8 d2 01 00 00       	call   0x402000
  401e2e:	89 45 e4             	mov    %eax,-0x1c(%ebp)
  401e31:	83 7d e4 ff          	cmpl   $0xffffffff,-0x1c(%ebp)
  401e35:	75 0f                	jne    0x401e46
  401e37:	c7 85 3c ff ff ff 00 	movl   $0x0,-0xc4(%ebp)
  401e3e:	00 00 00 
  401e41:	e9 03 01 00 00       	jmp    0x401f49
  401e46:	81 7d e4 00 40 00 00 	cmpl   $0x4000,-0x1c(%ebp)
  401e4d:	0f 83 f6 00 00 00    	jae    0x401f49
  401e53:	c6 85 2c ff ff ff 00 	movb   $0x0,-0xd4(%ebp)
  401e5a:	c6 85 2d ff ff ff 00 	movb   $0x0,-0xd3(%ebp)
  401e61:	c6 85 2e ff ff ff 00 	movb   $0x0,-0xd2(%ebp)
  401e68:	c6 85 2f ff ff ff 00 	movb   $0x0,-0xd1(%ebp)
  401e6f:	c6 85 30 ff ff ff 00 	movb   $0x0,-0xd0(%ebp)
  401e76:	c6 85 31 ff ff ff 10 	movb   $0x10,-0xcf(%ebp)
  401e7d:	8d 85 40 ff ff ff    	lea    -0xc0(%ebp),%eax
  401e83:	50                   	push   %eax
  401e84:	6a 00                	push   $0x0
  401e86:	6a 00                	push   $0x0
  401e88:	6a 00                	push   $0x0
  401e8a:	6a 00                	push   $0x0
  401e8c:	6a 00                	push   $0x0
  401e8e:	6a 00                	push   $0x0
  401e90:	6a 00                	push   $0x0
  401e92:	8b 4d e4             	mov    -0x1c(%ebp),%ecx
  401e95:	51                   	push   %ecx
  401e96:	6a 01                	push   $0x1
  401e98:	8d 95 2c ff ff ff    	lea    -0xd4(%ebp),%edx
  401e9e:	52                   	push   %edx
  401e9f:	ff 15 30 90 40 00    	call   *0x409030
  401ea5:	85 c0                	test   %eax,%eax
  401ea7:	75 15                	jne    0x401ebe
  401ea9:	ff 15 14 91 40 00    	call   *0x409114
  401eaf:	c7 85 3c ff ff ff 00 	movl   $0x0,-0xc4(%ebp)
  401eb6:	00 00 00 
  401eb9:	e9 8b 00 00 00       	jmp    0x401f49
  401ebe:	8d 45 e0             	lea    -0x20(%ebp),%eax
  401ec1:	50                   	push   %eax
  401ec2:	6a 00                	push   $0x0
  401ec4:	6a 00                	push   $0x0
  401ec6:	6a 00                	push   $0x0
  401ec8:	6a 00                	push   $0x0
  401eca:	6a 00                	push   $0x0
  401ecc:	6a 00                	push   $0x0
  401ece:	6a 00                	push   $0x0
  401ed0:	68 00 40 00 00       	push   $0x4000
  401ed5:	6a 01                	push   $0x1
  401ed7:	8d 8d 2c ff ff ff    	lea    -0xd4(%ebp),%ecx
  401edd:	51                   	push   %ecx
  401ede:	ff 15 30 90 40 00    	call   *0x409030
  401ee4:	85 c0                	test   %eax,%eax
  401ee6:	75 12                	jne    0x401efa
  401ee8:	ff 15 14 91 40 00    	call   *0x409114
  401eee:	c7 85 3c ff ff ff 00 	movl   $0x0,-0xc4(%ebp)
  401ef5:	00 00 00 
  401ef8:	eb 4f                	jmp    0x401f49
  401efa:	e8 51 fd ff ff       	call   0x401c50
  401eff:	a3 18 b1 40 00       	mov    %eax,0x40b118
  401f04:	83 3d 18 b1 40 00 00 	cmpl   $0x0,0x40b118
  401f0b:	74 32                	je     0x401f3f
  401f0d:	6a 00                	push   $0x0
  401f0f:	6a 00                	push   $0x0
  401f11:	6a 00                	push   $0x0
  401f13:	8b 55 e0             	mov    -0x20(%ebp),%edx
  401f16:	52                   	push   %edx
  401f17:	8b 85 40 ff ff ff    	mov    -0xc0(%ebp),%eax
  401f1d:	50                   	push   %eax
  401f1e:	8b 8d 44 ff ff ff    	mov    -0xbc(%ebp),%ecx
  401f24:	51                   	push   %ecx
  401f25:	e8 e8 30 00 00       	call   0x405012
  401f2a:	83 c4 18             	add    $0x18,%esp
  401f2d:	85 c0                	test   %eax,%eax
  401f2f:	74 0c                	je     0x401f3d
  401f31:	c7 85 3c ff ff ff 00 	movl   $0x0,-0xc4(%ebp)
  401f38:	00 00 00 
  401f3b:	eb 0c                	jmp    0x401f49
  401f3d:	eb 0a                	jmp    0x401f49
  401f3f:	c7 85 3c ff ff ff 00 	movl   $0x0,-0xc4(%ebp)
  401f46:	00 00 00 
  401f49:	c7 45 fc 00 00 00 00 	movl   $0x0,-0x4(%ebp)
  401f50:	e8 02 00 00 00       	call   0x401f57
  401f55:	eb 6d                	jmp    0x401fc4
  401f57:	83 3d 18 b1 40 00 00 	cmpl   $0x0,0x40b118
  401f5e:	74 2c                	je     0x401f8c
  401f60:	8b 15 18 b1 40 00    	mov    0x40b118,%edx
  401f66:	89 95 e4 fe ff ff    	mov    %edx,-0x11c(%ebp)
  401f6c:	83 bd e4 fe ff ff 00 	cmpl   $0x0,-0x11c(%ebp)
  401f73:	74 0d                	je     0x401f82
  401f75:	8b 85 e4 fe ff ff    	mov    -0x11c(%ebp),%eax
  401f7b:	50                   	push   %eax
  401f7c:	ff 15 e8 90 40 00    	call   *0x4090e8
  401f82:	c7 05 18 b1 40 00 00 	movl   $0x0,0x40b118
  401f89:	00 00 00 
  401f8c:	83 7d e0 00          	cmpl   $0x0,-0x20(%ebp)
  401f90:	74 11                	je     0x401fa3
  401f92:	8b 4d e0             	mov    -0x20(%ebp),%ecx
  401f95:	51                   	push   %ecx
  401f96:	ff 15 34 90 40 00    	call   *0x409034
  401f9c:	c7 45 e0 00 00 00 00 	movl   $0x0,-0x20(%ebp)
  401fa3:	83 bd 40 ff ff ff 00 	cmpl   $0x0,-0xc0(%ebp)
  401faa:	74 17                	je     0x401fc3
  401fac:	8b 95 40 ff ff ff    	mov    -0xc0(%ebp),%edx
  401fb2:	52                   	push   %edx
  401fb3:	ff 15 34 90 40 00    	call   *0x409034
  401fb9:	c7 85 40 ff ff ff 00 	movl   $0x0,-0xc0(%ebp)
  401fc0:	00 00 00 
  401fc3:	c3                   	ret    
  401fc4:	c7 45 fc ff ff ff ff 	movl   $0xffffffff,-0x4(%ebp)
  401fcb:	eb 1a                	jmp    0x401fe7
  401fcd:	b8 01 00 00 00       	mov    $0x1,%eax
  401fd2:	c3                   	ret    
  401fd3:	8b 65 e8             	mov    -0x18(%ebp),%esp
  401fd6:	c7 85 3c ff ff ff 00 	movl   $0x0,-0xc4(%ebp)
  401fdd:	00 00 00 
  401fe0:	c7 45 fc ff ff ff ff 	movl   $0xffffffff,-0x4(%ebp)
  401fe7:	8b 85 3c ff ff ff    	mov    -0xc4(%ebp),%eax
  401fed:	8b 4d f0             	mov    -0x10(%ebp),%ecx
  401ff0:	64 89 0d 00 00 00 00 	mov    %ecx,%fs:0x0
  401ff7:	5f                   	pop    %edi
  401ff8:	5e                   	pop    %esi
  401ff9:	5b                   	pop    %ebx
  401ffa:	8b e5                	mov    %ebp,%esp
  401ffc:	5d                   	pop    %ebp
  401ffd:	c3                   	ret    
  401ffe:	cc                   	int3   
  401fff:	cc                   	int3   
  402000:	55                   	push   %ebp
  402001:	8b ec                	mov    %esp,%ebp
  402003:	6a ff                	push   $0xffffffff
  402005:	68 50 92 40 00       	push   $0x409250
  40200a:	68 c0 7b 40 00       	push   $0x407bc0
  40200f:	64 a1 00 00 00 00    	mov    %fs:0x0,%eax
  402015:	50                   	push   %eax
  402016:	64 89 25 00 00 00 00 	mov    %esp,%fs:0x0
  40201d:	83 c4 e4             	add    $0xffffffe4,%esp
  402020:	53                   	push   %ebx
  402021:	56                   	push   %esi
  402022:	57                   	push   %edi
  402023:	89 65 e8             	mov    %esp,-0x18(%ebp)
  402026:	c7 45 dc ff ff ff ff 	movl   $0xffffffff,-0x24(%ebp)
  40202d:	c7 45 e0 00 00 00 00 	movl   $0x0,-0x20(%ebp)
  402034:	c7 45 e4 00 00 00 00 	movl   $0x0,-0x1c(%ebp)
  40203b:	c7 45 d8 00 00 00 00 	movl   $0x0,-0x28(%ebp)
  402042:	c7 45 fc 00 00 00 00 	movl   $0x0,-0x4(%ebp)
  402049:	c7 45 fc 01 00 00 00 	movl   $0x1,-0x4(%ebp)
  402050:	8d 45 d8             	lea    -0x28(%ebp),%eax
  402053:	50                   	push   %eax
  402054:	6a 18                	push   $0x18
  402056:	ff 15 5c 90 40 00    	call   *0x40905c
  40205c:	50                   	push   %eax
  40205d:	ff 15 14 90 40 00    	call   *0x409014
  402063:	85 c0                	test   %eax,%eax
  402065:	0f 84 cc 00 00 00    	je     0x402137
  40206b:	8d 4d e4             	lea    -0x1c(%ebp),%ecx
  40206e:	51                   	push   %ecx
  40206f:	6a 00                	push   $0x0
  402071:	6a 00                	push   $0x0
  402073:	6a 19                	push   $0x19
  402075:	8b 55 d8             	mov    -0x28(%ebp),%edx
  402078:	52                   	push   %edx
  402079:	ff 15 18 90 40 00    	call   *0x409018
  40207f:	85 c0                	test   %eax,%eax
  402081:	0f 85 a8 00 00 00    	jne    0x40212f
  402087:	ff 15 14 91 40 00    	call   *0x409114
  40208d:	89 45 d4             	mov    %eax,-0x2c(%ebp)
  402090:	83 7d d4 7a          	cmpl   $0x7a,-0x2c(%ebp)
  402094:	0f 85 93 00 00 00    	jne    0x40212d
  40209a:	8b 45 e4             	mov    -0x1c(%ebp),%eax
  40209d:	50                   	push   %eax
  40209e:	6a 00                	push   $0x0
  4020a0:	ff 15 58 90 40 00    	call   *0x409058
  4020a6:	89 45 e0             	mov    %eax,-0x20(%ebp)
  4020a9:	83 7d e0 00          	cmpl   $0x0,-0x20(%ebp)
  4020ad:	74 7e                	je     0x40212d
  4020af:	8d 4d e4             	lea    -0x1c(%ebp),%ecx
  4020b2:	51                   	push   %ecx
  4020b3:	8b 55 e4             	mov    -0x1c(%ebp),%edx
  4020b6:	52                   	push   %edx
  4020b7:	8b 45 e0             	mov    -0x20(%ebp),%eax
  4020ba:	50                   	push   %eax
  4020bb:	6a 19                	push   $0x19
  4020bd:	8b 4d d8             	mov    -0x28(%ebp),%ecx
  4020c0:	51                   	push   %ecx
  4020c1:	ff 15 18 90 40 00    	call   *0x409018
  4020c7:	85 c0                	test   %eax,%eax
  4020c9:	74 5c                	je     0x402127
  4020cb:	8b 55 e0             	mov    -0x20(%ebp),%edx
  4020ce:	8b 02                	mov    (%edx),%eax
  4020d0:	50                   	push   %eax
  4020d1:	ff 15 1c 90 40 00    	call   *0x40901c
  4020d7:	0f b6 08             	movzbl (%eax),%ecx
  4020da:	83 e9 01             	sub    $0x1,%ecx
  4020dd:	0f b6 d1             	movzbl %cl,%edx
  4020e0:	52                   	push   %edx
  4020e1:	8b 45 e0             	mov    -0x20(%ebp),%eax
  4020e4:	8b 08                	mov    (%eax),%ecx
  4020e6:	51                   	push   %ecx
  4020e7:	ff 15 20 90 40 00    	call   *0x409020
  4020ed:	8b 10                	mov    (%eax),%edx
  4020ef:	89 55 dc             	mov    %edx,-0x24(%ebp)
  4020f2:	81 7d dc 00 10 00 00 	cmpl   $0x1000,-0x24(%ebp)
  4020f9:	75 02                	jne    0x4020fd
  4020fb:	eb 28                	jmp    0x402125
  4020fd:	81 7d dc 00 20 00 00 	cmpl   $0x2000,-0x24(%ebp)
  402104:	75 02                	jne    0x402108
  402106:	eb 1d                	jmp    0x402125
  402108:	81 7d dc 00 30 00 00 	cmpl   $0x3000,-0x24(%ebp)
  40210f:	75 02                	jne    0x402113
  402111:	eb 12                	jmp    0x402125
  402113:	81 7d dc 00 40 00 00 	cmpl   $0x4000,-0x24(%ebp)
  40211a:	75 02                	jne    0x40211e
  40211c:	eb 07                	jmp    0x402125
  40211e:	c7 45 dc ff ff ff ff 	movl   $0xffffffff,-0x24(%ebp)
  402125:	eb 06                	jmp    0x40212d
  402127:	ff 15 14 91 40 00    	call   *0x409114
  40212d:	eb 06                	jmp    0x402135
  40212f:	ff 15 14 91 40 00    	call   *0x409114
  402135:	eb 06                	jmp    0x40213d
  402137:	ff 15 14 91 40 00    	call   *0x409114
  40213d:	c7 45 fc 00 00 00 00 	movl   $0x0,-0x4(%ebp)
  402144:	e8 02 00 00 00       	call   0x40214b
  402149:	eb 2f                	jmp    0x40217a
  40214b:	83 7d d8 00          	cmpl   $0x0,-0x28(%ebp)
  40214f:	74 11                	je     0x402162
  402151:	8b 45 d8             	mov    -0x28(%ebp),%eax
  402154:	50                   	push   %eax
  402155:	ff 15 f8 90 40 00    	call   *0x4090f8
  40215b:	c7 45 d8 00 00 00 00 	movl   $0x0,-0x28(%ebp)
  402162:	83 7d e0 00          	cmpl   $0x0,-0x20(%ebp)
  402166:	74 11                	je     0x402179
  402168:	8b 4d e0             	mov    -0x20(%ebp),%ecx
  40216b:	51                   	push   %ecx
  40216c:	ff 15 f8 90 40 00    	call   *0x4090f8
  402172:	c7 45 e0 00 00 00 00 	movl   $0x0,-0x20(%ebp)
  402179:	c3                   	ret    
  40217a:	c7 45 fc ff ff ff ff 	movl   $0xffffffff,-0x4(%ebp)
  402181:	eb 17                	jmp    0x40219a
  402183:	b8 01 00 00 00       	mov    $0x1,%eax
  402188:	c3                   	ret    
  402189:	8b 65 e8             	mov    -0x18(%ebp),%esp
  40218c:	c7 45 dc ff ff ff ff 	movl   $0xffffffff,-0x24(%ebp)
  402193:	c7 45 fc ff ff ff ff 	movl   $0xffffffff,-0x4(%ebp)
  40219a:	8b 45 dc             	mov    -0x24(%ebp),%eax
  40219d:	8b 4d f0             	mov    -0x10(%ebp),%ecx
  4021a0:	64 89 0d 00 00 00 00 	mov    %ecx,%fs:0x0
  4021a7:	5f                   	pop    %edi
  4021a8:	5e                   	pop    %esi
  4021a9:	5b                   	pop    %ebx
  4021aa:	8b e5                	mov    %ebp,%esp
  4021ac:	5d                   	pop    %ebp
  4021ad:	c3                   	ret    
  4021ae:	cc                   	int3   
  4021af:	cc                   	int3   
  4021b0:	55                   	push   %ebp
  4021b1:	8b ec                	mov    %esp,%ebp
  4021b3:	6a ff                	push   $0xffffffff
  4021b5:	68 68 92 40 00       	push   $0x409268
  4021ba:	68 c0 7b 40 00       	push   $0x407bc0
  4021bf:	64 a1 00 00 00 00    	mov    %fs:0x0,%eax
  4021c5:	50                   	push   %eax
  4021c6:	64 89 25 00 00 00 00 	mov    %esp,%fs:0x0
  4021cd:	81 c4 4c ff ff ff    	add    $0xffffff4c,%esp
  4021d3:	53                   	push   %ebx
  4021d4:	56                   	push   %esi
  4021d5:	57                   	push   %edi
  4021d6:	89 65 e8             	mov    %esp,-0x18(%ebp)
  4021d9:	c7 45 e4 00 00 00 00 	movl   $0x0,-0x1c(%ebp)
  4021e0:	c7 45 fc 00 00 00 00 	movl   $0x0,-0x4(%ebp)
  4021e7:	83 7d 08 00          	cmpl   $0x0,0x8(%ebp)
  4021eb:	75 11                	jne    0x4021fe
  4021ed:	6a 01                	push   $0x1
  4021ef:	6a 01                	push   $0x1
  4021f1:	6a 08                	push   $0x8
  4021f3:	e8 38 01 00 00       	call   0x402330
  4021f8:	83 c4 0c             	add    $0xc,%esp
  4021fb:	89 45 08             	mov    %eax,0x8(%ebp)
  4021fe:	83 7d 08 00          	cmpl   $0x0,0x8(%ebp)
  402202:	75 0c                	jne    0x402210
  402204:	c7 45 e4 00 00 00 00 	movl   $0x0,-0x1c(%ebp)
  40220b:	e9 ed 00 00 00       	jmp    0x4022fd
  402210:	8d 85 50 ff ff ff    	lea    -0xb0(%ebp),%eax
  402216:	89 45 b4             	mov    %eax,-0x4c(%ebp)
  402219:	6a 02                	push   $0x2
  40221b:	6a 54                	push   $0x54
  40221d:	8b 4d b4             	mov    -0x4c(%ebp),%ecx
  402220:	51                   	push   %ecx
  402221:	ff 15 44 90 40 00    	call   *0x409044
  402227:	8b 55 0c             	mov    0xc(%ebp),%edx
  40222a:	52                   	push   %edx
  40222b:	6a 01                	push   $0x1
  40222d:	6a 02                	push   $0x2
  40222f:	8b 45 b4             	mov    -0x4c(%ebp),%eax
  402232:	50                   	push   %eax
  402233:	ff 15 40 90 40 00    	call   *0x409040
  402239:	6a 01                	push   $0x1
  40223b:	8d 4d b8             	lea    -0x48(%ebp),%ecx
  40223e:	51                   	push   %ecx
  40223f:	ff 15 24 90 40 00    	call   *0x409024
  402245:	c6 45 a8 01          	movb   $0x1,-0x58(%ebp)
  402249:	c6 45 a9 01          	movb   $0x1,-0x57(%ebp)
  40224d:	c6 45 aa 00          	movb   $0x0,-0x56(%ebp)
  402251:	c6 45 ab 00          	movb   $0x0,-0x55(%ebp)
  402255:	c6 45 ac 00          	movb   $0x0,-0x54(%ebp)
  402259:	c6 45 ad 00          	movb   $0x0,-0x53(%ebp)
  40225d:	c6 45 ae 00          	movb   $0x0,-0x52(%ebp)
  402261:	c6 45 af 01          	movb   $0x1,-0x51(%ebp)
  402265:	c7 45 b0 00 00 00 00 	movl   $0x0,-0x50(%ebp)
  40226c:	6a 00                	push   $0x0
  40226e:	8d 55 a8             	lea    -0x58(%ebp),%edx
  402271:	52                   	push   %edx
  402272:	8d 45 b8             	lea    -0x48(%ebp),%eax
  402275:	50                   	push   %eax
  402276:	ff 15 3c 90 40 00    	call   *0x40903c
  40227c:	6a 00                	push   $0x0
  40227e:	8d 4d a8             	lea    -0x58(%ebp),%ecx
  402281:	51                   	push   %ecx
  402282:	8d 55 b8             	lea    -0x48(%ebp),%edx
  402285:	52                   	push   %edx
  402286:	ff 15 38 90 40 00    	call   *0x409038
  40228c:	6a 00                	push   $0x0
  40228e:	8b 45 b4             	mov    -0x4c(%ebp),%eax
  402291:	50                   	push   %eax
  402292:	6a 01                	push   $0x1
  402294:	8d 4d b8             	lea    -0x48(%ebp),%ecx
  402297:	51                   	push   %ecx
  402298:	ff 15 50 90 40 00    	call   *0x409050
  40229e:	c7 85 40 ff ff ff 00 	movl   $0x0,-0xc0(%ebp)
  4022a5:	00 00 00 
  4022a8:	c7 85 44 ff ff ff 00 	movl   $0x0,-0xbc(%ebp)
  4022af:	00 00 00 
  4022b2:	c7 85 48 ff ff ff 00 	movl   $0x0,-0xb8(%ebp)
  4022b9:	00 00 00 
  4022bc:	c7 85 4c ff ff ff 01 	movl   $0x1,-0xb4(%ebp)
  4022c3:	00 00 00 
  4022c6:	c7 85 3c ff ff ff 14 	movl   $0x14,-0xc4(%ebp)
  4022cd:	00 00 00 
  4022d0:	8b 55 10             	mov    0x10(%ebp),%edx
  4022d3:	52                   	push   %edx
  4022d4:	8d 45 e0             	lea    -0x20(%ebp),%eax
  4022d7:	50                   	push   %eax
  4022d8:	8d 8d 3c ff ff ff    	lea    -0xc4(%ebp),%ecx
  4022de:	51                   	push   %ecx
  4022df:	8d 55 cc             	lea    -0x34(%ebp),%edx
  4022e2:	52                   	push   %edx
  4022e3:	8d 85 40 ff ff ff    	lea    -0xc0(%ebp),%eax
  4022e9:	50                   	push   %eax
  4022ea:	6a 01                	push   $0x1
  4022ec:	8b 4d 08             	mov    0x8(%ebp),%ecx
  4022ef:	51                   	push   %ecx
  4022f0:	8d 55 b8             	lea    -0x48(%ebp),%edx
  4022f3:	52                   	push   %edx
  4022f4:	ff 15 10 90 40 00    	call   *0x409010
  4022fa:	89 45 e4             	mov    %eax,-0x1c(%ebp)
  4022fd:	c7 45 fc ff ff ff ff 	movl   $0xffffffff,-0x4(%ebp)
  402304:	eb 10                	jmp    0x402316
  402306:	b8 01 00 00 00       	mov    $0x1,%eax
  40230b:	c3                   	ret    
  40230c:	8b 65 e8             	mov    -0x18(%ebp),%esp
  40230f:	c7 45 fc ff ff ff ff 	movl   $0xffffffff,-0x4(%ebp)
  402316:	8b 45 e4             	mov    -0x1c(%ebp),%eax
  402319:	8b 4d f0             	mov    -0x10(%ebp),%ecx
  40231c:	64 89 0d 00 00 00 00 	mov    %ecx,%fs:0x0
  402323:	5f                   	pop    %edi
  402324:	5e                   	pop    %esi
  402325:	5b                   	pop    %ebx
  402326:	8b e5                	mov    %ebp,%esp
  402328:	5d                   	pop    %ebp
  402329:	c2 0c 00             	ret    $0xc
  40232c:	cc                   	int3   
  40232d:	cc                   	int3   
  40232e:	cc                   	int3   
  40232f:	cc                   	int3   
  402330:	55                   	push   %ebp
  402331:	8b ec                	mov    %esp,%ebp
  402333:	6a ff                	push   $0xffffffff
  402335:	68 78 92 40 00       	push   $0x409278
  40233a:	68 c0 7b 40 00       	push   $0x407bc0
  40233f:	64 a1 00 00 00 00    	mov    %fs:0x0,%eax
  402345:	50                   	push   %eax
  402346:	64 89 25 00 00 00 00 	mov    %esp,%fs:0x0
  40234d:	83 c4 dc             	add    $0xffffffdc,%esp
  402350:	53                   	push   %ebx
  402351:	56                   	push   %esi
  402352:	57                   	push   %edi
  402353:	89 65 e8             	mov    %esp,-0x18(%ebp)
  402356:	c7 45 fc 00 00 00 00 	movl   $0x0,-0x4(%ebp)
  40235d:	c7 45 e4 00 00 00 00 	movl   $0x0,-0x1c(%ebp)
  402364:	8d 45 e4             	lea    -0x1c(%ebp),%eax
  402367:	50                   	push   %eax
  402368:	6a 01                	push   $0x1
  40236a:	8b 4d 08             	mov    0x8(%ebp),%ecx
  40236d:	51                   	push   %ecx
  40236e:	ff 15 60 90 40 00    	call   *0x409060
  402374:	50                   	push   %eax
  402375:	ff 15 4c 90 40 00    	call   *0x40904c
  40237b:	85 c0                	test   %eax,%eax
  40237d:	74 15                	je     0x402394
  40237f:	8b 55 e4             	mov    -0x1c(%ebp),%edx
  402382:	89 55 d8             	mov    %edx,-0x28(%ebp)
  402385:	c7 45 fc ff ff ff ff 	movl   $0xffffffff,-0x4(%ebp)
  40238c:	8b 45 d8             	mov    -0x28(%ebp),%eax
  40238f:	e9 c6 00 00 00       	jmp    0x40245a
  402394:	ff 15 14 91 40 00    	call   *0x409114
  40239a:	3d f0 03 00 00       	cmp    $0x3f0,%eax
  40239f:	0f 85 9a 00 00 00    	jne    0x40243f
  4023a5:	83 7d 0c 00          	cmpl   $0x0,0xc(%ebp)
  4023a9:	74 09                	je     0x4023b4
  4023ab:	c7 45 d4 02 00 00 00 	movl   $0x2,-0x2c(%ebp)
  4023b2:	eb 06                	jmp    0x4023ba
  4023b4:	8b 45 08             	mov    0x8(%ebp),%eax
  4023b7:	89 45 d4             	mov    %eax,-0x2c(%ebp)
  4023ba:	8b 4d d4             	mov    -0x2c(%ebp),%ecx
  4023bd:	89 4d e0             	mov    %ecx,-0x20(%ebp)
  4023c0:	8d 55 e4             	lea    -0x1c(%ebp),%edx
  4023c3:	52                   	push   %edx
  4023c4:	8b 45 e0             	mov    -0x20(%ebp),%eax
  4023c7:	50                   	push   %eax
  4023c8:	ff 15 5c 90 40 00    	call   *0x40905c
  4023ce:	50                   	push   %eax
  4023cf:	ff 15 14 90 40 00    	call   *0x409014
  4023d5:	85 c0                	test   %eax,%eax
  4023d7:	74 66                	je     0x40243f
  4023d9:	83 7d 0c 00          	cmpl   $0x0,0xc(%ebp)
  4023dd:	74 4e                	je     0x40242d
  4023df:	8d 4d dc             	lea    -0x24(%ebp),%ecx
  4023e2:	51                   	push   %ecx
  4023e3:	6a 02                	push   $0x2
  4023e5:	8b 55 10             	mov    0x10(%ebp),%edx
  4023e8:	52                   	push   %edx
  4023e9:	6a 00                	push   $0x0
  4023eb:	8b 45 08             	mov    0x8(%ebp),%eax
  4023ee:	50                   	push   %eax
  4023ef:	8b 4d e4             	mov    -0x1c(%ebp),%ecx
  4023f2:	51                   	push   %ecx
  4023f3:	ff 15 48 90 40 00    	call   *0x409048
  4023f9:	85 c0                	test   %eax,%eax
  4023fb:	75 07                	jne    0x402404
  4023fd:	c7 45 dc 00 00 00 00 	movl   $0x0,-0x24(%ebp)
  402404:	83 7d e4 00          	cmpl   $0x0,-0x1c(%ebp)
  402408:	74 11                	je     0x40241b
  40240a:	8b 55 e4             	mov    -0x1c(%ebp),%edx
  40240d:	52                   	push   %edx
  40240e:	ff 15 e8 90 40 00    	call   *0x4090e8
  402414:	c7 45 e4 00 00 00 00 	movl   $0x0,-0x1c(%ebp)
  40241b:	8b 45 dc             	mov    -0x24(%ebp),%eax
  40241e:	89 45 d0             	mov    %eax,-0x30(%ebp)
  402421:	c7 45 fc ff ff ff ff 	movl   $0xffffffff,-0x4(%ebp)
  402428:	8b 45 d0             	mov    -0x30(%ebp),%eax
  40242b:	eb 2d                	jmp    0x40245a
  40242d:	8b 4d e4             	mov    -0x1c(%ebp),%ecx
  402430:	89 4d cc             	mov    %ecx,-0x34(%ebp)
  402433:	c7 45 fc ff ff ff ff 	movl   $0xffffffff,-0x4(%ebp)
  40243a:	8b 45 cc             	mov    -0x34(%ebp),%eax
  40243d:	eb 1b                	jmp    0x40245a
  40243f:	c7 45 fc ff ff ff ff 	movl   $0xffffffff,-0x4(%ebp)
  402446:	eb 10                	jmp    0x402458
  402448:	b8 01 00 00 00       	mov    $0x1,%eax
  40244d:	c3                   	ret    
  40244e:	8b 65 e8             	mov    -0x18(%ebp),%esp
  402451:	c7 45 fc ff ff ff ff 	movl   $0xffffffff,-0x4(%ebp)
  402458:	33 c0                	xor    %eax,%eax
  40245a:	8b 4d f0             	mov    -0x10(%ebp),%ecx
  40245d:	64 89 0d 00 00 00 00 	mov    %ecx,%fs:0x0
  402464:	5f                   	pop    %edi
  402465:	5e                   	pop    %esi
  402466:	5b                   	pop    %ebx
  402467:	8b e5                	mov    %ebp,%esp
  402469:	5d                   	pop    %ebp
  40246a:	c3                   	ret    
  40246b:	cc                   	int3   
  40246c:	cc                   	int3   
  40246d:	cc                   	int3   
  40246e:	cc                   	int3   
  40246f:	cc                   	int3   
  402470:	55                   	push   %ebp
  402471:	8b ec                	mov    %esp,%ebp
  402473:	81 ec 08 01 00 00    	sub    $0x108,%esp
  402479:	68 05 01 00 00       	push   $0x105
  40247e:	6a 00                	push   $0x0
  402480:	8d 85 f8 fe ff ff    	lea    -0x108(%ebp),%eax
  402486:	50                   	push   %eax
  402487:	e8 36 5c 00 00       	call   0x4080c2
  40248c:	83 c4 0c             	add    $0xc,%esp
  40248f:	68 04 01 00 00       	push   $0x104
  402494:	8d 8d f8 fe ff ff    	lea    -0x108(%ebp),%ecx
  40249a:	51                   	push   %ecx
  40249b:	8b 55 08             	mov    0x8(%ebp),%edx
  40249e:	52                   	push   %edx
  40249f:	ff 15 64 90 40 00    	call   *0x409064
  4024a5:	85 c0                	test   %eax,%eax
  4024a7:	75 04                	jne    0x4024ad
  4024a9:	33 c0                	xor    %eax,%eax
  4024ab:	eb 0f                	jmp    0x4024bc
  4024ad:	8d 85 f8 fe ff ff    	lea    -0x108(%ebp),%eax
  4024b3:	50                   	push   %eax
  4024b4:	e8 07 00 00 00       	call   0x4024c0
  4024b9:	83 c4 04             	add    $0x4,%esp
  4024bc:	8b e5                	mov    %ebp,%esp
  4024be:	5d                   	pop    %ebp
  4024bf:	c3                   	ret    
  4024c0:	55                   	push   %ebp
  4024c1:	8b ec                	mov    %esp,%ebp
  4024c3:	6a ff                	push   $0xffffffff
  4024c5:	68 88 92 40 00       	push   $0x409288
  4024ca:	68 c0 7b 40 00       	push   $0x407bc0
  4024cf:	64 a1 00 00 00 00    	mov    %fs:0x0,%eax
  4024d5:	50                   	push   %eax
  4024d6:	64 89 25 00 00 00 00 	mov    %esp,%fs:0x0
  4024dd:	81 c4 b4 fe ff ff    	add    $0xfffffeb4,%esp
  4024e3:	53                   	push   %ebx
  4024e4:	56                   	push   %esi
  4024e5:	57                   	push   %edi
  4024e6:	c7 45 dc 00 00 00 00 	movl   $0x0,-0x24(%ebp)
  4024ed:	c7 45 e4 00 00 00 00 	movl   $0x0,-0x1c(%ebp)
  4024f4:	c7 45 d8 00 00 00 00 	movl   $0x0,-0x28(%ebp)
  4024fb:	c7 45 d4 00 00 00 00 	movl   $0x0,-0x2c(%ebp)
  402502:	c7 45 fc 00 00 00 00 	movl   $0x0,-0x4(%ebp)
  402509:	e8 62 0d 00 00       	call   0x403270
  40250e:	0f b6 c0             	movzbl %al,%eax
  402511:	85 c0                	test   %eax,%eax
  402513:	75 29                	jne    0x40253e
  402515:	6a 04                	push   $0x4
  402517:	6a 00                	push   $0x0
  402519:	8b 4d 08             	mov    0x8(%ebp),%ecx
  40251c:	51                   	push   %ecx
  40251d:	ff 15 7c 90 40 00    	call   *0x40907c
  402523:	85 c0                	test   %eax,%eax
  402525:	74 0c                	je     0x402533
  402527:	c7 45 dc 01 00 00 00 	movl   $0x1,-0x24(%ebp)
  40252e:	e9 65 03 00 00       	jmp    0x402898
  402533:	ff 15 14 91 40 00    	call   *0x409114
  402539:	e9 5a 03 00 00       	jmp    0x402898
  40253e:	c6 85 ac fe ff ff 60 	movb   $0x60,-0x154(%ebp)
  402545:	c6 85 ad fe ff ff 4b 	movb   $0x4b,-0x153(%ebp)
  40254c:	c6 85 ae fe ff ff 55 	movb   $0x55,-0x152(%ebp)
  402553:	c6 85 af fe ff ff 52 	movb   $0x52,-0x151(%ebp)
  40255a:	c6 85 b0 fe ff ff 55 	movb   $0x55,-0x150(%ebp)
  402561:	c6 85 b1 fe ff ff 52 	movb   $0x52,-0x14f(%ebp)
  402568:	c6 85 b2 fe ff ff 55 	movb   $0x55,-0x14e(%ebp)
  40256f:	c6 85 b3 fe ff ff 48 	movb   $0x48,-0x14d(%ebp)
  402576:	c6 85 b4 fe ff ff 12 	movb   $0x12,-0x14c(%ebp)
  40257d:	c6 85 b5 fe ff ff 55 	movb   $0x55,-0x14b(%ebp)
  402584:	c6 85 b6 fe ff ff 52 	movb   $0x52,-0x14a(%ebp)
  40258b:	c6 85 b7 fe ff ff 55 	movb   $0x55,-0x149(%ebp)
  402592:	c6 85 b8 fe ff ff 00 	movb   $0x0,-0x148(%ebp)
  402599:	c6 45 c8 67          	movb   $0x67,-0x38(%ebp)
  40259d:	c6 45 c9 4e          	movb   $0x4e,-0x37(%ebp)
  4025a1:	c6 45 ca 59          	movb   $0x59,-0x36(%ebp)
  4025a5:	c6 45 cb 52          	movb   $0x52,-0x35(%ebp)
  4025a9:	c6 45 cc 5d          	movb   $0x5d,-0x34(%ebp)
  4025ad:	c6 45 cd 51          	movb   $0x51,-0x33(%ebp)
  4025b1:	c6 45 ce 59          	movb   $0x59,-0x32(%ebp)
  4025b5:	c6 45 cf 61          	movb   $0x61,-0x31(%ebp)
  4025b9:	c6 45 d0 00          	movb   $0x0,-0x30(%ebp)
  4025bd:	8d 95 ac fe ff ff    	lea    -0x154(%ebp),%edx
  4025c3:	52                   	push   %edx
  4025c4:	e8 a7 ea ff ff       	call   0x401070
  4025c9:	83 c4 04             	add    $0x4,%esp
  4025cc:	8d 45 c8             	lea    -0x38(%ebp),%eax
  4025cf:	50                   	push   %eax
  4025d0:	e8 9b ea ff ff       	call   0x401070
  4025d5:	83 c4 04             	add    $0x4,%esp
  4025d8:	68 05 01 00 00       	push   $0x105
  4025dd:	6a 00                	push   $0x0
  4025df:	8d 8d c0 fe ff ff    	lea    -0x140(%ebp),%ecx
  4025e5:	51                   	push   %ecx
  4025e6:	e8 d7 5a 00 00       	call   0x4080c2
  4025eb:	83 c4 0c             	add    $0xc,%esp
  4025ee:	68 04 01 00 00       	push   $0x104
  4025f3:	8d 95 c0 fe ff ff    	lea    -0x140(%ebp),%edx
  4025f9:	52                   	push   %edx
  4025fa:	ff 15 78 90 40 00    	call   *0x409078
  402600:	89 85 bc fe ff ff    	mov    %eax,-0x144(%ebp)
  402606:	8d 85 ac fe ff ff    	lea    -0x154(%ebp),%eax
  40260c:	50                   	push   %eax
  40260d:	e8 a4 5a 00 00       	call   0x4080b6
  402612:	83 c4 04             	add    $0x4,%esp
  402615:	8b 8d bc fe ff ff    	mov    -0x144(%ebp),%ecx
  40261b:	8d 54 01 01          	lea    0x1(%ecx,%eax,1),%edx
  40261f:	81 fa 04 01 00 00    	cmp    $0x104,%edx
  402625:	76 05                	jbe    0x40262c
  402627:	e9 6c 02 00 00       	jmp    0x402898
  40262c:	8d 85 ac fe ff ff    	lea    -0x154(%ebp),%eax
  402632:	50                   	push   %eax
  402633:	e8 7e 5a 00 00       	call   0x4080b6
  402638:	83 c4 04             	add    $0x4,%esp
  40263b:	83 c0 01             	add    $0x1,%eax
  40263e:	50                   	push   %eax
  40263f:	8d 8d ac fe ff ff    	lea    -0x154(%ebp),%ecx
  402645:	51                   	push   %ecx
  402646:	8b 95 bc fe ff ff    	mov    -0x144(%ebp),%edx
  40264c:	8d 84 15 c0 fe ff ff 	lea    -0x140(%ebp,%edx,1),%eax
  402653:	50                   	push   %eax
  402654:	e8 77 5a 00 00       	call   0x4080d0
  402659:	83 c4 0c             	add    $0xc,%esp
  40265c:	6a 00                	push   $0x0
  40265e:	68 80 00 00 00       	push   $0x80
  402663:	6a 03                	push   $0x3
  402665:	6a 00                	push   $0x0
  402667:	6a 01                	push   $0x1
  402669:	68 00 00 00 80       	push   $0x80000000
  40266e:	8d 8d c0 fe ff ff    	lea    -0x140(%ebp),%ecx
  402674:	51                   	push   %ecx
  402675:	ff 15 74 90 40 00    	call   *0x409074
  40267b:	89 45 e4             	mov    %eax,-0x1c(%ebp)
  40267e:	83 7d e4 ff          	cmpl   $0xffffffff,-0x1c(%ebp)
  402682:	75 63                	jne    0x4026e7
  402684:	6a 00                	push   $0x0
  402686:	68 80 00 00 00       	push   $0x80
  40268b:	6a 01                	push   $0x1
  40268d:	6a 00                	push   $0x0
  40268f:	6a 02                	push   $0x2
  402691:	68 00 00 00 40       	push   $0x40000000
  402696:	8d 95 c0 fe ff ff    	lea    -0x140(%ebp),%edx
  40269c:	52                   	push   %edx
  40269d:	ff 15 74 90 40 00    	call   *0x409074
  4026a3:	89 45 e4             	mov    %eax,-0x1c(%ebp)
  4026a6:	83 7d e4 ff          	cmpl   $0xffffffff,-0x1c(%ebp)
  4026aa:	75 0b                	jne    0x4026b7
  4026ac:	ff 15 14 91 40 00    	call   *0x409114
  4026b2:	e9 e1 01 00 00       	jmp    0x402898
  4026b7:	8d 85 c0 fe ff ff    	lea    -0x140(%ebp),%eax
  4026bd:	50                   	push   %eax
  4026be:	8b 4d 08             	mov    0x8(%ebp),%ecx
  4026c1:	51                   	push   %ecx
  4026c2:	8d 55 c8             	lea    -0x38(%ebp),%edx
  4026c5:	52                   	push   %edx
  4026c6:	8b 45 e4             	mov    -0x1c(%ebp),%eax
  4026c9:	50                   	push   %eax
  4026ca:	e8 21 02 00 00       	call   0x4028f0
  4026cf:	83 c4 10             	add    $0x10,%esp
  4026d2:	85 c0                	test   %eax,%eax
  4026d4:	75 05                	jne    0x4026db
  4026d6:	e9 bd 01 00 00       	jmp    0x402898
  4026db:	c7 45 dc 01 00 00 00 	movl   $0x1,-0x24(%ebp)
  4026e2:	e9 b1 01 00 00       	jmp    0x402898
  4026e7:	c7 85 a8 fe ff ff 00 	movl   $0x0,-0x158(%ebp)
  4026ee:	00 00 00 
  4026f1:	8d 8d a8 fe ff ff    	lea    -0x158(%ebp),%ecx
  4026f7:	51                   	push   %ecx
  4026f8:	8b 55 e4             	mov    -0x1c(%ebp),%edx
  4026fb:	52                   	push   %edx
  4026fc:	ff 15 70 90 40 00    	call   *0x409070
  402702:	89 45 d8             	mov    %eax,-0x28(%ebp)
  402705:	83 bd a8 fe ff ff 00 	cmpl   $0x0,-0x158(%ebp)
  40270c:	74 05                	je     0x402713
  40270e:	e9 85 01 00 00       	jmp    0x402898
  402713:	8b 45 d8             	mov    -0x28(%ebp),%eax
  402716:	83 c0 01             	add    $0x1,%eax
  402719:	50                   	push   %eax
  40271a:	6a 40                	push   $0x40
  40271c:	ff 15 58 90 40 00    	call   *0x409058
  402722:	89 45 d4             	mov    %eax,-0x2c(%ebp)
  402725:	83 7d d4 00          	cmpl   $0x0,-0x2c(%ebp)
  402729:	75 05                	jne    0x402730
  40272b:	e9 68 01 00 00       	jmp    0x402898
  402730:	6a 00                	push   $0x0
  402732:	8d 4d e0             	lea    -0x20(%ebp),%ecx
  402735:	51                   	push   %ecx
  402736:	8b 55 d8             	mov    -0x28(%ebp),%edx
  402739:	52                   	push   %edx
  40273a:	8b 45 d4             	mov    -0x2c(%ebp),%eax
  40273d:	50                   	push   %eax
  40273e:	8b 4d e4             	mov    -0x1c(%ebp),%ecx
  402741:	51                   	push   %ecx
  402742:	ff 15 6c 90 40 00    	call   *0x40906c
  402748:	85 c0                	test   %eax,%eax
  40274a:	75 05                	jne    0x402751
  40274c:	e9 47 01 00 00       	jmp    0x402898
  402751:	8b 55 e4             	mov    -0x1c(%ebp),%edx
  402754:	52                   	push   %edx
  402755:	ff 15 e8 90 40 00    	call   *0x4090e8
  40275b:	c7 45 e4 00 00 00 00 	movl   $0x0,-0x1c(%ebp)
  402762:	6a 00                	push   $0x0
  402764:	68 80 00 00 00       	push   $0x80
  402769:	6a 03                	push   $0x3
  40276b:	6a 00                	push   $0x0
  40276d:	6a 02                	push   $0x2
  40276f:	68 00 00 00 40       	push   $0x40000000
  402774:	8d 85 c0 fe ff ff    	lea    -0x140(%ebp),%eax
  40277a:	50                   	push   %eax
  40277b:	ff 15 74 90 40 00    	call   *0x409074
  402781:	89 45 e4             	mov    %eax,-0x1c(%ebp)
  402784:	83 7d e4 ff          	cmpl   $0xffffffff,-0x1c(%ebp)
  402788:	75 0b                	jne    0x402795
  40278a:	ff 15 14 91 40 00    	call   *0x409114
  402790:	e9 03 01 00 00       	jmp    0x402898
  402795:	8d 4d c8             	lea    -0x38(%ebp),%ecx
  402798:	51                   	push   %ecx
  402799:	8b 55 d4             	mov    -0x2c(%ebp),%edx
  40279c:	52                   	push   %edx
  40279d:	ff 15 68 91 40 00    	call   *0x409168
  4027a3:	83 c4 08             	add    $0x8,%esp
  4027a6:	89 85 a4 fe ff ff    	mov    %eax,-0x15c(%ebp)
  4027ac:	83 bd a4 fe ff ff 00 	cmpl   $0x0,-0x15c(%ebp)
  4027b3:	75 51                	jne    0x402806
  4027b5:	6a 00                	push   $0x0
  4027b7:	8d 45 e0             	lea    -0x20(%ebp),%eax
  4027ba:	50                   	push   %eax
  4027bb:	8b 4d d8             	mov    -0x28(%ebp),%ecx
  4027be:	51                   	push   %ecx
  4027bf:	8b 55 d4             	mov    -0x2c(%ebp),%edx
  4027c2:	52                   	push   %edx
  4027c3:	8b 45 e4             	mov    -0x1c(%ebp),%eax
  4027c6:	50                   	push   %eax
  4027c7:	ff 15 68 90 40 00    	call   *0x409068
  4027cd:	85 c0                	test   %eax,%eax
  4027cf:	75 05                	jne    0x4027d6
  4027d1:	e9 c2 00 00 00       	jmp    0x402898
  4027d6:	8d 8d c0 fe ff ff    	lea    -0x140(%ebp),%ecx
  4027dc:	51                   	push   %ecx
  4027dd:	8b 55 08             	mov    0x8(%ebp),%edx
  4027e0:	52                   	push   %edx
  4027e1:	8d 45 c8             	lea    -0x38(%ebp),%eax
  4027e4:	50                   	push   %eax
  4027e5:	8b 4d e4             	mov    -0x1c(%ebp),%ecx
  4027e8:	51                   	push   %ecx
  4027e9:	e8 02 01 00 00       	call   0x4028f0
  4027ee:	83 c4 10             	add    $0x10,%esp
  4027f1:	85 c0                	test   %eax,%eax
  4027f3:	75 05                	jne    0x4027fa
  4027f5:	e9 9e 00 00 00       	jmp    0x402898
  4027fa:	c7 45 dc 01 00 00 00 	movl   $0x1,-0x24(%ebp)
  402801:	e9 92 00 00 00       	jmp    0x402898
  402806:	6a 00                	push   $0x0
  402808:	8d 55 e0             	lea    -0x20(%ebp),%edx
  40280b:	52                   	push   %edx
  40280c:	8b 85 a4 fe ff ff    	mov    -0x15c(%ebp),%eax
  402812:	2b 45 d4             	sub    -0x2c(%ebp),%eax
  402815:	50                   	push   %eax
  402816:	8b 4d d4             	mov    -0x2c(%ebp),%ecx
  402819:	51                   	push   %ecx
  40281a:	8b 55 e4             	mov    -0x1c(%ebp),%edx
  40281d:	52                   	push   %edx
  40281e:	ff 15 68 90 40 00    	call   *0x409068
  402824:	85 c0                	test   %eax,%eax
  402826:	75 02                	jne    0x40282a
  402828:	eb 6e                	jmp    0x402898
  40282a:	8d 85 c0 fe ff ff    	lea    -0x140(%ebp),%eax
  402830:	50                   	push   %eax
  402831:	8b 4d 08             	mov    0x8(%ebp),%ecx
  402834:	51                   	push   %ecx
  402835:	8d 55 c8             	lea    -0x38(%ebp),%edx
  402838:	52                   	push   %edx
  402839:	8b 45 e4             	mov    -0x1c(%ebp),%eax
  40283c:	50                   	push   %eax
  40283d:	e8 ae 00 00 00       	call   0x4028f0
  402842:	83 c4 10             	add    $0x10,%esp
  402845:	85 c0                	test   %eax,%eax
  402847:	75 02                	jne    0x40284b
  402849:	eb 4d                	jmp    0x402898
  40284b:	6a 00                	push   $0x0
  40284d:	8d 4d e0             	lea    -0x20(%ebp),%ecx
  402850:	51                   	push   %ecx
  402851:	8b b5 a4 fe ff ff    	mov    -0x15c(%ebp),%esi
  402857:	2b 75 d4             	sub    -0x2c(%ebp),%esi
  40285a:	8d 55 c8             	lea    -0x38(%ebp),%edx
  40285d:	52                   	push   %edx
  40285e:	e8 53 58 00 00       	call   0x4080b6
  402863:	83 c4 04             	add    $0x4,%esp
  402866:	03 f0                	add    %eax,%esi
  402868:	8b 45 d8             	mov    -0x28(%ebp),%eax
  40286b:	2b c6                	sub    %esi,%eax
  40286d:	50                   	push   %eax
  40286e:	8d 4d c8             	lea    -0x38(%ebp),%ecx
  402871:	51                   	push   %ecx
  402872:	e8 3f 58 00 00       	call   0x4080b6
  402877:	83 c4 04             	add    $0x4,%esp
  40287a:	03 85 a4 fe ff ff    	add    -0x15c(%ebp),%eax
  402880:	50                   	push   %eax
  402881:	8b 55 e4             	mov    -0x1c(%ebp),%edx
  402884:	52                   	push   %edx
  402885:	ff 15 68 90 40 00    	call   *0x409068
  40288b:	85 c0                	test   %eax,%eax
  40288d:	75 02                	jne    0x402891
  40288f:	eb 07                	jmp    0x402898
  402891:	c7 45 dc 01 00 00 00 	movl   $0x1,-0x24(%ebp)
  402898:	c7 45 fc ff ff ff ff 	movl   $0xffffffff,-0x4(%ebp)
  40289f:	e8 02 00 00 00       	call   0x4028a6
  4028a4:	eb 2f                	jmp    0x4028d5
  4028a6:	83 7d e4 00          	cmpl   $0x0,-0x1c(%ebp)
  4028aa:	74 11                	je     0x4028bd
  4028ac:	8b 45 e4             	mov    -0x1c(%ebp),%eax
  4028af:	50                   	push   %eax
  4028b0:	ff 15 e8 90 40 00    	call   *0x4090e8
  4028b6:	c7 45 e4 00 00 00 00 	movl   $0x0,-0x1c(%ebp)
  4028bd:	83 7d d4 00          	cmpl   $0x0,-0x2c(%ebp)
  4028c1:	74 11                	je     0x4028d4
  4028c3:	8b 4d d4             	mov    -0x2c(%ebp),%ecx
  4028c6:	51                   	push   %ecx
  4028c7:	ff 15 f8 90 40 00    	call   *0x4090f8
  4028cd:	c7 45 d4 00 00 00 00 	movl   $0x0,-0x2c(%ebp)
  4028d4:	c3                   	ret    
  4028d5:	8b 45 dc             	mov    -0x24(%ebp),%eax
  4028d8:	8b 4d f0             	mov    -0x10(%ebp),%ecx
  4028db:	64 89 0d 00 00 00 00 	mov    %ecx,%fs:0x0
  4028e2:	5f                   	pop    %edi
  4028e3:	5e                   	pop    %esi
  4028e4:	5b                   	pop    %ebx
  4028e5:	8b e5                	mov    %ebp,%esp
  4028e7:	5d                   	pop    %ebp
  4028e8:	c3                   	ret    
  4028e9:	cc                   	int3   
  4028ea:	cc                   	int3   
  4028eb:	cc                   	int3   
  4028ec:	cc                   	int3   
  4028ed:	cc                   	int3   
  4028ee:	cc                   	int3   
  4028ef:	cc                   	int3   
  4028f0:	55                   	push   %ebp
  4028f1:	8b ec                	mov    %esp,%ebp
  4028f3:	83 ec 0c             	sub    $0xc,%esp
  4028f6:	c6 45 f4 72          	movb   $0x72,-0xc(%ebp)
  4028fa:	c6 45 f5 69          	movb   $0x69,-0xb(%ebp)
  4028fe:	c6 45 f6 70          	movb   $0x70,-0xa(%ebp)
  402902:	c6 45 f7 01          	movb   $0x1,-0x9(%ebp)
  402906:	c6 45 f8 00          	movb   $0x0,-0x8(%ebp)
  40290a:	8d 45 f4             	lea    -0xc(%ebp),%eax
  40290d:	50                   	push   %eax
  40290e:	e8 5d e7 ff ff       	call   0x401070
  402913:	83 c4 04             	add    $0x4,%esp
  402916:	6a 00                	push   $0x0
  402918:	8d 4d fc             	lea    -0x4(%ebp),%ecx
  40291b:	51                   	push   %ecx
  40291c:	68 94 92 40 00       	push   $0x409294
  402921:	e8 90 57 00 00       	call   0x4080b6
  402926:	83 c4 04             	add    $0x4,%esp
  402929:	50                   	push   %eax
  40292a:	68 94 92 40 00       	push   $0x409294
  40292f:	8b 55 08             	mov    0x8(%ebp),%edx
  402932:	52                   	push   %edx
  402933:	ff 15 68 90 40 00    	call   *0x409068
  402939:	85 c0                	test   %eax,%eax
  40293b:	75 07                	jne    0x402944
  40293d:	33 c0                	xor    %eax,%eax
  40293f:	e9 62 01 00 00       	jmp    0x402aa6
  402944:	6a 00                	push   $0x0
  402946:	8d 45 fc             	lea    -0x4(%ebp),%eax
  402949:	50                   	push   %eax
  40294a:	8b 4d 0c             	mov    0xc(%ebp),%ecx
  40294d:	51                   	push   %ecx
  40294e:	e8 63 57 00 00       	call   0x4080b6
  402953:	83 c4 04             	add    $0x4,%esp
  402956:	50                   	push   %eax
  402957:	8b 55 0c             	mov    0xc(%ebp),%edx
  40295a:	52                   	push   %edx
  40295b:	8b 45 08             	mov    0x8(%ebp),%eax
  40295e:	50                   	push   %eax
  40295f:	ff 15 68 90 40 00    	call   *0x409068
  402965:	85 c0                	test   %eax,%eax
  402967:	75 07                	jne    0x402970
  402969:	33 c0                	xor    %eax,%eax
  40296b:	e9 36 01 00 00       	jmp    0x402aa6
  402970:	6a 00                	push   $0x0
  402972:	8d 4d fc             	lea    -0x4(%ebp),%ecx
  402975:	51                   	push   %ecx
  402976:	68 94 92 40 00       	push   $0x409294
  40297b:	e8 36 57 00 00       	call   0x4080b6
  402980:	83 c4 04             	add    $0x4,%esp
  402983:	50                   	push   %eax
  402984:	68 94 92 40 00       	push   $0x409294
  402989:	8b 55 08             	mov    0x8(%ebp),%edx
  40298c:	52                   	push   %edx
  40298d:	ff 15 68 90 40 00    	call   *0x409068
  402993:	85 c0                	test   %eax,%eax
  402995:	75 07                	jne    0x40299e
  402997:	33 c0                	xor    %eax,%eax
  402999:	e9 08 01 00 00       	jmp    0x402aa6
  40299e:	6a 00                	push   $0x0
  4029a0:	8d 45 fc             	lea    -0x4(%ebp),%eax
  4029a3:	50                   	push   %eax
  4029a4:	8d 4d f4             	lea    -0xc(%ebp),%ecx
  4029a7:	51                   	push   %ecx
  4029a8:	e8 09 57 00 00       	call   0x4080b6
  4029ad:	83 c4 04             	add    $0x4,%esp
  4029b0:	50                   	push   %eax
  4029b1:	8d 55 f4             	lea    -0xc(%ebp),%edx
  4029b4:	52                   	push   %edx
  4029b5:	8b 45 08             	mov    0x8(%ebp),%eax
  4029b8:	50                   	push   %eax
  4029b9:	ff 15 68 90 40 00    	call   *0x409068
  4029bf:	85 c0                	test   %eax,%eax
  4029c1:	75 07                	jne    0x4029ca
  4029c3:	33 c0                	xor    %eax,%eax
  4029c5:	e9 dc 00 00 00       	jmp    0x402aa6
  4029ca:	6a 00                	push   $0x0
  4029cc:	8d 4d fc             	lea    -0x4(%ebp),%ecx
  4029cf:	51                   	push   %ecx
  4029d0:	8b 55 10             	mov    0x10(%ebp),%edx
  4029d3:	52                   	push   %edx
  4029d4:	e8 dd 56 00 00       	call   0x4080b6
  4029d9:	83 c4 04             	add    $0x4,%esp
  4029dc:	50                   	push   %eax
  4029dd:	8b 45 10             	mov    0x10(%ebp),%eax
  4029e0:	50                   	push   %eax
  4029e1:	8b 4d 08             	mov    0x8(%ebp),%ecx
  4029e4:	51                   	push   %ecx
  4029e5:	ff 15 68 90 40 00    	call   *0x409068
  4029eb:	85 c0                	test   %eax,%eax
  4029ed:	75 07                	jne    0x4029f6
  4029ef:	33 c0                	xor    %eax,%eax
  4029f1:	e9 b0 00 00 00       	jmp    0x402aa6
  4029f6:	6a 00                	push   $0x0
  4029f8:	8d 55 fc             	lea    -0x4(%ebp),%edx
  4029fb:	52                   	push   %edx
  4029fc:	68 94 92 40 00       	push   $0x409294
  402a01:	e8 b0 56 00 00       	call   0x4080b6
  402a06:	83 c4 04             	add    $0x4,%esp
  402a09:	50                   	push   %eax
  402a0a:	68 94 92 40 00       	push   $0x409294
  402a0f:	8b 45 08             	mov    0x8(%ebp),%eax
  402a12:	50                   	push   %eax
  402a13:	ff 15 68 90 40 00    	call   *0x409068
  402a19:	85 c0                	test   %eax,%eax
  402a1b:	75 07                	jne    0x402a24
  402a1d:	33 c0                	xor    %eax,%eax
  402a1f:	e9 82 00 00 00       	jmp    0x402aa6
  402a24:	6a 00                	push   $0x0
  402a26:	8d 4d fc             	lea    -0x4(%ebp),%ecx
  402a29:	51                   	push   %ecx
  402a2a:	8d 55 f4             	lea    -0xc(%ebp),%edx
  402a2d:	52                   	push   %edx
  402a2e:	e8 83 56 00 00       	call   0x4080b6
  402a33:	83 c4 04             	add    $0x4,%esp
  402a36:	50                   	push   %eax
  402a37:	8d 45 f4             	lea    -0xc(%ebp),%eax
  402a3a:	50                   	push   %eax
  402a3b:	8b 4d 08             	mov    0x8(%ebp),%ecx
  402a3e:	51                   	push   %ecx
  402a3f:	ff 15 68 90 40 00    	call   *0x409068
  402a45:	85 c0                	test   %eax,%eax
  402a47:	75 04                	jne    0x402a4d
  402a49:	33 c0                	xor    %eax,%eax
  402a4b:	eb 59                	jmp    0x402aa6
  402a4d:	6a 00                	push   $0x0
  402a4f:	8d 55 fc             	lea    -0x4(%ebp),%edx
  402a52:	52                   	push   %edx
  402a53:	8b 45 14             	mov    0x14(%ebp),%eax
  402a56:	50                   	push   %eax
  402a57:	e8 5a 56 00 00       	call   0x4080b6
  402a5c:	83 c4 04             	add    $0x4,%esp
  402a5f:	50                   	push   %eax
  402a60:	8b 4d 14             	mov    0x14(%ebp),%ecx
  402a63:	51                   	push   %ecx
  402a64:	8b 55 08             	mov    0x8(%ebp),%edx
  402a67:	52                   	push   %edx
  402a68:	ff 15 68 90 40 00    	call   *0x409068
  402a6e:	85 c0                	test   %eax,%eax
  402a70:	75 04                	jne    0x402a76
  402a72:	33 c0                	xor    %eax,%eax
  402a74:	eb 30                	jmp    0x402aa6
  402a76:	6a 00                	push   $0x0
  402a78:	8d 45 fc             	lea    -0x4(%ebp),%eax
  402a7b:	50                   	push   %eax
  402a7c:	68 94 92 40 00       	push   $0x409294
  402a81:	e8 30 56 00 00       	call   0x4080b6
  402a86:	83 c4 04             	add    $0x4,%esp
  402a89:	50                   	push   %eax
  402a8a:	68 94 92 40 00       	push   $0x409294
  402a8f:	8b 4d 08             	mov    0x8(%ebp),%ecx
  402a92:	51                   	push   %ecx
  402a93:	ff 15 68 90 40 00    	call   *0x409068
  402a99:	85 c0                	test   %eax,%eax
  402a9b:	75 04                	jne    0x402aa1
  402a9d:	33 c0                	xor    %eax,%eax
  402a9f:	eb 05                	jmp    0x402aa6
  402aa1:	b8 01 00 00 00       	mov    $0x1,%eax
  402aa6:	8b e5                	mov    %ebp,%esp
  402aa8:	5d                   	pop    %ebp
  402aa9:	c3                   	ret    
  402aaa:	cc                   	int3   
  402aab:	cc                   	int3   
  402aac:	cc                   	int3   
  402aad:	cc                   	int3   
  402aae:	cc                   	int3   
  402aaf:	cc                   	int3   
  402ab0:	55                   	push   %ebp
  402ab1:	8b ec                	mov    %esp,%ebp
  402ab3:	8b 45 08             	mov    0x8(%ebp),%eax
  402ab6:	50                   	push   %eax
  402ab7:	6a 03                	push   $0x3
  402ab9:	e8 12 03 00 00       	call   0x402dd0
  402abe:	83 c4 08             	add    $0x8,%esp
  402ac1:	5d                   	pop    %ebp
  402ac2:	c3                   	ret    
  402ac3:	cc                   	int3   
  402ac4:	cc                   	int3   
  402ac5:	cc                   	int3   
  402ac6:	cc                   	int3   
  402ac7:	cc                   	int3   
  402ac8:	cc                   	int3   
  402ac9:	cc                   	int3   
  402aca:	cc                   	int3   
  402acb:	cc                   	int3   
  402acc:	cc                   	int3   
  402acd:	cc                   	int3   
  402ace:	cc                   	int3   
  402acf:	cc                   	int3   
  402ad0:	55                   	push   %ebp
  402ad1:	8b ec                	mov    %esp,%ebp
  402ad3:	6a ff                	push   $0xffffffff
  402ad5:	68 98 92 40 00       	push   $0x409298
  402ada:	68 c0 7b 40 00       	push   $0x407bc0
  402adf:	64 a1 00 00 00 00    	mov    %fs:0x0,%eax
  402ae5:	50                   	push   %eax
  402ae6:	64 89 25 00 00 00 00 	mov    %esp,%fs:0x0
  402aed:	83 c4 cc             	add    $0xffffffcc,%esp
  402af0:	53                   	push   %ebx
  402af1:	56                   	push   %esi
  402af2:	57                   	push   %edi
  402af3:	c7 45 c4 00 01 00 00 	movl   $0x100,-0x3c(%ebp)
  402afa:	c7 45 d0 64 00 00 00 	movl   $0x64,-0x30(%ebp)
  402b01:	c7 45 dc 90 04 00 00 	movl   $0x490,-0x24(%ebp)
  402b08:	c7 45 cc 00 00 00 00 	movl   $0x0,-0x34(%ebp)
  402b0f:	c7 45 d4 00 00 00 00 	movl   $0x0,-0x2c(%ebp)
  402b16:	c7 45 d8 00 00 00 00 	movl   $0x0,-0x28(%ebp)
  402b1d:	c7 45 c8 00 00 00 00 	movl   $0x0,-0x38(%ebp)
  402b24:	c7 45 e0 00 01 00 00 	movl   $0x100,-0x20(%ebp)
  402b2b:	c7 45 e4 00 00 00 00 	movl   $0x0,-0x1c(%ebp)
  402b32:	c7 45 fc 00 00 00 00 	movl   $0x0,-0x4(%ebp)
  402b39:	68 00 01 00 00       	push   $0x100
  402b3e:	e8 85 55 00 00       	call   0x4080c8
  402b43:	83 c4 04             	add    $0x4,%esp
  402b46:	89 45 c0             	mov    %eax,-0x40(%ebp)
  402b49:	8b 45 c0             	mov    -0x40(%ebp),%eax
  402b4c:	89 45 cc             	mov    %eax,-0x34(%ebp)
  402b4f:	83 7d cc 00          	cmpl   $0x0,-0x34(%ebp)
  402b53:	75 0c                	jne    0x402b61
  402b55:	c7 45 dc 08 00 00 00 	movl   $0x8,-0x24(%ebp)
  402b5c:	e9 bd 00 00 00       	jmp    0x402c1e
  402b61:	c7 45 d8 00 00 00 00 	movl   $0x0,-0x28(%ebp)
  402b68:	eb 09                	jmp    0x402b73
  402b6a:	8b 4d d8             	mov    -0x28(%ebp),%ecx
  402b6d:	83 c1 01             	add    $0x1,%ecx
  402b70:	89 4d d8             	mov    %ecx,-0x28(%ebp)
  402b73:	83 7d d8 64          	cmpl   $0x64,-0x28(%ebp)
  402b77:	0f 83 a1 00 00 00    	jae    0x402c1e
  402b7d:	c7 45 e0 00 01 00 00 	movl   $0x100,-0x20(%ebp)
  402b84:	8b 55 d4             	mov    -0x2c(%ebp),%edx
  402b87:	52                   	push   %edx
  402b88:	6a 00                	push   $0x0
  402b8a:	6a 00                	push   $0x0
  402b8c:	6a 00                	push   $0x0
  402b8e:	8d 45 e0             	lea    -0x20(%ebp),%eax
  402b91:	50                   	push   %eax
  402b92:	8b 4d cc             	mov    -0x34(%ebp),%ecx
  402b95:	51                   	push   %ecx
  402b96:	8b 55 d8             	mov    -0x28(%ebp),%edx
  402b99:	52                   	push   %edx
  402b9a:	8b 45 08             	mov    0x8(%ebp),%eax
  402b9d:	8b 08                	mov    (%eax),%ecx
  402b9f:	51                   	push   %ecx
  402ba0:	ff 15 04 90 40 00    	call   *0x409004
  402ba6:	89 45 c8             	mov    %eax,-0x38(%ebp)
  402ba9:	81 7d c8 03 01 00 00 	cmpl   $0x103,-0x38(%ebp)
  402bb0:	75 02                	jne    0x402bb4
  402bb2:	eb 6a                	jmp    0x402c1e
  402bb4:	8b 55 e0             	mov    -0x20(%ebp),%edx
  402bb7:	52                   	push   %edx
  402bb8:	8b 45 0c             	mov    0xc(%ebp),%eax
  402bbb:	50                   	push   %eax
  402bbc:	8b 4d cc             	mov    -0x34(%ebp),%ecx
  402bbf:	51                   	push   %ecx
  402bc0:	ff 15 9c 91 40 00    	call   *0x40919c
  402bc6:	83 c4 0c             	add    $0xc,%esp
  402bc9:	85 c0                	test   %eax,%eax
  402bcb:	75 4c                	jne    0x402c19
  402bcd:	8d 55 e4             	lea    -0x1c(%ebp),%edx
  402bd0:	52                   	push   %edx
  402bd1:	68 19 00 02 00       	push   $0x20019
  402bd6:	6a 00                	push   $0x0
  402bd8:	8b 45 cc             	mov    -0x34(%ebp),%eax
  402bdb:	50                   	push   %eax
  402bdc:	8b 4d 08             	mov    0x8(%ebp),%ecx
  402bdf:	8b 11                	mov    (%ecx),%edx
  402be1:	52                   	push   %edx
  402be2:	ff 15 08 90 40 00    	call   *0x409008
  402be8:	85 c0                	test   %eax,%eax
  402bea:	74 09                	je     0x402bf5
  402bec:	c7 45 dc 05 00 00 00 	movl   $0x5,-0x24(%ebp)
  402bf3:	eb 29                	jmp    0x402c1e
  402bf5:	8b 45 08             	mov    0x8(%ebp),%eax
  402bf8:	8b 08                	mov    (%eax),%ecx
  402bfa:	51                   	push   %ecx
  402bfb:	ff 15 0c 90 40 00    	call   *0x40900c
  402c01:	8b 55 08             	mov    0x8(%ebp),%edx
  402c04:	8b 45 e4             	mov    -0x1c(%ebp),%eax
  402c07:	89 02                	mov    %eax,(%edx)
  402c09:	c7 45 e4 00 00 00 00 	movl   $0x0,-0x1c(%ebp)
  402c10:	c7 45 dc 00 00 00 00 	movl   $0x0,-0x24(%ebp)
  402c17:	eb 05                	jmp    0x402c1e
  402c19:	e9 4c ff ff ff       	jmp    0x402b6a
  402c1e:	c7 45 fc ff ff ff ff 	movl   $0xffffffff,-0x4(%ebp)
  402c25:	e8 02 00 00 00       	call   0x402c2c
  402c2a:	eb 37                	jmp    0x402c63
  402c2c:	83 7d cc 00          	cmpl   $0x0,-0x34(%ebp)
  402c30:	74 19                	je     0x402c4b
  402c32:	8b 4d cc             	mov    -0x34(%ebp),%ecx
  402c35:	89 4d bc             	mov    %ecx,-0x44(%ebp)
  402c38:	8b 55 bc             	mov    -0x44(%ebp),%edx
  402c3b:	52                   	push   %edx
  402c3c:	e8 7b 54 00 00       	call   0x4080bc
  402c41:	83 c4 04             	add    $0x4,%esp
  402c44:	c7 45 cc 00 00 00 00 	movl   $0x0,-0x34(%ebp)
  402c4b:	83 7d e4 00          	cmpl   $0x0,-0x1c(%ebp)
  402c4f:	74 11                	je     0x402c62
  402c51:	8b 45 e4             	mov    -0x1c(%ebp),%eax
  402c54:	50                   	push   %eax
  402c55:	ff 15 0c 90 40 00    	call   *0x40900c
  402c5b:	c7 45 e4 00 00 00 00 	movl   $0x0,-0x1c(%ebp)
  402c62:	c3                   	ret    
  402c63:	8b 45 dc             	mov    -0x24(%ebp),%eax
  402c66:	8b 4d f0             	mov    -0x10(%ebp),%ecx
  402c69:	64 89 0d 00 00 00 00 	mov    %ecx,%fs:0x0
  402c70:	5f                   	pop    %edi
  402c71:	5e                   	pop    %esi
  402c72:	5b                   	pop    %ebx
  402c73:	8b e5                	mov    %ebp,%esp
  402c75:	5d                   	pop    %ebp
  402c76:	c3                   	ret    
  402c77:	cc                   	int3   
  402c78:	cc                   	int3   
  402c79:	cc                   	int3   
  402c7a:	cc                   	int3   
  402c7b:	cc                   	int3   
  402c7c:	cc                   	int3   
  402c7d:	cc                   	int3   
  402c7e:	cc                   	int3   
  402c7f:	cc                   	int3   
  402c80:	55                   	push   %ebp
  402c81:	8b ec                	mov    %esp,%ebp
  402c83:	6a ff                	push   $0xffffffff
  402c85:	68 a8 92 40 00       	push   $0x4092a8
  402c8a:	68 c0 7b 40 00       	push   $0x407bc0
  402c8f:	64 a1 00 00 00 00    	mov    %fs:0x0,%eax
  402c95:	50                   	push   %eax
  402c96:	64 89 25 00 00 00 00 	mov    %esp,%fs:0x0
  402c9d:	83 c4 e4             	add    $0xffffffe4,%esp
  402ca0:	53                   	push   %ebx
  402ca1:	56                   	push   %esi
  402ca2:	57                   	push   %edi
  402ca3:	89 65 e8             	mov    %esp,-0x18(%ebp)
  402ca6:	c7 45 dc 00 00 00 00 	movl   $0x0,-0x24(%ebp)
  402cad:	c7 45 d8 00 00 00 00 	movl   $0x0,-0x28(%ebp)
  402cb4:	c7 45 e0 00 00 00 00 	movl   $0x0,-0x20(%ebp)
  402cbb:	8b 45 08             	mov    0x8(%ebp),%eax
  402cbe:	89 45 e4             	mov    %eax,-0x1c(%ebp)
  402cc1:	c7 45 d4 00 00 00 00 	movl   $0x0,-0x2c(%ebp)
  402cc8:	c7 45 fc 00 00 00 00 	movl   $0x0,-0x4(%ebp)
  402ccf:	8b 4d 10             	mov    0x10(%ebp),%ecx
  402cd2:	51                   	push   %ecx
  402cd3:	6a 00                	push   $0x0
  402cd5:	8b 55 0c             	mov    0xc(%ebp),%edx
  402cd8:	52                   	push   %edx
  402cd9:	e8 e4 53 00 00       	call   0x4080c2
  402cde:	83 c4 0c             	add    $0xc,%esp
  402ce1:	83 7d 18 00          	cmpl   $0x0,0x18(%ebp)
  402ce5:	76 47                	jbe    0x402d2e
  402ce7:	0f be 45 14          	movsbl 0x14(%ebp),%eax
  402ceb:	50                   	push   %eax
  402cec:	8b 4d 08             	mov    0x8(%ebp),%ecx
  402cef:	03 4d d8             	add    -0x28(%ebp),%ecx
  402cf2:	51                   	push   %ecx
  402cf3:	ff 15 74 91 40 00    	call   *0x409174
  402cf9:	83 c4 08             	add    $0x8,%esp
  402cfc:	89 45 e4             	mov    %eax,-0x1c(%ebp)
  402cff:	83 7d e4 00          	cmpl   $0x0,-0x1c(%ebp)
  402d03:	75 0c                	jne    0x402d11
  402d05:	c7 45 dc ff ff ff ff 	movl   $0xffffffff,-0x24(%ebp)
  402d0c:	e9 81 00 00 00       	jmp    0x402d92
  402d11:	8b 55 e4             	mov    -0x1c(%ebp),%edx
  402d14:	83 c2 01             	add    $0x1,%edx
  402d17:	89 55 e4             	mov    %edx,-0x1c(%ebp)
  402d1a:	8b 45 e4             	mov    -0x1c(%ebp),%eax
  402d1d:	2b 45 08             	sub    0x8(%ebp),%eax
  402d20:	89 45 d8             	mov    %eax,-0x28(%ebp)
  402d23:	8b 4d 18             	mov    0x18(%ebp),%ecx
  402d26:	83 e9 01             	sub    $0x1,%ecx
  402d29:	89 4d 18             	mov    %ecx,0x18(%ebp)
  402d2c:	eb b3                	jmp    0x402ce1
  402d2e:	0f be 55 14          	movsbl 0x14(%ebp),%edx
  402d32:	52                   	push   %edx
  402d33:	8b 45 e4             	mov    -0x1c(%ebp),%eax
  402d36:	50                   	push   %eax
  402d37:	ff 15 74 91 40 00    	call   *0x409174
  402d3d:	83 c4 08             	add    $0x8,%esp
  402d40:	89 45 d4             	mov    %eax,-0x2c(%ebp)
  402d43:	83 7d d4 00          	cmpl   $0x0,-0x2c(%ebp)
  402d47:	75 11                	jne    0x402d5a
  402d49:	8b 4d 08             	mov    0x8(%ebp),%ecx
  402d4c:	51                   	push   %ecx
  402d4d:	e8 64 53 00 00       	call   0x4080b6
  402d52:	83 c4 04             	add    $0x4,%esp
  402d55:	89 45 dc             	mov    %eax,-0x24(%ebp)
  402d58:	eb 09                	jmp    0x402d63
  402d5a:	8b 55 d4             	mov    -0x2c(%ebp),%edx
  402d5d:	2b 55 08             	sub    0x8(%ebp),%edx
  402d60:	89 55 dc             	mov    %edx,-0x24(%ebp)
  402d63:	8b 45 dc             	mov    -0x24(%ebp),%eax
  402d66:	2b 45 d8             	sub    -0x28(%ebp),%eax
  402d69:	89 45 e0             	mov    %eax,-0x20(%ebp)
  402d6c:	8b 4d 10             	mov    0x10(%ebp),%ecx
  402d6f:	3b 4d e0             	cmp    -0x20(%ebp),%ecx
  402d72:	73 06                	jae    0x402d7a
  402d74:	8b 55 10             	mov    0x10(%ebp),%edx
  402d77:	89 55 e0             	mov    %edx,-0x20(%ebp)
  402d7a:	8b 45 e0             	mov    -0x20(%ebp),%eax
  402d7d:	50                   	push   %eax
  402d7e:	8b 4d 08             	mov    0x8(%ebp),%ecx
  402d81:	03 4d d8             	add    -0x28(%ebp),%ecx
  402d84:	51                   	push   %ecx
  402d85:	8b 55 0c             	mov    0xc(%ebp),%edx
  402d88:	52                   	push   %edx
  402d89:	ff 15 70 91 40 00    	call   *0x409170
  402d8f:	83 c4 0c             	add    $0xc,%esp
  402d92:	c7 45 fc ff ff ff ff 	movl   $0xffffffff,-0x4(%ebp)
  402d99:	eb 17                	jmp    0x402db2
  402d9b:	b8 01 00 00 00       	mov    $0x1,%eax
  402da0:	c3                   	ret    
  402da1:	8b 65 e8             	mov    -0x18(%ebp),%esp
  402da4:	c7 45 dc ff ff ff ff 	movl   $0xffffffff,-0x24(%ebp)
  402dab:	c7 45 fc ff ff ff ff 	movl   $0xffffffff,-0x4(%ebp)
  402db2:	8b 45 dc             	mov    -0x24(%ebp),%eax
  402db5:	8b 4d f0             	mov    -0x10(%ebp),%ecx
  402db8:	64 89 0d 00 00 00 00 	mov    %ecx,%fs:0x0
  402dbf:	5f                   	pop    %edi
  402dc0:	5e                   	pop    %esi
  402dc1:	5b                   	pop    %ebx
  402dc2:	8b e5                	mov    %ebp,%esp
  402dc4:	5d                   	pop    %ebp
  402dc5:	c3                   	ret    
  402dc6:	cc                   	int3   
  402dc7:	cc                   	int3   
  402dc8:	cc                   	int3   
  402dc9:	cc                   	int3   
  402dca:	cc                   	int3   
  402dcb:	cc                   	int3   
  402dcc:	cc                   	int3   
  402dcd:	cc                   	int3   
  402dce:	cc                   	int3   
  402dcf:	cc                   	int3   
  402dd0:	55                   	push   %ebp
  402dd1:	8b ec                	mov    %esp,%ebp
  402dd3:	6a ff                	push   $0xffffffff
  402dd5:	68 d8 92 40 00       	push   $0x4092d8
  402dda:	68 c0 7b 40 00       	push   $0x407bc0
  402ddf:	64 a1 00 00 00 00    	mov    %fs:0x0,%eax
  402de5:	50                   	push   %eax
  402de6:	64 89 25 00 00 00 00 	mov    %esp,%fs:0x0
  402ded:	83 c4 a0             	add    $0xffffffa0,%esp
  402df0:	53                   	push   %ebx
  402df1:	56                   	push   %esi
  402df2:	57                   	push   %edi
  402df3:	89 65 e8             	mov    %esp,-0x18(%ebp)
  402df6:	c7 45 c0 00 00 00 00 	movl   $0x0,-0x40(%ebp)
  402dfd:	c7 45 b4 00 00 00 00 	movl   $0x0,-0x4c(%ebp)
  402e04:	c7 45 cc 00 00 00 00 	movl   $0x0,-0x34(%ebp)
  402e0b:	c7 45 d0 00 00 00 00 	movl   $0x0,-0x30(%ebp)
  402e12:	c7 45 dc 00 00 00 00 	movl   $0x0,-0x24(%ebp)
  402e19:	c7 45 d4 00 00 00 00 	movl   $0x0,-0x2c(%ebp)
  402e20:	c7 45 d8 00 00 00 00 	movl   $0x0,-0x28(%ebp)
  402e27:	c7 45 e0 00 00 00 00 	movl   $0x0,-0x20(%ebp)
  402e2e:	c7 45 e4 00 00 00 00 	movl   $0x0,-0x1c(%ebp)
  402e35:	c7 45 b8 00 00 00 00 	movl   $0x0,-0x48(%ebp)
  402e3c:	c7 45 a4 00 00 00 00 	movl   $0x0,-0x5c(%ebp)
  402e43:	c7 45 c4 00 00 00 00 	movl   $0x0,-0x3c(%ebp)
  402e4a:	c7 45 c8 00 00 00 00 	movl   $0x0,-0x38(%ebp)
  402e51:	c7 45 bc 00 00 00 00 	movl   $0x0,-0x44(%ebp)
  402e58:	c6 45 a8 6f          	movb   $0x6f,-0x58(%ebp)
  402e5c:	c6 45 a9 53          	movb   $0x53,-0x57(%ebp)
  402e60:	c6 45 aa 5a          	movb   $0x5a,-0x56(%ebp)
  402e64:	c6 45 ab 48          	movb   $0x48,-0x55(%ebp)
  402e68:	c6 45 ac 4b          	movb   $0x4b,-0x54(%ebp)
  402e6c:	c6 45 ad 5d          	movb   $0x5d,-0x53(%ebp)
  402e70:	c6 45 ae 4e          	movb   $0x4e,-0x52(%ebp)
  402e74:	c6 45 af 59          	movb   $0x59,-0x51(%ebp)
  402e78:	c6 45 b0 00          	movb   $0x0,-0x50(%ebp)
  402e7c:	c7 45 fc 00 00 00 00 	movl   $0x0,-0x4(%ebp)
  402e83:	c7 45 fc 01 00 00 00 	movl   $0x1,-0x4(%ebp)
  402e8a:	8d 45 a8             	lea    -0x58(%ebp),%eax
  402e8d:	50                   	push   %eax
  402e8e:	e8 dd e1 ff ff       	call   0x401070
  402e93:	83 c4 04             	add    $0x4,%esp
  402e96:	83 7d 08 01          	cmpl   $0x1,0x8(%ebp)
  402e9a:	75 09                	jne    0x402ea5
  402e9c:	c7 45 90 c4 92 40 00 	movl   $0x4092c4,-0x70(%ebp)
  402ea3:	eb 07                	jmp    0x402eac
  402ea5:	c7 45 90 b4 92 40 00 	movl   $0x4092b4,-0x70(%ebp)
  402eac:	68 05 01 00 00       	push   $0x105
  402eb1:	6a 40                	push   $0x40
  402eb3:	ff 15 58 90 40 00    	call   *0x409058
  402eb9:	89 45 b4             	mov    %eax,-0x4c(%ebp)
  402ebc:	68 05 01 00 00       	push   $0x105
  402ec1:	6a 40                	push   $0x40
  402ec3:	ff 15 58 90 40 00    	call   *0x409058
  402ec9:	89 45 d4             	mov    %eax,-0x2c(%ebp)
  402ecc:	68 05 01 00 00       	push   $0x105
  402ed1:	6a 40                	push   $0x40
  402ed3:	ff 15 58 90 40 00    	call   *0x409058
  402ed9:	89 45 d8             	mov    %eax,-0x28(%ebp)
  402edc:	68 05 01 00 00       	push   $0x105
  402ee1:	6a 40                	push   $0x40
  402ee3:	ff 15 58 90 40 00    	call   *0x409058
  402ee9:	89 45 e0             	mov    %eax,-0x20(%ebp)
  402eec:	83 7d b4 00          	cmpl   $0x0,-0x4c(%ebp)
  402ef0:	74 12                	je     0x402f04
  402ef2:	83 7d d4 00          	cmpl   $0x0,-0x2c(%ebp)
  402ef6:	74 0c                	je     0x402f04
  402ef8:	83 7d d8 00          	cmpl   $0x0,-0x28(%ebp)
  402efc:	74 06                	je     0x402f04
  402efe:	83 7d e0 00          	cmpl   $0x0,-0x20(%ebp)
  402f02:	75 0c                	jne    0x402f10
  402f04:	c7 45 c0 00 70 00 00 	movl   $0x7000,-0x40(%ebp)
  402f0b:	e9 87 02 00 00       	jmp    0x403197
  402f10:	6a 01                	push   $0x1
  402f12:	8b 4d 0c             	mov    0xc(%ebp),%ecx
  402f15:	51                   	push   %ecx
  402f16:	8d 55 d0             	lea    -0x30(%ebp),%edx
  402f19:	52                   	push   %edx
  402f1a:	6a 05                	push   $0x5
  402f1c:	e8 8f 03 00 00       	call   0x4032b0
  402f21:	83 c4 10             	add    $0x10,%esp
  402f24:	89 45 cc             	mov    %eax,-0x34(%ebp)
  402f27:	83 7d cc ff          	cmpl   $0xffffffff,-0x34(%ebp)
  402f2b:	75 13                	jne    0x402f40
  402f2d:	c7 45 e4 83 00 00 00 	movl   $0x83,-0x1c(%ebp)
  402f34:	c7 45 c0 00 70 00 00 	movl   $0x7000,-0x40(%ebp)
  402f3b:	e9 57 02 00 00       	jmp    0x403197
  402f40:	8b 45 e4             	mov    -0x1c(%ebp),%eax
  402f43:	50                   	push   %eax
  402f44:	6a 0a                	push   $0xa
  402f46:	68 04 01 00 00       	push   $0x104
  402f4b:	8b 4d d4             	mov    -0x2c(%ebp),%ecx
  402f4e:	51                   	push   %ecx
  402f4f:	8b 55 d0             	mov    -0x30(%ebp),%edx
  402f52:	52                   	push   %edx
  402f53:	e8 28 fd ff ff       	call   0x402c80
  402f58:	83 c4 14             	add    $0x14,%esp
  402f5b:	85 c0                	test   %eax,%eax
  402f5d:	0f 8e 34 02 00 00    	jle    0x403197
  402f63:	8b 45 e4             	mov    -0x1c(%ebp),%eax
  402f66:	83 c0 01             	add    $0x1,%eax
  402f69:	89 45 e4             	mov    %eax,-0x1c(%ebp)
  402f6c:	8b 4d d4             	mov    -0x2c(%ebp),%ecx
  402f6f:	0f be 11             	movsbl (%ecx),%edx
  402f72:	83 ea 30             	sub    $0x30,%edx
  402f75:	89 55 c8             	mov    %edx,-0x38(%ebp)
  402f78:	8b 45 c8             	mov    -0x38(%ebp),%eax
  402f7b:	23 45 08             	and    0x8(%ebp),%eax
  402f7e:	75 02                	jne    0x402f82
  402f80:	eb be                	jmp    0x402f40
  402f82:	83 7d dc 00          	cmpl   $0x0,-0x24(%ebp)
  402f86:	74 11                	je     0x402f99
  402f88:	8b 4d dc             	mov    -0x24(%ebp),%ecx
  402f8b:	51                   	push   %ecx
  402f8c:	ff 15 0c 90 40 00    	call   *0x40900c
  402f92:	c7 45 dc 00 00 00 00 	movl   $0x0,-0x24(%ebp)
  402f99:	8d 55 dc             	lea    -0x24(%ebp),%edx
  402f9c:	52                   	push   %edx
  402f9d:	68 19 00 02 00       	push   $0x20019
  402fa2:	6a 00                	push   $0x0
  402fa4:	8d 45 a8             	lea    -0x58(%ebp),%eax
  402fa7:	50                   	push   %eax
  402fa8:	68 02 00 00 80       	push   $0x80000002
  402fad:	ff 15 08 90 40 00    	call   *0x409008
  402fb3:	85 c0                	test   %eax,%eax
  402fb5:	74 13                	je     0x402fca
  402fb7:	c7 45 c0 03 70 00 00 	movl   $0x7003,-0x40(%ebp)
  402fbe:	c7 45 e4 81 00 00 00 	movl   $0x81,-0x1c(%ebp)
  402fc5:	e9 cd 01 00 00       	jmp    0x403197
  402fca:	c7 45 b8 00 00 00 00 	movl   $0x0,-0x48(%ebp)
  402fd1:	8b 4d b8             	mov    -0x48(%ebp),%ecx
  402fd4:	51                   	push   %ecx
  402fd5:	6a 5c                	push   $0x5c
  402fd7:	68 04 01 00 00       	push   $0x104
  402fdc:	8b 55 d8             	mov    -0x28(%ebp),%edx
  402fdf:	52                   	push   %edx
  402fe0:	8b 45 d4             	mov    -0x2c(%ebp),%eax
  402fe3:	83 c0 01             	add    $0x1,%eax
  402fe6:	50                   	push   %eax
  402fe7:	e8 94 fc ff ff       	call   0x402c80
  402fec:	83 c4 14             	add    $0x14,%esp
  402fef:	89 45 a4             	mov    %eax,-0x5c(%ebp)
  402ff2:	83 7d a4 00          	cmpl   $0x0,-0x5c(%ebp)
  402ff6:	0f 86 96 01 00 00    	jbe    0x403192
  402ffc:	8b 4d b8             	mov    -0x48(%ebp),%ecx
  402fff:	83 c1 01             	add    $0x1,%ecx
  403002:	89 4d b8             	mov    %ecx,-0x48(%ebp)
  403005:	8b 55 d8             	mov    -0x28(%ebp),%edx
  403008:	52                   	push   %edx
  403009:	8d 45 dc             	lea    -0x24(%ebp),%eax
  40300c:	50                   	push   %eax
  40300d:	e8 be fa ff ff       	call   0x402ad0
  403012:	83 c4 08             	add    $0x8,%esp
  403015:	89 45 bc             	mov    %eax,-0x44(%ebp)
  403018:	81 7d bc 90 04 00 00 	cmpl   $0x490,-0x44(%ebp)
  40301f:	75 05                	jne    0x403026
  403021:	e9 6c 01 00 00       	jmp    0x403192
  403026:	83 7d bc 00          	cmpl   $0x0,-0x44(%ebp)
  40302a:	0f 85 4d 01 00 00    	jne    0x40317d
  403030:	6a 5c                	push   $0x5c
  403032:	8b 4d a4             	mov    -0x5c(%ebp),%ecx
  403035:	8b 55 d4             	mov    -0x2c(%ebp),%edx
  403038:	8d 44 0a 02          	lea    0x2(%edx,%ecx,1),%eax
  40303c:	50                   	push   %eax
  40303d:	ff 15 74 91 40 00    	call   *0x409174
  403043:	83 c4 08             	add    $0x8,%esp
  403046:	85 c0                	test   %eax,%eax
  403048:	0f 85 2d 01 00 00    	jne    0x40317b
  40304e:	6a 3d                	push   $0x3d
  403050:	8b 4d d4             	mov    -0x2c(%ebp),%ecx
  403053:	83 c1 01             	add    $0x1,%ecx
  403056:	51                   	push   %ecx
  403057:	ff 15 74 91 40 00    	call   *0x409174
  40305d:	83 c4 08             	add    $0x8,%esp
  403060:	85 c0                	test   %eax,%eax
  403062:	75 0c                	jne    0x403070
  403064:	c7 45 c0 03 70 00 00 	movl   $0x7003,-0x40(%ebp)
  40306b:	e9 27 01 00 00       	jmp    0x403197
  403070:	6a 00                	push   $0x0
  403072:	6a 3d                	push   $0x3d
  403074:	68 04 01 00 00       	push   $0x104
  403079:	8b 55 e0             	mov    -0x20(%ebp),%edx
  40307c:	52                   	push   %edx
  40307d:	8b 45 a4             	mov    -0x5c(%ebp),%eax
  403080:	8b 4d d4             	mov    -0x2c(%ebp),%ecx
  403083:	8d 54 01 02          	lea    0x2(%ecx,%eax,1),%edx
  403087:	52                   	push   %edx
  403088:	e8 f3 fb ff ff       	call   0x402c80
  40308d:	83 c4 14             	add    $0x14,%esp
  403090:	6a 3d                	push   $0x3d
  403092:	8b 45 d4             	mov    -0x2c(%ebp),%eax
  403095:	83 c0 01             	add    $0x1,%eax
  403098:	50                   	push   %eax
  403099:	ff 15 74 91 40 00    	call   *0x409174
  40309f:	83 c4 08             	add    $0x8,%esp
  4030a2:	2b 45 d4             	sub    -0x2c(%ebp),%eax
  4030a5:	83 c0 01             	add    $0x1,%eax
  4030a8:	89 45 c4             	mov    %eax,-0x3c(%ebp)
  4030ab:	8b 4d d4             	mov    -0x2c(%ebp),%ecx
  4030ae:	03 4d c4             	add    -0x3c(%ebp),%ecx
  4030b1:	0f be 11             	movsbl (%ecx),%edx
  4030b4:	83 fa 3d             	cmp    $0x3d,%edx
  4030b7:	74 39                	je     0x4030f2
  4030b9:	8b 45 d4             	mov    -0x2c(%ebp),%eax
  4030bc:	03 45 c4             	add    -0x3c(%ebp),%eax
  4030bf:	0f be 08             	movsbl (%eax),%ecx
  4030c2:	83 f9 21             	cmp    $0x21,%ecx
  4030c5:	74 2b                	je     0x4030f2
  4030c7:	6a 00                	push   $0x0
  4030c9:	6a 00                	push   $0x0
  4030cb:	6a 00                	push   $0x0
  4030cd:	6a 00                	push   $0x0
  4030cf:	8b 55 e0             	mov    -0x20(%ebp),%edx
  4030d2:	52                   	push   %edx
  4030d3:	8b 45 dc             	mov    -0x24(%ebp),%eax
  4030d6:	50                   	push   %eax
  4030d7:	ff 15 00 90 40 00    	call   *0x409000
  4030dd:	85 c0                	test   %eax,%eax
  4030df:	75 0c                	jne    0x4030ed
  4030e1:	c7 45 c0 03 70 00 00 	movl   $0x7003,-0x40(%ebp)
  4030e8:	e9 aa 00 00 00       	jmp    0x403197
  4030ed:	e9 87 00 00 00       	jmp    0x403179
  4030f2:	8b 4d c4             	mov    -0x3c(%ebp),%ecx
  4030f5:	8b 55 d4             	mov    -0x2c(%ebp),%edx
  4030f8:	8d 44 0a 01          	lea    0x1(%edx,%ecx,1),%eax
  4030fc:	50                   	push   %eax
  4030fd:	ff 15 78 91 40 00    	call   *0x409178
  403103:	83 c4 04             	add    $0x4,%esp
  403106:	89 45 a0             	mov    %eax,-0x60(%ebp)
  403109:	c7 45 94 00 00 00 00 	movl   $0x0,-0x6c(%ebp)
  403110:	c7 45 9c 04 00 00 00 	movl   $0x4,-0x64(%ebp)
  403117:	c7 45 98 04 00 00 00 	movl   $0x4,-0x68(%ebp)
  40311e:	8d 4d 98             	lea    -0x68(%ebp),%ecx
  403121:	51                   	push   %ecx
  403122:	8d 55 94             	lea    -0x6c(%ebp),%edx
  403125:	52                   	push   %edx
  403126:	8d 45 9c             	lea    -0x64(%ebp),%eax
  403129:	50                   	push   %eax
  40312a:	6a 00                	push   $0x0
  40312c:	8b 4d e0             	mov    -0x20(%ebp),%ecx
  40312f:	51                   	push   %ecx
  403130:	8b 55 dc             	mov    -0x24(%ebp),%edx
  403133:	52                   	push   %edx
  403134:	ff 15 00 90 40 00    	call   *0x409000
  40313a:	85 c0                	test   %eax,%eax
  40313c:	75 3b                	jne    0x403179
  40313e:	83 7d 9c 04          	cmpl   $0x4,-0x64(%ebp)
  403142:	75 35                	jne    0x403179
  403144:	8b 45 d4             	mov    -0x2c(%ebp),%eax
  403147:	03 45 c4             	add    -0x3c(%ebp),%eax
  40314a:	0f be 08             	movsbl (%eax),%ecx
  40314d:	83 f9 3d             	cmp    $0x3d,%ecx
  403150:	75 08                	jne    0x40315a
  403152:	8b 55 94             	mov    -0x6c(%ebp),%edx
  403155:	3b 55 a0             	cmp    -0x60(%ebp),%edx
  403158:	74 16                	je     0x403170
  40315a:	8b 45 d4             	mov    -0x2c(%ebp),%eax
  40315d:	03 45 c4             	add    -0x3c(%ebp),%eax
  403160:	0f be 08             	movsbl (%eax),%ecx
  403163:	83 f9 21             	cmp    $0x21,%ecx
  403166:	75 11                	jne    0x403179
  403168:	8b 55 94             	mov    -0x6c(%ebp),%edx
  40316b:	3b 55 a0             	cmp    -0x60(%ebp),%edx
  40316e:	74 09                	je     0x403179
  403170:	c7 45 c0 03 70 00 00 	movl   $0x7003,-0x40(%ebp)
  403177:	eb 1e                	jmp    0x403197
  403179:	eb 17                	jmp    0x403192
  40317b:	eb 10                	jmp    0x40318d
  40317d:	c7 45 c0 03 70 00 00 	movl   $0x7003,-0x40(%ebp)
  403184:	c7 45 e4 82 00 00 00 	movl   $0x82,-0x1c(%ebp)
  40318b:	eb 0a                	jmp    0x403197
  40318d:	e9 3f fe ff ff       	jmp    0x402fd1
  403192:	e9 a9 fd ff ff       	jmp    0x402f40
  403197:	c7 45 fc 00 00 00 00 	movl   $0x0,-0x4(%ebp)
  40319e:	e8 05 00 00 00       	call   0x4031a8
  4031a3:	e9 8b 00 00 00       	jmp    0x403233
  4031a8:	83 7d b4 00          	cmpl   $0x0,-0x4c(%ebp)
  4031ac:	74 11                	je     0x4031bf
  4031ae:	8b 45 b4             	mov    -0x4c(%ebp),%eax
  4031b1:	50                   	push   %eax
  4031b2:	ff 15 f8 90 40 00    	call   *0x4090f8
  4031b8:	c7 45 b4 00 00 00 00 	movl   $0x0,-0x4c(%ebp)
  4031bf:	83 7d d0 00          	cmpl   $0x0,-0x30(%ebp)
  4031c3:	74 11                	je     0x4031d6
  4031c5:	8b 4d d0             	mov    -0x30(%ebp),%ecx
  4031c8:	51                   	push   %ecx
  4031c9:	ff 15 f8 90 40 00    	call   *0x4090f8
  4031cf:	c7 45 d0 00 00 00 00 	movl   $0x0,-0x30(%ebp)
  4031d6:	83 7d d4 00          	cmpl   $0x0,-0x2c(%ebp)
  4031da:	74 11                	je     0x4031ed
  4031dc:	8b 55 d4             	mov    -0x2c(%ebp),%edx
  4031df:	52                   	push   %edx
  4031e0:	ff 15 f8 90 40 00    	call   *0x4090f8
  4031e6:	c7 45 d4 00 00 00 00 	movl   $0x0,-0x2c(%ebp)
  4031ed:	83 7d d8 00          	cmpl   $0x0,-0x28(%ebp)
  4031f1:	74 11                	je     0x403204
  4031f3:	8b 45 d8             	mov    -0x28(%ebp),%eax
  4031f6:	50                   	push   %eax
  4031f7:	ff 15 f8 90 40 00    	call   *0x4090f8
  4031fd:	c7 45 d8 00 00 00 00 	movl   $0x0,-0x28(%ebp)
  403204:	83 7d e0 00          	cmpl   $0x0,-0x20(%ebp)
  403208:	74 11                	je     0x40321b
  40320a:	8b 4d e0             	mov    -0x20(%ebp),%ecx
  40320d:	51                   	push   %ecx
  40320e:	ff 15 f8 90 40 00    	call   *0x4090f8
  403214:	c7 45 e0 00 00 00 00 	movl   $0x0,-0x20(%ebp)
  40321b:	83 7d dc 00          	cmpl   $0x0,-0x24(%ebp)
  40321f:	74 11                	je     0x403232
  403221:	8b 55 dc             	mov    -0x24(%ebp),%edx
  403224:	52                   	push   %edx
  403225:	ff 15 0c 90 40 00    	call   *0x40900c
  40322b:	c7 45 dc 00 00 00 00 	movl   $0x0,-0x24(%ebp)
  403232:	c3                   	ret    
  403233:	c7 45 fc ff ff ff ff 	movl   $0xffffffff,-0x4(%ebp)
  40323a:	eb 1e                	jmp    0x40325a
  40323c:	b8 01 00 00 00       	mov    $0x1,%eax
  403241:	c3                   	ret    
  403242:	8b 65 e8             	mov    -0x18(%ebp),%esp
  403245:	c7 45 c0 03 70 00 00 	movl   $0x7003,-0x40(%ebp)
  40324c:	c7 45 e4 82 00 00 00 	movl   $0x82,-0x1c(%ebp)
  403253:	c7 45 fc ff ff ff ff 	movl   $0xffffffff,-0x4(%ebp)
  40325a:	8b 45 c0             	mov    -0x40(%ebp),%eax
  40325d:	8b 4d f0             	mov    -0x10(%ebp),%ecx
  403260:	64 89 0d 00 00 00 00 	mov    %ecx,%fs:0x0
  403267:	5f                   	pop    %edi
  403268:	5e                   	pop    %esi
  403269:	5b                   	pop    %ebx
  40326a:	8b e5                	mov    %ebp,%esp
  40326c:	5d                   	pop    %ebp
  40326d:	c3                   	ret    
  40326e:	cc                   	int3   
  40326f:	cc                   	int3   
  403270:	55                   	push   %ebp
  403271:	8b ec                	mov    %esp,%ebp
  403273:	c7 05 20 b1 40 00 94 	movl   $0x94,0x40b120
  40327a:	00 00 00 
  40327d:	68 20 b1 40 00       	push   $0x40b120
  403282:	ff 15 04 91 40 00    	call   *0x409104
  403288:	85 c0                	test   %eax,%eax
  40328a:	74 11                	je     0x40329d
  40328c:	83 3d 30 b1 40 00 01 	cmpl   $0x1,0x40b130
  403293:	75 04                	jne    0x403299
  403295:	b0 01                	mov    $0x1,%al
  403297:	eb 06                	jmp    0x40329f
  403299:	32 c0                	xor    %al,%al
  40329b:	eb 02                	jmp    0x40329f
  40329d:	b0 01                	mov    $0x1,%al
  40329f:	5d                   	pop    %ebp
  4032a0:	c3                   	ret    
  4032a1:	cc                   	int3   
  4032a2:	cc                   	int3   
  4032a3:	cc                   	int3   
  4032a4:	cc                   	int3   
  4032a5:	cc                   	int3   
  4032a6:	cc                   	int3   
  4032a7:	cc                   	int3   
  4032a8:	cc                   	int3   
  4032a9:	cc                   	int3   
  4032aa:	cc                   	int3   
  4032ab:	cc                   	int3   
  4032ac:	cc                   	int3   
  4032ad:	cc                   	int3   
  4032ae:	cc                   	int3   
  4032af:	cc                   	int3   
  4032b0:	55                   	push   %ebp
  4032b1:	8b ec                	mov    %esp,%ebp
  4032b3:	6a ff                	push   $0xffffffff
  4032b5:	68 f8 92 40 00       	push   $0x4092f8
  4032ba:	68 c0 7b 40 00       	push   $0x407bc0
  4032bf:	64 a1 00 00 00 00    	mov    %fs:0x0,%eax
  4032c5:	50                   	push   %eax
  4032c6:	64 89 25 00 00 00 00 	mov    %esp,%fs:0x0
  4032cd:	83 c4 d8             	add    $0xffffffd8,%esp
  4032d0:	53                   	push   %ebx
  4032d1:	56                   	push   %esi
  4032d2:	57                   	push   %edi
  4032d3:	89 65 e8             	mov    %esp,-0x18(%ebp)
  4032d6:	c7 45 d8 ff ff ff ff 	movl   $0xffffffff,-0x28(%ebp)
  4032dd:	c7 45 dc 00 00 00 00 	movl   $0x0,-0x24(%ebp)
  4032e4:	c7 45 fc 00 00 00 00 	movl   $0x0,-0x4(%ebp)
  4032eb:	c7 45 fc 01 00 00 00 	movl   $0x1,-0x4(%ebp)
  4032f2:	68 f0 92 40 00       	push   $0x4092f0
  4032f7:	0f b7 45 08          	movzwl 0x8(%ebp),%eax
  4032fb:	50                   	push   %eax
  4032fc:	8b 4d 10             	mov    0x10(%ebp),%ecx
  4032ff:	51                   	push   %ecx
  403300:	ff 15 8c 90 40 00    	call   *0x40908c
  403306:	89 45 d0             	mov    %eax,-0x30(%ebp)
  403309:	83 7d d0 00          	cmpl   $0x0,-0x30(%ebp)
  40330d:	75 05                	jne    0x403314
  40330f:	e9 29 01 00 00       	jmp    0x40343d
  403314:	8b 55 d0             	mov    -0x30(%ebp),%edx
  403317:	52                   	push   %edx
  403318:	8b 45 10             	mov    0x10(%ebp),%eax
  40331b:	50                   	push   %eax
  40331c:	ff 15 88 90 40 00    	call   *0x409088
  403322:	89 45 d4             	mov    %eax,-0x2c(%ebp)
  403325:	8b 4d d0             	mov    -0x30(%ebp),%ecx
  403328:	51                   	push   %ecx
  403329:	8b 55 10             	mov    0x10(%ebp),%edx
  40332c:	52                   	push   %edx
  40332d:	ff 15 84 90 40 00    	call   *0x409084
  403333:	89 45 cc             	mov    %eax,-0x34(%ebp)
  403336:	83 7d cc 00          	cmpl   $0x0,-0x34(%ebp)
  40333a:	75 05                	jne    0x403341
  40333c:	e9 fc 00 00 00       	jmp    0x40343d
  403341:	8b 45 cc             	mov    -0x34(%ebp),%eax
  403344:	50                   	push   %eax
  403345:	ff 15 80 90 40 00    	call   *0x409080
  40334b:	89 45 e0             	mov    %eax,-0x20(%ebp)
  40334e:	83 7d e0 00          	cmpl   $0x0,-0x20(%ebp)
  403352:	75 05                	jne    0x403359
  403354:	e9 e4 00 00 00       	jmp    0x40343d
  403359:	83 7d 14 01          	cmpl   $0x1,0x14(%ebp)
  40335d:	75 68                	jne    0x4033c7
  40335f:	8b 4d d4             	mov    -0x2c(%ebp),%ecx
  403362:	51                   	push   %ecx
  403363:	8b 55 e0             	mov    -0x20(%ebp),%edx
  403366:	52                   	push   %edx
  403367:	e8 84 05 00 00       	call   0x4038f0
  40336c:	83 c4 08             	add    $0x8,%esp
  40336f:	89 45 c8             	mov    %eax,-0x38(%ebp)
  403372:	83 7d c8 00          	cmpl   $0x0,-0x38(%ebp)
  403376:	75 05                	jne    0x40337d
  403378:	e9 c0 00 00 00       	jmp    0x40343d
  40337d:	8b 45 c8             	mov    -0x38(%ebp),%eax
  403380:	83 c0 01             	add    $0x1,%eax
  403383:	50                   	push   %eax
  403384:	6a 40                	push   $0x40
  403386:	ff 15 58 90 40 00    	call   *0x409058
  40338c:	8b 4d 0c             	mov    0xc(%ebp),%ecx
  40338f:	89 01                	mov    %eax,(%ecx)
  403391:	8b 55 0c             	mov    0xc(%ebp),%edx
  403394:	83 3a 00             	cmpl   $0x0,(%edx)
  403397:	75 05                	jne    0x40339e
  403399:	e9 9f 00 00 00       	jmp    0x40343d
  40339e:	8b 45 c8             	mov    -0x38(%ebp),%eax
  4033a1:	50                   	push   %eax
  4033a2:	8b 4d 0c             	mov    0xc(%ebp),%ecx
  4033a5:	8b 11                	mov    (%ecx),%edx
  4033a7:	52                   	push   %edx
  4033a8:	8b 45 d4             	mov    -0x2c(%ebp),%eax
  4033ab:	50                   	push   %eax
  4033ac:	8b 4d e0             	mov    -0x20(%ebp),%ecx
  4033af:	51                   	push   %ecx
  4033b0:	e8 9b 04 00 00       	call   0x403850
  4033b5:	83 c4 10             	add    $0x10,%esp
  4033b8:	89 45 dc             	mov    %eax,-0x24(%ebp)
  4033bb:	8b 55 dc             	mov    -0x24(%ebp),%edx
  4033be:	3b 55 c8             	cmp    -0x38(%ebp),%edx
  4033c1:	74 02                	je     0x4033c5
  4033c3:	eb 78                	jmp    0x40343d
  4033c5:	eb 3a                	jmp    0x403401
  4033c7:	8b 45 d4             	mov    -0x2c(%ebp),%eax
  4033ca:	83 c0 01             	add    $0x1,%eax
  4033cd:	50                   	push   %eax
  4033ce:	6a 40                	push   $0x40
  4033d0:	ff 15 58 90 40 00    	call   *0x409058
  4033d6:	8b 4d 0c             	mov    0xc(%ebp),%ecx
  4033d9:	89 01                	mov    %eax,(%ecx)
  4033db:	8b 55 0c             	mov    0xc(%ebp),%edx
  4033de:	83 3a 00             	cmpl   $0x0,(%edx)
  4033e1:	75 02                	jne    0x4033e5
  4033e3:	eb 58                	jmp    0x40343d
  4033e5:	8b 45 d4             	mov    -0x2c(%ebp),%eax
  4033e8:	89 45 dc             	mov    %eax,-0x24(%ebp)
  4033eb:	8b 4d d4             	mov    -0x2c(%ebp),%ecx
  4033ee:	51                   	push   %ecx
  4033ef:	8b 55 e0             	mov    -0x20(%ebp),%edx
  4033f2:	52                   	push   %edx
  4033f3:	8b 45 0c             	mov    0xc(%ebp),%eax
  4033f6:	8b 08                	mov    (%eax),%ecx
  4033f8:	51                   	push   %ecx
  4033f9:	e8 d2 4c 00 00       	call   0x4080d0
  4033fe:	83 c4 0c             	add    $0xc,%esp
  403401:	8b 55 dc             	mov    -0x24(%ebp),%edx
  403404:	89 55 d8             	mov    %edx,-0x28(%ebp)
  403407:	c7 45 e4 00 00 00 00 	movl   $0x0,-0x1c(%ebp)
  40340e:	eb 09                	jmp    0x403419
  403410:	8b 45 e4             	mov    -0x1c(%ebp),%eax
  403413:	83 c0 01             	add    $0x1,%eax
  403416:	89 45 e4             	mov    %eax,-0x1c(%ebp)
  403419:	8b 4d e4             	mov    -0x1c(%ebp),%ecx
  40341c:	3b 4d dc             	cmp    -0x24(%ebp),%ecx
  40341f:	73 1c                	jae    0x40343d
  403421:	8b 55 0c             	mov    0xc(%ebp),%edx
  403424:	8b 02                	mov    (%edx),%eax
  403426:	8b 4d e4             	mov    -0x1c(%ebp),%ecx
  403429:	0f b6 14 08          	movzbl (%eax,%ecx,1),%edx
  40342d:	83 f2 79             	xor    $0x79,%edx
  403430:	8b 45 0c             	mov    0xc(%ebp),%eax
  403433:	8b 08                	mov    (%eax),%ecx
  403435:	8b 45 e4             	mov    -0x1c(%ebp),%eax
  403438:	88 14 01             	mov    %dl,(%ecx,%eax,1)
  40343b:	eb d3                	jmp    0x403410
  40343d:	c7 45 fc 00 00 00 00 	movl   $0x0,-0x4(%ebp)
  403444:	e8 02 00 00 00       	call   0x40344b
  403449:	eb 01                	jmp    0x40344c
  40344b:	c3                   	ret    
  40344c:	c7 45 fc ff ff ff ff 	movl   $0xffffffff,-0x4(%ebp)
  403453:	eb 10                	jmp    0x403465
  403455:	b8 01 00 00 00       	mov    $0x1,%eax
  40345a:	c3                   	ret    
  40345b:	8b 65 e8             	mov    -0x18(%ebp),%esp
  40345e:	c7 45 fc ff ff ff ff 	movl   $0xffffffff,-0x4(%ebp)
  403465:	8b 45 d8             	mov    -0x28(%ebp),%eax
  403468:	8b 4d f0             	mov    -0x10(%ebp),%ecx
  40346b:	64 89 0d 00 00 00 00 	mov    %ecx,%fs:0x0
  403472:	5f                   	pop    %edi
  403473:	5e                   	pop    %esi
  403474:	5b                   	pop    %ebx
  403475:	8b e5                	mov    %ebp,%esp
  403477:	5d                   	pop    %ebp
  403478:	c3                   	ret    
  403479:	cc                   	int3   
  40347a:	cc                   	int3   
  40347b:	cc                   	int3   
  40347c:	cc                   	int3   
  40347d:	cc                   	int3   
  40347e:	cc                   	int3   
  40347f:	cc                   	int3   
  403480:	55                   	push   %ebp
  403481:	8b ec                	mov    %esp,%ebp
  403483:	6a ff                	push   $0xffffffff
  403485:	68 18 93 40 00       	push   $0x409318
  40348a:	68 c0 7b 40 00       	push   $0x407bc0
  40348f:	64 a1 00 00 00 00    	mov    %fs:0x0,%eax
  403495:	50                   	push   %eax
  403496:	64 89 25 00 00 00 00 	mov    %esp,%fs:0x0
  40349d:	81 c4 b0 fd ff ff    	add    $0xfffffdb0,%esp
  4034a3:	53                   	push   %ebx
  4034a4:	56                   	push   %esi
  4034a5:	57                   	push   %edi
  4034a6:	89 65 e8             	mov    %esp,-0x18(%ebp)
  4034a9:	c7 85 a4 fd ff ff 00 	movl   $0x0,-0x25c(%ebp)
  4034b0:	00 00 00 
  4034b3:	c7 85 a8 fd ff ff ff 	movl   $0xffffffff,-0x258(%ebp)
  4034ba:	ff ff ff 
  4034bd:	c7 45 e4 00 00 00 00 	movl   $0x0,-0x1c(%ebp)
  4034c4:	c7 85 ac fd ff ff 00 	movl   $0x0,-0x254(%ebp)
  4034cb:	00 00 00 
  4034ce:	c6 85 b8 fe ff ff 2a 	movb   $0x2a,-0x148(%ebp)
  4034d5:	c6 85 b9 fe ff ff 2e 	movb   $0x2e,-0x147(%ebp)
  4034dc:	c6 85 ba fe ff ff 64 	movb   $0x64,-0x146(%ebp)
  4034e3:	c6 85 bb fe ff ff 6c 	movb   $0x6c,-0x145(%ebp)
  4034ea:	c6 85 bc fe ff ff 6c 	movb   $0x6c,-0x144(%ebp)
  4034f1:	c6 85 bd fe ff ff 00 	movb   $0x0,-0x143(%ebp)
  4034f8:	c7 45 fc 00 00 00 00 	movl   $0x0,-0x4(%ebp)
  4034ff:	c7 45 fc 01 00 00 00 	movl   $0x1,-0x4(%ebp)
  403506:	8b 45 18             	mov    0x18(%ebp),%eax
  403509:	50                   	push   %eax
  40350a:	8b 4d 14             	mov    0x14(%ebp),%ecx
  40350d:	51                   	push   %ecx
  40350e:	8d 55 e4             	lea    -0x1c(%ebp),%edx
  403511:	52                   	push   %edx
  403512:	8b 45 10             	mov    0x10(%ebp),%eax
  403515:	50                   	push   %eax
  403516:	e8 95 fd ff ff       	call   0x4032b0
  40351b:	83 c4 10             	add    $0x10,%esp
  40351e:	89 85 ac fd ff ff    	mov    %eax,-0x254(%ebp)
  403524:	83 bd ac fd ff ff ff 	cmpl   $0xffffffff,-0x254(%ebp)
  40352b:	75 0f                	jne    0x40353c
  40352d:	c7 85 a4 fd ff ff ff 	movl   $0xffffffff,-0x25c(%ebp)
  403534:	ff ff ff 
  403537:	e9 29 01 00 00       	jmp    0x403665
  40353c:	6a 00                	push   $0x0
  40353e:	6a 00                	push   $0x0
  403540:	6a 02                	push   $0x2
  403542:	6a 00                	push   $0x0
  403544:	6a 00                	push   $0x0
  403546:	68 00 00 00 c0       	push   $0xc0000000
  40354b:	8b 4d 08             	mov    0x8(%ebp),%ecx
  40354e:	51                   	push   %ecx
  40354f:	ff 15 74 90 40 00    	call   *0x409074
  403555:	89 85 a8 fd ff ff    	mov    %eax,-0x258(%ebp)
  40355b:	83 bd a8 fd ff ff 00 	cmpl   $0x0,-0x258(%ebp)
  403562:	74 09                	je     0x40356d
  403564:	83 bd a8 fd ff ff ff 	cmpl   $0xffffffff,-0x258(%ebp)
  40356b:	75 0f                	jne    0x40357c
  40356d:	c7 85 a4 fd ff ff ff 	movl   $0xffffffff,-0x25c(%ebp)
  403574:	ff ff ff 
  403577:	e9 e9 00 00 00       	jmp    0x403665
  40357c:	c7 85 a0 fd ff ff 00 	movl   $0x0,-0x260(%ebp)
  403583:	00 00 00 
  403586:	6a 00                	push   $0x0
  403588:	8d 95 a0 fd ff ff    	lea    -0x260(%ebp),%edx
  40358e:	52                   	push   %edx
  40358f:	8b 85 ac fd ff ff    	mov    -0x254(%ebp),%eax
  403595:	50                   	push   %eax
  403596:	8b 4d e4             	mov    -0x1c(%ebp),%ecx
  403599:	51                   	push   %ecx
  40359a:	8b 95 a8 fd ff ff    	mov    -0x258(%ebp),%edx
  4035a0:	52                   	push   %edx
  4035a1:	ff 15 68 90 40 00    	call   *0x409068
  4035a7:	85 c0                	test   %eax,%eax
  4035a9:	75 26                	jne    0x4035d1
  4035ab:	8b 85 a8 fd ff ff    	mov    -0x258(%ebp),%eax
  4035b1:	50                   	push   %eax
  4035b2:	ff 15 e8 90 40 00    	call   *0x4090e8
  4035b8:	8b 4d 08             	mov    0x8(%ebp),%ecx
  4035bb:	51                   	push   %ecx
  4035bc:	ff 15 1c 91 40 00    	call   *0x40911c
  4035c2:	c7 85 a4 fd ff ff ff 	movl   $0xffffffff,-0x25c(%ebp)
  4035c9:	ff ff ff 
  4035cc:	e9 94 00 00 00       	jmp    0x403665
  4035d1:	8b 95 a8 fd ff ff    	mov    -0x258(%ebp),%edx
  4035d7:	52                   	push   %edx
  4035d8:	ff 15 e8 90 40 00    	call   *0x4090e8
  4035de:	c7 85 a8 fd ff ff 00 	movl   $0x0,-0x258(%ebp)
  4035e5:	00 00 00 
  4035e8:	8b 45 e4             	mov    -0x1c(%ebp),%eax
  4035eb:	50                   	push   %eax
  4035ec:	ff 15 f8 90 40 00    	call   *0x4090f8
  4035f2:	c7 45 e4 00 00 00 00 	movl   $0x0,-0x1c(%ebp)
  4035f9:	68 04 01 00 00       	push   $0x104
  4035fe:	8d 8d b0 fd ff ff    	lea    -0x250(%ebp),%ecx
  403604:	51                   	push   %ecx
  403605:	ff 15 00 91 40 00    	call   *0x409100
  40360b:	8d 95 b8 fe ff ff    	lea    -0x148(%ebp),%edx
  403611:	52                   	push   %edx
  403612:	8d 85 b0 fd ff ff    	lea    -0x250(%ebp),%eax
  403618:	50                   	push   %eax
  403619:	68 10 93 40 00       	push   $0x409310
  40361e:	68 04 01 00 00       	push   $0x104
  403623:	8d 8d d8 fe ff ff    	lea    -0x128(%ebp),%ecx
  403629:	51                   	push   %ecx
  40362a:	ff 15 60 91 40 00    	call   *0x409160
  403630:	83 c4 14             	add    $0x14,%esp
  403633:	8d 95 d8 fe ff ff    	lea    -0x128(%ebp),%edx
  403639:	52                   	push   %edx
  40363a:	8b 45 0c             	mov    0xc(%ebp),%eax
  40363d:	50                   	push   %eax
  40363e:	8b 4d 08             	mov    0x8(%ebp),%ecx
  403641:	51                   	push   %ecx
  403642:	e8 d9 00 00 00       	call   0x403720
  403647:	83 c4 0c             	add    $0xc,%esp
  40364a:	0f b6 d0             	movzbl %al,%edx
  40364d:	85 d2                	test   %edx,%edx
  40364f:	75 14                	jne    0x403665
  403651:	8b 45 08             	mov    0x8(%ebp),%eax
  403654:	50                   	push   %eax
  403655:	ff 15 1c 91 40 00    	call   *0x40911c
  40365b:	c7 85 a4 fd ff ff ff 	movl   $0xffffffff,-0x25c(%ebp)
  403662:	ff ff ff 
  403665:	c7 45 fc 00 00 00 00 	movl   $0x0,-0x4(%ebp)
  40366c:	e8 02 00 00 00       	call   0x403673
  403671:	eb 54                	jmp    0x4036c7
  403673:	83 bd a8 fd ff ff 00 	cmpl   $0x0,-0x258(%ebp)
  40367a:	74 20                	je     0x40369c
  40367c:	83 bd a8 fd ff ff ff 	cmpl   $0xffffffff,-0x258(%ebp)
  403683:	74 17                	je     0x40369c
  403685:	8b 8d a8 fd ff ff    	mov    -0x258(%ebp),%ecx
  40368b:	51                   	push   %ecx
  40368c:	ff 15 e8 90 40 00    	call   *0x4090e8
  403692:	c7 85 a8 fd ff ff 00 	movl   $0x0,-0x258(%ebp)
  403699:	00 00 00 
  40369c:	83 bd a4 fd ff ff 00 	cmpl   $0x0,-0x25c(%ebp)
  4036a3:	74 0a                	je     0x4036af
  4036a5:	8b 55 08             	mov    0x8(%ebp),%edx
  4036a8:	52                   	push   %edx
  4036a9:	ff 15 1c 91 40 00    	call   *0x40911c
  4036af:	83 7d e4 00          	cmpl   $0x0,-0x1c(%ebp)
  4036b3:	74 11                	je     0x4036c6
  4036b5:	8b 45 e4             	mov    -0x1c(%ebp),%eax
  4036b8:	50                   	push   %eax
  4036b9:	ff 15 f8 90 40 00    	call   *0x4090f8
  4036bf:	c7 45 e4 00 00 00 00 	movl   $0x0,-0x1c(%ebp)
  4036c6:	c3                   	ret    
  4036c7:	c7 45 fc ff ff ff ff 	movl   $0xffffffff,-0x4(%ebp)
  4036ce:	eb 34                	jmp    0x403704
  4036d0:	b8 01 00 00 00       	mov    $0x1,%eax
  4036d5:	c3                   	ret    
  4036d6:	8b 65 e8             	mov    -0x18(%ebp),%esp
  4036d9:	c7 85 a4 fd ff ff ff 	movl   $0xffffffff,-0x25c(%ebp)
  4036e0:	ff ff ff 
  4036e3:	8b 4d 08             	mov    0x8(%ebp),%ecx
  4036e6:	51                   	push   %ecx
  4036e7:	e8 ca 49 00 00       	call   0x4080b6
  4036ec:	83 c4 04             	add    $0x4,%esp
  4036ef:	85 c0                	test   %eax,%eax
  4036f1:	76 0a                	jbe    0x4036fd
  4036f3:	8b 55 08             	mov    0x8(%ebp),%edx
  4036f6:	52                   	push   %edx
  4036f7:	ff 15 1c 91 40 00    	call   *0x40911c
  4036fd:	c7 45 fc ff ff ff ff 	movl   $0xffffffff,-0x4(%ebp)
  403704:	8b 85 a4 fd ff ff    	mov    -0x25c(%ebp),%eax
  40370a:	8b 4d f0             	mov    -0x10(%ebp),%ecx
  40370d:	64 89 0d 00 00 00 00 	mov    %ecx,%fs:0x0
  403714:	5f                   	pop    %edi
  403715:	5e                   	pop    %esi
  403716:	5b                   	pop    %ebx
  403717:	8b e5                	mov    %ebp,%esp
  403719:	5d                   	pop    %ebp
  40371a:	c3                   	ret    
  40371b:	cc                   	int3   
  40371c:	cc                   	int3   
  40371d:	cc                   	int3   
  40371e:	cc                   	int3   
  40371f:	cc                   	int3   
  403720:	55                   	push   %ebp
  403721:	8b ec                	mov    %esp,%ebp
  403723:	81 ec 54 01 00 00    	sub    $0x154,%esp
  403729:	8d 85 c0 fe ff ff    	lea    -0x140(%ebp),%eax
  40372f:	50                   	push   %eax
  403730:	8b 4d 0c             	mov    0xc(%ebp),%ecx
  403733:	51                   	push   %ecx
  403734:	ff 15 9c 90 40 00    	call   *0x40909c
  40373a:	89 85 bc fe ff ff    	mov    %eax,-0x144(%ebp)
  403740:	83 bd bc fe ff ff ff 	cmpl   $0xffffffff,-0x144(%ebp)
  403747:	75 36                	jne    0x40377f
  403749:	83 7d 10 00          	cmpl   $0x0,0x10(%ebp)
  40374d:	74 29                	je     0x403778
  40374f:	8d 95 c0 fe ff ff    	lea    -0x140(%ebp),%edx
  403755:	52                   	push   %edx
  403756:	8b 45 10             	mov    0x10(%ebp),%eax
  403759:	50                   	push   %eax
  40375a:	ff 15 9c 90 40 00    	call   *0x40909c
  403760:	89 85 bc fe ff ff    	mov    %eax,-0x144(%ebp)
  403766:	83 bd bc fe ff ff ff 	cmpl   $0xffffffff,-0x144(%ebp)
  40376d:	75 07                	jne    0x403776
  40376f:	32 c0                	xor    %al,%al
  403771:	e9 ca 00 00 00       	jmp    0x403840
  403776:	eb 07                	jmp    0x40377f
  403778:	32 c0                	xor    %al,%al
  40377a:	e9 c1 00 00 00       	jmp    0x403840
  40377f:	8b 8d bc fe ff ff    	mov    -0x144(%ebp),%ecx
  403785:	51                   	push   %ecx
  403786:	ff 15 98 90 40 00    	call   *0x409098
  40378c:	83 bd c4 fe ff ff 00 	cmpl   $0x0,-0x13c(%ebp)
  403793:	74 0e                	je     0x4037a3
  403795:	8d 95 c4 fe ff ff    	lea    -0x13c(%ebp),%edx
  40379b:	89 95 ac fe ff ff    	mov    %edx,-0x154(%ebp)
  4037a1:	eb 0c                	jmp    0x4037af
  4037a3:	8d 85 d4 fe ff ff    	lea    -0x12c(%ebp),%eax
  4037a9:	89 85 ac fe ff ff    	mov    %eax,-0x154(%ebp)
  4037af:	8b 8d ac fe ff ff    	mov    -0x154(%ebp),%ecx
  4037b5:	89 8d b0 fe ff ff    	mov    %ecx,-0x150(%ebp)
  4037bb:	8b 95 b0 fe ff ff    	mov    -0x150(%ebp),%edx
  4037c1:	8b 02                	mov    (%edx),%eax
  4037c3:	8b 4a 04             	mov    0x4(%edx),%ecx
  4037c6:	89 85 b4 fe ff ff    	mov    %eax,-0x14c(%ebp)
  4037cc:	89 8d b8 fe ff ff    	mov    %ecx,-0x148(%ebp)
  4037d2:	6a 00                	push   $0x0
  4037d4:	6a 00                	push   $0x0
  4037d6:	6a 03                	push   $0x3
  4037d8:	6a 00                	push   $0x0
  4037da:	6a 00                	push   $0x0
  4037dc:	68 00 00 00 40       	push   $0x40000000
  4037e1:	8b 55 08             	mov    0x8(%ebp),%edx
  4037e4:	52                   	push   %edx
  4037e5:	ff 15 74 90 40 00    	call   *0x409074
  4037eb:	89 85 bc fe ff ff    	mov    %eax,-0x144(%ebp)
  4037f1:	83 bd bc fe ff ff ff 	cmpl   $0xffffffff,-0x144(%ebp)
  4037f8:	75 04                	jne    0x4037fe
  4037fa:	32 c0                	xor    %al,%al
  4037fc:	eb 42                	jmp    0x403840
  4037fe:	8d 85 d4 fe ff ff    	lea    -0x12c(%ebp),%eax
  403804:	50                   	push   %eax
  403805:	8d 8d cc fe ff ff    	lea    -0x134(%ebp),%ecx
  40380b:	51                   	push   %ecx
  40380c:	8d 95 b4 fe ff ff    	lea    -0x14c(%ebp),%edx
  403812:	52                   	push   %edx
  403813:	8b 85 bc fe ff ff    	mov    -0x144(%ebp),%eax
  403819:	50                   	push   %eax
  40381a:	ff 15 24 91 40 00    	call   *0x409124
  403820:	8b 8d bc fe ff ff    	mov    -0x144(%ebp),%ecx
  403826:	51                   	push   %ecx
  403827:	ff 15 e8 90 40 00    	call   *0x4090e8
  40382d:	8b 95 c0 fe ff ff    	mov    -0x140(%ebp),%edx
  403833:	52                   	push   %edx
  403834:	8b 45 08             	mov    0x8(%ebp),%eax
  403837:	50                   	push   %eax
  403838:	ff 15 90 90 40 00    	call   *0x409090
  40383e:	b0 01                	mov    $0x1,%al
  403840:	8b e5                	mov    %ebp,%esp
  403842:	5d                   	pop    %ebp
  403843:	c3                   	ret    
  403844:	cc                   	int3   
  403845:	cc                   	int3   
  403846:	cc                   	int3   
  403847:	cc                   	int3   
  403848:	cc                   	int3   
  403849:	cc                   	int3   
  40384a:	cc                   	int3   
  40384b:	cc                   	int3   
  40384c:	cc                   	int3   
  40384d:	cc                   	int3   
  40384e:	cc                   	int3   
  40384f:	cc                   	int3   
  403850:	51                   	push   %ecx
  403851:	56                   	push   %esi
  403852:	8b 74 24 0c          	mov    0xc(%esp),%esi
  403856:	85 f6                	test   %esi,%esi
  403858:	c7 44 24 04 00 00 00 	movl   $0x0,0x4(%esp)
  40385f:	00 
  403860:	75 05                	jne    0x403867
  403862:	33 c0                	xor    %eax,%eax
  403864:	5e                   	pop    %esi
  403865:	59                   	pop    %ecx
  403866:	c3                   	ret    
  403867:	55                   	push   %ebp
  403868:	8b 6c 24 18          	mov    0x18(%esp),%ebp
  40386c:	85 ed                	test   %ebp,%ebp
  40386e:	75 06                	jne    0x403876
  403870:	5d                   	pop    %ebp
  403871:	33 c0                	xor    %eax,%eax
  403873:	5e                   	pop    %esi
  403874:	59                   	pop    %ecx
  403875:	c3                   	ret    
  403876:	53                   	push   %ebx
  403877:	8b 5c 24 20          	mov    0x20(%esp),%ebx
  40387b:	85 db                	test   %ebx,%ebx
  40387d:	75 07                	jne    0x403886
  40387f:	5b                   	pop    %ebx
  403880:	5d                   	pop    %ebp
  403881:	33 c0                	xor    %eax,%eax
  403883:	5e                   	pop    %esi
  403884:	59                   	pop    %ecx
  403885:	c3                   	ret    
  403886:	57                   	push   %edi
  403887:	8b 7c 24 1c          	mov    0x1c(%esp),%edi
  40388b:	85 ff                	test   %edi,%edi
  40388d:	75 08                	jne    0x403897
  40388f:	5f                   	pop    %edi
  403890:	5b                   	pop    %ebx
  403891:	5d                   	pop    %ebp
  403892:	33 c0                	xor    %eax,%eax
  403894:	5e                   	pop    %esi
  403895:	59                   	pop    %ecx
  403896:	c3                   	ret    
  403897:	6a 04                	push   $0x4
  403899:	6a 04                	push   $0x4
  40389b:	6a 04                	push   $0x4
  40389d:	6a 04                	push   $0x4
  40389f:	6a 04                	push   $0x4
  4038a1:	6a 04                	push   $0x4
  4038a3:	6a 04                	push   $0x4
  4038a5:	6a 04                	push   $0x4
  4038a7:	6a 02                	push   $0x2
  4038a9:	68 00 92 00 00       	push   $0x9200
  4038ae:	e8 2d 03 00 00       	call   0x403be0
  4038b3:	83 c4 28             	add    $0x28,%esp
  4038b6:	85 c0                	test   %eax,%eax
  4038b8:	75 d5                	jne    0x40388f
  4038ba:	80 3e 40             	cmpb   $0x40,(%esi)
  4038bd:	75 d0                	jne    0x40388f
  4038bf:	39 5e 08             	cmp    %ebx,0x8(%esi)
  4038c2:	77 cb                	ja     0x40388f
  4038c4:	6a 00                	push   $0x0
  4038c6:	8d 44 24 14          	lea    0x14(%esp),%eax
  4038ca:	50                   	push   %eax
  4038cb:	55                   	push   %ebp
  4038cc:	83 c7 f4             	add    $0xfffffff4,%edi
  4038cf:	57                   	push   %edi
  4038d0:	83 c6 0c             	add    $0xc,%esi
  4038d3:	56                   	push   %esi
  4038d4:	e8 a7 03 00 00       	call   0x403c80
  4038d9:	8b 4c 24 24          	mov    0x24(%esp),%ecx
  4038dd:	83 c4 14             	add    $0x14,%esp
  4038e0:	f7 d8                	neg    %eax
  4038e2:	5f                   	pop    %edi
  4038e3:	1b c0                	sbb    %eax,%eax
  4038e5:	5b                   	pop    %ebx
  4038e6:	f7 d0                	not    %eax
  4038e8:	5d                   	pop    %ebp
  4038e9:	23 c1                	and    %ecx,%eax
  4038eb:	5e                   	pop    %esi
  4038ec:	59                   	pop    %ecx
  4038ed:	c3                   	ret    
  4038ee:	cc                   	int3   
  4038ef:	cc                   	int3   
  4038f0:	83 7c 24 08 0c       	cmpl   $0xc,0x8(%esp)
  4038f5:	72 0d                	jb     0x403904
  4038f7:	8b 44 24 04          	mov    0x4(%esp),%eax
  4038fb:	85 c0                	test   %eax,%eax
  4038fd:	74 05                	je     0x403904
  4038ff:	80 38 40             	cmpb   $0x40,(%eax)
  403902:	74 03                	je     0x403907
  403904:	33 c0                	xor    %eax,%eax
  403906:	c3                   	ret    
  403907:	8b 40 08             	mov    0x8(%eax),%eax
  40390a:	c3                   	ret    
  40390b:	cc                   	int3   
  40390c:	cc                   	int3   
  40390d:	cc                   	int3   
  40390e:	cc                   	int3   
  40390f:	cc                   	int3   
  403910:	83 ec 3c             	sub    $0x3c,%esp
  403913:	33 c0                	xor    %eax,%eax
  403915:	88 04 04             	mov    %al,(%esp,%eax,1)
  403918:	40                   	inc    %eax
  403919:	83 f8 10             	cmp    $0x10,%eax
  40391c:	7c f7                	jl     0x403915
  40391e:	56                   	push   %esi
  40391f:	57                   	push   %edi
  403920:	8d 44 24 18          	lea    0x18(%esp),%eax
  403924:	6a 04                	push   $0x4
  403926:	50                   	push   %eax
  403927:	e8 c4 05 00 00       	call   0x403ef0
  40392c:	8d 4c 04 20          	lea    0x20(%esp,%eax,1),%ecx
  403930:	33 c0                	xor    %eax,%eax
  403932:	83 cf ff             	or     $0xffffffff,%edi
  403935:	83 c4 08             	add    $0x8,%esp
  403938:	8d 54 24 18          	lea    0x18(%esp),%edx
  40393c:	8b f1                	mov    %ecx,%esi
  40393e:	2b f2                	sub    %edx,%esi
  403940:	66 81 ff ff ff       	cmp    $0xffff,%di
  403945:	0f 94 c0             	sete   %al
  403948:	33 d2                	xor    %edx,%edx
  40394a:	83 ff ff             	cmp    $0xffffffff,%edi
  40394d:	0f 94 c2             	sete   %dl
  403950:	23 c2                	and    %edx,%eax
  403952:	33 d2                	xor    %edx,%edx
  403954:	83 fe 04             	cmp    $0x4,%esi
  403957:	0f 9c c2             	setl   %dl
  40395a:	23 c2                	and    %edx,%eax
  40395c:	33 d2                	xor    %edx,%edx
  40395e:	85 f6                	test   %esi,%esi
  403960:	0f 9d c2             	setge  %dl
  403963:	23 c2                	and    %edx,%eax
  403965:	83 e0 01             	and    $0x1,%eax
  403968:	8b f0                	mov    %eax,%esi
  40396a:	74 03                	je     0x40396f
  40396c:	83 e6 01             	and    $0x1,%esi
  40396f:	33 d2                	xor    %edx,%edx
  403971:	33 c0                	xor    %eax,%eax
  403973:	85 c0                	test   %eax,%eax
  403975:	0f 94 c2             	sete   %dl
  403978:	83 e2 01             	and    $0x1,%edx
  40397b:	23 f2                	and    %edx,%esi
  40397d:	83 fe 01             	cmp    $0x1,%esi
  403980:	0f 85 25 01 00 00    	jne    0x403aab
  403986:	89 09                	mov    %ecx,(%ecx)
  403988:	89 49 04             	mov    %ecx,0x4(%ecx)
  40398b:	89 49 08             	mov    %ecx,0x8(%ecx)
  40398e:	89 49 0c             	mov    %ecx,0xc(%ecx)
  403991:	89 49 10             	mov    %ecx,0x10(%ecx)
  403994:	89 49 14             	mov    %ecx,0x14(%ecx)
  403997:	89 49 18             	mov    %ecx,0x18(%ecx)
  40399a:	89 49 1c             	mov    %ecx,0x1c(%ecx)
  40399d:	89 49 20             	mov    %ecx,0x20(%ecx)
  4039a0:	89 49 24             	mov    %ecx,0x24(%ecx)
  4039a3:	8d 79 04             	lea    0x4(%ecx),%edi
  4039a6:	8b d7                	mov    %edi,%edx
  4039a8:	89 02                	mov    %eax,(%edx)
  4039aa:	89 42 04             	mov    %eax,0x4(%edx)
  4039ad:	89 42 08             	mov    %eax,0x8(%edx)
  4039b0:	89 42 0c             	mov    %eax,0xc(%edx)
  4039b3:	89 42 10             	mov    %eax,0x10(%edx)
  4039b6:	89 42 14             	mov    %eax,0x14(%edx)
  4039b9:	89 42 18             	mov    %eax,0x18(%edx)
  4039bc:	89 42 1c             	mov    %eax,0x1c(%edx)
  4039bf:	53                   	push   %ebx
  4039c0:	39 09                	cmp    %ecx,(%ecx)
  4039c2:	0f 94 c0             	sete   %al
  4039c5:	8b 59 20             	mov    0x20(%ecx),%ebx
  4039c8:	33 d2                	xor    %edx,%edx
  4039ca:	23 f0                	and    %eax,%esi
  4039cc:	8b 47 04             	mov    0x4(%edi),%eax
  4039cf:	85 c0                	test   %eax,%eax
  4039d1:	0f 94 c2             	sete   %dl
  4039d4:	33 c0                	xor    %eax,%eax
  4039d6:	85 db                	test   %ebx,%ebx
  4039d8:	0f 94 c0             	sete   %al
  4039db:	8b 59 1c             	mov    0x1c(%ecx),%ebx
  4039de:	23 d0                	and    %eax,%edx
  4039e0:	33 c0                	xor    %eax,%eax
  4039e2:	85 db                	test   %ebx,%ebx
  4039e4:	0f 94 c0             	sete   %al
  4039e7:	8b 59 18             	mov    0x18(%ecx),%ebx
  4039ea:	23 d0                	and    %eax,%edx
  4039ec:	33 c0                	xor    %eax,%eax
  4039ee:	85 db                	test   %ebx,%ebx
  4039f0:	8b 59 10             	mov    0x10(%ecx),%ebx
  4039f3:	0f 94 c0             	sete   %al
  4039f6:	23 d0                	and    %eax,%edx
  4039f8:	33 c0                	xor    %eax,%eax
  4039fa:	85 db                	test   %ebx,%ebx
  4039fc:	8b 59 14             	mov    0x14(%ecx),%ebx
  4039ff:	0f 94 c0             	sete   %al
  403a02:	23 d0                	and    %eax,%edx
  403a04:	33 c0                	xor    %eax,%eax
  403a06:	85 db                	test   %ebx,%ebx
  403a08:	8b 59 0c             	mov    0xc(%ecx),%ebx
  403a0b:	0f 94 c0             	sete   %al
  403a0e:	23 d0                	and    %eax,%edx
  403a10:	33 c0                	xor    %eax,%eax
  403a12:	85 db                	test   %ebx,%ebx
  403a14:	8b 1f                	mov    (%edi),%ebx
  403a16:	8b 79 24             	mov    0x24(%ecx),%edi
  403a19:	0f 94 c0             	sete   %al
  403a1c:	23 d0                	and    %eax,%edx
  403a1e:	33 c0                	xor    %eax,%eax
  403a20:	85 db                	test   %ebx,%ebx
  403a22:	0f 94 c0             	sete   %al
  403a25:	23 d0                	and    %eax,%edx
  403a27:	23 f2                	and    %edx,%esi
  403a29:	33 d2                	xor    %edx,%edx
  403a2b:	3b f9                	cmp    %ecx,%edi
  403a2d:	0f 94 c2             	sete   %dl
  403a30:	23 f2                	and    %edx,%esi
  403a32:	83 fe 01             	cmp    $0x1,%esi
  403a35:	75 6b                	jne    0x403aa2
  403a37:	8d 44 24 0d          	lea    0xd(%esp),%eax
  403a3b:	6a 04                	push   $0x4
  403a3d:	50                   	push   %eax
  403a3e:	e8 ad 04 00 00       	call   0x403ef0
  403a43:	8b c8                	mov    %eax,%ecx
  403a45:	83 c4 08             	add    $0x8,%esp
  403a48:	41                   	inc    %ecx
  403a49:	8d 54 0c 0c          	lea    0xc(%esp,%ecx,1),%edx
  403a4d:	8b c2                	mov    %edx,%eax
  403a4f:	24 03                	and    $0x3,%al
  403a51:	f6 d8                	neg    %al
  403a53:	8d 74 24 11          	lea    0x11(%esp),%esi
  403a57:	1b c0                	sbb    %eax,%eax
  403a59:	40                   	inc    %eax
  403a5a:	3b d6                	cmp    %esi,%edx
  403a5c:	1b f6                	sbb    %esi,%esi
  403a5e:	f7 de                	neg    %esi
  403a60:	23 c6                	and    %esi,%eax
  403a62:	8d 74 24 0d          	lea    0xd(%esp),%esi
  403a66:	3b d6                	cmp    %esi,%edx
  403a68:	1b f6                	sbb    %esi,%esi
  403a6a:	46                   	inc    %esi
  403a6b:	23 c6                	and    %esi,%eax
  403a6d:	83 f9 05             	cmp    $0x5,%ecx
  403a70:	1b f6                	sbb    %esi,%esi
  403a72:	f7 de                	neg    %esi
  403a74:	23 c6                	and    %esi,%eax
  403a76:	83 f9 01             	cmp    $0x1,%ecx
  403a79:	1b f6                	sbb    %esi,%esi
  403a7b:	46                   	inc    %esi
  403a7c:	23 c6                	and    %esi,%eax
  403a7e:	83 e0 01             	and    $0x1,%eax
  403a81:	74 18                	je     0x403a9b
  403a83:	8b 7c 0c 10          	mov    0x10(%esp,%ecx,1),%edi
  403a87:	8b 1a                	mov    (%edx),%ebx
  403a89:	33 f6                	xor    %esi,%esi
  403a8b:	3b f7                	cmp    %edi,%esi
  403a8d:	1b c9                	sbb    %ecx,%ecx
  403a8f:	f7 d9                	neg    %ecx
  403a91:	3b f3                	cmp    %ebx,%esi
  403a93:	1b d2                	sbb    %edx,%edx
  403a95:	f7 da                	neg    %edx
  403a97:	23 ca                	and    %edx,%ecx
  403a99:	23 c1                	and    %ecx,%eax
  403a9b:	5b                   	pop    %ebx
  403a9c:	5f                   	pop    %edi
  403a9d:	5e                   	pop    %esi
  403a9e:	83 c4 3c             	add    $0x3c,%esp
  403aa1:	c3                   	ret    
  403aa2:	5b                   	pop    %ebx
  403aa3:	5f                   	pop    %edi
  403aa4:	8b c6                	mov    %esi,%eax
  403aa6:	5e                   	pop    %esi
  403aa7:	83 c4 3c             	add    $0x3c,%esp
  403aaa:	c3                   	ret    
  403aab:	5f                   	pop    %edi
  403aac:	8b c6                	mov    %esi,%eax
  403aae:	5e                   	pop    %esi
  403aaf:	83 c4 3c             	add    $0x3c,%esp
  403ab2:	c3                   	ret    
  403ab3:	cc                   	int3   
  403ab4:	cc                   	int3   
  403ab5:	cc                   	int3   
  403ab6:	cc                   	int3   
  403ab7:	cc                   	int3   
  403ab8:	cc                   	int3   
  403ab9:	cc                   	int3   
  403aba:	cc                   	int3   
  403abb:	cc                   	int3   
  403abc:	cc                   	int3   
  403abd:	cc                   	int3   
  403abe:	cc                   	int3   
  403abf:	cc                   	int3   
  403ac0:	83 ec 10             	sub    $0x10,%esp
  403ac3:	c7 04 24 00 00 00 00 	movl   $0x0,(%esp)
  403aca:	66 c7 04 24 00 00    	movw   $0x0,(%esp)
  403ad0:	33 c0                	xor    %eax,%eax
  403ad2:	88 04 04             	mov    %al,(%esp,%eax,1)
  403ad5:	40                   	inc    %eax
  403ad6:	83 f8 10             	cmp    $0x10,%eax
  403ad9:	7c f7                	jl     0x403ad2
  403adb:	56                   	push   %esi
  403adc:	8b 74 24 04          	mov    0x4(%esp),%esi
  403ae0:	33 c0                	xor    %eax,%eax
  403ae2:	81 fe 00 01 02 03    	cmp    $0x3020100,%esi
  403ae8:	0f 94 c0             	sete   %al
  403aeb:	57                   	push   %edi
  403aec:	8b f8                	mov    %eax,%edi
  403aee:	33 c0                	xor    %eax,%eax
  403af0:	66 81 fe 00 01       	cmp    $0x100,%si
  403af5:	0f 94 c0             	sete   %al
  403af8:	8b f0                	mov    %eax,%esi
  403afa:	23 f7                	and    %edi,%esi
  403afc:	83 e6 01             	and    $0x1,%esi
  403aff:	74 2c                	je     0x403b2d
  403b01:	33 c9                	xor    %ecx,%ecx
  403b03:	66 81 7c 24 0b 03 04 	cmpw   $0x403,0xb(%esp)
  403b0a:	0f 94 c1             	sete   %cl
  403b0d:	33 d2                	xor    %edx,%edx
  403b0f:	66 81 7c 24 0a 02 03 	cmpw   $0x302,0xa(%esp)
  403b16:	0f 94 c2             	sete   %dl
  403b19:	23 ca                	and    %edx,%ecx
  403b1b:	33 d2                	xor    %edx,%edx
  403b1d:	66 81 7c 24 09 01 02 	cmpw   $0x201,0x9(%esp)
  403b24:	0f 94 c2             	sete   %dl
  403b27:	23 ca                	and    %edx,%ecx
  403b29:	23 c8                	and    %eax,%ecx
  403b2b:	23 f1                	and    %ecx,%esi
  403b2d:	83 e6 01             	and    $0x1,%esi
  403b30:	74 31                	je     0x403b63
  403b32:	8b 4c 24 0a          	mov    0xa(%esp),%ecx
  403b36:	33 c0                	xor    %eax,%eax
  403b38:	81 f9 02 03 04 05    	cmp    $0x5040302,%ecx
  403b3e:	0f 94 c0             	sete   %al
  403b41:	33 c9                	xor    %ecx,%ecx
  403b43:	81 7c 24 09 01 02 03 	cmpl   $0x4030201,0x9(%esp)
  403b4a:	04 
  403b4b:	0f 94 c1             	sete   %cl
  403b4e:	33 d2                	xor    %edx,%edx
  403b50:	23 c1                	and    %ecx,%eax
  403b52:	81 7c 24 0b 03 04 05 	cmpl   $0x6050403,0xb(%esp)
  403b59:	06 
  403b5a:	0f 94 c2             	sete   %dl
  403b5d:	23 c2                	and    %edx,%eax
  403b5f:	23 c7                	and    %edi,%eax
  403b61:	23 f0                	and    %eax,%esi
  403b63:	83 e6 01             	and    $0x1,%esi
  403b66:	74 60                	je     0x403bc8
  403b68:	83 e6 01             	and    $0x1,%esi
  403b6b:	74 5b                	je     0x403bc8
  403b6d:	8b 0d 18 b0 40 00    	mov    0x40b018,%ecx
  403b73:	33 c0                	xor    %eax,%eax
  403b75:	85 c9                	test   %ecx,%ecx
  403b77:	76 16                	jbe    0x403b8f
  403b79:	8d a4 24 00 00 00 00 	lea    0x0(%esp),%esp
  403b80:	8d 50 fd             	lea    -0x3(%eax),%edx
  403b83:	89 14 85 b4 b1 40 00 	mov    %edx,0x40b1b4(,%eax,4)
  403b8a:	40                   	inc    %eax
  403b8b:	3b c1                	cmp    %ecx,%eax
  403b8d:	72 f1                	jb     0x403b80
  403b8f:	83 3d b4 b1 40 00 fd 	cmpl   $0xfffffffd,0x40b1b4
  403b96:	75 16                	jne    0x403bae
  403b98:	83 3d b8 b1 40 00 fe 	cmpl   $0xfffffffe,0x40b1b8
  403b9f:	75 0d                	jne    0x403bae
  403ba1:	83 3d bc b1 40 00 ff 	cmpl   $0xffffffff,0x40b1bc
  403ba8:	75 04                	jne    0x403bae
  403baa:	33 c0                	xor    %eax,%eax
  403bac:	eb 05                	jmp    0x403bb3
  403bae:	b8 01 00 00 00       	mov    $0x1,%eax
  403bb3:	33 c9                	xor    %ecx,%ecx
  403bb5:	85 c0                	test   %eax,%eax
  403bb7:	0f 94 c1             	sete   %cl
  403bba:	83 e1 01             	and    $0x1,%ecx
  403bbd:	8b f1                	mov    %ecx,%esi
  403bbf:	74 07                	je     0x403bc8
  403bc1:	e8 4a fd ff ff       	call   0x403910
  403bc6:	23 f0                	and    %eax,%esi
  403bc8:	8b c6                	mov    %esi,%eax
  403bca:	48                   	dec    %eax
  403bcb:	f7 d8                	neg    %eax
  403bcd:	5f                   	pop    %edi
  403bce:	1b c0                	sbb    %eax,%eax
  403bd0:	5e                   	pop    %esi
  403bd1:	83 c4 10             	add    $0x10,%esp
  403bd4:	c3                   	ret    
  403bd5:	cc                   	int3   
  403bd6:	cc                   	int3   
  403bd7:	cc                   	int3   
  403bd8:	cc                   	int3   
  403bd9:	cc                   	int3   
  403bda:	cc                   	int3   
  403bdb:	cc                   	int3   
  403bdc:	cc                   	int3   
  403bdd:	cc                   	int3   
  403bde:	cc                   	int3   
  403bdf:	cc                   	int3   
  403be0:	8b 44 24 04          	mov    0x4(%esp),%eax
  403be4:	85 c0                	test   %eax,%eax
  403be6:	c7 05 c0 b1 40 00 01 	movl   $0x1,0x40b1c0
  403bed:	00 00 00 
  403bf0:	75 04                	jne    0x403bf6
  403bf2:	83 c8 ff             	or     $0xffffffff,%eax
  403bf5:	c3                   	ret    
  403bf6:	8b 44 24 08          	mov    0x8(%esp),%eax
  403bfa:	83 f8 ff             	cmp    $0xffffffff,%eax
  403bfd:	74 05                	je     0x403c04
  403bff:	83 f8 02             	cmp    $0x2,%eax
  403c02:	75 ee                	jne    0x403bf2
  403c04:	8b 44 24 0c          	mov    0xc(%esp),%eax
  403c08:	83 f8 ff             	cmp    $0xffffffff,%eax
  403c0b:	74 05                	je     0x403c12
  403c0d:	83 f8 04             	cmp    $0x4,%eax
  403c10:	75 e0                	jne    0x403bf2
  403c12:	8b 44 24 10          	mov    0x10(%esp),%eax
  403c16:	83 f8 ff             	cmp    $0xffffffff,%eax
  403c19:	74 05                	je     0x403c20
  403c1b:	83 f8 04             	cmp    $0x4,%eax
  403c1e:	75 d2                	jne    0x403bf2
  403c20:	8b 44 24 14          	mov    0x14(%esp),%eax
  403c24:	83 f8 ff             	cmp    $0xffffffff,%eax
  403c27:	74 05                	je     0x403c2e
  403c29:	83 f8 04             	cmp    $0x4,%eax
  403c2c:	75 c4                	jne    0x403bf2
  403c2e:	8b 44 24 18          	mov    0x18(%esp),%eax
  403c32:	83 f8 ff             	cmp    $0xffffffff,%eax
  403c35:	74 05                	je     0x403c3c
  403c37:	83 f8 04             	cmp    $0x4,%eax
  403c3a:	75 b6                	jne    0x403bf2
  403c3c:	8b 44 24 1c          	mov    0x1c(%esp),%eax
  403c40:	83 f8 ff             	cmp    $0xffffffff,%eax
  403c43:	74 05                	je     0x403c4a
  403c45:	83 f8 04             	cmp    $0x4,%eax
  403c48:	75 a8                	jne    0x403bf2
  403c4a:	8b 44 24 20          	mov    0x20(%esp),%eax
  403c4e:	83 f8 ff             	cmp    $0xffffffff,%eax
  403c51:	74 05                	je     0x403c58
  403c53:	83 f8 04             	cmp    $0x4,%eax
  403c56:	75 9a                	jne    0x403bf2
  403c58:	8b 44 24 24          	mov    0x24(%esp),%eax
  403c5c:	83 f8 ff             	cmp    $0xffffffff,%eax
  403c5f:	74 05                	je     0x403c66
  403c61:	83 f8 04             	cmp    $0x4,%eax
  403c64:	75 8c                	jne    0x403bf2
  403c66:	8b 44 24 28          	mov    0x28(%esp),%eax
  403c6a:	83 f8 ff             	cmp    $0xffffffff,%eax
  403c6d:	74 09                	je     0x403c78
  403c6f:	83 f8 04             	cmp    $0x4,%eax
  403c72:	0f 85 7a ff ff ff    	jne    0x403bf2
  403c78:	e9 43 fe ff ff       	jmp    0x403ac0
  403c7d:	cc                   	int3   
  403c7e:	cc                   	int3   
  403c7f:	cc                   	int3   
  403c80:	83 ec 08             	sub    $0x8,%esp
  403c83:	53                   	push   %ebx
  403c84:	55                   	push   %ebp
  403c85:	8b 6c 24 14          	mov    0x14(%esp),%ebp
  403c89:	56                   	push   %esi
  403c8a:	33 c0                	xor    %eax,%eax
  403c8c:	33 c9                	xor    %ecx,%ecx
  403c8e:	57                   	push   %edi
  403c8f:	33 db                	xor    %ebx,%ebx
  403c91:	c7 44 24 14 01 00 00 	movl   $0x1,0x14(%esp)
  403c98:	00 
  403c99:	89 5c 24 10          	mov    %ebx,0x10(%esp)
  403c9d:	8d 49 00             	lea    0x0(%ecx),%ecx
  403ca0:	03 c0                	add    %eax,%eax
  403ca2:	84 c0                	test   %al,%al
  403ca4:	74 0a                	je     0x403cb0
  403ca6:	8b d0                	mov    %eax,%edx
  403ca8:	c1 ea 08             	shr    $0x8,%edx
  403cab:	83 e2 01             	and    $0x1,%edx
  403cae:	eb 11                	jmp    0x403cc1
  403cb0:	0f b6 04 29          	movzbl (%ecx,%ebp,1),%eax
  403cb4:	8d 44 00 01          	lea    0x1(%eax,%eax,1),%eax
  403cb8:	8b d0                	mov    %eax,%edx
  403cba:	c1 ea 08             	shr    $0x8,%edx
  403cbd:	83 e2 01             	and    $0x1,%edx
  403cc0:	41                   	inc    %ecx
  403cc1:	85 d2                	test   %edx,%edx
  403cc3:	74 0e                	je     0x403cd3
  403cc5:	8a 14 29             	mov    (%ecx,%ebp,1),%dl
  403cc8:	8b 74 24 24          	mov    0x24(%esp),%esi
  403ccc:	88 14 33             	mov    %dl,(%ebx,%esi,1)
  403ccf:	43                   	inc    %ebx
  403cd0:	41                   	inc    %ecx
  403cd1:	eb c6                	jmp    0x403c99
  403cd3:	be 01 00 00 00       	mov    $0x1,%esi
  403cd8:	8d 14 00             	lea    (%eax,%eax,1),%edx
  403cdb:	84 d2                	test   %dl,%dl
  403cdd:	74 0a                	je     0x403ce9
  403cdf:	8b c2                	mov    %edx,%eax
  403ce1:	c1 e8 08             	shr    $0x8,%eax
  403ce4:	83 e0 01             	and    $0x1,%eax
  403ce7:	eb 11                	jmp    0x403cfa
  403ce9:	0f b6 14 29          	movzbl (%ecx,%ebp,1),%edx
  403ced:	8d 54 12 01          	lea    0x1(%edx,%edx,1),%edx
  403cf1:	8b c2                	mov    %edx,%eax
  403cf3:	c1 e8 08             	shr    $0x8,%eax
  403cf6:	83 e0 01             	and    $0x1,%eax
  403cf9:	41                   	inc    %ecx
  403cfa:	8d 3c 70             	lea    (%eax,%esi,2),%edi
  403cfd:	8d 04 12             	lea    (%edx,%edx,1),%eax
  403d00:	84 c0                	test   %al,%al
  403d02:	74 0a                	je     0x403d0e
  403d04:	8b d0                	mov    %eax,%edx
  403d06:	c1 ea 08             	shr    $0x8,%edx
  403d09:	83 e2 01             	and    $0x1,%edx
  403d0c:	eb 11                	jmp    0x403d1f
  403d0e:	0f b6 04 29          	movzbl (%ecx,%ebp,1),%eax
  403d12:	8d 44 00 01          	lea    0x1(%eax,%eax,1),%eax
  403d16:	8b d0                	mov    %eax,%edx
  403d18:	c1 ea 08             	shr    $0x8,%edx
  403d1b:	83 e2 01             	and    $0x1,%edx
  403d1e:	41                   	inc    %ecx
  403d1f:	85 d2                	test   %edx,%edx
  403d21:	75 2b                	jne    0x403d4e
  403d23:	03 c0                	add    %eax,%eax
  403d25:	84 c0                	test   %al,%al
  403d27:	74 0e                	je     0x403d37
  403d29:	8b d0                	mov    %eax,%edx
  403d2b:	c1 ea 08             	shr    $0x8,%edx
  403d2e:	83 e2 01             	and    $0x1,%edx
  403d31:	8d 74 7a fe          	lea    -0x2(%edx,%edi,2),%esi
  403d35:	eb a1                	jmp    0x403cd8
  403d37:	0f b6 04 29          	movzbl (%ecx,%ebp,1),%eax
  403d3b:	8d 44 00 01          	lea    0x1(%eax,%eax,1),%eax
  403d3f:	8b d0                	mov    %eax,%edx
  403d41:	c1 ea 08             	shr    $0x8,%edx
  403d44:	83 e2 01             	and    $0x1,%edx
  403d47:	41                   	inc    %ecx
  403d48:	8d 74 7a fe          	lea    -0x2(%edx,%edi,2),%esi
  403d4c:	eb 8a                	jmp    0x403cd8
  403d4e:	83 ff 02             	cmp    $0x2,%edi
  403d51:	75 27                	jne    0x403d7a
  403d53:	8b 5c 24 14          	mov    0x14(%esp),%ebx
  403d57:	03 c0                	add    %eax,%eax
  403d59:	84 c0                	test   %al,%al
  403d5b:	74 0a                	je     0x403d67
  403d5d:	8b d0                	mov    %eax,%edx
  403d5f:	c1 ea 08             	shr    $0x8,%edx
  403d62:	83 e2 01             	and    $0x1,%edx
  403d65:	eb 39                	jmp    0x403da0
  403d67:	0f b6 04 29          	movzbl (%ecx,%ebp,1),%eax
  403d6b:	8d 44 00 01          	lea    0x1(%eax,%eax,1),%eax
  403d6f:	8b d0                	mov    %eax,%edx
  403d71:	c1 ea 08             	shr    $0x8,%edx
  403d74:	83 e2 01             	and    $0x1,%edx
  403d77:	41                   	inc    %ecx
  403d78:	eb 26                	jmp    0x403da0
  403d7a:	0f b6 34 29          	movzbl (%ecx,%ebp,1),%esi
  403d7e:	83 c7 fd             	add    $0xfffffffd,%edi
  403d81:	c1 e7 08             	shl    $0x8,%edi
  403d84:	03 f7                	add    %edi,%esi
  403d86:	41                   	inc    %ecx
  403d87:	83 fe ff             	cmp    $0xffffffff,%esi
  403d8a:	0f 84 cc 00 00 00    	je     0x403e5c
  403d90:	8b d6                	mov    %esi,%edx
  403d92:	f7 d2                	not    %edx
  403d94:	d1 ee                	shr    %esi
  403d96:	83 e2 01             	and    $0x1,%edx
  403d99:	46                   	inc    %esi
  403d9a:	8b de                	mov    %esi,%ebx
  403d9c:	89 5c 24 14          	mov    %ebx,0x14(%esp)
  403da0:	03 c0                	add    %eax,%eax
  403da2:	84 c0                	test   %al,%al
  403da4:	74 0a                	je     0x403db0
  403da6:	8b f0                	mov    %eax,%esi
  403da8:	c1 ee 08             	shr    $0x8,%esi
  403dab:	83 e6 01             	and    $0x1,%esi
  403dae:	eb 11                	jmp    0x403dc1
  403db0:	0f b6 04 29          	movzbl (%ecx,%ebp,1),%eax
  403db4:	8d 44 00 01          	lea    0x1(%eax,%eax,1),%eax
  403db8:	8b f0                	mov    %eax,%esi
  403dba:	c1 ee 08             	shr    $0x8,%esi
  403dbd:	83 e6 01             	and    $0x1,%esi
  403dc0:	41                   	inc    %ecx
  403dc1:	8d 3c 56             	lea    (%esi,%edx,2),%edi
  403dc4:	85 ff                	test   %edi,%edi
  403dc6:	75 56                	jne    0x403e1e
  403dc8:	bf 01 00 00 00       	mov    $0x1,%edi
  403dcd:	8d 49 00             	lea    0x0(%ecx),%ecx
  403dd0:	8d 14 00             	lea    (%eax,%eax,1),%edx
  403dd3:	84 d2                	test   %dl,%dl
  403dd5:	74 0a                	je     0x403de1
  403dd7:	8b c2                	mov    %edx,%eax
  403dd9:	c1 e8 08             	shr    $0x8,%eax
  403ddc:	83 e0 01             	and    $0x1,%eax
  403ddf:	eb 11                	jmp    0x403df2
  403de1:	0f b6 14 29          	movzbl (%ecx,%ebp,1),%edx
  403de5:	8d 54 12 01          	lea    0x1(%edx,%edx,1),%edx
  403de9:	8b c2                	mov    %edx,%eax
  403deb:	c1 e8 08             	shr    $0x8,%eax
  403dee:	83 e0 01             	and    $0x1,%eax
  403df1:	41                   	inc    %ecx
  403df2:	8d 3c 78             	lea    (%eax,%edi,2),%edi
  403df5:	8d 04 12             	lea    (%edx,%edx,1),%eax
  403df8:	84 c0                	test   %al,%al
  403dfa:	74 0a                	je     0x403e06
  403dfc:	8b d0                	mov    %eax,%edx
  403dfe:	c1 ea 08             	shr    $0x8,%edx
  403e01:	83 e2 01             	and    $0x1,%edx
  403e04:	eb 11                	jmp    0x403e17
  403e06:	0f b6 04 29          	movzbl (%ecx,%ebp,1),%eax
  403e0a:	8d 44 00 01          	lea    0x1(%eax,%eax,1),%eax
  403e0e:	8b d0                	mov    %eax,%edx
  403e10:	c1 ea 08             	shr    $0x8,%edx
  403e13:	83 e2 01             	and    $0x1,%edx
  403e16:	41                   	inc    %ecx
  403e17:	85 d2                	test   %edx,%edx
  403e19:	74 b5                	je     0x403dd0
  403e1b:	83 c7 02             	add    $0x2,%edi
  403e1e:	8b 6c 24 10          	mov    0x10(%esp),%ebp
  403e22:	ba 00 05 00 00       	mov    $0x500,%edx
  403e27:	3b d3                	cmp    %ebx,%edx
  403e29:	1b d2                	sbb    %edx,%edx
  403e2b:	f7 da                	neg    %edx
  403e2d:	03 fa                	add    %edx,%edi
  403e2f:	8b 54 24 24          	mov    0x24(%esp),%edx
  403e33:	8b f5                	mov    %ebp,%esi
  403e35:	2b f3                	sub    %ebx,%esi
  403e37:	8a 1c 16             	mov    (%esi,%edx,1),%bl
  403e3a:	03 f2                	add    %edx,%esi
  403e3c:	88 1c 2a             	mov    %bl,(%edx,%ebp,1)
  403e3f:	45                   	inc    %ebp
  403e40:	46                   	inc    %esi
  403e41:	8a 1e                	mov    (%esi),%bl
  403e43:	88 1c 2a             	mov    %bl,(%edx,%ebp,1)
  403e46:	45                   	inc    %ebp
  403e47:	46                   	inc    %esi
  403e48:	4f                   	dec    %edi
  403e49:	75 f6                	jne    0x403e41
  403e4b:	89 6c 24 10          	mov    %ebp,0x10(%esp)
  403e4f:	8b 6c 24 1c          	mov    0x1c(%esp),%ebp
  403e53:	8b 5c 24 10          	mov    0x10(%esp),%ebx
  403e57:	e9 44 fe ff ff       	jmp    0x403ca0
  403e5c:	8b 44 24 28          	mov    0x28(%esp),%eax
  403e60:	5f                   	pop    %edi
  403e61:	89 18                	mov    %ebx,(%eax)
  403e63:	8b 44 24 1c          	mov    0x1c(%esp),%eax
  403e67:	3b c8                	cmp    %eax,%ecx
  403e69:	5e                   	pop    %esi
  403e6a:	5d                   	pop    %ebp
  403e6b:	5b                   	pop    %ebx
  403e6c:	75 06                	jne    0x403e74
  403e6e:	33 c0                	xor    %eax,%eax
  403e70:	83 c4 08             	add    $0x8,%esp
  403e73:	c3                   	ret    
  403e74:	1b c0                	sbb    %eax,%eax
  403e76:	83 e0 fc             	and    $0xfffffffc,%eax
  403e79:	05 37 ff ff ff       	add    $0xffffff37,%eax
  403e7e:	83 c4 08             	add    $0x8,%esp
  403e81:	c3                   	ret    
  403e82:	cc                   	int3   
  403e83:	cc                   	int3   
  403e84:	cc                   	int3   
  403e85:	cc                   	int3   
  403e86:	cc                   	int3   
  403e87:	cc                   	int3   
  403e88:	cc                   	int3   
  403e89:	cc                   	int3   
  403e8a:	cc                   	int3   
  403e8b:	cc                   	int3   
  403e8c:	cc                   	int3   
  403e8d:	cc                   	int3   
  403e8e:	cc                   	int3   
  403e8f:	cc                   	int3   
  403e90:	8b 54 24 04          	mov    0x4(%esp),%edx
  403e94:	56                   	push   %esi
  403e95:	8b 74 24 0c          	mov    0xc(%esp),%esi
  403e99:	8b ca                	mov    %edx,%ecx
  403e9b:	33 c0                	xor    %eax,%eax
  403e9d:	0f af ce             	imul   %esi,%ecx
  403ea0:	85 d2                	test   %edx,%edx
  403ea2:	76 1d                	jbe    0x403ec1
  403ea4:	85 f6                	test   %esi,%esi
  403ea6:	76 19                	jbe    0x403ec1
  403ea8:	3b ca                	cmp    %edx,%ecx
  403eaa:	72 15                	jb     0x403ec1
  403eac:	3b ce                	cmp    %esi,%ecx
  403eae:	72 11                	jb     0x403ec1
  403eb0:	83 f9 ff             	cmp    $0xffffffff,%ecx
  403eb3:	73 0e                	jae    0x403ec3
  403eb5:	51                   	push   %ecx
  403eb6:	ff 15 7c 91 40 00    	call   *0x40917c
  403ebc:	83 c4 04             	add    $0x4,%esp
  403ebf:	5e                   	pop    %esi
  403ec0:	c3                   	ret    
  403ec1:	33 c0                	xor    %eax,%eax
  403ec3:	5e                   	pop    %esi
  403ec4:	c3                   	ret    
  403ec5:	cc                   	int3   
  403ec6:	cc                   	int3   
  403ec7:	cc                   	int3   
  403ec8:	cc                   	int3   
  403ec9:	cc                   	int3   
  403eca:	cc                   	int3   
  403ecb:	cc                   	int3   
  403ecc:	cc                   	int3   
  403ecd:	cc                   	int3   
  403ece:	cc                   	int3   
  403ecf:	cc                   	int3   
  403ed0:	8b 44 24 04          	mov    0x4(%esp),%eax
  403ed4:	85 c0                	test   %eax,%eax
  403ed6:	74 0a                	je     0x403ee2
  403ed8:	89 44 24 04          	mov    %eax,0x4(%esp)
  403edc:	ff 25 80 91 40 00    	jmp    *0x409180
  403ee2:	c3                   	ret    
  403ee3:	cc                   	int3   
  403ee4:	cc                   	int3   
  403ee5:	cc                   	int3   
  403ee6:	cc                   	int3   
  403ee7:	cc                   	int3   
  403ee8:	cc                   	int3   
  403ee9:	cc                   	int3   
  403eea:	cc                   	int3   
  403eeb:	cc                   	int3   
  403eec:	cc                   	int3   
  403eed:	cc                   	int3   
  403eee:	cc                   	int3   
  403eef:	cc                   	int3   
  403ef0:	8b 4c 24 08          	mov    0x8(%esp),%ecx
  403ef4:	56                   	push   %esi
  403ef5:	8b 74 24 08          	mov    0x8(%esp),%esi
  403ef9:	8d 44 0e ff          	lea    -0x1(%esi,%ecx,1),%eax
  403efd:	33 d2                	xor    %edx,%edx
  403eff:	f7 f1                	div    %ecx
  403f01:	0f af c1             	imul   %ecx,%eax
  403f04:	2b c6                	sub    %esi,%eax
  403f06:	5e                   	pop    %esi
  403f07:	c3                   	ret    
  403f08:	6a 1c                	push   $0x1c
  403f0a:	68 48 94 40 00       	push   $0x409448
  403f0f:	e8 9c 43 00 00       	call   0x4082b0
  403f14:	8b 75 0c             	mov    0xc(%ebp),%esi
  403f17:	33 ff                	xor    %edi,%edi
  403f19:	3b f7                	cmp    %edi,%esi
  403f1b:	0f 84 9f 00 00 00    	je     0x403fc0
  403f21:	83 7d 10 14          	cmpl   $0x14,0x10(%ebp)
  403f25:	0f 85 95 00 00 00    	jne    0x403fc0
  403f2b:	89 7e 08             	mov    %edi,0x8(%esi)
  403f2e:	89 7e 04             	mov    %edi,0x4(%esi)
  403f31:	c7 45 e4 e3 ff ff ff 	movl   $0xffffffe3,-0x1c(%ebp)
  403f38:	89 7d fc             	mov    %edi,-0x4(%ebp)
  403f3b:	ff 36                	pushl  (%esi)
  403f3d:	ff 75 08             	pushl  0x8(%ebp)
  403f40:	e8 6d 12 00 00       	call   0x4051b2
  403f45:	59                   	pop    %ecx
  403f46:	59                   	pop    %ecx
  403f47:	89 45 dc             	mov    %eax,-0x24(%ebp)
  403f4a:	3b c7                	cmp    %edi,%eax
  403f4c:	75 08                	jne    0x403f56
  403f4e:	83 4d fc ff          	orl    $0xffffffff,-0x4(%ebp)
  403f52:	6a ec                	push   $0xffffffec
  403f54:	eb 6c                	jmp    0x403fc2
  403f56:	8b 88 08 01 00 00    	mov    0x108(%eax),%ecx
  403f5c:	89 4d d8             	mov    %ecx,-0x28(%ebp)
  403f5f:	ba 20 02 00 00       	mov    $0x220,%edx
  403f64:	89 7d e0             	mov    %edi,-0x20(%ebp)
  403f67:	3b 79 30             	cmp    0x30(%ecx),%edi
  403f6a:	73 4b                	jae    0x403fb7
  403f6c:	8b 41 48             	mov    0x48(%ecx),%eax
  403f6f:	8b 04 f8             	mov    (%eax,%edi,8),%eax
  403f72:	89 45 d4             	mov    %eax,-0x2c(%ebp)
  403f75:	80 78 01 02          	cmpb   $0x2,0x1(%eax)
  403f79:	72 23                	jb     0x403f9e
  403f7b:	83 78 08 20          	cmpl   $0x20,0x8(%eax)
  403f7f:	75 1d                	jne    0x403f9e
  403f81:	83 c0 0c             	add    $0xc,%eax
  403f84:	8b 18                	mov    (%eax),%ebx
  403f86:	81 e3 f0 0f 00 00    	and    $0xff0,%ebx
  403f8c:	3b da                	cmp    %edx,%ebx
  403f8e:	75 0e                	jne    0x403f9e
  403f90:	89 46 04             	mov    %eax,0x4(%esi)
  403f93:	8b 18                	mov    (%eax),%ebx
  403f95:	89 5e 08             	mov    %ebx,0x8(%esi)
  403f98:	89 10                	mov    %edx,(%eax)
  403f9a:	83 65 e4 00          	andl   $0x0,-0x1c(%ebp)
  403f9e:	81 ff e8 03 00 00    	cmp    $0x3e8,%edi
  403fa4:	77 11                	ja     0x403fb7
  403fa6:	47                   	inc    %edi
  403fa7:	eb bb                	jmp    0x403f64
  403fa9:	33 c0                	xor    %eax,%eax
  403fab:	40                   	inc    %eax
  403fac:	c3                   	ret    
  403fad:	8b 65 e8             	mov    -0x18(%ebp),%esp
  403fb0:	c7 45 e4 e4 ff ff ff 	movl   $0xffffffe4,-0x1c(%ebp)
  403fb7:	83 4d fc ff          	orl    $0xffffffff,-0x4(%ebp)
  403fbb:	8b 45 e4             	mov    -0x1c(%ebp),%eax
  403fbe:	eb 03                	jmp    0x403fc3
  403fc0:	6a 57                	push   $0x57
  403fc2:	58                   	pop    %eax
  403fc3:	e8 21 43 00 00       	call   0x4082e9
  403fc8:	c3                   	ret    
  403fc9:	6a 1c                	push   $0x1c
  403fcb:	68 58 94 40 00       	push   $0x409458
  403fd0:	e8 db 42 00 00       	call   0x4082b0
  403fd5:	8b 75 0c             	mov    0xc(%ebp),%esi
  403fd8:	33 ff                	xor    %edi,%edi
  403fda:	3b f7                	cmp    %edi,%esi
  403fdc:	0f 84 9f 00 00 00    	je     0x404081
  403fe2:	83 7d 10 14          	cmpl   $0x14,0x10(%ebp)
  403fe6:	0f 85 95 00 00 00    	jne    0x404081
  403fec:	89 7e 08             	mov    %edi,0x8(%esi)
  403fef:	89 7e 04             	mov    %edi,0x4(%esi)
  403ff2:	c7 45 e4 e3 ff ff ff 	movl   $0xffffffe3,-0x1c(%ebp)
  403ff9:	89 7d fc             	mov    %edi,-0x4(%ebp)
  403ffc:	ff 36                	pushl  (%esi)
  403ffe:	ff 75 08             	pushl  0x8(%ebp)
  404001:	e8 ac 11 00 00       	call   0x4051b2
  404006:	59                   	pop    %ecx
  404007:	59                   	pop    %ecx
  404008:	89 45 dc             	mov    %eax,-0x24(%ebp)
  40400b:	3b c7                	cmp    %edi,%eax
  40400d:	75 08                	jne    0x404017
  40400f:	83 4d fc ff          	orl    $0xffffffff,-0x4(%ebp)
  404013:	6a ec                	push   $0xffffffec
  404015:	eb 6c                	jmp    0x404083
  404017:	8b 88 2c 01 00 00    	mov    0x12c(%eax),%ecx
  40401d:	89 4d d8             	mov    %ecx,-0x28(%ebp)
  404020:	ba 20 02 00 00       	mov    $0x220,%edx
  404025:	89 7d e0             	mov    %edi,-0x20(%ebp)
  404028:	3b 79 3c             	cmp    0x3c(%ecx),%edi
  40402b:	73 4b                	jae    0x404078
  40402d:	8b 41 58             	mov    0x58(%ecx),%eax
  404030:	8b 04 f8             	mov    (%eax,%edi,8),%eax
  404033:	89 45 d4             	mov    %eax,-0x2c(%ebp)
  404036:	80 78 01 02          	cmpb   $0x2,0x1(%eax)
  40403a:	72 23                	jb     0x40405f
  40403c:	83 78 08 20          	cmpl   $0x20,0x8(%eax)
  404040:	75 1d                	jne    0x40405f
  404042:	83 c0 0c             	add    $0xc,%eax
  404045:	8b 18                	mov    (%eax),%ebx
  404047:	81 e3 f0 0f 00 00    	and    $0xff0,%ebx
  40404d:	3b da                	cmp    %edx,%ebx
  40404f:	75 0e                	jne    0x40405f
  404051:	89 46 04             	mov    %eax,0x4(%esi)
  404054:	8b 18                	mov    (%eax),%ebx
  404056:	89 5e 08             	mov    %ebx,0x8(%esi)
  404059:	89 10                	mov    %edx,(%eax)
  40405b:	83 65 e4 00          	andl   $0x0,-0x1c(%ebp)
  40405f:	81 ff e8 03 00 00    	cmp    $0x3e8,%edi
  404065:	77 11                	ja     0x404078
  404067:	47                   	inc    %edi
  404068:	eb bb                	jmp    0x404025
  40406a:	33 c0                	xor    %eax,%eax
  40406c:	40                   	inc    %eax
  40406d:	c3                   	ret    
  40406e:	8b 65 e8             	mov    -0x18(%ebp),%esp
  404071:	c7 45 e4 e4 ff ff ff 	movl   $0xffffffe4,-0x1c(%ebp)
  404078:	83 4d fc ff          	orl    $0xffffffff,-0x4(%ebp)
  40407c:	8b 45 e4             	mov    -0x1c(%ebp),%eax
  40407f:	eb 03                	jmp    0x404084
  404081:	6a 57                	push   $0x57
  404083:	58                   	pop    %eax
  404084:	e8 60 42 00 00       	call   0x4082e9
  404089:	c3                   	ret    
  40408a:	6a 28                	push   $0x28
  40408c:	68 98 94 40 00       	push   $0x409498
  404091:	e8 1a 42 00 00       	call   0x4082b0
  404096:	8b 75 0c             	mov    0xc(%ebp),%esi
  404099:	33 db                	xor    %ebx,%ebx
  40409b:	3b f3                	cmp    %ebx,%esi
  40409d:	0f 84 0b 01 00 00    	je     0x4041ae
  4040a3:	83 7d 10 14          	cmpl   $0x14,0x10(%ebp)
  4040a7:	0f 85 01 01 00 00    	jne    0x4041ae
  4040ad:	89 5e 08             	mov    %ebx,0x8(%esi)
  4040b0:	89 5e 04             	mov    %ebx,0x4(%esi)
  4040b3:	c7 45 e4 e3 ff ff ff 	movl   $0xffffffe3,-0x1c(%ebp)
  4040ba:	89 5d fc             	mov    %ebx,-0x4(%ebp)
  4040bd:	ff 36                	pushl  (%esi)
  4040bf:	ff 75 08             	pushl  0x8(%ebp)
  4040c2:	e8 eb 10 00 00       	call   0x4051b2
  4040c7:	59                   	pop    %ecx
  4040c8:	59                   	pop    %ecx
  4040c9:	89 45 dc             	mov    %eax,-0x24(%ebp)
  4040cc:	3b c3                	cmp    %ebx,%eax
  4040ce:	75 04                	jne    0x4040d4
  4040d0:	6a ec                	push   $0xffffffec
  4040d2:	eb 43                	jmp    0x404117
  4040d4:	68 80 94 40 00       	push   $0x409480
  4040d9:	ff 75 08             	pushl  0x8(%ebp)
  4040dc:	e8 90 12 00 00       	call   0x405371
  4040e1:	89 45 e0             	mov    %eax,-0x20(%ebp)
  4040e4:	68 64 94 40 00       	push   $0x409464
  4040e9:	ff 75 08             	pushl  0x8(%ebp)
  4040ec:	e8 80 12 00 00       	call   0x405371
  4040f1:	83 c4 10             	add    $0x10,%esp
  4040f4:	89 45 d4             	mov    %eax,-0x2c(%ebp)
  4040f7:	39 5d e0             	cmp    %ebx,-0x20(%ebp)
  4040fa:	0f 84 93 00 00 00    	je     0x404193
  404100:	3b c3                	cmp    %ebx,%eax
  404102:	0f 84 8b 00 00 00    	je     0x404193
  404108:	ff 75 dc             	pushl  -0x24(%ebp)
  40410b:	ff 55 e0             	call   *-0x20(%ebp)
  40410e:	89 45 d0             	mov    %eax,-0x30(%ebp)
  404111:	3b c3                	cmp    %ebx,%eax
  404113:	75 0c                	jne    0x404121
  404115:	6a e1                	push   $0xffffffe1
  404117:	58                   	pop    %eax
  404118:	83 4d fc ff          	orl    $0xffffffff,-0x4(%ebp)
  40411c:	e9 90 00 00 00       	jmp    0x4041b1
  404121:	c7 45 fc 01 00 00 00 	movl   $0x1,-0x4(%ebp)
  404128:	8b f8                	mov    %eax,%edi
  40412a:	89 7d cc             	mov    %edi,-0x34(%ebp)
  40412d:	33 d2                	xor    %edx,%edx
  40412f:	b9 20 02 00 00       	mov    $0x220,%ecx
  404134:	89 55 d8             	mov    %edx,-0x28(%ebp)
  404137:	3b 57 40             	cmp    0x40(%edi),%edx
  40413a:	73 3d                	jae    0x404179
  40413c:	8b 47 5c             	mov    0x5c(%edi),%eax
  40413f:	8b 04 d0             	mov    (%eax,%edx,8),%eax
  404142:	89 45 c8             	mov    %eax,-0x38(%ebp)
  404145:	80 78 01 02          	cmpb   $0x2,0x1(%eax)
  404149:	72 23                	jb     0x40416e
  40414b:	83 78 08 20          	cmpl   $0x20,0x8(%eax)
  40414f:	75 1d                	jne    0x40416e
  404151:	83 c0 0c             	add    $0xc,%eax
  404154:	8b 18                	mov    (%eax),%ebx
  404156:	81 e3 f0 0f 00 00    	and    $0xff0,%ebx
  40415c:	3b d9                	cmp    %ecx,%ebx
  40415e:	75 0e                	jne    0x40416e
  404160:	89 46 04             	mov    %eax,0x4(%esi)
  404163:	8b 18                	mov    (%eax),%ebx
  404165:	89 5e 08             	mov    %ebx,0x8(%esi)
  404168:	89 08                	mov    %ecx,(%eax)
  40416a:	83 65 e4 00          	andl   $0x0,-0x1c(%ebp)
  40416e:	81 fa e8 03 00 00    	cmp    $0x3e8,%edx
  404174:	77 03                	ja     0x404179
  404176:	42                   	inc    %edx
  404177:	eb bb                	jmp    0x404134
  404179:	83 65 fc 00          	andl   $0x0,-0x4(%ebp)
  40417d:	e8 02 00 00 00       	call   0x404184
  404182:	eb 21                	jmp    0x4041a5
  404184:	8b 45 dc             	mov    -0x24(%ebp),%eax
  404187:	05 c8 00 00 00       	add    $0xc8,%eax
  40418c:	50                   	push   %eax
  40418d:	ff 55 d4             	call   *-0x2c(%ebp)
  404190:	c3                   	ret    
  404191:	eb 12                	jmp    0x4041a5
  404193:	6a e0                	push   $0xffffffe0
  404195:	eb 80                	jmp    0x404117
  404197:	33 c0                	xor    %eax,%eax
  404199:	40                   	inc    %eax
  40419a:	c3                   	ret    
  40419b:	8b 65 e8             	mov    -0x18(%ebp),%esp
  40419e:	c7 45 e4 e4 ff ff ff 	movl   $0xffffffe4,-0x1c(%ebp)
  4041a5:	83 4d fc ff          	orl    $0xffffffff,-0x4(%ebp)
  4041a9:	8b 45 e4             	mov    -0x1c(%ebp),%eax
  4041ac:	eb 03                	jmp    0x4041b1
  4041ae:	6a 57                	push   $0x57
  4041b0:	58                   	pop    %eax
  4041b1:	e8 33 41 00 00       	call   0x4082e9
  4041b6:	c3                   	ret    
  4041b7:	6a 28                	push   $0x28
  4041b9:	68 b0 94 40 00       	push   $0x4094b0
  4041be:	e8 ed 40 00 00       	call   0x4082b0
  4041c3:	8b 75 0c             	mov    0xc(%ebp),%esi
  4041c6:	33 db                	xor    %ebx,%ebx
  4041c8:	3b f3                	cmp    %ebx,%esi
  4041ca:	0f 84 0b 01 00 00    	je     0x4042db
  4041d0:	83 7d 10 14          	cmpl   $0x14,0x10(%ebp)
  4041d4:	0f 85 01 01 00 00    	jne    0x4042db
  4041da:	89 5e 08             	mov    %ebx,0x8(%esi)
  4041dd:	89 5e 04             	mov    %ebx,0x4(%esi)
  4041e0:	c7 45 e4 e3 ff ff ff 	movl   $0xffffffe3,-0x1c(%ebp)
  4041e7:	89 5d fc             	mov    %ebx,-0x4(%ebp)
  4041ea:	ff 36                	pushl  (%esi)
  4041ec:	ff 75 08             	pushl  0x8(%ebp)
  4041ef:	e8 be 0f 00 00       	call   0x4051b2
  4041f4:	59                   	pop    %ecx
  4041f5:	59                   	pop    %ecx
  4041f6:	89 45 dc             	mov    %eax,-0x24(%ebp)
  4041f9:	3b c3                	cmp    %ebx,%eax
  4041fb:	75 04                	jne    0x404201
  4041fd:	6a ec                	push   $0xffffffec
  4041ff:	eb 43                	jmp    0x404244
  404201:	68 80 94 40 00       	push   $0x409480
  404206:	ff 75 08             	pushl  0x8(%ebp)
  404209:	e8 63 11 00 00       	call   0x405371
  40420e:	89 45 e0             	mov    %eax,-0x20(%ebp)
  404211:	68 64 94 40 00       	push   $0x409464
  404216:	ff 75 08             	pushl  0x8(%ebp)
  404219:	e8 53 11 00 00       	call   0x405371
  40421e:	83 c4 10             	add    $0x10,%esp
  404221:	89 45 d4             	mov    %eax,-0x2c(%ebp)
  404224:	39 5d e0             	cmp    %ebx,-0x20(%ebp)
  404227:	0f 84 93 00 00 00    	je     0x4042c0
  40422d:	3b c3                	cmp    %ebx,%eax
  40422f:	0f 84 8b 00 00 00    	je     0x4042c0
  404235:	ff 75 dc             	pushl  -0x24(%ebp)
  404238:	ff 55 e0             	call   *-0x20(%ebp)
  40423b:	89 45 d0             	mov    %eax,-0x30(%ebp)
  40423e:	3b c3                	cmp    %ebx,%eax
  404240:	75 0c                	jne    0x40424e
  404242:	6a e1                	push   $0xffffffe1
  404244:	58                   	pop    %eax
  404245:	83 4d fc ff          	orl    $0xffffffff,-0x4(%ebp)
  404249:	e9 90 00 00 00       	jmp    0x4042de
  40424e:	c7 45 fc 01 00 00 00 	movl   $0x1,-0x4(%ebp)
  404255:	8b f8                	mov    %eax,%edi
  404257:	89 7d cc             	mov    %edi,-0x34(%ebp)
  40425a:	33 d2                	xor    %edx,%edx
  40425c:	b9 20 02 00 00       	mov    $0x220,%ecx
  404261:	89 55 d8             	mov    %edx,-0x28(%ebp)
  404264:	3b 57 4c             	cmp    0x4c(%edi),%edx
  404267:	73 3d                	jae    0x4042a6
  404269:	8b 47 68             	mov    0x68(%edi),%eax
  40426c:	8b 04 d0             	mov    (%eax,%edx,8),%eax
  40426f:	89 45 c8             	mov    %eax,-0x38(%ebp)
  404272:	80 78 01 02          	cmpb   $0x2,0x1(%eax)
  404276:	72 23                	jb     0x40429b
  404278:	83 78 08 20          	cmpl   $0x20,0x8(%eax)
  40427c:	75 1d                	jne    0x40429b
  40427e:	83 c0 0c             	add    $0xc,%eax
  404281:	8b 18                	mov    (%eax),%ebx
  404283:	81 e3 f0 0f 00 00    	and    $0xff0,%ebx
  404289:	3b d9                	cmp    %ecx,%ebx
  40428b:	75 0e                	jne    0x40429b
  40428d:	89 46 04             	mov    %eax,0x4(%esi)
  404290:	8b 18                	mov    (%eax),%ebx
  404292:	89 5e 08             	mov    %ebx,0x8(%esi)
  404295:	89 08                	mov    %ecx,(%eax)
  404297:	83 65 e4 00          	andl   $0x0,-0x1c(%ebp)
  40429b:	81 fa e8 03 00 00    	cmp    $0x3e8,%edx
  4042a1:	77 03                	ja     0x4042a6
  4042a3:	42                   	inc    %edx
  4042a4:	eb bb                	jmp    0x404261
  4042a6:	83 65 fc 00          	andl   $0x0,-0x4(%ebp)
  4042aa:	e8 02 00 00 00       	call   0x4042b1
  4042af:	eb 21                	jmp    0x4042d2
  4042b1:	8b 45 dc             	mov    -0x24(%ebp),%eax
  4042b4:	05 c8 00 00 00       	add    $0xc8,%eax
  4042b9:	50                   	push   %eax
  4042ba:	ff 55 d4             	call   *-0x2c(%ebp)
  4042bd:	c3                   	ret    
  4042be:	eb 12                	jmp    0x4042d2
  4042c0:	6a e0                	push   $0xffffffe0
  4042c2:	eb 80                	jmp    0x404244
  4042c4:	33 c0                	xor    %eax,%eax
  4042c6:	40                   	inc    %eax
  4042c7:	c3                   	ret    
  4042c8:	8b 65 e8             	mov    -0x18(%ebp),%esp
  4042cb:	c7 45 e4 e4 ff ff ff 	movl   $0xffffffe4,-0x1c(%ebp)
  4042d2:	83 4d fc ff          	orl    $0xffffffff,-0x4(%ebp)
  4042d6:	8b 45 e4             	mov    -0x1c(%ebp),%eax
  4042d9:	eb 03                	jmp    0x4042de
  4042db:	6a 57                	push   $0x57
  4042dd:	58                   	pop    %eax
  4042de:	e8 06 40 00 00       	call   0x4082e9
  4042e3:	c3                   	ret    
  4042e4:	6a 28                	push   $0x28
  4042e6:	68 c8 94 40 00       	push   $0x4094c8
  4042eb:	e8 c0 3f 00 00       	call   0x4082b0
  4042f0:	8b 75 0c             	mov    0xc(%ebp),%esi
  4042f3:	33 db                	xor    %ebx,%ebx
  4042f5:	3b f3                	cmp    %ebx,%esi
  4042f7:	0f 84 0b 01 00 00    	je     0x404408
  4042fd:	83 7d 10 14          	cmpl   $0x14,0x10(%ebp)
  404301:	0f 85 01 01 00 00    	jne    0x404408
  404307:	89 5e 08             	mov    %ebx,0x8(%esi)
  40430a:	89 5e 04             	mov    %ebx,0x4(%esi)
  40430d:	c7 45 e4 e3 ff ff ff 	movl   $0xffffffe3,-0x1c(%ebp)
  404314:	89 5d fc             	mov    %ebx,-0x4(%ebp)
  404317:	ff 36                	pushl  (%esi)
  404319:	ff 75 08             	pushl  0x8(%ebp)
  40431c:	e8 91 0e 00 00       	call   0x4051b2
  404321:	59                   	pop    %ecx
  404322:	59                   	pop    %ecx
  404323:	89 45 dc             	mov    %eax,-0x24(%ebp)
  404326:	3b c3                	cmp    %ebx,%eax
  404328:	75 04                	jne    0x40432e
  40432a:	6a ec                	push   $0xffffffec
  40432c:	eb 43                	jmp    0x404371
  40432e:	68 80 94 40 00       	push   $0x409480
  404333:	ff 75 08             	pushl  0x8(%ebp)
  404336:	e8 36 10 00 00       	call   0x405371
  40433b:	89 45 e0             	mov    %eax,-0x20(%ebp)
  40433e:	68 64 94 40 00       	push   $0x409464
  404343:	ff 75 08             	pushl  0x8(%ebp)
  404346:	e8 26 10 00 00       	call   0x405371
  40434b:	83 c4 10             	add    $0x10,%esp
  40434e:	89 45 d4             	mov    %eax,-0x2c(%ebp)
  404351:	39 5d e0             	cmp    %ebx,-0x20(%ebp)
  404354:	0f 84 93 00 00 00    	je     0x4043ed
  40435a:	3b c3                	cmp    %ebx,%eax
  40435c:	0f 84 8b 00 00 00    	je     0x4043ed
  404362:	ff 75 dc             	pushl  -0x24(%ebp)
  404365:	ff 55 e0             	call   *-0x20(%ebp)
  404368:	89 45 d0             	mov    %eax,-0x30(%ebp)
  40436b:	3b c3                	cmp    %ebx,%eax
  40436d:	75 0c                	jne    0x40437b
  40436f:	6a e1                	push   $0xffffffe1
  404371:	58                   	pop    %eax
  404372:	83 4d fc ff          	orl    $0xffffffff,-0x4(%ebp)
  404376:	e9 90 00 00 00       	jmp    0x40440b
  40437b:	c7 45 fc 01 00 00 00 	movl   $0x1,-0x4(%ebp)
  404382:	8b f8                	mov    %eax,%edi
  404384:	89 7d cc             	mov    %edi,-0x34(%ebp)
  404387:	33 d2                	xor    %edx,%edx
  404389:	b9 20 02 00 00       	mov    $0x220,%ecx
  40438e:	89 55 d8             	mov    %edx,-0x28(%ebp)
  404391:	3b 57 4c             	cmp    0x4c(%edi),%edx
  404394:	73 3d                	jae    0x4043d3
  404396:	8b 47 68             	mov    0x68(%edi),%eax
  404399:	8b 04 d0             	mov    (%eax,%edx,8),%eax
  40439c:	89 45 c8             	mov    %eax,-0x38(%ebp)
  40439f:	80 78 01 02          	cmpb   $0x2,0x1(%eax)
  4043a3:	72 23                	jb     0x4043c8
  4043a5:	83 78 08 20          	cmpl   $0x20,0x8(%eax)
  4043a9:	75 1d                	jne    0x4043c8
  4043ab:	83 c0 0c             	add    $0xc,%eax
  4043ae:	8b 18                	mov    (%eax),%ebx
  4043b0:	81 e3 f0 0f 00 00    	and    $0xff0,%ebx
  4043b6:	3b d9                	cmp    %ecx,%ebx
  4043b8:	75 0e                	jne    0x4043c8
  4043ba:	89 46 04             	mov    %eax,0x4(%esi)
  4043bd:	8b 18                	mov    (%eax),%ebx
  4043bf:	89 5e 08             	mov    %ebx,0x8(%esi)
  4043c2:	89 08                	mov    %ecx,(%eax)
  4043c4:	83 65 e4 00          	andl   $0x0,-0x1c(%ebp)
  4043c8:	81 fa e8 03 00 00    	cmp    $0x3e8,%edx
  4043ce:	77 03                	ja     0x4043d3
  4043d0:	42                   	inc    %edx
  4043d1:	eb bb                	jmp    0x40438e
  4043d3:	83 65 fc 00          	andl   $0x0,-0x4(%ebp)
  4043d7:	e8 02 00 00 00       	call   0x4043de
  4043dc:	eb 21                	jmp    0x4043ff
  4043de:	8b 45 dc             	mov    -0x24(%ebp),%eax
  4043e1:	05 d8 00 00 00       	add    $0xd8,%eax
  4043e6:	50                   	push   %eax
  4043e7:	ff 55 d4             	call   *-0x2c(%ebp)
  4043ea:	c3                   	ret    
  4043eb:	eb 12                	jmp    0x4043ff
  4043ed:	6a e0                	push   $0xffffffe0
  4043ef:	eb 80                	jmp    0x404371
  4043f1:	33 c0                	xor    %eax,%eax
  4043f3:	40                   	inc    %eax
  4043f4:	c3                   	ret    
  4043f5:	8b 65 e8             	mov    -0x18(%ebp),%esp
  4043f8:	c7 45 e4 e4 ff ff ff 	movl   $0xffffffe4,-0x1c(%ebp)
  4043ff:	83 4d fc ff          	orl    $0xffffffff,-0x4(%ebp)
  404403:	8b 45 e4             	mov    -0x1c(%ebp),%eax
  404406:	eb 03                	jmp    0x40440b
  404408:	6a 57                	push   $0x57
  40440a:	58                   	pop    %eax
  40440b:	e8 d9 3e 00 00       	call   0x4082e9
  404410:	c3                   	ret    
  404411:	6a 30                	push   $0x30
  404413:	68 f8 94 40 00       	push   $0x4094f8
  404418:	e8 93 3e 00 00       	call   0x4082b0
  40441d:	8b 75 0c             	mov    0xc(%ebp),%esi
  404420:	33 db                	xor    %ebx,%ebx
  404422:	3b f3                	cmp    %ebx,%esi
  404424:	0f 84 06 02 00 00    	je     0x404630
  40442a:	83 7d 10 14          	cmpl   $0x14,0x10(%ebp)
  40442e:	0f 85 fc 01 00 00    	jne    0x404630
  404434:	89 5e 08             	mov    %ebx,0x8(%esi)
  404437:	89 5e 04             	mov    %ebx,0x4(%esi)
  40443a:	89 5e 10             	mov    %ebx,0x10(%esi)
  40443d:	89 5e 0c             	mov    %ebx,0xc(%esi)
  404440:	c7 45 e4 e3 ff ff ff 	movl   $0xffffffe3,-0x1c(%ebp)
  404447:	89 5d fc             	mov    %ebx,-0x4(%ebp)
  40444a:	ff 36                	pushl  (%esi)
  40444c:	ff 75 08             	pushl  0x8(%ebp)
  40444f:	e8 5e 0d 00 00       	call   0x4051b2
  404454:	59                   	pop    %ecx
  404455:	59                   	pop    %ecx
  404456:	89 45 d8             	mov    %eax,-0x28(%ebp)
  404459:	3b c3                	cmp    %ebx,%eax
  40445b:	75 04                	jne    0x404461
  40445d:	6a ec                	push   $0xffffffec
  40445f:	eb 43                	jmp    0x4044a4
  404461:	68 80 94 40 00       	push   $0x409480
  404466:	ff 75 08             	pushl  0x8(%ebp)
  404469:	e8 03 0f 00 00       	call   0x405371
  40446e:	89 45 dc             	mov    %eax,-0x24(%ebp)
  404471:	68 64 94 40 00       	push   $0x409464
  404476:	ff 75 08             	pushl  0x8(%ebp)
  404479:	e8 f3 0e 00 00       	call   0x405371
  40447e:	83 c4 10             	add    $0x10,%esp
  404481:	89 45 d4             	mov    %eax,-0x2c(%ebp)
  404484:	39 5d dc             	cmp    %ebx,-0x24(%ebp)
  404487:	0f 84 85 01 00 00    	je     0x404612
  40448d:	3b c3                	cmp    %ebx,%eax
  40448f:	0f 84 7d 01 00 00    	je     0x404612
  404495:	ff 75 d8             	pushl  -0x28(%ebp)
  404498:	ff 55 dc             	call   *-0x24(%ebp)
  40449b:	89 45 d0             	mov    %eax,-0x30(%ebp)
  40449e:	3b c3                	cmp    %ebx,%eax
  4044a0:	75 0c                	jne    0x4044ae
  4044a2:	6a e1                	push   $0xffffffe1
  4044a4:	58                   	pop    %eax
  4044a5:	83 4d fc ff          	orl    $0xffffffff,-0x4(%ebp)
  4044a9:	e9 85 01 00 00       	jmp    0x404633
  4044ae:	c7 45 fc 01 00 00 00 	movl   $0x1,-0x4(%ebp)
  4044b5:	8b f8                	mov    %eax,%edi
  4044b7:	89 7d cc             	mov    %edi,-0x34(%ebp)
  4044ba:	33 d2                	xor    %edx,%edx
  4044bc:	89 55 e0             	mov    %edx,-0x20(%ebp)
  4044bf:	3b 57 78             	cmp    0x78(%edi),%edx
  4044c2:	73 67                	jae    0x40452b
  4044c4:	8b c2                	mov    %edx,%eax
  4044c6:	c1 e0 03             	shl    $0x3,%eax
  4044c9:	8b 8f 90 00 00 00    	mov    0x90(%edi),%ecx
  4044cf:	8b 0c 08             	mov    (%eax,%ecx,1),%ecx
  4044d2:	89 4d c8             	mov    %ecx,-0x38(%ebp)
  4044d5:	80 79 01 02          	cmpb   $0x2,0x1(%ecx)
  4044d9:	0f 82 f2 00 00 00    	jb     0x4045d1
  4044df:	83 79 08 20          	cmpl   $0x20,0x8(%ecx)
  4044e3:	0f 85 e8 00 00 00    	jne    0x4045d1
  4044e9:	83 c1 0c             	add    $0xc,%ecx
  4044ec:	81 39 20 02 00 00    	cmpl   $0x220,(%ecx)
  4044f2:	0f 85 d9 00 00 00    	jne    0x4045d1
  4044f8:	89 4e 04             	mov    %ecx,0x4(%esi)
  4044fb:	8b 09                	mov    (%ecx),%ecx
  4044fd:	89 4e 08             	mov    %ecx,0x8(%esi)
  404500:	8b 8f 90 00 00 00    	mov    0x90(%edi),%ecx
  404506:	8d 4c 08 04          	lea    0x4(%eax,%ecx,1),%ecx
  40450a:	89 4e 0c             	mov    %ecx,0xc(%esi)
  40450d:	8b 8f 90 00 00 00    	mov    0x90(%edi),%ecx
  404513:	8b 4c 08 04          	mov    0x4(%eax,%ecx,1),%ecx
  404517:	89 4e 10             	mov    %ecx,0x10(%esi)
  40451a:	8b 8f 90 00 00 00    	mov    0x90(%edi),%ecx
  404520:	c7 44 08 04 07 00 00 	movl   $0x7,0x4(%eax,%ecx,1)
  404527:	00 
  404528:	89 5d e4             	mov    %ebx,-0x1c(%ebp)
  40452b:	39 5d e4             	cmp    %ebx,-0x1c(%ebp)
  40452e:	74 7a                	je     0x4045aa
  404530:	33 d2                	xor    %edx,%edx
  404532:	89 55 e0             	mov    %edx,-0x20(%ebp)
  404535:	3b 57 78             	cmp    0x78(%edi),%edx
  404538:	73 6b                	jae    0x4045a5
  40453a:	8b c2                	mov    %edx,%eax
  40453c:	c1 e0 03             	shl    $0x3,%eax
  40453f:	8b 8f 90 00 00 00    	mov    0x90(%edi),%ecx
  404545:	8b 0c 08             	mov    (%eax,%ecx,1),%ecx
  404548:	89 4d c4             	mov    %ecx,-0x3c(%ebp)
  40454b:	80 79 01 02          	cmpb   $0x2,0x1(%ecx)
  40454f:	0f 82 84 00 00 00    	jb     0x4045d9
  404555:	83 79 08 20          	cmpl   $0x20,0x8(%ecx)
  404559:	75 7e                	jne    0x4045d9
  40455b:	83 c1 0c             	add    $0xc,%ecx
  40455e:	8b 19                	mov    (%ecx),%ebx
  404560:	81 e3 f0 0f 00 00    	and    $0xff0,%ebx
  404566:	81 fb 20 02 00 00    	cmp    $0x220,%ebx
  40456c:	75 69                	jne    0x4045d7
  40456e:	89 4e 04             	mov    %ecx,0x4(%esi)
  404571:	8b 11                	mov    (%ecx),%edx
  404573:	89 56 08             	mov    %edx,0x8(%esi)
  404576:	8b 97 90 00 00 00    	mov    0x90(%edi),%edx
  40457c:	8d 54 10 04          	lea    0x4(%eax,%edx,1),%edx
  404580:	89 56 0c             	mov    %edx,0xc(%esi)
  404583:	8b 97 90 00 00 00    	mov    0x90(%edi),%edx
  404589:	8b 54 10 04          	mov    0x4(%eax,%edx,1),%edx
  40458d:	89 56 10             	mov    %edx,0x10(%esi)
  404590:	89 19                	mov    %ebx,(%ecx)
  404592:	8b 8f 90 00 00 00    	mov    0x90(%edi),%ecx
  404598:	c7 44 08 04 07 00 00 	movl   $0x7,0x4(%eax,%ecx,1)
  40459f:	00 
  4045a0:	33 db                	xor    %ebx,%ebx
  4045a2:	89 5d e4             	mov    %ebx,-0x1c(%ebp)
  4045a5:	39 5d e4             	cmp    %ebx,-0x1c(%ebp)
  4045a8:	75 4f                	jne    0x4045f9
  4045aa:	68 e0 94 40 00       	push   $0x4094e0
  4045af:	ff 75 08             	pushl  0x8(%ebp)
  4045b2:	e8 ba 0d 00 00       	call   0x405371
  4045b7:	59                   	pop    %ecx
  4045b8:	59                   	pop    %ecx
  4045b9:	89 45 c0             	mov    %eax,-0x40(%ebp)
  4045bc:	3b c3                	cmp    %ebx,%eax
  4045be:	75 27                	jne    0x4045e7
  4045c0:	6a ff                	push   $0xffffffff
  4045c2:	8d 45 f0             	lea    -0x10(%ebp),%eax
  4045c5:	50                   	push   %eax
  4045c6:	e8 2f 3d 00 00       	call   0x4082fa
  4045cb:	59                   	pop    %ecx
  4045cc:	59                   	pop    %ecx
  4045cd:	6a e0                	push   $0xffffffe0
  4045cf:	eb 61                	jmp    0x404632
  4045d1:	42                   	inc    %edx
  4045d2:	e9 e5 fe ff ff       	jmp    0x4044bc
  4045d7:	33 db                	xor    %ebx,%ebx
  4045d9:	81 fa e8 03 00 00    	cmp    $0x3e8,%edx
  4045df:	77 c4                	ja     0x4045a5
  4045e1:	42                   	inc    %edx
  4045e2:	e9 4b ff ff ff       	jmp    0x404532
  4045e7:	8d 8f d0 00 00 00    	lea    0xd0(%edi),%ecx
  4045ed:	51                   	push   %ecx
  4045ee:	ff 77 78             	pushl  0x78(%edi)
  4045f1:	ff b7 90 00 00 00    	pushl  0x90(%edi)
  4045f7:	ff d0                	call   *%eax
  4045f9:	89 5d fc             	mov    %ebx,-0x4(%ebp)
  4045fc:	e8 02 00 00 00       	call   0x404603
  404601:	eb 24                	jmp    0x404627
  404603:	8b 45 d8             	mov    -0x28(%ebp),%eax
  404606:	05 e0 00 00 00       	add    $0xe0,%eax
  40460b:	50                   	push   %eax
  40460c:	ff 55 d4             	call   *-0x2c(%ebp)
  40460f:	c3                   	ret    
  404610:	eb 15                	jmp    0x404627
  404612:	6a e0                	push   $0xffffffe0
  404614:	e9 8b fe ff ff       	jmp    0x4044a4
  404619:	33 c0                	xor    %eax,%eax
  40461b:	40                   	inc    %eax
  40461c:	c3                   	ret    
  40461d:	8b 65 e8             	mov    -0x18(%ebp),%esp
  404620:	c7 45 e4 e4 ff ff ff 	movl   $0xffffffe4,-0x1c(%ebp)
  404627:	83 4d fc ff          	orl    $0xffffffff,-0x4(%ebp)
  40462b:	8b 45 e4             	mov    -0x1c(%ebp),%eax
  40462e:	eb 03                	jmp    0x404633
  404630:	6a 57                	push   $0x57
  404632:	58                   	pop    %eax
  404633:	e8 b1 3c 00 00       	call   0x4082e9
  404638:	c3                   	ret    
  404639:	55                   	push   %ebp
  40463a:	8d 6c 24 90          	lea    -0x70(%esp),%ebp
  40463e:	81 ec b4 00 00 00    	sub    $0xb4,%esp
  404644:	8b 45 7c             	mov    0x7c(%ebp),%eax
  404647:	85 c0                	test   %eax,%eax
  404649:	75 08                	jne    0x404653
  40464b:	6a 57                	push   $0x57
  40464d:	58                   	pop    %eax
  40464e:	e9 1d 01 00 00       	jmp    0x404770
  404653:	83 20 00             	andl   $0x0,(%eax)
  404656:	56                   	push   %esi
  404657:	8b 75 78             	mov    0x78(%ebp),%esi
  40465a:	83 fe 0a             	cmp    $0xa,%esi
  40465d:	73 08                	jae    0x404667
  40465f:	6a e6                	push   $0xffffffe6
  404661:	58                   	pop    %eax
  404662:	e9 08 01 00 00       	jmp    0x40476f
  404667:	53                   	push   %ebx
  404668:	57                   	push   %edi
  404669:	6a 14                	push   $0x14
  40466b:	5f                   	pop    %edi
  40466c:	57                   	push   %edi
  40466d:	8d 45 58             	lea    0x58(%ebp),%eax
  404670:	6a 00                	push   $0x0
  404672:	50                   	push   %eax
  404673:	e8 4a 3a 00 00       	call   0x4080c2
  404678:	83 c4 0c             	add    $0xc,%esp
  40467b:	89 75 58             	mov    %esi,0x58(%ebp)
  40467e:	ff 15 a0 90 40 00    	call   *0x4090a0
  404684:	8b d8                	mov    %eax,%ebx
  404686:	0f b6 c3             	movzbl %bl,%eax
  404689:	83 e8 04             	sub    $0x4,%eax
  40468c:	c7 45 6c be ff ff ff 	movl   $0xffffffbe,0x6c(%ebp)
  404693:	0f 84 85 00 00 00    	je     0x40471e
  404699:	48                   	dec    %eax
  40469a:	74 16                	je     0x4046b2
  40469c:	48                   	dec    %eax
  40469d:	0f 85 c7 00 00 00    	jne    0x40476a
  4046a3:	57                   	push   %edi
  4046a4:	8d 45 58             	lea    0x58(%ebp),%eax
  4046a7:	50                   	push   %eax
  4046a8:	68 11 44 40 00       	push   $0x404411
  4046ad:	e9 88 00 00 00       	jmp    0x40473a
  4046b2:	be 9c 00 00 00       	mov    $0x9c,%esi
  4046b7:	56                   	push   %esi
  4046b8:	8d 45 bc             	lea    -0x44(%ebp),%eax
  4046bb:	6a 00                	push   $0x0
  4046bd:	50                   	push   %eax
  4046be:	e8 ff 39 00 00       	call   0x4080c2
  4046c3:	83 c4 0c             	add    $0xc,%esp
  4046c6:	8d 45 bc             	lea    -0x44(%ebp),%eax
  4046c9:	50                   	push   %eax
  4046ca:	89 75 bc             	mov    %esi,-0x44(%ebp)
  4046cd:	ff 15 04 91 40 00    	call   *0x409104
  4046d3:	0f b6 c7             	movzbl %bh,%eax
  4046d6:	83 e8 00             	sub    $0x0,%eax
  4046d9:	74 37                	je     0x404712
  4046db:	48                   	dec    %eax
  4046dc:	74 1a                	je     0x4046f8
  4046de:	48                   	dec    %eax
  4046df:	0f 85 85 00 00 00    	jne    0x40476a
  4046e5:	66 83 7d 50 00       	cmpw   $0x0,0x50(%ebp)
  4046ea:	8d 45 58             	lea    0x58(%ebp),%eax
  4046ed:	57                   	push   %edi
  4046ee:	50                   	push   %eax
  4046ef:	74 1a                	je     0x40470b
  4046f1:	68 e4 42 40 00       	push   $0x4042e4
  4046f6:	eb 42                	jmp    0x40473a
  4046f8:	66 83 7d 50 02       	cmpw   $0x2,0x50(%ebp)
  4046fd:	8d 45 58             	lea    0x58(%ebp),%eax
  404700:	57                   	push   %edi
  404701:	50                   	push   %eax
  404702:	73 07                	jae    0x40470b
  404704:	68 8a 40 40 00       	push   $0x40408a
  404709:	eb 2f                	jmp    0x40473a
  40470b:	68 b7 41 40 00       	push   $0x4041b7
  404710:	eb 28                	jmp    0x40473a
  404712:	57                   	push   %edi
  404713:	8d 45 58             	lea    0x58(%ebp),%eax
  404716:	50                   	push   %eax
  404717:	68 c9 3f 40 00       	push   $0x403fc9
  40471c:	eb 1c                	jmp    0x40473a
  40471e:	e8 cd 34 00 00       	call   0x407bf0
  404723:	84 c0                	test   %al,%al
  404725:	74 09                	je     0x404730
  404727:	c7 45 6c e2 ff ff ff 	movl   $0xffffffe2,0x6c(%ebp)
  40472e:	eb 3a                	jmp    0x40476a
  404730:	57                   	push   %edi
  404731:	8d 45 58             	lea    0x58(%ebp),%eax
  404734:	50                   	push   %eax
  404735:	68 08 3f 40 00       	push   $0x403f08
  40473a:	e8 9c 12 00 00       	call   0x4059db
  40473f:	83 c4 0c             	add    $0xc,%esp
  404742:	85 c0                	test   %eax,%eax
  404744:	89 45 6c             	mov    %eax,0x6c(%ebp)
  404747:	75 21                	jne    0x40476a
  404749:	57                   	push   %edi
  40474a:	ff 15 7c 91 40 00    	call   *0x40917c
  404750:	8b f0                	mov    %eax,%esi
  404752:	85 f6                	test   %esi,%esi
  404754:	59                   	pop    %ecx
  404755:	74 13                	je     0x40476a
  404757:	57                   	push   %edi
  404758:	8d 45 58             	lea    0x58(%ebp),%eax
  40475b:	50                   	push   %eax
  40475c:	56                   	push   %esi
  40475d:	e8 6e 39 00 00       	call   0x4080d0
  404762:	8b 45 7c             	mov    0x7c(%ebp),%eax
  404765:	83 c4 0c             	add    $0xc,%esp
  404768:	89 30                	mov    %esi,(%eax)
  40476a:	8b 45 6c             	mov    0x6c(%ebp),%eax
  40476d:	5f                   	pop    %edi
  40476e:	5b                   	pop    %ebx
  40476f:	5e                   	pop    %esi
  404770:	83 c5 70             	add    $0x70,%ebp
  404773:	c9                   	leave  
  404774:	c3                   	ret    
  404775:	6a 24                	push   $0x24
  404777:	68 20 95 40 00       	push   $0x409520
  40477c:	e8 2f 3b 00 00       	call   0x4082b0
  404781:	8b 75 0c             	mov    0xc(%ebp),%esi
  404784:	85 f6                	test   %esi,%esi
  404786:	0f 84 f8 00 00 00    	je     0x404884
  40478c:	83 7d 10 18          	cmpl   $0x18,0x10(%ebp)
  404790:	0f 85 ee 00 00 00    	jne    0x404884
  404796:	68 10 95 40 00       	push   $0x409510
  40479b:	ff 75 08             	pushl  0x8(%ebp)
  40479e:	e8 ce 0b 00 00       	call   0x405371
  4047a3:	59                   	pop    %ecx
  4047a4:	59                   	pop    %ecx
  4047a5:	89 45 d8             	mov    %eax,-0x28(%ebp)
  4047a8:	85 c0                	test   %eax,%eax
  4047aa:	75 07                	jne    0x4047b3
  4047ac:	6a c1                	push   $0xffffffc1
  4047ae:	e9 d3 00 00 00       	jmp    0x404886
  4047b3:	c7 45 dc e3 ff ff ff 	movl   $0xffffffe3,-0x24(%ebp)
  4047ba:	83 65 fc 00          	andl   $0x0,-0x4(%ebp)
  4047be:	ff 36                	pushl  (%esi)
  4047c0:	ff 75 08             	pushl  0x8(%ebp)
  4047c3:	e8 ea 09 00 00       	call   0x4051b2
  4047c8:	59                   	pop    %ecx
  4047c9:	59                   	pop    %ecx
  4047ca:	89 45 d4             	mov    %eax,-0x2c(%ebp)
  4047cd:	85 c0                	test   %eax,%eax
  4047cf:	75 05                	jne    0x4047d6
  4047d1:	6a ec                	push   $0xffffffec
  4047d3:	58                   	pop    %eax
  4047d4:	eb 7d                	jmp    0x404853
  4047d6:	8b b8 08 01 00 00    	mov    0x108(%eax),%edi
  4047dc:	89 7d d0             	mov    %edi,-0x30(%ebp)
  4047df:	33 c0                	xor    %eax,%eax
  4047e1:	89 45 e4             	mov    %eax,-0x1c(%ebp)
  4047e4:	3b 47 30             	cmp    0x30(%edi),%eax
  4047e7:	0f 83 8e 00 00 00    	jae    0x40487b
  4047ed:	8b 4f 48             	mov    0x48(%edi),%ecx
  4047f0:	8b 1c c1             	mov    (%ecx,%eax,8),%ebx
  4047f3:	89 5d cc             	mov    %ebx,-0x34(%ebp)
  4047f6:	ff 76 04             	pushl  0x4(%esi)
  4047f9:	53                   	push   %ebx
  4047fa:	ff 55 d8             	call   *-0x28(%ebp)
  4047fd:	85 c0                	test   %eax,%eax
  4047ff:	74 58                	je     0x404859
  404801:	8b 46 08             	mov    0x8(%esi),%eax
  404804:	8a 4b 01             	mov    0x1(%ebx),%cl
  404807:	3a 48 01             	cmp    0x1(%eax),%cl
  40480a:	75 4d                	jne    0x404859
  40480c:	83 65 e0 00          	andl   $0x0,-0x20(%ebp)
  404810:	0f b6 43 01          	movzbl 0x1(%ebx),%eax
  404814:	39 45 e0             	cmp    %eax,-0x20(%ebp)
  404817:	73 18                	jae    0x404831
  404819:	8b 45 e0             	mov    -0x20(%ebp),%eax
  40481c:	8d 04 85 08 00 00 00 	lea    0x8(,%eax,4),%eax
  404823:	8b 4e 08             	mov    0x8(%esi),%ecx
  404826:	8b 0c 08             	mov    (%eax,%ecx,1),%ecx
  404829:	89 0c 18             	mov    %ecx,(%eax,%ebx,1)
  40482c:	ff 45 e0             	incl   -0x20(%ebp)
  40482f:	eb df                	jmp    0x404810
  404831:	80 7e 0c 00          	cmpb   $0x0,0xc(%esi)
  404835:	74 1a                	je     0x404851
  404837:	8b 45 e4             	mov    -0x1c(%ebp),%eax
  40483a:	c1 e0 03             	shl    $0x3,%eax
  40483d:	8b 4f 48             	mov    0x48(%edi),%ecx
  404840:	8b 4c 01 04          	mov    0x4(%ecx,%eax,1),%ecx
  404844:	89 4e 14             	mov    %ecx,0x14(%esi)
  404847:	8b 4f 48             	mov    0x48(%edi),%ecx
  40484a:	8b 56 10             	mov    0x10(%esi),%edx
  40484d:	89 54 01 04          	mov    %edx,0x4(%ecx,%eax,1)
  404851:	33 c0                	xor    %eax,%eax
  404853:	83 4d fc ff          	orl    $0xffffffff,-0x4(%ebp)
  404857:	eb 2e                	jmp    0x404887
  404859:	81 7d e4 e8 03 00 00 	cmpl   $0x3e8,-0x1c(%ebp)
  404860:	77 19                	ja     0x40487b
  404862:	ff 45 e4             	incl   -0x1c(%ebp)
  404865:	8b 45 e4             	mov    -0x1c(%ebp),%eax
  404868:	e9 77 ff ff ff       	jmp    0x4047e4
  40486d:	33 c0                	xor    %eax,%eax
  40486f:	40                   	inc    %eax
  404870:	c3                   	ret    
  404871:	8b 65 e8             	mov    -0x18(%ebp),%esp
  404874:	c7 45 dc e4 ff ff ff 	movl   $0xffffffe4,-0x24(%ebp)
  40487b:	83 4d fc ff          	orl    $0xffffffff,-0x4(%ebp)
  40487f:	8b 45 dc             	mov    -0x24(%ebp),%eax
  404882:	eb 03                	jmp    0x404887
  404884:	6a 57                	push   $0x57
  404886:	58                   	pop    %eax
  404887:	e8 5d 3a 00 00       	call   0x4082e9
  40488c:	c3                   	ret    
  40488d:	6a 24                	push   $0x24
  40488f:	68 30 95 40 00       	push   $0x409530
  404894:	e8 17 3a 00 00       	call   0x4082b0
  404899:	8b 75 0c             	mov    0xc(%ebp),%esi
  40489c:	85 f6                	test   %esi,%esi
  40489e:	0f 84 f8 00 00 00    	je     0x40499c
  4048a4:	83 7d 10 18          	cmpl   $0x18,0x10(%ebp)
  4048a8:	0f 85 ee 00 00 00    	jne    0x40499c
  4048ae:	68 10 95 40 00       	push   $0x409510
  4048b3:	ff 75 08             	pushl  0x8(%ebp)
  4048b6:	e8 b6 0a 00 00       	call   0x405371
  4048bb:	59                   	pop    %ecx
  4048bc:	59                   	pop    %ecx
  4048bd:	89 45 d8             	mov    %eax,-0x28(%ebp)
  4048c0:	85 c0                	test   %eax,%eax
  4048c2:	75 07                	jne    0x4048cb
  4048c4:	6a c1                	push   $0xffffffc1
  4048c6:	e9 d3 00 00 00       	jmp    0x40499e
  4048cb:	c7 45 dc e3 ff ff ff 	movl   $0xffffffe3,-0x24(%ebp)
  4048d2:	83 65 fc 00          	andl   $0x0,-0x4(%ebp)
  4048d6:	ff 36                	pushl  (%esi)
  4048d8:	ff 75 08             	pushl  0x8(%ebp)
  4048db:	e8 d2 08 00 00       	call   0x4051b2
  4048e0:	59                   	pop    %ecx
  4048e1:	59                   	pop    %ecx
  4048e2:	89 45 d4             	mov    %eax,-0x2c(%ebp)
  4048e5:	85 c0                	test   %eax,%eax
  4048e7:	75 05                	jne    0x4048ee
  4048e9:	6a ec                	push   $0xffffffec
  4048eb:	58                   	pop    %eax
  4048ec:	eb 7d                	jmp    0x40496b
  4048ee:	8b b8 2c 01 00 00    	mov    0x12c(%eax),%edi
  4048f4:	89 7d d0             	mov    %edi,-0x30(%ebp)
  4048f7:	33 c0                	xor    %eax,%eax
  4048f9:	89 45 e4             	mov    %eax,-0x1c(%ebp)
  4048fc:	3b 47 3c             	cmp    0x3c(%edi),%eax
  4048ff:	0f 83 8e 00 00 00    	jae    0x404993
  404905:	8b 4f 58             	mov    0x58(%edi),%ecx
  404908:	8b 1c c1             	mov    (%ecx,%eax,8),%ebx
  40490b:	89 5d cc             	mov    %ebx,-0x34(%ebp)
  40490e:	ff 76 04             	pushl  0x4(%esi)
  404911:	53                   	push   %ebx
  404912:	ff 55 d8             	call   *-0x28(%ebp)
  404915:	85 c0                	test   %eax,%eax
  404917:	74 58                	je     0x404971
  404919:	8b 46 08             	mov    0x8(%esi),%eax
  40491c:	8a 4b 01             	mov    0x1(%ebx),%cl
  40491f:	3a 48 01             	cmp    0x1(%eax),%cl
  404922:	75 4d                	jne    0x404971
  404924:	83 65 e0 00          	andl   $0x0,-0x20(%ebp)
  404928:	0f b6 43 01          	movzbl 0x1(%ebx),%eax
  40492c:	39 45 e0             	cmp    %eax,-0x20(%ebp)
  40492f:	73 18                	jae    0x404949
  404931:	8b 45 e0             	mov    -0x20(%ebp),%eax
  404934:	8d 04 85 08 00 00 00 	lea    0x8(,%eax,4),%eax
  40493b:	8b 4e 08             	mov    0x8(%esi),%ecx
  40493e:	8b 0c 08             	mov    (%eax,%ecx,1),%ecx
  404941:	89 0c 18             	mov    %ecx,(%eax,%ebx,1)
  404944:	ff 45 e0             	incl   -0x20(%ebp)
  404947:	eb df                	jmp    0x404928
  404949:	80 7e 0c 00          	cmpb   $0x0,0xc(%esi)
  40494d:	74 1a                	je     0x404969
  40494f:	8b 45 e4             	mov    -0x1c(%ebp),%eax
  404952:	c1 e0 03             	shl    $0x3,%eax
  404955:	8b 4f 58             	mov    0x58(%edi),%ecx
  404958:	8b 4c 01 04          	mov    0x4(%ecx,%eax,1),%ecx
  40495c:	89 4e 14             	mov    %ecx,0x14(%esi)
  40495f:	8b 4f 58             	mov    0x58(%edi),%ecx
  404962:	8b 56 10             	mov    0x10(%esi),%edx
  404965:	89 54 01 04          	mov    %edx,0x4(%ecx,%eax,1)
  404969:	33 c0                	xor    %eax,%eax
  40496b:	83 4d fc ff          	orl    $0xffffffff,-0x4(%ebp)
  40496f:	eb 2e                	jmp    0x40499f
  404971:	81 7d e4 e8 03 00 00 	cmpl   $0x3e8,-0x1c(%ebp)
  404978:	77 19                	ja     0x404993
  40497a:	ff 45 e4             	incl   -0x1c(%ebp)
  40497d:	8b 45 e4             	mov    -0x1c(%ebp),%eax
  404980:	e9 77 ff ff ff       	jmp    0x4048fc
  404985:	33 c0                	xor    %eax,%eax
  404987:	40                   	inc    %eax
  404988:	c3                   	ret    
  404989:	8b 65 e8             	mov    -0x18(%ebp),%esp
  40498c:	c7 45 dc e4 ff ff ff 	movl   $0xffffffe4,-0x24(%ebp)
  404993:	83 4d fc ff          	orl    $0xffffffff,-0x4(%ebp)
  404997:	8b 45 dc             	mov    -0x24(%ebp),%eax
  40499a:	eb 03                	jmp    0x40499f
  40499c:	6a 57                	push   $0x57
  40499e:	58                   	pop    %eax
  40499f:	e8 45 39 00 00       	call   0x4082e9
  4049a4:	c3                   	ret    
  4049a5:	6a 30                	push   $0x30
  4049a7:	68 40 95 40 00       	push   $0x409540
  4049ac:	e8 ff 38 00 00       	call   0x4082b0
  4049b1:	8b 75 0c             	mov    0xc(%ebp),%esi
  4049b4:	85 f6                	test   %esi,%esi
  4049b6:	0f 84 6d 01 00 00    	je     0x404b29
  4049bc:	83 7d 10 18          	cmpl   $0x18,0x10(%ebp)
  4049c0:	0f 85 63 01 00 00    	jne    0x404b29
  4049c6:	68 10 95 40 00       	push   $0x409510
  4049cb:	8b 7d 08             	mov    0x8(%ebp),%edi
  4049ce:	57                   	push   %edi
  4049cf:	e8 9d 09 00 00       	call   0x405371
  4049d4:	59                   	pop    %ecx
  4049d5:	59                   	pop    %ecx
  4049d6:	89 45 d0             	mov    %eax,-0x30(%ebp)
  4049d9:	85 c0                	test   %eax,%eax
  4049db:	75 07                	jne    0x4049e4
  4049dd:	6a c1                	push   $0xffffffc1
  4049df:	e9 47 01 00 00       	jmp    0x404b2b
  4049e4:	c7 45 d4 e3 ff ff ff 	movl   $0xffffffe3,-0x2c(%ebp)
  4049eb:	83 65 fc 00          	andl   $0x0,-0x4(%ebp)
  4049ef:	ff 36                	pushl  (%esi)
  4049f1:	57                   	push   %edi
  4049f2:	e8 bb 07 00 00       	call   0x4051b2
  4049f7:	59                   	pop    %ecx
  4049f8:	59                   	pop    %ecx
  4049f9:	89 45 d8             	mov    %eax,-0x28(%ebp)
  4049fc:	85 c0                	test   %eax,%eax
  4049fe:	75 04                	jne    0x404a04
  404a00:	6a ec                	push   $0xffffffec
  404a02:	eb 40                	jmp    0x404a44
  404a04:	68 80 94 40 00       	push   $0x409480
  404a09:	57                   	push   %edi
  404a0a:	e8 62 09 00 00       	call   0x405371
  404a0f:	89 45 dc             	mov    %eax,-0x24(%ebp)
  404a12:	68 64 94 40 00       	push   $0x409464
  404a17:	57                   	push   %edi
  404a18:	e8 54 09 00 00       	call   0x405371
  404a1d:	83 c4 10             	add    $0x10,%esp
  404a20:	89 45 cc             	mov    %eax,-0x34(%ebp)
  404a23:	83 7d dc 00          	cmpl   $0x0,-0x24(%ebp)
  404a27:	0f 84 de 00 00 00    	je     0x404b0b
  404a2d:	85 c0                	test   %eax,%eax
  404a2f:	0f 84 d6 00 00 00    	je     0x404b0b
  404a35:	ff 75 d8             	pushl  -0x28(%ebp)
  404a38:	ff 55 dc             	call   *-0x24(%ebp)
  404a3b:	89 45 c8             	mov    %eax,-0x38(%ebp)
  404a3e:	85 c0                	test   %eax,%eax
  404a40:	75 0c                	jne    0x404a4e
  404a42:	6a e1                	push   $0xffffffe1
  404a44:	58                   	pop    %eax
  404a45:	83 4d fc ff          	orl    $0xffffffff,-0x4(%ebp)
  404a49:	e9 de 00 00 00       	jmp    0x404b2c
  404a4e:	c7 45 fc 01 00 00 00 	movl   $0x1,-0x4(%ebp)
  404a55:	8b d8                	mov    %eax,%ebx
  404a57:	89 5d c4             	mov    %ebx,-0x3c(%ebp)
  404a5a:	33 c0                	xor    %eax,%eax
  404a5c:	89 45 e4             	mov    %eax,-0x1c(%ebp)
  404a5f:	3b 43 40             	cmp    0x40(%ebx),%eax
  404a62:	0f 83 89 00 00 00    	jae    0x404af1
  404a68:	8b 4b 5c             	mov    0x5c(%ebx),%ecx
  404a6b:	8b 3c c1             	mov    (%ecx,%eax,8),%edi
  404a6e:	89 7d c0             	mov    %edi,-0x40(%ebp)
  404a71:	ff 76 04             	pushl  0x4(%esi)
  404a74:	57                   	push   %edi
  404a75:	ff 55 d0             	call   *-0x30(%ebp)
  404a78:	85 c0                	test   %eax,%eax
  404a7a:	74 61                	je     0x404add
  404a7c:	8b 46 08             	mov    0x8(%esi),%eax
  404a7f:	8a 4f 01             	mov    0x1(%edi),%cl
  404a82:	3a 48 01             	cmp    0x1(%eax),%cl
  404a85:	75 56                	jne    0x404add
  404a87:	83 65 e0 00          	andl   $0x0,-0x20(%ebp)
  404a8b:	0f b6 47 01          	movzbl 0x1(%edi),%eax
  404a8f:	39 45 e0             	cmp    %eax,-0x20(%ebp)
  404a92:	73 18                	jae    0x404aac
  404a94:	8b 45 e0             	mov    -0x20(%ebp),%eax
  404a97:	8d 04 85 08 00 00 00 	lea    0x8(,%eax,4),%eax
  404a9e:	8b 4e 08             	mov    0x8(%esi),%ecx
  404aa1:	8b 0c 08             	mov    (%eax,%ecx,1),%ecx
  404aa4:	89 0c 38             	mov    %ecx,(%eax,%edi,1)
  404aa7:	ff 45 e0             	incl   -0x20(%ebp)
  404aaa:	eb df                	jmp    0x404a8b
  404aac:	80 7e 0c 00          	cmpb   $0x0,0xc(%esi)
  404ab0:	74 1a                	je     0x404acc
  404ab2:	8b 45 e4             	mov    -0x1c(%ebp),%eax
  404ab5:	c1 e0 03             	shl    $0x3,%eax
  404ab8:	8b 4b 5c             	mov    0x5c(%ebx),%ecx
  404abb:	8b 4c 01 04          	mov    0x4(%ecx,%eax,1),%ecx
  404abf:	89 4e 14             	mov    %ecx,0x14(%esi)
  404ac2:	8b 4b 5c             	mov    0x5c(%ebx),%ecx
  404ac5:	8b 56 10             	mov    0x10(%esi),%edx
  404ac8:	89 54 01 04          	mov    %edx,0x4(%ecx,%eax,1)
  404acc:	6a ff                	push   $0xffffffff
  404ace:	8d 45 f0             	lea    -0x10(%ebp),%eax
  404ad1:	50                   	push   %eax
  404ad2:	e8 23 38 00 00       	call   0x4082fa
  404ad7:	59                   	pop    %ecx
  404ad8:	59                   	pop    %ecx
  404ad9:	33 c0                	xor    %eax,%eax
  404adb:	eb 4f                	jmp    0x404b2c
  404add:	81 7d e4 e8 03 00 00 	cmpl   $0x3e8,-0x1c(%ebp)
  404ae4:	77 0b                	ja     0x404af1
  404ae6:	ff 45 e4             	incl   -0x1c(%ebp)
  404ae9:	8b 45 e4             	mov    -0x1c(%ebp),%eax
  404aec:	e9 6e ff ff ff       	jmp    0x404a5f
  404af1:	83 65 fc 00          	andl   $0x0,-0x4(%ebp)
  404af5:	e8 02 00 00 00       	call   0x404afc
  404afa:	eb 24                	jmp    0x404b20
  404afc:	8b 45 d8             	mov    -0x28(%ebp),%eax
  404aff:	05 c8 00 00 00       	add    $0xc8,%eax
  404b04:	50                   	push   %eax
  404b05:	ff 55 cc             	call   *-0x34(%ebp)
  404b08:	c3                   	ret    
  404b09:	eb 15                	jmp    0x404b20
  404b0b:	6a e0                	push   $0xffffffe0
  404b0d:	e9 32 ff ff ff       	jmp    0x404a44
  404b12:	33 c0                	xor    %eax,%eax
  404b14:	40                   	inc    %eax
  404b15:	c3                   	ret    
  404b16:	8b 65 e8             	mov    -0x18(%ebp),%esp
  404b19:	c7 45 d4 e4 ff ff ff 	movl   $0xffffffe4,-0x2c(%ebp)
  404b20:	83 4d fc ff          	orl    $0xffffffff,-0x4(%ebp)
  404b24:	8b 45 d4             	mov    -0x2c(%ebp),%eax
  404b27:	eb 03                	jmp    0x404b2c
  404b29:	6a 57                	push   $0x57
  404b2b:	58                   	pop    %eax
  404b2c:	e8 b8 37 00 00       	call   0x4082e9
  404b31:	c3                   	ret    
  404b32:	6a 30                	push   $0x30
  404b34:	68 58 95 40 00       	push   $0x409558
  404b39:	e8 72 37 00 00       	call   0x4082b0
  404b3e:	8b 75 0c             	mov    0xc(%ebp),%esi
  404b41:	85 f6                	test   %esi,%esi
  404b43:	0f 84 6d 01 00 00    	je     0x404cb6
  404b49:	83 7d 10 18          	cmpl   $0x18,0x10(%ebp)
  404b4d:	0f 85 63 01 00 00    	jne    0x404cb6
  404b53:	68 10 95 40 00       	push   $0x409510
  404b58:	8b 7d 08             	mov    0x8(%ebp),%edi
  404b5b:	57                   	push   %edi
  404b5c:	e8 10 08 00 00       	call   0x405371
  404b61:	59                   	pop    %ecx
  404b62:	59                   	pop    %ecx
  404b63:	89 45 d0             	mov    %eax,-0x30(%ebp)
  404b66:	85 c0                	test   %eax,%eax
  404b68:	75 07                	jne    0x404b71
  404b6a:	6a c1                	push   $0xffffffc1
  404b6c:	e9 47 01 00 00       	jmp    0x404cb8
  404b71:	c7 45 d4 e3 ff ff ff 	movl   $0xffffffe3,-0x2c(%ebp)
  404b78:	83 65 fc 00          	andl   $0x0,-0x4(%ebp)
  404b7c:	ff 36                	pushl  (%esi)
  404b7e:	57                   	push   %edi
  404b7f:	e8 2e 06 00 00       	call   0x4051b2
  404b84:	59                   	pop    %ecx
  404b85:	59                   	pop    %ecx
  404b86:	89 45 d8             	mov    %eax,-0x28(%ebp)
  404b89:	85 c0                	test   %eax,%eax
  404b8b:	75 04                	jne    0x404b91
  404b8d:	6a ec                	push   $0xffffffec
  404b8f:	eb 40                	jmp    0x404bd1
  404b91:	68 80 94 40 00       	push   $0x409480
  404b96:	57                   	push   %edi
  404b97:	e8 d5 07 00 00       	call   0x405371
  404b9c:	89 45 dc             	mov    %eax,-0x24(%ebp)
  404b9f:	68 64 94 40 00       	push   $0x409464
  404ba4:	57                   	push   %edi
  404ba5:	e8 c7 07 00 00       	call   0x405371
  404baa:	83 c4 10             	add    $0x10,%esp
  404bad:	89 45 cc             	mov    %eax,-0x34(%ebp)
  404bb0:	83 7d dc 00          	cmpl   $0x0,-0x24(%ebp)
  404bb4:	0f 84 de 00 00 00    	je     0x404c98
  404bba:	85 c0                	test   %eax,%eax
  404bbc:	0f 84 d6 00 00 00    	je     0x404c98
  404bc2:	ff 75 d8             	pushl  -0x28(%ebp)
  404bc5:	ff 55 dc             	call   *-0x24(%ebp)
  404bc8:	89 45 c8             	mov    %eax,-0x38(%ebp)
  404bcb:	85 c0                	test   %eax,%eax
  404bcd:	75 0c                	jne    0x404bdb
  404bcf:	6a e1                	push   $0xffffffe1
  404bd1:	58                   	pop    %eax
  404bd2:	83 4d fc ff          	orl    $0xffffffff,-0x4(%ebp)
  404bd6:	e9 de 00 00 00       	jmp    0x404cb9
  404bdb:	c7 45 fc 01 00 00 00 	movl   $0x1,-0x4(%ebp)
  404be2:	8b d8                	mov    %eax,%ebx
  404be4:	89 5d c4             	mov    %ebx,-0x3c(%ebp)
  404be7:	33 c0                	xor    %eax,%eax
  404be9:	89 45 e4             	mov    %eax,-0x1c(%ebp)
  404bec:	3b 43 4c             	cmp    0x4c(%ebx),%eax
  404bef:	0f 83 89 00 00 00    	jae    0x404c7e
  404bf5:	8b 4b 68             	mov    0x68(%ebx),%ecx
  404bf8:	8b 3c c1             	mov    (%ecx,%eax,8),%edi
  404bfb:	89 7d c0             	mov    %edi,-0x40(%ebp)
  404bfe:	ff 76 04             	pushl  0x4(%esi)
  404c01:	57                   	push   %edi
  404c02:	ff 55 d0             	call   *-0x30(%ebp)
  404c05:	85 c0                	test   %eax,%eax
  404c07:	74 61                	je     0x404c6a
  404c09:	8b 46 08             	mov    0x8(%esi),%eax
  404c0c:	8a 4f 01             	mov    0x1(%edi),%cl
  404c0f:	3a 48 01             	cmp    0x1(%eax),%cl
  404c12:	75 56                	jne    0x404c6a
  404c14:	83 65 e0 00          	andl   $0x0,-0x20(%ebp)
  404c18:	0f b6 47 01          	movzbl 0x1(%edi),%eax
  404c1c:	39 45 e0             	cmp    %eax,-0x20(%ebp)
  404c1f:	73 18                	jae    0x404c39
  404c21:	8b 45 e0             	mov    -0x20(%ebp),%eax
  404c24:	8d 04 85 08 00 00 00 	lea    0x8(,%eax,4),%eax
  404c2b:	8b 4e 08             	mov    0x8(%esi),%ecx
  404c2e:	8b 0c 08             	mov    (%eax,%ecx,1),%ecx
  404c31:	89 0c 38             	mov    %ecx,(%eax,%edi,1)
  404c34:	ff 45 e0             	incl   -0x20(%ebp)
  404c37:	eb df                	jmp    0x404c18
  404c39:	80 7e 0c 00          	cmpb   $0x0,0xc(%esi)
  404c3d:	74 1a                	je     0x404c59
  404c3f:	8b 45 e4             	mov    -0x1c(%ebp),%eax
  404c42:	c1 e0 03             	shl    $0x3,%eax
  404c45:	8b 4b 68             	mov    0x68(%ebx),%ecx
  404c48:	8b 4c 01 04          	mov    0x4(%ecx,%eax,1),%ecx
  404c4c:	89 4e 14             	mov    %ecx,0x14(%esi)
  404c4f:	8b 4b 68             	mov    0x68(%ebx),%ecx
  404c52:	8b 56 10             	mov    0x10(%esi),%edx
  404c55:	89 54 01 04          	mov    %edx,0x4(%ecx,%eax,1)
  404c59:	6a ff                	push   $0xffffffff
  404c5b:	8d 45 f0             	lea    -0x10(%ebp),%eax
  404c5e:	50                   	push   %eax
  404c5f:	e8 96 36 00 00       	call   0x4082fa
  404c64:	59                   	pop    %ecx
  404c65:	59                   	pop    %ecx
  404c66:	33 c0                	xor    %eax,%eax
  404c68:	eb 4f                	jmp    0x404cb9
  404c6a:	81 7d e4 e8 03 00 00 	cmpl   $0x3e8,-0x1c(%ebp)
  404c71:	77 0b                	ja     0x404c7e
  404c73:	ff 45 e4             	incl   -0x1c(%ebp)
  404c76:	8b 45 e4             	mov    -0x1c(%ebp),%eax
  404c79:	e9 6e ff ff ff       	jmp    0x404bec
  404c7e:	83 65 fc 00          	andl   $0x0,-0x4(%ebp)
  404c82:	e8 02 00 00 00       	call   0x404c89
  404c87:	eb 24                	jmp    0x404cad
  404c89:	8b 45 d8             	mov    -0x28(%ebp),%eax
  404c8c:	05 c8 00 00 00       	add    $0xc8,%eax
  404c91:	50                   	push   %eax
  404c92:	ff 55 cc             	call   *-0x34(%ebp)
  404c95:	c3                   	ret    
  404c96:	eb 15                	jmp    0x404cad
  404c98:	6a e0                	push   $0xffffffe0
  404c9a:	e9 32 ff ff ff       	jmp    0x404bd1
  404c9f:	33 c0                	xor    %eax,%eax
  404ca1:	40                   	inc    %eax
  404ca2:	c3                   	ret    
  404ca3:	8b 65 e8             	mov    -0x18(%ebp),%esp
  404ca6:	c7 45 d4 e4 ff ff ff 	movl   $0xffffffe4,-0x2c(%ebp)
  404cad:	83 4d fc ff          	orl    $0xffffffff,-0x4(%ebp)
  404cb1:	8b 45 d4             	mov    -0x2c(%ebp),%eax
  404cb4:	eb 03                	jmp    0x404cb9
  404cb6:	6a 57                	push   $0x57
  404cb8:	58                   	pop    %eax
  404cb9:	e8 2b 36 00 00       	call   0x4082e9
  404cbe:	c3                   	ret    
  404cbf:	6a 30                	push   $0x30
  404cc1:	68 70 95 40 00       	push   $0x409570
  404cc6:	e8 e5 35 00 00       	call   0x4082b0
  404ccb:	8b 75 0c             	mov    0xc(%ebp),%esi
  404cce:	85 f6                	test   %esi,%esi
  404cd0:	0f 84 6d 01 00 00    	je     0x404e43
  404cd6:	83 7d 10 18          	cmpl   $0x18,0x10(%ebp)
  404cda:	0f 85 63 01 00 00    	jne    0x404e43
  404ce0:	68 10 95 40 00       	push   $0x409510
  404ce5:	8b 7d 08             	mov    0x8(%ebp),%edi
  404ce8:	57                   	push   %edi
  404ce9:	e8 83 06 00 00       	call   0x405371
  404cee:	59                   	pop    %ecx
  404cef:	59                   	pop    %ecx
  404cf0:	89 45 d0             	mov    %eax,-0x30(%ebp)
  404cf3:	85 c0                	test   %eax,%eax
  404cf5:	75 07                	jne    0x404cfe
  404cf7:	6a c1                	push   $0xffffffc1
  404cf9:	e9 47 01 00 00       	jmp    0x404e45
  404cfe:	c7 45 d4 e3 ff ff ff 	movl   $0xffffffe3,-0x2c(%ebp)
  404d05:	83 65 fc 00          	andl   $0x0,-0x4(%ebp)
  404d09:	ff 36                	pushl  (%esi)
  404d0b:	57                   	push   %edi
  404d0c:	e8 a1 04 00 00       	call   0x4051b2
  404d11:	59                   	pop    %ecx
  404d12:	59                   	pop    %ecx
  404d13:	89 45 d8             	mov    %eax,-0x28(%ebp)
  404d16:	85 c0                	test   %eax,%eax
  404d18:	75 04                	jne    0x404d1e
  404d1a:	6a ec                	push   $0xffffffec
  404d1c:	eb 40                	jmp    0x404d5e
  404d1e:	68 80 94 40 00       	push   $0x409480
  404d23:	57                   	push   %edi
  404d24:	e8 48 06 00 00       	call   0x405371
  404d29:	89 45 dc             	mov    %eax,-0x24(%ebp)
  404d2c:	68 64 94 40 00       	push   $0x409464
  404d31:	57                   	push   %edi
  404d32:	e8 3a 06 00 00       	call   0x405371
  404d37:	83 c4 10             	add    $0x10,%esp
  404d3a:	89 45 cc             	mov    %eax,-0x34(%ebp)
  404d3d:	83 7d dc 00          	cmpl   $0x0,-0x24(%ebp)
  404d41:	0f 84 de 00 00 00    	je     0x404e25
  404d47:	85 c0                	test   %eax,%eax
  404d49:	0f 84 d6 00 00 00    	je     0x404e25
  404d4f:	ff 75 d8             	pushl  -0x28(%ebp)
  404d52:	ff 55 dc             	call   *-0x24(%ebp)
  404d55:	89 45 c8             	mov    %eax,-0x38(%ebp)
  404d58:	85 c0                	test   %eax,%eax
  404d5a:	75 0c                	jne    0x404d68
  404d5c:	6a e1                	push   $0xffffffe1
  404d5e:	58                   	pop    %eax
  404d5f:	83 4d fc ff          	orl    $0xffffffff,-0x4(%ebp)
  404d63:	e9 de 00 00 00       	jmp    0x404e46
  404d68:	c7 45 fc 01 00 00 00 	movl   $0x1,-0x4(%ebp)
  404d6f:	8b d8                	mov    %eax,%ebx
  404d71:	89 5d c4             	mov    %ebx,-0x3c(%ebp)
  404d74:	33 c0                	xor    %eax,%eax
  404d76:	89 45 e4             	mov    %eax,-0x1c(%ebp)
  404d79:	3b 43 4c             	cmp    0x4c(%ebx),%eax
  404d7c:	0f 83 89 00 00 00    	jae    0x404e0b
  404d82:	8b 4b 68             	mov    0x68(%ebx),%ecx
  404d85:	8b 3c c1             	mov    (%ecx,%eax,8),%edi
  404d88:	89 7d c0             	mov    %edi,-0x40(%ebp)
  404d8b:	ff 76 04             	pushl  0x4(%esi)
  404d8e:	57                   	push   %edi
  404d8f:	ff 55 d0             	call   *-0x30(%ebp)
  404d92:	85 c0                	test   %eax,%eax
  404d94:	74 61                	je     0x404df7
  404d96:	8b 46 08             	mov    0x8(%esi),%eax
  404d99:	8a 4f 01             	mov    0x1(%edi),%cl
  404d9c:	3a 48 01             	cmp    0x1(%eax),%cl
  404d9f:	75 56                	jne    0x404df7
  404da1:	83 65 e0 00          	andl   $0x0,-0x20(%ebp)
  404da5:	0f b6 47 01          	movzbl 0x1(%edi),%eax
  404da9:	39 45 e0             	cmp    %eax,-0x20(%ebp)
  404dac:	73 18                	jae    0x404dc6
  404dae:	8b 45 e0             	mov    -0x20(%ebp),%eax
  404db1:	8d 04 85 08 00 00 00 	lea    0x8(,%eax,4),%eax
  404db8:	8b 4e 08             	mov    0x8(%esi),%ecx
  404dbb:	8b 0c 08             	mov    (%eax,%ecx,1),%ecx
  404dbe:	89 0c 38             	mov    %ecx,(%eax,%edi,1)
  404dc1:	ff 45 e0             	incl   -0x20(%ebp)
  404dc4:	eb df                	jmp    0x404da5
  404dc6:	80 7e 0c 00          	cmpb   $0x0,0xc(%esi)
  404dca:	74 1a                	je     0x404de6
  404dcc:	8b 45 e4             	mov    -0x1c(%ebp),%eax
  404dcf:	c1 e0 03             	shl    $0x3,%eax
  404dd2:	8b 4b 68             	mov    0x68(%ebx),%ecx
  404dd5:	8b 4c 01 04          	mov    0x4(%ecx,%eax,1),%ecx
  404dd9:	89 4e 14             	mov    %ecx,0x14(%esi)
  404ddc:	8b 4b 68             	mov    0x68(%ebx),%ecx
  404ddf:	8b 56 10             	mov    0x10(%esi),%edx
  404de2:	89 54 01 04          	mov    %edx,0x4(%ecx,%eax,1)
  404de6:	6a ff                	push   $0xffffffff
  404de8:	8d 45 f0             	lea    -0x10(%ebp),%eax
  404deb:	50                   	push   %eax
  404dec:	e8 09 35 00 00       	call   0x4082fa
  404df1:	59                   	pop    %ecx
  404df2:	59                   	pop    %ecx
  404df3:	33 c0                	xor    %eax,%eax
  404df5:	eb 4f                	jmp    0x404e46
  404df7:	81 7d e4 e8 03 00 00 	cmpl   $0x3e8,-0x1c(%ebp)
  404dfe:	77 0b                	ja     0x404e0b
  404e00:	ff 45 e4             	incl   -0x1c(%ebp)
  404e03:	8b 45 e4             	mov    -0x1c(%ebp),%eax
  404e06:	e9 6e ff ff ff       	jmp    0x404d79
  404e0b:	83 65 fc 00          	andl   $0x0,-0x4(%ebp)
  404e0f:	e8 02 00 00 00       	call   0x404e16
  404e14:	eb 24                	jmp    0x404e3a
  404e16:	8b 45 d8             	mov    -0x28(%ebp),%eax
  404e19:	05 d8 00 00 00       	add    $0xd8,%eax
  404e1e:	50                   	push   %eax
  404e1f:	ff 55 cc             	call   *-0x34(%ebp)
  404e22:	c3                   	ret    
  404e23:	eb 15                	jmp    0x404e3a
  404e25:	6a e0                	push   $0xffffffe0
  404e27:	e9 32 ff ff ff       	jmp    0x404d5e
  404e2c:	33 c0                	xor    %eax,%eax
  404e2e:	40                   	inc    %eax
  404e2f:	c3                   	ret    
  404e30:	8b 65 e8             	mov    -0x18(%ebp),%esp
  404e33:	c7 45 d4 e4 ff ff ff 	movl   $0xffffffe4,-0x2c(%ebp)
  404e3a:	83 4d fc ff          	orl    $0xffffffff,-0x4(%ebp)
  404e3e:	8b 45 d4             	mov    -0x2c(%ebp),%eax
  404e41:	eb 03                	jmp    0x404e46
  404e43:	6a 57                	push   $0x57
  404e45:	58                   	pop    %eax
  404e46:	e8 9e 34 00 00       	call   0x4082e9
  404e4b:	c3                   	ret    
  404e4c:	6a 34                	push   $0x34
  404e4e:	68 88 95 40 00       	push   $0x409588
  404e53:	e8 58 34 00 00       	call   0x4082b0
  404e58:	8b 75 0c             	mov    0xc(%ebp),%esi
  404e5b:	85 f6                	test   %esi,%esi
  404e5d:	0f 84 a6 01 00 00    	je     0x405009
  404e63:	83 7d 10 18          	cmpl   $0x18,0x10(%ebp)
  404e67:	0f 85 9c 01 00 00    	jne    0x405009
  404e6d:	68 10 95 40 00       	push   $0x409510
  404e72:	8b 7d 08             	mov    0x8(%ebp),%edi
  404e75:	57                   	push   %edi
  404e76:	e8 f6 04 00 00       	call   0x405371
  404e7b:	59                   	pop    %ecx
  404e7c:	59                   	pop    %ecx
  404e7d:	89 45 d0             	mov    %eax,-0x30(%ebp)
  404e80:	85 c0                	test   %eax,%eax
  404e82:	75 07                	jne    0x404e8b
  404e84:	6a c1                	push   $0xffffffc1
  404e86:	e9 80 01 00 00       	jmp    0x40500b
  404e8b:	c7 45 dc e3 ff ff ff 	movl   $0xffffffe3,-0x24(%ebp)
  404e92:	83 65 fc 00          	andl   $0x0,-0x4(%ebp)
  404e96:	ff 36                	pushl  (%esi)
  404e98:	57                   	push   %edi
  404e99:	e8 14 03 00 00       	call   0x4051b2
  404e9e:	59                   	pop    %ecx
  404e9f:	59                   	pop    %ecx
  404ea0:	89 45 d4             	mov    %eax,-0x2c(%ebp)
  404ea3:	85 c0                	test   %eax,%eax
  404ea5:	75 04                	jne    0x404eab
  404ea7:	6a ec                	push   $0xffffffec
  404ea9:	eb 40                	jmp    0x404eeb
  404eab:	68 80 94 40 00       	push   $0x409480
  404eb0:	57                   	push   %edi
  404eb1:	e8 bb 04 00 00       	call   0x405371
  404eb6:	89 45 d8             	mov    %eax,-0x28(%ebp)
  404eb9:	68 64 94 40 00       	push   $0x409464
  404ebe:	57                   	push   %edi
  404ebf:	e8 ad 04 00 00       	call   0x405371
  404ec4:	83 c4 10             	add    $0x10,%esp
  404ec7:	89 45 cc             	mov    %eax,-0x34(%ebp)
  404eca:	83 7d d8 00          	cmpl   $0x0,-0x28(%ebp)
  404ece:	0f 84 17 01 00 00    	je     0x404feb
  404ed4:	85 c0                	test   %eax,%eax
  404ed6:	0f 84 0f 01 00 00    	je     0x404feb
  404edc:	ff 75 d4             	pushl  -0x2c(%ebp)
  404edf:	ff 55 d8             	call   *-0x28(%ebp)
  404ee2:	89 45 c8             	mov    %eax,-0x38(%ebp)
  404ee5:	85 c0                	test   %eax,%eax
  404ee7:	75 0c                	jne    0x404ef5
  404ee9:	6a e1                	push   $0xffffffe1
  404eeb:	58                   	pop    %eax
  404eec:	83 4d fc ff          	orl    $0xffffffff,-0x4(%ebp)
  404ef0:	e9 17 01 00 00       	jmp    0x40500c
  404ef5:	c7 45 fc 01 00 00 00 	movl   $0x1,-0x4(%ebp)
  404efc:	8b d8                	mov    %eax,%ebx
  404efe:	89 5d c4             	mov    %ebx,-0x3c(%ebp)
  404f01:	33 c0                	xor    %eax,%eax
  404f03:	89 45 e4             	mov    %eax,-0x1c(%ebp)
  404f06:	3b 43 78             	cmp    0x78(%ebx),%eax
  404f09:	73 73                	jae    0x404f7e
  404f0b:	8b 8b 90 00 00 00    	mov    0x90(%ebx),%ecx
  404f11:	8b 3c c1             	mov    (%ecx,%eax,8),%edi
  404f14:	89 7d c0             	mov    %edi,-0x40(%ebp)
  404f17:	ff 76 04             	pushl  0x4(%esi)
  404f1a:	57                   	push   %edi
  404f1b:	ff 55 d0             	call   *-0x30(%ebp)
  404f1e:	85 c0                	test   %eax,%eax
  404f20:	0f 84 85 00 00 00    	je     0x404fab
  404f26:	8b 46 08             	mov    0x8(%esi),%eax
  404f29:	8a 4f 01             	mov    0x1(%edi),%cl
  404f2c:	3a 48 01             	cmp    0x1(%eax),%cl
  404f2f:	75 7a                	jne    0x404fab
  404f31:	83 65 e0 00          	andl   $0x0,-0x20(%ebp)
  404f35:	0f b6 47 01          	movzbl 0x1(%edi),%eax
  404f39:	39 45 e0             	cmp    %eax,-0x20(%ebp)
  404f3c:	73 18                	jae    0x404f56
  404f3e:	8b 45 e0             	mov    -0x20(%ebp),%eax
  404f41:	8d 04 85 08 00 00 00 	lea    0x8(,%eax,4),%eax
  404f48:	8b 4e 08             	mov    0x8(%esi),%ecx
  404f4b:	8b 0c 08             	mov    (%eax,%ecx,1),%ecx
  404f4e:	89 0c 38             	mov    %ecx,(%eax,%edi,1)
  404f51:	ff 45 e0             	incl   -0x20(%ebp)
  404f54:	eb df                	jmp    0x404f35
  404f56:	80 7e 0c 00          	cmpb   $0x0,0xc(%esi)
  404f5a:	74 1e                	je     0x404f7a
  404f5c:	8d 83 90 00 00 00    	lea    0x90(%ebx),%eax
  404f62:	8b 4d e4             	mov    -0x1c(%ebp),%ecx
  404f65:	c1 e1 03             	shl    $0x3,%ecx
  404f68:	8b 10                	mov    (%eax),%edx
  404f6a:	8b 54 0a 04          	mov    0x4(%edx,%ecx,1),%edx
  404f6e:	89 56 14             	mov    %edx,0x14(%esi)
  404f71:	8b 00                	mov    (%eax),%eax
  404f73:	8b 56 10             	mov    0x10(%esi),%edx
  404f76:	89 54 08 04          	mov    %edx,0x4(%eax,%ecx,1)
  404f7a:	83 65 dc 00          	andl   $0x0,-0x24(%ebp)
  404f7e:	83 7d dc 00          	cmpl   $0x0,-0x24(%ebp)
  404f82:	75 4d                	jne    0x404fd1
  404f84:	68 e0 94 40 00       	push   $0x4094e0
  404f89:	ff 75 08             	pushl  0x8(%ebp)
  404f8c:	e8 e0 03 00 00       	call   0x405371
  404f91:	59                   	pop    %ecx
  404f92:	59                   	pop    %ecx
  404f93:	89 45 bc             	mov    %eax,-0x44(%ebp)
  404f96:	85 c0                	test   %eax,%eax
  404f98:	75 25                	jne    0x404fbf
  404f9a:	6a ff                	push   $0xffffffff
  404f9c:	8d 45 f0             	lea    -0x10(%ebp),%eax
  404f9f:	50                   	push   %eax
  404fa0:	e8 55 33 00 00       	call   0x4082fa
  404fa5:	59                   	pop    %ecx
  404fa6:	59                   	pop    %ecx
  404fa7:	6a e0                	push   $0xffffffe0
  404fa9:	eb 60                	jmp    0x40500b
  404fab:	81 7d e4 e8 03 00 00 	cmpl   $0x3e8,-0x1c(%ebp)
  404fb2:	77 ca                	ja     0x404f7e
  404fb4:	ff 45 e4             	incl   -0x1c(%ebp)
  404fb7:	8b 45 e4             	mov    -0x1c(%ebp),%eax
  404fba:	e9 47 ff ff ff       	jmp    0x404f06
  404fbf:	8d 8b d0 00 00 00    	lea    0xd0(%ebx),%ecx
  404fc5:	51                   	push   %ecx
  404fc6:	ff 73 78             	pushl  0x78(%ebx)
  404fc9:	ff b3 90 00 00 00    	pushl  0x90(%ebx)
  404fcf:	ff d0                	call   *%eax
  404fd1:	83 65 fc 00          	andl   $0x0,-0x4(%ebp)
  404fd5:	e8 02 00 00 00       	call   0x404fdc
  404fda:	eb 24                	jmp    0x405000
  404fdc:	8b 45 d4             	mov    -0x2c(%ebp),%eax
  404fdf:	05 e0 00 00 00       	add    $0xe0,%eax
  404fe4:	50                   	push   %eax
  404fe5:	ff 55 cc             	call   *-0x34(%ebp)
  404fe8:	c3                   	ret    
  404fe9:	eb 15                	jmp    0x405000
  404feb:	6a e0                	push   $0xffffffe0
  404fed:	e9 f9 fe ff ff       	jmp    0x404eeb
  404ff2:	33 c0                	xor    %eax,%eax
  404ff4:	40                   	inc    %eax
  404ff5:	c3                   	ret    
  404ff6:	8b 65 e8             	mov    -0x18(%ebp),%esp
  404ff9:	c7 45 dc e4 ff ff ff 	movl   $0xffffffe4,-0x24(%ebp)
  405000:	83 4d fc ff          	orl    $0xffffffff,-0x4(%ebp)
  405004:	8b 45 dc             	mov    -0x24(%ebp),%eax
  405007:	eb 03                	jmp    0x40500c
  405009:	6a 57                	push   $0x57
  40500b:	58                   	pop    %eax
  40500c:	e8 d8 32 00 00       	call   0x4082e9
  405011:	c3                   	ret    
  405012:	55                   	push   %ebp
  405013:	8d 6c 24 a0          	lea    -0x60(%esp),%ebp
  405017:	81 ec b4 00 00 00    	sub    $0xb4,%esp
  40501d:	8b 45 7c             	mov    0x7c(%ebp),%eax
  405020:	85 c0                	test   %eax,%eax
  405022:	74 03                	je     0x405027
  405024:	83 20 00             	andl   $0x0,(%eax)
  405027:	56                   	push   %esi
  405028:	8b 75 68             	mov    0x68(%ebp),%esi
  40502b:	83 fe 0a             	cmp    $0xa,%esi
  40502e:	73 08                	jae    0x405038
  405030:	6a e6                	push   $0xffffffe6
  405032:	58                   	pop    %eax
  405033:	e9 00 01 00 00       	jmp    0x405138
  405038:	53                   	push   %ebx
  405039:	57                   	push   %edi
  40503a:	6a 18                	push   $0x18
  40503c:	8d 45 48             	lea    0x48(%ebp),%eax
  40503f:	6a 00                	push   $0x0
  405041:	50                   	push   %eax
  405042:	e8 7b 30 00 00       	call   0x4080c2
  405047:	8b 45 6c             	mov    0x6c(%ebp),%eax
  40504a:	89 45 4c             	mov    %eax,0x4c(%ebp)
  40504d:	8b 45 70             	mov    0x70(%ebp),%eax
  405050:	89 45 50             	mov    %eax,0x50(%ebp)
  405053:	8a 45 74             	mov    0x74(%ebp),%al
  405056:	88 45 54             	mov    %al,0x54(%ebp)
  405059:	8b 45 78             	mov    0x78(%ebp),%eax
  40505c:	83 c4 0c             	add    $0xc,%esp
  40505f:	89 75 48             	mov    %esi,0x48(%ebp)
  405062:	89 45 58             	mov    %eax,0x58(%ebp)
  405065:	ff 15 a0 90 40 00    	call   *0x4090a0
  40506b:	8b d8                	mov    %eax,%ebx
  40506d:	0f b6 c3             	movzbl %bl,%eax
  405070:	83 e8 04             	sub    $0x4,%eax
  405073:	6a be                	push   $0xffffffbe
  405075:	5f                   	pop    %edi
  405076:	0f 84 85 00 00 00    	je     0x405101
  40507c:	48                   	dec    %eax
  40507d:	74 17                	je     0x405096
  40507f:	48                   	dec    %eax
  405080:	0f 85 ae 00 00 00    	jne    0x405134
  405086:	6a 18                	push   $0x18
  405088:	8d 45 48             	lea    0x48(%ebp),%eax
  40508b:	50                   	push   %eax
  40508c:	68 4c 4e 40 00       	push   $0x404e4c
  405091:	e9 84 00 00 00       	jmp    0x40511a
  405096:	be 9c 00 00 00       	mov    $0x9c,%esi
  40509b:	56                   	push   %esi
  40509c:	8d 45 ac             	lea    -0x54(%ebp),%eax
  40509f:	6a 00                	push   $0x0
  4050a1:	50                   	push   %eax
  4050a2:	e8 1b 30 00 00       	call   0x4080c2
  4050a7:	83 c4 0c             	add    $0xc,%esp
  4050aa:	8d 45 ac             	lea    -0x54(%ebp),%eax
  4050ad:	50                   	push   %eax
  4050ae:	89 75 ac             	mov    %esi,-0x54(%ebp)
  4050b1:	ff 15 04 91 40 00    	call   *0x409104
  4050b7:	0f b6 c7             	movzbl %bh,%eax
  4050ba:	83 e8 00             	sub    $0x0,%eax
  4050bd:	74 35                	je     0x4050f4
  4050bf:	48                   	dec    %eax
  4050c0:	74 17                	je     0x4050d9
  4050c2:	48                   	dec    %eax
  4050c3:	75 6f                	jne    0x405134
  4050c5:	66 83 7d 40 00       	cmpw   $0x0,0x40(%ebp)
  4050ca:	8d 45 48             	lea    0x48(%ebp),%eax
  4050cd:	6a 18                	push   $0x18
  4050cf:	50                   	push   %eax
  4050d0:	74 1b                	je     0x4050ed
  4050d2:	68 bf 4c 40 00       	push   $0x404cbf
  4050d7:	eb 41                	jmp    0x40511a
  4050d9:	66 83 7d 40 02       	cmpw   $0x2,0x40(%ebp)
  4050de:	8d 45 48             	lea    0x48(%ebp),%eax
  4050e1:	6a 18                	push   $0x18
  4050e3:	50                   	push   %eax
  4050e4:	73 07                	jae    0x4050ed
  4050e6:	68 a5 49 40 00       	push   $0x4049a5
  4050eb:	eb 2d                	jmp    0x40511a
  4050ed:	68 32 4b 40 00       	push   $0x404b32
  4050f2:	eb 26                	jmp    0x40511a
  4050f4:	6a 18                	push   $0x18
  4050f6:	8d 45 48             	lea    0x48(%ebp),%eax
  4050f9:	50                   	push   %eax
  4050fa:	68 8d 48 40 00       	push   $0x40488d
  4050ff:	eb 19                	jmp    0x40511a
  405101:	e8 ea 2a 00 00       	call   0x407bf0
  405106:	84 c0                	test   %al,%al
  405108:	74 05                	je     0x40510f
  40510a:	6a e2                	push   $0xffffffe2
  40510c:	5f                   	pop    %edi
  40510d:	eb 25                	jmp    0x405134
  40510f:	6a 18                	push   $0x18
  405111:	8d 45 48             	lea    0x48(%ebp),%eax
  405114:	50                   	push   %eax
  405115:	68 75 47 40 00       	push   $0x404775
  40511a:	e8 bc 08 00 00       	call   0x4059db
  40511f:	8b f8                	mov    %eax,%edi
  405121:	83 c4 0c             	add    $0xc,%esp
  405124:	85 ff                	test   %edi,%edi
  405126:	75 0c                	jne    0x405134
  405128:	8b 45 7c             	mov    0x7c(%ebp),%eax
  40512b:	85 c0                	test   %eax,%eax
  40512d:	74 05                	je     0x405134
  40512f:	8b 4d 5c             	mov    0x5c(%ebp),%ecx
  405132:	89 08                	mov    %ecx,(%eax)
  405134:	8b c7                	mov    %edi,%eax
  405136:	5f                   	pop    %edi
  405137:	5b                   	pop    %ebx
  405138:	5e                   	pop    %esi
  405139:	83 c5 60             	add    $0x60,%ebp
  40513c:	c9                   	leave  
  40513d:	c3                   	ret    
  40513e:	55                   	push   %ebp
  40513f:	8b ec                	mov    %esp,%ebp
  405141:	51                   	push   %ecx
  405142:	83 65 fc 00          	andl   $0x0,-0x4(%ebp)
  405146:	56                   	push   %esi
  405147:	8b 75 08             	mov    0x8(%ebp),%esi
  40514a:	68 a0 95 40 00       	push   $0x4095a0
  40514f:	56                   	push   %esi
  405150:	e8 1c 02 00 00       	call   0x405371
  405155:	85 c0                	test   %eax,%eax
  405157:	59                   	pop    %ecx
  405158:	59                   	pop    %ecx
  405159:	74 07                	je     0x405162
  40515b:	ff d0                	call   *%eax
  40515d:	89 45 fc             	mov    %eax,-0x4(%ebp)
  405160:	eb 4a                	jmp    0x4051ac
  405162:	85 f6                	test   %esi,%esi
  405164:	75 04                	jne    0x40516a
  405166:	33 c0                	xor    %eax,%eax
  405168:	eb 45                	jmp    0x4051af
  40516a:	8b 46 08             	mov    0x8(%esi),%eax
  40516d:	83 f8 05             	cmp    $0x5,%eax
  405170:	75 1b                	jne    0x40518d
  405172:	83 7e 0c 02          	cmpl   $0x2,0xc(%esi)
  405176:	75 15                	jne    0x40518d
  405178:	66 83 7e 10 01       	cmpw   $0x1,0x10(%esi)
  40517d:	72 0e                	jb     0x40518d
  40517f:	64 a1 24 01 00 00    	mov    %fs:0x124,%eax
  405185:	8b 40 38             	mov    0x38(%eax),%eax
  405188:	89 45 fc             	mov    %eax,-0x4(%ebp)
  40518b:	eb 1f                	jmp    0x4051ac
  40518d:	83 f8 06             	cmp    $0x6,%eax
  405190:	75 0e                	jne    0x4051a0
  405192:	64 a1 24 01 00 00    	mov    %fs:0x124,%eax
  405198:	8b 40 48             	mov    0x48(%eax),%eax
  40519b:	89 45 fc             	mov    %eax,-0x4(%ebp)
  40519e:	eb 0c                	jmp    0x4051ac
  4051a0:	64 a1 24 01 00 00    	mov    %fs:0x124,%eax
  4051a6:	8b 40 44             	mov    0x44(%eax),%eax
  4051a9:	89 45 fc             	mov    %eax,-0x4(%ebp)
  4051ac:	8b 45 fc             	mov    -0x4(%ebp),%eax
  4051af:	5e                   	pop    %esi
  4051b0:	c9                   	leave  
  4051b1:	c3                   	ret    
  4051b2:	55                   	push   %ebp
  4051b3:	8b ec                	mov    %esp,%ebp
  4051b5:	8b 45 08             	mov    0x8(%ebp),%eax
  4051b8:	56                   	push   %esi
  4051b9:	33 f6                	xor    %esi,%esi
  4051bb:	3b c6                	cmp    %esi,%eax
  4051bd:	74 46                	je     0x405205
  4051bf:	8b 48 08             	mov    0x8(%eax),%ecx
  4051c2:	83 e9 04             	sub    $0x4,%ecx
  4051c5:	0f 84 5b 01 00 00    	je     0x405326
  4051cb:	49                   	dec    %ecx
  4051cc:	74 3c                	je     0x40520a
  4051ce:	49                   	dec    %ecx
  4051cf:	75 34                	jne    0x405205
  4051d1:	50                   	push   %eax
  4051d2:	e8 67 ff ff ff       	call   0x40513e
  4051d7:	59                   	pop    %ecx
  4051d8:	8b c8                	mov    %eax,%ecx
  4051da:	33 d2                	xor    %edx,%edx
  4051dc:	3b ce                	cmp    %esi,%ecx
  4051de:	74 27                	je     0x405207
  4051e0:	8b b0 9c 00 00 00    	mov    0x9c(%eax),%esi
  4051e6:	3b 75 0c             	cmp    0xc(%ebp),%esi
  4051e9:	74 1c                	je     0x405207
  4051eb:	8b 80 a0 00 00 00    	mov    0xa0(%eax),%eax
  4051f1:	2d a0 00 00 00       	sub    $0xa0,%eax
  4051f6:	74 0d                	je     0x405205
  4051f8:	3b c1                	cmp    %ecx,%eax
  4051fa:	74 09                	je     0x405205
  4051fc:	42                   	inc    %edx
  4051fd:	81 fa e8 03 00 00    	cmp    $0x3e8,%edx
  405203:	7e db                	jle    0x4051e0
  405205:	33 c0                	xor    %eax,%eax
  405207:	5e                   	pop    %esi
  405208:	5d                   	pop    %ebp
  405209:	c3                   	ret    
  40520a:	8b 48 0c             	mov    0xc(%eax),%ecx
  40520d:	3b ce                	cmp    %esi,%ecx
  40520f:	75 38                	jne    0x405249
  405211:	50                   	push   %eax
  405212:	e8 27 ff ff ff       	call   0x40513e
  405217:	8b 55 0c             	mov    0xc(%ebp),%edx
  40521a:	59                   	pop    %ecx
  40521b:	8b c8                	mov    %eax,%ecx
  40521d:	39 91 9c 00 00 00    	cmp    %edx,0x9c(%ecx)
  405223:	74 e2                	je     0x405207
  405225:	8b 80 a0 00 00 00    	mov    0xa0(%eax),%eax
  40522b:	2d a0 00 00 00       	sub    $0xa0,%eax
  405230:	74 d3                	je     0x405205
  405232:	3b c1                	cmp    %ecx,%eax
  405234:	74 cf                	je     0x405205
  405236:	46                   	inc    %esi
  405237:	81 fe e8 03 00 00    	cmp    $0x3e8,%esi
  40523d:	7f c6                	jg     0x405205
  40523f:	39 90 9c 00 00 00    	cmp    %edx,0x9c(%eax)
  405245:	75 de                	jne    0x405225
  405247:	eb be                	jmp    0x405207
  405249:	83 f9 01             	cmp    $0x1,%ecx
  40524c:	75 38                	jne    0x405286
  40524e:	50                   	push   %eax
  40524f:	e8 ea fe ff ff       	call   0x40513e
  405254:	8b 55 0c             	mov    0xc(%ebp),%edx
  405257:	59                   	pop    %ecx
  405258:	8b c8                	mov    %eax,%ecx
  40525a:	39 91 84 00 00 00    	cmp    %edx,0x84(%ecx)
  405260:	74 a5                	je     0x405207
  405262:	8b 80 88 00 00 00    	mov    0x88(%eax),%eax
  405268:	2d 88 00 00 00       	sub    $0x88,%eax
  40526d:	74 96                	je     0x405205
  40526f:	3b c1                	cmp    %ecx,%eax
  405271:	74 92                	je     0x405205
  405273:	46                   	inc    %esi
  405274:	81 fe e8 03 00 00    	cmp    $0x3e8,%esi
  40527a:	7f 89                	jg     0x405205
  40527c:	39 90 84 00 00 00    	cmp    %edx,0x84(%eax)
  405282:	75 de                	jne    0x405262
  405284:	eb 81                	jmp    0x405207
  405286:	83 f9 02             	cmp    $0x2,%ecx
  405289:	0f 85 76 ff ff ff    	jne    0x405205
  40528f:	66 39 70 10          	cmp    %si,0x10(%eax)
  405293:	50                   	push   %eax
  405294:	75 4a                	jne    0x4052e0
  405296:	e8 a3 fe ff ff       	call   0x40513e
  40529b:	8b 55 0c             	mov    0xc(%ebp),%edx
  40529e:	59                   	pop    %ecx
  40529f:	8b c8                	mov    %eax,%ecx
  4052a1:	39 91 84 00 00 00    	cmp    %edx,0x84(%ecx)
  4052a7:	0f 84 5a ff ff ff    	je     0x405207
  4052ad:	8b 80 88 00 00 00    	mov    0x88(%eax),%eax
  4052b3:	2d 88 00 00 00       	sub    $0x88,%eax
  4052b8:	0f 84 47 ff ff ff    	je     0x405205
  4052be:	3b c1                	cmp    %ecx,%eax
  4052c0:	0f 84 3f ff ff ff    	je     0x405205
  4052c6:	46                   	inc    %esi
  4052c7:	81 fe e8 03 00 00    	cmp    $0x3e8,%esi
  4052cd:	0f 8f 32 ff ff ff    	jg     0x405205
  4052d3:	39 90 84 00 00 00    	cmp    %edx,0x84(%eax)
  4052d9:	75 d2                	jne    0x4052ad
  4052db:	e9 27 ff ff ff       	jmp    0x405207
  4052e0:	e8 59 fe ff ff       	call   0x40513e
  4052e5:	59                   	pop    %ecx
  4052e6:	8b c8                	mov    %eax,%ecx
  4052e8:	3b ce                	cmp    %esi,%ecx
  4052ea:	0f 84 17 ff ff ff    	je     0x405207
  4052f0:	8b 90 94 00 00 00    	mov    0x94(%eax),%edx
  4052f6:	3b 55 0c             	cmp    0xc(%ebp),%edx
  4052f9:	0f 84 08 ff ff ff    	je     0x405207
  4052ff:	8b 80 98 00 00 00    	mov    0x98(%eax),%eax
  405305:	2d 98 00 00 00       	sub    $0x98,%eax
  40530a:	0f 84 f5 fe ff ff    	je     0x405205
  405310:	3b c1                	cmp    %ecx,%eax
  405312:	0f 84 ed fe ff ff    	je     0x405205
  405318:	46                   	inc    %esi
  405319:	81 fe e8 03 00 00    	cmp    $0x3e8,%esi
  40531f:	7e cf                	jle    0x4052f0
  405321:	e9 df fe ff ff       	jmp    0x405205
  405326:	50                   	push   %eax
  405327:	e8 12 fe ff ff       	call   0x40513e
  40532c:	8b 55 0c             	mov    0xc(%ebp),%edx
  40532f:	59                   	pop    %ecx
  405330:	8b c8                	mov    %eax,%ecx
  405332:	39 91 94 00 00 00    	cmp    %edx,0x94(%ecx)
  405338:	0f 84 c9 fe ff ff    	je     0x405207
  40533e:	8b 80 98 00 00 00    	mov    0x98(%eax),%eax
  405344:	2d 98 00 00 00       	sub    $0x98,%eax
  405349:	0f 84 b6 fe ff ff    	je     0x405205
  40534f:	3b c1                	cmp    %ecx,%eax
  405351:	0f 84 ae fe ff ff    	je     0x405205
  405357:	46                   	inc    %esi
  405358:	81 fe e8 03 00 00    	cmp    $0x3e8,%esi
  40535e:	0f 8f a1 fe ff ff    	jg     0x405205
  405364:	39 90 94 00 00 00    	cmp    %edx,0x94(%eax)
  40536a:	75 d2                	jne    0x40533e
  40536c:	e9 96 fe ff ff       	jmp    0x405207
  405371:	55                   	push   %ebp
  405372:	8b ec                	mov    %esp,%ebp
  405374:	51                   	push   %ecx
  405375:	51                   	push   %ecx
  405376:	56                   	push   %esi
  405377:	8b 75 08             	mov    0x8(%ebp),%esi
  40537a:	85 f6                	test   %esi,%esi
  40537c:	57                   	push   %edi
  40537d:	74 56                	je     0x4053d5
  40537f:	8b 7d 0c             	mov    0xc(%ebp),%edi
  405382:	85 ff                	test   %edi,%edi
  405384:	74 4f                	je     0x4053d5
  405386:	83 7e 18 00          	cmpl   $0x0,0x18(%esi)
  40538a:	57                   	push   %edi
  40538b:	74 31                	je     0x4053be
  40538d:	e8 24 2d 00 00       	call   0x4080b6
  405392:	83 65 08 00          	andl   $0x0,0x8(%ebp)
  405396:	66 89 45 f8          	mov    %ax,-0x8(%ebp)
  40539a:	8b 45 f8             	mov    -0x8(%ebp),%eax
  40539d:	40                   	inc    %eax
  40539e:	59                   	pop    %ecx
  40539f:	66 89 45 fa          	mov    %ax,-0x6(%ebp)
  4053a3:	8d 45 08             	lea    0x8(%ebp),%eax
  4053a6:	50                   	push   %eax
  4053a7:	6a 00                	push   $0x0
  4053a9:	8d 45 f8             	lea    -0x8(%ebp),%eax
  4053ac:	50                   	push   %eax
  4053ad:	ff 36                	pushl  (%esi)
  4053af:	89 7d fc             	mov    %edi,-0x4(%ebp)
  4053b2:	ff 56 18             	call   *0x18(%esi)
  4053b5:	85 c0                	test   %eax,%eax
  4053b7:	75 1c                	jne    0x4053d5
  4053b9:	8b 4d 08             	mov    0x8(%ebp),%ecx
  4053bc:	eb 0a                	jmp    0x4053c8
  4053be:	ff 36                	pushl  (%esi)
  4053c0:	ff 15 0c 91 40 00    	call   *0x40910c
  4053c6:	8b c8                	mov    %eax,%ecx
  4053c8:	85 c9                	test   %ecx,%ecx
  4053ca:	74 09                	je     0x4053d5
  4053cc:	8b 46 04             	mov    0x4(%esi),%eax
  4053cf:	2b 06                	sub    (%esi),%eax
  4053d1:	03 c1                	add    %ecx,%eax
  4053d3:	eb 02                	jmp    0x4053d7
  4053d5:	33 c0                	xor    %eax,%eax
  4053d7:	5f                   	pop    %edi
  4053d8:	5e                   	pop    %esi
  4053d9:	c9                   	leave  
  4053da:	c3                   	ret    
  4053db:	55                   	push   %ebp
  4053dc:	8b ec                	mov    %esp,%ebp
  4053de:	51                   	push   %ecx
  4053df:	53                   	push   %ebx
  4053e0:	56                   	push   %esi
  4053e1:	81 c2 00 f0 ff ff    	add    $0xfffff000,%edx
  4053e7:	83 65 fc 00          	andl   $0x0,-0x4(%ebp)
  4053eb:	57                   	push   %edi
  4053ec:	80 3a 55             	cmpb   $0x55,(%edx)
  4053ef:	0f 85 b0 00 00 00    	jne    0x4054a5
  4053f5:	80 7a 01 8b          	cmpb   $0x8b,0x1(%edx)
  4053f9:	0f 85 a6 00 00 00    	jne    0x4054a5
  4053ff:	80 7a 02 ec          	cmpb   $0xec,0x2(%edx)
  405403:	0f 85 9c 00 00 00    	jne    0x4054a5
  405409:	8b ca                	mov    %edx,%ecx
  40540b:	33 ff                	xor    %edi,%edi
  40540d:	80 39 e8             	cmpb   $0xe8,(%ecx)
  405410:	0f 85 84 00 00 00    	jne    0x40549a
  405416:	0f b6 41 04          	movzbl 0x4(%ecx),%eax
  40541a:	0f b6 71 03          	movzbl 0x3(%ecx),%esi
  40541e:	c1 e0 08             	shl    $0x8,%eax
  405421:	03 c6                	add    %esi,%eax
  405423:	0f b6 71 02          	movzbl 0x2(%ecx),%esi
  405427:	c1 e0 08             	shl    $0x8,%eax
  40542a:	03 c6                	add    %esi,%eax
  40542c:	0f b6 71 01          	movzbl 0x1(%ecx),%esi
  405430:	c1 e0 08             	shl    $0x8,%eax
  405433:	03 c1                	add    %ecx,%eax
  405435:	8d 44 06 05          	lea    0x5(%esi,%eax,1),%eax
  405439:	8b 75 0c             	mov    0xc(%ebp),%esi
  40543c:	3b c6                	cmp    %esi,%eax
  40543e:	72 5b                	jb     0x40549b
  405440:	8b 5d 10             	mov    0x10(%ebp),%ebx
  405443:	03 f3                	add    %ebx,%esi
  405445:	3b c6                	cmp    %esi,%eax
  405447:	77 52                	ja     0x40549b
  405449:	33 ff                	xor    %edi,%edi
  40544b:	80 38 ff             	cmpb   $0xff,(%eax)
  40544e:	75 0e                	jne    0x40545e
  405450:	80 78 01 15          	cmpb   $0x15,0x1(%eax)
  405454:	75 08                	jne    0x40545e
  405456:	8b 70 02             	mov    0x2(%eax),%esi
  405459:	3b 75 14             	cmp    0x14(%ebp),%esi
  40545c:	74 09                	je     0x405467
  40545e:	40                   	inc    %eax
  40545f:	47                   	inc    %edi
  405460:	83 ff 32             	cmp    $0x32,%edi
  405463:	7c e6                	jl     0x40544b
  405465:	eb 33                	jmp    0x40549a
  405467:	83 c0 06             	add    $0x6,%eax
  40546a:	33 f6                	xor    %esi,%esi
  40546c:	80 38 ff             	cmpb   $0xff,(%eax)
  40546f:	75 22                	jne    0x405493
  405471:	80 78 01 15          	cmpb   $0x15,0x1(%eax)
  405475:	75 1c                	jne    0x405493
  405477:	8b 58 02             	mov    0x2(%eax),%ebx
  40547a:	3b 5d 18             	cmp    0x18(%ebp),%ebx
  40547d:	75 14                	jne    0x405493
  40547f:	83 c1 05             	add    $0x5,%ecx
  405482:	80 39 85             	cmpb   $0x85,(%ecx)
  405485:	75 0c                	jne    0x405493
  405487:	80 79 01 c0          	cmpb   $0xc0,0x1(%ecx)
  40548b:	75 06                	jne    0x405493
  40548d:	80 79 02 74          	cmpb   $0x74,0x2(%ecx)
  405491:	74 2a                	je     0x4054bd
  405493:	40                   	inc    %eax
  405494:	46                   	inc    %esi
  405495:	83 fe 14             	cmp    $0x14,%esi
  405498:	7c d2                	jl     0x40546c
  40549a:	41                   	inc    %ecx
  40549b:	47                   	inc    %edi
  40549c:	83 ff 32             	cmp    $0x32,%edi
  40549f:	0f 8c 68 ff ff ff    	jl     0x40540d
  4054a5:	42                   	inc    %edx
  4054a6:	ff 45 fc             	incl   -0x4(%ebp)
  4054a9:	81 7d fc 00 20 00 00 	cmpl   $0x2000,-0x4(%ebp)
  4054b0:	0f 8c 36 ff ff ff    	jl     0x4053ec
  4054b6:	32 c0                	xor    %al,%al
  4054b8:	5f                   	pop    %edi
  4054b9:	5e                   	pop    %esi
  4054ba:	5b                   	pop    %ebx
  4054bb:	c9                   	leave  
  4054bc:	c3                   	ret    
  4054bd:	8b 45 08             	mov    0x8(%ebp),%eax
  4054c0:	8b 50 04             	mov    0x4(%eax),%edx
  4054c3:	2b 10                	sub    (%eax),%edx
  4054c5:	8d 4c 0a 02          	lea    0x2(%edx,%ecx,1),%ecx
  4054c9:	89 48 14             	mov    %ecx,0x14(%eax)
  4054cc:	b0 01                	mov    $0x1,%al
  4054ce:	eb e8                	jmp    0x4054b8
  4054d0:	56                   	push   %esi
  4054d1:	57                   	push   %edi
  4054d2:	81 c1 00 f0 ff ff    	add    $0xfffff000,%ecx
  4054d8:	33 ff                	xor    %edi,%edi
  4054da:	80 39 55             	cmpb   $0x55,(%ecx)
  4054dd:	75 6b                	jne    0x40554a
  4054df:	80 79 01 8b          	cmpb   $0x8b,0x1(%ecx)
  4054e3:	75 65                	jne    0x40554a
  4054e5:	80 79 02 ec          	cmpb   $0xec,0x2(%ecx)
  4054e9:	75 5f                	jne    0x40554a
  4054eb:	8d 41 03             	lea    0x3(%ecx),%eax
  4054ee:	33 ff                	xor    %edi,%edi
  4054f0:	80 38 ff             	cmpb   $0xff,(%eax)
  4054f3:	75 0f                	jne    0x405504
  4054f5:	80 78 01 15          	cmpb   $0x15,0x1(%eax)
  4054f9:	75 09                	jne    0x405504
  4054fb:	8b 50 02             	mov    0x2(%eax),%edx
  4054fe:	3b 54 24 0c          	cmp    0xc(%esp),%edx
  405502:	74 09                	je     0x40550d
  405504:	40                   	inc    %eax
  405505:	47                   	inc    %edi
  405506:	83 ff 32             	cmp    $0x32,%edi
  405509:	7c e5                	jl     0x4054f0
  40550b:	eb 3d                	jmp    0x40554a
  40550d:	83 c0 06             	add    $0x6,%eax
  405510:	33 f6                	xor    %esi,%esi
  405512:	80 38 ff             	cmpb   $0xff,(%eax)
  405515:	75 2c                	jne    0x405543
  405517:	80 78 01 15          	cmpb   $0x15,0x1(%eax)
  40551b:	75 26                	jne    0x405543
  40551d:	8b 50 02             	mov    0x2(%eax),%edx
  405520:	3b 54 24 10          	cmp    0x10(%esp),%edx
  405524:	75 1d                	jne    0x405543
  405526:	83 c0 06             	add    $0x6,%eax
  405529:	33 d2                	xor    %edx,%edx
  40552b:	80 38 85             	cmpb   $0x85,(%eax)
  40552e:	75 0c                	jne    0x40553c
  405530:	80 78 01 c0          	cmpb   $0xc0,0x1(%eax)
  405534:	75 06                	jne    0x40553c
  405536:	80 78 02 74          	cmpb   $0x74,0x2(%eax)
  40553a:	74 1d                	je     0x405559
  40553c:	40                   	inc    %eax
  40553d:	42                   	inc    %edx
  40553e:	83 fa 28             	cmp    $0x28,%edx
  405541:	7c e8                	jl     0x40552b
  405543:	40                   	inc    %eax
  405544:	46                   	inc    %esi
  405545:	83 fe 14             	cmp    $0x14,%esi
  405548:	7c c8                	jl     0x405512
  40554a:	41                   	inc    %ecx
  40554b:	47                   	inc    %edi
  40554c:	81 ff 00 20 00 00    	cmp    $0x2000,%edi
  405552:	7c 86                	jl     0x4054da
  405554:	32 c0                	xor    %al,%al
  405556:	5f                   	pop    %edi
  405557:	5e                   	pop    %esi
  405558:	c3                   	ret    
  405559:	8b 4b 04             	mov    0x4(%ebx),%ecx
  40555c:	2b 0b                	sub    (%ebx),%ecx
  40555e:	8d 44 01 02          	lea    0x2(%ecx,%eax,1),%eax
  405562:	89 43 14             	mov    %eax,0x14(%ebx)
  405565:	b0 01                	mov    $0x1,%al
  405567:	eb ed                	jmp    0x405556
  405569:	6a 50                	push   $0x50
  40556b:	68 38 96 40 00       	push   $0x409638
  405570:	e8 3b 2d 00 00       	call   0x4082b0
  405575:	8b 5d 08             	mov    0x8(%ebp),%ebx
  405578:	33 c0                	xor    %eax,%eax
  40557a:	89 45 cc             	mov    %eax,-0x34(%ebp)
  40557d:	89 45 d0             	mov    %eax,-0x30(%ebp)
  405580:	89 45 dc             	mov    %eax,-0x24(%ebp)
  405583:	89 45 d8             	mov    %eax,-0x28(%ebp)
  405586:	8b 03                	mov    (%ebx),%eax
  405588:	66 81 38 4d 5a       	cmpw   $0x5a4d,(%eax)
  40558d:	0f 85 75 01 00 00    	jne    0x405708
  405593:	8b 70 3c             	mov    0x3c(%eax),%esi
  405596:	03 f0                	add    %eax,%esi
  405598:	68 f8 00 00 00       	push   $0xf8
  40559d:	56                   	push   %esi
  40559e:	ff 15 a4 90 40 00    	call   *0x4090a4
  4055a4:	85 c0                	test   %eax,%eax
  4055a6:	0f 85 5c 01 00 00    	jne    0x405708
  4055ac:	81 3e 50 45 00 00    	cmpl   $0x4550,(%esi)
  4055b2:	0f 85 50 01 00 00    	jne    0x405708
  4055b8:	8b 4e 2c             	mov    0x2c(%esi),%ecx
  4055bb:	8b 7e 34             	mov    0x34(%esi),%edi
  4055be:	03 f9                	add    %ecx,%edi
  4055c0:	89 7d b8             	mov    %edi,-0x48(%ebp)
  4055c3:	8b 03                	mov    (%ebx),%eax
  4055c5:	03 c1                	add    %ecx,%eax
  4055c7:	89 45 d4             	mov    %eax,-0x2c(%ebp)
  4055ca:	8b 46 1c             	mov    0x1c(%esi),%eax
  4055cd:	89 45 b4             	mov    %eax,-0x4c(%ebp)
  4055d0:	c7 45 c8 20 96 40 00 	movl   $0x409620,-0x38(%ebp)
  4055d7:	8b 43 08             	mov    0x8(%ebx),%eax
  4055da:	83 f8 05             	cmp    $0x5,%eax
  4055dd:	75 0d                	jne    0x4055ec
  4055df:	83 7b 0c 02          	cmpl   $0x2,0xc(%ebx)
  4055e3:	75 07                	jne    0x4055ec
  4055e5:	66 83 7b 10 01       	cmpw   $0x1,0x10(%ebx)
  4055ea:	73 05                	jae    0x4055f1
  4055ec:	83 f8 06             	cmp    $0x6,%eax
  4055ef:	72 07                	jb     0x4055f8
  4055f1:	c7 45 c8 08 96 40 00 	movl   $0x409608,-0x38(%ebp)
  4055f8:	68 fc 95 40 00       	push   $0x4095fc
  4055fd:	ff 15 08 91 40 00    	call   *0x409108
  405603:	89 45 c0             	mov    %eax,-0x40(%ebp)
  405606:	85 c0                	test   %eax,%eax
  405608:	0f 84 fa 00 00 00    	je     0x405708
  40560e:	68 dc 95 40 00       	push   $0x4095dc
  405613:	50                   	push   %eax
  405614:	ff 15 0c 91 40 00    	call   *0x40910c
  40561a:	85 c0                	test   %eax,%eax
  40561c:	0f 84 e6 00 00 00    	je     0x405708
  405622:	8d 4d b0             	lea    -0x50(%ebp),%ecx
  405625:	51                   	push   %ecx
  405626:	6a 01                	push   $0x1
  405628:	6a 01                	push   $0x1
  40562a:	ff 33                	pushl  (%ebx)
  40562c:	ff d0                	call   *%eax
  40562e:	8b f0                	mov    %eax,%esi
  405630:	ff 75 c0             	pushl  -0x40(%ebp)
  405633:	ff 15 18 91 40 00    	call   *0x409118
  405639:	85 f6                	test   %esi,%esi
  40563b:	0f 84 0d 01 00 00    	je     0x40574e
  405641:	8b 4e 0c             	mov    0xc(%esi),%ecx
  405644:	85 c9                	test   %ecx,%ecx
  405646:	0f 84 02 01 00 00    	je     0x40574e
  40564c:	83 7e 10 00          	cmpl   $0x0,0x10(%esi)
  405650:	0f 84 f8 00 00 00    	je     0x40574e
  405656:	8b 03                	mov    (%ebx),%eax
  405658:	03 c1                	add    %ecx,%eax
  40565a:	50                   	push   %eax
  40565b:	68 d4 95 40 00       	push   $0x4095d4
  405660:	e8 9b 2c 00 00       	call   0x408300
  405665:	59                   	pop    %ecx
  405666:	59                   	pop    %ecx
  405667:	85 c0                	test   %eax,%eax
  405669:	0f 85 d7 00 00 00    	jne    0x405746
  40566f:	8b 76 10             	mov    0x10(%esi),%esi
  405672:	85 f6                	test   %esi,%esi
  405674:	0f 84 82 00 00 00    	je     0x4056fc
  40567a:	03 33                	add    (%ebx),%esi
  40567c:	89 75 c4             	mov    %esi,-0x3c(%ebp)
  40567f:	89 75 e0             	mov    %esi,-0x20(%ebp)
  405682:	8b 45 e0             	mov    -0x20(%ebp),%eax
  405685:	8b 08                	mov    (%eax),%ecx
  405687:	85 c9                	test   %ecx,%ecx
  405689:	74 71                	je     0x4056fc
  40568b:	83 65 fc 00          	andl   $0x0,-0x4(%ebp)
  40568f:	8b c1                	mov    %ecx,%eax
  405691:	c1 e8 1f             	shr    $0x1f,%eax
  405694:	24 01                	and    $0x1,%al
  405696:	88 45 e7             	mov    %al,-0x19(%ebp)
  405699:	75 51                	jne    0x4056ec
  40569b:	8b 03                	mov    (%ebx),%eax
  40569d:	03 c1                	add    %ecx,%eax
  40569f:	89 45 ac             	mov    %eax,-0x54(%ebp)
  4056a2:	83 c0 02             	add    $0x2,%eax
  4056a5:	89 45 bc             	mov    %eax,-0x44(%ebp)
  4056a8:	68 c0 95 40 00       	push   $0x4095c0
  4056ad:	50                   	push   %eax
  4056ae:	e8 4d 2c 00 00       	call   0x408300
  4056b3:	59                   	pop    %ecx
  4056b4:	59                   	pop    %ecx
  4056b5:	85 c0                	test   %eax,%eax
  4056b7:	75 11                	jne    0x4056ca
  4056b9:	8b 45 e0             	mov    -0x20(%ebp),%eax
  4056bc:	89 45 dc             	mov    %eax,-0x24(%ebp)
  4056bf:	2b 45 d4             	sub    -0x2c(%ebp),%eax
  4056c2:	89 45 a8             	mov    %eax,-0x58(%ebp)
  4056c5:	03 c7                	add    %edi,%eax
  4056c7:	89 45 cc             	mov    %eax,-0x34(%ebp)
  4056ca:	ff 75 c8             	pushl  -0x38(%ebp)
  4056cd:	ff 75 bc             	pushl  -0x44(%ebp)
  4056d0:	e8 2b 2c 00 00       	call   0x408300
  4056d5:	59                   	pop    %ecx
  4056d6:	59                   	pop    %ecx
  4056d7:	85 c0                	test   %eax,%eax
  4056d9:	75 11                	jne    0x4056ec
  4056db:	8b 45 e0             	mov    -0x20(%ebp),%eax
  4056de:	89 45 d8             	mov    %eax,-0x28(%ebp)
  4056e1:	2b 45 d4             	sub    -0x2c(%ebp),%eax
  4056e4:	89 45 a4             	mov    %eax,-0x5c(%ebp)
  4056e7:	03 c7                	add    %edi,%eax
  4056e9:	89 45 d0             	mov    %eax,-0x30(%ebp)
  4056ec:	83 7d dc 00          	cmpl   $0x0,-0x24(%ebp)
  4056f0:	74 1e                	je     0x405710
  4056f2:	83 7d d8 00          	cmpl   $0x0,-0x28(%ebp)
  4056f6:	74 18                	je     0x405710
  4056f8:	83 4d fc ff          	orl    $0xffffffff,-0x4(%ebp)
  4056fc:	83 7d dc 00          	cmpl   $0x0,-0x24(%ebp)
  405700:	74 06                	je     0x405708
  405702:	83 7d d8 00          	cmpl   $0x0,-0x28(%ebp)
  405706:	75 46                	jne    0x40574e
  405708:	32 c0                	xor    %al,%al
  40570a:	e8 da 2b 00 00       	call   0x4082e9
  40570f:	c3                   	ret    
  405710:	83 45 e0 04          	addl   $0x4,-0x20(%ebp)
  405714:	83 c6 04             	add    $0x4,%esi
  405717:	89 75 c4             	mov    %esi,-0x3c(%ebp)
  40571a:	83 4d fc ff          	orl    $0xffffffff,-0x4(%ebp)
  40571e:	e9 5f ff ff ff       	jmp    0x405682
  405723:	8b 45 ec             	mov    -0x14(%ebp),%eax
  405726:	8b 00                	mov    (%eax),%eax
  405728:	8b 00                	mov    (%eax),%eax
  40572a:	89 45 a0             	mov    %eax,-0x60(%ebp)
  40572d:	33 c0                	xor    %eax,%eax
  40572f:	40                   	inc    %eax
  405730:	c3                   	ret    
  405731:	8b 65 e8             	mov    -0x18(%ebp),%esp
  405734:	83 4d fc ff          	orl    $0xffffffff,-0x4(%ebp)
  405738:	8b 5d 08             	mov    0x8(%ebp),%ebx
  40573b:	8b 7d b8             	mov    -0x48(%ebp),%edi
  40573e:	8b 75 c4             	mov    -0x3c(%ebp),%esi
  405741:	e9 3c ff ff ff       	jmp    0x405682
  405746:	83 c6 14             	add    $0x14,%esi
  405749:	e9 f3 fe ff ff       	jmp    0x405641
  40574e:	68 b4 95 40 00       	push   $0x4095b4
  405753:	ff 33                	pushl  (%ebx)
  405755:	ff 15 0c 91 40 00    	call   *0x40910c
  40575b:	85 c0                	test   %eax,%eax
  40575d:	74 a9                	je     0x405708
  40575f:	ff 75 d0             	pushl  -0x30(%ebp)
  405762:	ff 75 cc             	pushl  -0x34(%ebp)
  405765:	83 7b 08 06          	cmpl   $0x6,0x8(%ebx)
  405769:	73 13                	jae    0x40577e
  40576b:	ff 75 b4             	pushl  -0x4c(%ebp)
  40576e:	ff 75 d4             	pushl  -0x2c(%ebp)
  405771:	53                   	push   %ebx
  405772:	8b d0                	mov    %eax,%edx
  405774:	e8 62 fc ff ff       	call   0x4053db
  405779:	83 c4 14             	add    $0x14,%esp
  40577c:	eb 8c                	jmp    0x40570a
  40577e:	8b c8                	mov    %eax,%ecx
  405780:	e8 4b fd ff ff       	call   0x4054d0
  405785:	59                   	pop    %ecx
  405786:	59                   	pop    %ecx
  405787:	eb 81                	jmp    0x40570a
  405789:	55                   	push   %ebp
  40578a:	8d 6c 24 8c          	lea    -0x74(%esp),%ebp
  40578e:	81 ec 9c 00 00 00    	sub    $0x9c,%esp
  405794:	53                   	push   %ebx
  405795:	56                   	push   %esi
  405796:	8b 75 7c             	mov    0x7c(%ebp),%esi
  405799:	33 db                	xor    %ebx,%ebx
  40579b:	3b f3                	cmp    %ebx,%esi
  40579d:	75 07                	jne    0x4057a6
  40579f:	32 c0                	xor    %al,%al
  4057a1:	e9 2d 01 00 00       	jmp    0x4058d3
  4057a6:	57                   	push   %edi
  4057a7:	6a 24                	push   $0x24
  4057a9:	53                   	push   %ebx
  4057aa:	56                   	push   %esi
  4057ab:	e8 12 29 00 00       	call   0x4080c2
  4057b0:	b8 84 96 40 00       	mov    $0x409684,%eax
  4057b5:	50                   	push   %eax
  4057b6:	8b f8                	mov    %eax,%edi
  4057b8:	e8 99 26 00 00       	call   0x407e56
  4057bd:	83 c4 10             	add    $0x10,%esp
  4057c0:	3b c3                	cmp    %ebx,%eax
  4057c2:	89 46 04             	mov    %eax,0x4(%esi)
  4057c5:	75 1c                	jne    0x4057e3
  4057c7:	b8 74 96 40 00       	mov    $0x409674,%eax
  4057cc:	50                   	push   %eax
  4057cd:	8b f8                	mov    %eax,%edi
  4057cf:	e8 82 26 00 00       	call   0x407e56
  4057d4:	3b c3                	cmp    %ebx,%eax
  4057d6:	59                   	pop    %ecx
  4057d7:	89 46 04             	mov    %eax,0x4(%esi)
  4057da:	75 07                	jne    0x4057e3
  4057dc:	32 c0                	xor    %al,%al
  4057de:	e9 ef 00 00 00       	jmp    0x4058d2
  4057e3:	6a 01                	push   $0x1
  4057e5:	53                   	push   %ebx
  4057e6:	57                   	push   %edi
  4057e7:	ff 15 ac 90 40 00    	call   *0x4090ac
  4057ed:	3b c3                	cmp    %ebx,%eax
  4057ef:	89 06                	mov    %eax,(%esi)
  4057f1:	74 e9                	je     0x4057dc
  4057f3:	8d 45 d8             	lea    -0x28(%ebp),%eax
  4057f6:	50                   	push   %eax
  4057f7:	c7 45 d8 9c 00 00 00 	movl   $0x9c,-0x28(%ebp)
  4057fe:	ff 15 04 91 40 00    	call   *0x409104
  405804:	85 c0                	test   %eax,%eax
  405806:	75 14                	jne    0x40581c
  405808:	ff 15 a0 90 40 00    	call   *0x4090a0
  40580e:	0f b6 c8             	movzbl %al,%ecx
  405811:	0f b6 c4             	movzbl %ah,%eax
  405814:	89 4e 08             	mov    %ecx,0x8(%esi)
  405817:	89 46 0c             	mov    %eax,0xc(%esi)
  40581a:	eb 3d                	jmp    0x405859
  40581c:	8b 4d dc             	mov    -0x24(%ebp),%ecx
  40581f:	83 f9 05             	cmp    $0x5,%ecx
  405822:	8b 45 e0             	mov    -0x20(%ebp),%eax
  405825:	66 8b 55 6c          	mov    0x6c(%ebp),%dx
  405829:	66 8b 7d 6e          	mov    0x6e(%ebp),%di
  40582d:	89 4e 08             	mov    %ecx,0x8(%esi)
  405830:	89 46 0c             	mov    %eax,0xc(%esi)
  405833:	66 89 56 10          	mov    %dx,0x10(%esi)
  405837:	66 89 7e 12          	mov    %di,0x12(%esi)
  40583b:	75 10                	jne    0x40584d
  40583d:	83 f8 01             	cmp    $0x1,%eax
  405840:	75 06                	jne    0x405848
  405842:	66 83 fa 02          	cmp    $0x2,%dx
  405846:	73 0a                	jae    0x405852
  405848:	83 f8 02             	cmp    $0x2,%eax
  40584b:	74 05                	je     0x405852
  40584d:	83 f9 06             	cmp    $0x6,%ecx
  405850:	72 07                	jb     0x405859
  405852:	56                   	push   %esi
  405853:	e8 11 fd ff ff       	call   0x405569
  405858:	59                   	pop    %ecx
  405859:	8b 46 08             	mov    0x8(%esi),%eax
  40585c:	83 e8 04             	sub    $0x4,%eax
  40585f:	74 49                	je     0x4058aa
  405861:	48                   	dec    %eax
  405862:	74 05                	je     0x405869
  405864:	48                   	dec    %eax
  405865:	75 49                	jne    0x4058b0
  405867:	eb 0e                	jmp    0x405877
  405869:	8b 46 0c             	mov    0xc(%esi),%eax
  40586c:	3b c3                	cmp    %ebx,%eax
  40586e:	74 28                	je     0x405898
  405870:	76 3e                	jbe    0x4058b0
  405872:	83 f8 02             	cmp    $0x2,%eax
  405875:	77 39                	ja     0x4058b0
  405877:	68 68 96 40 00       	push   $0x409668
  40587c:	56                   	push   %esi
  40587d:	e8 ef fa ff ff       	call   0x405371
  405882:	68 5c 96 40 00       	push   $0x40965c
  405887:	56                   	push   %esi
  405888:	89 46 1c             	mov    %eax,0x1c(%esi)
  40588b:	e8 e1 fa ff ff       	call   0x405371
  405890:	83 c4 10             	add    $0x10,%esp
  405893:	89 46 20             	mov    %eax,0x20(%esi)
  405896:	eb 18                	jmp    0x4058b0
  405898:	68 68 96 40 00       	push   $0x409668
  40589d:	56                   	push   %esi
  40589e:	e8 ce fa ff ff       	call   0x405371
  4058a3:	59                   	pop    %ecx
  4058a4:	59                   	pop    %ecx
  4058a5:	89 46 1c             	mov    %eax,0x1c(%esi)
  4058a8:	eb 03                	jmp    0x4058ad
  4058aa:	89 5e 1c             	mov    %ebx,0x1c(%esi)
  4058ad:	89 5e 20             	mov    %ebx,0x20(%esi)
  4058b0:	83 7e 08 05          	cmpl   $0x5,0x8(%esi)
  4058b4:	72 1a                	jb     0x4058d0
  4058b6:	68 44 96 40 00       	push   $0x409644
  4058bb:	68 fc 95 40 00       	push   $0x4095fc
  4058c0:	ff 15 a8 90 40 00    	call   *0x4090a8
  4058c6:	50                   	push   %eax
  4058c7:	ff 15 0c 91 40 00    	call   *0x40910c
  4058cd:	89 46 18             	mov    %eax,0x18(%esi)
  4058d0:	b0 01                	mov    $0x1,%al
  4058d2:	5f                   	pop    %edi
  4058d3:	5e                   	pop    %esi
  4058d4:	5b                   	pop    %ebx
  4058d5:	83 c5 74             	add    $0x74,%ebp
  4058d8:	c9                   	leave  
  4058d9:	c3                   	ret    
  4058da:	55                   	push   %ebp
  4058db:	8b ec                	mov    %esp,%ebp
  4058dd:	56                   	push   %esi
  4058de:	8b 75 10             	mov    0x10(%ebp),%esi
  4058e1:	57                   	push   %edi
  4058e2:	8b 7d 0c             	mov    0xc(%ebp),%edi
  4058e5:	85 ff                	test   %edi,%edi
  4058e7:	76 10                	jbe    0x4058f9
  4058e9:	8b 45 08             	mov    0x8(%ebp),%eax
  4058ec:	8b ce                	mov    %esi,%ecx
  4058ee:	2b c6                	sub    %esi,%eax
  4058f0:	8a 14 08             	mov    (%eax,%ecx,1),%dl
  4058f3:	88 11                	mov    %dl,(%ecx)
  4058f5:	41                   	inc    %ecx
  4058f6:	4f                   	dec    %edi
  4058f7:	75 f7                	jne    0x4058f0
  4058f9:	8b 4d 14             	mov    0x14(%ebp),%ecx
  4058fc:	8b 45 18             	mov    0x18(%ebp),%eax
  4058ff:	03 c6                	add    %esi,%eax
  405901:	88 08                	mov    %cl,(%eax)
  405903:	8b d1                	mov    %ecx,%edx
  405905:	c1 ea 08             	shr    $0x8,%edx
  405908:	88 50 01             	mov    %dl,0x1(%eax)
  40590b:	8b d1                	mov    %ecx,%edx
  40590d:	c1 ea 10             	shr    $0x10,%edx
  405910:	88 50 02             	mov    %dl,0x2(%eax)
  405913:	c1 e9 18             	shr    $0x18,%ecx
  405916:	88 48 03             	mov    %cl,0x3(%eax)
  405919:	8b 4d 1c             	mov    0x1c(%ebp),%ecx
  40591c:	8b 45 20             	mov    0x20(%ebp),%eax
  40591f:	03 c6                	add    %esi,%eax
  405921:	8b d1                	mov    %ecx,%edx
  405923:	c1 ea 08             	shr    $0x8,%edx
  405926:	88 50 01             	mov    %dl,0x1(%eax)
  405929:	8b d1                	mov    %ecx,%edx
  40592b:	c1 ea 10             	shr    $0x10,%edx
  40592e:	88 08                	mov    %cl,(%eax)
  405930:	c1 e9 18             	shr    $0x18,%ecx
  405933:	5f                   	pop    %edi
  405934:	88 50 02             	mov    %dl,0x2(%eax)
  405937:	88 48 03             	mov    %cl,0x3(%eax)
  40593a:	5e                   	pop    %esi
  40593b:	5d                   	pop    %ebp
  40593c:	c3                   	ret    
  40593d:	55                   	push   %ebp
  40593e:	8b ec                	mov    %esp,%ebp
  405940:	56                   	push   %esi
  405941:	8b 75 10             	mov    0x10(%ebp),%esi
  405944:	57                   	push   %edi
  405945:	8b 7d 0c             	mov    0xc(%ebp),%edi
  405948:	85 ff                	test   %edi,%edi
  40594a:	76 10                	jbe    0x40595c
  40594c:	8b 45 08             	mov    0x8(%ebp),%eax
  40594f:	8b ce                	mov    %esi,%ecx
  405951:	2b c6                	sub    %esi,%eax
  405953:	8a 14 08             	mov    (%eax,%ecx,1),%dl
  405956:	88 11                	mov    %dl,(%ecx)
  405958:	41                   	inc    %ecx
  405959:	4f                   	dec    %edi
  40595a:	75 f7                	jne    0x405953
  40595c:	8b 45 18             	mov    0x18(%ebp),%eax
  40595f:	8a 4d 14             	mov    0x14(%ebp),%cl
  405962:	5f                   	pop    %edi
  405963:	88 0c 06             	mov    %cl,(%esi,%eax,1)
  405966:	5e                   	pop    %esi
  405967:	5d                   	pop    %ebp
  405968:	c3                   	ret    
  405969:	57                   	push   %edi
  40596a:	68 28 92 40 00       	push   $0x409228
  40596f:	6a 00                	push   $0x0
  405971:	68 00 00 10 00       	push   $0x100000
  405976:	ff 15 b8 90 40 00    	call   *0x4090b8
  40597c:	8b f8                	mov    %eax,%edi
  40597e:	85 ff                	test   %edi,%edi
  405980:	75 11                	jne    0x405993
  405982:	ff 15 14 91 40 00    	call   *0x409114
  405988:	50                   	push   %eax
  405989:	ff 15 b4 90 40 00    	call   *0x4090b4
  40598f:	33 c0                	xor    %eax,%eax
  405991:	5f                   	pop    %edi
  405992:	c3                   	ret    
  405993:	56                   	push   %esi
  405994:	68 98 3a 00 00       	push   $0x3a98
  405999:	57                   	push   %edi
  40599a:	ff 15 b0 90 40 00    	call   *0x4090b0
  4059a0:	8b f0                	mov    %eax,%esi
  4059a2:	81 fe 80 00 00 00    	cmp    $0x80,%esi
  4059a8:	74 2c                	je     0x4059d6
  4059aa:	85 f6                	test   %esi,%esi
  4059ac:	74 28                	je     0x4059d6
  4059ae:	53                   	push   %ebx
  4059af:	ff 15 14 91 40 00    	call   *0x409114
  4059b5:	57                   	push   %edi
  4059b6:	8b d8                	mov    %eax,%ebx
  4059b8:	ff 15 e8 90 40 00    	call   *0x4090e8
  4059be:	81 fe 02 01 00 00    	cmp    $0x102,%esi
  4059c4:	75 04                	jne    0x4059ca
  4059c6:	6a 79                	push   $0x79
  4059c8:	eb 01                	jmp    0x4059cb
  4059ca:	53                   	push   %ebx
  4059cb:	ff 15 b4 90 40 00    	call   *0x4090b4
  4059d1:	33 c0                	xor    %eax,%eax
  4059d3:	5b                   	pop    %ebx
  4059d4:	eb 02                	jmp    0x4059d8
  4059d6:	8b c7                	mov    %edi,%eax
  4059d8:	5e                   	pop    %esi
  4059d9:	5f                   	pop    %edi
  4059da:	c3                   	ret    
  4059db:	6a 20                	push   $0x20
  4059dd:	68 a8 96 40 00       	push   $0x4096a8
  4059e2:	e8 c9 28 00 00       	call   0x4082b0
  4059e7:	33 f6                	xor    %esi,%esi
  4059e9:	39 75 08             	cmp    %esi,0x8(%ebp)
  4059ec:	75 04                	jne    0x4059f2
  4059ee:	6a 57                	push   $0x57
  4059f0:	eb 68                	jmp    0x405a5a
  4059f2:	ff 15 a0 90 40 00    	call   *0x4090a0
  4059f8:	0f b6 c8             	movzbl %al,%ecx
  4059fb:	89 4d d8             	mov    %ecx,-0x28(%ebp)
  4059fe:	0f b6 c4             	movzbl %ah,%eax
  405a01:	89 45 dc             	mov    %eax,-0x24(%ebp)
  405a04:	56                   	push   %esi
  405a05:	56                   	push   %esi
  405a06:	56                   	push   %esi
  405a07:	56                   	push   %esi
  405a08:	56                   	push   %esi
  405a09:	56                   	push   %esi
  405a0a:	56                   	push   %esi
  405a0b:	56                   	push   %esi
  405a0c:	68 00 00 00 88       	push   $0x88000000
  405a11:	68 a4 96 40 00       	push   $0x4096a4
  405a16:	68 94 96 40 00       	push   $0x409694
  405a1b:	56                   	push   %esi
  405a1c:	ff 15 c4 91 40 00    	call   *0x4091c4
  405a22:	8b f8                	mov    %eax,%edi
  405a24:	89 7d d4             	mov    %edi,-0x2c(%ebp)
  405a27:	3b fe                	cmp    %esi,%edi
  405a29:	75 04                	jne    0x405a2f
  405a2b:	6a d3                	push   $0xffffffd3
  405a2d:	eb 2b                	jmp    0x405a5a
  405a2f:	6a 40                	push   $0x40
  405a31:	b8 00 10 00 00       	mov    $0x1000,%eax
  405a36:	50                   	push   %eax
  405a37:	50                   	push   %eax
  405a38:	56                   	push   %esi
  405a39:	ff 15 c4 90 40 00    	call   *0x4090c4
  405a3f:	8b d8                	mov    %eax,%ebx
  405a41:	89 5d d0             	mov    %ebx,-0x30(%ebp)
  405a44:	3b de                	cmp    %esi,%ebx
  405a46:	75 04                	jne    0x405a4c
  405a48:	6a d8                	push   $0xffffffd8
  405a4a:	eb 0e                	jmp    0x405a5a
  405a4c:	e8 18 ff ff ff       	call   0x405969
  405a51:	89 45 e0             	mov    %eax,-0x20(%ebp)
  405a54:	3b c6                	cmp    %esi,%eax
  405a56:	75 05                	jne    0x405a5d
  405a58:	6a bf                	push   $0xffffffbf
  405a5a:	58                   	pop    %eax
  405a5b:	eb 74                	jmp    0x405ad1
  405a5d:	83 4d e4 ff          	orl    $0xffffffff,-0x1c(%ebp)
  405a61:	89 75 fc             	mov    %esi,-0x4(%ebp)
  405a64:	8b 45 d8             	mov    -0x28(%ebp),%eax
  405a67:	83 e8 04             	sub    $0x4,%eax
  405a6a:	74 43                	je     0x405aaf
  405a6c:	48                   	dec    %eax
  405a6d:	74 15                	je     0x405a84
  405a6f:	48                   	dec    %eax
  405a70:	75 53                	jne    0x405ac5
  405a72:	ff 75 10             	pushl  0x10(%ebp)
  405a75:	ff 75 0c             	pushl  0xc(%ebp)
  405a78:	ff 75 08             	pushl  0x8(%ebp)
  405a7b:	57                   	push   %edi
  405a7c:	53                   	push   %ebx
  405a7d:	e8 a5 15 00 00       	call   0x407027
  405a82:	eb 3b                	jmp    0x405abf
  405a84:	ff 75 10             	pushl  0x10(%ebp)
  405a87:	ff 75 0c             	pushl  0xc(%ebp)
  405a8a:	ff 75 08             	pushl  0x8(%ebp)
  405a8d:	57                   	push   %edi
  405a8e:	53                   	push   %ebx
  405a8f:	39 75 dc             	cmp    %esi,-0x24(%ebp)
  405a92:	75 07                	jne    0x405a9b
  405a94:	e8 67 11 00 00       	call   0x406c00
  405a99:	eb 24                	jmp    0x405abf
  405a9b:	83 7d dc 01          	cmpl   $0x1,-0x24(%ebp)
  405a9f:	75 07                	jne    0x405aa8
  405aa1:	e8 4d 0c 00 00       	call   0x4066f3
  405aa6:	eb 17                	jmp    0x405abf
  405aa8:	e8 f1 04 00 00       	call   0x405f9e
  405aad:	eb 10                	jmp    0x405abf
  405aaf:	ff 75 10             	pushl  0x10(%ebp)
  405ab2:	ff 75 0c             	pushl  0xc(%ebp)
  405ab5:	ff 75 08             	pushl  0x8(%ebp)
  405ab8:	57                   	push   %edi
  405ab9:	53                   	push   %ebx
  405aba:	e8 a4 00 00 00       	call   0x405b63
  405abf:	83 c4 14             	add    $0x14,%esp
  405ac2:	89 45 e4             	mov    %eax,-0x1c(%ebp)
  405ac5:	83 4d fc ff          	orl    $0xffffffff,-0x4(%ebp)
  405ac9:	e8 11 00 00 00       	call   0x405adf
  405ace:	8b 45 e4             	mov    -0x1c(%ebp),%eax
  405ad1:	e8 13 28 00 00       	call   0x4082e9
  405ad6:	c3                   	ret    
  405ad7:	33 f6                	xor    %esi,%esi
  405ad9:	8b 7d d4             	mov    -0x2c(%ebp),%edi
  405adc:	8b 5d d0             	mov    -0x30(%ebp),%ebx
  405adf:	39 75 e0             	cmp    %esi,-0x20(%ebp)
  405ae2:	74 12                	je     0x405af6
  405ae4:	ff 75 e0             	pushl  -0x20(%ebp)
  405ae7:	ff 15 c0 90 40 00    	call   *0x4090c0
  405aed:	ff 75 e0             	pushl  -0x20(%ebp)
  405af0:	ff 15 e8 90 40 00    	call   *0x4090e8
  405af6:	3b fe                	cmp    %esi,%edi
  405af8:	74 07                	je     0x405b01
  405afa:	57                   	push   %edi
  405afb:	ff 15 c8 91 40 00    	call   *0x4091c8
  405b01:	3b de                	cmp    %esi,%ebx
  405b03:	74 0d                	je     0x405b12
  405b05:	68 00 80 00 00       	push   $0x8000
  405b0a:	56                   	push   %esi
  405b0b:	53                   	push   %ebx
  405b0c:	ff 15 bc 90 40 00    	call   *0x4090bc
  405b12:	c3                   	ret    
  405b13:	6a 08                	push   $0x8
  405b15:	68 b8 96 40 00       	push   $0x4096b8
  405b1a:	e8 91 27 00 00       	call   0x4082b0
  405b1f:	8b 45 08             	mov    0x8(%ebp),%eax
  405b22:	8b 48 08             	mov    0x8(%eax),%ecx
  405b25:	8b 50 0c             	mov    0xc(%eax),%edx
  405b28:	89 11                	mov    %edx,(%ecx)
  405b2a:	8b 48 08             	mov    0x8(%eax),%ecx
  405b2d:	83 c1 04             	add    $0x4,%ecx
  405b30:	8b 50 10             	mov    0x10(%eax),%edx
  405b33:	89 11                	mov    %edx,(%ecx)
  405b35:	83 65 fc 00          	andl   $0x0,-0x4(%ebp)
  405b39:	ff 70 1c             	pushl  0x1c(%eax)
  405b3c:	ff 70 18             	pushl  0x18(%eax)
  405b3f:	8d 48 20             	lea    0x20(%eax),%ecx
  405b42:	51                   	push   %ecx
  405b43:	ff 50 14             	call   *0x14(%eax)
  405b46:	83 c4 0c             	add    $0xc,%esp
  405b49:	83 4d fc ff          	orl    $0xffffffff,-0x4(%ebp)
  405b4d:	eb 0e                	jmp    0x405b5d
  405b4f:	33 c0                	xor    %eax,%eax
  405b51:	40                   	inc    %eax
  405b52:	c3                   	ret    
  405b53:	8b 65 e8             	mov    -0x18(%ebp),%esp
  405b56:	83 4d fc ff          	orl    $0xffffffff,-0x4(%ebp)
  405b5a:	6a d5                	push   $0xffffffd5
  405b5c:	58                   	pop    %eax
  405b5d:	e8 87 27 00 00       	call   0x4082e9
  405b62:	c3                   	ret    
  405b63:	55                   	push   %ebp
  405b64:	8b ec                	mov    %esp,%ebp
  405b66:	81 ec 58 02 00 00    	sub    $0x258,%esp
  405b6c:	53                   	push   %ebx
  405b6d:	56                   	push   %esi
  405b6e:	57                   	push   %edi
  405b6f:	33 ff                	xor    %edi,%edi
  405b71:	39 7d 08             	cmp    %edi,0x8(%ebp)
  405b74:	0f 84 3f 01 00 00    	je     0x405cb9
  405b7a:	39 7d 0c             	cmp    %edi,0xc(%ebp)
  405b7d:	0f 84 36 01 00 00    	je     0x405cb9
  405b83:	8b 5d 10             	mov    0x10(%ebp),%ebx
  405b86:	3b df                	cmp    %edi,%ebx
  405b88:	0f 84 2b 01 00 00    	je     0x405cb9
  405b8e:	be 04 01 00 00       	mov    $0x104,%esi
  405b93:	56                   	push   %esi
  405b94:	8d 85 a8 fd ff ff    	lea    -0x258(%ebp),%eax
  405b9a:	50                   	push   %eax
  405b9b:	68 00 97 40 00       	push   $0x409700
  405ba0:	ff 15 d0 90 40 00    	call   *0x4090d0
  405ba6:	8d 85 a8 fd ff ff    	lea    -0x258(%ebp),%eax
  405bac:	50                   	push   %eax
  405bad:	ff 15 50 91 40 00    	call   *0x409150
  405bb3:	2b f0                	sub    %eax,%esi
  405bb5:	56                   	push   %esi
  405bb6:	8d 85 a8 fd ff ff    	lea    -0x258(%ebp),%eax
  405bbc:	68 d4 96 40 00       	push   $0x4096d4
  405bc1:	50                   	push   %eax
  405bc2:	ff 15 8c 91 40 00    	call   *0x40918c
  405bc8:	83 c4 10             	add    $0x10,%esp
  405bcb:	57                   	push   %edi
  405bcc:	68 00 00 00 08       	push   $0x8000000
  405bd1:	6a 03                	push   $0x3
  405bd3:	57                   	push   %edi
  405bd4:	6a 01                	push   $0x1
  405bd6:	68 00 00 00 80       	push   $0x80000000
  405bdb:	8d 85 a8 fd ff ff    	lea    -0x258(%ebp),%eax
  405be1:	50                   	push   %eax
  405be2:	ff 15 cc 90 40 00    	call   *0x4090cc
  405be8:	8b f0                	mov    %eax,%esi
  405bea:	83 fe ff             	cmp    $0xffffffff,%esi
  405bed:	75 07                	jne    0x405bf6
  405bef:	6a d7                	push   $0xffffffd7
  405bf1:	e9 c5 00 00 00       	jmp    0x405cbb
  405bf6:	8b 45 14             	mov    0x14(%ebp),%eax
  405bf9:	89 45 cc             	mov    %eax,-0x34(%ebp)
  405bfc:	8b 45 18             	mov    0x18(%ebp),%eax
  405bff:	89 45 d0             	mov    %eax,-0x30(%ebp)
  405c02:	8d 45 c4             	lea    -0x3c(%ebp),%eax
  405c05:	50                   	push   %eax
  405c06:	8d 45 c0             	lea    -0x40(%ebp),%eax
  405c09:	50                   	push   %eax
  405c0a:	8d 45 bc             	lea    -0x44(%ebp),%eax
  405c0d:	50                   	push   %eax
  405c0e:	8d 45 b8             	lea    -0x48(%ebp),%eax
  405c11:	50                   	push   %eax
  405c12:	8d 45 b4             	lea    -0x4c(%ebp),%eax
  405c15:	50                   	push   %eax
  405c16:	56                   	push   %esi
  405c17:	89 5d c8             	mov    %ebx,-0x38(%ebp)
  405c1a:	e8 c4 1d 00 00       	call   0x4079e3
  405c1f:	83 c4 18             	add    $0x18,%esp
  405c22:	56                   	push   %esi
  405c23:	8b d8                	mov    %eax,%ebx
  405c25:	ff 15 e8 90 40 00    	call   *0x4090e8
  405c2b:	3b df                	cmp    %edi,%ebx
  405c2d:	74 07                	je     0x405c36
  405c2f:	6a d4                	push   $0xffffffd4
  405c31:	e9 85 00 00 00       	jmp    0x405cbb
  405c36:	8d 45 d4             	lea    -0x2c(%ebp),%eax
  405c39:	50                   	push   %eax
  405c3a:	e8 4a fb ff ff       	call   0x405789
  405c3f:	c7 04 24 cc 96 40 00 	movl   $0x4096cc,(%esp)
  405c46:	ff 75 08             	pushl  0x8(%ebp)
  405c49:	ff 15 c8 90 40 00    	call   *0x4090c8
  405c4f:	ff 75 08             	pushl  0x8(%ebp)
  405c52:	68 c4 96 40 00       	push   $0x4096c4
  405c57:	ff 75 0c             	pushl  0xc(%ebp)
  405c5a:	ff 15 cc 91 40 00    	call   *0x4091cc
  405c60:	6a 07                	push   $0x7
  405c62:	8d 45 fc             	lea    -0x4(%ebp),%eax
  405c65:	89 45 f8             	mov    %eax,-0x8(%ebp)
  405c68:	8d 45 b4             	lea    -0x4c(%ebp),%eax
  405c6b:	50                   	push   %eax
  405c6c:	6a 01                	push   $0x1
  405c6e:	68 13 5b 40 00       	push   $0x405b13
  405c73:	ff 75 08             	pushl  0x8(%ebp)
  405c76:	89 7d fc             	mov    %edi,-0x4(%ebp)
  405c79:	6a 11                	push   $0x11
  405c7b:	68 24 b0 40 00       	push   $0x40b024
  405c80:	e8 55 fc ff ff       	call   0x4058da
  405c85:	83 c4 1c             	add    $0x1c,%esp
  405c88:	8b 45 b4             	mov    -0x4c(%ebp),%eax
  405c8b:	6a 00                	push   $0x0
  405c8d:	ff 75 f8             	pushl  -0x8(%ebp)
  405c90:	ff 75 bc             	pushl  -0x44(%ebp)
  405c93:	6a 00                	push   $0x0
  405c95:	ff 75 0c             	pushl  0xc(%ebp)
  405c98:	8b d4                	mov    %esp,%edx
  405c9a:	cd 2e                	int    $0x2e
  405c9c:	83 c4 14             	add    $0x14,%esp
  405c9f:	83 4d 08 ff          	orl    $0xffffffff,0x8(%ebp)
  405ca3:	8b 45 b8             	mov    -0x48(%ebp),%eax
  405ca6:	6a 00                	push   $0x0
  405ca8:	6a 00                	push   $0x0
  405caa:	8b d4                	mov    %esp,%edx
  405cac:	cd 2e                	int    $0x2e
  405cae:	83 c4 08             	add    $0x8,%esp
  405cb1:	89 45 08             	mov    %eax,0x8(%ebp)
  405cb4:	8b 45 08             	mov    0x8(%ebp),%eax
  405cb7:	eb 03                	jmp    0x405cbc
  405cb9:	6a 57                	push   $0x57
  405cbb:	58                   	pop    %eax
  405cbc:	5f                   	pop    %edi
  405cbd:	5e                   	pop    %esi
  405cbe:	5b                   	pop    %ebx
  405cbf:	c9                   	leave  
  405cc0:	c3                   	ret    
  405cc1:	6a 20                	push   $0x20
  405cc3:	68 10 97 40 00       	push   $0x409710
  405cc8:	e8 e3 25 00 00       	call   0x4082b0
  405ccd:	33 db                	xor    %ebx,%ebx
  405ccf:	89 5d fc             	mov    %ebx,-0x4(%ebp)
  405cd2:	8b 75 08             	mov    0x8(%ebp),%esi
  405cd5:	8b 46 04             	mov    0x4(%esi),%eax
  405cd8:	8b 38                	mov    (%eax),%edi
  405cda:	89 7d e0             	mov    %edi,-0x20(%ebp)
  405cdd:	8b 46 50             	mov    0x50(%esi),%eax
  405ce0:	8d 04 87             	lea    (%edi,%eax,4),%eax
  405ce3:	89 46 08             	mov    %eax,0x8(%esi)
  405ce6:	8b 08                	mov    (%eax),%ecx
  405ce8:	89 4e 0c             	mov    %ecx,0xc(%esi)
  405ceb:	8d 4e 40             	lea    0x40(%esi),%ecx
  405cee:	8d 56 1c             	lea    0x1c(%esi),%edx
  405cf1:	53                   	push   %ebx
  405cf2:	6a 04                	push   $0x4
  405cf4:	51                   	push   %ecx
  405cf5:	50                   	push   %eax
  405cf6:	52                   	push   %edx
  405cf7:	e8 36 1d 00 00       	call   0x407a32
  405cfc:	83 c4 14             	add    $0x14,%esp
  405cff:	89 45 dc             	mov    %eax,-0x24(%ebp)
  405d02:	3b c3                	cmp    %ebx,%eax
  405d04:	75 72                	jne    0x405d78
  405d06:	8b 4e 10             	mov    0x10(%esi),%ecx
  405d09:	89 4d e4             	mov    %ecx,-0x1c(%ebp)
  405d0c:	8b 46 04             	mov    0x4(%esi),%eax
  405d0f:	89 45 d8             	mov    %eax,-0x28(%ebp)
  405d12:	3b cb                	cmp    %ebx,%ecx
  405d14:	74 5c                	je     0x405d72
  405d16:	33 c1                	xor    %ecx,%eax
  405d18:	a9 00 f0 ff ff       	test   $0xfffff000,%eax
  405d1d:	75 53                	jne    0x405d72
  405d1f:	c7 45 fc 01 00 00 00 	movl   $0x1,-0x4(%ebp)
  405d26:	8b 01                	mov    (%ecx),%eax
  405d28:	89 45 d4             	mov    %eax,-0x2c(%ebp)
  405d2b:	3b c7                	cmp    %edi,%eax
  405d2d:	74 37                	je     0x405d66
  405d2f:	8b 4e 50             	mov    0x50(%esi),%ecx
  405d32:	8d 04 88             	lea    (%eax,%ecx,4),%eax
  405d35:	89 46 14             	mov    %eax,0x14(%esi)
  405d38:	8b 08                	mov    (%eax),%ecx
  405d3a:	89 4e 18             	mov    %ecx,0x18(%esi)
  405d3d:	53                   	push   %ebx
  405d3e:	6a 04                	push   $0x4
  405d40:	8d 4e 40             	lea    0x40(%esi),%ecx
  405d43:	51                   	push   %ecx
  405d44:	50                   	push   %eax
  405d45:	8d 46 1c             	lea    0x1c(%esi),%eax
  405d48:	50                   	push   %eax
  405d49:	e8 e4 1c 00 00       	call   0x407a32
  405d4e:	83 c4 14             	add    $0x14,%esp
  405d51:	89 45 d0             	mov    %eax,-0x30(%ebp)
  405d54:	3b c3                	cmp    %ebx,%eax
  405d56:	74 17                	je     0x405d6f
  405d58:	eb 0c                	jmp    0x405d66
  405d5a:	33 c0                	xor    %eax,%eax
  405d5c:	40                   	inc    %eax
  405d5d:	c3                   	ret    
  405d5e:	8b 65 e8             	mov    -0x18(%ebp),%esp
  405d61:	33 db                	xor    %ebx,%ebx
  405d63:	8b 75 08             	mov    0x8(%ebp),%esi
  405d66:	89 5e 10             	mov    %ebx,0x10(%esi)
  405d69:	89 5e 14             	mov    %ebx,0x14(%esi)
  405d6c:	89 5e 18             	mov    %ebx,0x18(%esi)
  405d6f:	89 5d fc             	mov    %ebx,-0x4(%ebp)
  405d72:	c6 46 4c 01          	movb   $0x1,0x4c(%esi)
  405d76:	33 c0                	xor    %eax,%eax
  405d78:	83 4d fc ff          	orl    $0xffffffff,-0x4(%ebp)
  405d7c:	eb 0e                	jmp    0x405d8c
  405d7e:	33 c0                	xor    %eax,%eax
  405d80:	40                   	inc    %eax
  405d81:	c3                   	ret    
  405d82:	8b 65 e8             	mov    -0x18(%ebp),%esp
  405d85:	83 4d fc ff          	orl    $0xffffffff,-0x4(%ebp)
  405d89:	6a d5                	push   $0xffffffd5
  405d8b:	58                   	pop    %eax
  405d8c:	e8 58 25 00 00       	call   0x4082e9
  405d91:	c3                   	ret    
  405d92:	6a 0c                	push   $0xc
  405d94:	68 28 97 40 00       	push   $0x409728
  405d99:	e8 12 25 00 00       	call   0x4082b0
  405d9e:	8b f1                	mov    %ecx,%esi
  405da0:	33 db                	xor    %ebx,%ebx
  405da2:	89 5d fc             	mov    %ebx,-0x4(%ebp)
  405da5:	8d 7e 1c             	lea    0x1c(%esi),%edi
  405da8:	53                   	push   %ebx
  405da9:	6a 04                	push   $0x4
  405dab:	8d 46 0c             	lea    0xc(%esi),%eax
  405dae:	50                   	push   %eax
  405daf:	ff 76 08             	pushl  0x8(%esi)
  405db2:	57                   	push   %edi
  405db3:	e8 7a 1c 00 00       	call   0x407a32
  405db8:	83 c4 14             	add    $0x14,%esp
  405dbb:	89 45 e4             	mov    %eax,-0x1c(%ebp)
  405dbe:	3b c3                	cmp    %ebx,%eax
  405dc0:	74 06                	je     0x405dc8
  405dc2:	83 4d fc ff          	orl    $0xffffffff,-0x4(%ebp)
  405dc6:	eb 3e                	jmp    0x405e06
  405dc8:	39 5e 10             	cmp    %ebx,0x10(%esi)
  405dcb:	74 1f                	je     0x405dec
  405dcd:	8b 4e 14             	mov    0x14(%esi),%ecx
  405dd0:	3b cb                	cmp    %ebx,%ecx
  405dd2:	74 18                	je     0x405dec
  405dd4:	8d 46 18             	lea    0x18(%esi),%eax
  405dd7:	39 18                	cmp    %ebx,(%eax)
  405dd9:	74 11                	je     0x405dec
  405ddb:	53                   	push   %ebx
  405ddc:	6a 04                	push   $0x4
  405dde:	50                   	push   %eax
  405ddf:	51                   	push   %ecx
  405de0:	57                   	push   %edi
  405de1:	e8 4c 1c 00 00       	call   0x407a32
  405de6:	83 c4 14             	add    $0x14,%esp
  405de9:	89 45 e4             	mov    %eax,-0x1c(%ebp)
  405dec:	c6 46 4d 01          	movb   $0x1,0x4d(%esi)
  405df0:	83 4d fc ff          	orl    $0xffffffff,-0x4(%ebp)
  405df4:	33 c0                	xor    %eax,%eax
  405df6:	eb 0e                	jmp    0x405e06
  405df8:	33 c0                	xor    %eax,%eax
  405dfa:	40                   	inc    %eax
  405dfb:	c3                   	ret    
  405dfc:	8b 65 e8             	mov    -0x18(%ebp),%esp
  405dff:	83 4d fc ff          	orl    $0xffffffff,-0x4(%ebp)
  405e03:	6a d5                	push   $0xffffffd5
  405e05:	58                   	pop    %eax
  405e06:	e8 de 24 00 00       	call   0x4082e9
  405e0b:	c3                   	ret    
  405e0c:	6a 14                	push   $0x14
  405e0e:	68 38 97 40 00       	push   $0x409738
  405e13:	e8 98 24 00 00       	call   0x4082b0
  405e18:	8b 45 08             	mov    0x8(%ebp),%eax
  405e1b:	83 65 fc 00          	andl   $0x0,-0x4(%ebp)
  405e1f:	8b 48 30             	mov    0x30(%eax),%ecx
  405e22:	89 4d e0             	mov    %ecx,-0x20(%ebp)
  405e25:	85 c9                	test   %ecx,%ecx
  405e27:	74 26                	je     0x405e4f
  405e29:	c6 45 e7 eb          	movb   $0xeb,-0x19(%ebp)
  405e2d:	6a 00                	push   $0x0
  405e2f:	6a 01                	push   $0x1
  405e31:	8d 55 e7             	lea    -0x19(%ebp),%edx
  405e34:	52                   	push   %edx
  405e35:	51                   	push   %ecx
  405e36:	83 c0 1c             	add    $0x1c,%eax
  405e39:	50                   	push   %eax
  405e3a:	e8 f3 1b 00 00       	call   0x407a32
  405e3f:	83 c4 14             	add    $0x14,%esp
  405e42:	89 45 dc             	mov    %eax,-0x24(%ebp)
  405e45:	85 c0                	test   %eax,%eax
  405e47:	74 06                	je     0x405e4f
  405e49:	83 4d fc ff          	orl    $0xffffffff,-0x4(%ebp)
  405e4d:	eb 16                	jmp    0x405e65
  405e4f:	83 4d fc ff          	orl    $0xffffffff,-0x4(%ebp)
  405e53:	33 c0                	xor    %eax,%eax
  405e55:	eb 0e                	jmp    0x405e65
  405e57:	33 c0                	xor    %eax,%eax
  405e59:	40                   	inc    %eax
  405e5a:	c3                   	ret    
  405e5b:	8b 65 e8             	mov    -0x18(%ebp),%esp
  405e5e:	83 4d fc ff          	orl    $0xffffffff,-0x4(%ebp)
  405e62:	6a d5                	push   $0xffffffd5
  405e64:	58                   	pop    %eax
  405e65:	e8 7f 24 00 00       	call   0x4082e9
  405e6a:	c3                   	ret    
  405e6b:	6a 08                	push   $0x8
  405e6d:	68 48 97 40 00       	push   $0x409748
  405e72:	e8 39 24 00 00       	call   0x4082b0
  405e77:	8b 75 08             	mov    0x8(%ebp),%esi
  405e7a:	83 fe 0a             	cmp    $0xa,%esi
  405e7d:	73 07                	jae    0x405e86
  405e7f:	b8 61 00 00 c0       	mov    $0xc0000061,%eax
  405e84:	eb 34                	jmp    0x405eba
  405e86:	83 65 fc 00          	andl   $0x0,-0x4(%ebp)
  405e8a:	8b ce                	mov    %esi,%ecx
  405e8c:	e8 01 ff ff ff       	call   0x405d92
  405e91:	56                   	push   %esi
  405e92:	e8 75 ff ff ff       	call   0x405e0c
  405e97:	ff 76 48             	pushl  0x48(%esi)
  405e9a:	ff 76 44             	pushl  0x44(%esi)
  405e9d:	8d 46 1c             	lea    0x1c(%esi),%eax
  405ea0:	50                   	push   %eax
  405ea1:	ff 16                	call   *(%esi)
  405ea3:	83 c4 10             	add    $0x10,%esp
  405ea6:	83 4d fc ff          	orl    $0xffffffff,-0x4(%ebp)
  405eaa:	eb 0e                	jmp    0x405eba
  405eac:	33 c0                	xor    %eax,%eax
  405eae:	40                   	inc    %eax
  405eaf:	c3                   	ret    
  405eb0:	8b 65 e8             	mov    -0x18(%ebp),%esp
  405eb3:	83 4d fc ff          	orl    $0xffffffff,-0x4(%ebp)
  405eb7:	6a d5                	push   $0xffffffd5
  405eb9:	58                   	pop    %eax
  405eba:	e8 2a 24 00 00       	call   0x4082e9
  405ebf:	c3                   	ret    
  405ec0:	6a 20                	push   $0x20
  405ec2:	68 a0 97 40 00       	push   $0x4097a0
  405ec7:	e8 e4 23 00 00       	call   0x4082b0
  405ecc:	8b f9                	mov    %ecx,%edi
  405ece:	85 ff                	test   %edi,%edi
  405ed0:	0f 84 c0 00 00 00    	je     0x405f96
  405ed6:	83 7d 08 00          	cmpl   $0x0,0x8(%ebp)
  405eda:	0f 84 b6 00 00 00    	je     0x405f96
  405ee0:	8d 5f 1c             	lea    0x1c(%edi),%ebx
  405ee3:	68 80 97 40 00       	push   $0x409780
  405ee8:	53                   	push   %ebx
  405ee9:	e8 83 f4 ff ff       	call   0x405371
  405eee:	59                   	pop    %ecx
  405eef:	59                   	pop    %ecx
  405ef0:	8b f0                	mov    %eax,%esi
  405ef2:	85 f6                	test   %esi,%esi
  405ef4:	0f 84 9c 00 00 00    	je     0x405f96
  405efa:	68 6c 97 40 00       	push   $0x40976c
  405eff:	53                   	push   %ebx
  405f00:	e8 6c f4 ff ff       	call   0x405371
  405f05:	59                   	pop    %ecx
  405f06:	59                   	pop    %ecx
  405f07:	85 c0                	test   %eax,%eax
  405f09:	0f 84 87 00 00 00    	je     0x405f96
  405f0f:	8b 4d 08             	mov    0x8(%ebp),%ecx
  405f12:	89 01                	mov    %eax,(%ecx)
  405f14:	89 77 04             	mov    %esi,0x4(%edi)
  405f17:	83 67 10 00          	andl   $0x0,0x10(%edi)
  405f1b:	2b 77 20             	sub    0x20(%edi),%esi
  405f1e:	89 75 dc             	mov    %esi,-0x24(%ebp)
  405f21:	68 54 97 40 00       	push   $0x409754
  405f26:	ff 33                	pushl  (%ebx)
  405f28:	ff 15 0c 91 40 00    	call   *0x40910c
  405f2e:	33 c9                	xor    %ecx,%ecx
  405f30:	89 4d fc             	mov    %ecx,-0x4(%ebp)
  405f33:	89 4d e0             	mov    %ecx,-0x20(%ebp)
  405f36:	89 4d e4             	mov    %ecx,-0x1c(%ebp)
  405f39:	bb ff ff bf ff       	mov    $0xffbfffff,%ebx
  405f3e:	83 7d e4 64          	cmpl   $0x64,-0x1c(%ebp)
  405f42:	7d 33                	jge    0x405f77
  405f44:	8b 4d e4             	mov    -0x1c(%ebp),%ecx
  405f47:	8d 14 01             	lea    (%ecx,%eax,1),%edx
  405f4a:	8b ca                	mov    %edx,%ecx
  405f4c:	89 4d d8             	mov    %ecx,-0x28(%ebp)
  405f4f:	8b 09                	mov    (%ecx),%ecx
  405f51:	23 cb                	and    %ebx,%ecx
  405f53:	89 4d d4             	mov    %ecx,-0x2c(%ebp)
  405f56:	3b 4d dc             	cmp    -0x24(%ebp),%ecx
  405f59:	75 27                	jne    0x405f82
  405f5b:	83 c2 09             	add    $0x9,%edx
  405f5e:	89 55 d8             	mov    %edx,-0x28(%ebp)
  405f61:	8b 12                	mov    (%edx),%edx
  405f63:	23 d3                	and    %ebx,%edx
  405f65:	89 55 d0             	mov    %edx,-0x30(%ebp)
  405f68:	8b f2                	mov    %edx,%esi
  405f6a:	33 f1                	xor    %ecx,%esi
  405f6c:	f7 c6 00 f0 ff ff    	test   $0xfffff000,%esi
  405f72:	75 0e                	jne    0x405f82
  405f74:	89 55 e0             	mov    %edx,-0x20(%ebp)
  405f77:	8b 47 20             	mov    0x20(%edi),%eax
  405f7a:	03 45 e0             	add    -0x20(%ebp),%eax
  405f7d:	89 47 10             	mov    %eax,0x10(%edi)
  405f80:	eb 0c                	jmp    0x405f8e
  405f82:	ff 45 e4             	incl   -0x1c(%ebp)
  405f85:	eb b7                	jmp    0x405f3e
  405f87:	33 c0                	xor    %eax,%eax
  405f89:	40                   	inc    %eax
  405f8a:	c3                   	ret    
  405f8b:	8b 65 e8             	mov    -0x18(%ebp),%esp
  405f8e:	83 4d fc ff          	orl    $0xffffffff,-0x4(%ebp)
  405f92:	b0 01                	mov    $0x1,%al
  405f94:	eb 02                	jmp    0x405f98
  405f96:	32 c0                	xor    %al,%al
  405f98:	e8 4c 23 00 00       	call   0x4082e9
  405f9d:	c3                   	ret    
  405f9e:	68 84 03 00 00       	push   $0x384
  405fa3:	68 20 98 40 00       	push   $0x409820
  405fa8:	e8 03 23 00 00       	call   0x4082b0
  405fad:	8b 7d 08             	mov    0x8(%ebp),%edi
  405fb0:	33 db                	xor    %ebx,%ebx
  405fb2:	3b fb                	cmp    %ebx,%edi
  405fb4:	0f 84 53 04 00 00    	je     0x40640d
  405fba:	39 5d 0c             	cmp    %ebx,0xc(%ebp)
  405fbd:	0f 84 4a 04 00 00    	je     0x40640d
  405fc3:	8b 45 10             	mov    0x10(%ebp),%eax
  405fc6:	3b c3                	cmp    %ebx,%eax
  405fc8:	0f 84 3f 04 00 00    	je     0x40640d
  405fce:	89 85 10 ff ff ff    	mov    %eax,-0xf0(%ebp)
  405fd4:	8b 45 14             	mov    0x14(%ebp),%eax
  405fd7:	89 85 54 ff ff ff    	mov    %eax,-0xac(%ebp)
  405fdd:	8b 45 18             	mov    0x18(%ebp),%eax
  405fe0:	89 85 58 ff ff ff    	mov    %eax,-0xa8(%ebp)
  405fe6:	8d 87 00 02 00 00    	lea    0x200(%edi),%eax
  405fec:	89 45 94             	mov    %eax,-0x6c(%ebp)
  405fef:	89 85 50 ff ff ff    	mov    %eax,-0xb0(%ebp)
  405ff5:	88 9d 5c ff ff ff    	mov    %bl,-0xa4(%ebp)
  405ffb:	88 9d 5d ff ff ff    	mov    %bl,-0xa3(%ebp)
  406001:	68 08 98 40 00       	push   $0x409808
  406006:	e8 97 1c 00 00       	call   0x407ca2
  40600b:	59                   	pop    %ecx
  40600c:	89 85 60 ff ff ff    	mov    %eax,-0xa0(%ebp)
  406012:	3b c3                	cmp    %ebx,%eax
  406014:	75 07                	jne    0x40601d
  406016:	6a ba                	push   $0xffffffba
  406018:	e9 f2 03 00 00       	jmp    0x40640f
  40601d:	8d 45 dc             	lea    -0x24(%ebp),%eax
  406020:	50                   	push   %eax
  406021:	8d 45 e4             	lea    -0x1c(%ebp),%eax
  406024:	50                   	push   %eax
  406025:	e8 b5 15 00 00       	call   0x4075df
  40602a:	59                   	pop    %ecx
  40602b:	59                   	pop    %ecx
  40602c:	3b c3                	cmp    %ebx,%eax
  40602e:	74 07                	je     0x406037
  406030:	6a d4                	push   $0xffffffd4
  406032:	e9 d8 03 00 00       	jmp    0x40640f
  406037:	8d 85 2c ff ff ff    	lea    -0xd4(%ebp),%eax
  40603d:	50                   	push   %eax
  40603e:	e8 46 f7 ff ff       	call   0x405789
  406043:	59                   	pop    %ecx
  406044:	84 c0                	test   %al,%al
  406046:	75 07                	jne    0x40604f
  406048:	6a c3                	push   $0xffffffc3
  40604a:	e9 c0 03 00 00       	jmp    0x40640f
  40604f:	83 4d e0 ff          	orl    $0xffffffff,-0x20(%ebp)
  406053:	89 5d fc             	mov    %ebx,-0x4(%ebp)
  406056:	89 5d b0             	mov    %ebx,-0x50(%ebp)
  406059:	8d 45 b0             	lea    -0x50(%ebp),%eax
  40605c:	50                   	push   %eax
  40605d:	8d 8d 10 ff ff ff    	lea    -0xf0(%ebp),%ecx
  406063:	e8 58 fe ff ff       	call   0x405ec0
  406068:	59                   	pop    %ecx
  406069:	84 c0                	test   %al,%al
  40606b:	75 0c                	jne    0x406079
  40606d:	c7 45 e0 c1 ff ff ff 	movl   $0xffffffc1,-0x20(%ebp)
  406074:	e9 de 02 00 00       	jmp    0x406357
  406079:	6a 0d                	push   $0xd
  40607b:	8d 85 10 ff ff ff    	lea    -0xf0(%ebp),%eax
  406081:	50                   	push   %eax
  406082:	6a 07                	push   $0x7
  406084:	68 c1 5c 40 00       	push   $0x405cc1
  406089:	57                   	push   %edi
  40608a:	6a 17                	push   $0x17
  40608c:	68 38 b0 40 00       	push   $0x40b038
  406091:	e8 44 f8 ff ff       	call   0x4058da
  406096:	89 bd 0c ff ff ff    	mov    %edi,-0xf4(%ebp)
  40609c:	8b c7                	mov    %edi,%eax
  40609e:	c1 e8 10             	shr    $0x10,%eax
  4060a1:	89 45 98             	mov    %eax,-0x68(%ebp)
  4060a4:	c7 85 08 ff ff ff a0 	movl   $0xa0,-0xf8(%ebp)
  4060ab:	00 00 00 
  4060ae:	c7 85 64 ff ff ff 30 	movl   $0x30,-0x9c(%ebp)
  4060b5:	00 00 00 
  4060b8:	89 9d 68 ff ff ff    	mov    %ebx,-0x98(%ebp)
  4060be:	89 9d 6c ff ff ff    	mov    %ebx,-0x94(%ebp)
  4060c4:	89 9d 70 ff ff ff    	mov    %ebx,-0x90(%ebp)
  4060ca:	89 9d 74 ff ff ff    	mov    %ebx,-0x8c(%ebp)
  4060d0:	89 9d 78 ff ff ff    	mov    %ebx,-0x88(%ebp)
  4060d6:	89 9d 7c ff ff ff    	mov    %ebx,-0x84(%ebp)
  4060dc:	89 5d 80             	mov    %ebx,-0x80(%ebp)
  4060df:	89 5d 84             	mov    %ebx,-0x7c(%ebp)
  4060e2:	89 5d 88             	mov    %ebx,-0x78(%ebp)
  4060e5:	89 5d 8c             	mov    %ebx,-0x74(%ebp)
  4060e8:	89 5d 90             	mov    %ebx,-0x70(%ebp)
  4060eb:	8d 85 64 ff ff ff    	lea    -0x9c(%ebp),%eax
  4060f1:	89 45 a8             	mov    %eax,-0x58(%ebp)
  4060f4:	8d 87 60 ff ff ff    	lea    -0xa0(%edi),%eax
  4060fa:	25 ff ff 00 00       	and    $0xffff,%eax
  4060ff:	89 85 74 ff ff ff    	mov    %eax,-0x8c(%ebp)
  406105:	68 e8 97 40 00       	push   $0x4097e8
  40610a:	8d 85 6c fc ff ff    	lea    -0x394(%ebp),%eax
  406110:	50                   	push   %eax
  406111:	ff 15 90 91 40 00    	call   *0x409190
  406117:	8d 85 6c fc ff ff    	lea    -0x394(%ebp),%eax
  40611d:	50                   	push   %eax
  40611e:	ff 15 50 91 40 00    	call   *0x409150
  406124:	83 c4 28             	add    $0x28,%esp
  406127:	d1 e0                	shl    %eax
  406129:	66 89 45 d0          	mov    %ax,-0x30(%ebp)
  40612d:	66 c7 45 d2 00 02    	movw   $0x200,-0x2e(%ebp)
  406133:	8d 85 6c fc ff ff    	lea    -0x394(%ebp),%eax
  406139:	89 45 d4             	mov    %eax,-0x2c(%ebp)
  40613c:	8d 45 d0             	lea    -0x30(%ebp),%eax
  40613f:	89 45 a0             	mov    %eax,-0x60(%ebp)
  406142:	89 5d c0             	mov    %ebx,-0x40(%ebp)
  406145:	89 5d ac             	mov    %ebx,-0x54(%ebp)
  406148:	6a 08                	push   $0x8
  40614a:	53                   	push   %ebx
  40614b:	8b 35 58 90 40 00    	mov    0x409058,%esi
  406151:	ff d6                	call   *%esi
  406153:	89 45 c0             	mov    %eax,-0x40(%ebp)
  406156:	6a 10                	push   $0x10
  406158:	53                   	push   %ebx
  406159:	ff d6                	call   *%esi
  40615b:	8b f0                	mov    %eax,%esi
  40615d:	89 75 ac             	mov    %esi,-0x54(%ebp)
  406160:	6a 08                	push   $0x8
  406162:	53                   	push   %ebx
  406163:	ff 75 c0             	pushl  -0x40(%ebp)
  406166:	e8 57 1f 00 00       	call   0x4080c2
  40616b:	6a 10                	push   $0x10
  40616d:	53                   	push   %ebx
  40616e:	56                   	push   %esi
  40616f:	e8 4e 1f 00 00       	call   0x4080c2
  406174:	6a 08                	push   $0x8
  406176:	53                   	push   %ebx
  406177:	8d 45 c4             	lea    -0x3c(%ebp),%eax
  40617a:	50                   	push   %eax
  40617b:	e8 42 1f 00 00       	call   0x4080c2
  406180:	8b 45 c0             	mov    -0x40(%ebp),%eax
  406183:	89 45 b4             	mov    %eax,-0x4c(%ebp)
  406186:	89 75 b8             	mov    %esi,-0x48(%ebp)
  406189:	8d 45 c4             	lea    -0x3c(%ebp),%eax
  40618c:	89 45 bc             	mov    %eax,-0x44(%ebp)
  40618f:	8d 45 b4             	lea    -0x4c(%ebp),%eax
  406192:	89 45 a4             	mov    %eax,-0x5c(%ebp)
  406195:	be 9c 00 00 00       	mov    $0x9c,%esi
  40619a:	56                   	push   %esi
  40619b:	53                   	push   %ebx
  40619c:	8d 85 6c fe ff ff    	lea    -0x194(%ebp),%eax
  4061a2:	50                   	push   %eax
  4061a3:	e8 1a 1f 00 00       	call   0x4080c2
  4061a8:	83 c4 30             	add    $0x30,%esp
  4061ab:	89 b5 6c fe ff ff    	mov    %esi,-0x194(%ebp)
  4061b1:	8d 85 6c fe ff ff    	lea    -0x194(%ebp),%eax
  4061b7:	50                   	push   %eax
  4061b8:	ff 15 04 91 40 00    	call   *0x409104
  4061be:	c7 45 cc 64 b0 40 00 	movl   $0x40b064,-0x34(%ebp)
  4061c5:	6a 0a                	push   $0xa
  4061c7:	58                   	pop    %eax
  4061c8:	89 45 9c             	mov    %eax,-0x64(%ebp)
  4061cb:	66 83 bd 00 ff ff ff 	cmpw   $0x1,-0x100(%ebp)
  4061d2:	01 
  4061d3:	72 0a                	jb     0x4061df
  4061d5:	c7 45 cc 70 b0 40 00 	movl   $0x40b070,-0x34(%ebp)
  4061dc:	89 45 9c             	mov    %eax,-0x64(%ebp)
  4061df:	8d 8f 00 05 00 00    	lea    0x500(%edi),%ecx
  4061e5:	89 4d d8             	mov    %ecx,-0x28(%ebp)
  4061e8:	6a 08                	push   $0x8
  4061ea:	6a 1c                	push   $0x1c
  4061ec:	51                   	push   %ecx
  4061ed:	50                   	push   %eax
  4061ee:	ff 75 cc             	pushl  -0x34(%ebp)
  4061f1:	e8 47 f7 ff ff       	call   0x40593d
  4061f6:	83 c4 14             	add    $0x14,%esp
  4061f9:	50                   	push   %eax
  4061fa:	53                   	push   %ebx
  4061fb:	51                   	push   %ecx
  4061fc:	52                   	push   %edx
  4061fd:	56                   	push   %esi
  4061fe:	57                   	push   %edi
  4061ff:	6a 00                	push   $0x0
  406201:	68 80 00 00 00       	push   $0x80
  406206:	68 5a 02 00 00       	push   $0x25a
  40620b:	ff 75 a4             	pushl  -0x5c(%ebp)
  40620e:	ff 75 a0             	pushl  -0x60(%ebp)
  406211:	ff 75 a0             	pushl  -0x60(%ebp)
  406214:	ff 75 a8             	pushl  -0x58(%ebp)
  406217:	8b 45 e4             	mov    -0x1c(%ebp),%eax
  40621a:	ff 55 d8             	call   *-0x28(%ebp)
  40621d:	5f                   	pop    %edi
  40621e:	5e                   	pop    %esi
  40621f:	5a                   	pop    %edx
  406220:	59                   	pop    %ecx
  406221:	5b                   	pop    %ebx
  406222:	58                   	pop    %eax
  406223:	33 db                	xor    %ebx,%ebx
  406225:	53                   	push   %ebx
  406226:	68 d8 97 40 00       	push   $0x4097d8
  40622b:	ff 15 c0 91 40 00    	call   *0x4091c0
  406231:	8b 45 98             	mov    -0x68(%ebp),%eax
  406234:	05 60 ff ff ff       	add    $0xffffff60,%eax
  406239:	25 ff ff 00 00       	and    $0xffff,%eax
  40623e:	89 85 74 ff ff ff    	mov    %eax,-0x8c(%ebp)
  406244:	6a 08                	push   $0x8
  406246:	53                   	push   %ebx
  406247:	8b 3d 58 90 40 00    	mov    0x409058,%edi
  40624d:	ff d7                	call   *%edi
  40624f:	8b f0                	mov    %eax,%esi
  406251:	89 75 c0             	mov    %esi,-0x40(%ebp)
  406254:	6a 10                	push   $0x10
  406256:	53                   	push   %ebx
  406257:	ff d7                	call   *%edi
  406259:	8b f8                	mov    %eax,%edi
  40625b:	89 7d ac             	mov    %edi,-0x54(%ebp)
  40625e:	6a 08                	push   $0x8
  406260:	53                   	push   %ebx
  406261:	56                   	push   %esi
  406262:	e8 5b 1e 00 00       	call   0x4080c2
  406267:	6a 10                	push   $0x10
  406269:	53                   	push   %ebx
  40626a:	57                   	push   %edi
  40626b:	e8 52 1e 00 00       	call   0x4080c2
  406270:	89 75 b4             	mov    %esi,-0x4c(%ebp)
  406273:	89 7d b8             	mov    %edi,-0x48(%ebp)
  406276:	68 bc 97 40 00       	push   $0x4097bc
  40627b:	8d 85 6c fc ff ff    	lea    -0x394(%ebp),%eax
  406281:	50                   	push   %eax
  406282:	ff 15 90 91 40 00    	call   *0x409190
  406288:	8d 85 6c fc ff ff    	lea    -0x394(%ebp),%eax
  40628e:	50                   	push   %eax
  40628f:	ff 15 50 91 40 00    	call   *0x409150
  406295:	d1 e0                	shl    %eax
  406297:	66 89 45 d0          	mov    %ax,-0x30(%ebp)
  40629b:	66 c7 45 d2 00 02    	movw   $0x200,-0x2e(%ebp)
  4062a1:	6a 08                	push   $0x8
  4062a3:	6a 1c                	push   $0x1c
  4062a5:	ff 75 d8             	pushl  -0x28(%ebp)
  4062a8:	6a 0a                	push   $0xa
  4062aa:	ff 75 cc             	pushl  -0x34(%ebp)
  4062ad:	e8 8b f6 ff ff       	call   0x40593d
  4062b2:	83 c4 38             	add    $0x38,%esp
  4062b5:	50                   	push   %eax
  4062b6:	53                   	push   %ebx
  4062b7:	51                   	push   %ecx
  4062b8:	52                   	push   %edx
  4062b9:	56                   	push   %esi
  4062ba:	57                   	push   %edi
  4062bb:	6a 00                	push   $0x0
  4062bd:	68 80 00 00 00       	push   $0x80
  4062c2:	68 5b 02 00 00       	push   $0x25b
  4062c7:	ff 75 a4             	pushl  -0x5c(%ebp)
  4062ca:	ff 75 a0             	pushl  -0x60(%ebp)
  4062cd:	ff 75 a0             	pushl  -0x60(%ebp)
  4062d0:	ff 75 a8             	pushl  -0x58(%ebp)
  4062d3:	8b 45 e4             	mov    -0x1c(%ebp),%eax
  4062d6:	ff 55 d8             	call   *-0x28(%ebp)
  4062d9:	5f                   	pop    %edi
  4062da:	5e                   	pop    %esi
  4062db:	5a                   	pop    %edx
  4062dc:	59                   	pop    %ecx
  4062dd:	5b                   	pop    %ebx
  4062de:	58                   	pop    %eax
  4062df:	6a 00                	push   $0x0
  4062e1:	68 ac 97 40 00       	push   $0x4097ac
  4062e6:	ff 15 c0 91 40 00    	call   *0x4091c0
  4062ec:	6a 08                	push   $0x8
  4062ee:	6a 1c                	push   $0x1c
  4062f0:	ff 75 d8             	pushl  -0x28(%ebp)
  4062f3:	6a 0a                	push   $0xa
  4062f5:	ff 75 cc             	pushl  -0x34(%ebp)
  4062f8:	e8 40 f6 ff ff       	call   0x40593d
  4062fd:	ff 75 b0             	pushl  -0x50(%ebp)
  406300:	e8 7b 18 00 00       	call   0x407b80
  406305:	83 c4 18             	add    $0x18,%esp
  406308:	84 c0                	test   %al,%al
  40630a:	0f 84 97 00 00 00    	je     0x4063a7
  406310:	50                   	push   %eax
  406311:	53                   	push   %ebx
  406312:	51                   	push   %ecx
  406313:	52                   	push   %edx
  406314:	56                   	push   %esi
  406315:	57                   	push   %edi
  406316:	6a 00                	push   $0x0
  406318:	6a 01                	push   $0x1
  40631a:	6a 00                	push   $0x0
  40631c:	6a 00                	push   $0x0
  40631e:	6a 00                	push   $0x0
  406320:	68 00 06 00 00       	push   $0x600
  406325:	ff 75 0c             	pushl  0xc(%ebp)
  406328:	8b 45 dc             	mov    -0x24(%ebp),%eax
  40632b:	ff 55 d8             	call   *-0x28(%ebp)
  40632e:	89 45 e0             	mov    %eax,-0x20(%ebp)
  406331:	5f                   	pop    %edi
  406332:	5e                   	pop    %esi
  406333:	5a                   	pop    %edx
  406334:	59                   	pop    %ecx
  406335:	5b                   	pop    %ebx
  406336:	58                   	pop    %eax
  406337:	6a 00                	push   $0x0
  406339:	e8 42 18 00 00       	call   0x407b80
  40633e:	59                   	pop    %ecx
  40633f:	83 7d e0 00          	cmpl   $0x0,-0x20(%ebp)
  406343:	75 10                	jne    0x406355
  406345:	80 bd 5c ff ff ff 00 	cmpb   $0x0,-0xa4(%ebp)
  40634c:	75 1a                	jne    0x406368
  40634e:	c7 45 e0 c0 ff ff ff 	movl   $0xffffffc0,-0x20(%ebp)
  406355:	33 db                	xor    %ebx,%ebx
  406357:	83 4d fc ff          	orl    $0xffffffff,-0x4(%ebp)
  40635b:	e8 92 00 00 00       	call   0x4063f2
  406360:	8b 45 e0             	mov    -0x20(%ebp),%eax
  406363:	e9 a8 00 00 00       	jmp    0x406410
  406368:	6a 07                	push   $0x7
  40636a:	8d 85 10 ff ff ff    	lea    -0xf0(%ebp),%eax
  406370:	50                   	push   %eax
  406371:	6a 01                	push   $0x1
  406373:	68 6b 5e 40 00       	push   $0x405e6b
  406378:	ff 75 94             	pushl  -0x6c(%ebp)
  40637b:	6a 11                	push   $0x11
  40637d:	68 50 b0 40 00       	push   $0x40b050
  406382:	e8 53 f5 ff ff       	call   0x4058da
  406387:	6a 08                	push   $0x8
  406389:	6a 04                	push   $0x4
  40638b:	ff 75 d8             	pushl  -0x28(%ebp)
  40638e:	6a 0a                	push   $0xa
  406390:	ff 75 cc             	pushl  -0x34(%ebp)
  406393:	e8 a5 f5 ff ff       	call   0x40593d
  406398:	ff 75 b0             	pushl  -0x50(%ebp)
  40639b:	e8 e0 17 00 00       	call   0x407b80
  4063a0:	83 c4 34             	add    $0x34,%esp
  4063a3:	84 c0                	test   %al,%al
  4063a5:	75 09                	jne    0x4063b0
  4063a7:	c7 45 e0 c3 ff ff ff 	movl   $0xffffffc3,-0x20(%ebp)
  4063ae:	eb a5                	jmp    0x406355
  4063b0:	83 4d e0 ff          	orl    $0xffffffff,-0x20(%ebp)
  4063b4:	50                   	push   %eax
  4063b5:	53                   	push   %ebx
  4063b6:	51                   	push   %ecx
  4063b7:	52                   	push   %edx
  4063b8:	56                   	push   %esi
  4063b9:	57                   	push   %edi
  4063ba:	6a 64                	push   $0x64
  4063bc:	8b 85 60 ff ff ff    	mov    -0xa0(%ebp),%eax
  4063c2:	ff 55 d8             	call   *-0x28(%ebp)
  4063c5:	89 45 e0             	mov    %eax,-0x20(%ebp)
  4063c8:	5f                   	pop    %edi
  4063c9:	5e                   	pop    %esi
  4063ca:	5a                   	pop    %edx
  4063cb:	59                   	pop    %ecx
  4063cc:	5b                   	pop    %ebx
  4063cd:	58                   	pop    %eax
  4063ce:	6a 00                	push   $0x0
  4063d0:	e8 ab 17 00 00       	call   0x407b80
  4063d5:	59                   	pop    %ecx
  4063d6:	33 db                	xor    %ebx,%ebx
  4063d8:	38 9d 5d ff ff ff    	cmp    %bl,-0xa3(%ebp)
  4063de:	0f 85 73 ff ff ff    	jne    0x406357
  4063e4:	c7 45 e0 c0 ff ff ff 	movl   $0xffffffc0,-0x20(%ebp)
  4063eb:	e9 67 ff ff ff       	jmp    0x406357
  4063f0:	33 db                	xor    %ebx,%ebx
  4063f2:	39 9d 2c ff ff ff    	cmp    %ebx,-0xd4(%ebp)
  4063f8:	74 12                	je     0x40640c
  4063fa:	ff b5 2c ff ff ff    	pushl  -0xd4(%ebp)
  406400:	ff 15 18 91 40 00    	call   *0x409118
  406406:	89 9d 2c ff ff ff    	mov    %ebx,-0xd4(%ebp)
  40640c:	c3                   	ret    
  40640d:	6a 57                	push   $0x57
  40640f:	58                   	pop    %eax
  406410:	e8 d4 1e 00 00       	call   0x4082e9
  406415:	c3                   	ret    
  406416:	6a 20                	push   $0x20
  406418:	68 30 98 40 00       	push   $0x409830
  40641d:	e8 8e 1e 00 00       	call   0x4082b0
  406422:	33 db                	xor    %ebx,%ebx
  406424:	89 5d fc             	mov    %ebx,-0x4(%ebp)
  406427:	8b 75 08             	mov    0x8(%ebp),%esi
  40642a:	8b 46 04             	mov    0x4(%esi),%eax
  40642d:	8b 38                	mov    (%eax),%edi
  40642f:	89 7d e0             	mov    %edi,-0x20(%ebp)
  406432:	8b 46 50             	mov    0x50(%esi),%eax
  406435:	8d 04 87             	lea    (%edi,%eax,4),%eax
  406438:	89 46 08             	mov    %eax,0x8(%esi)
  40643b:	8b 08                	mov    (%eax),%ecx
  40643d:	89 4e 0c             	mov    %ecx,0xc(%esi)
  406440:	8d 4e 40             	lea    0x40(%esi),%ecx
  406443:	8d 56 1c             	lea    0x1c(%esi),%edx
  406446:	53                   	push   %ebx
  406447:	6a 04                	push   $0x4
  406449:	51                   	push   %ecx
  40644a:	50                   	push   %eax
  40644b:	52                   	push   %edx
  40644c:	e8 e1 15 00 00       	call   0x407a32
  406451:	83 c4 14             	add    $0x14,%esp
  406454:	89 45 dc             	mov    %eax,-0x24(%ebp)
  406457:	3b c3                	cmp    %ebx,%eax
  406459:	75 72                	jne    0x4064cd
  40645b:	8b 4e 10             	mov    0x10(%esi),%ecx
  40645e:	89 4d e4             	mov    %ecx,-0x1c(%ebp)
  406461:	8b 46 04             	mov    0x4(%esi),%eax
  406464:	89 45 d8             	mov    %eax,-0x28(%ebp)
  406467:	3b cb                	cmp    %ebx,%ecx
  406469:	74 5c                	je     0x4064c7
  40646b:	33 c1                	xor    %ecx,%eax
  40646d:	a9 00 f0 ff ff       	test   $0xfffff000,%eax
  406472:	75 53                	jne    0x4064c7
  406474:	c7 45 fc 01 00 00 00 	movl   $0x1,-0x4(%ebp)
  40647b:	8b 01                	mov    (%ecx),%eax
  40647d:	89 45 d4             	mov    %eax,-0x2c(%ebp)
  406480:	3b c7                	cmp    %edi,%eax
  406482:	74 37                	je     0x4064bb
  406484:	8b 4e 50             	mov    0x50(%esi),%ecx
  406487:	8d 04 88             	lea    (%eax,%ecx,4),%eax
  40648a:	89 46 14             	mov    %eax,0x14(%esi)
  40648d:	8b 08                	mov    (%eax),%ecx
  40648f:	89 4e 18             	mov    %ecx,0x18(%esi)
  406492:	53                   	push   %ebx
  406493:	6a 04                	push   $0x4
  406495:	8d 4e 40             	lea    0x40(%esi),%ecx
  406498:	51                   	push   %ecx
  406499:	50                   	push   %eax
  40649a:	8d 46 1c             	lea    0x1c(%esi),%eax
  40649d:	50                   	push   %eax
  40649e:	e8 8f 15 00 00       	call   0x407a32
  4064a3:	83 c4 14             	add    $0x14,%esp
  4064a6:	89 45 d0             	mov    %eax,-0x30(%ebp)
  4064a9:	3b c3                	cmp    %ebx,%eax
  4064ab:	74 17                	je     0x4064c4
  4064ad:	eb 0c                	jmp    0x4064bb
  4064af:	33 c0                	xor    %eax,%eax
  4064b1:	40                   	inc    %eax
  4064b2:	c3                   	ret    
  4064b3:	8b 65 e8             	mov    -0x18(%ebp),%esp
  4064b6:	33 db                	xor    %ebx,%ebx
  4064b8:	8b 75 08             	mov    0x8(%ebp),%esi
  4064bb:	89 5e 10             	mov    %ebx,0x10(%esi)
  4064be:	89 5e 14             	mov    %ebx,0x14(%esi)
  4064c1:	89 5e 18             	mov    %ebx,0x18(%esi)
  4064c4:	89 5d fc             	mov    %ebx,-0x4(%ebp)
  4064c7:	c6 46 4c 01          	movb   $0x1,0x4c(%esi)
  4064cb:	33 c0                	xor    %eax,%eax
  4064cd:	83 4d fc ff          	orl    $0xffffffff,-0x4(%ebp)
  4064d1:	eb 0e                	jmp    0x4064e1
  4064d3:	33 c0                	xor    %eax,%eax
  4064d5:	40                   	inc    %eax
  4064d6:	c3                   	ret    
  4064d7:	8b 65 e8             	mov    -0x18(%ebp),%esp
  4064da:	83 4d fc ff          	orl    $0xffffffff,-0x4(%ebp)
  4064de:	6a d5                	push   $0xffffffd5
  4064e0:	58                   	pop    %eax
  4064e1:	e8 03 1e 00 00       	call   0x4082e9
  4064e6:	c3                   	ret    
  4064e7:	6a 0c                	push   $0xc
  4064e9:	68 48 98 40 00       	push   $0x409848
  4064ee:	e8 bd 1d 00 00       	call   0x4082b0
  4064f3:	8b f1                	mov    %ecx,%esi
  4064f5:	33 db                	xor    %ebx,%ebx
  4064f7:	89 5d fc             	mov    %ebx,-0x4(%ebp)
  4064fa:	8d 7e 1c             	lea    0x1c(%esi),%edi
  4064fd:	53                   	push   %ebx
  4064fe:	6a 04                	push   $0x4
  406500:	8d 46 0c             	lea    0xc(%esi),%eax
  406503:	50                   	push   %eax
  406504:	ff 76 08             	pushl  0x8(%esi)
  406507:	57                   	push   %edi
  406508:	e8 25 15 00 00       	call   0x407a32
  40650d:	83 c4 14             	add    $0x14,%esp
  406510:	89 45 e4             	mov    %eax,-0x1c(%ebp)
  406513:	3b c3                	cmp    %ebx,%eax
  406515:	74 06                	je     0x40651d
  406517:	83 4d fc ff          	orl    $0xffffffff,-0x4(%ebp)
  40651b:	eb 3e                	jmp    0x40655b
  40651d:	39 5e 10             	cmp    %ebx,0x10(%esi)
  406520:	74 1f                	je     0x406541
  406522:	8b 4e 14             	mov    0x14(%esi),%ecx
  406525:	3b cb                	cmp    %ebx,%ecx
  406527:	74 18                	je     0x406541
  406529:	8d 46 18             	lea    0x18(%esi),%eax
  40652c:	39 18                	cmp    %ebx,(%eax)
  40652e:	74 11                	je     0x406541
  406530:	53                   	push   %ebx
  406531:	6a 04                	push   $0x4
  406533:	50                   	push   %eax
  406534:	51                   	push   %ecx
  406535:	57                   	push   %edi
  406536:	e8 f7 14 00 00       	call   0x407a32
  40653b:	83 c4 14             	add    $0x14,%esp
  40653e:	89 45 e4             	mov    %eax,-0x1c(%ebp)
  406541:	c6 46 4d 01          	movb   $0x1,0x4d(%esi)
  406545:	83 4d fc ff          	orl    $0xffffffff,-0x4(%ebp)
  406549:	33 c0                	xor    %eax,%eax
  40654b:	eb 0e                	jmp    0x40655b
  40654d:	33 c0                	xor    %eax,%eax
  40654f:	40                   	inc    %eax
  406550:	c3                   	ret    
  406551:	8b 65 e8             	mov    -0x18(%ebp),%esp
  406554:	83 4d fc ff          	orl    $0xffffffff,-0x4(%ebp)
  406558:	6a d5                	push   $0xffffffd5
  40655a:	58                   	pop    %eax
  40655b:	e8 89 1d 00 00       	call   0x4082e9
  406560:	c3                   	ret    
  406561:	6a 14                	push   $0x14
  406563:	68 58 98 40 00       	push   $0x409858
  406568:	e8 43 1d 00 00       	call   0x4082b0
  40656d:	8b 45 08             	mov    0x8(%ebp),%eax
  406570:	83 65 fc 00          	andl   $0x0,-0x4(%ebp)
  406574:	8b 48 30             	mov    0x30(%eax),%ecx
  406577:	89 4d e0             	mov    %ecx,-0x20(%ebp)
  40657a:	85 c9                	test   %ecx,%ecx
  40657c:	74 26                	je     0x4065a4
  40657e:	c6 45 e7 eb          	movb   $0xeb,-0x19(%ebp)
  406582:	6a 00                	push   $0x0
  406584:	6a 01                	push   $0x1
  406586:	8d 55 e7             	lea    -0x19(%ebp),%edx
  406589:	52                   	push   %edx
  40658a:	51                   	push   %ecx
  40658b:	83 c0 1c             	add    $0x1c,%eax
  40658e:	50                   	push   %eax
  40658f:	e8 9e 14 00 00       	call   0x407a32
  406594:	83 c4 14             	add    $0x14,%esp
  406597:	89 45 dc             	mov    %eax,-0x24(%ebp)
  40659a:	85 c0                	test   %eax,%eax
  40659c:	74 06                	je     0x4065a4
  40659e:	83 4d fc ff          	orl    $0xffffffff,-0x4(%ebp)
  4065a2:	eb 16                	jmp    0x4065ba
  4065a4:	83 4d fc ff          	orl    $0xffffffff,-0x4(%ebp)
  4065a8:	33 c0                	xor    %eax,%eax
  4065aa:	eb 0e                	jmp    0x4065ba
  4065ac:	33 c0                	xor    %eax,%eax
  4065ae:	40                   	inc    %eax
  4065af:	c3                   	ret    
  4065b0:	8b 65 e8             	mov    -0x18(%ebp),%esp
  4065b3:	83 4d fc ff          	orl    $0xffffffff,-0x4(%ebp)
  4065b7:	6a d5                	push   $0xffffffd5
  4065b9:	58                   	pop    %eax
  4065ba:	e8 2a 1d 00 00       	call   0x4082e9
  4065bf:	c3                   	ret    
  4065c0:	6a 08                	push   $0x8
  4065c2:	68 68 98 40 00       	push   $0x409868
  4065c7:	e8 e4 1c 00 00       	call   0x4082b0
  4065cc:	8b 75 08             	mov    0x8(%ebp),%esi
  4065cf:	83 fe 0a             	cmp    $0xa,%esi
  4065d2:	73 07                	jae    0x4065db
  4065d4:	b8 61 00 00 c0       	mov    $0xc0000061,%eax
  4065d9:	eb 34                	jmp    0x40660f
  4065db:	83 65 fc 00          	andl   $0x0,-0x4(%ebp)
  4065df:	8b ce                	mov    %esi,%ecx
  4065e1:	e8 01 ff ff ff       	call   0x4064e7
  4065e6:	56                   	push   %esi
  4065e7:	e8 75 ff ff ff       	call   0x406561
  4065ec:	ff 76 48             	pushl  0x48(%esi)
  4065ef:	ff 76 44             	pushl  0x44(%esi)
  4065f2:	8d 46 1c             	lea    0x1c(%esi),%eax
  4065f5:	50                   	push   %eax
  4065f6:	ff 16                	call   *(%esi)
  4065f8:	83 c4 10             	add    $0x10,%esp
  4065fb:	83 4d fc ff          	orl    $0xffffffff,-0x4(%ebp)
  4065ff:	eb 0e                	jmp    0x40660f
  406601:	33 c0                	xor    %eax,%eax
  406603:	40                   	inc    %eax
  406604:	c3                   	ret    
  406605:	8b 65 e8             	mov    -0x18(%ebp),%esp
  406608:	83 4d fc ff          	orl    $0xffffffff,-0x4(%ebp)
  40660c:	6a d5                	push   $0xffffffd5
  40660e:	58                   	pop    %eax
  40660f:	e8 d5 1c 00 00       	call   0x4082e9
  406614:	c3                   	ret    
  406615:	6a 20                	push   $0x20
  406617:	68 78 98 40 00       	push   $0x409878
  40661c:	e8 8f 1c 00 00       	call   0x4082b0
  406621:	8b f9                	mov    %ecx,%edi
  406623:	85 ff                	test   %edi,%edi
  406625:	0f 84 c0 00 00 00    	je     0x4066eb
  40662b:	83 7d 08 00          	cmpl   $0x0,0x8(%ebp)
  40662f:	0f 84 b6 00 00 00    	je     0x4066eb
  406635:	8d 5f 1c             	lea    0x1c(%edi),%ebx
  406638:	68 80 97 40 00       	push   $0x409780
  40663d:	53                   	push   %ebx
  40663e:	e8 2e ed ff ff       	call   0x405371
  406643:	59                   	pop    %ecx
  406644:	59                   	pop    %ecx
  406645:	8b f0                	mov    %eax,%esi
  406647:	85 f6                	test   %esi,%esi
  406649:	0f 84 9c 00 00 00    	je     0x4066eb
  40664f:	68 6c 97 40 00       	push   $0x40976c
  406654:	53                   	push   %ebx
  406655:	e8 17 ed ff ff       	call   0x405371
  40665a:	59                   	pop    %ecx
  40665b:	59                   	pop    %ecx
  40665c:	85 c0                	test   %eax,%eax
  40665e:	0f 84 87 00 00 00    	je     0x4066eb
  406664:	8b 4d 08             	mov    0x8(%ebp),%ecx
  406667:	89 01                	mov    %eax,(%ecx)
  406669:	89 77 04             	mov    %esi,0x4(%edi)
  40666c:	83 67 10 00          	andl   $0x0,0x10(%edi)
  406670:	2b 77 20             	sub    0x20(%edi),%esi
  406673:	89 75 dc             	mov    %esi,-0x24(%ebp)
  406676:	68 54 97 40 00       	push   $0x409754
  40667b:	ff 33                	pushl  (%ebx)
  40667d:	ff 15 0c 91 40 00    	call   *0x40910c
  406683:	33 c9                	xor    %ecx,%ecx
  406685:	89 4d fc             	mov    %ecx,-0x4(%ebp)
  406688:	89 4d e0             	mov    %ecx,-0x20(%ebp)
  40668b:	89 4d e4             	mov    %ecx,-0x1c(%ebp)
  40668e:	bb ff ff bf ff       	mov    $0xffbfffff,%ebx
  406693:	83 7d e4 64          	cmpl   $0x64,-0x1c(%ebp)
  406697:	7d 33                	jge    0x4066cc
  406699:	8b 4d e4             	mov    -0x1c(%ebp),%ecx
  40669c:	8d 14 01             	lea    (%ecx,%eax,1),%edx
  40669f:	8b ca                	mov    %edx,%ecx
  4066a1:	89 4d d8             	mov    %ecx,-0x28(%ebp)
  4066a4:	8b 09                	mov    (%ecx),%ecx
  4066a6:	23 cb                	and    %ebx,%ecx
  4066a8:	89 4d d4             	mov    %ecx,-0x2c(%ebp)
  4066ab:	3b 4d dc             	cmp    -0x24(%ebp),%ecx
  4066ae:	75 27                	jne    0x4066d7
  4066b0:	83 c2 09             	add    $0x9,%edx
  4066b3:	89 55 d8             	mov    %edx,-0x28(%ebp)
  4066b6:	8b 12                	mov    (%edx),%edx
  4066b8:	23 d3                	and    %ebx,%edx
  4066ba:	89 55 d0             	mov    %edx,-0x30(%ebp)
  4066bd:	8b f2                	mov    %edx,%esi
  4066bf:	33 f1                	xor    %ecx,%esi
  4066c1:	f7 c6 00 f0 ff ff    	test   $0xfffff000,%esi
  4066c7:	75 0e                	jne    0x4066d7
  4066c9:	89 55 e0             	mov    %edx,-0x20(%ebp)
  4066cc:	8b 47 20             	mov    0x20(%edi),%eax
  4066cf:	03 45 e0             	add    -0x20(%ebp),%eax
  4066d2:	89 47 10             	mov    %eax,0x10(%edi)
  4066d5:	eb 0c                	jmp    0x4066e3
  4066d7:	ff 45 e4             	incl   -0x1c(%ebp)
  4066da:	eb b7                	jmp    0x406693
  4066dc:	33 c0                	xor    %eax,%eax
  4066de:	40                   	inc    %eax
  4066df:	c3                   	ret    
  4066e0:	8b 65 e8             	mov    -0x18(%ebp),%esp
  4066e3:	83 4d fc ff          	orl    $0xffffffff,-0x4(%ebp)
  4066e7:	b0 01                	mov    $0x1,%al
  4066e9:	eb 02                	jmp    0x4066ed
  4066eb:	32 c0                	xor    %al,%al
  4066ed:	e8 f7 1b 00 00       	call   0x4082e9
  4066f2:	c3                   	ret    
  4066f3:	68 88 03 00 00       	push   $0x388
  4066f8:	68 90 98 40 00       	push   $0x409890
  4066fd:	e8 ae 1b 00 00       	call   0x4082b0
  406702:	33 db                	xor    %ebx,%ebx
  406704:	8b 75 08             	mov    0x8(%ebp),%esi
  406707:	3b f3                	cmp    %ebx,%esi
  406709:	0f 84 a8 04 00 00    	je     0x406bb7
  40670f:	39 5d 0c             	cmp    %ebx,0xc(%ebp)
  406712:	0f 84 9f 04 00 00    	je     0x406bb7
  406718:	8b 45 10             	mov    0x10(%ebp),%eax
  40671b:	3b c3                	cmp    %ebx,%eax
  40671d:	0f 84 94 04 00 00    	je     0x406bb7
  406723:	89 85 08 ff ff ff    	mov    %eax,-0xf8(%ebp)
  406729:	8b 45 14             	mov    0x14(%ebp),%eax
  40672c:	89 85 4c ff ff ff    	mov    %eax,-0xb4(%ebp)
  406732:	8b 45 18             	mov    0x18(%ebp),%eax
  406735:	89 85 50 ff ff ff    	mov    %eax,-0xb0(%ebp)
  40673b:	8d 86 00 02 00 00    	lea    0x200(%esi),%eax
  406741:	89 45 90             	mov    %eax,-0x70(%ebp)
  406744:	89 85 48 ff ff ff    	mov    %eax,-0xb8(%ebp)
  40674a:	88 9d 54 ff ff ff    	mov    %bl,-0xac(%ebp)
  406750:	88 9d 55 ff ff ff    	mov    %bl,-0xab(%ebp)
  406756:	68 08 98 40 00       	push   $0x409808
  40675b:	e8 42 15 00 00       	call   0x407ca2
  406760:	59                   	pop    %ecx
  406761:	89 85 58 ff ff ff    	mov    %eax,-0xa8(%ebp)
  406767:	3b c3                	cmp    %ebx,%eax
  406769:	75 07                	jne    0x406772
  40676b:	6a ba                	push   $0xffffffba
  40676d:	e9 47 04 00 00       	jmp    0x406bb9
  406772:	8d 45 dc             	lea    -0x24(%ebp),%eax
  406775:	50                   	push   %eax
  406776:	8d 45 e0             	lea    -0x20(%ebp),%eax
  406779:	50                   	push   %eax
  40677a:	e8 60 0e 00 00       	call   0x4075df
  40677f:	59                   	pop    %ecx
  406780:	59                   	pop    %ecx
  406781:	3b c3                	cmp    %ebx,%eax
  406783:	74 07                	je     0x40678c
  406785:	6a d4                	push   $0xffffffd4
  406787:	e9 2d 04 00 00       	jmp    0x406bb9
  40678c:	8d 85 24 ff ff ff    	lea    -0xdc(%ebp),%eax
  406792:	50                   	push   %eax
  406793:	e8 f1 ef ff ff       	call   0x405789
  406798:	59                   	pop    %ecx
  406799:	84 c0                	test   %al,%al
  40679b:	75 07                	jne    0x4067a4
  40679d:	6a c3                	push   $0xffffffc3
  40679f:	e9 15 04 00 00       	jmp    0x406bb9
  4067a4:	83 4d e4 ff          	orl    $0xffffffff,-0x1c(%ebp)
  4067a8:	89 5d fc             	mov    %ebx,-0x4(%ebp)
  4067ab:	89 5d b0             	mov    %ebx,-0x50(%ebp)
  4067ae:	8d 45 b0             	lea    -0x50(%ebp),%eax
  4067b1:	50                   	push   %eax
  4067b2:	8d 8d 08 ff ff ff    	lea    -0xf8(%ebp),%ecx
  4067b8:	e8 58 fe ff ff       	call   0x406615
  4067bd:	59                   	pop    %ecx
  4067be:	84 c0                	test   %al,%al
  4067c0:	75 0c                	jne    0x4067ce
  4067c2:	c7 45 e4 c1 ff ff ff 	movl   $0xffffffc1,-0x1c(%ebp)
  4067c9:	e9 33 03 00 00       	jmp    0x406b01
  4067ce:	6a 0d                	push   $0xd
  4067d0:	8d 85 08 ff ff ff    	lea    -0xf8(%ebp),%eax
  4067d6:	50                   	push   %eax
  4067d7:	6a 07                	push   $0x7
  4067d9:	68 16 64 40 00       	push   $0x406416
  4067de:	56                   	push   %esi
  4067df:	6a 17                	push   $0x17
  4067e1:	68 7c b0 40 00       	push   $0x40b07c
  4067e6:	e8 ef f0 ff ff       	call   0x4058da
  4067eb:	89 b5 04 ff ff ff    	mov    %esi,-0xfc(%ebp)
  4067f1:	8b c6                	mov    %esi,%eax
  4067f3:	c1 e8 10             	shr    $0x10,%eax
  4067f6:	89 45 94             	mov    %eax,-0x6c(%ebp)
  4067f9:	bf 9c 00 00 00       	mov    $0x9c,%edi
  4067fe:	57                   	push   %edi
  4067ff:	53                   	push   %ebx
  406800:	8d 85 68 fe ff ff    	lea    -0x198(%ebp),%eax
  406806:	50                   	push   %eax
  406807:	e8 b6 18 00 00       	call   0x4080c2
  40680c:	83 c4 28             	add    $0x28,%esp
  40680f:	89 bd 68 fe ff ff    	mov    %edi,-0x198(%ebp)
  406815:	8d 85 68 fe ff ff    	lea    -0x198(%ebp),%eax
  40681b:	50                   	push   %eax
  40681c:	ff 15 04 91 40 00    	call   *0x409104
  406822:	c7 45 d4 a8 b0 40 00 	movl   $0x40b0a8,-0x2c(%ebp)
  406829:	6a 0a                	push   $0xa
  40682b:	5f                   	pop    %edi
  40682c:	89 7d a4             	mov    %edi,-0x5c(%ebp)
  40682f:	83 bd 6c fe ff ff 05 	cmpl   $0x5,-0x194(%ebp)
  406836:	75 1b                	jne    0x406853
  406838:	83 bd 70 fe ff ff 01 	cmpl   $0x1,-0x190(%ebp)
  40683f:	75 12                	jne    0x406853
  406841:	66 39 9d fc fe ff ff 	cmp    %bx,-0x104(%ebp)
  406848:	75 09                	jne    0x406853
  40684a:	c7 45 c8 a4 00 00 00 	movl   $0xa4,-0x38(%ebp)
  406851:	eb 4d                	jmp    0x4068a0
  406853:	66 83 bd fc fe ff ff 	cmpw   $0x1,-0x104(%ebp)
  40685a:	01 
  40685b:	75 09                	jne    0x406866
  40685d:	c7 45 c8 a0 00 00 00 	movl   $0xa0,-0x38(%ebp)
  406864:	eb 3a                	jmp    0x4068a0
  406866:	66 83 bd fc fe ff ff 	cmpw   $0x2,-0x104(%ebp)
  40686d:	02 
  40686e:	75 1f                	jne    0x40688f
  406870:	68 84 98 40 00       	push   $0x409884
  406875:	8d 85 7c fe ff ff    	lea    -0x184(%ebp),%eax
  40687b:	50                   	push   %eax
  40687c:	ff 15 68 91 40 00    	call   *0x409168
  406882:	59                   	pop    %ecx
  406883:	59                   	pop    %ecx
  406884:	85 c0                	test   %eax,%eax
  406886:	c7 45 c8 a0 00 00 00 	movl   $0xa0,-0x38(%ebp)
  40688d:	75 07                	jne    0x406896
  40688f:	c7 45 c8 a4 00 00 00 	movl   $0xa4,-0x38(%ebp)
  406896:	c7 45 d4 b4 b0 40 00 	movl   $0x40b0b4,-0x2c(%ebp)
  40689d:	89 7d a4             	mov    %edi,-0x5c(%ebp)
  4068a0:	c7 85 5c ff ff ff 30 	movl   $0x30,-0xa4(%ebp)
  4068a7:	00 00 00 
  4068aa:	89 9d 60 ff ff ff    	mov    %ebx,-0xa0(%ebp)
  4068b0:	89 9d 64 ff ff ff    	mov    %ebx,-0x9c(%ebp)
  4068b6:	89 9d 68 ff ff ff    	mov    %ebx,-0x98(%ebp)
  4068bc:	89 9d 70 ff ff ff    	mov    %ebx,-0x90(%ebp)
  4068c2:	89 9d 74 ff ff ff    	mov    %ebx,-0x8c(%ebp)
  4068c8:	89 9d 78 ff ff ff    	mov    %ebx,-0x88(%ebp)
  4068ce:	89 9d 7c ff ff ff    	mov    %ebx,-0x84(%ebp)
  4068d4:	89 5d 80             	mov    %ebx,-0x80(%ebp)
  4068d7:	89 5d 84             	mov    %ebx,-0x7c(%ebp)
  4068da:	89 5d 88             	mov    %ebx,-0x78(%ebp)
  4068dd:	8d 85 5c ff ff ff    	lea    -0xa4(%ebp),%eax
  4068e3:	89 45 9c             	mov    %eax,-0x64(%ebp)
  4068e6:	0f b7 45 c8          	movzwl -0x38(%ebp),%eax
  4068ea:	89 45 8c             	mov    %eax,-0x74(%ebp)
  4068ed:	2b f0                	sub    %eax,%esi
  4068ef:	81 e6 ff ff 00 00    	and    $0xffff,%esi
  4068f5:	89 b5 6c ff ff ff    	mov    %esi,-0x94(%ebp)
  4068fb:	68 e8 97 40 00       	push   $0x4097e8
  406900:	8d 85 68 fc ff ff    	lea    -0x398(%ebp),%eax
  406906:	50                   	push   %eax
  406907:	ff 15 90 91 40 00    	call   *0x409190
  40690d:	8d 85 68 fc ff ff    	lea    -0x398(%ebp),%eax
  406913:	50                   	push   %eax
  406914:	ff 15 50 91 40 00    	call   *0x409150
  40691a:	83 c4 0c             	add    $0xc,%esp
  40691d:	d1 e0                	shl    %eax
  40691f:	66 89 45 cc          	mov    %ax,-0x34(%ebp)
  406923:	66 c7 45 ce 00 02    	movw   $0x200,-0x32(%ebp)
  406929:	8d 85 68 fc ff ff    	lea    -0x398(%ebp),%eax
  40692f:	89 45 d0             	mov    %eax,-0x30(%ebp)
  406932:	8d 45 cc             	lea    -0x34(%ebp),%eax
  406935:	89 45 ac             	mov    %eax,-0x54(%ebp)
  406938:	89 5d a8             	mov    %ebx,-0x58(%ebp)
  40693b:	89 5d a0             	mov    %ebx,-0x60(%ebp)
  40693e:	6a 08                	push   $0x8
  406940:	53                   	push   %ebx
  406941:	8b 35 58 90 40 00    	mov    0x409058,%esi
  406947:	ff d6                	call   *%esi
  406949:	8b f8                	mov    %eax,%edi
  40694b:	89 7d a8             	mov    %edi,-0x58(%ebp)
  40694e:	6a 10                	push   $0x10
  406950:	53                   	push   %ebx
  406951:	ff d6                	call   *%esi
  406953:	8b f0                	mov    %eax,%esi
  406955:	89 75 a0             	mov    %esi,-0x60(%ebp)
  406958:	6a 08                	push   $0x8
  40695a:	53                   	push   %ebx
  40695b:	57                   	push   %edi
  40695c:	e8 61 17 00 00       	call   0x4080c2
  406961:	6a 10                	push   $0x10
  406963:	53                   	push   %ebx
  406964:	56                   	push   %esi
  406965:	e8 58 17 00 00       	call   0x4080c2
  40696a:	6a 08                	push   $0x8
  40696c:	53                   	push   %ebx
  40696d:	8d 45 c0             	lea    -0x40(%ebp),%eax
  406970:	50                   	push   %eax
  406971:	e8 4c 17 00 00       	call   0x4080c2
  406976:	89 7d b4             	mov    %edi,-0x4c(%ebp)
  406979:	89 75 b8             	mov    %esi,-0x48(%ebp)
  40697c:	8d 45 c0             	lea    -0x40(%ebp),%eax
  40697f:	89 45 bc             	mov    %eax,-0x44(%ebp)
  406982:	8d 45 b4             	lea    -0x4c(%ebp),%eax
  406985:	89 45 98             	mov    %eax,-0x68(%ebp)
  406988:	8b 45 08             	mov    0x8(%ebp),%eax
  40698b:	05 00 05 00 00       	add    $0x500,%eax
  406990:	89 45 d8             	mov    %eax,-0x28(%ebp)
  406993:	6a 08                	push   $0x8
  406995:	6a 1c                	push   $0x1c
  406997:	50                   	push   %eax
  406998:	6a 0a                	push   $0xa
  40699a:	ff 75 d4             	pushl  -0x2c(%ebp)
  40699d:	e8 9b ef ff ff       	call   0x40593d
  4069a2:	83 c4 38             	add    $0x38,%esp
  4069a5:	50                   	push   %eax
  4069a6:	53                   	push   %ebx
  4069a7:	51                   	push   %ecx
  4069a8:	52                   	push   %edx
  4069a9:	56                   	push   %esi
  4069aa:	57                   	push   %edi
  4069ab:	6a 00                	push   $0x0
  4069ad:	68 80 00 00 00       	push   $0x80
  4069b2:	68 56 02 00 00       	push   $0x256
  4069b7:	ff 75 98             	pushl  -0x68(%ebp)
  4069ba:	ff 75 ac             	pushl  -0x54(%ebp)
  4069bd:	ff 75 ac             	pushl  -0x54(%ebp)
  4069c0:	ff 75 9c             	pushl  -0x64(%ebp)
  4069c3:	8b 45 e0             	mov    -0x20(%ebp),%eax
  4069c6:	ff 55 d8             	call   *-0x28(%ebp)
  4069c9:	5f                   	pop    %edi
  4069ca:	5e                   	pop    %esi
  4069cb:	5a                   	pop    %edx
  4069cc:	59                   	pop    %ecx
  4069cd:	5b                   	pop    %ebx
  4069ce:	58                   	pop    %eax
  4069cf:	33 db                	xor    %ebx,%ebx
  4069d1:	53                   	push   %ebx
  4069d2:	68 d8 97 40 00       	push   $0x4097d8
  4069d7:	ff 15 c0 91 40 00    	call   *0x4091c0
  4069dd:	8b 45 94             	mov    -0x6c(%ebp),%eax
  4069e0:	2b 45 8c             	sub    -0x74(%ebp),%eax
  4069e3:	25 ff ff 00 00       	and    $0xffff,%eax
  4069e8:	89 85 6c ff ff ff    	mov    %eax,-0x94(%ebp)
  4069ee:	6a 08                	push   $0x8
  4069f0:	53                   	push   %ebx
  4069f1:	8b 35 58 90 40 00    	mov    0x409058,%esi
  4069f7:	ff d6                	call   *%esi
  4069f9:	8b f8                	mov    %eax,%edi
  4069fb:	89 7d a8             	mov    %edi,-0x58(%ebp)
  4069fe:	6a 10                	push   $0x10
  406a00:	53                   	push   %ebx
  406a01:	ff d6                	call   *%esi
  406a03:	8b f0                	mov    %eax,%esi
  406a05:	89 75 a0             	mov    %esi,-0x60(%ebp)
  406a08:	6a 08                	push   $0x8
  406a0a:	53                   	push   %ebx
  406a0b:	57                   	push   %edi
  406a0c:	e8 b1 16 00 00       	call   0x4080c2
  406a11:	6a 10                	push   $0x10
  406a13:	53                   	push   %ebx
  406a14:	56                   	push   %esi
  406a15:	e8 a8 16 00 00       	call   0x4080c2
  406a1a:	89 7d b4             	mov    %edi,-0x4c(%ebp)
  406a1d:	89 75 b8             	mov    %esi,-0x48(%ebp)
  406a20:	68 bc 97 40 00       	push   $0x4097bc
  406a25:	8d 85 68 fc ff ff    	lea    -0x398(%ebp),%eax
  406a2b:	50                   	push   %eax
  406a2c:	ff 15 90 91 40 00    	call   *0x409190
  406a32:	8d 85 68 fc ff ff    	lea    -0x398(%ebp),%eax
  406a38:	50                   	push   %eax
  406a39:	ff 15 50 91 40 00    	call   *0x409150
  406a3f:	d1 e0                	shl    %eax
  406a41:	66 89 45 cc          	mov    %ax,-0x34(%ebp)
  406a45:	66 c7 45 ce 00 02    	movw   $0x200,-0x32(%ebp)
  406a4b:	6a 08                	push   $0x8
  406a4d:	6a 1c                	push   $0x1c
  406a4f:	ff 75 d8             	pushl  -0x28(%ebp)
  406a52:	6a 0a                	push   $0xa
  406a54:	ff 75 d4             	pushl  -0x2c(%ebp)
  406a57:	e8 e1 ee ff ff       	call   0x40593d
  406a5c:	83 c4 38             	add    $0x38,%esp
  406a5f:	50                   	push   %eax
  406a60:	53                   	push   %ebx
  406a61:	51                   	push   %ecx
  406a62:	52                   	push   %edx
  406a63:	56                   	push   %esi
  406a64:	57                   	push   %edi
  406a65:	6a 00                	push   $0x0
  406a67:	68 80 00 00 00       	push   $0x80
  406a6c:	68 57 02 00 00       	push   $0x257
  406a71:	ff 75 98             	pushl  -0x68(%ebp)
  406a74:	ff 75 ac             	pushl  -0x54(%ebp)
  406a77:	ff 75 ac             	pushl  -0x54(%ebp)
  406a7a:	ff 75 9c             	pushl  -0x64(%ebp)
  406a7d:	8b 45 e0             	mov    -0x20(%ebp),%eax
  406a80:	ff 55 d8             	call   *-0x28(%ebp)
  406a83:	5f                   	pop    %edi
  406a84:	5e                   	pop    %esi
  406a85:	5a                   	pop    %edx
  406a86:	59                   	pop    %ecx
  406a87:	5b                   	pop    %ebx
  406a88:	58                   	pop    %eax
  406a89:	6a 00                	push   $0x0
  406a8b:	68 ac 97 40 00       	push   $0x4097ac
  406a90:	ff 15 c0 91 40 00    	call   *0x4091c0
  406a96:	6a 08                	push   $0x8
  406a98:	6a 1c                	push   $0x1c
  406a9a:	ff 75 d8             	pushl  -0x28(%ebp)
  406a9d:	6a 0a                	push   $0xa
  406a9f:	ff 75 d4             	pushl  -0x2c(%ebp)
  406aa2:	e8 96 ee ff ff       	call   0x40593d
  406aa7:	ff 75 b0             	pushl  -0x50(%ebp)
  406aaa:	e8 d1 10 00 00       	call   0x407b80
  406aaf:	83 c4 18             	add    $0x18,%esp
  406ab2:	84 c0                	test   %al,%al
  406ab4:	0f 84 97 00 00 00    	je     0x406b51
  406aba:	50                   	push   %eax
  406abb:	53                   	push   %ebx
  406abc:	51                   	push   %ecx
  406abd:	52                   	push   %edx
  406abe:	56                   	push   %esi
  406abf:	57                   	push   %edi
  406ac0:	6a 00                	push   $0x0
  406ac2:	6a 1f                	push   $0x1f
  406ac4:	6a 00                	push   $0x0
  406ac6:	6a 00                	push   $0x0
  406ac8:	6a 00                	push   $0x0
  406aca:	68 00 06 00 00       	push   $0x600
  406acf:	ff 75 0c             	pushl  0xc(%ebp)
  406ad2:	8b 45 dc             	mov    -0x24(%ebp),%eax
  406ad5:	ff 55 d8             	call   *-0x28(%ebp)
  406ad8:	89 45 e4             	mov    %eax,-0x1c(%ebp)
  406adb:	5f                   	pop    %edi
  406adc:	5e                   	pop    %esi
  406add:	5a                   	pop    %edx
  406ade:	59                   	pop    %ecx
  406adf:	5b                   	pop    %ebx
  406ae0:	58                   	pop    %eax
  406ae1:	6a 00                	push   $0x0
  406ae3:	e8 98 10 00 00       	call   0x407b80
  406ae8:	59                   	pop    %ecx
  406ae9:	83 7d e4 00          	cmpl   $0x0,-0x1c(%ebp)
  406aed:	75 10                	jne    0x406aff
  406aef:	80 bd 54 ff ff ff 00 	cmpb   $0x0,-0xac(%ebp)
  406af6:	75 1a                	jne    0x406b12
  406af8:	c7 45 e4 c0 ff ff ff 	movl   $0xffffffc0,-0x1c(%ebp)
  406aff:	33 db                	xor    %ebx,%ebx
  406b01:	83 4d fc ff          	orl    $0xffffffff,-0x4(%ebp)
  406b05:	e8 92 00 00 00       	call   0x406b9c
  406b0a:	8b 45 e4             	mov    -0x1c(%ebp),%eax
  406b0d:	e9 a8 00 00 00       	jmp    0x406bba
  406b12:	6a 07                	push   $0x7
  406b14:	8d 85 08 ff ff ff    	lea    -0xf8(%ebp),%eax
  406b1a:	50                   	push   %eax
  406b1b:	6a 01                	push   $0x1
  406b1d:	68 c0 65 40 00       	push   $0x4065c0
  406b22:	ff 75 90             	pushl  -0x70(%ebp)
  406b25:	6a 11                	push   $0x11
  406b27:	68 94 b0 40 00       	push   $0x40b094
  406b2c:	e8 a9 ed ff ff       	call   0x4058da
  406b31:	6a 08                	push   $0x8
  406b33:	6a 04                	push   $0x4
  406b35:	ff 75 d8             	pushl  -0x28(%ebp)
  406b38:	6a 0a                	push   $0xa
  406b3a:	ff 75 d4             	pushl  -0x2c(%ebp)
  406b3d:	e8 fb ed ff ff       	call   0x40593d
  406b42:	ff 75 b0             	pushl  -0x50(%ebp)
  406b45:	e8 36 10 00 00       	call   0x407b80
  406b4a:	83 c4 34             	add    $0x34,%esp
  406b4d:	84 c0                	test   %al,%al
  406b4f:	75 09                	jne    0x406b5a
  406b51:	c7 45 e4 c3 ff ff ff 	movl   $0xffffffc3,-0x1c(%ebp)
  406b58:	eb a5                	jmp    0x406aff
  406b5a:	83 4d e4 ff          	orl    $0xffffffff,-0x1c(%ebp)
  406b5e:	50                   	push   %eax
  406b5f:	53                   	push   %ebx
  406b60:	51                   	push   %ecx
  406b61:	52                   	push   %edx
  406b62:	56                   	push   %esi
  406b63:	57                   	push   %edi
  406b64:	6a 64                	push   $0x64
  406b66:	8b 85 58 ff ff ff    	mov    -0xa8(%ebp),%eax
  406b6c:	ff 55 d8             	call   *-0x28(%ebp)
  406b6f:	89 45 e4             	mov    %eax,-0x1c(%ebp)
  406b72:	5f                   	pop    %edi
  406b73:	5e                   	pop    %esi
  406b74:	5a                   	pop    %edx
  406b75:	59                   	pop    %ecx
  406b76:	5b                   	pop    %ebx
  406b77:	58                   	pop    %eax
  406b78:	6a 00                	push   $0x0
  406b7a:	e8 01 10 00 00       	call   0x407b80
  406b7f:	59                   	pop    %ecx
  406b80:	33 db                	xor    %ebx,%ebx
  406b82:	38 9d 55 ff ff ff    	cmp    %bl,-0xab(%ebp)
  406b88:	0f 85 73 ff ff ff    	jne    0x406b01
  406b8e:	c7 45 e4 c0 ff ff ff 	movl   $0xffffffc0,-0x1c(%ebp)
  406b95:	e9 67 ff ff ff       	jmp    0x406b01
  406b9a:	33 db                	xor    %ebx,%ebx
  406b9c:	39 9d 24 ff ff ff    	cmp    %ebx,-0xdc(%ebp)
  406ba2:	74 12                	je     0x406bb6
  406ba4:	ff b5 24 ff ff ff    	pushl  -0xdc(%ebp)
  406baa:	ff 15 18 91 40 00    	call   *0x409118
  406bb0:	89 9d 24 ff ff ff    	mov    %ebx,-0xdc(%ebp)
  406bb6:	c3                   	ret    
  406bb7:	6a 57                	push   $0x57
  406bb9:	58                   	pop    %eax
  406bba:	e8 2a 17 00 00       	call   0x4082e9
  406bbf:	c3                   	ret    
  406bc0:	6a 08                	push   $0x8
  406bc2:	68 a0 98 40 00       	push   $0x4098a0
  406bc7:	e8 e4 16 00 00       	call   0x4082b0
  406bcc:	83 65 fc 00          	andl   $0x0,-0x4(%ebp)
  406bd0:	8b 45 08             	mov    0x8(%ebp),%eax
  406bd3:	c6 40 30 01          	movb   $0x1,0x30(%eax)
  406bd7:	ff 70 08             	pushl  0x8(%eax)
  406bda:	ff 70 04             	pushl  0x4(%eax)
  406bdd:	8d 48 0c             	lea    0xc(%eax),%ecx
  406be0:	51                   	push   %ecx
  406be1:	ff 10                	call   *(%eax)
  406be3:	83 c4 0c             	add    $0xc,%esp
  406be6:	83 4d fc ff          	orl    $0xffffffff,-0x4(%ebp)
  406bea:	eb 0e                	jmp    0x406bfa
  406bec:	33 c0                	xor    %eax,%eax
  406bee:	40                   	inc    %eax
  406bef:	c3                   	ret    
  406bf0:	8b 65 e8             	mov    -0x18(%ebp),%esp
  406bf3:	83 4d fc ff          	orl    $0xffffffff,-0x4(%ebp)
  406bf7:	6a d5                	push   $0xffffffd5
  406bf9:	58                   	pop    %eax
  406bfa:	e8 ea 16 00 00       	call   0x4082e9
  406bff:	c3                   	ret    
  406c00:	55                   	push   %ebp
  406c01:	8b ec                	mov    %esp,%ebp
  406c03:	81 ec 94 02 00 00    	sub    $0x294,%esp
  406c09:	53                   	push   %ebx
  406c0a:	56                   	push   %esi
  406c0b:	8b 75 08             	mov    0x8(%ebp),%esi
  406c0e:	33 db                	xor    %ebx,%ebx
  406c10:	3b f3                	cmp    %ebx,%esi
  406c12:	57                   	push   %edi
  406c13:	0f 84 4d 02 00 00    	je     0x406e66
  406c19:	39 5d 0c             	cmp    %ebx,0xc(%ebp)
  406c1c:	0f 84 44 02 00 00    	je     0x406e66
  406c22:	8b 45 10             	mov    0x10(%ebp),%eax
  406c25:	3b c3                	cmp    %ebx,%eax
  406c27:	0f 84 39 02 00 00    	je     0x406e66
  406c2d:	89 85 6c ff ff ff    	mov    %eax,-0x94(%ebp)
  406c33:	8b 45 14             	mov    0x14(%ebp),%eax
  406c36:	89 85 70 ff ff ff    	mov    %eax,-0x90(%ebp)
  406c3c:	8b 45 18             	mov    0x18(%ebp),%eax
  406c3f:	89 85 74 ff ff ff    	mov    %eax,-0x8c(%ebp)
  406c45:	8d 45 f8             	lea    -0x8(%ebp),%eax
  406c48:	50                   	push   %eax
  406c49:	8d 45 fc             	lea    -0x4(%ebp),%eax
  406c4c:	50                   	push   %eax
  406c4d:	88 5d 9c             	mov    %bl,-0x64(%ebp)
  406c50:	e8 8a 09 00 00       	call   0x4075df
  406c55:	85 c0                	test   %eax,%eax
  406c57:	59                   	pop    %ecx
  406c58:	59                   	pop    %ecx
  406c59:	74 07                	je     0x406c62
  406c5b:	6a d4                	push   $0xffffffd4
  406c5d:	e9 06 02 00 00       	jmp    0x406e68
  406c62:	8d 85 78 ff ff ff    	lea    -0x88(%ebp),%eax
  406c68:	50                   	push   %eax
  406c69:	e8 1b eb ff ff       	call   0x405789
  406c6e:	6a 0d                	push   $0xd
  406c70:	8d 85 6c ff ff ff    	lea    -0x94(%ebp),%eax
  406c76:	50                   	push   %eax
  406c77:	6a 07                	push   $0x7
  406c79:	68 c0 6b 40 00       	push   $0x406bc0
  406c7e:	56                   	push   %esi
  406c7f:	6a 17                	push   $0x17
  406c81:	68 c0 b0 40 00       	push   $0x40b0c0
  406c86:	e8 4f ec ff ff       	call   0x4058da
  406c8b:	8d 45 a0             	lea    -0x60(%ebp),%eax
  406c8e:	89 45 d0             	mov    %eax,-0x30(%ebp)
  406c91:	81 c6 68 ff ff ff    	add    $0xffffff68,%esi
  406c97:	8d 85 6c fd ff ff    	lea    -0x294(%ebp),%eax
  406c9d:	68 e8 97 40 00       	push   $0x4097e8
  406ca2:	81 e6 ff ff 00 00    	and    $0xffff,%esi
  406ca8:	50                   	push   %eax
  406ca9:	c7 45 a0 30 00 00 00 	movl   $0x30,-0x60(%ebp)
  406cb0:	89 5d a4             	mov    %ebx,-0x5c(%ebp)
  406cb3:	89 5d a8             	mov    %ebx,-0x58(%ebp)
  406cb6:	89 5d ac             	mov    %ebx,-0x54(%ebp)
  406cb9:	89 5d b4             	mov    %ebx,-0x4c(%ebp)
  406cbc:	89 5d b8             	mov    %ebx,-0x48(%ebp)
  406cbf:	89 5d bc             	mov    %ebx,-0x44(%ebp)
  406cc2:	89 5d c0             	mov    %ebx,-0x40(%ebp)
  406cc5:	89 5d c4             	mov    %ebx,-0x3c(%ebp)
  406cc8:	89 5d c8             	mov    %ebx,-0x38(%ebp)
  406ccb:	89 5d cc             	mov    %ebx,-0x34(%ebp)
  406cce:	89 75 b0             	mov    %esi,-0x50(%ebp)
  406cd1:	ff 15 90 91 40 00    	call   *0x409190
  406cd7:	8d 85 6c fd ff ff    	lea    -0x294(%ebp),%eax
  406cdd:	50                   	push   %eax
  406cde:	ff 15 50 91 40 00    	call   *0x409150
  406ce4:	8b 35 58 90 40 00    	mov    0x409058,%esi
  406cea:	d1 e0                	shl    %eax
  406cec:	66 89 45 f0          	mov    %ax,-0x10(%ebp)
  406cf0:	83 c4 2c             	add    $0x2c,%esp
  406cf3:	8d 85 6c fd ff ff    	lea    -0x294(%ebp),%eax
  406cf9:	89 45 f4             	mov    %eax,-0xc(%ebp)
  406cfc:	6a 08                	push   $0x8
  406cfe:	8d 45 f0             	lea    -0x10(%ebp),%eax
  406d01:	53                   	push   %ebx
  406d02:	66 c7 45 f2 00 02    	movw   $0x200,-0xe(%ebp)
  406d08:	89 45 d4             	mov    %eax,-0x2c(%ebp)
  406d0b:	ff d6                	call   *%esi
  406d0d:	6a 10                	push   $0x10
  406d0f:	53                   	push   %ebx
  406d10:	8b f8                	mov    %eax,%edi
  406d12:	ff d6                	call   *%esi
  406d14:	6a 08                	push   $0x8
  406d16:	53                   	push   %ebx
  406d17:	57                   	push   %edi
  406d18:	8b f0                	mov    %eax,%esi
  406d1a:	e8 a3 13 00 00       	call   0x4080c2
  406d1f:	6a 10                	push   $0x10
  406d21:	53                   	push   %ebx
  406d22:	56                   	push   %esi
  406d23:	e8 9a 13 00 00       	call   0x4080c2
  406d28:	6a 08                	push   $0x8
  406d2a:	8d 45 e8             	lea    -0x18(%ebp),%eax
  406d2d:	53                   	push   %ebx
  406d2e:	50                   	push   %eax
  406d2f:	e8 8e 13 00 00       	call   0x4080c2
  406d34:	8d 45 e8             	lea    -0x18(%ebp),%eax
  406d37:	89 45 e4             	mov    %eax,-0x1c(%ebp)
  406d3a:	8d 45 dc             	lea    -0x24(%ebp),%eax
  406d3d:	83 c4 24             	add    $0x24,%esp
  406d40:	89 7d dc             	mov    %edi,-0x24(%ebp)
  406d43:	89 75 e0             	mov    %esi,-0x20(%ebp)
  406d46:	89 45 d8             	mov    %eax,-0x28(%ebp)
  406d49:	50                   	push   %eax
  406d4a:	53                   	push   %ebx
  406d4b:	51                   	push   %ecx
  406d4c:	52                   	push   %edx
  406d4d:	56                   	push   %esi
  406d4e:	57                   	push   %edi
  406d4f:	8b 45 fc             	mov    -0x4(%ebp),%eax
  406d52:	6a 00                	push   $0x0
  406d54:	68 80 00 00 00       	push   $0x80
  406d59:	68 5a 02 00 00       	push   $0x25a
  406d5e:	ff 75 d8             	pushl  -0x28(%ebp)
  406d61:	ff 75 d4             	pushl  -0x2c(%ebp)
  406d64:	ff 75 d0             	pushl  -0x30(%ebp)
  406d67:	8b d4                	mov    %esp,%edx
  406d69:	cd 2e                	int    $0x2e
  406d6b:	83 c4 18             	add    $0x18,%esp
  406d6e:	5f                   	pop    %edi
  406d6f:	5e                   	pop    %esi
  406d70:	5a                   	pop    %edx
  406d71:	59                   	pop    %ecx
  406d72:	5b                   	pop    %ebx
  406d73:	58                   	pop    %eax
  406d74:	33 db                	xor    %ebx,%ebx
  406d76:	53                   	push   %ebx
  406d77:	68 e8 97 40 00       	push   $0x4097e8
  406d7c:	ff 15 bc 91 40 00    	call   *0x4091bc
  406d82:	8b 45 08             	mov    0x8(%ebp),%eax
  406d85:	c1 e8 10             	shr    $0x10,%eax
  406d88:	2d 98 00 00 00       	sub    $0x98,%eax
  406d8d:	25 ff ff 00 00       	and    $0xffff,%eax
  406d92:	8b 35 58 90 40 00    	mov    0x409058,%esi
  406d98:	6a 08                	push   $0x8
  406d9a:	53                   	push   %ebx
  406d9b:	89 45 b0             	mov    %eax,-0x50(%ebp)
  406d9e:	ff d6                	call   *%esi
  406da0:	6a 10                	push   $0x10
  406da2:	53                   	push   %ebx
  406da3:	8b f8                	mov    %eax,%edi
  406da5:	ff d6                	call   *%esi
  406da7:	6a 08                	push   $0x8
  406da9:	53                   	push   %ebx
  406daa:	57                   	push   %edi
  406dab:	8b f0                	mov    %eax,%esi
  406dad:	e8 10 13 00 00       	call   0x4080c2
  406db2:	6a 10                	push   $0x10
  406db4:	53                   	push   %ebx
  406db5:	56                   	push   %esi
  406db6:	e8 07 13 00 00       	call   0x4080c2
  406dbb:	8d 85 6c fd ff ff    	lea    -0x294(%ebp),%eax
  406dc1:	68 bc 97 40 00       	push   $0x4097bc
  406dc6:	50                   	push   %eax
  406dc7:	89 7d dc             	mov    %edi,-0x24(%ebp)
  406dca:	89 75 e0             	mov    %esi,-0x20(%ebp)
  406dcd:	ff 15 90 91 40 00    	call   *0x409190
  406dd3:	8d 85 6c fd ff ff    	lea    -0x294(%ebp),%eax
  406dd9:	50                   	push   %eax
  406dda:	ff 15 50 91 40 00    	call   *0x409150
  406de0:	d1 e0                	shl    %eax
  406de2:	83 c4 24             	add    $0x24,%esp
  406de5:	66 89 45 f0          	mov    %ax,-0x10(%ebp)
  406de9:	66 c7 45 f2 00 02    	movw   $0x200,-0xe(%ebp)
  406def:	50                   	push   %eax
  406df0:	53                   	push   %ebx
  406df1:	51                   	push   %ecx
  406df2:	52                   	push   %edx
  406df3:	56                   	push   %esi
  406df4:	57                   	push   %edi
  406df5:	8b 45 fc             	mov    -0x4(%ebp),%eax
  406df8:	6a 00                	push   $0x0
  406dfa:	68 80 00 00 00       	push   $0x80
  406dff:	68 5b 02 00 00       	push   $0x25b
  406e04:	ff 75 d8             	pushl  -0x28(%ebp)
  406e07:	ff 75 d4             	pushl  -0x2c(%ebp)
  406e0a:	ff 75 d0             	pushl  -0x30(%ebp)
  406e0d:	8b d4                	mov    %esp,%edx
  406e0f:	cd 2e                	int    $0x2e
  406e11:	83 c4 18             	add    $0x18,%esp
  406e14:	5f                   	pop    %edi
  406e15:	5e                   	pop    %esi
  406e16:	5a                   	pop    %edx
  406e17:	59                   	pop    %ecx
  406e18:	5b                   	pop    %ebx
  406e19:	58                   	pop    %eax
  406e1a:	6a 00                	push   $0x0
  406e1c:	68 bc 97 40 00       	push   $0x4097bc
  406e21:	ff 15 bc 91 40 00    	call   *0x4091bc
  406e27:	83 4d 08 ff          	orl    $0xffffffff,0x8(%ebp)
  406e2b:	50                   	push   %eax
  406e2c:	53                   	push   %ebx
  406e2d:	51                   	push   %ecx
  406e2e:	52                   	push   %edx
  406e2f:	56                   	push   %esi
  406e30:	57                   	push   %edi
  406e31:	8b 45 f8             	mov    -0x8(%ebp),%eax
  406e34:	6a 00                	push   $0x0
  406e36:	6a 1f                	push   $0x1f
  406e38:	6a 00                	push   $0x0
  406e3a:	6a 00                	push   $0x0
  406e3c:	6a 00                	push   $0x0
  406e3e:	68 00 06 00 00       	push   $0x600
  406e43:	ff 75 0c             	pushl  0xc(%ebp)
  406e46:	8b d4                	mov    %esp,%edx
  406e48:	cd 2e                	int    $0x2e
  406e4a:	83 c4 1c             	add    $0x1c,%esp
  406e4d:	89 45 08             	mov    %eax,0x8(%ebp)
  406e50:	5f                   	pop    %edi
  406e51:	5e                   	pop    %esi
  406e52:	5a                   	pop    %edx
  406e53:	59                   	pop    %ecx
  406e54:	5b                   	pop    %ebx
  406e55:	58                   	pop    %eax
  406e56:	8b 45 08             	mov    0x8(%ebp),%eax
  406e59:	85 c0                	test   %eax,%eax
  406e5b:	75 0c                	jne    0x406e69
  406e5d:	38 45 9c             	cmp    %al,-0x64(%ebp)
  406e60:	75 07                	jne    0x406e69
  406e62:	6a c0                	push   $0xffffffc0
  406e64:	eb 02                	jmp    0x406e68
  406e66:	6a 57                	push   $0x57
  406e68:	58                   	pop    %eax
  406e69:	5f                   	pop    %edi
  406e6a:	5e                   	pop    %esi
  406e6b:	5b                   	pop    %ebx
  406e6c:	c9                   	leave  
  406e6d:	c3                   	ret    
  406e6e:	6a 14                	push   $0x14
  406e70:	68 b0 98 40 00       	push   $0x4098b0
  406e75:	e8 36 14 00 00       	call   0x4082b0
  406e7a:	8b 75 08             	mov    0x8(%ebp),%esi
  406e7d:	83 65 fc 00          	andl   $0x0,-0x4(%ebp)
  406e81:	8b 4e 04             	mov    0x4(%esi),%ecx
  406e84:	89 4d e0             	mov    %ecx,-0x20(%ebp)
  406e87:	33 c0                	xor    %eax,%eax
  406e89:	89 45 e4             	mov    %eax,-0x1c(%ebp)
  406e8c:	83 f8 08             	cmp    $0x8,%eax
  406e8f:	73 0a                	jae    0x406e9b
  406e91:	8a 14 08             	mov    (%eax,%ecx,1),%dl
  406e94:	88 54 30 08          	mov    %dl,0x8(%eax,%esi,1)
  406e98:	40                   	inc    %eax
  406e99:	eb ee                	jmp    0x406e89
  406e9b:	6a 00                	push   $0x0
  406e9d:	6a 08                	push   $0x8
  406e9f:	8d 46 10             	lea    0x10(%esi),%eax
  406ea2:	50                   	push   %eax
  406ea3:	ff 76 04             	pushl  0x4(%esi)
  406ea6:	8d 46 18             	lea    0x18(%esi),%eax
  406ea9:	50                   	push   %eax
  406eaa:	e8 83 0b 00 00       	call   0x407a32
  406eaf:	83 c4 14             	add    $0x14,%esp
  406eb2:	89 45 dc             	mov    %eax,-0x24(%ebp)
  406eb5:	85 c0                	test   %eax,%eax
  406eb7:	75 04                	jne    0x406ebd
  406eb9:	c6 46 48 01          	movb   $0x1,0x48(%esi)
  406ebd:	83 4d fc ff          	orl    $0xffffffff,-0x4(%ebp)
  406ec1:	eb 0e                	jmp    0x406ed1
  406ec3:	33 c0                	xor    %eax,%eax
  406ec5:	40                   	inc    %eax
  406ec6:	c3                   	ret    
  406ec7:	8b 65 e8             	mov    -0x18(%ebp),%esp
  406eca:	83 4d fc ff          	orl    $0xffffffff,-0x4(%ebp)
  406ece:	6a d5                	push   $0xffffffd5
  406ed0:	58                   	pop    %eax
  406ed1:	e8 13 14 00 00       	call   0x4082e9
  406ed6:	c3                   	ret    
  406ed7:	6a 0c                	push   $0xc
  406ed9:	68 c0 98 40 00       	push   $0x4098c0
  406ede:	e8 cd 13 00 00       	call   0x4082b0
  406ee3:	8b f1                	mov    %ecx,%esi
  406ee5:	83 65 fc 00          	andl   $0x0,-0x4(%ebp)
  406ee9:	6a 00                	push   $0x0
  406eeb:	6a 08                	push   $0x8
  406eed:	8d 46 08             	lea    0x8(%esi),%eax
  406ef0:	50                   	push   %eax
  406ef1:	ff 76 04             	pushl  0x4(%esi)
  406ef4:	8d 46 18             	lea    0x18(%esi),%eax
  406ef7:	50                   	push   %eax
  406ef8:	e8 35 0b 00 00       	call   0x407a32
  406efd:	83 c4 14             	add    $0x14,%esp
  406f00:	89 45 e4             	mov    %eax,-0x1c(%ebp)
  406f03:	85 c0                	test   %eax,%eax
  406f05:	74 06                	je     0x406f0d
  406f07:	83 4d fc ff          	orl    $0xffffffff,-0x4(%ebp)
  406f0b:	eb 1a                	jmp    0x406f27
  406f0d:	c6 46 49 01          	movb   $0x1,0x49(%esi)
  406f11:	83 4d fc ff          	orl    $0xffffffff,-0x4(%ebp)
  406f15:	33 c0                	xor    %eax,%eax
  406f17:	eb 0e                	jmp    0x406f27
  406f19:	33 c0                	xor    %eax,%eax
  406f1b:	40                   	inc    %eax
  406f1c:	c3                   	ret    
  406f1d:	8b 65 e8             	mov    -0x18(%ebp),%esp
  406f20:	83 4d fc ff          	orl    $0xffffffff,-0x4(%ebp)
  406f24:	6a d5                	push   $0xffffffd5
  406f26:	58                   	pop    %eax
  406f27:	e8 bd 13 00 00       	call   0x4082e9
  406f2c:	c3                   	ret    
  406f2d:	6a 14                	push   $0x14
  406f2f:	68 d0 98 40 00       	push   $0x4098d0
  406f34:	e8 77 13 00 00       	call   0x4082b0
  406f39:	8b 45 08             	mov    0x8(%ebp),%eax
  406f3c:	83 65 fc 00          	andl   $0x0,-0x4(%ebp)
  406f40:	8b 48 2c             	mov    0x2c(%eax),%ecx
  406f43:	89 4d e0             	mov    %ecx,-0x20(%ebp)
  406f46:	85 c9                	test   %ecx,%ecx
  406f48:	74 26                	je     0x406f70
  406f4a:	c6 45 e7 eb          	movb   $0xeb,-0x19(%ebp)
  406f4e:	6a 00                	push   $0x0
  406f50:	6a 01                	push   $0x1
  406f52:	8d 55 e7             	lea    -0x19(%ebp),%edx
  406f55:	52                   	push   %edx
  406f56:	51                   	push   %ecx
  406f57:	83 c0 18             	add    $0x18,%eax
  406f5a:	50                   	push   %eax
  406f5b:	e8 d2 0a 00 00       	call   0x407a32
  406f60:	83 c4 14             	add    $0x14,%esp
  406f63:	89 45 dc             	mov    %eax,-0x24(%ebp)
  406f66:	85 c0                	test   %eax,%eax
  406f68:	74 06                	je     0x406f70
  406f6a:	83 4d fc ff          	orl    $0xffffffff,-0x4(%ebp)
  406f6e:	eb 16                	jmp    0x406f86
  406f70:	83 4d fc ff          	orl    $0xffffffff,-0x4(%ebp)
  406f74:	33 c0                	xor    %eax,%eax
  406f76:	eb 0e                	jmp    0x406f86
  406f78:	33 c0                	xor    %eax,%eax
  406f7a:	40                   	inc    %eax
  406f7b:	c3                   	ret    
  406f7c:	8b 65 e8             	mov    -0x18(%ebp),%esp
  406f7f:	83 4d fc ff          	orl    $0xffffffff,-0x4(%ebp)
  406f83:	6a d5                	push   $0xffffffd5
  406f85:	58                   	pop    %eax
  406f86:	e8 5e 13 00 00       	call   0x4082e9
  406f8b:	c3                   	ret    
  406f8c:	6a 08                	push   $0x8
  406f8e:	68 e0 98 40 00       	push   $0x4098e0
  406f93:	e8 18 13 00 00       	call   0x4082b0
  406f98:	8b 75 08             	mov    0x8(%ebp),%esi
  406f9b:	83 fe 0a             	cmp    $0xa,%esi
  406f9e:	73 07                	jae    0x406fa7
  406fa0:	b8 61 00 00 c0       	mov    $0xc0000061,%eax
  406fa5:	eb 34                	jmp    0x406fdb
  406fa7:	83 65 fc 00          	andl   $0x0,-0x4(%ebp)
  406fab:	8b ce                	mov    %esi,%ecx
  406fad:	e8 25 ff ff ff       	call   0x406ed7
  406fb2:	56                   	push   %esi
  406fb3:	e8 75 ff ff ff       	call   0x406f2d
  406fb8:	ff 76 44             	pushl  0x44(%esi)
  406fbb:	ff 76 40             	pushl  0x40(%esi)
  406fbe:	8d 46 18             	lea    0x18(%esi),%eax
  406fc1:	50                   	push   %eax
  406fc2:	ff 16                	call   *(%esi)
  406fc4:	83 c4 10             	add    $0x10,%esp
  406fc7:	83 4d fc ff          	orl    $0xffffffff,-0x4(%ebp)
  406fcb:	eb 0e                	jmp    0x406fdb
  406fcd:	33 c0                	xor    %eax,%eax
  406fcf:	40                   	inc    %eax
  406fd0:	c3                   	ret    
  406fd1:	8b 65 e8             	mov    -0x18(%ebp),%esp
  406fd4:	83 4d fc ff          	orl    $0xffffffff,-0x4(%ebp)
  406fd8:	6a d5                	push   $0xffffffd5
  406fda:	58                   	pop    %eax
  406fdb:	e8 09 13 00 00       	call   0x4082e9
  406fe0:	c3                   	ret    
  406fe1:	85 f6                	test   %esi,%esi
  406fe3:	53                   	push   %ebx
  406fe4:	57                   	push   %edi
  406fe5:	74 3b                	je     0x407022
  406fe7:	83 7c 24 0c 00       	cmpl   $0x0,0xc(%esp)
  406fec:	74 34                	je     0x407022
  406fee:	8d 7e 18             	lea    0x18(%esi),%edi
  406ff1:	68 08 98 40 00       	push   $0x409808
  406ff6:	57                   	push   %edi
  406ff7:	e8 75 e3 ff ff       	call   0x405371
  406ffc:	8b d8                	mov    %eax,%ebx
  406ffe:	85 db                	test   %ebx,%ebx
  407000:	59                   	pop    %ecx
  407001:	59                   	pop    %ecx
  407002:	74 1e                	je     0x407022
  407004:	68 6c 97 40 00       	push   $0x40976c
  407009:	57                   	push   %edi
  40700a:	e8 62 e3 ff ff       	call   0x405371
  40700f:	85 c0                	test   %eax,%eax
  407011:	59                   	pop    %ecx
  407012:	59                   	pop    %ecx
  407013:	74 0d                	je     0x407022
  407015:	8b 4c 24 0c          	mov    0xc(%esp),%ecx
  407019:	89 01                	mov    %eax,(%ecx)
  40701b:	89 5e 04             	mov    %ebx,0x4(%esi)
  40701e:	b0 01                	mov    $0x1,%al
  407020:	eb 02                	jmp    0x407024
  407022:	32 c0                	xor    %al,%al
  407024:	5f                   	pop    %edi
  407025:	5b                   	pop    %ebx
  407026:	c3                   	ret    
  407027:	68 dc 02 00 00       	push   $0x2dc
  40702c:	68 f0 98 40 00       	push   $0x4098f0
  407031:	e8 7a 12 00 00       	call   0x4082b0
  407036:	8b 7d 08             	mov    0x8(%ebp),%edi
  407039:	33 db                	xor    %ebx,%ebx
  40703b:	3b fb                	cmp    %ebx,%edi
  40703d:	0f 84 4e 04 00 00    	je     0x407491
  407043:	39 5d 0c             	cmp    %ebx,0xc(%ebp)
  407046:	0f 84 45 04 00 00    	je     0x407491
  40704c:	8b 45 10             	mov    0x10(%ebp),%eax
  40704f:	3b c3                	cmp    %ebx,%eax
  407051:	0f 84 3a 04 00 00    	je     0x407491
  407057:	89 85 1c ff ff ff    	mov    %eax,-0xe4(%ebp)
  40705d:	8b 45 14             	mov    0x14(%ebp),%eax
  407060:	89 85 5c ff ff ff    	mov    %eax,-0xa4(%ebp)
  407066:	8b 45 18             	mov    0x18(%ebp),%eax
  407069:	89 85 60 ff ff ff    	mov    %eax,-0xa0(%ebp)
  40706f:	8d 87 00 02 00 00    	lea    0x200(%edi),%eax
  407075:	89 45 a0             	mov    %eax,-0x60(%ebp)
  407078:	89 85 58 ff ff ff    	mov    %eax,-0xa8(%ebp)
  40707e:	88 9d 64 ff ff ff    	mov    %bl,-0x9c(%ebp)
  407084:	88 9d 65 ff ff ff    	mov    %bl,-0x9b(%ebp)
  40708a:	c6 85 2c ff ff ff ea 	movb   $0xea,-0xd4(%ebp)
  407091:	8a c8                	mov    %al,%cl
  407093:	88 8d 2d ff ff ff    	mov    %cl,-0xd3(%ebp)
  407099:	8b c8                	mov    %eax,%ecx
  40709b:	c1 e9 08             	shr    $0x8,%ecx
  40709e:	88 8d 2e ff ff ff    	mov    %cl,-0xd2(%ebp)
  4070a4:	8b c8                	mov    %eax,%ecx
  4070a6:	c1 e9 10             	shr    $0x10,%ecx
  4070a9:	88 8d 2f ff ff ff    	mov    %cl,-0xd1(%ebp)
  4070af:	c1 e8 18             	shr    $0x18,%eax
  4070b2:	88 85 30 ff ff ff    	mov    %al,-0xd0(%ebp)
  4070b8:	c6 85 31 ff ff ff 08 	movb   $0x8,-0xcf(%ebp)
  4070bf:	88 9d 32 ff ff ff    	mov    %bl,-0xce(%ebp)
  4070c5:	c6 85 33 ff ff ff 90 	movb   $0x90,-0xcd(%ebp)
  4070cc:	68 08 98 40 00       	push   $0x409808
  4070d1:	e8 cc 0b 00 00       	call   0x407ca2
  4070d6:	59                   	pop    %ecx
  4070d7:	89 85 68 ff ff ff    	mov    %eax,-0x98(%ebp)
  4070dd:	3b c3                	cmp    %ebx,%eax
  4070df:	75 07                	jne    0x4070e8
  4070e1:	6a ba                	push   $0xffffffba
  4070e3:	e9 ab 03 00 00       	jmp    0x407493
  4070e8:	8d 45 dc             	lea    -0x24(%ebp),%eax
  4070eb:	50                   	push   %eax
  4070ec:	8d 45 e4             	lea    -0x1c(%ebp),%eax
  4070ef:	50                   	push   %eax
  4070f0:	e8 ea 04 00 00       	call   0x4075df
  4070f5:	59                   	pop    %ecx
  4070f6:	59                   	pop    %ecx
  4070f7:	3b c3                	cmp    %ebx,%eax
  4070f9:	74 07                	je     0x407102
  4070fb:	6a d4                	push   $0xffffffd4
  4070fd:	e9 91 03 00 00       	jmp    0x407493
  407102:	8d 85 34 ff ff ff    	lea    -0xcc(%ebp),%eax
  407108:	50                   	push   %eax
  407109:	e8 7b e6 ff ff       	call   0x405789
  40710e:	59                   	pop    %ecx
  40710f:	84 c0                	test   %al,%al
  407111:	75 07                	jne    0x40711a
  407113:	6a c3                	push   $0xffffffc3
  407115:	e9 79 03 00 00       	jmp    0x407493
  40711a:	83 4d e0 ff          	orl    $0xffffffff,-0x20(%ebp)
  40711e:	89 5d fc             	mov    %ebx,-0x4(%ebp)
  407121:	89 5d b4             	mov    %ebx,-0x4c(%ebp)
  407124:	8d 45 b4             	lea    -0x4c(%ebp),%eax
  407127:	50                   	push   %eax
  407128:	8d b5 1c ff ff ff    	lea    -0xe4(%ebp),%esi
  40712e:	e8 ae fe ff ff       	call   0x406fe1
  407133:	59                   	pop    %ecx
  407134:	84 c0                	test   %al,%al
  407136:	75 0c                	jne    0x407144
  407138:	c7 45 e0 c1 ff ff ff 	movl   $0xffffffc1,-0x20(%ebp)
  40713f:	e9 95 02 00 00       	jmp    0x4073d9
  407144:	6a 0d                	push   $0xd
  407146:	8d 85 1c ff ff ff    	lea    -0xe4(%ebp),%eax
  40714c:	50                   	push   %eax
  40714d:	6a 07                	push   $0x7
  40714f:	68 6e 6e 40 00       	push   $0x406e6e
  407154:	57                   	push   %edi
  407155:	6a 17                	push   $0x17
  407157:	68 d8 b0 40 00       	push   $0x40b0d8
  40715c:	e8 79 e7 ff ff       	call   0x4058da
  407161:	89 bd 14 ff ff ff    	mov    %edi,-0xec(%ebp)
  407167:	8b c7                	mov    %edi,%eax
  407169:	c1 e8 10             	shr    $0x10,%eax
  40716c:	89 45 9c             	mov    %eax,-0x64(%ebp)
  40716f:	c7 85 18 ff ff ff b0 	movl   $0xb0,-0xe8(%ebp)
  407176:	00 00 00 
  407179:	c7 85 6c ff ff ff 30 	movl   $0x30,-0x94(%ebp)
  407180:	00 00 00 
  407183:	89 9d 70 ff ff ff    	mov    %ebx,-0x90(%ebp)
  407189:	89 9d 74 ff ff ff    	mov    %ebx,-0x8c(%ebp)
  40718f:	89 9d 78 ff ff ff    	mov    %ebx,-0x88(%ebp)
  407195:	89 9d 7c ff ff ff    	mov    %ebx,-0x84(%ebp)
  40719b:	89 5d 80             	mov    %ebx,-0x80(%ebp)
  40719e:	89 5d 84             	mov    %ebx,-0x7c(%ebp)
  4071a1:	89 5d 88             	mov    %ebx,-0x78(%ebp)
  4071a4:	89 5d 8c             	mov    %ebx,-0x74(%ebp)
  4071a7:	89 5d 90             	mov    %ebx,-0x70(%ebp)
  4071aa:	89 5d 94             	mov    %ebx,-0x6c(%ebp)
  4071ad:	89 5d 98             	mov    %ebx,-0x68(%ebp)
  4071b0:	8d 85 6c ff ff ff    	lea    -0x94(%ebp),%eax
  4071b6:	89 45 ac             	mov    %eax,-0x54(%ebp)
  4071b9:	8d 87 50 ff ff ff    	lea    -0xb0(%edi),%eax
  4071bf:	25 ff ff 00 00       	and    $0xffff,%eax
  4071c4:	89 85 7c ff ff ff    	mov    %eax,-0x84(%ebp)
  4071ca:	68 e8 97 40 00       	push   $0x4097e8
  4071cf:	8d 85 14 fd ff ff    	lea    -0x2ec(%ebp),%eax
  4071d5:	50                   	push   %eax
  4071d6:	ff 15 90 91 40 00    	call   *0x409190
  4071dc:	8d 85 14 fd ff ff    	lea    -0x2ec(%ebp),%eax
  4071e2:	50                   	push   %eax
  4071e3:	ff 15 50 91 40 00    	call   *0x409150
  4071e9:	83 c4 28             	add    $0x28,%esp
  4071ec:	d1 e0                	shl    %eax
  4071ee:	66 89 45 d0          	mov    %ax,-0x30(%ebp)
  4071f2:	66 c7 45 d2 00 02    	movw   $0x200,-0x2e(%ebp)
  4071f8:	8d 85 14 fd ff ff    	lea    -0x2ec(%ebp),%eax
  4071fe:	89 45 d4             	mov    %eax,-0x2c(%ebp)
  407201:	8d 45 d0             	lea    -0x30(%ebp),%eax
  407204:	89 45 a8             	mov    %eax,-0x58(%ebp)
  407207:	89 5d cc             	mov    %ebx,-0x34(%ebp)
  40720a:	89 5d a4             	mov    %ebx,-0x5c(%ebp)
  40720d:	6a 08                	push   $0x8
  40720f:	53                   	push   %ebx
  407210:	8b 35 58 90 40 00    	mov    0x409058,%esi
  407216:	ff d6                	call   *%esi
  407218:	89 45 cc             	mov    %eax,-0x34(%ebp)
  40721b:	6a 10                	push   $0x10
  40721d:	53                   	push   %ebx
  40721e:	ff d6                	call   *%esi
  407220:	8b f0                	mov    %eax,%esi
  407222:	89 75 a4             	mov    %esi,-0x5c(%ebp)
  407225:	6a 08                	push   $0x8
  407227:	53                   	push   %ebx
  407228:	ff 75 cc             	pushl  -0x34(%ebp)
  40722b:	e8 92 0e 00 00       	call   0x4080c2
  407230:	6a 10                	push   $0x10
  407232:	53                   	push   %ebx
  407233:	56                   	push   %esi
  407234:	e8 89 0e 00 00       	call   0x4080c2
  407239:	6a 08                	push   $0x8
  40723b:	53                   	push   %ebx
  40723c:	8d 45 c4             	lea    -0x3c(%ebp),%eax
  40723f:	50                   	push   %eax
  407240:	e8 7d 0e 00 00       	call   0x4080c2
  407245:	8b 45 cc             	mov    -0x34(%ebp),%eax
  407248:	89 45 b8             	mov    %eax,-0x48(%ebp)
  40724b:	89 75 bc             	mov    %esi,-0x44(%ebp)
  40724e:	8d 45 c4             	lea    -0x3c(%ebp),%eax
  407251:	89 45 c0             	mov    %eax,-0x40(%ebp)
  407254:	8d 45 b8             	lea    -0x48(%ebp),%eax
  407257:	89 45 b0             	mov    %eax,-0x50(%ebp)
  40725a:	81 c7 00 05 00 00    	add    $0x500,%edi
  407260:	89 7d d8             	mov    %edi,-0x28(%ebp)
  407263:	6a 08                	push   $0x8
  407265:	6a 1c                	push   $0x1c
  407267:	57                   	push   %edi
  407268:	6a 0a                	push   $0xa
  40726a:	68 04 b1 40 00       	push   $0x40b104
  40726f:	e8 c9 e6 ff ff       	call   0x40593d
  407274:	83 c4 38             	add    $0x38,%esp
  407277:	50                   	push   %eax
  407278:	53                   	push   %ebx
  407279:	51                   	push   %ecx
  40727a:	52                   	push   %edx
  40727b:	56                   	push   %esi
  40727c:	57                   	push   %edi
  40727d:	6a 00                	push   $0x0
  40727f:	68 80 00 00 00       	push   $0x80
  407284:	68 5a 02 00 00       	push   $0x25a
  407289:	ff 75 b0             	pushl  -0x50(%ebp)
  40728c:	ff 75 a8             	pushl  -0x58(%ebp)
  40728f:	ff 75 a8             	pushl  -0x58(%ebp)
  407292:	ff 75 ac             	pushl  -0x54(%ebp)
  407295:	8b 45 e4             	mov    -0x1c(%ebp),%eax
  407298:	ff 55 d8             	call   *-0x28(%ebp)
  40729b:	5f                   	pop    %edi
  40729c:	5e                   	pop    %esi
  40729d:	5a                   	pop    %edx
  40729e:	59                   	pop    %ecx
  40729f:	5b                   	pop    %ebx
  4072a0:	58                   	pop    %eax
  4072a1:	33 db                	xor    %ebx,%ebx
  4072a3:	53                   	push   %ebx
  4072a4:	68 d8 97 40 00       	push   $0x4097d8
  4072a9:	ff 15 c0 91 40 00    	call   *0x4091c0
  4072af:	8b 45 9c             	mov    -0x64(%ebp),%eax
  4072b2:	05 50 ff ff ff       	add    $0xffffff50,%eax
  4072b7:	25 ff ff 00 00       	and    $0xffff,%eax
  4072bc:	89 85 7c ff ff ff    	mov    %eax,-0x84(%ebp)
  4072c2:	6a 08                	push   $0x8
  4072c4:	53                   	push   %ebx
  4072c5:	8b 35 58 90 40 00    	mov    0x409058,%esi
  4072cb:	ff d6                	call   *%esi
  4072cd:	8b f8                	mov    %eax,%edi
  4072cf:	89 7d cc             	mov    %edi,-0x34(%ebp)
  4072d2:	6a 10                	push   $0x10
  4072d4:	53                   	push   %ebx
  4072d5:	ff d6                	call   *%esi
  4072d7:	8b f0                	mov    %eax,%esi
  4072d9:	89 75 a4             	mov    %esi,-0x5c(%ebp)
  4072dc:	6a 08                	push   $0x8
  4072de:	53                   	push   %ebx
  4072df:	57                   	push   %edi
  4072e0:	e8 dd 0d 00 00       	call   0x4080c2
  4072e5:	6a 10                	push   $0x10
  4072e7:	53                   	push   %ebx
  4072e8:	56                   	push   %esi
  4072e9:	e8 d4 0d 00 00       	call   0x4080c2
  4072ee:	89 7d b8             	mov    %edi,-0x48(%ebp)
  4072f1:	89 75 bc             	mov    %esi,-0x44(%ebp)
  4072f4:	68 bc 97 40 00       	push   $0x4097bc
  4072f9:	8d 85 14 fd ff ff    	lea    -0x2ec(%ebp),%eax
  4072ff:	50                   	push   %eax
  407300:	ff 15 90 91 40 00    	call   *0x409190
  407306:	8d 85 14 fd ff ff    	lea    -0x2ec(%ebp),%eax
  40730c:	50                   	push   %eax
  40730d:	ff 15 50 91 40 00    	call   *0x409150
  407313:	d1 e0                	shl    %eax
  407315:	66 89 45 d0          	mov    %ax,-0x30(%ebp)
  407319:	66 c7 45 d2 00 02    	movw   $0x200,-0x2e(%ebp)
  40731f:	6a 08                	push   $0x8
  407321:	6a 1c                	push   $0x1c
  407323:	ff 75 d8             	pushl  -0x28(%ebp)
  407326:	6a 0a                	push   $0xa
  407328:	68 04 b1 40 00       	push   $0x40b104
  40732d:	e8 0b e6 ff ff       	call   0x40593d
  407332:	83 c4 38             	add    $0x38,%esp
  407335:	50                   	push   %eax
  407336:	53                   	push   %ebx
  407337:	51                   	push   %ecx
  407338:	52                   	push   %edx
  407339:	56                   	push   %esi
  40733a:	57                   	push   %edi
  40733b:	6a 00                	push   $0x0
  40733d:	68 80 00 00 00       	push   $0x80
  407342:	68 5b 02 00 00       	push   $0x25b
  407347:	ff 75 b0             	pushl  -0x50(%ebp)
  40734a:	ff 75 a8             	pushl  -0x58(%ebp)
  40734d:	ff 75 a8             	pushl  -0x58(%ebp)
  407350:	ff 75 ac             	pushl  -0x54(%ebp)
  407353:	8b 45 e4             	mov    -0x1c(%ebp),%eax
  407356:	ff 55 d8             	call   *-0x28(%ebp)
  407359:	5f                   	pop    %edi
  40735a:	5e                   	pop    %esi
  40735b:	5a                   	pop    %edx
  40735c:	59                   	pop    %ecx
  40735d:	5b                   	pop    %ebx
  40735e:	58                   	pop    %eax
  40735f:	6a 00                	push   $0x0
  407361:	68 ac 97 40 00       	push   $0x4097ac
  407366:	ff 15 c0 91 40 00    	call   *0x4091c0
  40736c:	6a 08                	push   $0x8
  40736e:	6a 1c                	push   $0x1c
  407370:	ff 75 d8             	pushl  -0x28(%ebp)
  407373:	6a 0a                	push   $0xa
  407375:	68 04 b1 40 00       	push   $0x40b104
  40737a:	e8 be e5 ff ff       	call   0x40593d
  40737f:	ff 75 b4             	pushl  -0x4c(%ebp)
  407382:	e8 f9 07 00 00       	call   0x407b80
  407387:	83 c4 18             	add    $0x18,%esp
  40738a:	84 c0                	test   %al,%al
  40738c:	0f 84 99 00 00 00    	je     0x40742b
  407392:	50                   	push   %eax
  407393:	53                   	push   %ebx
  407394:	51                   	push   %ecx
  407395:	52                   	push   %edx
  407396:	56                   	push   %esi
  407397:	57                   	push   %edi
  407398:	6a 00                	push   $0x0
  40739a:	6a 01                	push   $0x1
  40739c:	6a 00                	push   $0x0
  40739e:	6a 00                	push   $0x0
  4073a0:	6a 00                	push   $0x0
  4073a2:	68 00 06 00 00       	push   $0x600
  4073a7:	ff 75 0c             	pushl  0xc(%ebp)
  4073aa:	8b 45 dc             	mov    -0x24(%ebp),%eax
  4073ad:	ff 55 d8             	call   *-0x28(%ebp)
  4073b0:	89 45 e0             	mov    %eax,-0x20(%ebp)
  4073b3:	5f                   	pop    %edi
  4073b4:	5e                   	pop    %esi
  4073b5:	5a                   	pop    %edx
  4073b6:	59                   	pop    %ecx
  4073b7:	5b                   	pop    %ebx
  4073b8:	58                   	pop    %eax
  4073b9:	6a 00                	push   $0x0
  4073bb:	e8 c0 07 00 00       	call   0x407b80
  4073c0:	59                   	pop    %ecx
  4073c1:	83 7d e0 00          	cmpl   $0x0,-0x20(%ebp)
  4073c5:	75 10                	jne    0x4073d7
  4073c7:	80 bd 64 ff ff ff 00 	cmpb   $0x0,-0x9c(%ebp)
  4073ce:	75 1a                	jne    0x4073ea
  4073d0:	c7 45 e0 c0 ff ff ff 	movl   $0xffffffc0,-0x20(%ebp)
  4073d7:	33 db                	xor    %ebx,%ebx
  4073d9:	83 4d fc ff          	orl    $0xffffffff,-0x4(%ebp)
  4073dd:	e8 94 00 00 00       	call   0x407476
  4073e2:	8b 45 e0             	mov    -0x20(%ebp),%eax
  4073e5:	e9 aa 00 00 00       	jmp    0x407494
  4073ea:	6a 07                	push   $0x7
  4073ec:	8d 85 1c ff ff ff    	lea    -0xe4(%ebp),%eax
  4073f2:	50                   	push   %eax
  4073f3:	6a 01                	push   $0x1
  4073f5:	68 8c 6f 40 00       	push   $0x406f8c
  4073fa:	ff 75 a0             	pushl  -0x60(%ebp)
  4073fd:	6a 11                	push   $0x11
  4073ff:	68 f0 b0 40 00       	push   $0x40b0f0
  407404:	e8 d1 e4 ff ff       	call   0x4058da
  407409:	6a 08                	push   $0x8
  40740b:	6a 04                	push   $0x4
  40740d:	ff 75 d8             	pushl  -0x28(%ebp)
  407410:	6a 0a                	push   $0xa
  407412:	68 04 b1 40 00       	push   $0x40b104
  407417:	e8 21 e5 ff ff       	call   0x40593d
  40741c:	ff 75 b4             	pushl  -0x4c(%ebp)
  40741f:	e8 5c 07 00 00       	call   0x407b80
  407424:	83 c4 34             	add    $0x34,%esp
  407427:	84 c0                	test   %al,%al
  407429:	75 09                	jne    0x407434
  40742b:	c7 45 e0 c3 ff ff ff 	movl   $0xffffffc3,-0x20(%ebp)
  407432:	eb a3                	jmp    0x4073d7
  407434:	83 4d e0 ff          	orl    $0xffffffff,-0x20(%ebp)
  407438:	50                   	push   %eax
  407439:	53                   	push   %ebx
  40743a:	51                   	push   %ecx
  40743b:	52                   	push   %edx
  40743c:	56                   	push   %esi
  40743d:	57                   	push   %edi
  40743e:	6a 64                	push   $0x64
  407440:	8b 85 68 ff ff ff    	mov    -0x98(%ebp),%eax
  407446:	ff 55 d8             	call   *-0x28(%ebp)
  407449:	89 45 e0             	mov    %eax,-0x20(%ebp)
  40744c:	5f                   	pop    %edi
  40744d:	5e                   	pop    %esi
  40744e:	5a                   	pop    %edx
  40744f:	59                   	pop    %ecx
  407450:	5b                   	pop    %ebx
  407451:	58                   	pop    %eax
  407452:	6a 00                	push   $0x0
  407454:	e8 27 07 00 00       	call   0x407b80
  407459:	59                   	pop    %ecx
  40745a:	33 db                	xor    %ebx,%ebx
  40745c:	38 9d 65 ff ff ff    	cmp    %bl,-0x9b(%ebp)
  407462:	0f 85 71 ff ff ff    	jne    0x4073d9
  407468:	c7 45 e0 c0 ff ff ff 	movl   $0xffffffc0,-0x20(%ebp)
  40746f:	e9 65 ff ff ff       	jmp    0x4073d9
  407474:	33 db                	xor    %ebx,%ebx
  407476:	39 9d 34 ff ff ff    	cmp    %ebx,-0xcc(%ebp)
  40747c:	74 12                	je     0x407490
  40747e:	ff b5 34 ff ff ff    	pushl  -0xcc(%ebp)
  407484:	ff 15 18 91 40 00    	call   *0x409118
  40748a:	89 9d 34 ff ff ff    	mov    %ebx,-0xcc(%ebp)
  407490:	c3                   	ret    
  407491:	6a 57                	push   $0x57
  407493:	58                   	pop    %eax
  407494:	e8 50 0e 00 00       	call   0x4082e9
  407499:	c3                   	ret    
  40749a:	6a 1c                	push   $0x1c
  40749c:	68 08 a1 40 00       	push   $0x40a108
  4074a1:	e8 0a 0e 00 00       	call   0x4082b0
  4074a6:	68 ec a0 40 00       	push   $0x40a0ec
  4074ab:	ff 15 d4 90 40 00    	call   *0x4090d4
  4074b1:	89 45 dc             	mov    %eax,-0x24(%ebp)
  4074b4:	33 db                	xor    %ebx,%ebx
  4074b6:	3b c3                	cmp    %ebx,%eax
  4074b8:	74 75                	je     0x40752f
  4074ba:	89 5d fc             	mov    %ebx,-0x4(%ebp)
  4074bd:	ff 75 08             	pushl  0x8(%ebp)
  4074c0:	50                   	push   %eax
  4074c1:	ff 15 0c 91 40 00    	call   *0x40910c
  4074c7:	89 45 e0             	mov    %eax,-0x20(%ebp)
  4074ca:	3b c3                	cmp    %ebx,%eax
  4074cc:	75 04                	jne    0x4074d2
  4074ce:	33 f6                	xor    %esi,%esi
  4074d0:	eb 2a                	jmp    0x4074fc
  4074d2:	c7 45 fc 01 00 00 00 	movl   $0x1,-0x4(%ebp)
  4074d9:	89 5d e4             	mov    %ebx,-0x1c(%ebp)
  4074dc:	83 7d e4 0a          	cmpl   $0xa,-0x1c(%ebp)
  4074e0:	7d 34                	jge    0x407516
  4074e2:	80 38 b8             	cmpb   $0xb8,(%eax)
  4074e5:	75 26                	jne    0x40750d
  4074e7:	38 58 03             	cmp    %bl,0x3(%eax)
  4074ea:	75 21                	jne    0x40750d
  4074ec:	38 58 04             	cmp    %bl,0x4(%eax)
  4074ef:	75 1c                	jne    0x40750d
  4074f1:	40                   	inc    %eax
  4074f2:	89 45 d8             	mov    %eax,-0x28(%ebp)
  4074f5:	8b 00                	mov    (%eax),%eax
  4074f7:	89 45 d4             	mov    %eax,-0x2c(%ebp)
  4074fa:	8b f0                	mov    %eax,%esi
  4074fc:	6a ff                	push   $0xffffffff
  4074fe:	8d 45 f0             	lea    -0x10(%ebp),%eax
  407501:	50                   	push   %eax
  407502:	e8 f3 0d 00 00       	call   0x4082fa
  407507:	59                   	pop    %ecx
  407508:	59                   	pop    %ecx
  407509:	8b c6                	mov    %esi,%eax
  40750b:	eb 24                	jmp    0x407531
  40750d:	40                   	inc    %eax
  40750e:	89 45 e0             	mov    %eax,-0x20(%ebp)
  407511:	ff 45 e4             	incl   -0x1c(%ebp)
  407514:	eb c6                	jmp    0x4074dc
  407516:	89 5d fc             	mov    %ebx,-0x4(%ebp)
  407519:	eb 0b                	jmp    0x407526
  40751b:	33 c0                	xor    %eax,%eax
  40751d:	40                   	inc    %eax
  40751e:	c3                   	ret    
  40751f:	8b 65 e8             	mov    -0x18(%ebp),%esp
  407522:	83 65 fc 00          	andl   $0x0,-0x4(%ebp)
  407526:	83 4d fc ff          	orl    $0xffffffff,-0x4(%ebp)
  40752a:	e8 08 00 00 00       	call   0x407537
  40752f:	33 c0                	xor    %eax,%eax
  407531:	e8 b3 0d 00 00       	call   0x4082e9
  407536:	c3                   	ret    
  407537:	ff 75 dc             	pushl  -0x24(%ebp)
  40753a:	ff 15 18 91 40 00    	call   *0x409118
  407540:	c3                   	ret    
  407541:	55                   	push   %ebp
  407542:	8b ec                	mov    %esp,%ebp
  407544:	83 ec 10             	sub    $0x10,%esp
  407547:	53                   	push   %ebx
  407548:	57                   	push   %edi
  407549:	33 db                	xor    %ebx,%ebx
  40754b:	8d 3c 86             	lea    (%esi,%eax,4),%edi
  40754e:	3b f7                	cmp    %edi,%esi
  407550:	89 5d f8             	mov    %ebx,-0x8(%ebp)
  407553:	89 5d f4             	mov    %ebx,-0xc(%ebp)
  407556:	89 75 fc             	mov    %esi,-0x4(%ebp)
  407559:	73 52                	jae    0x4075ad
  40755b:	6a 04                	push   $0x4
  40755d:	8d 45 f0             	lea    -0x10(%ebp),%eax
  407560:	50                   	push   %eax
  407561:	ff 75 fc             	pushl  -0x4(%ebp)
  407564:	ff 75 08             	pushl  0x8(%ebp)
  407567:	e8 a2 09 00 00       	call   0x407f0e
  40756c:	83 c4 10             	add    $0x10,%esp
  40756f:	84 c0                	test   %al,%al
  407571:	74 46                	je     0x4075b9
  407573:	ff 75 10             	pushl  0x10(%ebp)
  407576:	8b 45 f0             	mov    -0x10(%ebp),%eax
  407579:	2b 45 14             	sub    0x14(%ebp),%eax
  40757c:	ff 75 0c             	pushl  0xc(%ebp)
  40757f:	50                   	push   %eax
  407580:	ff 75 08             	pushl  0x8(%ebp)
  407583:	e8 e6 0a 00 00       	call   0x40806e
  407588:	83 c4 10             	add    $0x10,%esp
  40758b:	3b c3                	cmp    %ebx,%eax
  40758d:	7c 0d                	jl     0x40759c
  40758f:	89 5d f8             	mov    %ebx,-0x8(%ebp)
  407592:	8b d8                	mov    %eax,%ebx
  407594:	8b 45 fc             	mov    -0x4(%ebp),%eax
  407597:	89 45 f4             	mov    %eax,-0xc(%ebp)
  40759a:	eb 08                	jmp    0x4075a4
  40759c:	3b 45 f8             	cmp    -0x8(%ebp),%eax
  40759f:	7c 03                	jl     0x4075a4
  4075a1:	89 45 f8             	mov    %eax,-0x8(%ebp)
  4075a4:	83 45 fc 04          	addl   $0x4,-0x4(%ebp)
  4075a8:	39 7d fc             	cmp    %edi,-0x4(%ebp)
  4075ab:	72 ae                	jb     0x40755b
  4075ad:	8b 45 f4             	mov    -0xc(%ebp),%eax
  4075b0:	2b c6                	sub    %esi,%eax
  4075b2:	c1 e8 02             	shr    $0x2,%eax
  4075b5:	5f                   	pop    %edi
  4075b6:	5b                   	pop    %ebx
  4075b7:	c9                   	leave  
  4075b8:	c3                   	ret    
  4075b9:	6a fc                	push   $0xfffffffc
  4075bb:	58                   	pop    %eax
  4075bc:	eb f7                	jmp    0x4075b5
  4075be:	6a 04                	push   $0x4
  4075c0:	ff 74 24 0c          	pushl  0xc(%esp)
  4075c4:	8d 04 81             	lea    (%ecx,%eax,4),%eax
  4075c7:	50                   	push   %eax
  4075c8:	ff 74 24 10          	pushl  0x10(%esp)
  4075cc:	e8 3d 09 00 00       	call   0x407f0e
  4075d1:	83 c4 10             	add    $0x10,%esp
  4075d4:	f6 d8                	neg    %al
  4075d6:	1b c0                	sbb    %eax,%eax
  4075d8:	83 e0 04             	and    $0x4,%eax
  4075db:	83 c0 fc             	add    $0xfffffffc,%eax
  4075de:	c3                   	ret    
  4075df:	56                   	push   %esi
  4075e0:	68 30 a1 40 00       	push   $0x40a130
  4075e5:	e8 b0 fe ff ff       	call   0x40749a
  4075ea:	8b f0                	mov    %eax,%esi
  4075ec:	c7 04 24 20 a1 40 00 	movl   $0x40a120,(%esp)
  4075f3:	e8 a2 fe ff ff       	call   0x40749a
  4075f8:	85 f6                	test   %esi,%esi
  4075fa:	59                   	pop    %ecx
  4075fb:	74 16                	je     0x407613
  4075fd:	85 c0                	test   %eax,%eax
  4075ff:	74 12                	je     0x407613
  407601:	8b 4c 24 08          	mov    0x8(%esp),%ecx
  407605:	40                   	inc    %eax
  407606:	89 01                	mov    %eax,(%ecx)
  407608:	8b 44 24 0c          	mov    0xc(%esp),%eax
  40760c:	46                   	inc    %esi
  40760d:	89 30                	mov    %esi,(%eax)
  40760f:	33 c0                	xor    %eax,%eax
  407611:	5e                   	pop    %esi
  407612:	c3                   	ret    
  407613:	6a d4                	push   $0xffffffd4
  407615:	58                   	pop    %eax
  407616:	5e                   	pop    %esi
  407617:	c3                   	ret    
  407618:	55                   	push   %ebp
  407619:	8b ec                	mov    %esp,%ebp
  40761b:	51                   	push   %ecx
  40761c:	56                   	push   %esi
  40761d:	ff 75 18             	pushl  0x18(%ebp)
  407620:	8b f1                	mov    %ecx,%esi
  407622:	ff 75 14             	pushl  0x14(%ebp)
  407625:	ff 75 10             	pushl  0x10(%ebp)
  407628:	ff 75 08             	pushl  0x8(%ebp)
  40762b:	e8 11 ff ff ff       	call   0x407541
  407630:	83 c4 10             	add    $0x10,%esp
  407633:	85 ff                	test   %edi,%edi
  407635:	89 07                	mov    %eax,(%edi)
  407637:	7d 04                	jge    0x40763d
  407639:	8b c7                	mov    %edi,%eax
  40763b:	eb 3a                	jmp    0x407677
  40763d:	8d 4d fc             	lea    -0x4(%ebp),%ecx
  407640:	51                   	push   %ecx
  407641:	ff 75 08             	pushl  0x8(%ebp)
  407644:	8b ce                	mov    %esi,%ecx
  407646:	e8 73 ff ff ff       	call   0x4075be
  40764b:	85 c0                	test   %eax,%eax
  40764d:	59                   	pop    %ecx
  40764e:	59                   	pop    %ecx
  40764f:	75 26                	jne    0x407677
  407651:	ff 75 14             	pushl  0x14(%ebp)
  407654:	8b 45 fc             	mov    -0x4(%ebp),%eax
  407657:	2b 45 18             	sub    0x18(%ebp),%eax
  40765a:	ff 75 10             	pushl  0x10(%ebp)
  40765d:	50                   	push   %eax
  40765e:	ff 75 08             	pushl  0x8(%ebp)
  407661:	e8 08 0a 00 00       	call   0x40806e
  407666:	6b c0 64             	imul   $0x64,%eax,%eax
  407669:	99                   	cltd   
  40766a:	f7 7d 14             	idivl  0x14(%ebp)
  40766d:	83 c4 10             	add    $0x10,%esp
  407670:	3b 45 0c             	cmp    0xc(%ebp),%eax
  407673:	7c 02                	jl     0x407677
  407675:	33 c0                	xor    %eax,%eax
  407677:	5e                   	pop    %esi
  407678:	c9                   	leave  
  407679:	c3                   	ret    
  40767a:	55                   	push   %ebp
  40767b:	8b ec                	mov    %esp,%ebp
  40767d:	8b 0e                	mov    (%esi),%ecx
  40767f:	53                   	push   %ebx
  407680:	57                   	push   %edi
  407681:	ff 75 0c             	pushl  0xc(%ebp)
  407684:	8b f8                	mov    %eax,%edi
  407686:	68 a4 01 00 00       	push   $0x1a4
  40768b:	68 00 99 40 00       	push   $0x409900
  407690:	6a 5c                	push   $0x5c
  407692:	ff 75 08             	pushl  0x8(%ebp)
  407695:	bb 00 01 00 00       	mov    $0x100,%ebx
  40769a:	8b c3                	mov    %ebx,%eax
  40769c:	e8 77 ff ff ff       	call   0x407618
  4076a1:	83 c4 14             	add    $0x14,%esp
  4076a4:	85 c0                	test   %eax,%eax
  4076a6:	0f 8c f8 00 00 00    	jl     0x4077a4
  4076ac:	74 57                	je     0x407705
  4076ae:	ff 75 0c             	pushl  0xc(%ebp)
  4076b1:	8b 0e                	mov    (%esi),%ecx
  4076b3:	68 a1 01 00 00       	push   $0x1a1
  4076b8:	68 a8 9a 40 00       	push   $0x409aa8
  4076bd:	6a 5c                	push   $0x5c
  4076bf:	ff 75 08             	pushl  0x8(%ebp)
  4076c2:	8b c3                	mov    %ebx,%eax
  4076c4:	e8 4f ff ff ff       	call   0x407618
  4076c9:	83 c4 14             	add    $0x14,%esp
  4076cc:	85 c0                	test   %eax,%eax
  4076ce:	0f 8c d0 00 00 00    	jl     0x4077a4
  4076d4:	74 2f                	je     0x407705
  4076d6:	ff 75 0c             	pushl  0xc(%ebp)
  4076d9:	8b 0e                	mov    (%esi),%ecx
  4076db:	68 1a 01 00 00       	push   $0x11a
  4076e0:	68 50 9c 40 00       	push   $0x409c50
  4076e5:	6a 5c                	push   $0x5c
  4076e7:	ff 75 08             	pushl  0x8(%ebp)
  4076ea:	8b c3                	mov    %ebx,%eax
  4076ec:	e8 27 ff ff ff       	call   0x407618
  4076f1:	83 c4 14             	add    $0x14,%esp
  4076f4:	85 c0                	test   %eax,%eax
  4076f6:	0f 8c a8 00 00 00    	jl     0x4077a4
  4076fc:	74 07                	je     0x407705
  4076fe:	6a f3                	push   $0xfffffff3
  407700:	e9 9a 00 00 00       	jmp    0x40779f
  407705:	ff 75 0c             	pushl  0xc(%ebp)
  407708:	8b 0e                	mov    (%esi),%ecx
  40770a:	8b 7d 10             	mov    0x10(%ebp),%edi
  40770d:	68 d9 00 00 00       	push   $0xd9
  407712:	68 70 9d 40 00       	push   $0x409d70
  407717:	6a 50                	push   $0x50
  407719:	ff 75 08             	pushl  0x8(%ebp)
  40771c:	bb 2c 01 00 00       	mov    $0x12c,%ebx
  407721:	8b c3                	mov    %ebx,%eax
  407723:	e8 f0 fe ff ff       	call   0x407618
  407728:	83 c4 14             	add    $0x14,%esp
  40772b:	85 c0                	test   %eax,%eax
  40772d:	7c 75                	jl     0x4077a4
  40772f:	74 71                	je     0x4077a2
  407731:	ff 75 0c             	pushl  0xc(%ebp)
  407734:	8b 0e                	mov    (%esi),%ecx
  407736:	68 eb 00 00 00       	push   $0xeb
  40773b:	68 50 9e 40 00       	push   $0x409e50
  407740:	6a 50                	push   $0x50
  407742:	ff 75 08             	pushl  0x8(%ebp)
  407745:	8b c3                	mov    %ebx,%eax
  407747:	e8 cc fe ff ff       	call   0x407618
  40774c:	83 c4 14             	add    $0x14,%esp
  40774f:	85 c0                	test   %eax,%eax
  407751:	7c 51                	jl     0x4077a4
  407753:	74 4d                	je     0x4077a2
  407755:	ff 75 0c             	pushl  0xc(%ebp)
  407758:	8b 0e                	mov    (%esi),%ecx
  40775a:	68 d4 00 00 00       	push   $0xd4
  40775f:	68 40 9f 40 00       	push   $0x409f40
  407764:	6a 50                	push   $0x50
  407766:	ff 75 08             	pushl  0x8(%ebp)
  407769:	8b c3                	mov    %ebx,%eax
  40776b:	e8 a8 fe ff ff       	call   0x407618
  407770:	83 c4 14             	add    $0x14,%esp
  407773:	85 c0                	test   %eax,%eax
  407775:	7c 2d                	jl     0x4077a4
  407777:	74 29                	je     0x4077a2
  407779:	ff 75 0c             	pushl  0xc(%ebp)
  40777c:	8b 0e                	mov    (%esi),%ecx
  40777e:	68 d4 00 00 00       	push   $0xd4
  407783:	68 18 a0 40 00       	push   $0x40a018
  407788:	6a 50                	push   $0x50
  40778a:	ff 75 08             	pushl  0x8(%ebp)
  40778d:	8b c3                	mov    %ebx,%eax
  40778f:	e8 84 fe ff ff       	call   0x407618
  407794:	83 c4 14             	add    $0x14,%esp
  407797:	85 c0                	test   %eax,%eax
  407799:	7c 09                	jl     0x4077a4
  40779b:	74 05                	je     0x4077a2
  40779d:	6a f2                	push   $0xfffffff2
  40779f:	58                   	pop    %eax
  4077a0:	eb 02                	jmp    0x4077a4
  4077a2:	33 c0                	xor    %eax,%eax
  4077a4:	5f                   	pop    %edi
  4077a5:	5b                   	pop    %ebx
  4077a6:	5d                   	pop    %ebp
  4077a7:	c3                   	ret    
  4077a8:	6a 2c                	push   $0x2c
  4077aa:	68 48 a1 40 00       	push   $0x40a148
  4077af:	e8 fc 0a 00 00       	call   0x4082b0
  4077b4:	8b f9                	mov    %ecx,%edi
  4077b6:	8b f2                	mov    %edx,%esi
  4077b8:	33 db                	xor    %ebx,%ebx
  4077ba:	89 5d e4             	mov    %ebx,-0x1c(%ebp)
  4077bd:	6a 10                	push   $0x10
  4077bf:	53                   	push   %ebx
  4077c0:	8d 45 c4             	lea    -0x3c(%ebp),%eax
  4077c3:	50                   	push   %eax
  4077c4:	e8 f9 08 00 00       	call   0x4080c2
  4077c9:	8d 45 c4             	lea    -0x3c(%ebp),%eax
  4077cc:	50                   	push   %eax
  4077cd:	ff 75 08             	pushl  0x8(%ebp)
  4077d0:	e8 fe 05 00 00       	call   0x407dd3
  4077d5:	83 c4 14             	add    $0x14,%esp
  4077d8:	84 c0                	test   %al,%al
  4077da:	75 08                	jne    0x4077e4
  4077dc:	6a d2                	push   $0xffffffd2
  4077de:	58                   	pop    %eax
  4077df:	e9 8b 00 00 00       	jmp    0x40786f
  4077e4:	89 5d fc             	mov    %ebx,-0x4(%ebp)
  4077e7:	ff 15 a0 90 40 00    	call   *0x4090a0
  4077ed:	89 45 e0             	mov    %eax,-0x20(%ebp)
  4077f0:	0f b6 c0             	movzbl %al,%eax
  4077f3:	89 45 dc             	mov    %eax,-0x24(%ebp)
  4077f6:	0f b6 4d e1          	movzbl -0x1f(%ebp),%ecx
  4077fa:	89 4d d8             	mov    %ecx,-0x28(%ebp)
  4077fd:	83 f8 04             	cmp    $0x4,%eax
  407800:	77 19                	ja     0x40781b
  407802:	ff 75 10             	pushl  0x10(%ebp)
  407805:	ff 75 0c             	pushl  0xc(%ebp)
  407808:	8d 45 c4             	lea    -0x3c(%ebp),%eax
  40780b:	50                   	push   %eax
  40780c:	8b c7                	mov    %edi,%eax
  40780e:	e8 67 fe ff ff       	call   0x40767a
  407813:	83 c4 0c             	add    $0xc,%esp
  407816:	89 45 e4             	mov    %eax,-0x1c(%ebp)
  407819:	eb 07                	jmp    0x407822
  40781b:	c7 45 e4 be ff ff ff 	movl   $0xffffffbe,-0x1c(%ebp)
  407822:	39 5d e4             	cmp    %ebx,-0x1c(%ebp)
  407825:	75 5b                	jne    0x407882
  407827:	8b 3f                	mov    (%edi),%edi
  407829:	89 7d d4             	mov    %edi,-0x2c(%ebp)
  40782c:	ff 75 18             	pushl  0x18(%ebp)
  40782f:	8d 45 c4             	lea    -0x3c(%ebp),%eax
  407832:	50                   	push   %eax
  407833:	8b c7                	mov    %edi,%eax
  407835:	8b 0e                	mov    (%esi),%ecx
  407837:	e8 82 fd ff ff       	call   0x4075be
  40783c:	59                   	pop    %ecx
  40783d:	59                   	pop    %ecx
  40783e:	89 45 e4             	mov    %eax,-0x1c(%ebp)
  407841:	3b c3                	cmp    %ebx,%eax
  407843:	75 1a                	jne    0x40785f
  407845:	ff 75 1c             	pushl  0x1c(%ebp)
  407848:	8d 47 01             	lea    0x1(%edi),%eax
  40784b:	8d 4d c4             	lea    -0x3c(%ebp),%ecx
  40784e:	51                   	push   %ecx
  40784f:	8b 0e                	mov    (%esi),%ecx
  407851:	e8 68 fd ff ff       	call   0x4075be
  407856:	59                   	pop    %ecx
  407857:	59                   	pop    %ecx
  407858:	89 45 e4             	mov    %eax,-0x1c(%ebp)
  40785b:	3b c3                	cmp    %ebx,%eax
  40785d:	74 16                	je     0x407875
  40785f:	6a ff                	push   $0xffffffff
  407861:	8d 45 f0             	lea    -0x10(%ebp),%eax
  407864:	50                   	push   %eax
  407865:	e8 90 0a 00 00       	call   0x4082fa
  40786a:	59                   	pop    %ecx
  40786b:	59                   	pop    %ecx
  40786c:	8b 45 e4             	mov    -0x1c(%ebp),%eax
  40786f:	e8 75 0a 00 00       	call   0x4082e9
  407874:	c3                   	ret    
  407875:	8b 06                	mov    (%esi),%eax
  407877:	8d 04 b8             	lea    (%eax,%edi,4),%eax
  40787a:	03 45 0c             	add    0xc(%ebp),%eax
  40787d:	8b 4d 14             	mov    0x14(%ebp),%ecx
  407880:	89 01                	mov    %eax,(%ecx)
  407882:	83 4d fc ff          	orl    $0xffffffff,-0x4(%ebp)
  407886:	e8 02 00 00 00       	call   0x40788d
  40788b:	eb df                	jmp    0x40786c
  40788d:	8d 45 c4             	lea    -0x3c(%ebp),%eax
  407890:	50                   	push   %eax
  407891:	e8 a0 05 00 00       	call   0x407e36
  407896:	59                   	pop    %ecx
  407897:	c3                   	ret    
  407898:	55                   	push   %ebp
  407899:	8b ec                	mov    %esp,%ebp
  40789b:	83 ec 1c             	sub    $0x1c,%esp
  40789e:	53                   	push   %ebx
  40789f:	56                   	push   %esi
  4078a0:	57                   	push   %edi
  4078a1:	8b f0                	mov    %eax,%esi
  4078a3:	8d 45 f4             	lea    -0xc(%ebp),%eax
  4078a6:	50                   	push   %eax
  4078a7:	8d 45 f8             	lea    -0x8(%ebp),%eax
  4078aa:	50                   	push   %eax
  4078ab:	ff 75 08             	pushl  0x8(%ebp)
  4078ae:	33 ff                	xor    %edi,%edi
  4078b0:	89 7d f8             	mov    %edi,-0x8(%ebp)
  4078b3:	89 7d f4             	mov    %edi,-0xc(%ebp)
  4078b6:	e8 dd 06 00 00       	call   0x407f98
  4078bb:	83 c4 0c             	add    $0xc,%esp
  4078be:	3b c7                	cmp    %edi,%eax
  4078c0:	89 45 e8             	mov    %eax,-0x18(%ebp)
  4078c3:	0f 85 00 01 00 00    	jne    0x4079c9
  4078c9:	8b 45 f8             	mov    -0x8(%ebp),%eax
  4078cc:	66 39 78 06          	cmp    %di,0x6(%eax)
  4078d0:	89 7d ec             	mov    %edi,-0x14(%ebp)
  4078d3:	89 7d e8             	mov    %edi,-0x18(%ebp)
  4078d6:	c6 45 fe 00          	movb   $0x0,-0x2(%ebp)
  4078da:	c6 45 ff 00          	movb   $0x0,-0x1(%ebp)
  4078de:	89 7d f0             	mov    %edi,-0x10(%ebp)
  4078e1:	76 76                	jbe    0x407959
  4078e3:	8b 1d 94 91 40 00    	mov    0x409194,%ebx
  4078e9:	8b 45 f4             	mov    -0xc(%ebp),%eax
  4078ec:	6a 08                	push   $0x8
  4078ee:	03 c7                	add    %edi,%eax
  4078f0:	68 68 a1 40 00       	push   $0x40a168
  4078f5:	50                   	push   %eax
  4078f6:	ff d3                	call   *%ebx
  4078f8:	83 c4 0c             	add    $0xc,%esp
  4078fb:	85 c0                	test   %eax,%eax
  4078fd:	8b 45 f4             	mov    -0xc(%ebp),%eax
  407900:	75 12                	jne    0x407914
  407902:	8d 0c 07             	lea    (%edi,%eax,1),%ecx
  407905:	8b 41 0c             	mov    0xc(%ecx),%eax
  407908:	2b 41 14             	sub    0x14(%ecx),%eax
  40790b:	c6 45 ff 01          	movb   $0x1,-0x1(%ebp)
  40790f:	89 45 e8             	mov    %eax,-0x18(%ebp)
  407912:	eb 27                	jmp    0x40793b
  407914:	6a 08                	push   $0x8
  407916:	03 c7                	add    %edi,%eax
  407918:	68 60 a1 40 00       	push   $0x40a160
  40791d:	50                   	push   %eax
  40791e:	ff d3                	call   *%ebx
  407920:	83 c4 0c             	add    $0xc,%esp
  407923:	85 c0                	test   %eax,%eax
  407925:	75 0e                	jne    0x407935
  407927:	8b 45 f4             	mov    -0xc(%ebp),%eax
  40792a:	8b 44 07 14          	mov    0x14(%edi,%eax,1),%eax
  40792e:	89 45 ec             	mov    %eax,-0x14(%ebp)
  407931:	c6 45 fe 01          	movb   $0x1,-0x2(%ebp)
  407935:	80 7d ff 00          	cmpb   $0x0,-0x1(%ebp)
  407939:	74 06                	je     0x407941
  40793b:	80 7d fe 00          	cmpb   $0x0,-0x2(%ebp)
  40793f:	75 12                	jne    0x407953
  407941:	8b 45 f8             	mov    -0x8(%ebp),%eax
  407944:	0f b7 40 06          	movzwl 0x6(%eax),%eax
  407948:	ff 45 f0             	incl   -0x10(%ebp)
  40794b:	83 c7 28             	add    $0x28,%edi
  40794e:	39 45 f0             	cmp    %eax,-0x10(%ebp)
  407951:	72 96                	jb     0x4078e9
  407953:	83 7d ec 00          	cmpl   $0x0,-0x14(%ebp)
  407957:	75 05                	jne    0x40795e
  407959:	6a f1                	push   $0xfffffff1
  40795b:	5f                   	pop    %edi
  40795c:	eb 6e                	jmp    0x4079cc
  40795e:	8d 5e 10             	lea    0x10(%esi),%ebx
  407961:	53                   	push   %ebx
  407962:	8d 46 0c             	lea    0xc(%esi),%eax
  407965:	50                   	push   %eax
  407966:	89 45 e4             	mov    %eax,-0x1c(%ebp)
  407969:	8b 45 f8             	mov    -0x8(%ebp),%eax
  40796c:	8b 40 34             	mov    0x34(%eax),%eax
  40796f:	03 45 e8             	add    -0x18(%ebp),%eax
  407972:	8d 4e 08             	lea    0x8(%esi),%ecx
  407975:	51                   	push   %ecx
  407976:	56                   	push   %esi
  407977:	50                   	push   %eax
  407978:	ff 75 08             	pushl  0x8(%ebp)
  40797b:	89 4d f0             	mov    %ecx,-0x10(%ebp)
  40797e:	8d 7e 04             	lea    0x4(%esi),%edi
  407981:	8b cf                	mov    %edi,%ecx
  407983:	8d 55 ec             	lea    -0x14(%ebp),%edx
  407986:	e8 1d fe ff ff       	call   0x4077a8
  40798b:	83 c4 18             	add    $0x18,%esp
  40798e:	85 c0                	test   %eax,%eax
  407990:	89 45 e8             	mov    %eax,-0x18(%ebp)
  407993:	75 34                	jne    0x4079c9
  407995:	b8 00 10 00 00       	mov    $0x1000,%eax
  40799a:	01 06                	add    %eax,(%esi)
  40799c:	01 07                	add    %eax,(%edi)
  40799e:	68 54 a1 40 00       	push   $0x40a154
  4079a3:	e8 ae 04 00 00       	call   0x407e56
  4079a8:	59                   	pop    %ecx
  4079a9:	8b 4d f8             	mov    -0x8(%ebp),%ecx
  4079ac:	83 c1 34             	add    $0x34,%ecx
  4079af:	3b 01                	cmp    (%ecx),%eax
  4079b1:	74 16                	je     0x4079c9
  4079b3:	8b 55 f0             	mov    -0x10(%ebp),%edx
  4079b6:	8b f0                	mov    %eax,%esi
  4079b8:	2b 31                	sub    (%ecx),%esi
  4079ba:	01 32                	add    %esi,(%edx)
  4079bc:	8b 55 e4             	mov    -0x1c(%ebp),%edx
  4079bf:	8b f0                	mov    %eax,%esi
  4079c1:	2b 31                	sub    (%ecx),%esi
  4079c3:	01 32                	add    %esi,(%edx)
  4079c5:	2b 01                	sub    (%ecx),%eax
  4079c7:	01 03                	add    %eax,(%ebx)
  4079c9:	8b 7d e8             	mov    -0x18(%ebp),%edi
  4079cc:	ff 75 f8             	pushl  -0x8(%ebp)
  4079cf:	8b 35 f8 90 40 00    	mov    0x4090f8,%esi
  4079d5:	ff d6                	call   *%esi
  4079d7:	ff 75 f4             	pushl  -0xc(%ebp)
  4079da:	ff d6                	call   *%esi
  4079dc:	8b c7                	mov    %edi,%eax
  4079de:	5f                   	pop    %edi
  4079df:	5e                   	pop    %esi
  4079e0:	5b                   	pop    %ebx
  4079e1:	c9                   	leave  
  4079e2:	c3                   	ret    
  4079e3:	55                   	push   %ebp
  4079e4:	8b ec                	mov    %esp,%ebp
  4079e6:	83 ec 14             	sub    $0x14,%esp
  4079e9:	6a 14                	push   $0x14
  4079eb:	8d 45 ec             	lea    -0x14(%ebp),%eax
  4079ee:	6a 00                	push   $0x0
  4079f0:	50                   	push   %eax
  4079f1:	e8 cc 06 00 00       	call   0x4080c2
  4079f6:	ff 75 08             	pushl  0x8(%ebp)
  4079f9:	8d 45 ec             	lea    -0x14(%ebp),%eax
  4079fc:	e8 97 fe ff ff       	call   0x407898
  407a01:	83 c4 10             	add    $0x10,%esp
  407a04:	85 c0                	test   %eax,%eax
  407a06:	75 28                	jne    0x407a30
  407a08:	8b 4d 0c             	mov    0xc(%ebp),%ecx
  407a0b:	8b 55 ec             	mov    -0x14(%ebp),%edx
  407a0e:	89 11                	mov    %edx,(%ecx)
  407a10:	8b 4d 10             	mov    0x10(%ebp),%ecx
  407a13:	8b 55 f0             	mov    -0x10(%ebp),%edx
  407a16:	89 11                	mov    %edx,(%ecx)
  407a18:	8b 4d 14             	mov    0x14(%ebp),%ecx
  407a1b:	8b 55 f4             	mov    -0xc(%ebp),%edx
  407a1e:	89 11                	mov    %edx,(%ecx)
  407a20:	8b 4d 18             	mov    0x18(%ebp),%ecx
  407a23:	8b 55 f8             	mov    -0x8(%ebp),%edx
  407a26:	89 11                	mov    %edx,(%ecx)
  407a28:	8b 4d 1c             	mov    0x1c(%ebp),%ecx
  407a2b:	8b 55 fc             	mov    -0x4(%ebp),%edx
  407a2e:	89 11                	mov    %edx,(%ecx)
  407a30:	c9                   	leave  
  407a31:	c3                   	ret    
  407a32:	6a 24                	push   $0x24
  407a34:	68 00 a2 40 00       	push   $0x40a200
  407a39:	e8 72 08 00 00       	call   0x4082b0
  407a3e:	68 f0 a1 40 00       	push   $0x40a1f0
  407a43:	8b 75 08             	mov    0x8(%ebp),%esi
  407a46:	56                   	push   %esi
  407a47:	e8 25 d9 ff ff       	call   0x405371
  407a4c:	8b f8                	mov    %eax,%edi
  407a4e:	68 e4 a1 40 00       	push   $0x40a1e4
  407a53:	56                   	push   %esi
  407a54:	e8 18 d9 ff ff       	call   0x405371
  407a59:	89 45 e0             	mov    %eax,-0x20(%ebp)
  407a5c:	68 c8 a1 40 00       	push   $0x40a1c8
  407a61:	56                   	push   %esi
  407a62:	e8 0a d9 ff ff       	call   0x405371
  407a67:	89 45 d8             	mov    %eax,-0x28(%ebp)
  407a6a:	68 a8 a1 40 00       	push   $0x40a1a8
  407a6f:	56                   	push   %esi
  407a70:	e8 fc d8 ff ff       	call   0x405371
  407a75:	89 45 d4             	mov    %eax,-0x2c(%ebp)
  407a78:	68 94 a1 40 00       	push   $0x40a194
  407a7d:	56                   	push   %esi
  407a7e:	e8 ee d8 ff ff       	call   0x405371
  407a83:	89 45 dc             	mov    %eax,-0x24(%ebp)
  407a86:	68 84 a1 40 00       	push   $0x40a184
  407a8b:	56                   	push   %esi
  407a8c:	e8 e0 d8 ff ff       	call   0x405371
  407a91:	89 45 e4             	mov    %eax,-0x1c(%ebp)
  407a94:	68 70 a1 40 00       	push   $0x40a170
  407a99:	56                   	push   %esi
  407a9a:	e8 d2 d8 ff ff       	call   0x405371
  407a9f:	83 c4 38             	add    $0x38,%esp
  407aa2:	89 45 cc             	mov    %eax,-0x34(%ebp)
  407aa5:	33 db                	xor    %ebx,%ebx
  407aa7:	3b fb                	cmp    %ebx,%edi
  407aa9:	0f 84 c2 00 00 00    	je     0x407b71
  407aaf:	39 5d e0             	cmp    %ebx,-0x20(%ebp)
  407ab2:	0f 84 b9 00 00 00    	je     0x407b71
  407ab8:	39 5d d8             	cmp    %ebx,-0x28(%ebp)
  407abb:	0f 84 b0 00 00 00    	je     0x407b71
  407ac1:	39 5d d4             	cmp    %ebx,-0x2c(%ebp)
  407ac4:	0f 84 a7 00 00 00    	je     0x407b71
  407aca:	39 5d dc             	cmp    %ebx,-0x24(%ebp)
  407acd:	0f 84 9e 00 00 00    	je     0x407b71
  407ad3:	39 5d e4             	cmp    %ebx,-0x1c(%ebp)
  407ad6:	0f 84 95 00 00 00    	je     0x407b71
  407adc:	3b c3                	cmp    %ebx,%eax
  407ade:	0f 84 8d 00 00 00    	je     0x407b71
  407ae4:	53                   	push   %ebx
  407ae5:	53                   	push   %ebx
  407ae6:	53                   	push   %ebx
  407ae7:	ff 75 14             	pushl  0x14(%ebp)
  407aea:	ff 75 0c             	pushl  0xc(%ebp)
  407aed:	ff d7                	call   *%edi
  407aef:	8b f0                	mov    %eax,%esi
  407af1:	89 75 d0             	mov    %esi,-0x30(%ebp)
  407af4:	3b f3                	cmp    %ebx,%esi
  407af6:	75 04                	jne    0x407afc
  407af8:	6a b8                	push   $0xffffffb8
  407afa:	eb 27                	jmp    0x407b23
  407afc:	38 5d 18             	cmp    %bl,0x18(%ebp)
  407aff:	74 25                	je     0x407b26
  407b01:	89 5d fc             	mov    %ebx,-0x4(%ebp)
  407b04:	53                   	push   %ebx
  407b05:	53                   	push   %ebx
  407b06:	56                   	push   %esi
  407b07:	ff 55 dc             	call   *-0x24(%ebp)
  407b0a:	83 4d fc ff          	orl    $0xffffffff,-0x4(%ebp)
  407b0e:	eb 1a                	jmp    0x407b2a
  407b10:	33 c0                	xor    %eax,%eax
  407b12:	40                   	inc    %eax
  407b13:	c3                   	ret    
  407b14:	8b 65 e8             	mov    -0x18(%ebp),%esp
  407b17:	ff 75 d0             	pushl  -0x30(%ebp)
  407b1a:	ff 55 e0             	call   *-0x20(%ebp)
  407b1d:	83 4d fc ff          	orl    $0xffffffff,-0x4(%ebp)
  407b21:	6a b7                	push   $0xffffffb7
  407b23:	58                   	pop    %eax
  407b24:	eb 4e                	jmp    0x407b74
  407b26:	56                   	push   %esi
  407b27:	ff 55 d8             	call   *-0x28(%ebp)
  407b2a:	80 4e 07 20          	orb    $0x20,0x7(%esi)
  407b2e:	53                   	push   %ebx
  407b2f:	53                   	push   %ebx
  407b30:	53                   	push   %ebx
  407b31:	6a 01                	push   $0x1
  407b33:	53                   	push   %ebx
  407b34:	56                   	push   %esi
  407b35:	ff 55 d4             	call   *-0x2c(%ebp)
  407b38:	8b f8                	mov    %eax,%edi
  407b3a:	3b fb                	cmp    %ebx,%edi
  407b3c:	75 0e                	jne    0x407b4c
  407b3e:	38 5d 18             	cmp    %bl,0x18(%ebp)
  407b41:	74 04                	je     0x407b47
  407b43:	56                   	push   %esi
  407b44:	ff 55 e4             	call   *-0x1c(%ebp)
  407b47:	6a b7                	push   $0xffffffb7
  407b49:	5b                   	pop    %ebx
  407b4a:	eb 1d                	jmp    0x407b69
  407b4c:	ff 75 14             	pushl  0x14(%ebp)
  407b4f:	ff 75 10             	pushl  0x10(%ebp)
  407b52:	57                   	push   %edi
  407b53:	e8 78 05 00 00       	call   0x4080d0
  407b58:	83 c4 0c             	add    $0xc,%esp
  407b5b:	56                   	push   %esi
  407b5c:	57                   	push   %edi
  407b5d:	ff 55 cc             	call   *-0x34(%ebp)
  407b60:	38 5d 18             	cmp    %bl,0x18(%ebp)
  407b63:	74 04                	je     0x407b69
  407b65:	56                   	push   %esi
  407b66:	ff 55 e4             	call   *-0x1c(%ebp)
  407b69:	56                   	push   %esi
  407b6a:	ff 55 e0             	call   *-0x20(%ebp)
  407b6d:	8b c3                	mov    %ebx,%eax
  407b6f:	eb 03                	jmp    0x407b74
  407b71:	33 c0                	xor    %eax,%eax
  407b73:	40                   	inc    %eax
  407b74:	e8 70 07 00 00       	call   0x4082e9
  407b79:	c3                   	ret    
  407b7a:	cc                   	int3   
  407b7b:	cc                   	int3   
  407b7c:	cc                   	int3   
  407b7d:	cc                   	int3   
  407b7e:	cc                   	int3   
  407b7f:	cc                   	int3   
  407b80:	8b 44 24 04          	mov    0x4(%esp),%eax
  407b84:	85 c0                	test   %eax,%eax
  407b86:	75 23                	jne    0x407bab
  407b88:	68 6c 97 40 00       	push   $0x40976c
  407b8d:	68 0c a2 40 00       	push   $0x40a20c
  407b92:	ff 15 a8 90 40 00    	call   *0x4090a8
  407b98:	50                   	push   %eax
  407b99:	ff 15 0c 91 40 00    	call   *0x40910c
  407b9f:	85 c0                	test   %eax,%eax
  407ba1:	a3 c4 b1 40 00       	mov    %eax,0x40b1c4
  407ba6:	75 08                	jne    0x407bb0
  407ba8:	32 c0                	xor    %al,%al
  407baa:	c3                   	ret    
  407bab:	a3 c4 b1 40 00       	mov    %eax,0x40b1c4
  407bb0:	b0 01                	mov    $0x1,%al
  407bb2:	c3                   	ret    
  407bb3:	cc                   	int3   
  407bb4:	cc                   	int3   
  407bb5:	cc                   	int3   
  407bb6:	cc                   	int3   
  407bb7:	cc                   	int3   
  407bb8:	cc                   	int3   
  407bb9:	cc                   	int3   
  407bba:	cc                   	int3   
  407bbb:	cc                   	int3   
  407bbc:	cc                   	int3   
  407bbd:	cc                   	int3   
  407bbe:	cc                   	int3   
  407bbf:	cc                   	int3   
  407bc0:	55                   	push   %ebp
  407bc1:	8b ec                	mov    %esp,%ebp
  407bc3:	83 3d c4 b1 40 00 00 	cmpl   $0x0,0x40b1c4
  407bca:	75 17                	jne    0x407be3
  407bcc:	6a 00                	push   $0x0
  407bce:	e8 ad ff ff ff       	call   0x407b80
  407bd3:	83 c4 04             	add    $0x4,%esp
  407bd6:	83 3d c4 b1 40 00 00 	cmpl   $0x0,0x40b1c4
  407bdd:	75 04                	jne    0x407be3
  407bdf:	33 c0                	xor    %eax,%eax
  407be1:	eb 0b                	jmp    0x407bee
  407be3:	8b e5                	mov    %ebp,%esp
  407be5:	5d                   	pop    %ebp
  407be6:	ff 25 c4 b1 40 00    	jmp    *0x40b1c4
  407bec:	33 c0                	xor    %eax,%eax
  407bee:	5d                   	pop    %ebp
  407bef:	c3                   	ret    
  407bf0:	6a 18                	push   $0x18
  407bf2:	68 28 a2 40 00       	push   $0x40a228
  407bf7:	e8 b4 06 00 00       	call   0x4082b0
  407bfc:	33 db                	xor    %ebx,%ebx
  407bfe:	89 5d e4             	mov    %ebx,-0x1c(%ebp)
  407c01:	89 5d e0             	mov    %ebx,-0x20(%ebp)
  407c04:	53                   	push   %ebx
  407c05:	8d 45 e0             	lea    -0x20(%ebp),%eax
  407c08:	50                   	push   %eax
  407c09:	8d 45 e4             	lea    -0x1c(%ebp),%eax
  407c0c:	50                   	push   %eax
  407c0d:	53                   	push   %ebx
  407c0e:	6a 03                	push   $0x3
  407c10:	e8 fc 00 00 00       	call   0x407d11
  407c15:	83 c4 14             	add    $0x14,%esp
  407c18:	84 c0                	test   %al,%al
  407c1a:	74 7e                	je     0x407c9a
  407c1c:	39 5d e0             	cmp    %ebx,-0x20(%ebp)
  407c1f:	74 6f                	je     0x407c90
  407c21:	8b 75 e4             	mov    -0x1c(%ebp),%esi
  407c24:	83 c6 04             	add    $0x4,%esi
  407c27:	33 ff                	xor    %edi,%edi
  407c29:	8b 45 e4             	mov    -0x1c(%ebp),%eax
  407c2c:	3b 38                	cmp    (%eax),%edi
  407c2e:	73 60                	jae    0x407c90
  407c30:	89 5d fc             	mov    %ebx,-0x4(%ebp)
  407c33:	68 14 a2 40 00       	push   $0x40a214
  407c38:	ff 76 04             	pushl  0x4(%esi)
  407c3b:	ff 15 38 91 40 00    	call   *0x409138
  407c41:	59                   	pop    %ecx
  407c42:	59                   	pop    %ecx
  407c43:	85 c0                	test   %eax,%eax
  407c45:	75 04                	jne    0x407c4b
  407c47:	b3 01                	mov    $0x1,%bl
  407c49:	eb 33                	jmp    0x407c7e
  407c4b:	ff 76 04             	pushl  0x4(%esi)
  407c4e:	ff 15 50 91 40 00    	call   *0x409150
  407c54:	59                   	pop    %ecx
  407c55:	8b 4e 04             	mov    0x4(%esi),%ecx
  407c58:	8d 74 41 02          	lea    0x2(%ecx,%eax,2),%esi
  407c5c:	89 75 dc             	mov    %esi,-0x24(%ebp)
  407c5f:	89 75 d8             	mov    %esi,-0x28(%ebp)
  407c62:	8b c6                	mov    %esi,%eax
  407c64:	83 e0 03             	and    $0x3,%eax
  407c67:	74 05                	je     0x407c6e
  407c69:	03 f0                	add    %eax,%esi
  407c6b:	89 75 dc             	mov    %esi,-0x24(%ebp)
  407c6e:	83 4d fc ff          	orl    $0xffffffff,-0x4(%ebp)
  407c72:	47                   	inc    %edi
  407c73:	eb b4                	jmp    0x407c29
  407c75:	33 c0                	xor    %eax,%eax
  407c77:	40                   	inc    %eax
  407c78:	c3                   	ret    
  407c79:	8b 65 e8             	mov    -0x18(%ebp),%esp
  407c7c:	32 db                	xor    %bl,%bl
  407c7e:	ff 75 e4             	pushl  -0x1c(%ebp)
  407c81:	ff 15 80 91 40 00    	call   *0x409180
  407c87:	59                   	pop    %ecx
  407c88:	83 4d fc ff          	orl    $0xffffffff,-0x4(%ebp)
  407c8c:	8a c3                	mov    %bl,%al
  407c8e:	eb 0c                	jmp    0x407c9c
  407c90:	ff 75 e4             	pushl  -0x1c(%ebp)
  407c93:	ff 15 80 91 40 00    	call   *0x409180
  407c99:	59                   	pop    %ecx
  407c9a:	32 c0                	xor    %al,%al
  407c9c:	e8 48 06 00 00       	call   0x4082e9
  407ca1:	c3                   	ret    
  407ca2:	6a 14                	push   $0x14
  407ca4:	68 38 a2 40 00       	push   $0x40a238
  407ca9:	e8 02 06 00 00       	call   0x4082b0
  407cae:	33 db                	xor    %ebx,%ebx
  407cb0:	39 5d 08             	cmp    %ebx,0x8(%ebp)
  407cb3:	74 54                	je     0x407d09
  407cb5:	68 fc 95 40 00       	push   $0x4095fc
  407cba:	ff 15 a8 90 40 00    	call   *0x4090a8
  407cc0:	ff 75 08             	pushl  0x8(%ebp)
  407cc3:	50                   	push   %eax
  407cc4:	ff 15 0c 91 40 00    	call   *0x40910c
  407cca:	3b c3                	cmp    %ebx,%eax
  407ccc:	74 3b                	je     0x407d09
  407cce:	89 5d fc             	mov    %ebx,-0x4(%ebp)
  407cd1:	89 5d e4             	mov    %ebx,-0x1c(%ebp)
  407cd4:	83 7d e4 0a          	cmpl   $0xa,-0x1c(%ebp)
  407cd8:	7d 2b                	jge    0x407d05
  407cda:	80 38 b8             	cmpb   $0xb8,(%eax)
  407cdd:	75 16                	jne    0x407cf5
  407cdf:	38 58 03             	cmp    %bl,0x3(%eax)
  407ce2:	75 11                	jne    0x407cf5
  407ce4:	38 58 04             	cmp    %bl,0x4(%eax)
  407ce7:	75 0c                	jne    0x407cf5
  407ce9:	40                   	inc    %eax
  407cea:	89 45 e0             	mov    %eax,-0x20(%ebp)
  407ced:	8b 00                	mov    (%eax),%eax
  407cef:	83 4d fc ff          	orl    $0xffffffff,-0x4(%ebp)
  407cf3:	eb 16                	jmp    0x407d0b
  407cf5:	40                   	inc    %eax
  407cf6:	89 45 dc             	mov    %eax,-0x24(%ebp)
  407cf9:	ff 45 e4             	incl   -0x1c(%ebp)
  407cfc:	eb d6                	jmp    0x407cd4
  407cfe:	33 c0                	xor    %eax,%eax
  407d00:	40                   	inc    %eax
  407d01:	c3                   	ret    
  407d02:	8b 65 e8             	mov    -0x18(%ebp),%esp
  407d05:	83 4d fc ff          	orl    $0xffffffff,-0x4(%ebp)
  407d09:	33 c0                	xor    %eax,%eax
  407d0b:	e8 d9 05 00 00       	call   0x4082e9
  407d10:	c3                   	ret    
  407d11:	55                   	push   %ebp
  407d12:	8b ec                	mov    %esp,%ebp
  407d14:	51                   	push   %ecx
  407d15:	53                   	push   %ebx
  407d16:	8b 5d 10             	mov    0x10(%ebp),%ebx
  407d19:	56                   	push   %esi
  407d1a:	57                   	push   %edi
  407d1b:	33 ff                	xor    %edi,%edi
  407d1d:	3b df                	cmp    %edi,%ebx
  407d1f:	0f 84 96 00 00 00    	je     0x407dbb
  407d25:	8b 75 14             	mov    0x14(%ebp),%esi
  407d28:	3b f7                	cmp    %edi,%esi
  407d2a:	0f 84 8b 00 00 00    	je     0x407dbb
  407d30:	39 3d c8 b1 40 00    	cmp    %edi,0x40b1c8
  407d36:	75 20                	jne    0x407d58
  407d38:	68 fc 95 40 00       	push   $0x4095fc
  407d3d:	ff 15 a8 90 40 00    	call   *0x4090a8
  407d43:	68 44 a2 40 00       	push   $0x40a244
  407d48:	50                   	push   %eax
  407d49:	ff 15 0c 91 40 00    	call   *0x40910c
  407d4f:	3b c7                	cmp    %edi,%eax
  407d51:	a3 c8 b1 40 00       	mov    %eax,0x40b1c8
  407d56:	74 63                	je     0x407dbb
  407d58:	83 65 fc 00          	andl   $0x0,-0x4(%ebp)
  407d5c:	89 3b                	mov    %edi,(%ebx)
  407d5e:	8b 5d 18             	mov    0x18(%ebp),%ebx
  407d61:	85 db                	test   %ebx,%ebx
  407d63:	89 3e                	mov    %edi,(%esi)
  407d65:	75 0e                	jne    0x407d75
  407d67:	81 c3 00 04 00 00    	add    $0x400,%ebx
  407d6d:	81 fb 00 28 00 00    	cmp    $0x2800,%ebx
  407d73:	77 33                	ja     0x407da8
  407d75:	53                   	push   %ebx
  407d76:	57                   	push   %edi
  407d77:	ff 15 98 91 40 00    	call   *0x409198
  407d7d:	8b f0                	mov    %eax,%esi
  407d7f:	85 f6                	test   %esi,%esi
  407d81:	59                   	pop    %ecx
  407d82:	59                   	pop    %ecx
  407d83:	74 23                	je     0x407da8
  407d85:	8d 45 fc             	lea    -0x4(%ebp),%eax
  407d88:	50                   	push   %eax
  407d89:	53                   	push   %ebx
  407d8a:	56                   	push   %esi
  407d8b:	ff 75 08             	pushl  0x8(%ebp)
  407d8e:	8b fe                	mov    %esi,%edi
  407d90:	ff 75 0c             	pushl  0xc(%ebp)
  407d93:	ff 15 c8 b1 40 00    	call   *0x40b1c8
  407d99:	3d 04 00 00 c0       	cmp    $0xc0000004,%eax
  407d9e:	75 0f                	jne    0x407daf
  407da0:	83 7d 18 00          	cmpl   $0x0,0x18(%ebp)
  407da4:	74 c1                	je     0x407d67
  407da6:	eb 0b                	jmp    0x407db3
  407da8:	85 ff                	test   %edi,%edi
  407daa:	74 0f                	je     0x407dbb
  407dac:	57                   	push   %edi
  407dad:	eb 05                	jmp    0x407db4
  407daf:	85 c0                	test   %eax,%eax
  407db1:	74 0f                	je     0x407dc2
  407db3:	56                   	push   %esi
  407db4:	ff 15 80 91 40 00    	call   *0x409180
  407dba:	59                   	pop    %ecx
  407dbb:	32 c0                	xor    %al,%al
  407dbd:	5f                   	pop    %edi
  407dbe:	5e                   	pop    %esi
  407dbf:	5b                   	pop    %ebx
  407dc0:	c9                   	leave  
  407dc1:	c3                   	ret    
  407dc2:	8b 45 10             	mov    0x10(%ebp),%eax
  407dc5:	8b 4d 14             	mov    0x14(%ebp),%ecx
  407dc8:	89 30                	mov    %esi,(%eax)
  407dca:	8b 45 fc             	mov    -0x4(%ebp),%eax
  407dcd:	89 01                	mov    %eax,(%ecx)
  407dcf:	b0 01                	mov    $0x1,%al
  407dd1:	eb ea                	jmp    0x407dbd
  407dd3:	55                   	push   %ebp
  407dd4:	8b ec                	mov    %esp,%ebp
  407dd6:	56                   	push   %esi
  407dd7:	8b 75 0c             	mov    0xc(%ebp),%esi
  407dda:	57                   	push   %edi
  407ddb:	33 ff                	xor    %edi,%edi
  407ddd:	3b f7                	cmp    %edi,%esi
  407ddf:	74 4b                	je     0x407e2c
  407de1:	8d 45 0c             	lea    0xc(%ebp),%eax
  407de4:	50                   	push   %eax
  407de5:	ff 75 08             	pushl  0x8(%ebp)
  407de8:	89 7d 0c             	mov    %edi,0xc(%ebp)
  407deb:	ff 15 70 90 40 00    	call   *0x409070
  407df1:	57                   	push   %edi
  407df2:	57                   	push   %edi
  407df3:	57                   	push   %edi
  407df4:	6a 02                	push   $0x2
  407df6:	57                   	push   %edi
  407df7:	ff 75 08             	pushl  0x8(%ebp)
  407dfa:	89 46 08             	mov    %eax,0x8(%esi)
  407dfd:	8b 45 0c             	mov    0xc(%ebp),%eax
  407e00:	89 46 0c             	mov    %eax,0xc(%esi)
  407e03:	ff 15 dc 90 40 00    	call   *0x4090dc
  407e09:	3b c7                	cmp    %edi,%eax
  407e0b:	89 06                	mov    %eax,(%esi)
  407e0d:	74 1d                	je     0x407e2c
  407e0f:	57                   	push   %edi
  407e10:	57                   	push   %edi
  407e11:	57                   	push   %edi
  407e12:	6a 04                	push   $0x4
  407e14:	50                   	push   %eax
  407e15:	ff 15 d8 90 40 00    	call   *0x4090d8
  407e1b:	3b c7                	cmp    %edi,%eax
  407e1d:	89 46 04             	mov    %eax,0x4(%esi)
  407e20:	75 0e                	jne    0x407e30
  407e22:	ff 36                	pushl  (%esi)
  407e24:	ff 15 e8 90 40 00    	call   *0x4090e8
  407e2a:	89 3e                	mov    %edi,(%esi)
  407e2c:	32 c0                	xor    %al,%al
  407e2e:	eb 02                	jmp    0x407e32
  407e30:	b0 01                	mov    $0x1,%al
  407e32:	5f                   	pop    %edi
  407e33:	5e                   	pop    %esi
  407e34:	5d                   	pop    %ebp
  407e35:	c3                   	ret    
  407e36:	56                   	push   %esi
  407e37:	8b 74 24 08          	mov    0x8(%esp),%esi
  407e3b:	85 f6                	test   %esi,%esi
  407e3d:	75 04                	jne    0x407e43
  407e3f:	32 c0                	xor    %al,%al
  407e41:	5e                   	pop    %esi
  407e42:	c3                   	ret    
  407e43:	ff 36                	pushl  (%esi)
  407e45:	ff 15 e8 90 40 00    	call   *0x4090e8
  407e4b:	83 26 00             	andl   $0x0,(%esi)
  407e4e:	83 66 04 00          	andl   $0x0,0x4(%esi)
  407e52:	b0 01                	mov    $0x1,%al
  407e54:	5e                   	pop    %esi
  407e55:	c3                   	ret    
  407e56:	6a 20                	push   $0x20
  407e58:	68 58 a2 40 00       	push   $0x40a258
  407e5d:	e8 4e 04 00 00       	call   0x4082b0
  407e62:	33 ff                	xor    %edi,%edi
  407e64:	39 7d 08             	cmp    %edi,0x8(%ebp)
  407e67:	0f 84 99 00 00 00    	je     0x407f06
  407e6d:	89 7d e4             	mov    %edi,-0x1c(%ebp)
  407e70:	89 7d dc             	mov    %edi,-0x24(%ebp)
  407e73:	89 7d fc             	mov    %edi,-0x4(%ebp)
  407e76:	57                   	push   %edi
  407e77:	8d 45 dc             	lea    -0x24(%ebp),%eax
  407e7a:	50                   	push   %eax
  407e7b:	8d 45 e4             	lea    -0x1c(%ebp),%eax
  407e7e:	50                   	push   %eax
  407e7f:	6a 0b                	push   $0xb
  407e81:	e8 b2 04 00 00       	call   0x408338
  407e86:	83 c4 10             	add    $0x10,%esp
  407e89:	84 c0                	test   %al,%al
  407e8b:	74 53                	je     0x407ee0
  407e8d:	8b 45 e4             	mov    -0x1c(%ebp),%eax
  407e90:	3b c7                	cmp    %edi,%eax
  407e92:	74 4c                	je     0x407ee0
  407e94:	39 7d dc             	cmp    %edi,-0x24(%ebp)
  407e97:	74 47                	je     0x407ee0
  407e99:	8b d8                	mov    %eax,%ebx
  407e9b:	89 5d d8             	mov    %ebx,-0x28(%ebp)
  407e9e:	8d 70 04             	lea    0x4(%eax),%esi
  407ea1:	89 75 d4             	mov    %esi,-0x2c(%ebp)
  407ea4:	21 7d e0             	and    %edi,-0x20(%ebp)
  407ea7:	8b 45 e0             	mov    -0x20(%ebp),%eax
  407eaa:	3b 03                	cmp    (%ebx),%eax
  407eac:	73 30                	jae    0x407ede
  407eae:	69 c0 1c 01 00 00    	imul   $0x11c,%eax,%eax
  407eb4:	8d 3c 30             	lea    (%eax,%esi,1),%edi
  407eb7:	0f b7 4f 1a          	movzwl 0x1a(%edi),%ecx
  407ebb:	03 c8                	add    %eax,%ecx
  407ebd:	8d 44 31 1c          	lea    0x1c(%ecx,%esi,1),%eax
  407ec1:	89 45 d0             	mov    %eax,-0x30(%ebp)
  407ec4:	ff 75 08             	pushl  0x8(%ebp)
  407ec7:	50                   	push   %eax
  407ec8:	ff 15 44 91 40 00    	call   *0x409144
  407ece:	59                   	pop    %ecx
  407ecf:	59                   	pop    %ecx
  407ed0:	85 c0                	test   %eax,%eax
  407ed2:	75 05                	jne    0x407ed9
  407ed4:	8b 7f 08             	mov    0x8(%edi),%edi
  407ed7:	eb 07                	jmp    0x407ee0
  407ed9:	ff 45 e0             	incl   -0x20(%ebp)
  407edc:	eb c9                	jmp    0x407ea7
  407ede:	33 ff                	xor    %edi,%edi
  407ee0:	6a ff                	push   $0xffffffff
  407ee2:	8d 45 f0             	lea    -0x10(%ebp),%eax
  407ee5:	50                   	push   %eax
  407ee6:	e8 0f 04 00 00       	call   0x4082fa
  407eeb:	59                   	pop    %ecx
  407eec:	59                   	pop    %ecx
  407eed:	8b c7                	mov    %edi,%eax
  407eef:	eb 17                	jmp    0x407f08
  407ef1:	83 7d e4 00          	cmpl   $0x0,-0x1c(%ebp)
  407ef5:	74 0e                	je     0x407f05
  407ef7:	ff 75 e4             	pushl  -0x1c(%ebp)
  407efa:	ff 15 80 91 40 00    	call   *0x409180
  407f00:	59                   	pop    %ecx
  407f01:	83 65 e4 00          	andl   $0x0,-0x1c(%ebp)
  407f05:	c3                   	ret    
  407f06:	33 c0                	xor    %eax,%eax
  407f08:	e8 dc 03 00 00       	call   0x4082e9
  407f0d:	c3                   	ret    
  407f0e:	6a 08                	push   $0x8
  407f10:	68 68 a2 40 00       	push   $0x40a268
  407f15:	e8 96 03 00 00       	call   0x4082b0
  407f1a:	8b 45 08             	mov    0x8(%ebp),%eax
  407f1d:	33 d2                	xor    %edx,%edx
  407f1f:	3b c2                	cmp    %edx,%eax
  407f21:	74 46                	je     0x407f69
  407f23:	39 55 10             	cmp    %edx,0x10(%ebp)
  407f26:	74 41                	je     0x407f69
  407f28:	8b 75 14             	mov    0x14(%ebp),%esi
  407f2b:	3b f2                	cmp    %edx,%esi
  407f2d:	74 3a                	je     0x407f69
  407f2f:	8b 7d 0c             	mov    0xc(%ebp),%edi
  407f32:	8d 0c 37             	lea    (%edi,%esi,1),%ecx
  407f35:	3b 50 0c             	cmp    0xc(%eax),%edx
  407f38:	72 07                	jb     0x407f41
  407f3a:	77 2d                	ja     0x407f69
  407f3c:	3b 48 08             	cmp    0x8(%eax),%ecx
  407f3f:	77 28                	ja     0x407f69
  407f41:	89 55 fc             	mov    %edx,-0x4(%ebp)
  407f44:	56                   	push   %esi
  407f45:	8b 40 04             	mov    0x4(%eax),%eax
  407f48:	03 c7                	add    %edi,%eax
  407f4a:	50                   	push   %eax
  407f4b:	ff 75 10             	pushl  0x10(%ebp)
  407f4e:	e8 7d 01 00 00       	call   0x4080d0
  407f53:	83 c4 0c             	add    $0xc,%esp
  407f56:	83 4d fc ff          	orl    $0xffffffff,-0x4(%ebp)
  407f5a:	b0 01                	mov    $0x1,%al
  407f5c:	eb 0d                	jmp    0x407f6b
  407f5e:	33 c0                	xor    %eax,%eax
  407f60:	40                   	inc    %eax
  407f61:	c3                   	ret    
  407f62:	8b 65 e8             	mov    -0x18(%ebp),%esp
  407f65:	83 4d fc ff          	orl    $0xffffffff,-0x4(%ebp)
  407f69:	32 c0                	xor    %al,%al
  407f6b:	e8 79 03 00 00       	call   0x4082e9
  407f70:	c3                   	ret    
  407f71:	56                   	push   %esi
  407f72:	8b 74 24 10          	mov    0x10(%esp),%esi
  407f76:	57                   	push   %edi
  407f77:	33 ff                	xor    %edi,%edi
  407f79:	85 f6                	test   %esi,%esi
  407f7b:	7e 16                	jle    0x407f93
  407f7d:	8b 54 24 10          	mov    0x10(%esp),%edx
  407f81:	8b 4c 24 0c          	mov    0xc(%esp),%ecx
  407f85:	2b ca                	sub    %edx,%ecx
  407f87:	8a 04 11             	mov    (%ecx,%edx,1),%al
  407f8a:	3a 02                	cmp    (%edx),%al
  407f8c:	75 01                	jne    0x407f8f
  407f8e:	47                   	inc    %edi
  407f8f:	42                   	inc    %edx
  407f90:	4e                   	dec    %esi
  407f91:	75 f4                	jne    0x407f87
  407f93:	8b c7                	mov    %edi,%eax
  407f95:	5f                   	pop    %edi
  407f96:	5e                   	pop    %esi
  407f97:	c3                   	ret    
  407f98:	55                   	push   %ebp
  407f99:	8b ec                	mov    %esp,%ebp
  407f9b:	51                   	push   %ecx
  407f9c:	51                   	push   %ecx
  407f9d:	53                   	push   %ebx
  407f9e:	56                   	push   %esi
  407f9f:	8b 35 e0 90 40 00    	mov    0x4090e0,%esi
  407fa5:	33 db                	xor    %ebx,%ebx
  407fa7:	53                   	push   %ebx
  407fa8:	53                   	push   %ebx
  407fa9:	6a 3c                	push   $0x3c
  407fab:	ff 75 08             	pushl  0x8(%ebp)
  407fae:	89 5d f8             	mov    %ebx,-0x8(%ebp)
  407fb1:	ff d6                	call   *%esi
  407fb3:	83 f8 3c             	cmp    $0x3c,%eax
  407fb6:	74 08                	je     0x407fc0
  407fb8:	6a fd                	push   $0xfffffffd
  407fba:	58                   	pop    %eax
  407fbb:	e9 aa 00 00 00       	jmp    0x40806a
  407fc0:	57                   	push   %edi
  407fc1:	8b 3d 6c 90 40 00    	mov    0x40906c,%edi
  407fc7:	53                   	push   %ebx
  407fc8:	8d 45 fc             	lea    -0x4(%ebp),%eax
  407fcb:	50                   	push   %eax
  407fcc:	6a 04                	push   $0x4
  407fce:	8d 45 f8             	lea    -0x8(%ebp),%eax
  407fd1:	50                   	push   %eax
  407fd2:	ff 75 08             	pushl  0x8(%ebp)
  407fd5:	ff d7                	call   *%edi
  407fd7:	53                   	push   %ebx
  407fd8:	53                   	push   %ebx
  407fd9:	ff 75 f8             	pushl  -0x8(%ebp)
  407fdc:	89 5d fc             	mov    %ebx,-0x4(%ebp)
  407fdf:	ff 75 08             	pushl  0x8(%ebp)
  407fe2:	ff d6                	call   *%esi
  407fe4:	3b 45 f8             	cmp    -0x8(%ebp),%eax
  407fe7:	74 05                	je     0x407fee
  407fe9:	6a fd                	push   $0xfffffffd
  407feb:	58                   	pop    %eax
  407fec:	eb 7b                	jmp    0x408069
  407fee:	be f8 00 00 00       	mov    $0xf8,%esi
  407ff3:	56                   	push   %esi
  407ff4:	6a 40                	push   $0x40
  407ff6:	ff 15 58 90 40 00    	call   *0x409058
  407ffc:	8b 5d 0c             	mov    0xc(%ebp),%ebx
  407fff:	6a 00                	push   $0x0
  408001:	8d 4d fc             	lea    -0x4(%ebp),%ecx
  408004:	51                   	push   %ecx
  408005:	56                   	push   %esi
  408006:	50                   	push   %eax
  408007:	ff 75 08             	pushl  0x8(%ebp)
  40800a:	89 03                	mov    %eax,(%ebx)
  40800c:	ff d7                	call   *%edi
  40800e:	39 75 fc             	cmp    %esi,-0x4(%ebp)
  408011:	74 0d                	je     0x408020
  408013:	ff 33                	pushl  (%ebx)
  408015:	ff 15 f8 90 40 00    	call   *0x4090f8
  40801b:	83 23 00             	andl   $0x0,(%ebx)
  40801e:	eb 43                	jmp    0x408063
  408020:	8b 03                	mov    (%ebx),%eax
  408022:	0f b7 40 06          	movzwl 0x6(%eax),%eax
  408026:	8d 34 80             	lea    (%eax,%eax,4),%esi
  408029:	c1 e6 03             	shl    $0x3,%esi
  40802c:	56                   	push   %esi
  40802d:	6a 40                	push   $0x40
  40802f:	ff 15 58 90 40 00    	call   *0x409058
  408035:	8b 4d 10             	mov    0x10(%ebp),%ecx
  408038:	6a 00                	push   $0x0
  40803a:	89 01                	mov    %eax,(%ecx)
  40803c:	8d 4d fc             	lea    -0x4(%ebp),%ecx
  40803f:	51                   	push   %ecx
  408040:	56                   	push   %esi
  408041:	50                   	push   %eax
  408042:	ff 75 08             	pushl  0x8(%ebp)
  408045:	ff d7                	call   *%edi
  408047:	39 75 fc             	cmp    %esi,-0x4(%ebp)
  40804a:	74 1b                	je     0x408067
  40804c:	ff 33                	pushl  (%ebx)
  40804e:	8b 35 f8 90 40 00    	mov    0x4090f8,%esi
  408054:	ff d6                	call   *%esi
  408056:	8b 7d 10             	mov    0x10(%ebp),%edi
  408059:	ff 37                	pushl  (%edi)
  40805b:	ff d6                	call   *%esi
  40805d:	83 23 00             	andl   $0x0,(%ebx)
  408060:	83 27 00             	andl   $0x0,(%edi)
  408063:	6a fc                	push   $0xfffffffc
  408065:	eb 84                	jmp    0x407feb
  408067:	33 c0                	xor    %eax,%eax
  408069:	5f                   	pop    %edi
  40806a:	5e                   	pop    %esi
  40806b:	5b                   	pop    %ebx
  40806c:	c9                   	leave  
  40806d:	c3                   	ret    
  40806e:	55                   	push   %ebp
  40806f:	8b ec                	mov    %esp,%ebp
  408071:	8b 45 08             	mov    0x8(%ebp),%eax
  408074:	33 d2                	xor    %edx,%edx
  408076:	3b c2                	cmp    %edx,%eax
  408078:	56                   	push   %esi
  408079:	57                   	push   %edi
  40807a:	74 32                	je     0x4080ae
  40807c:	39 55 10             	cmp    %edx,0x10(%ebp)
  40807f:	74 2d                	je     0x4080ae
  408081:	3b 50 0c             	cmp    0xc(%eax),%edx
  408084:	8b 75 0c             	mov    0xc(%ebp),%esi
  408087:	8b 7d 14             	mov    0x14(%ebp),%edi
  40808a:	8d 0c 3e             	lea    (%esi,%edi,1),%ecx
  40808d:	72 0b                	jb     0x40809a
  40808f:	77 05                	ja     0x408096
  408091:	3b 48 08             	cmp    0x8(%eax),%ecx
  408094:	76 04                	jbe    0x40809a
  408096:	6a fd                	push   $0xfffffffd
  408098:	eb 16                	jmp    0x4080b0
  40809a:	8b 40 04             	mov    0x4(%eax),%eax
  40809d:	57                   	push   %edi
  40809e:	03 c6                	add    %esi,%eax
  4080a0:	50                   	push   %eax
  4080a1:	ff 75 10             	pushl  0x10(%ebp)
  4080a4:	e8 c8 fe ff ff       	call   0x407f71
  4080a9:	83 c4 0c             	add    $0xc,%esp
  4080ac:	eb 03                	jmp    0x4080b1
  4080ae:	6a 57                	push   $0x57
  4080b0:	58                   	pop    %eax
  4080b1:	5f                   	pop    %edi
  4080b2:	5e                   	pop    %esi
  4080b3:	5d                   	pop    %ebp
  4080b4:	c3                   	ret    
  4080b5:	cc                   	int3   
  4080b6:	ff 25 4c 91 40 00    	jmp    *0x40914c
  4080bc:	ff 25 54 91 40 00    	jmp    *0x409154
  4080c2:	ff 25 58 91 40 00    	jmp    *0x409158
  4080c8:	ff 25 5c 91 40 00    	jmp    *0x40915c
  4080ce:	cc                   	int3   
  4080cf:	cc                   	int3   
  4080d0:	ff 25 64 91 40 00    	jmp    *0x409164
  4080d6:	cc                   	int3   
  4080d7:	cc                   	int3   
  4080d8:	55                   	push   %ebp
  4080d9:	8b ec                	mov    %esp,%ebp
  4080db:	83 ec 20             	sub    $0x20,%esp
  4080de:	83 e4 f0             	and    $0xfffffff0,%esp
  4080e1:	d9 c0                	fld    %st(0)
  4080e3:	d9 54 24 18          	fsts   0x18(%esp)
  4080e7:	df 7c 24 10          	fistpll 0x10(%esp)
  4080eb:	df 6c 24 10          	fildll 0x10(%esp)
  4080ef:	8b 54 24 18          	mov    0x18(%esp),%edx
  4080f3:	8b 44 24 10          	mov    0x10(%esp),%eax
  4080f7:	85 c0                	test   %eax,%eax
  4080f9:	74 3c                	je     0x408137
  4080fb:	de e9                	fsubrp %st,%st(1)
  4080fd:	85 d2                	test   %edx,%edx
  4080ff:	79 1e                	jns    0x40811f
  408101:	d9 1c 24             	fstps  (%esp)
  408104:	8b 0c 24             	mov    (%esp),%ecx
  408107:	81 f1 00 00 00 80    	xor    $0x80000000,%ecx
  40810d:	81 c1 ff ff ff 7f    	add    $0x7fffffff,%ecx
  408113:	83 d0 00             	adc    $0x0,%eax
  408116:	8b 54 24 14          	mov    0x14(%esp),%edx
  40811a:	83 d2 00             	adc    $0x0,%edx
  40811d:	eb 2c                	jmp    0x40814b
  40811f:	d9 1c 24             	fstps  (%esp)
  408122:	8b 0c 24             	mov    (%esp),%ecx
  408125:	81 c1 ff ff ff 7f    	add    $0x7fffffff,%ecx
  40812b:	83 d8 00             	sbb    $0x0,%eax
  40812e:	8b 54 24 14          	mov    0x14(%esp),%edx
  408132:	83 da 00             	sbb    $0x0,%edx
  408135:	eb 14                	jmp    0x40814b
  408137:	8b 54 24 14          	mov    0x14(%esp),%edx
  40813b:	f7 c2 ff ff ff 7f    	test   $0x7fffffff,%edx
  408141:	75 b8                	jne    0x4080fb
  408143:	d9 5c 24 18          	fstps  0x18(%esp)
  408147:	d9 5c 24 18          	fstps  0x18(%esp)
  40814b:	c9                   	leave  
  40814c:	c3                   	ret    
  40814d:	cc                   	int3   
  40814e:	cc                   	int3   
  40814f:	cc                   	int3   
  408150:	55                   	push   %ebp
  408151:	8b ec                	mov    %esp,%ebp
  408153:	6a ff                	push   $0xffffffff
  408155:	68 78 a2 40 00       	push   $0x40a278
  40815a:	68 c0 7b 40 00       	push   $0x407bc0
  40815f:	64 a1 00 00 00 00    	mov    %fs:0x0,%eax
  408165:	50                   	push   %eax
  408166:	64 89 25 00 00 00 00 	mov    %esp,%fs:0x0
  40816d:	83 ec 68             	sub    $0x68,%esp
  408170:	53                   	push   %ebx
  408171:	56                   	push   %esi
  408172:	57                   	push   %edi
  408173:	89 65 e8             	mov    %esp,-0x18(%ebp)
  408176:	33 db                	xor    %ebx,%ebx
  408178:	89 5d fc             	mov    %ebx,-0x4(%ebp)
  40817b:	6a 02                	push   $0x2
  40817d:	ff 15 40 91 40 00    	call   *0x409140
  408183:	59                   	pop    %ecx
  408184:	83 0d e0 b1 40 00 ff 	orl    $0xffffffff,0x40b1e0
  40818b:	83 0d e4 b1 40 00 ff 	orl    $0xffffffff,0x40b1e4
  408192:	ff 15 3c 91 40 00    	call   *0x40913c
  408198:	8b 0d d8 b1 40 00    	mov    0x40b1d8,%ecx
  40819e:	89 08                	mov    %ecx,(%eax)
  4081a0:	ff 15 34 91 40 00    	call   *0x409134
  4081a6:	8b 0d d4 b1 40 00    	mov    0x40b1d4,%ecx
  4081ac:	89 08                	mov    %ecx,(%eax)
  4081ae:	a1 30 91 40 00       	mov    0x409130,%eax
  4081b3:	8b 00                	mov    (%eax),%eax
  4081b5:	a3 e8 b1 40 00       	mov    %eax,0x40b1e8
  4081ba:	e8 72 01 00 00       	call   0x408331
  4081bf:	39 1d 10 b1 40 00    	cmp    %ebx,0x40b110
  4081c5:	75 0c                	jne    0x4081d3
  4081c7:	68 2e 83 40 00       	push   $0x40832e
  4081cc:	ff 15 2c 91 40 00    	call   *0x40912c
  4081d2:	59                   	pop    %ecx
  4081d3:	e8 44 01 00 00       	call   0x40831c
  4081d8:	68 0c b0 40 00       	push   $0x40b00c
  4081dd:	68 08 b0 40 00       	push   $0x40b008
  4081e2:	e8 2f 01 00 00       	call   0x408316
  4081e7:	a1 d0 b1 40 00       	mov    0x40b1d0,%eax
  4081ec:	89 45 94             	mov    %eax,-0x6c(%ebp)
  4081ef:	8d 45 94             	lea    -0x6c(%ebp),%eax
  4081f2:	50                   	push   %eax
  4081f3:	ff 35 cc b1 40 00    	pushl  0x40b1cc
  4081f9:	8d 45 9c             	lea    -0x64(%ebp),%eax
  4081fc:	50                   	push   %eax
  4081fd:	8d 45 90             	lea    -0x70(%ebp),%eax
  408200:	50                   	push   %eax
  408201:	8d 45 a0             	lea    -0x60(%ebp),%eax
  408204:	50                   	push   %eax
  408205:	ff 15 b0 91 40 00    	call   *0x4091b0
  40820b:	68 04 b0 40 00       	push   $0x40b004
  408210:	68 00 b0 40 00       	push   $0x40b000
  408215:	e8 fc 00 00 00       	call   0x408316
  40821a:	83 c4 24             	add    $0x24,%esp
  40821d:	a1 ac 91 40 00       	mov    0x4091ac,%eax
  408222:	8b 30                	mov    (%eax),%esi
  408224:	89 75 8c             	mov    %esi,-0x74(%ebp)
  408227:	80 3e 22             	cmpb   $0x22,(%esi)
  40822a:	75 3a                	jne    0x408266
  40822c:	46                   	inc    %esi
  40822d:	89 75 8c             	mov    %esi,-0x74(%ebp)
  408230:	8a 06                	mov    (%esi),%al
  408232:	3a c3                	cmp    %bl,%al
  408234:	74 04                	je     0x40823a
  408236:	3c 22                	cmp    $0x22,%al
  408238:	75 f2                	jne    0x40822c
  40823a:	80 3e 22             	cmpb   $0x22,(%esi)
  40823d:	75 04                	jne    0x408243
  40823f:	46                   	inc    %esi
  408240:	89 75 8c             	mov    %esi,-0x74(%ebp)
  408243:	8a 06                	mov    (%esi),%al
  408245:	3a c3                	cmp    %bl,%al
  408247:	74 04                	je     0x40824d
  408249:	3c 20                	cmp    $0x20,%al
  40824b:	76 f2                	jbe    0x40823f
  40824d:	89 5d d0             	mov    %ebx,-0x30(%ebp)
  408250:	8d 45 a4             	lea    -0x5c(%ebp),%eax
  408253:	50                   	push   %eax
  408254:	ff 15 f0 90 40 00    	call   *0x4090f0
  40825a:	f6 45 d0 01          	testb  $0x1,-0x30(%ebp)
  40825e:	74 11                	je     0x408271
  408260:	0f b7 45 d4          	movzwl -0x2c(%ebp),%eax
  408264:	eb 0e                	jmp    0x408274
  408266:	80 3e 20             	cmpb   $0x20,(%esi)
  408269:	76 d8                	jbe    0x408243
  40826b:	46                   	inc    %esi
  40826c:	89 75 8c             	mov    %esi,-0x74(%ebp)
  40826f:	eb f5                	jmp    0x408266
  408271:	6a 0a                	push   $0xa
  408273:	58                   	pop    %eax
  408274:	50                   	push   %eax
  408275:	56                   	push   %esi
  408276:	53                   	push   %ebx
  408277:	53                   	push   %ebx
  408278:	ff 15 a8 90 40 00    	call   *0x4090a8
  40827e:	50                   	push   %eax
  40827f:	e8 0c 8e ff ff       	call   0x401090
  408284:	89 45 98             	mov    %eax,-0x68(%ebp)
  408287:	50                   	push   %eax
  408288:	ff 15 a8 91 40 00    	call   *0x4091a8
  40828e:	8b 45 ec             	mov    -0x14(%ebp),%eax
  408291:	8b 08                	mov    (%eax),%ecx
  408293:	8b 09                	mov    (%ecx),%ecx
  408295:	89 4d 88             	mov    %ecx,-0x78(%ebp)
  408298:	50                   	push   %eax
  408299:	51                   	push   %ecx
  40829a:	e8 71 00 00 00       	call   0x408310
  40829f:	59                   	pop    %ecx
  4082a0:	59                   	pop    %ecx
  4082a1:	c3                   	ret    
  4082a2:	8b 65 e8             	mov    -0x18(%ebp),%esp
  4082a5:	ff 75 88             	pushl  -0x78(%ebp)
  4082a8:	ff 15 a0 91 40 00    	call   *0x4091a0
  4082ae:	cc                   	int3   
  4082af:	cc                   	int3   
  4082b0:	68 c0 7b 40 00       	push   $0x407bc0
  4082b5:	64 a1 00 00 00 00    	mov    %fs:0x0,%eax
  4082bb:	50                   	push   %eax
  4082bc:	64 89 25 00 00 00 00 	mov    %esp,%fs:0x0
  4082c3:	8b 44 24 10          	mov    0x10(%esp),%eax
  4082c7:	89 6c 24 10          	mov    %ebp,0x10(%esp)
  4082cb:	8d 6c 24 10          	lea    0x10(%esp),%ebp
  4082cf:	2b e0                	sub    %eax,%esp
  4082d1:	53                   	push   %ebx
  4082d2:	56                   	push   %esi
  4082d3:	57                   	push   %edi
  4082d4:	8b 45 f8             	mov    -0x8(%ebp),%eax
  4082d7:	89 65 e8             	mov    %esp,-0x18(%ebp)
  4082da:	50                   	push   %eax
  4082db:	8b 45 fc             	mov    -0x4(%ebp),%eax
  4082de:	c7 45 fc ff ff ff ff 	movl   $0xffffffff,-0x4(%ebp)
  4082e5:	89 45 f8             	mov    %eax,-0x8(%ebp)
  4082e8:	c3                   	ret    
  4082e9:	8b 4d f0             	mov    -0x10(%ebp),%ecx
  4082ec:	64 89 0d 00 00 00 00 	mov    %ecx,%fs:0x0
  4082f3:	59                   	pop    %ecx
  4082f4:	5f                   	pop    %edi
  4082f5:	5e                   	pop    %esi
  4082f6:	5b                   	pop    %ebx
  4082f7:	c9                   	leave  
  4082f8:	51                   	push   %ecx
  4082f9:	c3                   	ret    
  4082fa:	ff 25 84 91 40 00    	jmp    *0x409184
  408300:	ff 25 88 91 40 00    	jmp    *0x409188
  408306:	cc                   	int3   
  408307:	cc                   	int3   
  408308:	cc                   	int3   
  408309:	cc                   	int3   
  40830a:	cc                   	int3   
  40830b:	cc                   	int3   
  40830c:	cc                   	int3   
  40830d:	cc                   	int3   
  40830e:	cc                   	int3   
  40830f:	cc                   	int3   
  408310:	ff 25 a4 91 40 00    	jmp    *0x4091a4
  408316:	ff 25 b4 91 40 00    	jmp    *0x4091b4
  40831c:	68 00 00 03 00       	push   $0x30000
  408321:	68 00 00 01 00       	push   $0x10000
  408326:	e8 07 00 00 00       	call   0x408332
  40832b:	59                   	pop    %ecx
  40832c:	59                   	pop    %ecx
  40832d:	c3                   	ret    
  40832e:	33 c0                	xor    %eax,%eax
  408330:	c3                   	ret    
  408331:	c3                   	ret    
  408332:	ff 25 48 91 40 00    	jmp    *0x409148
  408338:	55                   	push   %ebp
  408339:	8b ec                	mov    %esp,%ebp
  40833b:	51                   	push   %ecx
  40833c:	53                   	push   %ebx
  40833d:	8b 5d 0c             	mov    0xc(%ebp),%ebx
  408340:	56                   	push   %esi
  408341:	57                   	push   %edi
  408342:	33 ff                	xor    %edi,%edi
  408344:	3b df                	cmp    %edi,%ebx
  408346:	0f 84 93 00 00 00    	je     0x4083df
  40834c:	8b 75 10             	mov    0x10(%ebp),%esi
  40834f:	3b f7                	cmp    %edi,%esi
  408351:	0f 84 88 00 00 00    	je     0x4083df
  408357:	39 3d dc b1 40 00    	cmp    %edi,0x40b1dc
  40835d:	75 20                	jne    0x40837f
  40835f:	68 fc 95 40 00       	push   $0x4095fc
  408364:	ff 15 a8 90 40 00    	call   *0x4090a8
  40836a:	68 84 a2 40 00       	push   $0x40a284
  40836f:	50                   	push   %eax
  408370:	ff 15 0c 91 40 00    	call   *0x40910c
  408376:	3b c7                	cmp    %edi,%eax
  408378:	a3 dc b1 40 00       	mov    %eax,0x40b1dc
  40837d:	74 60                	je     0x4083df
  40837f:	83 65 fc 00          	andl   $0x0,-0x4(%ebp)
  408383:	89 3b                	mov    %edi,(%ebx)
  408385:	8b 5d 14             	mov    0x14(%ebp),%ebx
  408388:	85 db                	test   %ebx,%ebx
  40838a:	89 3e                	mov    %edi,(%esi)
  40838c:	75 0e                	jne    0x40839c
  40838e:	81 c3 00 14 00 00    	add    $0x1400,%ebx
  408394:	81 fb 00 e8 03 00    	cmp    $0x3e800,%ebx
  40839a:	77 30                	ja     0x4083cc
  40839c:	53                   	push   %ebx
  40839d:	57                   	push   %edi
  40839e:	ff 15 98 91 40 00    	call   *0x409198
  4083a4:	8b f0                	mov    %eax,%esi
  4083a6:	85 f6                	test   %esi,%esi
  4083a8:	59                   	pop    %ecx
  4083a9:	59                   	pop    %ecx
  4083aa:	74 20                	je     0x4083cc
  4083ac:	8d 45 fc             	lea    -0x4(%ebp),%eax
  4083af:	50                   	push   %eax
  4083b0:	53                   	push   %ebx
  4083b1:	56                   	push   %esi
  4083b2:	ff 75 08             	pushl  0x8(%ebp)
  4083b5:	8b fe                	mov    %esi,%edi
  4083b7:	ff 15 dc b1 40 00    	call   *0x40b1dc
  4083bd:	3d 04 00 00 c0       	cmp    $0xc0000004,%eax
  4083c2:	75 0f                	jne    0x4083d3
  4083c4:	83 7d 14 00          	cmpl   $0x0,0x14(%ebp)
  4083c8:	74 c4                	je     0x40838e
  4083ca:	eb 0b                	jmp    0x4083d7
  4083cc:	85 ff                	test   %edi,%edi
  4083ce:	74 0f                	je     0x4083df
  4083d0:	57                   	push   %edi
  4083d1:	eb 05                	jmp    0x4083d8
  4083d3:	85 c0                	test   %eax,%eax
  4083d5:	74 0f                	je     0x4083e6
  4083d7:	56                   	push   %esi
  4083d8:	ff 15 80 91 40 00    	call   *0x409180
  4083de:	59                   	pop    %ecx
  4083df:	32 c0                	xor    %al,%al
  4083e1:	5f                   	pop    %edi
  4083e2:	5e                   	pop    %esi
  4083e3:	5b                   	pop    %ebx
  4083e4:	c9                   	leave  
  4083e5:	c3                   	ret    
  4083e6:	8b 45 0c             	mov    0xc(%ebp),%eax
  4083e9:	8b 4d 10             	mov    0x10(%ebp),%ecx
  4083ec:	89 30                	mov    %esi,(%eax)
  4083ee:	8b 45 fc             	mov    -0x4(%ebp),%eax
  4083f1:	89 01                	mov    %eax,(%ecx)
  4083f3:	b0 01                	mov    $0x1,%al
  4083f5:	eb ea                	jmp    0x4083e1
