
GROK_24A6EC8EBF9C0867ED1C097F4A653B8D:     file format pei-x86-64


Disassembly of section .text:

0000000000011000 <.text>:
	...
   11008:	48 89 5c 24 08       	mov    %rbx,0x8(%rsp)
   1100d:	48 89 74 24 10       	mov    %rsi,0x10(%rsp)
   11012:	57                   	push   %rdi
   11013:	48 83 ec 20          	sub    $0x20,%rsp
   11017:	0f b7 f2             	movzwl %dx,%esi
   1101a:	48 8d 15 ff d0 01 00 	lea    0x1d0ff(%rip),%rdx        # 0x2e120
   11021:	41 b8 08 02 00 00    	mov    $0x208,%r8d
   11027:	48 8b d9             	mov    %rcx,%rbx
   1102a:	e8 f1 f4 00 00       	callq  0x20520
   1102f:	48 83 c9 ff          	or     $0xffffffffffffffff,%rcx
   11033:	33 c0                	xor    %eax,%eax
   11035:	48 8b fb             	mov    %rbx,%rdi
   11038:	66 f2 af             	repnz scas %es:(%rdi),%ax
   1103b:	48 f7 d1             	not    %rcx
   1103e:	48 83 e9 01          	sub    $0x1,%rcx
   11042:	48 83 f9 04          	cmp    $0x4,%rcx
   11046:	73 07                	jae    0x1104f
   11048:	b8 0d 00 00 c0       	mov    $0xc000000d,%eax
   1104d:	eb 05                	jmp    0x11054
   1104f:	66 89 74 4b f8       	mov    %si,-0x8(%rbx,%rcx,2)
   11054:	48 8b 5c 24 30       	mov    0x30(%rsp),%rbx
   11059:	48 8b 74 24 38       	mov    0x38(%rsp),%rsi
   1105e:	48 83 c4 20          	add    $0x20,%rsp
   11062:	5f                   	pop    %rdi
   11063:	c3                   	retq   
   11064:	cc                   	int3   
   11065:	cc                   	int3   
   11066:	cc                   	int3   
   11067:	cc                   	int3   
   11068:	cc                   	int3   
   11069:	cc                   	int3   
   1106a:	cc                   	int3   
   1106b:	cc                   	int3   
   1106c:	48 89 5c 24 10       	mov    %rbx,0x10(%rsp)
   11071:	48 89 74 24 18       	mov    %rsi,0x18(%rsp)
   11076:	57                   	push   %rdi
   11077:	48 83 ec 20          	sub    $0x20,%rsp
   1107b:	33 ff                	xor    %edi,%edi
   1107d:	40 8a df             	mov    %dil,%bl
   11080:	8d 77 01             	lea    0x1(%rdi),%esi
   11083:	eb 22                	jmp    0x110a7
   11085:	81 ff d0 02 00 00    	cmp    $0x2d0,%edi
   1108b:	48 c7 44 24 30 80 69 	movq   $0xffffffffff676980,0x30(%rsp)
   11092:	67 ff 
   11094:	7f 22                	jg     0x110b8
   11096:	4c 8d 44 24 30       	lea    0x30(%rsp),%r8
   1109b:	33 d2                	xor    %edx,%edx
   1109d:	33 c9                	xor    %ecx,%ecx
   1109f:	03 fe                	add    %esi,%edi
   110a1:	ff 15 79 0f 01 00    	callq  *0x10f79(%rip)        # 0x22020
   110a7:	33 c0                	xor    %eax,%eax
   110a9:	f0 0f b1 35 cb d6 01 	lock cmpxchg %esi,0x1d6cb(%rip)        # 0x2e77c
   110b0:	00 
   110b1:	3b c6                	cmp    %esi,%eax
   110b3:	74 d0                	je     0x11085
   110b5:	40 8a de             	mov    %sil,%bl
   110b8:	48 8b 74 24 40       	mov    0x40(%rsp),%rsi
   110bd:	8a c3                	mov    %bl,%al
   110bf:	48 8b 5c 24 38       	mov    0x38(%rsp),%rbx
   110c4:	48 83 c4 20          	add    $0x20,%rsp
   110c8:	5f                   	pop    %rdi
   110c9:	c3                   	retq   
   110ca:	cc                   	int3   
   110cb:	cc                   	int3   
   110cc:	cc                   	int3   
   110cd:	cc                   	int3   
   110ce:	cc                   	int3   
   110cf:	cc                   	int3   
   110d0:	4c 8b dc             	mov    %rsp,%r11
   110d3:	49 89 5b 08          	mov    %rbx,0x8(%r11)
   110d7:	49 89 6b 10          	mov    %rbp,0x10(%r11)
   110db:	49 89 73 18          	mov    %rsi,0x18(%r11)
   110df:	57                   	push   %rdi
   110e0:	48 81 ec c0 00 00 00 	sub    $0xc0,%rsp
   110e7:	49 83 4b 98 ff       	orq    $0xffffffffffffffff,-0x68(%r11)
   110ec:	33 c0                	xor    %eax,%eax
   110ee:	48 8b f2             	mov    %rdx,%rsi
   110f1:	48 8b d1             	mov    %rcx,%rdx
   110f4:	33 ed                	xor    %ebp,%ebp
   110f6:	89 44 24 74          	mov    %eax,0x74(%rsp)
   110fa:	89 6c 24 70          	mov    %ebp,0x70(%rsp)
   110fe:	49 8d 4b b8          	lea    -0x48(%r11),%rcx
   11102:	49 8b f8             	mov    %r8,%rdi
   11105:	49 89 43 b0          	mov    %rax,-0x50(%r11)
   11109:	49 89 6b a0          	mov    %rbp,-0x60(%r11)
   1110d:	ff 15 05 0f 01 00    	callq  *0x10f05(%rip)        # 0x22018
   11113:	48 8d 84 24 80 00 00 	lea    0x80(%rsp),%rax
   1111a:	00 
   1111b:	c7 84 24 90 00 00 00 	movl   $0x30,0x90(%rsp)
   11122:	30 00 00 00 
   11126:	48 89 ac 24 98 00 00 	mov    %rbp,0x98(%rsp)
   1112d:	00 
   1112e:	48 89 84 24 a0 00 00 	mov    %rax,0xa0(%rsp)
   11135:	00 
   11136:	48 8b 05 63 d6 01 00 	mov    0x1d663(%rip),%rax        # 0x2e7a0
   1113d:	c7 84 24 a8 00 00 00 	movl   $0x240,0xa8(%rsp)
   11144:	40 02 00 00 
   11148:	48 3b c5             	cmp    %rbp,%rax
   1114b:	48 89 ac 24 b0 00 00 	mov    %rbp,0xb0(%rsp)
   11152:	00 
   11153:	48 89 ac 24 b8 00 00 	mov    %rbp,0xb8(%rsp)
   1115a:	00 
   1115b:	75 64                	jne    0x111c1
   1115d:	48 39 2d 44 d6 01 00 	cmp    %rbp,0x1d644(%rip)        # 0x2e7a8
   11164:	74 5b                	je     0x111c1
   11166:	48 39 2d 43 d6 01 00 	cmp    %rbp,0x1d643(%rip)        # 0x2e7b0
   1116d:	74 52                	je     0x111c1
   1116f:	48 39 2d 42 d6 01 00 	cmp    %rbp,0x1d642(%rip)        # 0x2e7b8
   11176:	74 49                	je     0x111c1
   11178:	48 39 2d 41 d6 01 00 	cmp    %rbp,0x1d641(%rip)        # 0x2e7c0
   1117f:	74 40                	je     0x111c1
   11181:	48 39 2d 40 d6 01 00 	cmp    %rbp,0x1d640(%rip)        # 0x2e7c8
   11188:	74 37                	je     0x111c1
   1118a:	48 39 2d 3f d6 01 00 	cmp    %rbp,0x1d63f(%rip)        # 0x2e7d0
   11191:	74 2e                	je     0x111c1
   11193:	48 39 2d 3e d6 01 00 	cmp    %rbp,0x1d63e(%rip)        # 0x2e7d8
   1119a:	74 25                	je     0x111c1
   1119c:	48 39 2d 3d d6 01 00 	cmp    %rbp,0x1d63d(%rip)        # 0x2e7e0
   111a3:	74 1c                	je     0x111c1
   111a5:	48 39 2d 3c d6 01 00 	cmp    %rbp,0x1d63c(%rip)        # 0x2e7e8
   111ac:	74 13                	je     0x111c1
   111ae:	48 39 2d 3b d6 01 00 	cmp    %rbp,0x1d63b(%rip)        # 0x2e7f0
   111b5:	74 0a                	je     0x111c1
   111b7:	bb 01 00 00 c0       	mov    $0xc0000001,%ebx
   111bc:	e9 8f 00 00 00       	jmpq   0x11250
   111c1:	89 6c 24 50          	mov    %ebp,0x50(%rsp)
   111c5:	48 89 6c 24 48       	mov    %rbp,0x48(%rsp)
   111ca:	c7 44 24 40 20 00 00 	movl   $0x20,0x40(%rsp)
   111d1:	00 
   111d2:	c7 44 24 38 01 00 00 	movl   $0x1,0x38(%rsp)
   111d9:	00 
   111da:	89 6c 24 30          	mov    %ebp,0x30(%rsp)
   111de:	4c 8d 4c 24 70       	lea    0x70(%rsp),%r9
   111e3:	4c 8d 84 24 90 00 00 	lea    0x90(%rsp),%r8
   111ea:	00 
   111eb:	48 8d 4c 24 60       	lea    0x60(%rsp),%rcx
   111f0:	ba 00 00 10 80       	mov    $0x80100000,%edx
   111f5:	c7 44 24 28 80 00 00 	movl   $0x80,0x28(%rsp)
   111fc:	00 
   111fd:	48 89 6c 24 20       	mov    %rbp,0x20(%rsp)
   11202:	ff d0                	callq  *%rax
   11204:	3d 34 00 00 c0       	cmp    $0xc0000034,%eax
   11209:	8b d8                	mov    %eax,%ebx
   1120b:	74 43                	je     0x11250
   1120d:	3b c5                	cmp    %ebp,%eax
   1120f:	75 3f                	jne    0x11250
   11211:	48 8b 4c 24 60       	mov    0x60(%rsp),%rcx
   11216:	48 89 6c 24 40       	mov    %rbp,0x40(%rsp)
   1121b:	48 8d 44 24 68       	lea    0x68(%rsp),%rax
   11220:	48 89 44 24 38       	mov    %rax,0x38(%rsp)
   11225:	8b 07                	mov    (%rdi),%eax
   11227:	45 33 c9             	xor    %r9d,%r9d
   1122a:	89 44 24 30          	mov    %eax,0x30(%rsp)
   1122e:	48 8d 44 24 70       	lea    0x70(%rsp),%rax
   11233:	45 33 c0             	xor    %r8d,%r8d
   11236:	33 d2                	xor    %edx,%edx
   11238:	48 89 74 24 28       	mov    %rsi,0x28(%rsp)
   1123d:	48 89 44 24 20       	mov    %rax,0x20(%rsp)
   11242:	ff 15 70 d5 01 00    	callq  *0x1d570(%rip)        # 0x2e7b8
   11248:	8b d8                	mov    %eax,%ebx
   1124a:	8b 44 24 78          	mov    0x78(%rsp),%eax
   1124e:	89 07                	mov    %eax,(%rdi)
   11250:	48 8b 4c 24 60       	mov    0x60(%rsp),%rcx
   11255:	48 83 f9 ff          	cmp    $0xffffffffffffffff,%rcx
   11259:	74 06                	je     0x11261
   1125b:	ff 15 5f d5 01 00    	callq  *0x1d55f(%rip)        # 0x2e7c0
   11261:	4c 8d 9c 24 c0 00 00 	lea    0xc0(%rsp),%r11
   11268:	00 
   11269:	8b c3                	mov    %ebx,%eax
   1126b:	49 8b 5b 10          	mov    0x10(%r11),%rbx
   1126f:	49 8b 6b 18          	mov    0x18(%r11),%rbp
   11273:	49 8b 73 20          	mov    0x20(%r11),%rsi
   11277:	49 8b e3             	mov    %r11,%rsp
   1127a:	5f                   	pop    %rdi
   1127b:	c3                   	retq   
   1127c:	cc                   	int3   
   1127d:	cc                   	int3   
   1127e:	cc                   	int3   
   1127f:	cc                   	int3   
   11280:	cc                   	int3   
   11281:	cc                   	int3   
   11282:	cc                   	int3   
   11283:	cc                   	int3   
   11284:	48 8b c4             	mov    %rsp,%rax
   11287:	48 89 58 10          	mov    %rbx,0x10(%rax)
   1128b:	48 89 68 18          	mov    %rbp,0x18(%rax)
   1128f:	56                   	push   %rsi
   11290:	57                   	push   %rdi
   11291:	41 54                	push   %r12
   11293:	48 81 ec b0 00 00 00 	sub    $0xb0,%rsp
   1129a:	45 33 e4             	xor    %r12d,%r12d
   1129d:	49 8b f8             	mov    %r8,%rdi
   112a0:	48 8b d9             	mov    %rcx,%rbx
   112a3:	40 8a ea             	mov    %dl,%bpl
   112a6:	48 8d 48 c0          	lea    -0x40(%rax),%rcx
   112aa:	45 8d 44 24 28       	lea    0x28(%r12),%r8d
   112af:	33 d2                	xor    %edx,%edx
   112b1:	49 8b f1             	mov    %r9,%rsi
   112b4:	44 89 60 b8          	mov    %r12d,-0x48(%rax)
   112b8:	e8 d3 f5 00 00       	callq  0x20890
   112bd:	33 c0                	xor    %eax,%eax
   112bf:	49 3b dc             	cmp    %r12,%rbx
   112c2:	89 44 24 64          	mov    %eax,0x64(%rsp)
   112c6:	48 89 44 24 68       	mov    %rax,0x68(%rsp)
   112cb:	44 89 64 24 60       	mov    %r12d,0x60(%rsp)
   112d0:	0f 84 cb 01 00 00    	je     0x114a1
   112d6:	49 3b fc             	cmp    %r12,%rdi
   112d9:	0f 84 c2 01 00 00    	je     0x114a1
   112df:	48 8d 4c 24 70       	lea    0x70(%rsp),%rcx
   112e4:	48 8b d3             	mov    %rbx,%rdx
   112e7:	ff 15 2b 0d 01 00    	callq  *0x10d2b(%rip)        # 0x22018
   112ed:	48 8d 44 24 70       	lea    0x70(%rsp),%rax
   112f2:	c7 84 24 80 00 00 00 	movl   $0x30,0x80(%rsp)
   112f9:	30 00 00 00 
   112fd:	48 89 84 24 90 00 00 	mov    %rax,0x90(%rsp)
   11304:	00 
   11305:	48 8b 05 94 d4 01 00 	mov    0x1d494(%rip),%rax        # 0x2e7a0
   1130c:	4c 89 a4 24 88 00 00 	mov    %r12,0x88(%rsp)
   11313:	00 
   11314:	49 3b c4             	cmp    %r12,%rax
   11317:	c7 84 24 98 00 00 00 	movl   $0x240,0x98(%rsp)
   1131e:	40 02 00 00 
   11322:	48 89 b4 24 a0 00 00 	mov    %rsi,0xa0(%rsp)
   11329:	00 
   1132a:	4c 89 a4 24 a8 00 00 	mov    %r12,0xa8(%rsp)
   11331:	00 
   11332:	75 64                	jne    0x11398
   11334:	4c 39 25 6d d4 01 00 	cmp    %r12,0x1d46d(%rip)        # 0x2e7a8
   1133b:	74 5b                	je     0x11398
   1133d:	4c 39 25 6c d4 01 00 	cmp    %r12,0x1d46c(%rip)        # 0x2e7b0
   11344:	74 52                	je     0x11398
   11346:	4c 39 25 6b d4 01 00 	cmp    %r12,0x1d46b(%rip)        # 0x2e7b8
   1134d:	74 49                	je     0x11398
   1134f:	4c 39 25 6a d4 01 00 	cmp    %r12,0x1d46a(%rip)        # 0x2e7c0
   11356:	74 40                	je     0x11398
   11358:	4c 39 25 69 d4 01 00 	cmp    %r12,0x1d469(%rip)        # 0x2e7c8
   1135f:	74 37                	je     0x11398
   11361:	4c 39 25 68 d4 01 00 	cmp    %r12,0x1d468(%rip)        # 0x2e7d0
   11368:	74 2e                	je     0x11398
   1136a:	4c 39 25 67 d4 01 00 	cmp    %r12,0x1d467(%rip)        # 0x2e7d8
   11371:	74 25                	je     0x11398
   11373:	4c 39 25 66 d4 01 00 	cmp    %r12,0x1d466(%rip)        # 0x2e7e0
   1137a:	74 1c                	je     0x11398
   1137c:	4c 39 25 65 d4 01 00 	cmp    %r12,0x1d465(%rip)        # 0x2e7e8
   11383:	74 13                	je     0x11398
   11385:	4c 39 25 64 d4 01 00 	cmp    %r12,0x1d464(%rip)        # 0x2e7f0
   1138c:	74 0a                	je     0x11398
   1138e:	b9 01 00 00 c0       	mov    $0xc0000001,%ecx
   11393:	e9 0e 01 00 00       	jmpq   0x114a6
   11398:	41 3a ec             	cmp    %r12b,%bpl
   1139b:	44 89 64 24 50       	mov    %r12d,0x50(%rsp)
   113a0:	bb 80 00 00 00       	mov    $0x80,%ebx
   113a5:	4c 89 64 24 48       	mov    %r12,0x48(%rsp)
   113aa:	4c 8d 4c 24 60       	lea    0x60(%rsp),%r9
   113af:	4c 8d 84 24 80 00 00 	lea    0x80(%rsp),%r8
   113b6:	00 
   113b7:	48 8d 8c 24 d0 00 00 	lea    0xd0(%rsp),%rcx
   113be:	00 
   113bf:	74 4c                	je     0x1140d
   113c1:	c7 44 24 40 20 00 00 	movl   $0x20,0x40(%rsp)
   113c8:	00 
   113c9:	c7 44 24 38 01 00 00 	movl   $0x1,0x38(%rsp)
   113d0:	00 
   113d1:	44 89 64 24 30       	mov    %r12d,0x30(%rsp)
   113d6:	ba 04 00 10 00       	mov    $0x100004,%edx
   113db:	89 5c 24 28          	mov    %ebx,0x28(%rsp)
   113df:	4c 89 64 24 20       	mov    %r12,0x20(%rsp)
   113e4:	ff d0                	callq  *%rax
   113e6:	41 3b c4             	cmp    %r12d,%eax
   113e9:	8b c8                	mov    %eax,%ecx
   113eb:	0f 8d a3 00 00 00    	jge    0x11494
   113f1:	44 89 64 24 50       	mov    %r12d,0x50(%rsp)
   113f6:	4c 89 64 24 48       	mov    %r12,0x48(%rsp)
   113fb:	c7 44 24 40 20 00 00 	movl   $0x20,0x40(%rsp)
   11402:	00 
   11403:	c7 44 24 38 03 00 00 	movl   $0x3,0x38(%rsp)
   1140a:	00 
   1140b:	eb 52                	jmp    0x1145f
   1140d:	c7 44 24 40 20 10 00 	movl   $0x1020,0x40(%rsp)
   11414:	00 
   11415:	c7 44 24 38 01 00 00 	movl   $0x1,0x38(%rsp)
   1141c:	00 
   1141d:	44 89 64 24 30       	mov    %r12d,0x30(%rsp)
   11422:	ba 00 00 10 40       	mov    $0x40100000,%edx
   11427:	89 5c 24 28          	mov    %ebx,0x28(%rsp)
   1142b:	4c 89 64 24 20       	mov    %r12,0x20(%rsp)
   11430:	ff d0                	callq  *%rax
   11432:	41 3b c4             	cmp    %r12d,%eax
   11435:	7c 0e                	jl     0x11445
   11437:	48 8b 8c 24 d0 00 00 	mov    0xd0(%rsp),%rcx
   1143e:	00 
   1143f:	ff 15 7b d3 01 00    	callq  *0x1d37b(%rip)        # 0x2e7c0
   11445:	44 89 64 24 50       	mov    %r12d,0x50(%rsp)
   1144a:	4c 89 64 24 48       	mov    %r12,0x48(%rsp)
   1144f:	c7 44 24 40 20 00 00 	movl   $0x20,0x40(%rsp)
   11456:	00 
   11457:	c7 44 24 38 05 00 00 	movl   $0x5,0x38(%rsp)
   1145e:	00 
   1145f:	44 89 64 24 30       	mov    %r12d,0x30(%rsp)
   11464:	4c 8d 4c 24 60       	lea    0x60(%rsp),%r9
   11469:	4c 8d 84 24 80 00 00 	lea    0x80(%rsp),%r8
   11470:	00 
   11471:	48 8d 8c 24 d0 00 00 	lea    0xd0(%rsp),%rcx
   11478:	00 
   11479:	ba 00 00 10 40       	mov    $0x40100000,%edx
   1147e:	89 5c 24 28          	mov    %ebx,0x28(%rsp)
   11482:	4c 89 64 24 20       	mov    %r12,0x20(%rsp)
   11487:	ff 15 13 d3 01 00    	callq  *0x1d313(%rip)        # 0x2e7a0
   1148d:	41 3b c4             	cmp    %r12d,%eax
   11490:	8b c8                	mov    %eax,%ecx
   11492:	7c 12                	jl     0x114a6
   11494:	48 8b 84 24 d0 00 00 	mov    0xd0(%rsp),%rax
   1149b:	00 
   1149c:	48 89 07             	mov    %rax,(%rdi)
   1149f:	eb 05                	jmp    0x114a6
   114a1:	b9 0d 00 00 c0       	mov    $0xc000000d,%ecx
   114a6:	4c 8d 9c 24 b0 00 00 	lea    0xb0(%rsp),%r11
   114ad:	00 
   114ae:	8b c1                	mov    %ecx,%eax
   114b0:	49 8b 5b 28          	mov    0x28(%r11),%rbx
   114b4:	49 8b 6b 30          	mov    0x30(%r11),%rbp
   114b8:	49 8b e3             	mov    %r11,%rsp
   114bb:	41 5c                	pop    %r12
   114bd:	5f                   	pop    %rdi
   114be:	5e                   	pop    %rsi
   114bf:	c3                   	retq   
   114c0:	cc                   	int3   
   114c1:	cc                   	int3   
   114c2:	cc                   	int3   
   114c3:	cc                   	int3   
   114c4:	cc                   	int3   
   114c5:	cc                   	int3   
   114c6:	cc                   	int3   
   114c7:	cc                   	int3   
   114c8:	4c 8b dc             	mov    %rsp,%r11
   114cb:	49 89 5b 08          	mov    %rbx,0x8(%r11)
   114cf:	49 89 6b 10          	mov    %rbp,0x10(%r11)
   114d3:	49 89 73 18          	mov    %rsi,0x18(%r11)
   114d7:	57                   	push   %rdi
   114d8:	48 81 ec e0 02 00 00 	sub    $0x2e0,%rsp
   114df:	33 ed                	xor    %ebp,%ebp
   114e1:	48 8b f1             	mov    %rcx,%rsi
   114e4:	48 8b fa             	mov    %rdx,%rdi
   114e7:	33 c0                	xor    %eax,%eax
   114e9:	49 8d 8b d0 fd ff ff 	lea    -0x230(%r11),%rcx
   114f0:	44 8d 45 28          	lea    0x28(%rbp),%r8d
   114f4:	33 d2                	xor    %edx,%edx
   114f6:	41 8a d9             	mov    %r9b,%bl
   114f9:	89 6c 24 68          	mov    %ebp,0x68(%rsp)
   114fd:	89 44 24 6c          	mov    %eax,0x6c(%rsp)
   11501:	48 89 6c 24 60       	mov    %rbp,0x60(%rsp)
   11506:	49 89 ab 98 fd ff ff 	mov    %rbp,-0x268(%r11)
   1150d:	89 ac 24 b0 00 00 00 	mov    %ebp,0xb0(%rsp)
   11514:	e8 77 f3 00 00       	callq  0x20890
   11519:	4c 8b 8c 24 10 03 00 	mov    0x310(%rsp),%r9
   11520:	00 
   11521:	33 c0                	xor    %eax,%eax
   11523:	4c 8d 84 24 80 00 00 	lea    0x80(%rsp),%r8
   1152a:	00 
   1152b:	8a d3                	mov    %bl,%dl
   1152d:	48 8b cf             	mov    %rdi,%rcx
   11530:	89 6c 24 70          	mov    %ebp,0x70(%rsp)
   11534:	89 ac 24 98 00 00 00 	mov    %ebp,0x98(%rsp)
   1153b:	89 44 24 74          	mov    %eax,0x74(%rsp)
   1153f:	48 89 44 24 78       	mov    %rax,0x78(%rsp)
   11544:	89 84 24 9c 00 00 00 	mov    %eax,0x9c(%rsp)
   1154b:	48 89 84 24 a0 00 00 	mov    %rax,0xa0(%rsp)
   11552:	00 
   11553:	e8 2c fd ff ff       	callq  0x11284
   11558:	48 8b 9c 24 80 00 00 	mov    0x80(%rsp),%rbx
   1155f:	00 
   11560:	3b c5                	cmp    %ebp,%eax
   11562:	8b f8                	mov    %eax,%edi
   11564:	0f 8c ed 01 00 00    	jl     0x11757
   1156a:	48 83 c9 ff          	or     $0xffffffffffffffff,%rcx
   1156e:	33 c0                	xor    %eax,%eax
   11570:	48 8b fe             	mov    %rsi,%rdi
   11573:	66 f2 af             	repnz scas %es:(%rdi),%ax
   11576:	48 8d 84 24 88 00 00 	lea    0x88(%rsp),%rax
   1157d:	00 
   1157e:	48 89 b4 24 90 00 00 	mov    %rsi,0x90(%rsp)
   11585:	00 
   11586:	48 f7 d1             	not    %rcx
   11589:	c7 84 24 b0 00 00 00 	movl   $0x30,0xb0(%rsp)
   11590:	30 00 00 00 
   11594:	48 89 ac 24 b8 00 00 	mov    %rbp,0xb8(%rsp)
   1159b:	00 
   1159c:	48 83 e9 01          	sub    $0x1,%rcx
   115a0:	c7 84 24 c8 00 00 00 	movl   $0x40,0xc8(%rsp)
   115a7:	40 00 00 00 
   115ab:	48 89 84 24 c0 00 00 	mov    %rax,0xc0(%rsp)
   115b2:	00 
   115b3:	66 03 c9             	add    %cx,%cx
   115b6:	48 39 2d e3 d1 01 00 	cmp    %rbp,0x1d1e3(%rip)        # 0x2e7a0
   115bd:	48 89 ac 24 d0 00 00 	mov    %rbp,0xd0(%rsp)
   115c4:	00 
   115c5:	66 89 8c 24 88 00 00 	mov    %cx,0x88(%rsp)
   115cc:	00 
   115cd:	66 89 8c 24 8a 00 00 	mov    %cx,0x8a(%rsp)
   115d4:	00 
   115d5:	48 89 ac 24 d8 00 00 	mov    %rbp,0xd8(%rsp)
   115dc:	00 
   115dd:	75 64                	jne    0x11643
   115df:	48 39 2d c2 d1 01 00 	cmp    %rbp,0x1d1c2(%rip)        # 0x2e7a8
   115e6:	74 5b                	je     0x11643
   115e8:	48 39 2d c1 d1 01 00 	cmp    %rbp,0x1d1c1(%rip)        # 0x2e7b0
   115ef:	74 52                	je     0x11643
   115f1:	48 39 2d c0 d1 01 00 	cmp    %rbp,0x1d1c0(%rip)        # 0x2e7b8
   115f8:	74 49                	je     0x11643
   115fa:	48 39 2d bf d1 01 00 	cmp    %rbp,0x1d1bf(%rip)        # 0x2e7c0
   11601:	74 40                	je     0x11643
   11603:	48 39 2d be d1 01 00 	cmp    %rbp,0x1d1be(%rip)        # 0x2e7c8
   1160a:	74 37                	je     0x11643
   1160c:	48 39 2d bd d1 01 00 	cmp    %rbp,0x1d1bd(%rip)        # 0x2e7d0
   11613:	74 2e                	je     0x11643
   11615:	48 39 2d bc d1 01 00 	cmp    %rbp,0x1d1bc(%rip)        # 0x2e7d8
   1161c:	74 25                	je     0x11643
   1161e:	48 39 2d bb d1 01 00 	cmp    %rbp,0x1d1bb(%rip)        # 0x2e7e0
   11625:	74 1c                	je     0x11643
   11627:	48 39 2d ba d1 01 00 	cmp    %rbp,0x1d1ba(%rip)        # 0x2e7e8
   1162e:	74 13                	je     0x11643
   11630:	48 39 2d b9 d1 01 00 	cmp    %rbp,0x1d1b9(%rip)        # 0x2e7f0
   11637:	74 0a                	je     0x11643
   11639:	bf 01 00 00 c0       	mov    $0xc0000001,%edi
   1163e:	e9 14 01 00 00       	jmpq   0x11757
   11643:	89 6c 24 50          	mov    %ebp,0x50(%rsp)
   11647:	48 89 6c 24 48       	mov    %rbp,0x48(%rsp)
   1164c:	c7 44 24 40 20 00 00 	movl   $0x20,0x40(%rsp)
   11653:	00 
   11654:	c7 44 24 38 01 00 00 	movl   $0x1,0x38(%rsp)
   1165b:	00 
   1165c:	89 6c 24 30          	mov    %ebp,0x30(%rsp)
   11660:	4c 8d 4c 24 70       	lea    0x70(%rsp),%r9
   11665:	4c 8d 84 24 b0 00 00 	lea    0xb0(%rsp),%r8
   1166c:	00 
   1166d:	48 8d 4c 24 60       	lea    0x60(%rsp),%rcx
   11672:	ba 00 00 10 c0       	mov    $0xc0100000,%edx
   11677:	c7 44 24 28 80 00 00 	movl   $0x80,0x28(%rsp)
   1167e:	00 
   1167f:	48 89 6c 24 20       	mov    %rbp,0x20(%rsp)
   11684:	ff 15 16 d1 01 00    	callq  *0x1d116(%rip)        # 0x2e7a0
   1168a:	3b c5                	cmp    %ebp,%eax
   1168c:	8b f8                	mov    %eax,%edi
   1168e:	0f 85 c3 00 00 00    	jne    0x11757
   11694:	48 8b 44 24 68       	mov    0x68(%rsp),%rax
   11699:	48 8b 4c 24 60       	mov    0x60(%rsp),%rcx
   1169e:	48 89 84 24 a8 00 00 	mov    %rax,0xa8(%rsp)
   116a5:	00 
   116a6:	48 89 6c 24 40       	mov    %rbp,0x40(%rsp)
   116ab:	48 8d 44 24 68       	lea    0x68(%rsp),%rax
   116b0:	45 33 c9             	xor    %r9d,%r9d
   116b3:	45 33 c0             	xor    %r8d,%r8d
   116b6:	48 89 44 24 38       	mov    %rax,0x38(%rsp)
   116bb:	48 8d 84 24 e0 00 00 	lea    0xe0(%rsp),%rax
   116c2:	00 
   116c3:	c7 44 24 30 00 02 00 	movl   $0x200,0x30(%rsp)
   116ca:	00 
   116cb:	48 89 44 24 28       	mov    %rax,0x28(%rsp)
   116d0:	48 8d 44 24 70       	lea    0x70(%rsp),%rax
   116d5:	33 d2                	xor    %edx,%edx
   116d7:	48 89 44 24 20       	mov    %rax,0x20(%rsp)
   116dc:	ff 15 d6 d0 01 00    	callq  *0x1d0d6(%rip)        # 0x2e7b8
   116e2:	3d 11 00 00 c0       	cmp    $0xc0000011,%eax
   116e7:	8b f8                	mov    %eax,%edi
   116e9:	75 07                	jne    0x116f2
   116eb:	48 39 6c 24 78       	cmp    %rbp,0x78(%rsp)
   116f0:	74 63                	je     0x11755
   116f2:	3b c5                	cmp    %ebp,%eax
   116f4:	75 61                	jne    0x11757
   116f6:	48 89 6c 24 40       	mov    %rbp,0x40(%rsp)
   116fb:	48 8d 84 24 a8 00 00 	lea    0xa8(%rsp),%rax
   11702:	00 
   11703:	45 33 c9             	xor    %r9d,%r9d
   11706:	48 89 44 24 38       	mov    %rax,0x38(%rsp)
   1170b:	8b 44 24 78          	mov    0x78(%rsp),%eax
   1170f:	45 33 c0             	xor    %r8d,%r8d
   11712:	89 44 24 30          	mov    %eax,0x30(%rsp)
   11716:	48 8d 84 24 e0 00 00 	lea    0xe0(%rsp),%rax
   1171d:	00 
   1171e:	33 d2                	xor    %edx,%edx
   11720:	48 89 44 24 28       	mov    %rax,0x28(%rsp)
   11725:	48 8d 84 24 98 00 00 	lea    0x98(%rsp),%rax
   1172c:	00 
   1172d:	48 8b cb             	mov    %rbx,%rcx
   11730:	48 89 44 24 20       	mov    %rax,0x20(%rsp)
   11735:	ff 15 75 d0 01 00    	callq  *0x1d075(%rip)        # 0x2e7b0
   1173b:	3b c5                	cmp    %ebp,%eax
   1173d:	8b f8                	mov    %eax,%edi
   1173f:	75 16                	jne    0x11757
   11741:	48 8b 44 24 68       	mov    0x68(%rsp),%rax
   11746:	48 03 44 24 78       	add    0x78(%rsp),%rax
   1174b:	48 89 44 24 68       	mov    %rax,0x68(%rsp)
   11750:	e9 44 ff ff ff       	jmpq   0x11699
   11755:	8b fd                	mov    %ebp,%edi
   11757:	48 8b 4c 24 60       	mov    0x60(%rsp),%rcx
   1175c:	48 3b cd             	cmp    %rbp,%rcx
   1175f:	74 0b                	je     0x1176c
   11761:	ff 15 59 d0 01 00    	callq  *0x1d059(%rip)        # 0x2e7c0
   11767:	48 89 6c 24 60       	mov    %rbp,0x60(%rsp)
   1176c:	48 3b dd             	cmp    %rbp,%rbx
   1176f:	74 09                	je     0x1177a
   11771:	48 8b cb             	mov    %rbx,%rcx
   11774:	ff 15 46 d0 01 00    	callq  *0x1d046(%rip)        # 0x2e7c0
   1177a:	3b fd                	cmp    %ebp,%edi
   1177c:	7c 58                	jl     0x117d6
   1177e:	89 6c 24 50          	mov    %ebp,0x50(%rsp)
   11782:	48 89 6c 24 48       	mov    %rbp,0x48(%rsp)
   11787:	c7 44 24 40 20 10 00 	movl   $0x1020,0x40(%rsp)
   1178e:	00 
   1178f:	c7 44 24 38 01 00 00 	movl   $0x1,0x38(%rsp)
   11796:	00 
   11797:	89 6c 24 30          	mov    %ebp,0x30(%rsp)
   1179b:	4c 8d 4c 24 70       	lea    0x70(%rsp),%r9
   117a0:	4c 8d 84 24 b0 00 00 	lea    0xb0(%rsp),%r8
   117a7:	00 
   117a8:	48 8d 4c 24 60       	lea    0x60(%rsp),%rcx
   117ad:	ba 00 00 10 c0       	mov    $0xc0100000,%edx
   117b2:	c7 44 24 28 80 00 00 	movl   $0x80,0x28(%rsp)
   117b9:	00 
   117ba:	48 89 6c 24 20       	mov    %rbp,0x20(%rsp)
   117bf:	ff 15 db cf 01 00    	callq  *0x1cfdb(%rip)        # 0x2e7a0
   117c5:	3b c5                	cmp    %ebp,%eax
   117c7:	8b f8                	mov    %eax,%edi
   117c9:	7c 0b                	jl     0x117d6
   117cb:	48 8b 4c 24 60       	mov    0x60(%rsp),%rcx
   117d0:	ff 15 ea cf 01 00    	callq  *0x1cfea(%rip)        # 0x2e7c0
   117d6:	4c 8d 9c 24 e0 02 00 	lea    0x2e0(%rsp),%r11
   117dd:	00 
   117de:	8b c7                	mov    %edi,%eax
   117e0:	49 8b 5b 10          	mov    0x10(%r11),%rbx
   117e4:	49 8b 6b 18          	mov    0x18(%r11),%rbp
   117e8:	49 8b 73 20          	mov    0x20(%r11),%rsi
   117ec:	49 8b e3             	mov    %r11,%rsp
   117ef:	5f                   	pop    %rdi
   117f0:	c3                   	retq   
   117f1:	cc                   	int3   
   117f2:	cc                   	int3   
   117f3:	cc                   	int3   
   117f4:	cc                   	int3   
   117f5:	cc                   	int3   
   117f6:	cc                   	int3   
   117f7:	cc                   	int3   
   117f8:	48 89 5c 24 08       	mov    %rbx,0x8(%rsp)
   117fd:	48 89 74 24 10       	mov    %rsi,0x10(%rsp)
   11802:	57                   	push   %rdi
   11803:	48 81 ec 40 02 00 00 	sub    $0x240,%rsp
   1180a:	48 8b fa             	mov    %rdx,%rdi
   1180d:	48 8b f1             	mov    %rcx,%rsi
   11810:	e8 7f 57 00 00       	callq  0x16f94
   11815:	e8 52 f8 ff ff       	callq  0x1106c
   1181a:	33 db                	xor    %ebx,%ebx
   1181c:	3a c3                	cmp    %bl,%al
   1181e:	75 0a                	jne    0x1182a
   11820:	b8 12 00 14 c0       	mov    $0xc0140012,%eax
   11825:	e9 ea 00 00 00       	jmpq   0x11914
   1182a:	e8 01 01 00 00       	callq  0x11930
   1182f:	48 8d 4c 24 30       	lea    0x30(%rsp),%rcx
   11834:	66 ba 70 00          	mov    $0x70,%dx
   11838:	e8 cb f7 ff ff       	callq  0x11008
   1183d:	3b c3                	cmp    %ebx,%eax
   1183f:	0f 8c c9 00 00 00    	jl     0x1190e
   11845:	48 8d 4c 24 30       	lea    0x30(%rsp),%rcx
   1184a:	45 33 c9             	xor    %r9d,%r9d
   1184d:	41 b0 01             	mov    $0x1,%r8b
   11850:	48 8b d6             	mov    %rsi,%rdx
   11853:	48 89 7c 24 20       	mov    %rdi,0x20(%rsp)
   11858:	e8 6b fc ff ff       	callq  0x114c8
   1185d:	48 39 1d 3c cf 01 00 	cmp    %rbx,0x1cf3c(%rip)        # 0x2e7a0
   11864:	4c 8b 1d 55 cf 01 00 	mov    0x1cf55(%rip),%r11        # 0x2e7c0
   1186b:	75 5d                	jne    0x118ca
   1186d:	48 39 1d 34 cf 01 00 	cmp    %rbx,0x1cf34(%rip)        # 0x2e7a8
   11874:	74 54                	je     0x118ca
   11876:	48 39 1d 33 cf 01 00 	cmp    %rbx,0x1cf33(%rip)        # 0x2e7b0
   1187d:	74 4b                	je     0x118ca
   1187f:	48 39 1d 32 cf 01 00 	cmp    %rbx,0x1cf32(%rip)        # 0x2e7b8
   11886:	74 42                	je     0x118ca
   11888:	4c 3b db             	cmp    %rbx,%r11
   1188b:	74 3d                	je     0x118ca
   1188d:	48 39 1d 34 cf 01 00 	cmp    %rbx,0x1cf34(%rip)        # 0x2e7c8
   11894:	74 34                	je     0x118ca
   11896:	48 39 1d 33 cf 01 00 	cmp    %rbx,0x1cf33(%rip)        # 0x2e7d0
   1189d:	74 2b                	je     0x118ca
   1189f:	48 39 1d 32 cf 01 00 	cmp    %rbx,0x1cf32(%rip)        # 0x2e7d8
   118a6:	74 22                	je     0x118ca
   118a8:	48 39 1d 31 cf 01 00 	cmp    %rbx,0x1cf31(%rip)        # 0x2e7e0
   118af:	74 19                	je     0x118ca
   118b1:	48 39 1d 30 cf 01 00 	cmp    %rbx,0x1cf30(%rip)        # 0x2e7e8
   118b8:	74 10                	je     0x118ca
   118ba:	48 39 1d 2f cf 01 00 	cmp    %rbx,0x1cf2f(%rip)        # 0x2e7f0
   118c1:	74 07                	je     0x118ca
   118c3:	b8 01 00 00 c0       	mov    $0xc0000001,%eax
   118c8:	eb 44                	jmp    0x1190e
   118ca:	48 8b 0d 47 c8 01 00 	mov    0x1c847(%rip),%rcx        # 0x2e118
   118d1:	41 ff d3             	callq  *%r11
   118d4:	48 83 0d 3c c8 01 00 	orq    $0xffffffffffffffff,0x1c83c(%rip)        # 0x2e118
   118db:	ff 
   118dc:	41 b1 01             	mov    $0x1,%r9b
   118df:	48 8d 0d 3a c8 01 00 	lea    0x1c83a(%rip),%rcx        # 0x2e120
   118e6:	45 8a c1             	mov    %r9b,%r8b
   118e9:	48 8b d6             	mov    %rsi,%rdx
   118ec:	48 89 7c 24 20       	mov    %rdi,0x20(%rsp)
   118f1:	e8 d2 fb ff ff       	callq  0x114c8
   118f6:	4c 8d 05 1b c8 01 00 	lea    0x1c81b(%rip),%r8        # 0x2e118
   118fd:	48 8d 0d 1c c8 01 00 	lea    0x1c81c(%rip),%rcx        # 0x2e120
   11904:	45 33 c9             	xor    %r9d,%r9d
   11907:	33 d2                	xor    %edx,%edx
   11909:	e8 76 f9 ff ff       	callq  0x11284
   1190e:	87 1d 68 ce 01 00    	xchg   %ebx,0x1ce68(%rip)        # 0x2e77c
   11914:	4c 8d 9c 24 40 02 00 	lea    0x240(%rsp),%r11
   1191b:	00 
   1191c:	49 8b 5b 10          	mov    0x10(%r11),%rbx
   11920:	49 8b 73 18          	mov    0x18(%r11),%rsi
   11924:	49 8b e3             	mov    %r11,%rsp
   11927:	5f                   	pop    %rdi
   11928:	c3                   	retq   
   11929:	cc                   	int3   
   1192a:	cc                   	int3   
   1192b:	cc                   	int3   
   1192c:	cc                   	int3   
   1192d:	cc                   	int3   
   1192e:	cc                   	int3   
   1192f:	cc                   	int3   
   11930:	48 8b c4             	mov    %rsp,%rax
   11933:	48 81 ec 38 02 00 00 	sub    $0x238,%rsp
   1193a:	48 8d 4c 24 20       	lea    0x20(%rsp),%rcx
   1193f:	66 ba 5f 00          	mov    $0x5f,%dx
   11943:	c7 40 08 08 00 00 00 	movl   $0x8,0x8(%rax)
   1194a:	e8 b9 f6 ff ff       	callq  0x11008
   1194f:	85 c0                	test   %eax,%eax
   11951:	44 8b d8             	mov    %eax,%r11d
   11954:	78 76                	js     0x119cc
   11956:	4c 8d 84 24 40 02 00 	lea    0x240(%rsp),%r8
   1195d:	00 
   1195e:	48 8d 94 24 48 02 00 	lea    0x248(%rsp),%rdx
   11965:	00 
   11966:	48 8d 4c 24 20       	lea    0x20(%rsp),%rcx
   1196b:	45 33 c9             	xor    %r9d,%r9d
   1196e:	e8 5d f7 ff ff       	callq  0x110d0
   11973:	3d 34 00 00 c0       	cmp    $0xc0000034,%eax
   11978:	44 8b d8             	mov    %eax,%r11d
   1197b:	74 4f                	je     0x119cc
   1197d:	85 c0                	test   %eax,%eax
   1197f:	78 4b                	js     0x119cc
   11981:	83 bc 24 40 02 00 00 	cmpl   $0x8,0x240(%rsp)
   11988:	08 
   11989:	75 41                	jne    0x119cc
   1198b:	8b 94 24 48 02 00 00 	mov    0x248(%rsp),%edx
   11992:	48 8d 84 24 48 02 00 	lea    0x248(%rsp),%rax
   11999:	00 
   1199a:	b9 02 00 00 00       	mov    $0x2,%ecx
   1199f:	31 10                	xor    %edx,(%rax)
   119a1:	48 83 c0 04          	add    $0x4,%rax
   119a5:	48 83 e9 01          	sub    $0x1,%rcx
   119a9:	75 f4                	jne    0x1199f
   119ab:	8b 94 24 4c 02 00 00 	mov    0x24c(%rsp),%edx
   119b2:	8b 0d 70 c9 01 00    	mov    0x1c970(%rip),%ecx        # 0x2e328
   119b8:	8d 82 ff ff fe ff    	lea    -0x10001(%rdx),%eax
   119be:	3d fe ff 7e 0c       	cmp    $0xc7efffe,%eax
   119c3:	0f 46 ca             	cmovbe %edx,%ecx
   119c6:	89 0d 5c c9 01 00    	mov    %ecx,0x1c95c(%rip)        # 0x2e328
   119cc:	41 8b c3             	mov    %r11d,%eax
   119cf:	48 81 c4 38 02 00 00 	add    $0x238,%rsp
   119d6:	c3                   	retq   
   119d7:	cc                   	int3   
   119d8:	cc                   	int3   
   119d9:	cc                   	int3   
   119da:	cc                   	int3   
   119db:	cc                   	int3   
   119dc:	cc                   	int3   
   119dd:	cc                   	int3   
   119de:	cc                   	int3   
   119df:	cc                   	int3   
   119e0:	48 89 5c 24 08       	mov    %rbx,0x8(%rsp)
   119e5:	48 89 6c 24 10       	mov    %rbp,0x10(%rsp)
   119ea:	48 89 74 24 18       	mov    %rsi,0x18(%rsp)
   119ef:	57                   	push   %rdi
   119f0:	48 81 ec 70 02 00 00 	sub    $0x270,%rsp
   119f7:	33 c0                	xor    %eax,%eax
   119f9:	33 db                	xor    %ebx,%ebx
   119fb:	8b f2                	mov    %edx,%esi
   119fd:	89 5c 24 50          	mov    %ebx,0x50(%rsp)
   11a01:	89 44 24 54          	mov    %eax,0x54(%rsp)
   11a05:	48 89 44 24 58       	mov    %rax,0x58(%rsp)
   11a0a:	48 8b e9             	mov    %rcx,%rbp
   11a0d:	e8 5a f6 ff ff       	callq  0x1106c
   11a12:	3a c3                	cmp    %bl,%al
   11a14:	75 0a                	jne    0x11a20
   11a16:	b8 12 00 14 c0       	mov    $0xc0140012,%eax
   11a1b:	e9 54 01 00 00       	jmpq   0x11b74
   11a20:	48 83 3d f0 c6 01 00 	cmpq   $0xffffffffffffffff,0x1c6f0(%rip)        # 0x2e118
   11a27:	ff 
   11a28:	75 0a                	jne    0x11a34
   11a2a:	b8 08 00 00 c0       	mov    $0xc0000008,%eax
   11a2f:	e9 3a 01 00 00       	jmpq   0x11b6e
   11a34:	48 39 1d 65 cd 01 00 	cmp    %rbx,0x1cd65(%rip)        # 0x2e7a0
   11a3b:	75 64                	jne    0x11aa1
   11a3d:	48 39 1d 64 cd 01 00 	cmp    %rbx,0x1cd64(%rip)        # 0x2e7a8
   11a44:	74 5b                	je     0x11aa1
   11a46:	48 39 1d 63 cd 01 00 	cmp    %rbx,0x1cd63(%rip)        # 0x2e7b0
   11a4d:	74 52                	je     0x11aa1
   11a4f:	48 39 1d 62 cd 01 00 	cmp    %rbx,0x1cd62(%rip)        # 0x2e7b8
   11a56:	74 49                	je     0x11aa1
   11a58:	48 39 1d 61 cd 01 00 	cmp    %rbx,0x1cd61(%rip)        # 0x2e7c0
   11a5f:	74 40                	je     0x11aa1
   11a61:	48 39 1d 60 cd 01 00 	cmp    %rbx,0x1cd60(%rip)        # 0x2e7c8
   11a68:	74 37                	je     0x11aa1
   11a6a:	48 39 1d 5f cd 01 00 	cmp    %rbx,0x1cd5f(%rip)        # 0x2e7d0
   11a71:	74 2e                	je     0x11aa1
   11a73:	48 39 1d 5e cd 01 00 	cmp    %rbx,0x1cd5e(%rip)        # 0x2e7d8
   11a7a:	74 25                	je     0x11aa1
   11a7c:	48 39 1d 5d cd 01 00 	cmp    %rbx,0x1cd5d(%rip)        # 0x2e7e0
   11a83:	74 1c                	je     0x11aa1
   11a85:	48 39 1d 5c cd 01 00 	cmp    %rbx,0x1cd5c(%rip)        # 0x2e7e8
   11a8c:	74 13                	je     0x11aa1
   11a8e:	48 39 1d 5b cd 01 00 	cmp    %rbx,0x1cd5b(%rip)        # 0x2e7f0
   11a95:	74 0a                	je     0x11aa1
   11a97:	b8 01 00 00 c0       	mov    $0xc0000001,%eax
   11a9c:	e9 cd 00 00 00       	jmpq   0x11b6e
   11aa1:	e8 8a fe ff ff       	callq  0x11930
   11aa6:	48 8b 05 d3 cc 01 00 	mov    0x1ccd3(%rip),%rax        # 0x2e780
   11aad:	48 8d 0c 06          	lea    (%rsi,%rax,1),%rcx
   11ab1:	8b 05 71 c8 01 00    	mov    0x1c871(%rip),%eax        # 0x2e328
   11ab7:	48 3b c1             	cmp    %rcx,%rax
   11aba:	7d 79                	jge    0x11b35
   11abc:	48 8d 4c 24 60       	lea    0x60(%rsp),%rcx
   11ac1:	66 ba 70 00          	mov    $0x70,%dx
   11ac5:	e8 3e f5 ff ff       	callq  0x11008
   11aca:	3b c3                	cmp    %ebx,%eax
   11acc:	0f 8c 9c 00 00 00    	jl     0x11b6e
   11ad2:	48 8b 0d 3f c6 01 00 	mov    0x1c63f(%rip),%rcx        # 0x2e118
   11ad9:	ff 15 e1 cc 01 00    	callq  *0x1cce1(%rip)        # 0x2e7c0
   11adf:	48 83 0d 31 c6 01 00 	orq    $0xffffffffffffffff,0x1c631(%rip)        # 0x2e118
   11ae6:	ff 
   11ae7:	48 8d 54 24 60       	lea    0x60(%rsp),%rdx
   11aec:	48 8d 0d 2d c6 01 00 	lea    0x1c62d(%rip),%rcx        # 0x2e120
   11af3:	45 33 c9             	xor    %r9d,%r9d
   11af6:	41 b0 01             	mov    $0x1,%r8b
   11af9:	48 89 1d 80 cc 01 00 	mov    %rbx,0x1cc80(%rip)        # 0x2e780
   11b00:	48 89 5c 24 20       	mov    %rbx,0x20(%rsp)
   11b05:	e8 be f9 ff ff       	callq  0x114c8
   11b0a:	4c 8d 05 07 c6 01 00 	lea    0x1c607(%rip),%r8        # 0x2e118
   11b11:	48 8d 0d 08 c6 01 00 	lea    0x1c608(%rip),%rcx        # 0x2e120
   11b18:	45 33 c9             	xor    %r9d,%r9d
   11b1b:	33 d2                	xor    %edx,%edx
   11b1d:	e8 62 f7 ff ff       	callq  0x11284
   11b22:	48 8b 0d ef c5 01 00 	mov    0x1c5ef(%rip),%rcx        # 0x2e118
   11b29:	48 83 f9 ff          	cmp    $0xffffffffffffffff,%rcx
   11b2d:	74 3f                	je     0x11b6e
   11b2f:	3b c3                	cmp    %ebx,%eax
   11b31:	7c 3b                	jl     0x11b6e
   11b33:	eb 07                	jmp    0x11b3c
   11b35:	48 8b 0d dc c5 01 00 	mov    0x1c5dc(%rip),%rcx        # 0x2e118
   11b3c:	48 89 5c 24 40       	mov    %rbx,0x40(%rsp)
   11b41:	48 89 5c 24 38       	mov    %rbx,0x38(%rsp)
   11b46:	48 8d 44 24 50       	lea    0x50(%rsp),%rax
   11b4b:	89 74 24 30          	mov    %esi,0x30(%rsp)
   11b4f:	45 33 c9             	xor    %r9d,%r9d
   11b52:	45 33 c0             	xor    %r8d,%r8d
   11b55:	33 d2                	xor    %edx,%edx
   11b57:	48 89 6c 24 28       	mov    %rbp,0x28(%rsp)
   11b5c:	48 89 44 24 20       	mov    %rax,0x20(%rsp)
   11b61:	ff 15 49 cc 01 00    	callq  *0x1cc49(%rip)        # 0x2e7b0
   11b67:	48 01 35 12 cc 01 00 	add    %rsi,0x1cc12(%rip)        # 0x2e780
   11b6e:	87 1d 08 cc 01 00    	xchg   %ebx,0x1cc08(%rip)        # 0x2e77c
   11b74:	4c 8d 9c 24 70 02 00 	lea    0x270(%rsp),%r11
   11b7b:	00 
   11b7c:	49 8b 5b 10          	mov    0x10(%r11),%rbx
   11b80:	49 8b 6b 18          	mov    0x18(%r11),%rbp
   11b84:	49 8b 73 20          	mov    0x20(%r11),%rsi
   11b88:	49 8b e3             	mov    %r11,%rsp
   11b8b:	5f                   	pop    %rdi
   11b8c:	c3                   	retq   
   11b8d:	cc                   	int3   
   11b8e:	cc                   	int3   
   11b8f:	cc                   	int3   
   11b90:	cc                   	int3   
   11b91:	cc                   	int3   
   11b92:	cc                   	int3   
   11b93:	cc                   	int3   
   11b94:	48 8b c4             	mov    %rsp,%rax
   11b97:	48 89 58 08          	mov    %rbx,0x8(%rax)
   11b9b:	48 89 68 10          	mov    %rbp,0x10(%rax)
   11b9f:	56                   	push   %rsi
   11ba0:	57                   	push   %rdi
   11ba1:	41 54                	push   %r12
   11ba3:	41 55                	push   %r13
   11ba5:	41 56                	push   %r14
   11ba7:	48 81 ec 60 03 00 00 	sub    $0x360,%rsp
   11bae:	48 83 60 18 00       	andq   $0x0,0x18(%rax)
   11bb3:	4c 8b e1             	mov    %rcx,%r12
   11bb6:	48 8d 15 53 ef 00 00 	lea    0xef53(%rip),%rdx        # 0x20b10
   11bbd:	48 8d 4c 24 30       	lea    0x30(%rsp),%rcx
   11bc2:	41 b8 7e 00 00 00    	mov    $0x7e,%r8d
   11bc8:	e8 53 e9 00 00       	callq  0x20520
   11bcd:	48 8d 8c 24 b0 00 00 	lea    0xb0(%rsp),%rcx
   11bd4:	00 
   11bd5:	48 8d 15 b4 ef 00 00 	lea    0xefb4(%rip),%rdx        # 0x20b90
   11bdc:	41 b8 96 00 00 00    	mov    $0x96,%r8d
   11be2:	e8 39 e9 00 00       	callq  0x20520
   11be7:	48 8b 05 42 f0 00 00 	mov    0xf042(%rip),%rax        # 0x20c30
   11bee:	48 8d 54 24 20       	lea    0x20(%rsp),%rdx
   11bf3:	48 89 02             	mov    %rax,(%rdx)
   11bf6:	0f b7 05 3b f0 00 00 	movzwl 0xf03b(%rip),%eax        # 0x20c38
   11bfd:	4c 8d 84 24 a0 03 00 	lea    0x3a0(%rsp),%r8
   11c04:	00 
   11c05:	66 89 42 08          	mov    %ax,0x8(%rdx)
   11c09:	48 8d 54 24 20       	lea    0x20(%rsp),%rdx
   11c0e:	48 8d 8c 24 b0 00 00 	lea    0xb0(%rsp),%rcx
   11c15:	00 
   11c16:	e8 85 33 00 00       	callq  0x14fa0
   11c1b:	85 c0                	test   %eax,%eax
   11c1d:	8b d8                	mov    %eax,%ebx
   11c1f:	0f 88 5a 01 00 00    	js     0x11d7f
   11c25:	48 8b b4 24 a0 03 00 	mov    0x3a0(%rsp),%rsi
   11c2c:	00 
   11c2d:	8b 46 08             	mov    0x8(%rsi),%eax
   11c30:	48 8d 6e 0c          	lea    0xc(%rsi),%rbp
   11c34:	85 c0                	test   %eax,%eax
   11c36:	75 0a                	jne    0x11c42
   11c38:	bb 22 00 00 80       	mov    $0x80000022,%ebx
   11c3d:	e9 45 01 00 00       	jmpq   0x11d87
   11c42:	3d e6 00 00 00       	cmp    $0xe6,%eax
   11c47:	76 0a                	jbe    0x11c53
   11c49:	bb 23 00 00 c0       	mov    $0xc0000023,%ebx
   11c4e:	e9 34 01 00 00       	jmpq   0x11d87
   11c53:	49 83 ce ff          	or     $0xffffffffffffffff,%r14
   11c57:	66 83 7d 00 25       	cmpw   $0x25,0x0(%rbp)
   11c5c:	74 13                	je     0x11c71
   11c5e:	4c 8b c0             	mov    %rax,%r8
   11c61:	48 8b d5             	mov    %rbp,%rdx
   11c64:	49 8b cc             	mov    %r12,%rcx
   11c67:	e8 b4 e8 00 00       	callq  0x20520
   11c6c:	e9 e1 00 00 00       	jmpq   0x11d52
   11c71:	48 8d 15 c8 ef 00 00 	lea    0xefc8(%rip),%rdx        # 0x20c40
   11c78:	48 8d 4d 02          	lea    0x2(%rbp),%rcx
   11c7c:	ff 15 a6 03 01 00    	callq  *0x103a6(%rip)        # 0x22028
   11c82:	48 85 c0             	test   %rax,%rax
   11c85:	4c 8b e8             	mov    %rax,%r13
   11c88:	0f 84 f9 00 00 00    	je     0x11d87
   11c8e:	48 8b f8             	mov    %rax,%rdi
   11c91:	48 2b fd             	sub    %rbp,%rdi
   11c94:	48 83 ef 02          	sub    $0x2,%rdi
   11c98:	48 81 ff 06 02 00 00 	cmp    $0x206,%rdi
   11c9f:	77 a8                	ja     0x11c49
   11ca1:	48 8d 55 02          	lea    0x2(%rbp),%rdx
   11ca5:	48 8d 8c 24 50 01 00 	lea    0x150(%rsp),%rcx
   11cac:	00 
   11cad:	4c 8b c7             	mov    %rdi,%r8
   11cb0:	e8 6b e8 00 00       	callq  0x20520
   11cb5:	48 d1 ef             	shr    %rdi
   11cb8:	33 d2                	xor    %edx,%edx
   11cba:	66 83 a4 7c 50 01 00 	andw   $0x0,0x150(%rsp,%rdi,2)
   11cc1:	00 00 
   11cc3:	48 8b ce             	mov    %rsi,%rcx
   11cc6:	ff 15 3c 03 01 00    	callq  *0x1033c(%rip)        # 0x22008
   11ccc:	48 83 a4 24 a0 03 00 	andq   $0x0,0x3a0(%rsp)
   11cd3:	00 00 
   11cd5:	4c 8d 84 24 a0 03 00 	lea    0x3a0(%rsp),%r8
   11cdc:	00 
   11cdd:	48 8d 94 24 50 01 00 	lea    0x150(%rsp),%rdx
   11ce4:	00 
   11ce5:	48 8d 4c 24 30       	lea    0x30(%rsp),%rcx
   11cea:	e8 b1 32 00 00       	callq  0x14fa0
   11cef:	85 c0                	test   %eax,%eax
   11cf1:	8b d8                	mov    %eax,%ebx
   11cf3:	0f 88 86 00 00 00    	js     0x11d7f
   11cf9:	48 8b b4 24 a0 03 00 	mov    0x3a0(%rsp),%rsi
   11d00:	00 
   11d01:	33 c0                	xor    %eax,%eax
   11d03:	49 83 ce ff          	or     $0xffffffffffffffff,%r14
   11d07:	44 8b 46 08          	mov    0x8(%rsi),%r8d
   11d0b:	49 8d 7d 02          	lea    0x2(%r13),%rdi
   11d0f:	49 8b ce             	mov    %r14,%rcx
   11d12:	66 f2 af             	repnz scas %es:(%rdi),%ax
   11d15:	48 f7 d1             	not    %rcx
   11d18:	49 8d 44 48 02       	lea    0x2(%r8,%rcx,2),%rax
   11d1d:	48 3d e6 00 00 00    	cmp    $0xe6,%rax
   11d23:	73 62                	jae    0x11d87
   11d25:	48 8d 56 0c          	lea    0xc(%rsi),%rdx
   11d29:	49 8b cc             	mov    %r12,%rcx
   11d2c:	e8 ef e7 00 00       	callq  0x20520
   11d31:	33 c0                	xor    %eax,%eax
   11d33:	49 8b fc             	mov    %r12,%rdi
   11d36:	49 8b ce             	mov    %r14,%rcx
   11d39:	66 f2 af             	repnz scas %es:(%rdi),%ax
   11d3c:	33 c9                	xor    %ecx,%ecx
   11d3e:	41 0f b7 44 0d 02    	movzwl 0x2(%r13,%rcx,1),%eax
   11d44:	48 83 c1 02          	add    $0x2,%rcx
   11d48:	66 85 c0             	test   %ax,%ax
   11d4b:	66 89 44 0f fc       	mov    %ax,-0x4(%rdi,%rcx,1)
   11d50:	75 ec                	jne    0x11d3e
   11d52:	33 c0                	xor    %eax,%eax
   11d54:	49 8b ce             	mov    %r14,%rcx
   11d57:	49 8b fc             	mov    %r12,%rdi
   11d5a:	66 f2 af             	repnz scas %es:(%rdi),%ax
   11d5d:	48 f7 d1             	not    %rcx
   11d60:	66 41 83 7c 4c fc 5c 	cmpw   $0x5c,-0x4(%r12,%rcx,2)
   11d67:	74 12                	je     0x11d7b
   11d69:	49 8b fc             	mov    %r12,%rdi
   11d6c:	49 8b ce             	mov    %r14,%rcx
   11d6f:	66 f2 af             	repnz scas %es:(%rdi),%ax
   11d72:	8b 05 d8 ee 00 00    	mov    0xeed8(%rip),%eax        # 0x20c50
   11d78:	89 47 fe             	mov    %eax,-0x2(%rdi)
   11d7b:	33 db                	xor    %ebx,%ebx
   11d7d:	eb 08                	jmp    0x11d87
   11d7f:	48 8b b4 24 a0 03 00 	mov    0x3a0(%rsp),%rsi
   11d86:	00 
   11d87:	48 85 f6             	test   %rsi,%rsi
   11d8a:	74 0b                	je     0x11d97
   11d8c:	33 d2                	xor    %edx,%edx
   11d8e:	48 8b ce             	mov    %rsi,%rcx
   11d91:	ff 15 71 02 01 00    	callq  *0x10271(%rip)        # 0x22008
   11d97:	4c 8d 9c 24 60 03 00 	lea    0x360(%rsp),%r11
   11d9e:	00 
   11d9f:	8b c3                	mov    %ebx,%eax
   11da1:	49 8b 5b 30          	mov    0x30(%r11),%rbx
   11da5:	49 8b 6b 38          	mov    0x38(%r11),%rbp
   11da9:	49 8b e3             	mov    %r11,%rsp
   11dac:	41 5e                	pop    %r14
   11dae:	41 5d                	pop    %r13
   11db0:	41 5c                	pop    %r12
   11db2:	5f                   	pop    %rdi
   11db3:	5e                   	pop    %rsi
   11db4:	c3                   	retq   
   11db5:	cc                   	int3   
   11db6:	cc                   	int3   
   11db7:	cc                   	int3   
   11db8:	cc                   	int3   
   11db9:	cc                   	int3   
   11dba:	cc                   	int3   
   11dbb:	cc                   	int3   
   11dbc:	48 8b c4             	mov    %rsp,%rax
   11dbf:	48 89 58 08          	mov    %rbx,0x8(%rax)
   11dc3:	48 89 68 10          	mov    %rbp,0x10(%rax)
   11dc7:	48 89 70 18          	mov    %rsi,0x18(%rax)
   11dcb:	48 89 78 20          	mov    %rdi,0x20(%rax)
   11dcf:	41 55                	push   %r13
   11dd1:	48 81 ec a0 00 00 00 	sub    $0xa0,%rsp
   11dd8:	33 db                	xor    %ebx,%ebx
   11dda:	89 58 88             	mov    %ebx,-0x78(%rax)
   11ddd:	33 c0                	xor    %eax,%eax
   11ddf:	89 44 24 34          	mov    %eax,0x34(%rsp)
   11de3:	48 89 44 24 38       	mov    %rax,0x38(%rsp)
   11de8:	e8 7f f2 ff ff       	callq  0x1106c
   11ded:	3a c3                	cmp    %bl,%al
   11def:	75 0a                	jne    0x11dfb
   11df1:	be 12 00 14 c0       	mov    $0xc0140012,%esi
   11df6:	e9 ae 02 00 00       	jmpq   0x120a9
   11dfb:	48 39 1d 9e c9 01 00 	cmp    %rbx,0x1c99e(%rip)        # 0x2e7a0
   11e02:	75 64                	jne    0x11e68
   11e04:	48 39 1d 9d c9 01 00 	cmp    %rbx,0x1c99d(%rip)        # 0x2e7a8
   11e0b:	74 5b                	je     0x11e68
   11e0d:	48 39 1d 9c c9 01 00 	cmp    %rbx,0x1c99c(%rip)        # 0x2e7b0
   11e14:	74 52                	je     0x11e68
   11e16:	48 39 1d 9b c9 01 00 	cmp    %rbx,0x1c99b(%rip)        # 0x2e7b8
   11e1d:	74 49                	je     0x11e68
   11e1f:	48 39 1d 9a c9 01 00 	cmp    %rbx,0x1c99a(%rip)        # 0x2e7c0
   11e26:	74 40                	je     0x11e68
   11e28:	48 39 1d 99 c9 01 00 	cmp    %rbx,0x1c999(%rip)        # 0x2e7c8
   11e2f:	74 37                	je     0x11e68
   11e31:	48 39 1d 98 c9 01 00 	cmp    %rbx,0x1c998(%rip)        # 0x2e7d0
   11e38:	74 2e                	je     0x11e68
   11e3a:	48 39 1d 97 c9 01 00 	cmp    %rbx,0x1c997(%rip)        # 0x2e7d8
   11e41:	74 25                	je     0x11e68
   11e43:	48 39 1d 96 c9 01 00 	cmp    %rbx,0x1c996(%rip)        # 0x2e7e0
   11e4a:	74 1c                	je     0x11e68
   11e4c:	48 39 1d 95 c9 01 00 	cmp    %rbx,0x1c995(%rip)        # 0x2e7e8
   11e53:	74 13                	je     0x11e68
   11e55:	48 39 1d 94 c9 01 00 	cmp    %rbx,0x1c994(%rip)        # 0x2e7f0
   11e5c:	74 0a                	je     0x11e68
   11e5e:	be 01 00 00 c0       	mov    $0xc0000001,%esi
   11e63:	e9 3b 02 00 00       	jmpq   0x120a3
   11e68:	33 c0                	xor    %eax,%eax
   11e6a:	49 83 cd ff          	or     $0xffffffffffffffff,%r13
   11e6e:	48 8d 3d eb ed 00 00 	lea    0xedeb(%rip),%rdi        # 0x20c60
   11e75:	49 8b cd             	mov    %r13,%rcx
   11e78:	48 8d 2d a1 c2 01 00 	lea    0x1c2a1(%rip),%rbp        # 0x2e120
   11e7f:	ba e6 00 00 00       	mov    $0xe6,%edx
   11e84:	66 f2 af             	repnz scas %es:(%rdi),%ax
   11e87:	48 f7 d1             	not    %rcx
   11e8a:	48 8d 4c 4d fe       	lea    -0x2(%rbp,%rcx,2),%rcx
   11e8f:	e8 00 fd ff ff       	callq  0x11b94
   11e94:	3b c3                	cmp    %ebx,%eax
   11e96:	8b f0                	mov    %eax,%esi
   11e98:	0f 8c c9 00 00 00    	jl     0x11f67
   11e9e:	48 8d 54 24 40       	lea    0x40(%rsp),%rdx
   11ea3:	b9 80 c9 27 01       	mov    $0x127c980,%ecx
   11ea8:	66 c7 44 24 40 49 d3 	movw   $0xd349,0x40(%rsp)
   11eaf:	66 c7 44 24 42 93 ea 	movw   $0xea93,0x42(%rsp)
   11eb6:	66 c7 44 24 44 65 81 	movw   $0x8165,0x44(%rsp)
   11ebd:	66 c7 44 24 46 e1 f6 	movw   $0xf6e1,0x46(%rsp)
   11ec4:	66 c7 44 24 48 67 84 	movw   $0x8467,0x48(%rsp)
   11ecb:	66 c7 44 24 4a 59 f5 	movw   $0xf559,0x4a(%rsp)
   11ed2:	66 c7 44 24 4c 8c a0 	movw   $0xa08c,0x4c(%rsp)
   11ed9:	66 c7 44 24 4e 1e 9f 	movw   $0x9f1e,0x4e(%rsp)
   11ee0:	66 c7 44 24 50 72 ca 	movw   $0xca72,0x50(%rsp)
   11ee7:	66 89 5c 24 52       	mov    %bx,0x52(%rsp)
   11eec:	e8 db a0 00 00       	callq  0x1bfcc
   11ef1:	33 c0                	xor    %eax,%eax
   11ef3:	49 8b cd             	mov    %r13,%rcx
   11ef6:	48 8b fd             	mov    %rbp,%rdi
   11ef9:	66 f2 af             	repnz scas %es:(%rdi),%ax
   11efc:	48 8d 7c 24 40       	lea    0x40(%rsp),%rdi
   11f01:	48 f7 d1             	not    %rcx
   11f04:	48 8d 51 ff          	lea    -0x1(%rcx),%rdx
   11f08:	49 8b cd             	mov    %r13,%rcx
   11f0b:	66 f2 af             	repnz scas %es:(%rdi),%ax
   11f0e:	48 f7 d1             	not    %rcx
   11f11:	48 83 e9 01          	sub    $0x1,%rcx
   11f15:	48 03 d1             	add    %rcx,%rdx
   11f18:	48 8d 44 12 02       	lea    0x2(%rdx,%rdx,1),%rax
   11f1d:	48 8d 54 24 40       	lea    0x40(%rsp),%rdx
   11f22:	48 3d 04 01 00 00    	cmp    $0x104,%rax
   11f28:	72 0f                	jb     0x11f39
   11f2a:	b9 80 c9 27 01       	mov    $0x127c980,%ecx
   11f2f:	e8 98 a0 00 00       	callq  0x1bfcc
   11f34:	e9 6a 01 00 00       	jmpq   0x120a3
   11f39:	33 c0                	xor    %eax,%eax
   11f3b:	48 8b fd             	mov    %rbp,%rdi
   11f3e:	49 8b cd             	mov    %r13,%rcx
   11f41:	66 f2 af             	repnz scas %es:(%rdi),%ax
   11f44:	33 c9                	xor    %ecx,%ecx
   11f46:	0f b7 04 0a          	movzwl (%rdx,%rcx,1),%eax
   11f4a:	48 83 c1 02          	add    $0x2,%rcx
   11f4e:	66 85 c0             	test   %ax,%ax
   11f51:	66 89 44 0f fc       	mov    %ax,-0x4(%rdi,%rcx,1)
   11f56:	75 ee                	jne    0x11f46
   11f58:	48 8d 54 24 40       	lea    0x40(%rsp),%rdx
   11f5d:	b9 80 c9 27 01       	mov    $0x127c980,%ecx
   11f62:	e9 e5 00 00 00       	jmpq   0x1204c
   11f67:	bf 80 3c 99 01       	mov    $0x1993c80,%edi
   11f6c:	48 8d 54 24 70       	lea    0x70(%rsp),%rdx
   11f71:	66 c7 44 24 70 8e c7 	movw   $0xc78e,0x70(%rsp)
   11f78:	8b cf                	mov    %edi,%ecx
   11f7a:	66 c7 44 24 72 6b a3 	movw   $0xa36b,0x72(%rsp)
   11f81:	66 c7 44 24 74 e5 fc 	movw   $0xfce5,0x74(%rsp)
   11f88:	66 c7 44 24 76 e3 f0 	movw   $0xf0e3,0x76(%rsp)
   11f8f:	66 c7 44 24 78 fd f9 	movw   $0xf9fd,0x78(%rsp)
   11f96:	66 c7 44 24 7a dc bc 	movw   $0xbcdc,0x7a(%rsp)
   11f9d:	66 c7 44 24 7c 44 e9 	movw   $0xe944,0x7c(%rsp)
   11fa4:	66 c7 44 24 7e 20 b9 	movw   $0xb920,0x7e(%rsp)
   11fab:	66 c7 84 24 80 00 00 	movw   $0xe01f,0x80(%rsp)
   11fb2:	00 1f e0 
   11fb5:	66 c7 84 24 82 00 00 	movw   $0xa269,0x82(%rsp)
   11fbc:	00 69 a2 
   11fbf:	66 c7 84 24 84 00 00 	movw   $0x835e,0x84(%rsp)
   11fc6:	00 5e 83 
   11fc9:	66 c7 84 24 86 00 00 	movw   $0xe7e1,0x86(%rsp)
   11fd0:	00 e1 e7 
   11fd3:	66 c7 84 24 88 00 00 	movw   $0xace3,0x88(%rsp)
   11fda:	00 e3 ac 
   11fdd:	66 c7 84 24 8a 00 00 	movw   $0xe6aa,0x8a(%rsp)
   11fe4:	00 aa e6 
   11fe7:	66 c7 84 24 8c 00 00 	movw   $0xcabb,0x8c(%rsp)
   11fee:	00 bb ca 
   11ff1:	66 c7 84 24 8e 00 00 	movw   $0xb1ce,0x8e(%rsp)
   11ff8:	00 ce b1 
   11ffb:	66 c7 84 24 90 00 00 	movw   $0x92b1,0x90(%rsp)
   12002:	00 b1 92 
   12005:	66 c7 84 24 92 00 00 	movw   $0xca4b,0x92(%rsp)
   1200c:	00 4b ca 
   1200f:	66 c7 84 24 94 00 00 	movw   $0xfae2,0x94(%rsp)
   12016:	00 e2 fa 
   12019:	66 c7 84 24 96 00 00 	movw   $0xdfdb,0x96(%rsp)
   12020:	00 db df 
   12023:	66 89 9c 24 98 00 00 	mov    %bx,0x98(%rsp)
   1202a:	00 
   1202b:	e8 9c 9f 00 00       	callq  0x1bfcc
   12030:	48 8b cb             	mov    %rbx,%rcx
   12033:	0f b7 44 0c 70       	movzwl 0x70(%rsp,%rcx,1),%eax
   12038:	66 89 04 29          	mov    %ax,(%rcx,%rbp,1)
   1203c:	48 83 c1 02          	add    $0x2,%rcx
   12040:	66 3b c3             	cmp    %bx,%ax
   12043:	75 ee                	jne    0x12033
   12045:	48 8d 54 24 70       	lea    0x70(%rsp),%rdx
   1204a:	8b cf                	mov    %edi,%ecx
   1204c:	e8 7b 9f 00 00       	callq  0x1bfcc
   12051:	4c 8d 05 c0 c0 01 00 	lea    0x1c0c0(%rip),%r8        # 0x2e118
   12058:	45 33 c9             	xor    %r9d,%r9d
   1205b:	b2 01                	mov    $0x1,%dl
   1205d:	48 8b cd             	mov    %rbp,%rcx
   12060:	e8 1f f2 ff ff       	callq  0x11284
   12065:	3b c3                	cmp    %ebx,%eax
   12067:	8b f0                	mov    %eax,%esi
   12069:	7c 38                	jl     0x120a3
   1206b:	48 8b 0d a6 c0 01 00 	mov    0x1c0a6(%rip),%rcx        # 0x2e118
   12072:	4c 8d 44 24 58       	lea    0x58(%rsp),%r8
   12077:	48 8d 54 24 30       	lea    0x30(%rsp),%rdx
   1207c:	41 b9 18 00 00 00    	mov    $0x18,%r9d
   12082:	c7 44 24 20 05 00 00 	movl   $0x5,0x20(%rsp)
   12089:	00 
   1208a:	ff 15 18 c7 01 00    	callq  *0x1c718(%rip)        # 0x2e7a8
   12090:	8b f0                	mov    %eax,%esi
   12092:	48 8b 44 24 60       	mov    0x60(%rsp),%rax
   12097:	48 89 05 e2 c6 01 00 	mov    %rax,0x1c6e2(%rip)        # 0x2e780
   1209e:	e8 8d f8 ff ff       	callq  0x11930
   120a3:	87 1d d3 c6 01 00    	xchg   %ebx,0x1c6d3(%rip)        # 0x2e77c
   120a9:	4c 8d 9c 24 a0 00 00 	lea    0xa0(%rsp),%r11
   120b0:	00 
   120b1:	8b c6                	mov    %esi,%eax
   120b3:	49 8b 5b 10          	mov    0x10(%r11),%rbx
   120b7:	49 8b 6b 18          	mov    0x18(%r11),%rbp
   120bb:	49 8b 73 20          	mov    0x20(%r11),%rsi
   120bf:	49 8b 7b 28          	mov    0x28(%r11),%rdi
   120c3:	49 8b e3             	mov    %r11,%rsp
   120c6:	41 5d                	pop    %r13
   120c8:	c3                   	retq   
   120c9:	cc                   	int3   
   120ca:	cc                   	int3   
   120cb:	cc                   	int3   
   120cc:	cc                   	int3   
   120cd:	cc                   	int3   
   120ce:	cc                   	int3   
   120cf:	cc                   	int3   
   120d0:	85 d2                	test   %edx,%edx
   120d2:	74 13                	je     0x120e7
   120d4:	48 8b c1             	mov    %rcx,%rax
   120d7:	44 8b c2             	mov    %edx,%r8d
   120da:	80 30 79             	xorb   $0x79,(%rax)
   120dd:	48 83 c0 01          	add    $0x1,%rax
   120e1:	49 83 e8 01          	sub    $0x1,%r8
   120e5:	75 f3                	jne    0x120da
   120e7:	e9 f4 f8 ff ff       	jmpq   0x119e0
   120ec:	cc                   	int3   
   120ed:	cc                   	int3   
   120ee:	cc                   	int3   
   120ef:	cc                   	int3   
   120f0:	cc                   	int3   
   120f1:	cc                   	int3   
   120f2:	cc                   	int3   
   120f3:	cc                   	int3   
   120f4:	48 89 5c 24 10       	mov    %rbx,0x10(%rsp)
   120f9:	48 89 74 24 18       	mov    %rsi,0x18(%rsp)
   120fe:	57                   	push   %rdi
   120ff:	48 83 ec 20          	sub    $0x20,%rsp
   12103:	48 8b 79 40          	mov    0x40(%rcx),%rdi
   12107:	33 f6                	xor    %esi,%esi
   12109:	48 39 35 90 c6 01 00 	cmp    %rsi,0x1c690(%rip)        # 0x2e7a0
   12110:	8b de                	mov    %esi,%ebx
   12112:	75 61                	jne    0x12175
   12114:	48 39 35 8d c6 01 00 	cmp    %rsi,0x1c68d(%rip)        # 0x2e7a8
   1211b:	74 58                	je     0x12175
   1211d:	48 39 35 8c c6 01 00 	cmp    %rsi,0x1c68c(%rip)        # 0x2e7b0
   12124:	74 4f                	je     0x12175
   12126:	48 39 35 8b c6 01 00 	cmp    %rsi,0x1c68b(%rip)        # 0x2e7b8
   1212d:	74 46                	je     0x12175
   1212f:	48 39 35 8a c6 01 00 	cmp    %rsi,0x1c68a(%rip)        # 0x2e7c0
   12136:	74 3d                	je     0x12175
   12138:	48 39 35 89 c6 01 00 	cmp    %rsi,0x1c689(%rip)        # 0x2e7c8
   1213f:	74 34                	je     0x12175
   12141:	48 39 35 88 c6 01 00 	cmp    %rsi,0x1c688(%rip)        # 0x2e7d0
   12148:	74 2b                	je     0x12175
   1214a:	48 39 35 87 c6 01 00 	cmp    %rsi,0x1c687(%rip)        # 0x2e7d8
   12151:	74 22                	je     0x12175
   12153:	48 39 35 86 c6 01 00 	cmp    %rsi,0x1c686(%rip)        # 0x2e7e0
   1215a:	74 19                	je     0x12175
   1215c:	48 39 35 85 c6 01 00 	cmp    %rsi,0x1c685(%rip)        # 0x2e7e8
   12163:	74 10                	je     0x12175
   12165:	48 39 35 84 c6 01 00 	cmp    %rsi,0x1c684(%rip)        # 0x2e7f0
   1216c:	74 07                	je     0x12175
   1216e:	b8 01 00 00 c0       	mov    $0xc0000001,%eax
   12173:	eb 6c                	jmp    0x121e1
   12175:	b8 01 00 00 00       	mov    $0x1,%eax
   1217a:	87 47 04             	xchg   %eax,0x4(%rdi)
   1217d:	83 f8 01             	cmp    $0x1,%eax
   12180:	74 5d                	je     0x121df
   12182:	eb 18                	jmp    0x1219c
   12184:	4c 8d 44 24 30       	lea    0x30(%rsp),%r8
   12189:	33 d2                	xor    %edx,%edx
   1218b:	33 c9                	xor    %ecx,%ecx
   1218d:	48 c7 44 24 30 80 69 	movq   $0xffffffffff676980,0x30(%rsp)
   12194:	67 ff 
   12196:	ff 15 84 fe 00 00    	callq  *0xfe84(%rip)        # 0x22020
   1219c:	39 37                	cmp    %esi,(%rdi)
   1219e:	75 e4                	jne    0x12184
   121a0:	39 35 5e c7 01 00    	cmp    %esi,0x1c75e(%rip)        # 0x2e904
   121a6:	74 1d                	je     0x121c5
   121a8:	e8 8f 57 00 00       	callq  0x1793c
   121ad:	e8 f6 5e 00 00       	callq  0x180a8
   121b2:	8b 0d 4c c7 01 00    	mov    0x1c74c(%rip),%ecx        # 0x2e904
   121b8:	3b c6                	cmp    %esi,%eax
   121ba:	8b d8                	mov    %eax,%ebx
   121bc:	0f 4d ce             	cmovge %esi,%ecx
   121bf:	89 0d 3f c7 01 00    	mov    %ecx,0x1c73f(%rip)        # 0x2e904
   121c5:	48 8b 0d 4c bf 01 00 	mov    0x1bf4c(%rip),%rcx        # 0x2e118
   121cc:	48 3b ce             	cmp    %rsi,%rcx
   121cf:	74 0e                	je     0x121df
   121d1:	ff 15 e9 c5 01 00    	callq  *0x1c5e9(%rip)        # 0x2e7c0
   121d7:	48 83 0d 39 bf 01 00 	orq    $0xffffffffffffffff,0x1bf39(%rip)        # 0x2e118
   121de:	ff 
   121df:	8b c3                	mov    %ebx,%eax
   121e1:	48 8b 5c 24 38       	mov    0x38(%rsp),%rbx
   121e6:	48 8b 74 24 40       	mov    0x40(%rsp),%rsi
   121eb:	48 83 c4 20          	add    $0x20,%rsp
   121ef:	5f                   	pop    %rdi
   121f0:	c3                   	retq   
   121f1:	cc                   	int3   
   121f2:	cc                   	int3   
   121f3:	cc                   	int3   
   121f4:	cc                   	int3   
   121f5:	cc                   	int3   
   121f6:	cc                   	int3   
   121f7:	cc                   	int3   
   121f8:	48 8b c4             	mov    %rsp,%rax
   121fb:	48 89 58 08          	mov    %rbx,0x8(%rax)
   121ff:	48 89 68 10          	mov    %rbp,0x10(%rax)
   12203:	57                   	push   %rdi
   12204:	48 83 ec 60          	sub    $0x60,%rsp
   12208:	48 8b 79 08          	mov    0x8(%rcx),%rdi
   1220c:	33 ed                	xor    %ebp,%ebp
   1220e:	66 c7 40 d8 48 d3    	movw   $0xd348,-0x28(%rax)
   12214:	66 89 68 c8          	mov    %bp,-0x38(%rax)
   12218:	66 c7 40 da 9f a2    	movw   $0xa29f,-0x26(%rax)
   1221e:	66 c7 40 dc f1 b6    	movw   $0xb6f1,-0x24(%rax)
   12224:	66 c7 40 de 60 95    	movw   $0x9560,-0x22(%rax)
   1222a:	66 c7 40 e0 31 86    	movw   $0x8631,-0x20(%rax)
   12230:	66 c7 40 e2 50 bb    	movw   $0xbb50,-0x1e(%rax)
   12236:	66 c7 40 e4 c2 a1    	movw   $0xa1c2,-0x1c(%rax)
   1223c:	66 c7 40 e6 d9 fb    	movw   $0xfbd9,-0x1a(%rax)
   12242:	66 c7 40 e8 3b f0    	movw   $0xf03b,-0x18(%rax)
   12248:	66 c7 40 ea 97 88    	movw   $0x8897,-0x16(%rax)
   1224e:	66 c7 40 ec 77 c6    	movw   $0xc677,-0x14(%rax)
   12254:	66 c7 40 ee 60 a9    	movw   $0xa960,-0x12(%rax)
   1225a:	66 c7 40 f0 e5 f8    	movw   $0xf8e5,-0x10(%rax)
   12260:	66 c7 40 f2 ea 96    	movw   $0x96ea,-0xe(%rax)
   12266:	66 89 68 f4          	mov    %bp,-0xc(%rax)
   1226a:	33 c0                	xor    %eax,%eax
   1226c:	48 8b d9             	mov    %rcx,%rbx
   1226f:	48 8b cf             	mov    %rdi,%rcx
   12272:	48 89 44 24 32       	mov    %rax,0x32(%rsp)
   12277:	89 44 24 3a          	mov    %eax,0x3a(%rsp)
   1227b:	66 89 44 24 3e       	mov    %ax,0x3e(%rsp)
   12280:	ff 15 aa fd 00 00    	callq  *0xfdaa(%rip)        # 0x22030
   12286:	48 8b cf             	mov    %rdi,%rcx
   12289:	e8 66 fe ff ff       	callq  0x120f4
   1228e:	e8 cd 4b 00 00       	callq  0x16e60
   12293:	48 8b 0d 7e be 01 00 	mov    0x1be7e(%rip),%rcx        # 0x2e118
   1229a:	48 83 f9 ff          	cmp    $0xffffffffffffffff,%rcx
   1229e:	74 70                	je     0x12310
   122a0:	48 39 2d f9 c4 01 00 	cmp    %rbp,0x1c4f9(%rip)        # 0x2e7a0
   122a7:	74 67                	je     0x12310
   122a9:	48 39 2d f8 c4 01 00 	cmp    %rbp,0x1c4f8(%rip)        # 0x2e7a8
   122b0:	74 5e                	je     0x12310
   122b2:	48 39 2d f7 c4 01 00 	cmp    %rbp,0x1c4f7(%rip)        # 0x2e7b0
   122b9:	74 55                	je     0x12310
   122bb:	48 39 2d f6 c4 01 00 	cmp    %rbp,0x1c4f6(%rip)        # 0x2e7b8
   122c2:	74 4c                	je     0x12310
   122c4:	48 8b 05 f5 c4 01 00 	mov    0x1c4f5(%rip),%rax        # 0x2e7c0
   122cb:	48 3b c5             	cmp    %rbp,%rax
   122ce:	74 40                	je     0x12310
   122d0:	48 39 2d f1 c4 01 00 	cmp    %rbp,0x1c4f1(%rip)        # 0x2e7c8
   122d7:	74 37                	je     0x12310
   122d9:	48 39 2d f0 c4 01 00 	cmp    %rbp,0x1c4f0(%rip)        # 0x2e7d0
   122e0:	74 2e                	je     0x12310
   122e2:	48 39 2d ef c4 01 00 	cmp    %rbp,0x1c4ef(%rip)        # 0x2e7d8
   122e9:	74 25                	je     0x12310
   122eb:	48 39 2d ee c4 01 00 	cmp    %rbp,0x1c4ee(%rip)        # 0x2e7e0
   122f2:	74 1c                	je     0x12310
   122f4:	48 39 2d ed c4 01 00 	cmp    %rbp,0x1c4ed(%rip)        # 0x2e7e8
   122fb:	74 13                	je     0x12310
   122fd:	48 39 2d ec c4 01 00 	cmp    %rbp,0x1c4ec(%rip)        # 0x2e7f0
   12304:	74 0a                	je     0x12310
   12306:	ff d0                	callq  *%rax
   12308:	48 83 0d 08 be 01 00 	orq    $0xffffffffffffffff,0x1be08(%rip)        # 0x2e118
   1230f:	ff 
   12310:	48 8d 54 24 40       	lea    0x40(%rsp),%rdx
   12315:	b9 00 97 44 00       	mov    $0x449700,%ecx
   1231a:	e8 ad 9c 00 00       	callq  0x1bfcc
   1231f:	48 8d 54 24 40       	lea    0x40(%rsp),%rdx
   12324:	48 8d 4c 24 30       	lea    0x30(%rsp),%rcx
   12329:	ff 15 e9 fc 00 00    	callq  *0xfce9(%rip)        # 0x22018
   1232f:	48 8d 4c 24 30       	lea    0x30(%rsp),%rcx
   12334:	e8 57 e1 00 00       	callq  0x20490
   12339:	48 8d 54 24 40       	lea    0x40(%rsp),%rdx
   1233e:	b9 00 97 44 00       	mov    $0x449700,%ecx
   12343:	e8 84 9c 00 00       	callq  0x1bfcc
   12348:	48 8b cf             	mov    %rdi,%rcx
   1234b:	e8 f8 df 00 00       	callq  0x20348
   12350:	e8 2f d9 00 00       	callq  0x1fc84
   12355:	39 2d 2d c4 01 00    	cmp    %ebp,0x1c42d(%rip)        # 0x2e788
   1235b:	74 32                	je     0x1238f
   1235d:	48 8b cb             	mov    %rbx,%rcx
   12360:	e8 57 e6 00 00       	callq  0x209bc
   12365:	48 8b cb             	mov    %rbx,%rcx
   12368:	ff 15 ba fd 00 00    	callq  *0xfdba(%rip)        # 0x22128
   1236e:	48 8d 0d d3 07 00 00 	lea    0x7d3(%rip),%rcx        # 0x12b48
   12375:	41 b1 01             	mov    $0x1,%r9b
   12378:	45 33 c0             	xor    %r8d,%r8d
   1237b:	33 d2                	xor    %edx,%edx
   1237d:	40 88 6c 24 28       	mov    %bpl,0x28(%rsp)
   12382:	c7 44 24 20 01 00 00 	movl   $0x1,0x20(%rsp)
   12389:	00 
   1238a:	e8 4d 29 00 00       	callq  0x14cdc
   1238f:	48 8b 5c 24 70       	mov    0x70(%rsp),%rbx
   12394:	48 8b 6c 24 78       	mov    0x78(%rsp),%rbp
   12399:	48 83 c4 60          	add    $0x60,%rsp
   1239d:	5f                   	pop    %rdi
   1239e:	c3                   	retq   
   1239f:	cc                   	int3   
   123a0:	cc                   	int3   
   123a1:	cc                   	int3   
   123a2:	cc                   	int3   
   123a3:	cc                   	int3   
   123a4:	cc                   	int3   
   123a5:	cc                   	int3   
   123a6:	cc                   	int3   
   123a7:	cc                   	int3   
   123a8:	48 89 5c 24 18       	mov    %rbx,0x18(%rsp)
   123ad:	55                   	push   %rbp
   123ae:	56                   	push   %rsi
   123af:	57                   	push   %rdi
   123b0:	48 83 ec 30          	sub    $0x30,%rsp
   123b4:	48 8b b2 b8 00 00 00 	mov    0xb8(%rdx),%rsi
   123bb:	48 8b 69 40          	mov    0x40(%rcx),%rbp
   123bf:	48 83 64 24 58 00    	andq   $0x0,0x58(%rsp)
   123c5:	48 8b fa             	mov    %rdx,%rdi
   123c8:	bb 83 01 00 c0       	mov    $0xc0000183,%ebx
   123cd:	c6 44 24 50 00       	movb   $0x0,0x50(%rsp)
   123d2:	f0 83 45 00 01       	lock addl $0x1,0x0(%rbp)
   123d7:	8b 46 18             	mov    0x18(%rsi),%eax
   123da:	2d 2c 00 22 00       	sub    $0x22002c,%eax
   123df:	74 50                	je     0x12431
   123e1:	83 f8 04             	cmp    $0x4,%eax
   123e4:	74 0a                	je     0x123f0
   123e6:	bb 02 00 00 c0       	mov    $0xc0000002,%ebx
   123eb:	e9 ac 00 00 00       	jmpq   0x1249c
   123f0:	83 3d 91 c3 01 00 00 	cmpl   $0x0,0x1c391(%rip)        # 0x2e788
   123f7:	74 31                	je     0x1242a
   123f9:	48 8b 15 98 c3 01 00 	mov    0x1c398(%rip),%rdx        # 0x2e798
   12400:	48 85 d2             	test   %rdx,%rdx
   12403:	0f 84 93 00 00 00    	je     0x1249c
   12409:	48 8d 0d e8 fd ff ff 	lea    -0x218(%rip),%rcx        # 0x121f8
   12410:	41 b1 01             	mov    $0x1,%r9b
   12413:	45 33 c0             	xor    %r8d,%r8d
   12416:	c6 44 24 28 00       	movb   $0x0,0x28(%rsp)
   1241b:	c7 44 24 20 01 00 00 	movl   $0x1,0x20(%rsp)
   12422:	00 
   12423:	e8 b4 28 00 00       	callq  0x14cdc
   12428:	eb 70                	jmp    0x1249a
   1242a:	bb af 00 00 c0       	mov    $0xc00000af,%ebx
   1242f:	eb 6b                	jmp    0x1249c
   12431:	83 7e 10 00          	cmpl   $0x0,0x10(%rsi)
   12435:	75 0a                	jne    0x12441
   12437:	b8 0d 00 00 c0       	mov    $0xc000000d,%eax
   1243c:	89 42 30             	mov    %eax,0x30(%rdx)
   1243f:	eb 59                	jmp    0x1249a
   12441:	ff 15 f9 fb 00 00    	callq  *0xfbf9(%rip)        # 0x22040
   12447:	4c 8d 44 24 50       	lea    0x50(%rsp),%r8
   1244c:	48 8d 54 24 58       	lea    0x58(%rsp),%rdx
   12451:	48 8b c8             	mov    %rax,%rcx
   12454:	ff 15 a6 fb 00 00    	callq  *0xfba6(%rip)        # 0x22000
   1245a:	85 c0                	test   %eax,%eax
   1245c:	8b d8                	mov    %eax,%ebx
   1245e:	78 3c                	js     0x1249c
   12460:	8b 4e 10             	mov    0x10(%rsi),%ecx
   12463:	33 c0                	xor    %eax,%eax
   12465:	85 c9                	test   %ecx,%ecx
   12467:	74 15                	je     0x1247e
   12469:	48 8b 57 18          	mov    0x18(%rdi),%rdx
   1246d:	66 83 3a 00          	cmpw   $0x0,(%rdx)
   12471:	74 0b                	je     0x1247e
   12473:	83 c0 01             	add    $0x1,%eax
   12476:	48 83 c2 02          	add    $0x2,%rdx
   1247a:	3b c1                	cmp    %ecx,%eax
   1247c:	72 ef                	jb     0x1246d
   1247e:	3b c1                	cmp    %ecx,%eax
   12480:	75 0a                	jne    0x1248c
   12482:	b8 0d 00 00 c0       	mov    $0xc000000d,%eax
   12487:	89 47 30             	mov    %eax,0x30(%rdi)
   1248a:	eb 0e                	jmp    0x1249a
   1248c:	48 8b 54 24 58       	mov    0x58(%rsp),%rdx
   12491:	48 8b 4f 18          	mov    0x18(%rdi),%rcx
   12495:	e8 5e f3 ff ff       	callq  0x117f8
   1249a:	8b d8                	mov    %eax,%ebx
   1249c:	48 8b 4c 24 58       	mov    0x58(%rsp),%rcx
   124a1:	48 85 c9             	test   %rcx,%rcx
   124a4:	74 19                	je     0x124bf
   124a6:	8a 54 24 50          	mov    0x50(%rsp),%dl
   124aa:	84 d2                	test   %dl,%dl
   124ac:	74 11                	je     0x124bf
   124ae:	ff 15 9c fb 00 00    	callq  *0xfb9c(%rip)        # 0x22050
   124b4:	48 83 64 24 58 00    	andq   $0x0,0x58(%rsp)
   124ba:	c6 44 24 50 00       	movb   $0x0,0x50(%rsp)
   124bf:	f0 83 45 00 ff       	lock addl $0xffffffff,0x0(%rbp)
   124c4:	8b c3                	mov    %ebx,%eax
   124c6:	48 8b 5c 24 60       	mov    0x60(%rsp),%rbx
   124cb:	48 83 c4 30          	add    $0x30,%rsp
   124cf:	5f                   	pop    %rdi
   124d0:	5e                   	pop    %rsi
   124d1:	5d                   	pop    %rbp
   124d2:	c3                   	retq   
   124d3:	cc                   	int3   
   124d4:	cc                   	int3   
   124d5:	cc                   	int3   
   124d6:	cc                   	int3   
   124d7:	cc                   	int3   
   124d8:	cc                   	int3   
   124d9:	cc                   	int3   
   124da:	cc                   	int3   
   124db:	cc                   	int3   
   124dc:	48 89 5c 24 08       	mov    %rbx,0x8(%rsp)
   124e1:	48 89 6c 24 10       	mov    %rbp,0x10(%rsp)
   124e6:	48 89 74 24 18       	mov    %rsi,0x18(%rsp)
   124eb:	57                   	push   %rdi
   124ec:	48 83 ec 20          	sub    $0x20,%rsp
   124f0:	48 8b 79 40          	mov    0x40(%rcx),%rdi
   124f4:	48 8b aa b8 00 00 00 	mov    0xb8(%rdx),%rbp
   124fb:	48 83 62 38 00       	andq   $0x0,0x38(%rdx)
   12500:	48 8b f2             	mov    %rdx,%rsi
   12503:	bb 02 00 00 c0       	mov    $0xc0000002,%ebx
   12508:	f0 83 07 01          	lock addl $0x1,(%rdi)
   1250c:	83 7f 04 01          	cmpl   $0x1,0x4(%rdi)
   12510:	75 07                	jne    0x12519
   12512:	bb 56 00 00 c0       	mov    $0xc0000056,%ebx
   12517:	eb 28                	jmp    0x12541
   12519:	80 7d 00 00          	cmpb   $0x0,0x0(%rbp)
   1251d:	74 20                	je     0x1253f
   1251f:	80 7d 00 0e          	cmpb   $0xe,0x0(%rbp)
   12523:	74 11                	je     0x12536
   12525:	80 7d 00 10          	cmpb   $0x10,0x0(%rbp)
   12529:	75 16                	jne    0x12541
   1252b:	f0 83 07 ff          	lock addl $0xffffffff,(%rdi)
   1252f:	e8 c0 fb ff ff       	callq  0x120f4
   12534:	eb 05                	jmp    0x1253b
   12536:	e8 6d fe ff ff       	callq  0x123a8
   1253b:	8b d8                	mov    %eax,%ebx
   1253d:	eb 02                	jmp    0x12541
   1253f:	33 db                	xor    %ebx,%ebx
   12541:	89 5e 30             	mov    %ebx,0x30(%rsi)
   12544:	80 7d 00 10          	cmpb   $0x10,0x0(%rbp)
   12548:	74 04                	je     0x1254e
   1254a:	f0 83 07 ff          	lock addl $0xffffffff,(%rdi)
   1254e:	33 d2                	xor    %edx,%edx
   12550:	48 8b ce             	mov    %rsi,%rcx
   12553:	ff 15 ef fa 00 00    	callq  *0xfaef(%rip)        # 0x22048
   12559:	48 8b 6c 24 38       	mov    0x38(%rsp),%rbp
   1255e:	48 8b 74 24 40       	mov    0x40(%rsp),%rsi
   12563:	8b c3                	mov    %ebx,%eax
   12565:	48 8b 5c 24 30       	mov    0x30(%rsp),%rbx
   1256a:	48 83 c4 20          	add    $0x20,%rsp
   1256e:	5f                   	pop    %rdi
   1256f:	c3                   	retq   
   12570:	cc                   	int3   
   12571:	cc                   	int3   
   12572:	cc                   	int3   
   12573:	cc                   	int3   
   12574:	cc                   	int3   
   12575:	cc                   	int3   
   12576:	cc                   	int3   
   12577:	cc                   	int3   
   12578:	48 8b c4             	mov    %rsp,%rax
   1257b:	48 89 58 10          	mov    %rbx,0x10(%rax)
   1257f:	48 89 68 20          	mov    %rbp,0x20(%rax)
   12583:	56                   	push   %rsi
   12584:	57                   	push   %rdi
   12585:	41 55                	push   %r13
   12587:	48 81 ec b0 00 00 00 	sub    $0xb0,%rsp
   1258e:	45 33 ed             	xor    %r13d,%r13d
   12591:	48 8b e9             	mov    %rcx,%rbp
   12594:	66 c7 40 c8 48 d3    	movw   $0xd348,-0x38(%rax)
   1259a:	66 44 89 68 88       	mov    %r13w,-0x78(%rax)
   1259f:	66 c7 40 ca 9f a2    	movw   $0xa29f,-0x36(%rax)
   125a5:	66 c7 40 cc f1 b6    	movw   $0xb6f1,-0x34(%rax)
   125ab:	66 44 89 68 e4       	mov    %r13w,-0x1c(%rax)
   125b0:	66 44 89 68 c6       	mov    %r13w,-0x3a(%rax)
   125b5:	66 c7 40 ce 60 95    	movw   $0x9560,-0x32(%rax)
   125bb:	66 c7 40 d0 31 86    	movw   $0x8631,-0x30(%rax)
   125c1:	66 c7 40 d2 50 bb    	movw   $0xbb50,-0x2e(%rax)
   125c7:	66 c7 40 d4 c2 a1    	movw   $0xa1c2,-0x2c(%rax)
   125cd:	66 c7 40 d6 d9 fb    	movw   $0xfbd9,-0x2a(%rax)
   125d3:	66 c7 40 d8 3b f0    	movw   $0xf03b,-0x28(%rax)
   125d9:	66 c7 40 da 97 88    	movw   $0x8897,-0x26(%rax)
   125df:	66 c7 40 dc 77 c6    	movw   $0xc677,-0x24(%rax)
   125e5:	66 c7 40 de 60 a9    	movw   $0xa960,-0x22(%rax)
   125eb:	66 c7 40 e0 e5 f8    	movw   $0xf8e5,-0x20(%rax)
   125f1:	66 c7 40 e2 ea 96    	movw   $0x96ea,-0x1e(%rax)
   125f7:	66 c7 40 b0 a0 d7    	movw   $0xd7a0,-0x50(%rax)
   125fd:	66 c7 40 b2 74 82    	movw   $0x8274,-0x4e(%rax)
   12603:	66 c7 40 b4 37 d4    	movw   $0xd437,-0x4c(%rax)
   12609:	66 c7 40 b6 ec e6    	movw   $0xe6ec,-0x4a(%rax)
   1260f:	66 c7 40 b8 2c be    	movw   $0xbe2c,-0x48(%rax)
   12615:	66 c7 40 ba 0d b0    	movw   $0xb00d,-0x46(%rax)
   1261b:	66 c7 40 bc f9 9d    	movw   $0x9df9,-0x44(%rax)
   12621:	66 c7 40 be ac aa    	movw   $0xaaac,-0x42(%rax)
   12627:	66 c7 40 c0 75 bd    	movw   $0xbd75,-0x40(%rax)
   1262d:	66 c7 40 c2 be 81    	movw   $0x81be,-0x3e(%rax)
   12633:	66 c7 40 c4 09 fd    	movw   $0xfd09,-0x3c(%rax)
   12639:	33 c0                	xor    %eax,%eax
   1263b:	48 89 0d 56 c1 01 00 	mov    %rcx,0x1c156(%rip)        # 0x2e798
   12642:	48 8d 79 70          	lea    0x70(%rcx),%rdi
   12646:	48 89 44 24 52       	mov    %rax,0x52(%rsp)
   1264b:	89 44 24 5a          	mov    %eax,0x5a(%rsp)
   1264f:	66 89 44 24 5e       	mov    %ax,0x5e(%rsp)
   12654:	48 89 44 24 42       	mov    %rax,0x42(%rsp)
   12659:	89 44 24 4a          	mov    %eax,0x4a(%rsp)
   1265d:	66 89 44 24 4e       	mov    %ax,0x4e(%rsp)
   12662:	48 8d 05 73 fe ff ff 	lea    -0x18d(%rip),%rax        # 0x124dc
   12669:	41 8d 4d 1c          	lea    0x1c(%r13),%ecx
   1266d:	66 44 89 6c 24 40    	mov    %r13w,0x40(%rsp)
   12673:	f3 48 ab             	rep stos %rax,%es:(%rdi)
   12676:	48 8d 05 7b fb ff ff 	lea    -0x485(%rip),%rax        # 0x121f8
   1267d:	48 8d 0d 1c c1 01 00 	lea    0x1c11c(%rip),%rcx        # 0x2e7a0
   12684:	48 89 45 68          	mov    %rax,0x68(%rbp)
   12688:	4c 89 ac 24 d0 00 00 	mov    %r13,0xd0(%rsp)
   1268f:	00 
   12690:	41 8b dd             	mov    %r13d,%ebx
   12693:	41 8b f5             	mov    %r13d,%esi
   12696:	66 c7 44 24 60 18 8a 	movw   $0x8a18,0x60(%rsp)
   1269d:	66 c7 44 24 62 64 e6 	movw   $0xe664,0x62(%rsp)
   126a4:	66 c7 44 24 64 9f f5 	movw   $0xf59f,0x64(%rsp)
   126ab:	66 c7 44 24 66 2e 86 	movw   $0x862e,0x66(%rsp)
   126b2:	66 c7 44 24 68 6a eb 	movw   $0xeb6a,0x68(%rsp)
   126b9:	66 c7 44 24 6a 4f 80 	movw   $0x804f,0x6a(%rsp)
   126c0:	66 c7 44 24 6c d2 95 	movw   $0x95d2,0x6c(%rsp)
   126c7:	66 c7 44 24 6e 09 e0 	movw   $0xe009,0x6e(%rsp)
   126ce:	66 c7 44 24 70 70 a4 	movw   $0xa470,0x70(%rsp)
   126d5:	66 44 89 6c 24 72    	mov    %r13w,0x72(%rsp)
   126db:	e8 9c 49 00 00       	callq  0x1707c
   126e0:	41 3b c5             	cmp    %r13d,%eax
   126e3:	8b f8                	mov    %eax,%edi
   126e5:	0f 8c 8d 01 00 00    	jl     0x12878
   126eb:	48 8d 54 24 78       	lea    0x78(%rsp),%rdx
   126f0:	b9 00 b6 00 01       	mov    $0x100b600,%ecx
   126f5:	e8 d2 98 00 00       	callq  0x1bfcc
   126fa:	48 8d 54 24 78       	lea    0x78(%rsp),%rdx
   126ff:	48 8d 4c 24 50       	lea    0x50(%rsp),%rcx
   12704:	ff 15 0e f9 00 00    	callq  *0xf90e(%rip)        # 0x22018
   1270a:	48 8d 94 24 d0 00 00 	lea    0xd0(%rsp),%rdx
   12711:	00 
   12712:	45 8d 4d 22          	lea    0x22(%r13),%r9d
   12716:	48 89 54 24 30       	mov    %rdx,0x30(%rsp)
   1271b:	4c 8d 44 24 50       	lea    0x50(%rsp),%r8
   12720:	41 8d 55 08          	lea    0x8(%r13),%edx
   12724:	48 8b cd             	mov    %rbp,%rcx
   12727:	44 88 6c 24 28       	mov    %r13b,0x28(%rsp)
   1272c:	c7 44 24 20 02 00 00 	movl   $0x2,0x20(%rsp)
   12733:	00 
   12734:	e8 57 da 00 00       	callq  0x20190
   12739:	48 8d 54 24 78       	lea    0x78(%rsp),%rdx
   1273e:	b9 00 b6 00 01       	mov    $0x100b600,%ecx
   12743:	8b f8                	mov    %eax,%edi
   12745:	e8 82 98 00 00       	callq  0x1bfcc
   1274a:	41 3b fd             	cmp    %r13d,%edi
   1274d:	0f 8c 25 01 00 00    	jl     0x12878
   12753:	bd 00 97 44 00       	mov    $0x449700,%ebp
   12758:	48 8d 94 24 90 00 00 	lea    0x90(%rsp),%rdx
   1275f:	00 
   12760:	8b cd                	mov    %ebp,%ecx
   12762:	e8 65 98 00 00       	callq  0x1bfcc
   12767:	48 8d 94 24 90 00 00 	lea    0x90(%rsp),%rdx
   1276e:	00 
   1276f:	48 8d 4c 24 40       	lea    0x40(%rsp),%rcx
   12774:	ff 15 9e f8 00 00    	callq  *0xf89e(%rip)        # 0x22018
   1277a:	48 8b 94 24 d0 00 00 	mov    0xd0(%rsp),%rdx
   12781:	00 
   12782:	48 8d 4c 24 40       	lea    0x40(%rsp),%rcx
   12787:	e8 ec db 00 00       	callq  0x20378
   1278c:	48 8d 94 24 90 00 00 	lea    0x90(%rsp),%rdx
   12793:	00 
   12794:	8b cd                	mov    %ebp,%ecx
   12796:	8b f8                	mov    %eax,%edi
   12798:	e8 2f 98 00 00       	callq  0x1bfcc
   1279d:	41 3b fd             	cmp    %r13d,%edi
   127a0:	0f 8c d2 00 00 00    	jl     0x12878
   127a6:	48 8b 84 24 d0 00 00 	mov    0xd0(%rsp),%rax
   127ad:	00 
   127ae:	41 8d 5d 01          	lea    0x1(%r13),%ebx
   127b2:	83 48 30 04          	orl    $0x4,0x30(%rax)
   127b6:	48 8b 84 24 d0 00 00 	mov    0xd0(%rsp),%rax
   127bd:	00 
   127be:	48 8b 48 40          	mov    0x40(%rax),%rcx
   127c2:	44 89 29             	mov    %r13d,(%rcx)
   127c5:	44 89 69 04          	mov    %r13d,0x4(%rcx)
   127c9:	e8 ee f5 ff ff       	callq  0x11dbc
   127ce:	41 3b c5             	cmp    %r13d,%eax
   127d1:	8b f8                	mov    %eax,%edi
   127d3:	0f 8c 9f 00 00 00    	jl     0x12878
   127d9:	48 8b 8c 24 d0 00 00 	mov    0xd0(%rsp),%rcx
   127e0:	00 
   127e1:	ff 15 29 f8 00 00    	callq  *0xf829(%rip)        # 0x22010
   127e7:	41 3b c5             	cmp    %r13d,%eax
   127ea:	8b f8                	mov    %eax,%edi
   127ec:	0f 8c 86 00 00 00    	jl     0x12878
   127f2:	bd 80 b8 00 00       	mov    $0xb880,%ebp
   127f7:	48 8d 54 24 60       	lea    0x60(%rsp),%rdx
   127fc:	8b f3                	mov    %ebx,%esi
   127fe:	8b cd                	mov    %ebp,%ecx
   12800:	e8 c7 97 00 00       	callq  0x1bfcc
   12805:	48 8d 94 24 e0 00 00 	lea    0xe0(%rsp),%rdx
   1280c:	00 
   1280d:	48 8d 4c 24 60       	lea    0x60(%rsp),%rcx
   12812:	e8 d5 0f 00 00       	callq  0x137ec
   12817:	48 8d 54 24 60       	lea    0x60(%rsp),%rdx
   1281c:	8b cd                	mov    %ebp,%ecx
   1281e:	8b f8                	mov    %eax,%edi
   12820:	e8 a7 97 00 00       	callq  0x1bfcc
   12825:	41 3b fd             	cmp    %r13d,%edi
   12828:	7c 26                	jl     0x12850
   1282a:	e8 bd 44 00 00       	callq  0x16cec
   1282f:	41 3b c5             	cmp    %r13d,%eax
   12832:	8b f8                	mov    %eax,%edi
   12834:	7c 42                	jl     0x12878
   12836:	48 8d 0d 93 f8 ff ff 	lea    -0x76d(%rip),%rcx        # 0x120d0
   1283d:	66 81 ca ff ff       	or     $0xffff,%dx
   12842:	e8 c5 46 00 00       	callq  0x16f0c
   12847:	41 3b c5             	cmp    %r13d,%eax
   1284a:	8b f8                	mov    %eax,%edi
   1284c:	7c 2a                	jl     0x12878
   1284e:	eb 1f                	jmp    0x1286f
   12850:	48 8d 0d 31 02 00 00 	lea    0x231(%rip),%rcx        # 0x12a88
   12857:	44 8a cb             	mov    %bl,%r9b
   1285a:	45 33 c0             	xor    %r8d,%r8d
   1285d:	33 d2                	xor    %edx,%edx
   1285f:	44 88 6c 24 28       	mov    %r13b,0x28(%rsp)
   12864:	89 5c 24 20          	mov    %ebx,0x20(%rsp)
   12868:	e8 6f 24 00 00       	callq  0x14cdc
   1286d:	8b f8                	mov    %eax,%edi
   1286f:	41 3b fd             	cmp    %r13d,%edi
   12872:	0f 8d c4 00 00 00    	jge    0x1293c
   12878:	4c 39 ac 24 d0 00 00 	cmp    %r13,0xd0(%rsp)
   1287f:	00 
   12880:	0f 84 b6 00 00 00    	je     0x1293c
   12886:	e8 d5 45 00 00       	callq  0x16e60
   1288b:	41 3b f5             	cmp    %r13d,%esi
   1288e:	74 0e                	je     0x1289e
   12890:	48 8b 8c 24 d0 00 00 	mov    0xd0(%rsp),%rcx
   12897:	00 
   12898:	ff 15 92 f7 00 00    	callq  *0xf792(%rip)        # 0x22030
   1289e:	41 3b dd             	cmp    %r13d,%ebx
   128a1:	74 0a                	je     0x128ad
   128a3:	48 8d 4c 24 40       	lea    0x40(%rsp),%rcx
   128a8:	e8 e3 db 00 00       	callq  0x20490
   128ad:	48 8b 8c 24 d0 00 00 	mov    0xd0(%rsp),%rcx
   128b4:	00 
   128b5:	e8 8e da 00 00       	callq  0x20348
   128ba:	e8 c5 d3 00 00       	callq  0x1fc84
   128bf:	48 8b 0d 52 b8 01 00 	mov    0x1b852(%rip),%rcx        # 0x2e118
   128c6:	48 83 f9 ff          	cmp    $0xffffffffffffffff,%rcx
   128ca:	74 70                	je     0x1293c
   128cc:	4c 39 2d cd be 01 00 	cmp    %r13,0x1becd(%rip)        # 0x2e7a0
   128d3:	74 67                	je     0x1293c
   128d5:	4c 39 2d cc be 01 00 	cmp    %r13,0x1becc(%rip)        # 0x2e7a8
   128dc:	74 5e                	je     0x1293c
   128de:	4c 39 2d cb be 01 00 	cmp    %r13,0x1becb(%rip)        # 0x2e7b0
   128e5:	74 55                	je     0x1293c
   128e7:	4c 39 2d ca be 01 00 	cmp    %r13,0x1beca(%rip)        # 0x2e7b8
   128ee:	74 4c                	je     0x1293c
   128f0:	48 8b 05 c9 be 01 00 	mov    0x1bec9(%rip),%rax        # 0x2e7c0
   128f7:	49 3b c5             	cmp    %r13,%rax
   128fa:	74 40                	je     0x1293c
   128fc:	4c 39 2d c5 be 01 00 	cmp    %r13,0x1bec5(%rip)        # 0x2e7c8
   12903:	74 37                	je     0x1293c
   12905:	4c 39 2d c4 be 01 00 	cmp    %r13,0x1bec4(%rip)        # 0x2e7d0
   1290c:	74 2e                	je     0x1293c
   1290e:	4c 39 2d c3 be 01 00 	cmp    %r13,0x1bec3(%rip)        # 0x2e7d8
   12915:	74 25                	je     0x1293c
   12917:	4c 39 2d c2 be 01 00 	cmp    %r13,0x1bec2(%rip)        # 0x2e7e0
   1291e:	74 1c                	je     0x1293c
   12920:	4c 39 2d c1 be 01 00 	cmp    %r13,0x1bec1(%rip)        # 0x2e7e8
   12927:	74 13                	je     0x1293c
   12929:	4c 39 2d c0 be 01 00 	cmp    %r13,0x1bec0(%rip)        # 0x2e7f0
   12930:	74 0a                	je     0x1293c
   12932:	ff d0                	callq  *%rax
   12934:	48 83 0d dc b7 01 00 	orq    $0xffffffffffffffff,0x1b7dc(%rip)        # 0x2e118
   1293b:	ff 
   1293c:	4c 8d 9c 24 b0 00 00 	lea    0xb0(%rsp),%r11
   12943:	00 
   12944:	8b c7                	mov    %edi,%eax
   12946:	49 8b 5b 28          	mov    0x28(%r11),%rbx
   1294a:	49 8b 6b 38          	mov    0x38(%r11),%rbp
   1294e:	49 8b e3             	mov    %r11,%rsp
   12951:	41 5d                	pop    %r13
   12953:	5f                   	pop    %rdi
   12954:	5e                   	pop    %rsi
   12955:	c3                   	retq   
   12956:	cc                   	int3   
   12957:	cc                   	int3   
   12958:	cc                   	int3   
   12959:	cc                   	int3   
   1295a:	cc                   	int3   
   1295b:	cc                   	int3   
   1295c:	48 8b c4             	mov    %rsp,%rax
   1295f:	48 83 ec 68          	sub    $0x68,%rsp
   12963:	66 83 60 f0 00       	andw   $0x0,-0x10(%rax)
   12968:	66 c7 40 d8 b9 88    	movw   $0x88b9,-0x28(%rax)
   1296e:	66 c7 40 da c6 c1    	movw   $0xc1c6,-0x26(%rax)
   12974:	66 c7 40 dc 1e 96    	movw   $0x961e,-0x24(%rax)
   1297a:	66 c7 40 de 4d d6    	movw   $0xd64d,-0x22(%rax)
   12980:	66 c7 40 e0 10 bd    	movw   $0xbd10,-0x20(%rax)
   12986:	66 c7 40 e2 02 ed    	movw   $0xed02,-0x1e(%rax)
   1298c:	66 c7 40 e4 ba df    	movw   $0xdfba,-0x1c(%rax)
   12992:	66 c7 40 e6 e2 88    	movw   $0x88e2,-0x1a(%rax)
   12998:	66 c7 40 e8 9c c2    	movw   $0xc29c,-0x18(%rax)
   1299e:	66 c7 40 ea 85 fc    	movw   $0xfc85,-0x16(%rax)
   129a4:	66 c7 40 ec 4f a6    	movw   $0xa64f,-0x14(%rax)
   129aa:	66 c7 40 ee 84 e0    	movw   $0xe084,-0x12(%rax)
   129b0:	e8 5b 04 00 00       	callq  0x12e10
   129b5:	85 c0                	test   %eax,%eax
   129b7:	0f 88 be 00 00 00    	js     0x12a7b
   129bd:	48 8b 05 44 be 01 00 	mov    0x1be44(%rip),%rax        # 0x2e808
   129c4:	48 8d 54 24 40       	lea    0x40(%rsp),%rdx
   129c9:	b9 80 5f 39 02       	mov    $0x2395f80,%ecx
   129ce:	48 89 05 bb bd 01 00 	mov    %rax,0x1bdbb(%rip)        # 0x2e790
   129d5:	8b 05 29 ba 01 00    	mov    0x1ba29(%rip),%eax        # 0x2e404
   129db:	c7 05 a3 bd 01 00 01 	movl   $0x1,0x1bda3(%rip)        # 0x2e788
   129e2:	00 00 00 
   129e5:	89 05 a1 bd 01 00    	mov    %eax,0x1bda1(%rip)        # 0x2e78c
   129eb:	e8 dc 95 00 00       	callq  0x1bfcc
   129f0:	48 8d 54 24 40       	lea    0x40(%rsp),%rdx
   129f5:	48 8d 4c 24 30       	lea    0x30(%rsp),%rcx
   129fa:	ff 15 18 f6 00 00    	callq  *0xf618(%rip)        # 0x22018
   12a00:	48 83 64 24 28 00    	andq   $0x0,0x28(%rsp)
   12a06:	48 83 64 24 20 00    	andq   $0x0,0x20(%rsp)
   12a0c:	4c 8d 05 65 fb ff ff 	lea    -0x49b(%rip),%r8        # 0x12578
   12a13:	48 8d 4c 24 30       	lea    0x30(%rsp),%rcx
   12a18:	45 33 c9             	xor    %r9d,%r9d
   12a1b:	33 d2                	xor    %edx,%edx
   12a1d:	e8 46 1e 00 00       	callq  0x14868
   12a22:	85 c0                	test   %eax,%eax
   12a24:	79 0b                	jns    0x12a31
   12a26:	33 d2                	xor    %edx,%edx
   12a28:	48 8d 0d 19 01 00 00 	lea    0x119(%rip),%rcx        # 0x12b48
   12a2f:	eb 23                	jmp    0x12a54
   12a31:	48 8b 15 60 bd 01 00 	mov    0x1bd60(%rip),%rdx        # 0x2e798
   12a38:	48 8d 4c 24 30       	lea    0x30(%rsp),%rcx
   12a3d:	e8 6e 17 00 00       	callq  0x141b0
   12a42:	85 c0                	test   %eax,%eax
   12a44:	79 26                	jns    0x12a6c
   12a46:	48 8b 15 4b bd 01 00 	mov    0x1bd4b(%rip),%rdx        # 0x2e798
   12a4d:	48 8d 0d a4 f7 ff ff 	lea    -0x85c(%rip),%rcx        # 0x121f8
   12a54:	41 b1 01             	mov    $0x1,%r9b
   12a57:	45 33 c0             	xor    %r8d,%r8d
   12a5a:	c6 44 24 28 00       	movb   $0x0,0x28(%rsp)
   12a5f:	c7 44 24 20 01 00 00 	movl   $0x1,0x20(%rsp)
   12a66:	00 
   12a67:	e8 70 22 00 00       	callq  0x14cdc
   12a6c:	48 8d 54 24 40       	lea    0x40(%rsp),%rdx
   12a71:	b9 80 5f 39 02       	mov    $0x2395f80,%ecx
   12a76:	e8 51 95 00 00       	callq  0x1bfcc
   12a7b:	48 83 c4 68          	add    $0x68,%rsp
   12a7f:	c3                   	retq   
   12a80:	cc                   	int3   
   12a81:	cc                   	int3   
   12a82:	cc                   	int3   
   12a83:	cc                   	int3   
   12a84:	cc                   	int3   
   12a85:	cc                   	int3   
   12a86:	cc                   	int3   
   12a87:	cc                   	int3   
   12a88:	48 8b c4             	mov    %rsp,%rax
   12a8b:	53                   	push   %rbx
   12a8c:	48 83 ec 40          	sub    $0x40,%rsp
   12a90:	66 83 60 ea 00       	andw   $0x0,-0x16(%rax)
   12a95:	66 c7 40 d8 18 8a    	movw   $0x8a18,-0x28(%rax)
   12a9b:	66 c7 40 da 64 e6    	movw   $0xe664,-0x26(%rax)
   12aa1:	66 c7 40 dc 9f f5    	movw   $0xf59f,-0x24(%rax)
   12aa7:	66 c7 40 de 2e 86    	movw   $0x862e,-0x22(%rax)
   12aad:	66 c7 40 e0 6a eb    	movw   $0xeb6a,-0x20(%rax)
   12ab3:	66 c7 40 e2 4f 80    	movw   $0x804f,-0x1e(%rax)
   12ab9:	66 c7 40 e4 d2 95    	movw   $0x95d2,-0x1c(%rax)
   12abf:	66 c7 40 e6 09 e0    	movw   $0xe009,-0x1a(%rax)
   12ac5:	66 c7 40 e8 70 a4    	movw   $0xa470,-0x18(%rax)
   12acb:	48 8d 54 24 20       	lea    0x20(%rsp),%rdx
   12ad0:	b9 80 b8 00 00       	mov    $0xb880,%ecx
   12ad5:	e8 f2 94 00 00       	callq  0x1bfcc
   12ada:	48 8d 54 24 60       	lea    0x60(%rsp),%rdx
   12adf:	48 8d 4c 24 20       	lea    0x20(%rsp),%rcx
   12ae4:	e8 03 0d 00 00       	callq  0x137ec
   12ae9:	48 8d 54 24 20       	lea    0x20(%rsp),%rdx
   12aee:	b9 80 b8 00 00       	mov    $0xb880,%ecx
   12af3:	8b d8                	mov    %eax,%ebx
   12af5:	e8 d2 94 00 00       	callq  0x1bfcc
   12afa:	85 db                	test   %ebx,%ebx
   12afc:	79 1a                	jns    0x12b18
   12afe:	4c 8d 44 24 58       	lea    0x58(%rsp),%r8
   12b03:	33 d2                	xor    %edx,%edx
   12b05:	33 c9                	xor    %ecx,%ecx
   12b07:	48 c7 44 24 58 60 da 	movq   $0xffffffffffd9da60,0x58(%rsp)
   12b0e:	d9 ff 
   12b10:	ff 15 0a f5 00 00    	callq  *0xf50a(%rip)        # 0x22020
   12b16:	eb b3                	jmp    0x12acb
   12b18:	e8 cf 41 00 00       	callq  0x16cec
   12b1d:	85 c0                	test   %eax,%eax
   12b1f:	78 11                	js     0x12b32
   12b21:	48 8d 0d a8 f5 ff ff 	lea    -0xa58(%rip),%rcx        # 0x120d0
   12b28:	66 81 ca ff ff       	or     $0xffff,%dx
   12b2d:	e8 da 43 00 00       	callq  0x16f0c
   12b32:	8b c8                	mov    %eax,%ecx
   12b34:	ff 15 fe f4 00 00    	callq  *0xf4fe(%rip)        # 0x22038
   12b3a:	48 83 c4 40          	add    $0x40,%rsp
   12b3e:	5b                   	pop    %rbx
   12b3f:	c3                   	retq   
   12b40:	cc                   	int3   
   12b41:	cc                   	int3   
   12b42:	cc                   	int3   
   12b43:	cc                   	int3   
   12b44:	cc                   	int3   
   12b45:	cc                   	int3   
   12b46:	cc                   	int3   
   12b47:	cc                   	int3   
   12b48:	48 83 ec 28          	sub    $0x28,%rsp
   12b4c:	4c 8d 44 24 38       	lea    0x38(%rsp),%r8
   12b51:	33 d2                	xor    %edx,%edx
   12b53:	33 c9                	xor    %ecx,%ecx
   12b55:	48 c7 44 24 38 00 1f 	movq   $0xfffffffffa0a1f00,0x38(%rsp)
   12b5c:	0a fa 
   12b5e:	ff 15 bc f4 00 00    	callq  *0xf4bc(%rip)        # 0x22020
   12b64:	e8 f3 04 00 00       	callq  0x1305c
   12b69:	85 c0                	test   %eax,%eax
   12b6b:	79 08                	jns    0x12b75
   12b6d:	33 c9                	xor    %ecx,%ecx
   12b6f:	ff 15 c3 f4 00 00    	callq  *0xf4c3(%rip)        # 0x22038
   12b75:	48 83 c4 28          	add    $0x28,%rsp
   12b79:	c3                   	retq   
   12b7a:	cc                   	int3   
   12b7b:	cc                   	int3   
   12b7c:	cc                   	int3   
   12b7d:	cc                   	int3   
   12b7e:	cc                   	int3   
   12b7f:	cc                   	int3   
   12b80:	48 8b c4             	mov    %rsp,%rax
   12b83:	48 89 58 08          	mov    %rbx,0x8(%rax)
   12b87:	48 89 70 18          	mov    %rsi,0x18(%rax)
   12b8b:	57                   	push   %rdi
   12b8c:	48 81 ec 50 01 00 00 	sub    $0x150,%rsp
   12b93:	48 8b f9             	mov    %rcx,%rdi
   12b96:	be 30 01 00 00       	mov    $0x130,%esi
   12b9b:	4c 8d 48 10          	lea    0x10(%rax),%r9
   12b9f:	48 8d 54 24 20       	lea    0x20(%rsp),%rdx
   12ba4:	b9 0b 00 00 00       	mov    $0xb,%ecx
   12ba9:	44 8b c6             	mov    %esi,%r8d
   12bac:	e8 1f 27 00 00       	callq  0x152d0
   12bb1:	85 c0                	test   %eax,%eax
   12bb3:	78 46                	js     0x12bfb
   12bb5:	48 8b d6             	mov    %rsi,%rdx
   12bb8:	b9 01 00 00 00       	mov    $0x1,%ecx
   12bbd:	e8 e2 27 00 00       	callq  0x153a4
   12bc2:	48 85 c0             	test   %rax,%rax
   12bc5:	48 8b d8             	mov    %rax,%rbx
   12bc8:	75 07                	jne    0x12bd1
   12bca:	b8 9a 00 00 c0       	mov    $0xc000009a,%eax
   12bcf:	eb 15                	jmp    0x12be6
   12bd1:	48 8d 54 24 20       	lea    0x20(%rsp),%rdx
   12bd6:	4c 8b c6             	mov    %rsi,%r8
   12bd9:	48 8b c8             	mov    %rax,%rcx
   12bdc:	e8 3f d9 00 00       	callq  0x20520
   12be1:	33 c0                	xor    %eax,%eax
   12be3:	48 89 1f             	mov    %rbx,(%rdi)
   12be6:	4c 8d 9c 24 50 01 00 	lea    0x150(%rsp),%r11
   12bed:	00 
   12bee:	49 8b 5b 10          	mov    0x10(%r11),%rbx
   12bf2:	49 8b 73 20          	mov    0x20(%r11),%rsi
   12bf6:	49 8b e3             	mov    %r11,%rsp
   12bf9:	5f                   	pop    %rdi
   12bfa:	c3                   	retq   
   12bfb:	3d 04 00 00 c0       	cmp    $0xc0000004,%eax
   12c00:	75 e4                	jne    0x12be6
   12c02:	8b 94 24 68 01 00 00 	mov    0x168(%rsp),%edx
   12c09:	b9 01 00 00 00       	mov    $0x1,%ecx
   12c0e:	e8 91 27 00 00       	callq  0x153a4
   12c13:	48 85 c0             	test   %rax,%rax
   12c16:	48 8b d8             	mov    %rax,%rbx
   12c19:	74 af                	je     0x12bca
   12c1b:	44 8b 84 24 68 01 00 	mov    0x168(%rsp),%r8d
   12c22:	00 
   12c23:	45 33 c9             	xor    %r9d,%r9d
   12c26:	48 8b d0             	mov    %rax,%rdx
   12c29:	41 8d 49 0b          	lea    0xb(%r9),%ecx
   12c2d:	e8 9e 26 00 00       	callq  0x152d0
   12c32:	85 c0                	test   %eax,%eax
   12c34:	8b f0                	mov    %eax,%esi
   12c36:	79 a9                	jns    0x12be1
   12c38:	48 8b cb             	mov    %rbx,%rcx
   12c3b:	e8 14 27 00 00       	callq  0x15354
   12c40:	8b c6                	mov    %esi,%eax
   12c42:	eb a2                	jmp    0x12be6
   12c44:	cc                   	int3   
   12c45:	cc                   	int3   
   12c46:	cc                   	int3   
   12c47:	cc                   	int3   
   12c48:	cc                   	int3   
   12c49:	cc                   	int3   
   12c4a:	cc                   	int3   
   12c4b:	cc                   	int3   
   12c4c:	48 8b c4             	mov    %rsp,%rax
   12c4f:	53                   	push   %rbx
   12c50:	55                   	push   %rbp
   12c51:	56                   	push   %rsi
   12c52:	57                   	push   %rdi
   12c53:	41 55                	push   %r13
   12c55:	48 81 ec 60 01 00 00 	sub    $0x160,%rsp
   12c5c:	48 83 60 18 00       	andq   $0x0,0x18(%rax)
   12c61:	48 83 60 20 00       	andq   $0x0,0x20(%rax)
   12c66:	48 8b e9             	mov    %rcx,%rbp
   12c69:	48 8d 48 20          	lea    0x20(%rax),%rcx
   12c6d:	c6 44 24 20 6e       	movb   $0x6e,0x20(%rsp)
   12c72:	c6 44 24 21 74       	movb   $0x74,0x21(%rsp)
   12c77:	c6 44 24 22 6f       	movb   $0x6f,0x22(%rsp)
   12c7c:	c6 44 24 23 73       	movb   $0x73,0x23(%rsp)
   12c81:	c6 44 24 24 6b       	movb   $0x6b,0x24(%rsp)
   12c86:	c6 44 24 25 72       	movb   $0x72,0x25(%rsp)
   12c8b:	c6 44 24 26 6e       	movb   $0x6e,0x26(%rsp)
   12c90:	c6 44 24 27 6c       	movb   $0x6c,0x27(%rsp)
   12c95:	c6 44 24 28 2e       	movb   $0x2e,0x28(%rsp)
   12c9a:	c6 44 24 29 65       	movb   $0x65,0x29(%rsp)
   12c9f:	c6 44 24 2a 78       	movb   $0x78,0x2a(%rsp)
   12ca4:	c6 44 24 2b 65       	movb   $0x65,0x2b(%rsp)
   12ca9:	c6 44 24 2c 00       	movb   $0x0,0x2c(%rsp)
   12cae:	c6 40 10 68          	movb   $0x68,0x10(%rax)
   12cb2:	c6 40 11 61          	movb   $0x61,0x11(%rax)
   12cb6:	c6 40 12 6c          	movb   $0x6c,0x12(%rax)
   12cba:	c6 40 13 2e          	movb   $0x2e,0x13(%rax)
   12cbe:	c6 40 14 64          	movb   $0x64,0x14(%rax)
   12cc2:	c6 40 15 6c          	movb   $0x6c,0x15(%rax)
   12cc6:	c6 40 16 6c          	movb   $0x6c,0x16(%rax)
   12cca:	c6 40 17 00          	movb   $0x0,0x17(%rax)
   12cce:	e8 ad fe ff ff       	callq  0x12b80
   12cd3:	41 bd 01 00 00 00    	mov    $0x1,%r13d
   12cd9:	85 c0                	test   %eax,%eax
   12cdb:	8b d8                	mov    %eax,%ebx
   12cdd:	0f 88 bd 00 00 00    	js     0x12da0
   12ce3:	48 8b bc 24 a8 01 00 	mov    0x1a8(%rsp),%rdi
   12cea:	00 
   12ceb:	83 3f 02             	cmpl   $0x2,(%rdi)
   12cee:	0f 82 b0 00 00 00    	jb     0x12da4
   12cf4:	33 db                	xor    %ebx,%ebx
   12cf6:	48 8d 77 08          	lea    0x8(%rdi),%rsi
   12cfa:	3b 1f                	cmp    (%rdi),%ebx
   12cfc:	73 3c                	jae    0x12d3a
   12cfe:	48 85 ed             	test   %rbp,%rbp
   12d01:	74 15                	je     0x12d18
   12d03:	0f b7 46 26          	movzwl 0x26(%rsi),%eax
   12d07:	48 8b d5             	mov    %rbp,%rdx
   12d0a:	48 8d 4c 30 28       	lea    0x28(%rax,%rsi,1),%rcx
   12d0f:	e8 64 93 00 00       	callq  0x1c078
   12d14:	84 c0                	test   %al,%al
   12d16:	eb 0e                	jmp    0x12d26
   12d18:	48 83 7e 08 00       	cmpq   $0x0,0x8(%rsi)
   12d1d:	77 09                	ja     0x12d28
   12d1f:	8b 46 18             	mov    0x18(%rsi),%eax
   12d22:	48 03 46 08          	add    0x8(%rsi),%rax
   12d26:	75 0e                	jne    0x12d36
   12d28:	41 03 dd             	add    %r13d,%ebx
   12d2b:	48 81 c6 28 01 00 00 	add    $0x128,%rsi
   12d32:	3b 1f                	cmp    (%rdi),%ebx
   12d34:	72 c8                	jb     0x12cfe
   12d36:	3b 1f                	cmp    (%rdi),%ebx
   12d38:	72 42                	jb     0x12d7c
   12d3a:	48 85 ed             	test   %rbp,%rbp
   12d3d:	74 39                	je     0x12d78
   12d3f:	48 8d 54 24 20       	lea    0x20(%rsp),%rdx
   12d44:	48 8b cd             	mov    %rbp,%rcx
   12d47:	e8 2c 93 00 00       	callq  0x1c078
   12d4c:	84 c0                	test   %al,%al
   12d4e:	74 04                	je     0x12d54
   12d50:	33 db                	xor    %ebx,%ebx
   12d52:	eb 16                	jmp    0x12d6a
   12d54:	48 8d 94 24 98 01 00 	lea    0x198(%rsp),%rdx
   12d5b:	00 
   12d5c:	48 8b cd             	mov    %rbp,%rcx
   12d5f:	e8 14 93 00 00       	callq  0x1c078
   12d64:	84 c0                	test   %al,%al
   12d66:	41 0f 45 dd          	cmovne %r13d,%ebx
   12d6a:	8b c3                	mov    %ebx,%eax
   12d6c:	48 69 c0 28 01 00 00 	imul   $0x128,%rax,%rax
   12d73:	48 8d 74 38 08       	lea    0x8(%rax,%rdi,1),%rsi
   12d78:	3b 1f                	cmp    (%rdi),%ebx
   12d7a:	73 17                	jae    0x12d93
   12d7c:	48 8d 4c 24 30       	lea    0x30(%rsp),%rcx
   12d81:	41 b8 28 01 00 00    	mov    $0x128,%r8d
   12d87:	48 8b d6             	mov    %rsi,%rdx
   12d8a:	e8 a5 92 00 00       	callq  0x1c034
   12d8f:	33 db                	xor    %ebx,%ebx
   12d91:	eb 05                	jmp    0x12d98
   12d93:	bb 01 00 00 c0       	mov    $0xc0000001,%ebx
   12d98:	48 8b cf             	mov    %rdi,%rcx
   12d9b:	e8 b4 25 00 00       	callq  0x15354
   12da0:	85 db                	test   %ebx,%ebx
   12da2:	79 52                	jns    0x12df6
   12da4:	41 b9 08 00 00 00    	mov    $0x8,%r9d
   12daa:	45 8a c5             	mov    %r13b,%r8b
   12dad:	48 ba 00 19 2e 78 13 	movabs $0x1ae613782e1900,%rdx
   12db4:	e6 1a 00 
   12db7:	48 8b cd             	mov    %rbp,%rcx
   12dba:	e8 c5 94 00 00       	callq  0x1c284
   12dbf:	84 c0                	test   %al,%al
   12dc1:	74 14                	je     0x12dd7
   12dc3:	48 8d 54 24 48       	lea    0x48(%rsp),%rdx
   12dc8:	48 8d 8c 24 a0 01 00 	lea    0x1a0(%rsp),%rcx
   12dcf:	00 
   12dd0:	e8 e7 23 00 00       	callq  0x151bc
   12dd5:	eb 15                	jmp    0x12dec
   12dd7:	45 8a c5             	mov    %r13b,%r8b
   12dda:	48 ba ef a5 07 4f f5 	movabs $0x1ae5f54f07a5ef,%rdx
   12de1:	e5 1a 00 
   12de4:	48 8b cd             	mov    %rbp,%rcx
   12de7:	e8 a4 95 00 00       	callq  0x1c390
   12dec:	48 8b 84 24 a0 01 00 	mov    0x1a0(%rsp),%rax
   12df3:	00 
   12df4:	eb 05                	jmp    0x12dfb
   12df6:	48 8b 44 24 40       	mov    0x40(%rsp),%rax
   12dfb:	48 81 c4 60 01 00 00 	add    $0x160,%rsp
   12e02:	41 5d                	pop    %r13
   12e04:	5f                   	pop    %rdi
   12e05:	5e                   	pop    %rsi
   12e06:	5d                   	pop    %rbp
   12e07:	5b                   	pop    %rbx
   12e08:	c3                   	retq   
   12e09:	cc                   	int3   
   12e0a:	cc                   	int3   
   12e0b:	cc                   	int3   
   12e0c:	cc                   	int3   
   12e0d:	cc                   	int3   
   12e0e:	cc                   	int3   
   12e0f:	cc                   	int3   
   12e10:	48 8b c4             	mov    %rsp,%rax
   12e13:	53                   	push   %rbx
   12e14:	55                   	push   %rbp
   12e15:	56                   	push   %rsi
   12e16:	57                   	push   %rdi
   12e17:	41 54                	push   %r12
   12e19:	41 55                	push   %r13
   12e1b:	41 57                	push   %r15
   12e1d:	48 83 ec 30          	sub    $0x30,%rsp
   12e21:	48 83 60 18 00       	andq   $0x0,0x18(%rax)
   12e26:	83 60 10 00          	andl   $0x0,0x10(%rax)
   12e2a:	48 83 60 b8 00       	andq   $0x0,-0x48(%rax)
   12e2f:	48 8b 4c 24 68       	mov    0x68(%rsp),%rcx
   12e34:	48 83 60 20 00       	andq   $0x0,0x20(%rax)
   12e39:	4c 8d 48 10          	lea    0x10(%rax),%r9
   12e3d:	4c 8d 40 18          	lea    0x18(%rax),%r8
   12e41:	ba 00 04 00 00       	mov    $0x400,%edx
   12e46:	c6 44 24 70 00       	movb   $0x0,0x70(%rsp)
   12e4b:	e8 f0 9f 00 00       	callq  0x1ce40
   12e50:	48 8b b4 24 80 00 00 	mov    0x80(%rsp),%rsi
   12e57:	00 
   12e58:	48 85 f6             	test   %rsi,%rsi
   12e5b:	0f 84 e1 01 00 00    	je     0x13042
   12e61:	48 63 7e 3c          	movslq 0x3c(%rsi),%rdi
   12e65:	33 c9                	xor    %ecx,%ecx
   12e67:	48 03 fe             	add    %rsi,%rdi
   12e6a:	8b 6f 50             	mov    0x50(%rdi),%ebp
   12e6d:	48 8b d5             	mov    %rbp,%rdx
   12e70:	e8 2f 25 00 00       	callq  0x153a4
   12e75:	48 85 c0             	test   %rax,%rax
   12e78:	48 8b d8             	mov    %rax,%rbx
   12e7b:	75 0a                	jne    0x12e87
   12e7d:	b8 9a 00 00 c0       	mov    $0xc000009a,%eax
   12e82:	e9 c0 01 00 00       	jmpq   0x13047
   12e87:	4c 8b c5             	mov    %rbp,%r8
   12e8a:	33 d2                	xor    %edx,%edx
   12e8c:	48 8b c8             	mov    %rax,%rcx
   12e8f:	e8 c8 91 00 00       	callq  0x1c05c
   12e94:	44 8b 47 54          	mov    0x54(%rdi),%r8d
   12e98:	48 8b d6             	mov    %rsi,%rdx
   12e9b:	48 8b cb             	mov    %rbx,%rcx
   12e9e:	e8 91 91 00 00       	callq  0x1c034
   12ea3:	44 0f b7 5f 14       	movzwl 0x14(%rdi),%r11d
   12ea8:	45 33 ed             	xor    %r13d,%r13d
   12eab:	66 44 39 6f 06       	cmp    %r13w,0x6(%rdi)
   12eb0:	45 8d 7d 01          	lea    0x1(%r13),%r15d
   12eb4:	76 3b                	jbe    0x12ef1
   12eb6:	4d 8d 64 3b 20       	lea    0x20(%r11,%rdi,1),%r12
   12ebb:	41 8b 44 24 08       	mov    0x8(%r12),%eax
   12ec0:	41 8b 4c 24 04       	mov    0x4(%r12),%ecx
   12ec5:	41 8b 54 24 0c       	mov    0xc(%r12),%edx
   12eca:	48 03 cb             	add    %rbx,%rcx
   12ecd:	48 03 d6             	add    %rsi,%rdx
   12ed0:	41 3b 04 24          	cmp    (%r12),%eax
   12ed4:	41 0f 47 04 24       	cmova  (%r12),%eax
   12ed9:	44 8b c0             	mov    %eax,%r8d
   12edc:	e8 53 91 00 00       	callq  0x1c034
   12ee1:	0f b7 47 06          	movzwl 0x6(%rdi),%eax
   12ee5:	45 03 ef             	add    %r15d,%r13d
   12ee8:	49 83 c4 28          	add    $0x28,%r12
   12eec:	44 3b e8             	cmp    %eax,%r13d
   12eef:	7c ca                	jl     0x12ebb
   12ef1:	45 8a c7             	mov    %r15b,%r8b
   12ef4:	8b d5                	mov    %ebp,%edx
   12ef6:	48 8b cb             	mov    %rbx,%rcx
   12ef9:	48 89 5c 24 28       	mov    %rbx,0x28(%rsp)
   12efe:	89 6c 24 78          	mov    %ebp,0x78(%rsp)
   12f02:	e8 1d a0 00 00       	callq  0x1cf24
   12f07:	85 c0                	test   %eax,%eax
   12f09:	8b f8                	mov    %eax,%edi
   12f0b:	0f 88 97 00 00 00    	js     0x12fa8
   12f11:	e8 ae 23 00 00       	callq  0x152c4
   12f16:	4c 8b d8             	mov    %rax,%r11
   12f19:	8a 44 24 70          	mov    0x70(%rsp),%al
   12f1d:	84 c0                	test   %al,%al
   12f1f:	75 61                	jne    0x12f82
   12f21:	4c 2b 9c 24 80 00 00 	sub    0x80(%rsp),%r11
   12f28:	00 
   12f29:	4c 8d 44 24 20       	lea    0x20(%rsp),%r8
   12f2e:	48 8b d3             	mov    %rbx,%rdx
   12f31:	41 8b cb             	mov    %r11d,%ecx
   12f34:	44 88 7c 24 70       	mov    %r15b,0x70(%rsp)
   12f39:	e8 82 94 00 00       	callq  0x1c3c0
   12f3e:	84 c0                	test   %al,%al
   12f40:	75 07                	jne    0x12f49
   12f42:	bf 03 00 00 40       	mov    $0x40000003,%edi
   12f47:	eb 5f                	jmp    0x12fa8
   12f49:	48 8d 7c 24 68       	lea    0x68(%rsp),%rdi
   12f4e:	4c 8d 84 24 88 00 00 	lea    0x88(%rsp),%r8
   12f55:	00 
   12f56:	48 8b d3             	mov    %rbx,%rdx
   12f59:	48 8b 0f             	mov    (%rdi),%rcx
   12f5c:	48 2b 8c 24 80 00 00 	sub    0x80(%rsp),%rcx
   12f63:	00 
   12f64:	e8 57 94 00 00       	callq  0x1c3c0
   12f69:	84 c0                	test   %al,%al
   12f6b:	74 d5                	je     0x12f42
   12f6d:	48 8b 84 24 88 00 00 	mov    0x88(%rsp),%rax
   12f74:	00 
   12f75:	48 89 07             	mov    %rax,(%rdi)
   12f78:	48 8b 4c 24 20       	mov    0x20(%rsp),%rcx
   12f7d:	e8 fe a5 00 00       	callq  0x1d580
   12f82:	4c 8d 05 eb 01 00 00 	lea    0x1eb(%rip),%r8        # 0x13174
   12f89:	48 8d 15 bc fc ff ff 	lea    -0x344(%rip),%rdx        # 0x12c4c
   12f90:	45 33 c9             	xor    %r9d,%r9d
   12f93:	48 8b cb             	mov    %rbx,%rcx
   12f96:	44 88 3d 67 b8 01 00 	mov    %r15b,0x1b867(%rip)        # 0x2e804
   12f9d:	e8 82 97 00 00       	callq  0x1c724
   12fa2:	85 c0                	test   %eax,%eax
   12fa4:	79 11                	jns    0x12fb7
   12fa6:	8b f8                	mov    %eax,%edi
   12fa8:	48 8b cb             	mov    %rbx,%rcx
   12fab:	e8 a4 23 00 00       	callq  0x15354
   12fb0:	8b c7                	mov    %edi,%eax
   12fb2:	e9 90 00 00 00       	jmpq   0x13047
   12fb7:	8b 54 24 78          	mov    0x78(%rsp),%edx
   12fbb:	48 8b cb             	mov    %rbx,%rcx
   12fbe:	e8 25 29 00 00       	callq  0x158e8
   12fc3:	8b 44 24 78          	mov    0x78(%rsp),%eax
   12fc7:	48 89 1d 3a b8 01 00 	mov    %rbx,0x1b83a(%rip)        # 0x2e808
   12fce:	89 05 30 b4 01 00    	mov    %eax,0x1b430(%rip)        # 0x2e404
   12fd4:	48 8d 1d 35 b4 01 00 	lea    0x1b435(%rip),%rbx        # 0x2e410
   12fdb:	33 c0                	xor    %eax,%eax
   12fdd:	f0 44 0f b1 3d 1a b8 	lock cmpxchg %r15d,0x1b81a(%rip)        # 0x2e800
   12fe4:	01 00 
   12fe6:	75 09                	jne    0x12ff1
   12fe8:	48 8b cb             	mov    %rbx,%rcx
   12feb:	ff 15 7f f0 00 00    	callq  *0xf07f(%rip)        # 0x22070
   12ff1:	41 8a d7             	mov    %r15b,%dl
   12ff4:	48 8b cb             	mov    %rbx,%rcx
   12ff7:	ff 15 5b f0 00 00    	callq  *0xf05b(%rip)        # 0x22058
   12ffd:	80 3d 01 b8 01 00 00 	cmpb   $0x0,0x1b801(%rip)        # 0x2e805
   13004:	75 2f                	jne    0x13035
   13006:	8b 15 f8 b3 01 00    	mov    0x1b3f8(%rip),%edx        # 0x2e404
   1300c:	48 8b 0d f5 b7 01 00 	mov    0x1b7f5(%rip),%rcx        # 0x2e808
   13013:	4c 8d 0d e6 b3 01 00 	lea    0x1b3e6(%rip),%r9        # 0x2e400
   1301a:	41 b0 dc             	mov    $0xdc,%r8b
   1301d:	e8 5e a3 00 00       	callq  0x1d380
   13022:	0f b6 15 dc b7 01 00 	movzbl 0x1b7dc(%rip),%edx        # 0x2e805
   13029:	85 c0                	test   %eax,%eax
   1302b:	41 0f 44 d7          	cmove  %r15d,%edx
   1302f:	88 15 d0 b7 01 00    	mov    %dl,0x1b7d0(%rip)        # 0x2e805
   13035:	48 8b cb             	mov    %rbx,%rcx
   13038:	ff 15 22 f0 00 00    	callq  *0xf022(%rip)        # 0x22060
   1303e:	33 c0                	xor    %eax,%eax
   13040:	eb 05                	jmp    0x13047
   13042:	b8 0d 00 00 c0       	mov    $0xc000000d,%eax
   13047:	48 83 c4 30          	add    $0x30,%rsp
   1304b:	41 5f                	pop    %r15
   1304d:	41 5d                	pop    %r13
   1304f:	41 5c                	pop    %r12
   13051:	5f                   	pop    %rdi
   13052:	5e                   	pop    %rsi
   13053:	5d                   	pop    %rbp
   13054:	5b                   	pop    %rbx
   13055:	c3                   	retq   
   13056:	cc                   	int3   
   13057:	cc                   	int3   
   13058:	cc                   	int3   
   13059:	cc                   	int3   
   1305a:	cc                   	int3   
   1305b:	cc                   	int3   
   1305c:	48 8b c4             	mov    %rsp,%rax
   1305f:	48 89 58 18          	mov    %rbx,0x18(%rax)
   13063:	56                   	push   %rsi
   13064:	57                   	push   %rdi
   13065:	41 54                	push   %r12
   13067:	48 83 ec 30          	sub    $0x30,%rsp
   1306b:	bb 01 00 00 c0       	mov    $0xc0000001,%ebx
   13070:	48 83 60 10 00       	andq   $0x0,0x10(%rax)
   13075:	83 60 08 00          	andl   $0x0,0x8(%rax)
   13079:	48 83 3d 87 b7 01 00 	cmpq   $0x0,0x1b787(%rip)        # 0x2e808
   13080:	00 
   13081:	0f 84 bb 00 00 00    	je     0x13142
   13087:	83 3d 76 b3 01 00 00 	cmpl   $0x0,0x1b376(%rip)        # 0x2e404
   1308e:	0f 84 ae 00 00 00    	je     0x13142
   13094:	48 8d 50 08          	lea    0x8(%rax),%rdx
   13098:	48 8d 48 10          	lea    0x10(%rax),%rcx
   1309c:	e8 1b 21 00 00       	callq  0x151bc
   130a1:	ba 0d fc d0 cb       	mov    $0xcbd0fc0d,%edx
   130a6:	48 8b 4c 24 58       	mov    0x58(%rsp),%rcx
   130ab:	e8 ac 9d 00 00       	callq  0x1ce5c
   130b0:	4c 8b e0             	mov    %rax,%r12
   130b3:	ba 41 6d 38 b2       	mov    $0xb2386d41,%edx
   130b8:	48 8b 4c 24 58       	mov    0x58(%rsp),%rcx
   130bd:	e8 9a 9d 00 00       	callq  0x1ce5c
   130c2:	48 8b f8             	mov    %rax,%rdi
   130c5:	ba e9 c5 e0 35       	mov    $0x35e0c5e9,%edx
   130ca:	48 8b 4c 24 58       	mov    0x58(%rsp),%rcx
   130cf:	e8 88 9d 00 00       	callq  0x1ce5c
   130d4:	48 8b f0             	mov    %rax,%rsi
   130d7:	4d 85 e4             	test   %r12,%r12
   130da:	74 6b                	je     0x13147
   130dc:	48 85 ff             	test   %rdi,%rdi
   130df:	74 66                	je     0x13147
   130e1:	48 85 c0             	test   %rax,%rax
   130e4:	74 61                	je     0x13147
   130e6:	83 3d 13 b7 01 00 00 	cmpl   $0x0,0x1b713(%rip)        # 0x2e800
   130ed:	74 1c                	je     0x1310b
   130ef:	b2 01                	mov    $0x1,%dl
   130f1:	48 8d 0d 18 b3 01 00 	lea    0x1b318(%rip),%rcx        # 0x2e410
   130f8:	ff 15 5a ef 00 00    	callq  *0xef5a(%rip)        # 0x22058
   130fe:	48 8d 0d 0b b3 01 00 	lea    0x1b30b(%rip),%rcx        # 0x2e410
   13105:	ff 15 5d ef 00 00    	callq  *0xef5d(%rip)        # 0x22068
   1310b:	48 8b 0d f6 b6 01 00 	mov    0x1b6f6(%rip),%rcx        # 0x2e808
   13112:	e8 e1 26 00 00       	callq  0x157f8
   13117:	8b 15 e7 b2 01 00    	mov    0x1b2e7(%rip),%edx        # 0x2e404
   1311d:	48 89 7c 24 20       	mov    %rdi,0x20(%rsp)
   13122:	4d 8b cc             	mov    %r12,%r9
   13125:	4c 8b c6             	mov    %rsi,%r8
   13128:	48 8b 0d d9 b6 01 00 	mov    0x1b6d9(%rip),%rcx        # 0x2e808
   1312f:	e8 6c a1 00 00       	callq  0x1d2a0
   13134:	48 8b 0d cd b6 01 00 	mov    0x1b6cd(%rip),%rcx        # 0x2e808
   1313b:	e8 b8 26 00 00       	callq  0x157f8
   13140:	eb 05                	jmp    0x13147
   13142:	bb 0d 00 00 c0       	mov    $0xc000000d,%ebx
   13147:	8b c3                	mov    %ebx,%eax
   13149:	48 8b 5c 24 60       	mov    0x60(%rsp),%rbx
   1314e:	48 83 c4 30          	add    $0x30,%rsp
   13152:	41 5c                	pop    %r12
   13154:	5f                   	pop    %rdi
   13155:	5e                   	pop    %rsi
   13156:	c3                   	retq   
   13157:	cc                   	int3   
   13158:	cc                   	int3   
   13159:	cc                   	int3   
   1315a:	cc                   	int3   
   1315b:	cc                   	int3   
   1315c:	40 55                	rex push %rbp
   1315e:	48 83 ec 30          	sub    $0x30,%rsp
   13162:	48 8b ea             	mov    %rdx,%rbp
   13165:	48 83 c4 30          	add    $0x30,%rsp
   13169:	5d                   	pop    %rbp
   1316a:	c3                   	retq   
   1316b:	cc                   	int3   
   1316c:	cc                   	int3   
   1316d:	cc                   	int3   
   1316e:	cc                   	int3   
   1316f:	cc                   	int3   
   13170:	cc                   	int3   
   13171:	cc                   	int3   
   13172:	cc                   	int3   
   13173:	cc                   	int3   
   13174:	48 81 ec 58 01 00 00 	sub    $0x158,%rsp
   1317b:	4d 8b d0             	mov    %r8,%r10
   1317e:	4c 8b da             	mov    %rdx,%r11
   13181:	48 8b 84 24 88 01 00 	mov    0x188(%rsp),%rax
   13188:	00 
   13189:	48 89 44 24 38       	mov    %rax,0x38(%rsp)
   1318e:	8b 84 24 80 01 00 00 	mov    0x180(%rsp),%eax
   13195:	89 44 24 30          	mov    %eax,0x30(%rsp)
   13199:	4c 89 4c 24 28       	mov    %r9,0x28(%rsp)
   1319e:	c6 44 24 20 01       	movb   $0x1,0x20(%rsp)
   131a3:	4c 8d 4c 24 40       	lea    0x40(%rsp),%r9
   131a8:	4c 8d 05 9d fa ff ff 	lea    -0x563(%rip),%r8        # 0x12c4c
   131af:	49 8b d2             	mov    %r10,%rdx
   131b2:	49 8b cb             	mov    %r11,%rcx
   131b5:	e8 b2 9d 00 00       	callq  0x1cf6c
   131ba:	33 c9                	xor    %ecx,%ecx
   131bc:	3b c1                	cmp    %ecx,%eax
   131be:	0f 4d c1             	cmovge %ecx,%eax
   131c1:	48 81 c4 58 01 00 00 	add    $0x158,%rsp
   131c8:	c3                   	retq   
   131c9:	cc                   	int3   
   131ca:	cc                   	int3   
   131cb:	cc                   	int3   
   131cc:	cc                   	int3   
   131cd:	cc                   	int3   
   131ce:	cc                   	int3   
   131cf:	cc                   	int3   
   131d0:	cc                   	int3   
   131d1:	cc                   	int3   
   131d2:	cc                   	int3   
   131d3:	cc                   	int3   
   131d4:	40 55                	rex push %rbp
   131d6:	48 83 ec 40          	sub    $0x40,%rsp
   131da:	48 8b ea             	mov    %rdx,%rbp
   131dd:	48 83 c4 40          	add    $0x40,%rsp
   131e1:	5d                   	pop    %rbp
   131e2:	c3                   	retq   
   131e3:	cc                   	int3   
   131e4:	cc                   	int3   
   131e5:	cc                   	int3   
   131e6:	cc                   	int3   
   131e7:	cc                   	int3   
   131e8:	cc                   	int3   
   131e9:	cc                   	int3   
   131ea:	cc                   	int3   
   131eb:	cc                   	int3   
   131ec:	48 83 ec 28          	sub    $0x28,%rsp
   131f0:	33 c9                	xor    %ecx,%ecx
   131f2:	44 0f 20 c0          	mov    %cr8,%rax
   131f6:	3a c1                	cmp    %cl,%al
   131f8:	75 09                	jne    0x13203
   131fa:	ff 15 40 ee 00 00    	callq  *0xee40(%rip)        # 0x22040
   13200:	48 8b c8             	mov    %rax,%rcx
   13203:	48 8b c1             	mov    %rcx,%rax
   13206:	48 83 c4 28          	add    $0x28,%rsp
   1320a:	c3                   	retq   
   1320b:	cc                   	int3   
   1320c:	cc                   	int3   
   1320d:	cc                   	int3   
   1320e:	cc                   	int3   
   1320f:	cc                   	int3   
   13210:	cc                   	int3   
   13211:	cc                   	int3   
   13212:	cc                   	int3   
   13213:	cc                   	int3   
   13214:	40 53                	rex push %rbx
   13216:	48 83 ec 40          	sub    $0x40,%rsp
   1321a:	48 8b 41 30          	mov    0x30(%rcx),%rax
   1321e:	44 8a 49 18          	mov    0x18(%rcx),%r9b
   13222:	4c 8b 41 10          	mov    0x10(%rcx),%r8
   13226:	48 8b 51 08          	mov    0x8(%rcx),%rdx
   1322a:	48 89 44 24 30       	mov    %rax,0x30(%rsp)
   1322f:	48 8b 41 28          	mov    0x28(%rcx),%rax
   13233:	48 89 44 24 28       	mov    %rax,0x28(%rsp)
   13238:	48 8b 41 20          	mov    0x20(%rcx),%rax
   1323c:	48 8b d9             	mov    %rcx,%rbx
   1323f:	48 8b 09             	mov    (%rcx),%rcx
   13242:	48 89 44 24 20       	mov    %rax,0x20(%rsp)
   13247:	e8 10 00 00 00       	callq  0x1325c
   1324c:	89 43 38             	mov    %eax,0x38(%rbx)
   1324f:	48 83 c4 40          	add    $0x40,%rsp
   13253:	5b                   	pop    %rbx
   13254:	c3                   	retq   
   13255:	cc                   	int3   
   13256:	cc                   	int3   
   13257:	cc                   	int3   
   13258:	cc                   	int3   
   13259:	cc                   	int3   
   1325a:	cc                   	int3   
   1325b:	cc                   	int3   
   1325c:	4c 8b dc             	mov    %rsp,%r11
   1325f:	49 89 5b 08          	mov    %rbx,0x8(%r11)
   13263:	49 89 73 10          	mov    %rsi,0x10(%r11)
   13267:	45 88 4b 20          	mov    %r9b,0x20(%r11)
   1326b:	57                   	push   %rdi
   1326c:	41 54                	push   %r12
   1326e:	41 55                	push   %r13
   13270:	41 56                	push   %r14
   13272:	41 57                	push   %r15
   13274:	48 81 ec 90 00 00 00 	sub    $0x90,%rsp
   1327b:	4d 8b f0             	mov    %r8,%r14
   1327e:	48 8b f2             	mov    %rdx,%rsi
   13281:	4c 8b e1             	mov    %rcx,%r12
   13284:	bb 01 00 00 c0       	mov    $0xc0000001,%ebx
   13289:	89 5c 24 30          	mov    %ebx,0x30(%rsp)
   1328d:	33 ff                	xor    %edi,%edi
   1328f:	49 21 7b 88          	and    %rdi,-0x78(%r11)
   13293:	49 21 7b 80          	and    %rdi,-0x80(%r11)
   13297:	44 0f 20 c0          	mov    %cr8,%rax
   1329b:	84 c0                	test   %al,%al
   1329d:	0f 85 4b 01 00 00    	jne    0x133ee
   132a3:	4c 8b ac 24 f0 00 00 	mov    0xf0(%rsp),%r13
   132aa:	00 
   132ab:	4d 85 ed             	test   %r13,%r13
   132ae:	0f 84 3a 01 00 00    	je     0x133ee
   132b4:	4c 8b bc 24 e8 00 00 	mov    0xe8(%rsp),%r15
   132bb:	00 
   132bc:	4d 85 ff             	test   %r15,%r15
   132bf:	0f 84 29 01 00 00    	je     0x133ee
   132c5:	48 85 c9             	test   %rcx,%rcx
   132c8:	74 14                	je     0x132de
   132ca:	49 89 4b 80          	mov    %rcx,-0x80(%r11)
   132ce:	48 85 d2             	test   %rdx,%rdx
   132d1:	75 18                	jne    0x132eb
   132d3:	ff 15 67 ee 00 00    	callq  *0xee67(%rip)        # 0x22140
   132d9:	48 8b f0             	mov    %rax,%rsi
   132dc:	eb 0d                	jmp    0x132eb
   132de:	48 8d 54 24 38       	lea    0x38(%rsp),%rdx
   132e3:	48 8b ce             	mov    %rsi,%rcx
   132e6:	e8 3d 03 00 00       	callq  0x13628
   132eb:	49 21 7d 00          	and    %rdi,0x0(%r13)
   132ef:	48 39 7c 24 38       	cmp    %rdi,0x38(%rsp)
   132f4:	0f 84 91 00 00 00    	je     0x1338b
   132fa:	33 c9                	xor    %ecx,%ecx
   132fc:	44 0f 20 c0          	mov    %cr8,%rax
   13300:	84 c0                	test   %al,%al
   13302:	75 09                	jne    0x1330d
   13304:	ff 15 36 ed 00 00    	callq  *0xed36(%rip)        # 0x22040
   1330a:	48 8b c8             	mov    %rax,%rcx
   1330d:	48 39 4c 24 38       	cmp    %rcx,0x38(%rsp)
   13312:	75 77                	jne    0x1338b
   13314:	4d 85 f6             	test   %r14,%r14
   13317:	74 05                	je     0x1331e
   13319:	49 8b fe             	mov    %r14,%rdi
   1331c:	eb 32                	jmp    0x13350
   1331e:	48 8b 94 24 e0 00 00 	mov    0xe0(%rsp),%rdx
   13325:	00 
   13326:	48 85 d2             	test   %rdx,%rdx
   13329:	74 25                	je     0x13350
   1332b:	4c 8d 44 24 40       	lea    0x40(%rsp),%r8
   13330:	48 8b 4c 24 38       	mov    0x38(%rsp),%rcx
   13335:	e8 da 00 00 00       	callq  0x13414
   1333a:	89 44 24 30          	mov    %eax,0x30(%rsp)
   1333e:	85 c0                	test   %eax,%eax
   13340:	75 0e                	jne    0x13350
   13342:	48 8b 7c 24 40       	mov    0x40(%rsp),%rdi
   13347:	48 85 ff             	test   %rdi,%rdi
   1334a:	74 2e                	je     0x1337a
   1334c:	48 8b 7f 30          	mov    0x30(%rdi),%rdi
   13350:	48 85 ff             	test   %rdi,%rdi
   13353:	74 25                	je     0x1337a
   13355:	4c 89 6c 24 20       	mov    %r13,0x20(%rsp)
   1335a:	44 8a 8c 24 d8 00 00 	mov    0xd8(%rsp),%r9b
   13361:	00 
   13362:	4d 8b c7             	mov    %r15,%r8
   13365:	48 8b d7             	mov    %rdi,%rdx
   13368:	48 8b 4c 24 38       	mov    0x38(%rsp),%rcx
   1336d:	e8 06 02 00 00       	callq  0x13578
   13372:	8b d8                	mov    %eax,%ebx
   13374:	89 44 24 30          	mov    %eax,0x30(%rsp)
   13378:	eb 09                	jmp    0x13383
   1337a:	bb 25 02 00 c0       	mov    $0xc0000225,%ebx
   1337f:	89 5c 24 30          	mov    %ebx,0x30(%rsp)
   13383:	eb 04                	jmp    0x13389
   13385:	8b 5c 24 30          	mov    0x30(%rsp),%ebx
   13389:	eb 63                	jmp    0x133ee
   1338b:	48 85 f6             	test   %rsi,%rsi
   1338e:	74 5e                	je     0x133ee
   13390:	4c 89 64 24 50       	mov    %r12,0x50(%rsp)
   13395:	48 89 74 24 58       	mov    %rsi,0x58(%rsp)
   1339a:	4c 89 74 24 60       	mov    %r14,0x60(%rsp)
   1339f:	8a 84 24 d8 00 00 00 	mov    0xd8(%rsp),%al
   133a6:	88 44 24 68          	mov    %al,0x68(%rsp)
   133aa:	48 8b 84 24 e0 00 00 	mov    0xe0(%rsp),%rax
   133b1:	00 
   133b2:	48 89 44 24 70       	mov    %rax,0x70(%rsp)
   133b7:	4c 89 7c 24 78       	mov    %r15,0x78(%rsp)
   133bc:	4c 89 ac 24 80 00 00 	mov    %r13,0x80(%rsp)
   133c3:	00 
   133c4:	40 88 7c 24 28       	mov    %dil,0x28(%rsp)
   133c9:	21 7c 24 20          	and    %edi,0x20(%rsp)
   133cd:	41 b1 01             	mov    $0x1,%r9b
   133d0:	4c 8b c6             	mov    %rsi,%r8
   133d3:	48 8d 54 24 50       	lea    0x50(%rsp),%rdx
   133d8:	48 8d 0d 35 fe ff ff 	lea    -0x1cb(%rip),%rcx        # 0x13214
   133df:	e8 f8 18 00 00       	callq  0x14cdc
   133e4:	85 c0                	test   %eax,%eax
   133e6:	0f 44 9c 24 88 00 00 	cmove  0x88(%rsp),%ebx
   133ed:	00 
   133ee:	8b c3                	mov    %ebx,%eax
   133f0:	4c 8d 9c 24 90 00 00 	lea    0x90(%rsp),%r11
   133f7:	00 
   133f8:	49 8b 5b 30          	mov    0x30(%r11),%rbx
   133fc:	49 8b 73 38          	mov    0x38(%r11),%rsi
   13400:	49 8b e3             	mov    %r11,%rsp
   13403:	41 5f                	pop    %r15
   13405:	41 5e                	pop    %r14
   13407:	41 5d                	pop    %r13
   13409:	41 5c                	pop    %r12
   1340b:	5f                   	pop    %rdi
   1340c:	c3                   	retq   
   1340d:	cc                   	int3   
   1340e:	cc                   	int3   
   1340f:	cc                   	int3   
   13410:	cc                   	int3   
   13411:	cc                   	int3   
   13412:	cc                   	int3   
   13413:	cc                   	int3   
   13414:	48 8b c4             	mov    %rsp,%rax
   13417:	48 89 58 08          	mov    %rbx,0x8(%rax)
   1341b:	48 89 70 10          	mov    %rsi,0x10(%rax)
   1341f:	57                   	push   %rdi
   13420:	41 54                	push   %r12
   13422:	41 55                	push   %r13
   13424:	48 83 ec 60          	sub    $0x60,%rsp
   13428:	4d 8b e0             	mov    %r8,%r12
   1342b:	4c 8b ea             	mov    %rdx,%r13
   1342e:	48 8b f1             	mov    %rcx,%rsi
   13431:	bf 01 00 00 c0       	mov    $0xc0000001,%edi
   13436:	89 78 b8             	mov    %edi,-0x48(%rax)
   13439:	83 60 20 00          	andl   $0x0,0x20(%rax)
   1343d:	8b df                	mov    %edi,%ebx
   1343f:	48 83 60 c0 00       	andq   $0x0,-0x40(%rax)
   13444:	44 0f 20 c0          	mov    %cr8,%rax
   13448:	84 c0                	test   %al,%al
   1344a:	0f 85 07 01 00 00    	jne    0x13557
   13450:	48 85 d2             	test   %rdx,%rdx
   13453:	0f 84 fe 00 00 00    	je     0x13557
   13459:	4d 85 c0             	test   %r8,%r8
   1345c:	0f 84 f5 00 00 00    	je     0x13557
   13462:	33 c9                	xor    %ecx,%ecx
   13464:	44 0f 20 c0          	mov    %cr8,%rax
   13468:	84 c0                	test   %al,%al
   1346a:	75 09                	jne    0x13475
   1346c:	ff 15 ce eb 00 00    	callq  *0xebce(%rip)        # 0x22040
   13472:	48 8b c8             	mov    %rax,%rcx
   13475:	48 3b f1             	cmp    %rcx,%rsi
   13478:	0f 85 d9 00 00 00    	jne    0x13557
   1347e:	49 83 24 24 00       	andq   $0x0,(%r12)
   13483:	be 30 00 00 00       	mov    $0x30,%esi
   13488:	44 8d 46 d1          	lea    -0x2f(%rsi),%r8d
   1348c:	48 8b d6             	mov    %rsi,%rdx
   1348f:	48 8d 4c 24 38       	lea    0x38(%rsp),%rcx
   13494:	e8 13 33 00 00       	callq  0x167ac
   13499:	84 c0                	test   %al,%al
   1349b:	74 27                	je     0x134c4
   1349d:	48 8d 84 24 98 00 00 	lea    0x98(%rsp),%rax
   134a4:	00 
   134a5:	48 89 44 24 20       	mov    %rax,0x20(%rsp)
   134aa:	44 8b ce             	mov    %esi,%r9d
   134ad:	48 8b 74 24 38       	mov    0x38(%rsp),%rsi
   134b2:	4c 8b c6             	mov    %rsi,%r8
   134b5:	33 d2                	xor    %edx,%edx
   134b7:	48 83 c9 ff          	or     $0xffffffffffffffff,%rcx
   134bb:	e8 cc d4 00 00       	callq  0x2098c
   134c0:	8b d8                	mov    %eax,%ebx
   134c2:	eb 05                	jmp    0x134c9
   134c4:	48 8b 74 24 38       	mov    0x38(%rsp),%rsi
   134c9:	85 db                	test   %ebx,%ebx
   134cb:	78 74                	js     0x13541
   134cd:	48 8b 46 08          	mov    0x8(%rsi),%rax
   134d1:	48 85 c0             	test   %rax,%rax
   134d4:	74 71                	je     0x13547
   134d6:	48 83 78 18 00       	cmpq   $0x0,0x18(%rax)
   134db:	74 6a                	je     0x13547
   134dd:	48 8b 40 18          	mov    0x18(%rax),%rax
   134e1:	48 8b 70 10          	mov    0x10(%rax),%rsi
   134e5:	48 85 f6             	test   %rsi,%rsi
   134e8:	74 5d                	je     0x13547
   134ea:	48 8b 1e             	mov    (%rsi),%rbx
   134ed:	48 85 db             	test   %rbx,%rbx
   134f0:	74 55                	je     0x13547
   134f2:	48 3b 73 08          	cmp    0x8(%rbx),%rsi
   134f6:	75 4f                	jne    0x13547
   134f8:	49 8b d5             	mov    %r13,%rdx
   134fb:	48 8d 4c 24 48       	lea    0x48(%rsp),%rcx
   13500:	ff 15 12 eb 00 00    	callq  *0xeb12(%rip)        # 0x22018
   13506:	48 89 5c 24 40       	mov    %rbx,0x40(%rsp)
   1350b:	48 8d 4b 58          	lea    0x58(%rbx),%rcx
   1350f:	41 b0 01             	mov    $0x1,%r8b
   13512:	48 8d 54 24 48       	lea    0x48(%rsp),%rdx
   13517:	ff 15 e3 eb 00 00    	callq  *0xebe3(%rip)        # 0x22100
   1351d:	85 c0                	test   %eax,%eax
   1351f:	75 0c                	jne    0x1352d
   13521:	49 89 1c 24          	mov    %rbx,(%r12)
   13525:	33 ff                	xor    %edi,%edi
   13527:	89 7c 24 30          	mov    %edi,0x30(%rsp)
   1352b:	eb 1a                	jmp    0x13547
   1352d:	48 8b 1b             	mov    (%rbx),%rbx
   13530:	48 89 5c 24 40       	mov    %rbx,0x40(%rsp)
   13535:	48 85 db             	test   %rbx,%rbx
   13538:	74 0d                	je     0x13547
   1353a:	48 3b de             	cmp    %rsi,%rbx
   1353d:	75 cc                	jne    0x1350b
   1353f:	eb 06                	jmp    0x13547
   13541:	8b fb                	mov    %ebx,%edi
   13543:	89 5c 24 30          	mov    %ebx,0x30(%rsp)
   13547:	eb 04                	jmp    0x1354d
   13549:	8b 7c 24 30          	mov    0x30(%rsp),%edi
   1354d:	48 8d 4c 24 38       	lea    0x38(%rsp),%rcx
   13552:	e8 d1 32 00 00       	callq  0x16828
   13557:	8b c7                	mov    %edi,%eax
   13559:	4c 8d 5c 24 60       	lea    0x60(%rsp),%r11
   1355e:	49 8b 5b 20          	mov    0x20(%r11),%rbx
   13562:	49 8b 73 28          	mov    0x28(%r11),%rsi
   13566:	49 8b e3             	mov    %r11,%rsp
   13569:	41 5d                	pop    %r13
   1356b:	41 5c                	pop    %r12
   1356d:	5f                   	pop    %rdi
   1356e:	c3                   	retq   
   1356f:	cc                   	int3   
   13570:	cc                   	int3   
   13571:	cc                   	int3   
   13572:	cc                   	int3   
   13573:	cc                   	int3   
   13574:	cc                   	int3   
   13575:	cc                   	int3   
   13576:	cc                   	int3   
   13577:	cc                   	int3   
   13578:	48 8b c4             	mov    %rsp,%rax
   1357b:	48 89 58 08          	mov    %rbx,0x8(%rax)
   1357f:	48 89 68 10          	mov    %rbp,0x10(%rax)
   13583:	48 89 70 18          	mov    %rsi,0x18(%rax)
   13587:	48 89 78 20          	mov    %rdi,0x20(%rax)
   1358b:	41 54                	push   %r12
   1358d:	48 83 ec 60          	sub    $0x60,%rsp
   13591:	48 83 60 c8 00       	andq   $0x0,-0x38(%rax)
   13596:	4c 8b e2             	mov    %rdx,%r12
   13599:	33 d2                	xor    %edx,%edx
   1359b:	49 8b e8             	mov    %r8,%rbp
   1359e:	48 8b d9             	mov    %rcx,%rbx
   135a1:	44 8d 42 28          	lea    0x28(%rdx),%r8d
   135a5:	48 8d 48 d0          	lea    -0x30(%rax),%rcx
   135a9:	41 8a f1             	mov    %r9b,%sil
   135ac:	40 32 ff             	xor    %dil,%dil
   135af:	e8 dc d2 00 00       	callq  0x20890
   135b4:	ff 15 86 ea 00 00    	callq  *0xea86(%rip)        # 0x22040
   135ba:	48 3b d8             	cmp    %rax,%rbx
   135bd:	74 11                	je     0x135d0
   135bf:	48 8d 54 24 30       	lea    0x30(%rsp),%rdx
   135c4:	48 8b cb             	mov    %rbx,%rcx
   135c7:	ff 15 7b eb 00 00    	callq  *0xeb7b(%rip)        # 0x22148
   135cd:	40 b7 01             	mov    $0x1,%dil
   135d0:	48 8b 84 24 90 00 00 	mov    0x90(%rsp),%rax
   135d7:	00 
   135d8:	83 64 24 28 00       	andl   $0x0,0x28(%rsp)
   135dd:	45 33 c9             	xor    %r9d,%r9d
   135e0:	4c 8b c5             	mov    %rbp,%r8
   135e3:	40 8a d6             	mov    %sil,%dl
   135e6:	49 8b cc             	mov    %r12,%rcx
   135e9:	48 89 44 24 20       	mov    %rax,0x20(%rsp)
   135ee:	e8 6d 96 00 00       	callq  0x1cc60
   135f3:	40 84 ff             	test   %dil,%dil
   135f6:	8b d8                	mov    %eax,%ebx
   135f8:	74 0b                	je     0x13605
   135fa:	48 8d 4c 24 30       	lea    0x30(%rsp),%rcx
   135ff:	ff 15 9b ea 00 00    	callq  *0xea9b(%rip)        # 0x220a0
   13605:	4c 8d 5c 24 60       	lea    0x60(%rsp),%r11
   1360a:	8b c3                	mov    %ebx,%eax
   1360c:	49 8b 5b 10          	mov    0x10(%r11),%rbx
   13610:	49 8b 6b 18          	mov    0x18(%r11),%rbp
   13614:	49 8b 73 20          	mov    0x20(%r11),%rsi
   13618:	49 8b 7b 28          	mov    0x28(%r11),%rdi
   1361c:	49 8b e3             	mov    %r11,%rsp
   1361f:	41 5c                	pop    %r12
   13621:	c3                   	retq   
   13622:	cc                   	int3   
   13623:	cc                   	int3   
   13624:	cc                   	int3   
   13625:	cc                   	int3   
   13626:	cc                   	int3   
   13627:	cc                   	int3   
   13628:	48 89 5c 24 08       	mov    %rbx,0x8(%rsp)
   1362d:	57                   	push   %rdi
   1362e:	48 83 ec 20          	sub    $0x20,%rsp
   13632:	48 8b da             	mov    %rdx,%rbx
   13635:	bf 01 00 00 c0       	mov    $0xc0000001,%edi
   1363a:	44 0f 20 c0          	mov    %cr8,%rax
   1363e:	84 c0                	test   %al,%al
   13640:	75 1d                	jne    0x1365f
   13642:	48 85 d2             	test   %rdx,%rdx
   13645:	74 18                	je     0x1365f
   13647:	48 83 22 00          	andq   $0x0,(%rdx)
   1364b:	e8 0a d2 00 00       	callq  0x2085a
   13650:	85 c0                	test   %eax,%eax
   13652:	75 0b                	jne    0x1365f
   13654:	48 8b 0b             	mov    (%rbx),%rcx
   13657:	ff 15 cb ea 00 00    	callq  *0xeacb(%rip)        # 0x22128
   1365d:	33 ff                	xor    %edi,%edi
   1365f:	8b c7                	mov    %edi,%eax
   13661:	48 8b 5c 24 30       	mov    0x30(%rsp),%rbx
   13666:	48 83 c4 20          	add    $0x20,%rsp
   1366a:	5f                   	pop    %rdi
   1366b:	c3                   	retq   
   1366c:	cc                   	int3   
   1366d:	cc                   	int3   
   1366e:	cc                   	int3   
   1366f:	cc                   	int3   
   13670:	cc                   	int3   
   13671:	cc                   	int3   
   13672:	cc                   	int3   
   13673:	cc                   	int3   
   13674:	48 89 5c 24 08       	mov    %rbx,0x8(%rsp)
   13679:	48 89 6c 24 10       	mov    %rbp,0x10(%rsp)
   1367e:	56                   	push   %rsi
   1367f:	57                   	push   %rdi
   13680:	41 54                	push   %r12
   13682:	48 83 ec 20          	sub    $0x20,%rsp
   13686:	83 64 24 58 00       	andl   $0x0,0x58(%rsp)
   1368b:	4d 85 c9             	test   %r9,%r9
   1368e:	49 8b f1             	mov    %r9,%rsi
   13691:	41 8b f8             	mov    %r8d,%edi
   13694:	48 8b ea             	mov    %rdx,%rbp
   13697:	44 8b e1             	mov    %ecx,%r12d
   1369a:	bb 01 00 00 c0       	mov    $0xc0000001,%ebx
   1369f:	74 04                	je     0x136a5
   136a1:	41 83 21 00          	andl   $0x0,(%r9)
   136a5:	44 0f 20 c0          	mov    %cr8,%rax
   136a9:	84 c0                	test   %al,%al
   136ab:	75 6b                	jne    0x13718
   136ad:	48 85 d2             	test   %rdx,%rdx
   136b0:	74 66                	je     0x13718
   136b2:	48 83 22 00          	andq   $0x0,(%rdx)
   136b6:	48 8b cd             	mov    %rbp,%rcx
   136b9:	e8 6a 31 00 00       	callq  0x16828
   136be:	8b d7                	mov    %edi,%edx
   136c0:	41 b8 01 00 00 00    	mov    $0x1,%r8d
   136c6:	48 8b cd             	mov    %rbp,%rcx
   136c9:	e8 de 30 00 00       	callq  0x167ac
   136ce:	84 c0                	test   %al,%al
   136d0:	74 2a                	je     0x136fc
   136d2:	48 8b 55 00          	mov    0x0(%rbp),%rdx
   136d6:	4c 8d 4c 24 58       	lea    0x58(%rsp),%r9
   136db:	44 8b c7             	mov    %edi,%r8d
   136de:	41 8b cc             	mov    %r12d,%ecx
   136e1:	ff 15 b1 e9 00 00    	callq  *0xe9b1(%rip)        # 0x22098
   136e7:	8b d8                	mov    %eax,%ebx
   136e9:	8b 44 24 58          	mov    0x58(%rsp),%eax
   136ed:	85 c0                	test   %eax,%eax
   136ef:	74 04                	je     0x136f5
   136f1:	8b f8                	mov    %eax,%edi
   136f3:	eb 02                	jmp    0x136f7
   136f5:	03 ff                	add    %edi,%edi
   136f7:	83 64 24 58 00       	andl   $0x0,0x58(%rsp)
   136fc:	81 fb 04 00 00 c0    	cmp    $0xc0000004,%ebx
   13702:	75 07                	jne    0x1370b
   13704:	48 83 7d 00 00       	cmpq   $0x0,0x0(%rbp)
   13709:	75 ab                	jne    0x136b6
   1370b:	85 db                	test   %ebx,%ebx
   1370d:	75 09                	jne    0x13718
   1370f:	48 85 f6             	test   %rsi,%rsi
   13712:	74 02                	je     0x13716
   13714:	89 3e                	mov    %edi,(%rsi)
   13716:	33 db                	xor    %ebx,%ebx
   13718:	48 8b 6c 24 48       	mov    0x48(%rsp),%rbp
   1371d:	8b c3                	mov    %ebx,%eax
   1371f:	48 8b 5c 24 40       	mov    0x40(%rsp),%rbx
   13724:	48 83 c4 20          	add    $0x20,%rsp
   13728:	41 5c                	pop    %r12
   1372a:	5f                   	pop    %rdi
   1372b:	5e                   	pop    %rsi
   1372c:	c3                   	retq   
   1372d:	cc                   	int3   
   1372e:	cc                   	int3   
   1372f:	cc                   	int3   
   13730:	cc                   	int3   
   13731:	cc                   	int3   
   13732:	cc                   	int3   
   13733:	cc                   	int3   
   13734:	48 89 5c 24 10       	mov    %rbx,0x10(%rsp)
   13739:	57                   	push   %rdi
   1373a:	48 83 ec 40          	sub    $0x40,%rsp
   1373e:	48 83 64 24 50 00    	andq   $0x0,0x50(%rsp)
   13744:	49 8b d8             	mov    %r8,%rbx
   13747:	bf 01 00 00 c0       	mov    $0xc0000001,%edi
   1374c:	44 0f 20 c0          	mov    %cr8,%rax
   13750:	84 c0                	test   %al,%al
   13752:	0f 85 81 00 00 00    	jne    0x137d9
   13758:	48 85 db             	test   %rbx,%rbx
   1375b:	74 7c                	je     0x137d9
   1375d:	48 8d 54 24 50       	lea    0x50(%rsp),%rdx
   13762:	e8 f3 d0 00 00       	callq  0x2085a
   13767:	85 c0                	test   %eax,%eax
   13769:	8b f8                	mov    %eax,%edi
   1376b:	78 5a                	js     0x137c7
   1376d:	48 8b 4c 24 50       	mov    0x50(%rsp),%rcx
   13772:	48 89 5c 24 30       	mov    %rbx,0x30(%rsp)
   13777:	45 33 c9             	xor    %r9d,%r9d
   1377a:	45 33 c0             	xor    %r8d,%r8d
   1377d:	ba 00 02 00 00       	mov    $0x200,%edx
   13782:	c6 44 24 28 00       	movb   $0x0,0x28(%rsp)
   13787:	48 83 64 24 20 00    	andq   $0x0,0x20(%rsp)
   1378d:	ff 15 a5 e9 00 00    	callq  *0xe9a5(%rip)        # 0x22138
   13793:	85 c0                	test   %eax,%eax
   13795:	8b f8                	mov    %eax,%edi
   13797:	78 23                	js     0x137bc
   13799:	33 c9                	xor    %ecx,%ecx
   1379b:	44 0f 20 c0          	mov    %cr8,%rax
   1379f:	84 c0                	test   %al,%al
   137a1:	75 09                	jne    0x137ac
   137a3:	ff 15 97 e8 00 00    	callq  *0xe897(%rip)        # 0x22040
   137a9:	48 8b c8             	mov    %rax,%rcx
   137ac:	48 89 4b 08          	mov    %rcx,0x8(%rbx)
   137b0:	ff 15 62 e9 00 00    	callq  *0xe962(%rip)        # 0x22118
   137b6:	33 ff                	xor    %edi,%edi
   137b8:	48 89 43 10          	mov    %rax,0x10(%rbx)
   137bc:	48 8b 4c 24 50       	mov    0x50(%rsp),%rcx
   137c1:	ff 15 61 e9 00 00    	callq  *0xe961(%rip)        # 0x22128
   137c7:	85 ff                	test   %edi,%edi
   137c9:	74 0e                	je     0x137d9
   137cb:	48 83 23 00          	andq   $0x0,(%rbx)
   137cf:	48 83 63 08 00       	andq   $0x0,0x8(%rbx)
   137d4:	48 83 63 10 00       	andq   $0x0,0x10(%rbx)
   137d9:	8b c7                	mov    %edi,%eax
   137db:	48 8b 5c 24 58       	mov    0x58(%rsp),%rbx
   137e0:	48 83 c4 40          	add    $0x40,%rsp
   137e4:	5f                   	pop    %rdi
   137e5:	c3                   	retq   
   137e6:	cc                   	int3   
   137e7:	cc                   	int3   
   137e8:	cc                   	int3   
   137e9:	cc                   	int3   
   137ea:	cc                   	int3   
   137eb:	cc                   	int3   
   137ec:	4c 8b dc             	mov    %rsp,%r11
   137ef:	49 89 5b 08          	mov    %rbx,0x8(%r11)
   137f3:	49 89 73 10          	mov    %rsi,0x10(%r11)
   137f7:	57                   	push   %rdi
   137f8:	48 83 ec 40          	sub    $0x40,%rsp
   137fc:	49 83 63 20 00       	andq   $0x0,0x20(%r11)
   13801:	48 8b f2             	mov    %rdx,%rsi
   13804:	48 8b d9             	mov    %rcx,%rbx
   13807:	bf 01 00 00 c0       	mov    $0xc0000001,%edi
   1380c:	44 0f 20 c0          	mov    %cr8,%rax
   13810:	84 c0                	test   %al,%al
   13812:	0f 85 84 00 00 00    	jne    0x1389c
   13818:	48 85 c9             	test   %rcx,%rcx
   1381b:	74 7f                	je     0x1389c
   1381d:	48 85 d2             	test   %rdx,%rdx
   13820:	74 7a                	je     0x1389c
   13822:	4d 8d 4b 18          	lea    0x18(%r11),%r9
   13826:	49 8d 53 20          	lea    0x20(%r11),%rdx
   1382a:	41 b8 00 10 00 00    	mov    $0x1000,%r8d
   13830:	b9 05 00 00 00       	mov    $0x5,%ecx
   13835:	c7 44 24 20 01 00 00 	movl   $0x1,0x20(%rsp)
   1383c:	00 
   1383d:	e8 32 fe ff ff       	callq  0x13674
   13842:	85 c0                	test   %eax,%eax
   13844:	8b f8                	mov    %eax,%edi
   13846:	75 54                	jne    0x1389c
   13848:	48 8d 4c 24 30       	lea    0x30(%rsp),%rcx
   1384d:	48 8b d3             	mov    %rbx,%rdx
   13850:	ff 15 c2 e7 00 00    	callq  *0xe7c2(%rip)        # 0x22018
   13856:	48 8b 5c 24 68       	mov    0x68(%rsp),%rbx
   1385b:	bf 01 00 00 c0       	mov    $0xc0000001,%edi
   13860:	48 8d 4b 38          	lea    0x38(%rbx),%rcx
   13864:	48 8d 54 24 30       	lea    0x30(%rsp),%rdx
   13869:	41 b0 01             	mov    $0x1,%r8b
   1386c:	ff 15 8e e8 00 00    	callq  *0xe88e(%rip)        # 0x22100
   13872:	85 c0                	test   %eax,%eax
   13874:	75 09                	jne    0x1387f
   13876:	48 8b 43 50          	mov    0x50(%rbx),%rax
   1387a:	33 ff                	xor    %edi,%edi
   1387c:	48 89 06             	mov    %rax,(%rsi)
   1387f:	8b 03                	mov    (%rbx),%eax
   13881:	48 8b cb             	mov    %rbx,%rcx
   13884:	48 03 d8             	add    %rax,%rbx
   13887:	74 09                	je     0x13892
   13889:	85 ff                	test   %edi,%edi
   1388b:	74 05                	je     0x13892
   1388d:	48 3b d9             	cmp    %rcx,%rbx
   13890:	75 ce                	jne    0x13860
   13892:	48 8d 4c 24 68       	lea    0x68(%rsp),%rcx
   13897:	e8 8c 2f 00 00       	callq  0x16828
   1389c:	48 8b 5c 24 50       	mov    0x50(%rsp),%rbx
   138a1:	48 8b 74 24 58       	mov    0x58(%rsp),%rsi
   138a6:	8b c7                	mov    %edi,%eax
   138a8:	48 83 c4 40          	add    $0x40,%rsp
   138ac:	5f                   	pop    %rdi
   138ad:	c3                   	retq   
   138ae:	cc                   	int3   
   138af:	cc                   	int3   
   138b0:	cc                   	int3   
   138b1:	cc                   	int3   
   138b2:	cc                   	int3   
   138b3:	cc                   	int3   
   138b4:	48 89 5c 24 08       	mov    %rbx,0x8(%rsp)
   138b9:	48 89 6c 24 10       	mov    %rbp,0x10(%rsp)
   138be:	48 89 74 24 18       	mov    %rsi,0x18(%rsp)
   138c3:	57                   	push   %rdi
   138c4:	48 83 ec 50          	sub    $0x50,%rsp
   138c8:	48 8b d9             	mov    %rcx,%rbx
   138cb:	bf 01 00 00 c0       	mov    $0xc0000001,%edi
   138d0:	44 0f 20 c0          	mov    %cr8,%rax
   138d4:	84 c0                	test   %al,%al
   138d6:	75 6e                	jne    0x13946
   138d8:	48 85 c9             	test   %rcx,%rcx
   138db:	74 69                	je     0x13946
   138dd:	48 83 39 00          	cmpq   $0x0,(%rcx)
   138e1:	74 63                	je     0x13946
   138e3:	48 8b 69 08          	mov    0x8(%rcx),%rbp
   138e7:	40 32 f6             	xor    %sil,%sil
   138ea:	33 c9                	xor    %ecx,%ecx
   138ec:	44 0f 20 c0          	mov    %cr8,%rax
   138f0:	84 c0                	test   %al,%al
   138f2:	75 09                	jne    0x138fd
   138f4:	ff 15 46 e7 00 00    	callq  *0xe746(%rip)        # 0x22040
   138fa:	48 8b c8             	mov    %rax,%rcx
   138fd:	48 3b e9             	cmp    %rcx,%rbp
   13900:	74 12                	je     0x13914
   13902:	48 8b 4b 08          	mov    0x8(%rbx),%rcx
   13906:	48 8d 54 24 20       	lea    0x20(%rsp),%rdx
   1390b:	ff 15 37 e8 00 00    	callq  *0xe837(%rip)        # 0x22148
   13911:	40 b6 01             	mov    $0x1,%sil
   13914:	48 8b 0b             	mov    (%rbx),%rcx
   13917:	48 85 c9             	test   %rcx,%rcx
   1391a:	74 1a                	je     0x13936
   1391c:	ff 15 ae e7 00 00    	callq  *0xe7ae(%rip)        # 0x220d0
   13922:	85 c0                	test   %eax,%eax
   13924:	8b f8                	mov    %eax,%edi
   13926:	78 0e                	js     0x13936
   13928:	48 83 23 00          	andq   $0x0,(%rbx)
   1392c:	48 83 63 08 00       	andq   $0x0,0x8(%rbx)
   13931:	48 83 63 10 00       	andq   $0x0,0x10(%rbx)
   13936:	40 84 f6             	test   %sil,%sil
   13939:	74 0b                	je     0x13946
   1393b:	48 8d 4c 24 20       	lea    0x20(%rsp),%rcx
   13940:	ff 15 5a e7 00 00    	callq  *0xe75a(%rip)        # 0x220a0
   13946:	48 8b 5c 24 60       	mov    0x60(%rsp),%rbx
   1394b:	48 8b 6c 24 68       	mov    0x68(%rsp),%rbp
   13950:	48 8b 74 24 70       	mov    0x70(%rsp),%rsi
   13955:	8b c7                	mov    %edi,%eax
   13957:	48 83 c4 50          	add    $0x50,%rsp
   1395b:	5f                   	pop    %rdi
   1395c:	c3                   	retq   
   1395d:	cc                   	int3   
   1395e:	cc                   	int3   
   1395f:	cc                   	int3   
   13960:	cc                   	int3   
   13961:	cc                   	int3   
   13962:	cc                   	int3   
   13963:	cc                   	int3   
   13964:	48 8b d1             	mov    %rcx,%rdx
   13967:	33 c9                	xor    %ecx,%ecx
   13969:	48 85 d2             	test   %rdx,%rdx
   1396c:	74 21                	je     0x1398f
   1396e:	66 83 3a 20          	cmpw   $0x20,(%rdx)
   13972:	74 06                	je     0x1397a
   13974:	66 83 3a 09          	cmpw   $0x9,(%rdx)
   13978:	75 06                	jne    0x13980
   1397a:	48 83 c2 02          	add    $0x2,%rdx
   1397e:	eb ee                	jmp    0x1396e
   13980:	0f b7 02             	movzwl (%rdx),%eax
   13983:	66 3d 30 00          	cmp    $0x30,%ax
   13987:	72 06                	jb     0x1398f
   13989:	66 3d 39 00          	cmp    $0x39,%ax
   1398d:	76 21                	jbe    0x139b0
   1398f:	83 c8 ff             	or     $0xffffffff,%eax
   13992:	c3                   	retq   
   13993:	66 3d 30 00          	cmp    $0x30,%ax
   13997:	72 1c                	jb     0x139b5
   13999:	66 3d 39 00          	cmp    $0x39,%ax
   1399d:	77 16                	ja     0x139b5
   1399f:	0f b7 c0             	movzwl %ax,%eax
   139a2:	8d 0c 89             	lea    (%rcx,%rcx,4),%ecx
   139a5:	48 83 c2 02          	add    $0x2,%rdx
   139a9:	8d 4c 48 d0          	lea    -0x30(%rax,%rcx,2),%ecx
   139ad:	66 8b 02             	mov    (%rdx),%ax
   139b0:	66 85 c0             	test   %ax,%ax
   139b3:	75 de                	jne    0x13993
   139b5:	8b c1                	mov    %ecx,%eax
   139b7:	c3                   	retq   
   139b8:	cc                   	int3   
   139b9:	cc                   	int3   
   139ba:	cc                   	int3   
   139bb:	cc                   	int3   
   139bc:	cc                   	int3   
   139bd:	cc                   	int3   
   139be:	cc                   	int3   
   139bf:	cc                   	int3   
   139c0:	4c 8b dc             	mov    %rsp,%r11
   139c3:	49 89 5b 08          	mov    %rbx,0x8(%r11)
   139c7:	49 89 73 10          	mov    %rsi,0x10(%r11)
   139cb:	4d 89 63 18          	mov    %r12,0x18(%r11)
   139cf:	41 55                	push   %r13
   139d1:	48 81 ec 50 01 00 00 	sub    $0x150,%rsp
   139d8:	48 89 64 24 38       	mov    %rsp,0x38(%rsp)
   139dd:	48 8b f2             	mov    %rdx,%rsi
   139e0:	4c 8b e1             	mov    %rcx,%r12
   139e3:	66 41 83 63 b0 00    	andw   $0x0,-0x50(%r11)
   139e9:	33 c0                	xor    %eax,%eax
   139eb:	49 89 43 b2          	mov    %rax,-0x4e(%r11)
   139ef:	41 89 43 ba          	mov    %eax,-0x46(%r11)
   139f3:	66 41 89 43 be       	mov    %ax,-0x42(%r11)
   139f8:	21 44 24 24          	and    %eax,0x24(%rsp)
   139fc:	21 44 24 28          	and    %eax,0x28(%rsp)
   13a00:	66 41 21 43 a0       	and    %ax,-0x60(%r11)
   13a05:	49 89 43 a2          	mov    %rax,-0x5e(%r11)
   13a09:	41 89 43 aa          	mov    %eax,-0x56(%r11)
   13a0d:	66 41 89 43 ae       	mov    %ax,-0x52(%r11)
   13a12:	66 41 21 43 88       	and    %ax,-0x78(%r11)
   13a17:	49 89 43 8a          	mov    %rax,-0x76(%r11)
   13a1b:	41 89 43 92          	mov    %eax,-0x6e(%r11)
   13a1f:	66 41 89 43 96       	mov    %ax,-0x6a(%r11)
   13a24:	33 db                	xor    %ebx,%ebx
   13a26:	48 89 5c 24 30       	mov    %rbx,0x30(%rsp)
   13a2b:	4d 8d 4b b0          	lea    -0x50(%r11),%r9
   13a2f:	45 33 c0             	xor    %r8d,%r8d
   13a32:	48 8d 54 24 28       	lea    0x28(%rsp),%rdx
   13a37:	48 8d 4c 24 24       	lea    0x24(%rsp),%rcx
   13a3c:	ff 15 b6 e6 00 00    	callq  *0xe6b6(%rip)        # 0x220f8
   13a42:	66 39 9c 24 08 01 00 	cmp    %bx,0x108(%rsp)
   13a49:	00 
   13a4a:	76 42                	jbe    0x13a8e
   13a4c:	48 8b 8c 24 10 01 00 	mov    0x110(%rsp),%rcx
   13a53:	00 
   13a54:	48 85 c9             	test   %rcx,%rcx
   13a57:	74 35                	je     0x13a8e
   13a59:	4c 8d 44 24 20       	lea    0x20(%rsp),%r8
   13a5e:	48 8d 94 24 f0 00 00 	lea    0xf0(%rsp),%rdx
   13a65:	00 
   13a66:	e8 6d 05 00 00       	callq  0x13fd8
   13a6b:	85 c0                	test   %eax,%eax
   13a6d:	0f 89 d1 04 00 00    	jns    0x13f44
   13a73:	48 8d 15 0a 00 00 00 	lea    0xa(%rip),%rdx        # 0x13a84
   13a7a:	48 8b cc             	mov    %rsp,%rcx
   13a7d:	e8 88 d0 00 00       	callq  0x20b0a
   13a82:	90                   	nop
   13a83:	90                   	nop
   13a84:	b8 01 00 00 c0       	mov    $0xc0000001,%eax
   13a89:	e9 f3 04 00 00       	jmpq   0x13f81
   13a8e:	66 c7 44 24 60 cf 98 	movw   $0x98cf,0x60(%rsp)
   13a95:	66 c7 44 24 62 82 df 	movw   $0xdf82,0x62(%rsp)
   13a9c:	66 c7 44 24 64 ed e9 	movw   $0xe9ed,0x64(%rsp)
   13aa3:	66 c7 44 24 66 bc 94 	movw   $0x94bc,0x66(%rsp)
   13aaa:	66 c7 44 24 68 f2 9a 	movw   $0x9af2,0x68(%rsp)
   13ab1:	66 c7 44 24 6a 88 be 	movw   $0xbe88,0x6a(%rsp)
   13ab8:	66 c7 44 24 6c 6f b7 	movw   $0xb76f,0x6c(%rsp)
   13abf:	66 c7 44 24 6e c8 bb 	movw   $0xbbc8,0x6e(%rsp)
   13ac6:	66 c7 44 24 70 f6 80 	movw   $0x80f6,0x70(%rsp)
   13acd:	66 c7 44 24 72 6f e6 	movw   $0xe66f,0x72(%rsp)
   13ad4:	66 c7 44 24 74 4f c0 	movw   $0xc04f,0x74(%rsp)
   13adb:	66 c7 44 24 76 a9 c5 	movw   $0xc5a9,0x76(%rsp)
   13ae2:	66 c7 44 24 78 dd d7 	movw   $0xd7dd,0x78(%rsp)
   13ae9:	66 c7 44 24 7a e7 88 	movw   $0x88e7,0x7a(%rsp)
   13af0:	66 c7 44 24 7c c5 fb 	movw   $0xfbc5,0x7c(%rsp)
   13af7:	66 c7 44 24 7e eb e9 	movw   $0xe9eb,0x7e(%rsp)
   13afe:	66 c7 84 24 80 00 00 	movw   $0xe0c7,0x80(%rsp)
   13b05:	00 c7 e0 
   13b08:	66 c7 84 24 82 00 00 	movw   $0x8791,0x82(%rsp)
   13b0f:	00 91 87 
   13b12:	66 c7 84 24 84 00 00 	movw   $0xd73e,0x84(%rsp)
   13b19:	00 3e d7 
   13b1c:	66 c7 84 24 86 00 00 	movw   $0x8bc7,0x86(%rsp)
   13b23:	00 c7 8b 
   13b26:	66 c7 84 24 88 00 00 	movw   $0xb627,0x88(%rsp)
   13b2d:	00 27 b6 
   13b30:	66 c7 84 24 8a 00 00 	movw   $0x8e57,0x8a(%rsp)
   13b37:	00 57 8e 
   13b3a:	66 c7 84 24 8c 00 00 	movw   $0xbcf6,0x8c(%rsp)
   13b41:	00 f6 bc 
   13b44:	66 c7 84 24 8e 00 00 	movw   $0xe612,0x8e(%rsp)
   13b4b:	00 12 e6 
   13b4e:	66 c7 84 24 90 00 00 	movw   $0xccc6,0x90(%rsp)
   13b55:	00 c6 cc 
   13b58:	66 c7 84 24 92 00 00 	movw   $0x88d3,0x92(%rsp)
   13b5f:	00 d3 88 
   13b62:	66 c7 84 24 94 00 00 	movw   $0x874d,0x94(%rsp)
   13b69:	00 4d 87 
   13b6c:	66 c7 84 24 96 00 00 	movw   $0xe527,0x96(%rsp)
   13b73:	00 27 e5 
   13b76:	66 c7 84 24 98 00 00 	movw   $0x8725,0x98(%rsp)
   13b7d:	00 25 87 
   13b80:	66 c7 84 24 9a 00 00 	movw   $0xf80a,0x9a(%rsp)
   13b87:	00 0a f8 
   13b8a:	66 c7 84 24 9c 00 00 	movw   $0xcfe6,0x9c(%rsp)
   13b91:	00 e6 cf 
   13b94:	66 c7 84 24 9e 00 00 	movw   $0xc7f0,0x9e(%rsp)
   13b9b:	00 f0 c7 
   13b9e:	66 c7 84 24 a0 00 00 	movw   $0xf120,0xa0(%rsp)
   13ba5:	00 20 f1 
   13ba8:	66 c7 84 24 a2 00 00 	movw   $0xcb38,0xa2(%rsp)
   13baf:	00 38 cb 
   13bb2:	66 c7 84 24 a4 00 00 	movw   $0xae91,0xa4(%rsp)
   13bb9:	00 91 ae 
   13bbc:	66 c7 84 24 a6 00 00 	movw   $0xdcc5,0xa6(%rsp)
   13bc3:	00 c5 dc 
   13bc6:	66 c7 84 24 a8 00 00 	movw   $0xd4ec,0xa8(%rsp)
   13bcd:	00 ec d4 
   13bd0:	66 c7 84 24 aa 00 00 	movw   $0xb2b3,0xaa(%rsp)
   13bd7:	00 b3 b2 
   13bda:	66 c7 84 24 ac 00 00 	movw   $0xdd49,0xac(%rsp)
   13be1:	00 49 dd 
   13be4:	66 c7 84 24 ae 00 00 	movw   $0xf279,0xae(%rsp)
   13beb:	00 79 f2 
   13bee:	66 c7 84 24 b0 00 00 	movw   $0xb90b,0xb0(%rsp)
   13bf5:	00 0b b9 
   13bf8:	66 c7 84 24 b2 00 00 	movw   $0xac5f,0xb2(%rsp)
   13bff:	00 5f ac 
   13c02:	66 c7 84 24 b4 00 00 	movw   $0xd019,0xb4(%rsp)
   13c09:	00 19 d0 
   13c0c:	66 c7 84 24 b6 00 00 	movw   $0xc365,0xb6(%rsp)
   13c13:	00 65 c3 
   13c16:	66 c7 84 24 b8 00 00 	movw   $0x8e80,0xb8(%rsp)
   13c1d:	00 80 8e 
   13c20:	66 c7 84 24 ba 00 00 	movw   $0xad63,0xba(%rsp)
   13c27:	00 63 ad 
   13c2a:	66 c7 84 24 bc 00 00 	movw   $0xc130,0xbc(%rsp)
   13c31:	00 30 c1 
   13c34:	66 c7 84 24 be 00 00 	movw   $0x8046,0xbe(%rsp)
   13c3b:	00 46 80 
   13c3e:	66 c7 84 24 c0 00 00 	movw   $0x81dd,0xc0(%rsp)
   13c45:	00 dd 81 
   13c48:	66 c7 84 24 c2 00 00 	movw   $0xab66,0xc2(%rsp)
   13c4f:	00 66 ab 
   13c52:	66 c7 84 24 c4 00 00 	movw   $0xb6fa,0xc4(%rsp)
   13c59:	00 fa b6 
   13c5c:	66 c7 84 24 c6 00 00 	movw   $0xc136,0xc6(%rsp)
   13c63:	00 36 c1 
   13c66:	66 c7 84 24 c8 00 00 	movw   $0xc7f6,0xc8(%rsp)
   13c6d:	00 f6 c7 
   13c70:	66 c7 84 24 ca 00 00 	movw   $0xee7c,0xca(%rsp)
   13c77:	00 7c ee 
   13c7a:	66 c7 84 24 cc 00 00 	movw   $0xfcf2,0xcc(%rsp)
   13c81:	00 f2 fc 
   13c84:	66 c7 84 24 ce 00 00 	movw   $0xf817,0xce(%rsp)
   13c8b:	00 17 f8 
   13c8e:	66 c7 84 24 d0 00 00 	movw   $0xdd5c,0xd0(%rsp)
   13c95:	00 5c dd 
   13c98:	66 c7 84 24 d2 00 00 	movw   $0xe635,0xd2(%rsp)
   13c9f:	00 35 e6 
   13ca2:	66 c7 84 24 d4 00 00 	movw   $0xaee9,0xd4(%rsp)
   13ca9:	00 e9 ae 
   13cac:	66 c7 84 24 d6 00 00 	movw   $0xb532,0xd6(%rsp)
   13cb3:	00 32 b5 
   13cb6:	66 c7 84 24 d8 00 00 	movw   $0x808c,0xd8(%rsp)
   13cbd:	00 8c 80 
   13cc0:	66 c7 84 24 da 00 00 	movw   $0xf59c,0xda(%rsp)
   13cc7:	00 9c f5 
   13cca:	66 c7 84 24 dc 00 00 	movw   $0xb371,0xdc(%rsp)
   13cd1:	00 71 b3 
   13cd4:	66 83 a4 24 de 00 00 	andw   $0x0,0xde(%rsp)
   13cdb:	00 00 
   13cdd:	66 c7 44 24 40 a3 a2 	movw   $0xa2a3,0x40(%rsp)
   13ce4:	66 c7 44 24 42 43 b7 	movw   $0xb743,0x42(%rsp)
   13ceb:	66 c7 44 24 44 47 df 	movw   $0xdf47,0x44(%rsp)
   13cf2:	66 c7 44 24 46 9d c1 	movw   $0xc19d,0x46(%rsp)
   13cf9:	66 c7 44 24 48 26 ac 	movw   $0xac26,0x48(%rsp)
   13d00:	66 c7 44 24 4a 8d f8 	movw   $0xf88d,0x4a(%rsp)
   13d07:	66 c7 44 24 4c 73 a1 	movw   $0xa173,0x4c(%rsp)
   13d0e:	66 c7 44 24 4e 76 ac 	movw   $0xac76,0x4e(%rsp)
   13d15:	66 c7 44 24 50 ad fc 	movw   $0xfcad,0x50(%rsp)
   13d1c:	66 c7 44 24 52 53 b2 	movw   $0xb253,0x52(%rsp)
   13d23:	66 c7 44 24 54 66 9c 	movw   $0x9c66,0x54(%rsp)
   13d2a:	66 c7 44 24 56 14 ec 	movw   $0xec14,0x56(%rsp)
   13d31:	66 c7 44 24 58 0b b6 	movw   $0xb60b,0x58(%rsp)
   13d38:	66 c7 44 24 5a 36 f2 	movw   $0xf236,0x5a(%rsp)
   13d3f:	66 83 64 24 5c 00    	andw   $0x0,0x5c(%rsp)
   13d45:	48 8d 54 24 60       	lea    0x60(%rsp),%rdx
   13d4a:	b9 8e aa 2d 00       	mov    $0x2daa8e,%ecx
   13d4f:	e8 78 82 00 00       	callq  0x1bfcc
   13d54:	48 8d 54 24 40       	lea    0x40(%rsp),%rdx
   13d59:	41 bd 70 6f 29 00    	mov    $0x296f70,%r13d
   13d5f:	41 8b cd             	mov    %r13d,%ecx
   13d62:	e8 65 82 00 00       	callq  0x1bfcc
   13d67:	48 8d 54 24 60       	lea    0x60(%rsp),%rdx
   13d6c:	48 8d 8c 24 f8 00 00 	lea    0xf8(%rsp),%rcx
   13d73:	00 
   13d74:	ff 15 9e e2 00 00    	callq  *0xe29e(%rip)        # 0x22018
   13d7a:	48 8d 54 24 40       	lea    0x40(%rsp),%rdx
   13d7f:	48 8d 8c 24 e0 00 00 	lea    0xe0(%rsp),%rcx
   13d86:	00 
   13d87:	ff 15 8b e2 00 00    	callq  *0xe28b(%rip)        # 0x22018
   13d8d:	4c 8d 44 24 30       	lea    0x30(%rsp),%r8
   13d92:	48 8b 94 24 e8 00 00 	mov    0xe8(%rsp),%rdx
   13d99:	00 
   13d9a:	48 8b 8c 24 00 01 00 	mov    0x100(%rsp),%rcx
   13da1:	00 
   13da2:	e8 f9 11 00 00       	callq  0x14fa0
   13da7:	8b d8                	mov    %eax,%ebx
   13da9:	89 44 24 20          	mov    %eax,0x20(%rsp)
   13dad:	48 8d 54 24 60       	lea    0x60(%rsp),%rdx
   13db2:	b9 8e aa 2d 00       	mov    $0x2daa8e,%ecx
   13db7:	e8 10 82 00 00       	callq  0x1bfcc
   13dbc:	48 8d 54 24 40       	lea    0x40(%rsp),%rdx
   13dc1:	41 8b cd             	mov    %r13d,%ecx
   13dc4:	e8 03 82 00 00       	callq  0x1bfcc
   13dc9:	85 db                	test   %ebx,%ebx
   13dcb:	79 1c                	jns    0x13de9
   13dcd:	48 8d 15 0c 00 00 00 	lea    0xc(%rip),%rdx        # 0x13de0
   13dd4:	48 8b 4c 24 38       	mov    0x38(%rsp),%rcx
   13dd9:	e8 2c cd 00 00       	callq  0x20b0a
   13dde:	90                   	nop
   13ddf:	90                   	nop
   13de0:	8b 44 24 20          	mov    0x20(%rsp),%eax
   13de4:	e9 98 01 00 00       	jmpq   0x13f81
   13de9:	4c 8b 6c 24 30       	mov    0x30(%rsp),%r13
   13dee:	66 ba 2e 00          	mov    $0x2e,%dx
   13df2:	49 8d 4d 0c          	lea    0xc(%r13),%rcx
   13df6:	e8 77 ca 00 00       	callq  0x20872
   13dfb:	4c 8b d8             	mov    %rax,%r11
   13dfe:	48 85 c0             	test   %rax,%rax
   13e01:	75 1d                	jne    0x13e20
   13e03:	48 8d 15 0c 00 00 00 	lea    0xc(%rip),%rdx        # 0x13e16
   13e0a:	48 8b 4c 24 38       	mov    0x38(%rsp),%rcx
   13e0f:	e8 f6 cc 00 00       	callq  0x20b0a
   13e14:	90                   	nop
   13e15:	90                   	nop
   13e16:	b8 01 00 00 c0       	mov    $0xc0000001,%eax
   13e1b:	e9 61 01 00 00       	jmpq   0x13f81
   13e20:	66 83 20 00          	andw   $0x0,(%rax)
   13e24:	49 8d 4d 0c          	lea    0xc(%r13),%rcx
   13e28:	e8 37 fb ff ff       	callq  0x13964
   13e2d:	89 44 24 24          	mov    %eax,0x24(%rsp)
   13e31:	66 41 83 7b 02 00    	cmpw   $0x0,0x2(%r11)
   13e37:	75 1d                	jne    0x13e56
   13e39:	48 8d 15 0c 00 00 00 	lea    0xc(%rip),%rdx        # 0x13e4c
   13e40:	48 8b 4c 24 38       	mov    0x38(%rsp),%rcx
   13e45:	e8 c0 cc 00 00       	callq  0x20b0a
   13e4a:	90                   	nop
   13e4b:	90                   	nop
   13e4c:	b8 01 00 00 c0       	mov    $0xc0000001,%eax
   13e51:	e9 2b 01 00 00       	jmpq   0x13f81
   13e56:	49 8d 4b 02          	lea    0x2(%r11),%rcx
   13e5a:	e8 05 fb ff ff       	callq  0x13964
   13e5f:	89 44 24 28          	mov    %eax,0x28(%rsp)
   13e63:	33 d2                	xor    %edx,%edx
   13e65:	49 8b cd             	mov    %r13,%rcx
   13e68:	ff 15 9a e1 00 00    	callq  *0xe19a(%rip)        # 0x22008
   13e6e:	48 83 64 24 30 00    	andq   $0x0,0x30(%rsp)
   13e74:	41 b8 16 00 00 00    	mov    $0x16,%r8d
   13e7a:	48 8d 15 0f 83 01 00 	lea    0x1830f(%rip),%rdx        # 0x2c190
   13e81:	48 8d 8c 24 18 01 00 	lea    0x118(%rsp),%rcx
   13e88:	00 
   13e89:	e8 92 c6 00 00       	callq  0x20520
   13e8e:	48 8d 94 24 18 01 00 	lea    0x118(%rsp),%rdx
   13e95:	00 
   13e96:	b9 a8 4a df 00       	mov    $0xdf4aa8,%ecx
   13e9b:	e8 2c 81 00 00       	callq  0x1bfcc
   13ea0:	48 8d 94 24 18 01 00 	lea    0x118(%rsp),%rdx
   13ea7:	00 
   13ea8:	48 8d 8c 24 e0 00 00 	lea    0xe0(%rsp),%rcx
   13eaf:	00 
   13eb0:	ff 15 62 e1 00 00    	callq  *0xe162(%rip)        # 0x22018
   13eb6:	48 8d 54 24 60       	lea    0x60(%rsp),%rdx
   13ebb:	b9 8e aa 2d 00       	mov    $0x2daa8e,%ecx
   13ec0:	e8 07 81 00 00       	callq  0x1bfcc
   13ec5:	4c 8d 44 24 30       	lea    0x30(%rsp),%r8
   13eca:	48 8b 94 24 e8 00 00 	mov    0xe8(%rsp),%rdx
   13ed1:	00 
   13ed2:	48 8b 8c 24 00 01 00 	mov    0x100(%rsp),%rcx
   13ed9:	00 
   13eda:	e8 c1 10 00 00       	callq  0x14fa0
   13edf:	8b d8                	mov    %eax,%ebx
   13ee1:	48 8d 54 24 60       	lea    0x60(%rsp),%rdx
   13ee6:	b9 8e aa 2d 00       	mov    $0x2daa8e,%ecx
   13eeb:	e8 dc 80 00 00       	callq  0x1bfcc
   13ef0:	85 db                	test   %ebx,%ebx
   13ef2:	78 4b                	js     0x13f3f
   13ef4:	48 8b 5c 24 30       	mov    0x30(%rsp),%rbx
   13ef9:	48 8d 4b 0c          	lea    0xc(%rbx),%rcx
   13efd:	48 85 c9             	test   %rcx,%rcx
   13f00:	75 0a                	jne    0x13f0c
   13f02:	c7 44 24 20 0d 00 00 	movl   $0xc000000d,0x20(%rsp)
   13f09:	c0 
   13f0a:	eb 1a                	jmp    0x13f26
   13f0c:	4c 8d 44 24 20       	lea    0x20(%rsp),%r8
   13f11:	48 8d 94 24 f0 00 00 	lea    0xf0(%rsp),%rdx
   13f18:	00 
   13f19:	e8 ba 00 00 00       	callq  0x13fd8
   13f1e:	89 44 24 20          	mov    %eax,0x20(%rsp)
   13f22:	85 c0                	test   %eax,%eax
   13f24:	79 1e                	jns    0x13f44
   13f26:	48 8d 15 0c 00 00 00 	lea    0xc(%rip),%rdx        # 0x13f39
   13f2d:	48 8b 4c 24 38       	mov    0x38(%rsp),%rcx
   13f32:	e8 d3 cb 00 00       	callq  0x20b0a
   13f37:	90                   	nop
   13f38:	90                   	nop
   13f39:	8b 44 24 20          	mov    0x20(%rsp),%eax
   13f3d:	eb 42                	jmp    0x13f81
   13f3f:	48 8b 5c 24 30       	mov    0x30(%rsp),%rbx
   13f44:	4d 85 e4             	test   %r12,%r12
   13f47:	74 08                	je     0x13f51
   13f49:	8b 44 24 24          	mov    0x24(%rsp),%eax
   13f4d:	41 89 04 24          	mov    %eax,(%r12)
   13f51:	48 85 f6             	test   %rsi,%rsi
   13f54:	74 06                	je     0x13f5c
   13f56:	8b 44 24 28          	mov    0x28(%rsp),%eax
   13f5a:	89 06                	mov    %eax,(%rsi)
   13f5c:	33 d2                	xor    %edx,%edx
   13f5e:	44 8d 42 2c          	lea    0x2c(%rdx),%r8d
   13f62:	48 8d 8c 24 18 01 00 	lea    0x118(%rsp),%rcx
   13f69:	00 
   13f6a:	e8 21 c9 00 00       	callq  0x20890
   13f6f:	48 85 db             	test   %rbx,%rbx
   13f72:	74 0b                	je     0x13f7f
   13f74:	33 d2                	xor    %edx,%edx
   13f76:	48 8b cb             	mov    %rbx,%rcx
   13f79:	ff 15 89 e0 00 00    	callq  *0xe089(%rip)        # 0x22008
   13f7f:	33 c0                	xor    %eax,%eax
   13f81:	4c 8d 9c 24 50 01 00 	lea    0x150(%rsp),%r11
   13f88:	00 
   13f89:	49 8b 5b 10          	mov    0x10(%r11),%rbx
   13f8d:	49 8b 73 18          	mov    0x18(%r11),%rsi
   13f91:	4d 8b 63 20          	mov    0x20(%r11),%r12
   13f95:	49 8b e3             	mov    %r11,%rsp
   13f98:	41 5d                	pop    %r13
   13f9a:	c3                   	retq   
   13f9b:	cc                   	int3   
   13f9c:	cc                   	int3   
   13f9d:	cc                   	int3   
   13f9e:	cc                   	int3   
   13f9f:	cc                   	int3   
   13fa0:	40 55                	rex push %rbp
   13fa2:	48 83 ec 20          	sub    $0x20,%rsp
   13fa6:	48 8b ea             	mov    %rdx,%rbp
   13fa9:	33 d2                	xor    %edx,%edx
   13fab:	44 8d 42 2c          	lea    0x2c(%rdx),%r8d
   13faf:	48 8d 8d 18 01 00 00 	lea    0x118(%rbp),%rcx
   13fb6:	e8 d5 c8 00 00       	callq  0x20890
   13fbb:	48 8b 4d 30          	mov    0x30(%rbp),%rcx
   13fbf:	48 85 c9             	test   %rcx,%rcx
   13fc2:	74 08                	je     0x13fcc
   13fc4:	33 d2                	xor    %edx,%edx
   13fc6:	ff 15 3c e0 00 00    	callq  *0xe03c(%rip)        # 0x22008
   13fcc:	48 83 c4 20          	add    $0x20,%rsp
   13fd0:	5d                   	pop    %rbp
   13fd1:	c3                   	retq   
   13fd2:	cc                   	int3   
   13fd3:	cc                   	int3   
   13fd4:	cc                   	int3   
   13fd5:	cc                   	int3   
   13fd6:	cc                   	int3   
   13fd7:	cc                   	int3   
   13fd8:	48 89 5c 24 08       	mov    %rbx,0x8(%rsp)
   13fdd:	48 89 6c 24 10       	mov    %rbp,0x10(%rsp)
   13fe2:	48 89 74 24 18       	mov    %rsi,0x18(%rsp)
   13fe7:	57                   	push   %rdi
   13fe8:	48 83 ec 20          	sub    $0x20,%rsp
   13fec:	48 8b f2             	mov    %rdx,%rsi
   13fef:	49 8b e8             	mov    %r8,%rbp
   13ff2:	bf 0c 00 00 00       	mov    $0xc,%edi
   13ff7:	48 8d 15 aa 81 01 00 	lea    0x181aa(%rip),%rdx        # 0x2c1a8
   13ffe:	4c 8b c7             	mov    %rdi,%r8
   14001:	48 8b d9             	mov    %rcx,%rbx
   14004:	e8 5d c8 00 00       	callq  0x20866
   14009:	85 c0                	test   %eax,%eax
   1400b:	74 07                	je     0x14014
   1400d:	b8 24 00 00 c0       	mov    $0xc0000024,%eax
   14012:	eb 46                	jmp    0x1405a
   14014:	48 85 f6             	test   %rsi,%rsi
   14017:	74 0b                	je     0x14024
   14019:	48 8d 4b 18          	lea    0x18(%rbx),%rcx
   1401d:	e8 42 f9 ff ff       	callq  0x13964
   14022:	89 06                	mov    %eax,(%rsi)
   14024:	48 85 ed             	test   %rbp,%rbp
   14027:	74 2f                	je     0x14058
   14029:	0f b7 43 18          	movzwl 0x18(%rbx),%eax
   1402d:	48 8b cf             	mov    %rdi,%rcx
   14030:	66 85 c0             	test   %ax,%ax
   14033:	74 23                	je     0x14058
   14035:	66 3d 30 00          	cmp    $0x30,%ax
   14039:	73 06                	jae    0x14041
   1403b:	66 3d 39 00          	cmp    $0x39,%ax
   1403f:	77 0d                	ja     0x1404e
   14041:	83 c7 01             	add    $0x1,%edi
   14044:	48 83 c1 01          	add    $0x1,%rcx
   14048:	66 8b 04 4b          	mov    (%rbx,%rcx,2),%ax
   1404c:	eb e2                	jmp    0x14030
   1404e:	8b c7                	mov    %edi,%eax
   14050:	0f b7 0c 43          	movzwl (%rbx,%rax,2),%ecx
   14054:	66 89 4d 00          	mov    %cx,0x0(%rbp)
   14058:	33 c0                	xor    %eax,%eax
   1405a:	48 8b 5c 24 30       	mov    0x30(%rsp),%rbx
   1405f:	48 8b 6c 24 38       	mov    0x38(%rsp),%rbp
   14064:	48 8b 74 24 40       	mov    0x40(%rsp),%rsi
   14069:	48 83 c4 20          	add    $0x20,%rsp
   1406d:	5f                   	pop    %rdi
   1406e:	c3                   	retq   
   1406f:	cc                   	int3   
   14070:	cc                   	int3   
   14071:	cc                   	int3   
   14072:	cc                   	int3   
   14073:	cc                   	int3   
   14074:	cc                   	int3   
   14075:	cc                   	int3   
   14076:	cc                   	int3   
   14077:	cc                   	int3   
   14078:	48 8b c4             	mov    %rsp,%rax
   1407b:	48 89 58 08          	mov    %rbx,0x8(%rax)
   1407f:	48 89 70 10          	mov    %rsi,0x10(%rax)
   14083:	57                   	push   %rdi
   14084:	41 54                	push   %r12
   14086:	41 55                	push   %r13
   14088:	41 56                	push   %r14
   1408a:	41 57                	push   %r15
   1408c:	48 83 ec 60          	sub    $0x60,%rsp
   14090:	4d 8b f8             	mov    %r8,%r15
   14093:	4c 8b e2             	mov    %rdx,%r12
   14096:	4c 8b e9             	mov    %rcx,%r13
   14099:	be 01 00 00 c0       	mov    $0xc0000001,%esi
   1409e:	bf 01 00 00 00       	mov    $0x1,%edi
   140a3:	48 85 c9             	test   %rcx,%rcx
   140a6:	0f 84 c1 00 00 00    	je     0x1416d
   140ac:	48 85 d2             	test   %rdx,%rdx
   140af:	0f 84 b8 00 00 00    	je     0x1416d
   140b5:	48 83 79 08 00       	cmpq   $0x0,0x8(%rcx)
   140ba:	0f 84 ad 00 00 00    	je     0x1416d
   140c0:	48 8d 50 20          	lea    0x20(%rax),%rdx
   140c4:	48 8d 48 c0          	lea    -0x40(%rax),%rcx
   140c8:	e8 ef 10 00 00       	callq  0x151bc
   140cd:	ba c9 70 bf b0       	mov    $0xb0bf70c9,%edx
   140d2:	48 8b 4c 24 48       	mov    0x48(%rsp),%rcx
   140d7:	e8 80 8d 00 00       	callq  0x1ce5c
   140dc:	4c 8b f0             	mov    %rax,%r14
   140df:	48 85 c0             	test   %rax,%rax
   140e2:	0f 84 8a 00 00 00    	je     0x14172
   140e8:	48 c7 44 24 50 80 69 	movq   $0xffffffffff676980,0x50(%rsp)
   140ef:	67 ff 
   140f1:	33 db                	xor    %ebx,%ebx
   140f3:	89 5c 24 40          	mov    %ebx,0x40(%rsp)
   140f7:	40 84 ff             	test   %dil,%dil
   140fa:	74 5f                	je     0x1415b
   140fc:	83 fb 1e             	cmp    $0x1e,%ebx
   140ff:	7d 5a                	jge    0x1415b
   14101:	49 8b cc             	mov    %r12,%rcx
   14104:	41 ff d6             	callq  *%r14
   14107:	4c 8d 5c 24 58       	lea    0x58(%rsp),%r11
   1410c:	4c 89 5c 24 38       	mov    %r11,0x38(%rsp)
   14111:	48 83 64 24 30 00    	andq   $0x0,0x30(%rsp)
   14117:	c6 44 24 28 00       	movb   $0x0,0x28(%rsp)
   1411c:	4c 89 7c 24 20       	mov    %r15,0x20(%rsp)
   14121:	45 33 c9             	xor    %r9d,%r9d
   14124:	45 33 c0             	xor    %r8d,%r8d
   14127:	ba 40 02 00 00       	mov    $0x240,%edx
   1412c:	49 8b cd             	mov    %r13,%rcx
   1412f:	e8 64 c8 00 00       	callq  0x20998
   14134:	85 c0                	test   %eax,%eax
   14136:	78 20                	js     0x14158
   14138:	49 8b cc             	mov    %r12,%rcx
   1413b:	ff 15 e7 df 00 00    	callq  *0xdfe7(%rip)        # 0x22128
   14141:	4c 8d 44 24 50       	lea    0x50(%rsp),%r8
   14146:	33 d2                	xor    %edx,%edx
   14148:	33 c9                	xor    %ecx,%ecx
   1414a:	ff 15 d0 de 00 00    	callq  *0xded0(%rip)        # 0x22020
   14150:	03 df                	add    %edi,%ebx
   14152:	89 5c 24 40          	mov    %ebx,0x40(%rsp)
   14156:	eb 9f                	jmp    0x140f7
   14158:	40 32 ff             	xor    %dil,%dil
   1415b:	40 84 ff             	test   %dil,%dil
   1415e:	75 12                	jne    0x14172
   14160:	49 8b cc             	mov    %r12,%rcx
   14163:	ff 15 a7 df 00 00    	callq  *0xdfa7(%rip)        # 0x22110
   14169:	33 f6                	xor    %esi,%esi
   1416b:	eb 05                	jmp    0x14172
   1416d:	be 0d 00 00 c0       	mov    $0xc000000d,%esi
   14172:	8b c6                	mov    %esi,%eax
   14174:	4c 8d 5c 24 60       	lea    0x60(%rsp),%r11
   14179:	49 8b 5b 30          	mov    0x30(%r11),%rbx
   1417d:	49 8b 73 38          	mov    0x38(%r11),%rsi
   14181:	49 8b e3             	mov    %r11,%rsp
   14184:	41 5f                	pop    %r15
   14186:	41 5e                	pop    %r14
   14188:	41 5d                	pop    %r13
   1418a:	41 5c                	pop    %r12
   1418c:	5f                   	pop    %rdi
   1418d:	c3                   	retq   
   1418e:	cc                   	int3   
   1418f:	cc                   	int3   
   14190:	cc                   	int3   
   14191:	cc                   	int3   
   14192:	cc                   	int3   
   14193:	cc                   	int3   
   14194:	cc                   	int3   
   14195:	cc                   	int3   
   14196:	cc                   	int3   
   14197:	cc                   	int3   
   14198:	40 55                	rex push %rbp
   1419a:	48 83 ec 40          	sub    $0x40,%rsp
   1419e:	48 8b ea             	mov    %rdx,%rbp
   141a1:	48 83 c4 40          	add    $0x40,%rsp
   141a5:	5d                   	pop    %rbp
   141a6:	c3                   	retq   
   141a7:	cc                   	int3   
   141a8:	cc                   	int3   
   141a9:	cc                   	int3   
   141aa:	cc                   	int3   
   141ab:	cc                   	int3   
   141ac:	cc                   	int3   
   141ad:	cc                   	int3   
   141ae:	cc                   	int3   
   141af:	cc                   	int3   
   141b0:	48 89 5c 24 08       	mov    %rbx,0x8(%rsp)
   141b5:	56                   	push   %rsi
   141b6:	57                   	push   %rdi
   141b7:	41 54                	push   %r12
   141b9:	48 83 ec 30          	sub    $0x30,%rsp
   141bd:	48 8b f1             	mov    %rcx,%rsi
   141c0:	48 8b 3d d1 a5 01 00 	mov    0x1a5d1(%rip),%rdi        # 0x2e798
   141c7:	48 8b 05 e2 de 00 00 	mov    0xdee2(%rip),%rax        # 0x220b0
   141ce:	4c 8b 20             	mov    (%rax),%r12
   141d1:	45 33 c9             	xor    %r9d,%r9d
   141d4:	45 33 c0             	xor    %r8d,%r8d
   141d7:	48 8d 54 24 68       	lea    0x68(%rsp),%rdx
   141dc:	48 8d 4c 24 60       	lea    0x60(%rsp),%rcx
   141e1:	ff 15 11 df 00 00    	callq  *0xdf11(%rip)        # 0x220f8
   141e7:	83 7c 24 60 06       	cmpl   $0x6,0x60(%rsp)
   141ec:	75 04                	jne    0x141f2
   141ee:	33 c0                	xor    %eax,%eax
   141f0:	eb 0c                	jmp    0x141fe
   141f2:	83 7c 24 60 05       	cmpl   $0x5,0x60(%rsp)
   141f7:	75 15                	jne    0x1420e
   141f9:	b8 68 00 00 00       	mov    $0x68,%eax
   141fe:	8b d8                	mov    %eax,%ebx
   14200:	49 03 dc             	add    %r12,%rbx
   14203:	48 8b cb             	mov    %rbx,%rcx
   14206:	ff 15 14 df 00 00    	callq  *0xdf14(%rip)        # 0x22120
   1420c:	eb 02                	jmp    0x14210
   1420e:	33 db                	xor    %ebx,%ebx
   14210:	48 85 ff             	test   %rdi,%rdi
   14213:	74 7c                	je     0x14291
   14215:	48 85 f6             	test   %rsi,%rsi
   14218:	74 77                	je     0x14291
   1421a:	44 0f b7 47 3a       	movzwl 0x3a(%rdi),%r8d
   1421f:	33 d2                	xor    %edx,%edx
   14221:	48 8b 4f 40          	mov    0x40(%rdi),%rcx
   14225:	e8 66 c6 00 00       	callq  0x20890
   1422a:	48 8d 4f 38          	lea    0x38(%rdi),%rcx
   1422e:	33 d2                	xor    %edx,%edx
   14230:	44 8d 42 10          	lea    0x10(%rdx),%r8d
   14234:	e8 57 c6 00 00       	callq  0x20890
   14239:	48 85 db             	test   %rbx,%rbx
   1423c:	74 38                	je     0x14276
   1423e:	c7 44 24 20 25 02 00 	movl   $0xc0000225,0x20(%rsp)
   14245:	c0 
   14246:	48 8b d3             	mov    %rbx,%rdx
   14249:	48 85 d2             	test   %rdx,%rdx
   1424c:	74 28                	je     0x14276
   1424e:	48 8b 12             	mov    (%rdx),%rdx
   14251:	48 3b d3             	cmp    %rbx,%rdx
   14254:	74 20                	je     0x14276
   14256:	48 8d 42 50          	lea    0x50(%rdx),%rax
   1425a:	48 3b c7             	cmp    %rdi,%rax
   1425d:	75 15                	jne    0x14274
   1425f:	48 8b 0a             	mov    (%rdx),%rcx
   14262:	48 8b 42 08          	mov    0x8(%rdx),%rax
   14266:	48 89 08             	mov    %rcx,(%rax)
   14269:	48 89 41 08          	mov    %rax,0x8(%rcx)
   1426d:	83 64 24 20 00       	andl   $0x0,0x20(%rsp)
   14272:	eb 02                	jmp    0x14276
   14274:	eb d3                	jmp    0x14249
   14276:	4c 8b 05 33 de 00 00 	mov    0xde33(%rip),%r8        # 0x220b0
   1427d:	4d 8b 00             	mov    (%r8),%r8
   14280:	48 8b d7             	mov    %rdi,%rdx
   14283:	48 8b ce             	mov    %rsi,%rcx
   14286:	e8 ed fd ff ff       	callq  0x14078
   1428b:	89 44 24 20          	mov    %eax,0x20(%rsp)
   1428f:	eb 09                	jmp    0x1429a
   14291:	b8 0d 00 00 c0       	mov    $0xc000000d,%eax
   14296:	89 44 24 20          	mov    %eax,0x20(%rsp)
   1429a:	48 8b 5c 24 50       	mov    0x50(%rsp),%rbx
   1429f:	48 83 c4 30          	add    $0x30,%rsp
   142a3:	41 5c                	pop    %r12
   142a5:	5f                   	pop    %rdi
   142a6:	5e                   	pop    %rsi
   142a7:	c3                   	retq   
   142a8:	cc                   	int3   
   142a9:	cc                   	int3   
   142aa:	cc                   	int3   
   142ab:	cc                   	int3   
   142ac:	cc                   	int3   
   142ad:	cc                   	int3   
   142ae:	cc                   	int3   
   142af:	cc                   	int3   
   142b0:	40 55                	rex push %rbp
   142b2:	48 83 ec 20          	sub    $0x20,%rsp
   142b6:	48 8b ea             	mov    %rdx,%rbp
   142b9:	48 83 c4 20          	add    $0x20,%rsp
   142bd:	5d                   	pop    %rbp
   142be:	c3                   	retq   
   142bf:	cc                   	int3   
   142c0:	cc                   	int3   
   142c1:	cc                   	int3   
   142c2:	cc                   	int3   
   142c3:	cc                   	int3   
   142c4:	cc                   	int3   
   142c5:	cc                   	int3   
   142c6:	cc                   	int3   
   142c7:	cc                   	int3   
   142c8:	48 8b c4             	mov    %rsp,%rax
   142cb:	53                   	push   %rbx
   142cc:	55                   	push   %rbp
   142cd:	56                   	push   %rsi
   142ce:	57                   	push   %rdi
   142cf:	41 54                	push   %r12
   142d1:	41 55                	push   %r13
   142d3:	41 56                	push   %r14
   142d5:	48 81 ec 80 01 00 00 	sub    $0x180,%rsp
   142dc:	45 33 f6             	xor    %r14d,%r14d
   142df:	4c 8b e9             	mov    %rcx,%r13
   142e2:	48 8d 88 68 ff ff ff 	lea    -0x98(%rax),%rcx
   142e9:	45 8d 46 28          	lea    0x28(%r14),%r8d
   142ed:	33 d2                	xor    %edx,%edx
   142ef:	41 8b de             	mov    %r14d,%ebx
   142f2:	4c 89 b0 38 ff ff ff 	mov    %r14,-0xc8(%rax)
   142f9:	44 89 70 10          	mov    %r14d,0x10(%rax)
   142fd:	4c 89 70 20          	mov    %r14,0x20(%rax)
   14301:	4c 89 70 18          	mov    %r14,0x18(%rax)
   14305:	44 89 b0 60 ff ff ff 	mov    %r14d,-0xa0(%rax)
   1430c:	e8 7f c5 00 00       	callq  0x20890
   14311:	41 bc 20 4e 00 00    	mov    $0x4e20,%r12d
   14317:	66 c7 84 24 c8 00 00 	movw   $0x8560,0xc8(%rsp)
   1431e:	00 60 85 
   14321:	66 c7 84 24 ca 00 00 	movw   $0xf1ae,0xca(%rsp)
   14328:	00 ae f1 
   1432b:	66 c7 84 24 cc 00 00 	movw   $0xa022,0xcc(%rsp)
   14332:	00 22 a0 
   14335:	66 c7 84 24 ce 00 00 	movw   $0xb653,0xce(%rsp)
   1433c:	00 53 b6 
   1433f:	66 c7 84 24 d0 00 00 	movw   $0xc28e,0xd0(%rsp)
   14346:	00 8e c2 
   14349:	66 c7 84 24 d2 00 00 	movw   $0xc6f8,0xd2(%rsp)
   14350:	00 f8 c6 
   14353:	66 c7 84 24 d4 00 00 	movw   $0xd255,0xd4(%rsp)
   1435a:	00 55 d2 
   1435d:	66 c7 84 24 d6 00 00 	movw   $0xbe12,0xd6(%rsp)
   14364:	00 12 be 
   14367:	66 c7 84 24 d8 00 00 	movw   $0x8f98,0xd8(%rsp)
   1436e:	00 98 8f 
   14371:	66 c7 84 24 da 00 00 	movw   $0x8f16,0xda(%rsp)
   14378:	00 16 8f 
   1437b:	66 c7 84 24 dc 00 00 	movw   $0x80a1,0xdc(%rsp)
   14382:	00 a1 80 
   14385:	66 c7 84 24 de 00 00 	movw   $0xa6de,0xde(%rsp)
   1438c:	00 de a6 
   1438f:	66 c7 84 24 e0 00 00 	movw   $0xa6da,0xe0(%rsp)
   14396:	00 da a6 
   14399:	66 c7 84 24 e2 00 00 	movw   $0xe8da,0xe2(%rsp)
   143a0:	00 da e8 
   143a3:	66 c7 84 24 e4 00 00 	movw   $0xdd28,0xe4(%rsp)
   143aa:	00 28 dd 
   143ad:	66 c7 84 24 e6 00 00 	movw   $0xd695,0xe6(%rsp)
   143b4:	00 95 d6 
   143b7:	66 c7 84 24 e8 00 00 	movw   $0x90e6,0xe8(%rsp)
   143be:	00 e6 90 
   143c1:	66 c7 84 24 ea 00 00 	movw   $0xab21,0xea(%rsp)
   143c8:	00 21 ab 
   143cb:	66 44 89 b4 24 ec 00 	mov    %r14w,0xec(%rsp)
   143d2:	00 00 
   143d4:	66 c7 44 24 78 9f 93 	movw   $0x939f,0x78(%rsp)
   143db:	66 c7 44 24 7a 19 be 	movw   $0xbe19,0x7a(%rsp)
   143e2:	66 c7 44 24 7c ce ca 	movw   $0xcace,0x7c(%rsp)
   143e9:	66 c7 44 24 7e c8 99 	movw   $0x99c8,0x7e(%rsp)
   143f0:	66 c7 84 24 80 00 00 	movw   $0x8012,0x80(%rsp)
   143f7:	00 12 80 
   143fa:	66 c7 84 24 82 00 00 	movw   $0xbdf6,0x82(%rsp)
   14401:	00 f6 bd 
   14404:	66 c7 84 24 84 00 00 	movw   $0xa8bf,0x84(%rsp)
   1440b:	00 bf a8 
   1440e:	66 c7 84 24 86 00 00 	movw   $0x9be2,0x86(%rsp)
   14415:	00 e2 9b 
   14418:	66 c7 84 24 88 00 00 	movw   $0xa504,0x88(%rsp)
   1441f:	00 04 a5 
   14422:	66 c7 84 24 8a 00 00 	movw   $0xd32e,0x8a(%rsp)
   14429:	00 2e d3 
   1442c:	66 c7 84 24 8c 00 00 	movw   $0xf1bb,0x8c(%rsp)
   14433:	00 bb f1 
   14436:	66 c7 84 24 8e 00 00 	movw   $0xd877,0x8e(%rsp)
   1443d:	00 77 d8 
   14440:	66 c7 84 24 90 00 00 	movw   $0xf5c2,0x90(%rsp)
   14447:	00 c2 f5 
   1444a:	66 c7 84 24 92 00 00 	movw   $0x9c8c,0x92(%rsp)
   14451:	00 8c 9c 
   14454:	66 c7 84 24 94 00 00 	movw   $0x9518,0x94(%rsp)
   1445b:	00 18 95 
   1445e:	66 c7 84 24 96 00 00 	movw   $0xe012,0x96(%rsp)
   14465:	00 12 e0 
   14468:	66 44 89 b4 24 98 00 	mov    %r14w,0x98(%rsp)
   1446f:	00 00 
   14471:	66 c7 84 24 a0 00 00 	movw   $0xafec,0xa0(%rsp)
   14478:	00 ec af 
   1447b:	66 c7 84 24 a2 00 00 	movw   $0xbda0,0xa2(%rsp)
   14482:	00 a0 bd 
   14485:	66 c7 84 24 a4 00 00 	movw   $0xa9c8,0xa4(%rsp)
   1448c:	00 c8 a9 
   1448f:	66 c7 84 24 a6 00 00 	movw   $0xc050,0xa6(%rsp)
   14496:	00 50 c0 
   14499:	66 c7 84 24 a8 00 00 	movw   $0xe732,0xa8(%rsp)
   144a0:	00 32 e7 
   144a3:	66 c7 84 24 aa 00 00 	movw   $0x8d25,0xaa(%rsp)
   144aa:	00 25 8d 
   144ad:	66 c7 84 24 ac 00 00 	movw   $0xb6ca,0xac(%rsp)
   144b4:	00 ca b6 
   144b7:	66 c7 84 24 ae 00 00 	movw   $0xee81,0xae(%rsp)
   144be:	00 81 ee 
   144c1:	66 c7 84 24 b0 00 00 	movw   $0xb7ab,0xb0(%rsp)
   144c8:	00 ab b7 
   144cb:	66 c7 84 24 b2 00 00 	movw   $0xceb9,0xb2(%rsp)
   144d2:	00 b9 ce 
   144d5:	66 c7 84 24 b4 00 00 	movw   $0xee25,0xb4(%rsp)
   144dc:	00 25 ee 
   144df:	66 c7 84 24 b6 00 00 	movw   $0xc936,0xb6(%rsp)
   144e6:	00 36 c9 
   144e9:	66 c7 84 24 b8 00 00 	movw   $0xa951,0xb8(%rsp)
   144f0:	00 51 a9 
   144f3:	66 c7 84 24 ba 00 00 	movw   $0xdf39,0xba(%rsp)
   144fa:	00 39 df 
   144fd:	66 c7 84 24 bc 00 00 	movw   $0xcc3d,0xbc(%rsp)
   14504:	00 3d cc 
   14507:	66 c7 84 24 be 00 00 	movw   $0xc5a1,0xbe(%rsp)
   1450e:	00 a1 c5 
   14511:	66 44 89 b4 24 c0 00 	mov    %r14w,0xc0(%rsp)
   14518:	00 00 
   1451a:	66 c7 44 24 58 a8 c2 	movw   $0xc2a8,0x58(%rsp)
   14521:	66 c7 44 24 5a f7 84 	movw   $0x84f7,0x5a(%rsp)
   14528:	66 c7 44 24 5c e6 94 	movw   $0x94e6,0x5c(%rsp)
   1452f:	66 c7 44 24 5e 1d 95 	movw   $0x951d,0x5e(%rsp)
   14536:	66 c7 44 24 60 89 d1 	movw   $0xd189,0x60(%rsp)
   1453d:	66 c7 44 24 62 d6 b2 	movw   $0xb2d6,0x62(%rsp)
   14544:	66 c7 44 24 64 55 f5 	movw   $0xf555,0x64(%rsp)
   1454b:	66 c7 44 24 66 82 e7 	movw   $0xe782,0x66(%rsp)
   14552:	66 c7 44 24 68 c7 db 	movw   $0xdbc7,0x68(%rsp)
   14559:	66 c7 44 24 6a 22 a0 	movw   $0xa022,0x6a(%rsp)
   14560:	66 c7 44 24 6c 2c a0 	movw   $0xa02c,0x6c(%rsp)
   14567:	66 c7 44 24 6e e0 cc 	movw   $0xcce0,0x6e(%rsp)
   1456e:	66 c7 44 24 70 04 db 	movw   $0xdb04,0x70(%rsp)
   14575:	66 c7 44 24 72 ae d1 	movw   $0xd1ae,0x72(%rsp)
   1457c:	66 44 89 74 24 74    	mov    %r14w,0x74(%rsp)
   14582:	48 8d 84 24 c8 00 00 	lea    0xc8(%rsp),%rax
   14589:	00 
   1458a:	48 8d 94 24 c8 01 00 	lea    0x1c8(%rsp),%rdx
   14591:	00 
   14592:	48 8d 8c 24 f0 00 00 	lea    0xf0(%rsp),%rcx
   14599:	00 
   1459a:	48 89 84 24 48 01 00 	mov    %rax,0x148(%rsp)
   145a1:	00 
   145a2:	48 8d 44 24 78       	lea    0x78(%rsp),%rax
   145a7:	66 c7 44 24 40 69 85 	movw   $0x8569,0x40(%rsp)
   145ae:	48 89 84 24 50 01 00 	mov    %rax,0x150(%rsp)
   145b5:	00 
   145b6:	48 8d 84 24 a0 00 00 	lea    0xa0(%rsp),%rax
   145bd:	00 
   145be:	66 c7 44 24 42 51 bc 	movw   $0xbc51,0x42(%rsp)
   145c5:	48 89 84 24 58 01 00 	mov    %rax,0x158(%rsp)
   145cc:	00 
   145cd:	48 8d 44 24 58       	lea    0x58(%rsp),%rax
   145d2:	66 c7 44 24 44 35 e0 	movw   $0xe035,0x44(%rsp)
   145d9:	48 89 84 24 60 01 00 	mov    %rax,0x160(%rsp)
   145e0:	00 
   145e1:	48 8d 44 24 40       	lea    0x40(%rsp),%rax
   145e6:	66 c7 44 24 46 2f ee 	movw   $0xee2f,0x46(%rsp)
   145ed:	66 c7 44 24 48 aa d7 	movw   $0xd7aa,0x48(%rsp)
   145f4:	66 c7 44 24 4a 20 bf 	movw   $0xbf20,0x4a(%rsp)
   145fb:	66 c7 44 24 4c a1 c9 	movw   $0xc9a1,0x4c(%rsp)
   14602:	48 89 84 24 68 01 00 	mov    %rax,0x168(%rsp)
   14609:	00 
   1460a:	66 c7 44 24 4e e7 e7 	movw   $0xe7e7,0x4e(%rsp)
   14611:	66 c7 44 24 50 73 8a 	movw   $0x8a73,0x50(%rsp)
   14618:	66 c7 44 24 52 cb 85 	movw   $0x85cb,0x52(%rsp)
   1461f:	66 c7 44 24 54 05 e4 	movw   $0xe405,0x54(%rsp)
   14626:	66 44 89 74 24 56    	mov    %r14w,0x56(%rsp)
   1462c:	c7 84 24 f8 00 00 00 	movl   $0x30e23cb,0xf8(%rsp)
   14633:	cb 23 0e 03 
   14637:	c7 84 24 fc 00 00 00 	movl   $0x1c64526,0xfc(%rsp)
   1463e:	26 45 c6 01 
   14642:	c7 84 24 00 01 00 00 	movl   $0x49a7783,0x100(%rsp)
   14649:	83 77 9a 04 
   1464d:	c7 84 24 04 01 00 00 	movl   $0x55d00d,0x104(%rsp)
   14654:	0d d0 55 00 
   14658:	c7 84 24 08 01 00 00 	movl   $0x3923bc8,0x108(%rsp)
   1465f:	c8 3b 92 03 
   14663:	e8 54 0b 00 00       	callq  0x151bc
   14668:	48 8b 8c 24 d0 01 00 	mov    0x1d0(%rsp),%rcx
   1466f:	00 
   14670:	48 c7 84 24 10 01 00 	movq   $0xffffffffffb3b4c0,0x110(%rsp)
   14677:	00 c0 b4 b3 ff 
   1467c:	49 3b ce             	cmp    %r14,%rcx
   1467f:	0f 85 c2 01 00 00    	jne    0x14847
   14685:	45 3b e6             	cmp    %r14d,%r12d
   14688:	0f 84 b0 01 00 00    	je     0x1483e
   1468e:	41 8b fe             	mov    %r14d,%edi
   14691:	48 8d b4 24 f8 00 00 	lea    0xf8(%rsp),%rsi
   14698:	00 
   14699:	48 8d ac 24 48 01 00 	lea    0x148(%rsp),%rbp
   146a0:	00 
   146a1:	49 3b ce             	cmp    %r14,%rcx
   146a4:	0f 85 9d 01 00 00    	jne    0x14847
   146aa:	48 8b 55 00          	mov    0x0(%rbp),%rdx
   146ae:	8b 0e                	mov    (%rsi),%ecx
   146b0:	e8 17 79 00 00       	callq  0x1bfcc
   146b5:	48 8b 55 00          	mov    0x0(%rbp),%rdx
   146b9:	48 8d 8c 24 70 01 00 	lea    0x170(%rsp),%rcx
   146c0:	00 
   146c1:	ff 15 51 d9 00 00    	callq  *0xd951(%rip)        # 0x22018
   146c7:	48 8b 15 e2 d9 00 00 	mov    0xd9e2(%rip),%rdx        # 0x220b0
   146ce:	48 8d 84 24 70 01 00 	lea    0x170(%rsp),%rax
   146d5:	00 
   146d6:	48 89 84 24 28 01 00 	mov    %rax,0x128(%rsp)
   146dd:	00 
   146de:	48 8d 84 24 d8 01 00 	lea    0x1d8(%rsp),%rax
   146e5:	00 
   146e6:	c7 84 24 18 01 00 00 	movl   $0x30,0x118(%rsp)
   146ed:	30 00 00 00 
   146f1:	48 89 44 24 30       	mov    %rax,0x30(%rsp)
   146f6:	4c 89 b4 24 20 01 00 	mov    %r14,0x120(%rsp)
   146fd:	00 
   146fe:	c7 84 24 30 01 00 00 	movl   $0x240,0x130(%rsp)
   14705:	40 02 00 00 
   14709:	4c 89 b4 24 38 01 00 	mov    %r14,0x138(%rsp)
   14710:	00 
   14711:	4c 89 b4 24 40 01 00 	mov    %r14,0x140(%rsp)
   14718:	00 
   14719:	48 8b 12             	mov    (%rdx),%rdx
   1471c:	48 8d 8c 24 18 01 00 	lea    0x118(%rsp),%rcx
   14723:	00 
   14724:	45 33 c9             	xor    %r9d,%r9d
   14727:	45 33 c0             	xor    %r8d,%r8d
   1472a:	4c 89 74 24 28       	mov    %r14,0x28(%rsp)
   1472f:	c7 44 24 20 01 00 00 	movl   $0x1,0x20(%rsp)
   14736:	00 
   14737:	e8 74 c2 00 00       	callq  0x209b0
   1473c:	48 8b 55 00          	mov    0x0(%rbp),%rdx
   14740:	8b 0e                	mov    (%rsi),%ecx
   14742:	8b d8                	mov    %eax,%ebx
   14744:	e8 83 78 00 00       	callq  0x1bfcc
   14749:	41 3b de             	cmp    %r14d,%ebx
   1474c:	0f 8c 9c 00 00 00    	jl     0x147ee
   14752:	48 8b 8c 24 d8 01 00 	mov    0x1d8(%rsp),%rcx
   14759:	00 
   1475a:	45 33 c9             	xor    %r9d,%r9d
   1475d:	48 8d 84 24 d0 01 00 	lea    0x1d0(%rsp),%rax
   14764:	00 
   14765:	41 8d 51 01          	lea    0x1(%r9),%edx
   14769:	45 33 c0             	xor    %r8d,%r8d
   1476c:	4c 89 74 24 28       	mov    %r14,0x28(%rsp)
   14771:	48 89 44 24 20       	mov    %rax,0x20(%rsp)
   14776:	ff 15 5c d9 00 00    	callq  *0xd95c(%rip)        # 0x220d8
   1477c:	48 8b 8c 24 d8 01 00 	mov    0x1d8(%rsp),%rcx
   14783:	00 
   14784:	8b d8                	mov    %eax,%ebx
   14786:	ff 15 44 d9 00 00    	callq  *0xd944(%rip)        # 0x220d0
   1478c:	41 3b de             	cmp    %r14d,%ebx
   1478f:	4c 89 b4 24 d8 01 00 	mov    %r14,0x1d8(%rsp)
   14796:	00 
   14797:	7c 55                	jl     0x147ee
   14799:	48 8b 8c 24 d0 01 00 	mov    0x1d0(%rsp),%rcx
   147a0:	00 
   147a1:	48 8b 94 24 f0 00 00 	mov    0xf0(%rsp),%rdx
   147a8:	00 
   147a9:	48 39 51 78          	cmp    %rdx,0x78(%rcx)
   147ad:	72 10                	jb     0x147bf
   147af:	8b 84 24 c8 01 00 00 	mov    0x1c8(%rsp),%eax
   147b6:	48 03 c2             	add    %rdx,%rax
   147b9:	48 3b 41 78          	cmp    0x78(%rcx),%rax
   147bd:	77 11                	ja     0x147d0
   147bf:	ff 15 63 d9 00 00    	callq  *0xd963(%rip)        # 0x22128
   147c5:	49 8b ce             	mov    %r14,%rcx
   147c8:	48 89 8c 24 d0 01 00 	mov    %rcx,0x1d0(%rsp)
   147cf:	00 
   147d0:	49 3b ce             	cmp    %r14,%rcx
   147d3:	74 21                	je     0x147f6
   147d5:	4c 39 71 28          	cmp    %r14,0x28(%rcx)
   147d9:	75 1b                	jne    0x147f6
   147db:	ff 15 47 d9 00 00    	callq  *0xd947(%rip)        # 0x22128
   147e1:	49 8b ce             	mov    %r14,%rcx
   147e4:	48 89 8c 24 d0 01 00 	mov    %rcx,0x1d0(%rsp)
   147eb:	00 
   147ec:	eb 08                	jmp    0x147f6
   147ee:	48 8b 8c 24 d0 01 00 	mov    0x1d0(%rsp),%rcx
   147f5:	00 
   147f6:	83 c7 01             	add    $0x1,%edi
   147f9:	48 83 c5 08          	add    $0x8,%rbp
   147fd:	48 83 c6 04          	add    $0x4,%rsi
   14801:	83 ff 05             	cmp    $0x5,%edi
   14804:	0f 82 97 fe ff ff    	jb     0x146a1
   1480a:	49 3b ce             	cmp    %r14,%rcx
   1480d:	75 38                	jne    0x14847
   1480f:	4c 8d 84 24 10 01 00 	lea    0x110(%rsp),%r8
   14816:	00 
   14817:	33 d2                	xor    %edx,%edx
   14819:	33 c9                	xor    %ecx,%ecx
   1481b:	ff 15 ff d7 00 00    	callq  *0xd7ff(%rip)        # 0x22020
   14821:	48 8b 8c 24 d0 01 00 	mov    0x1d0(%rsp),%rcx
   14828:	00 
   14829:	41 81 ec f4 01 00 00 	sub    $0x1f4,%r12d
   14830:	49 3b ce             	cmp    %r14,%rcx
   14833:	bb b5 00 00 c0       	mov    $0xc00000b5,%ebx
   14838:	0f 84 47 fe ff ff    	je     0x14685
   1483e:	49 3b ce             	cmp    %r14,%rcx
   14841:	75 04                	jne    0x14847
   14843:	8b c3                	mov    %ebx,%eax
   14845:	eb 06                	jmp    0x1484d
   14847:	49 89 4d 00          	mov    %rcx,0x0(%r13)
   1484b:	33 c0                	xor    %eax,%eax
   1484d:	48 81 c4 80 01 00 00 	add    $0x180,%rsp
   14854:	41 5e                	pop    %r14
   14856:	41 5d                	pop    %r13
   14858:	41 5c                	pop    %r12
   1485a:	5f                   	pop    %rdi
   1485b:	5e                   	pop    %rsi
   1485c:	5d                   	pop    %rbp
   1485d:	5b                   	pop    %rbx
   1485e:	c3                   	retq   
   1485f:	cc                   	int3   
   14860:	cc                   	int3   
   14861:	cc                   	int3   
   14862:	cc                   	int3   
   14863:	cc                   	int3   
   14864:	cc                   	int3   
   14865:	cc                   	int3   
   14866:	cc                   	int3   
   14867:	cc                   	int3   
   14868:	48 8b c4             	mov    %rsp,%rax
   1486b:	48 89 58 08          	mov    %rbx,0x8(%rax)
   1486f:	48 89 70 10          	mov    %rsi,0x10(%rax)
   14873:	48 89 78 18          	mov    %rdi,0x18(%rax)
   14877:	41 54                	push   %r12
   14879:	41 55                	push   %r13
   1487b:	41 56                	push   %r14
   1487d:	48 81 ec c0 00 00 00 	sub    $0xc0,%rsp
   14884:	48 8b f1             	mov    %rcx,%rsi
   14887:	33 db                	xor    %ebx,%ebx
   14889:	89 58 b8             	mov    %ebx,-0x48(%rax)
   1488c:	33 d2                	xor    %edx,%edx
   1488e:	44 8d 43 28          	lea    0x28(%rbx),%r8d
   14892:	48 8d 48 c0          	lea    -0x40(%rax),%rcx
   14896:	e8 f5 bf 00 00       	callq  0x20890
   1489b:	4c 8b e3             	mov    %rbx,%r12
   1489e:	48 89 5c 24 70       	mov    %rbx,0x70(%rsp)
   148a3:	89 5c 24 58          	mov    %ebx,0x58(%rsp)
   148a7:	48 89 5c 24 60       	mov    %rbx,0x60(%rsp)
   148ac:	48 89 5c 24 50       	mov    %rbx,0x50(%rsp)
   148b1:	44 8b eb             	mov    %ebx,%r13d
   148b4:	89 5c 24 68          	mov    %ebx,0x68(%rsp)
   148b8:	41 be 20 4e 00 00    	mov    $0x4e20,%r14d
   148be:	48 3b f3             	cmp    %rbx,%rsi
   148c1:	0f 84 ef 02 00 00    	je     0x14bb6
   148c7:	66 39 1e             	cmp    %bx,(%rsi)
   148ca:	0f 84 e6 02 00 00    	je     0x14bb6
   148d0:	48 39 5e 08          	cmp    %rbx,0x8(%rsi)
   148d4:	0f 84 dc 02 00 00    	je     0x14bb6
   148da:	48 8d 05 97 dc ff ff 	lea    -0x2369(%rip),%rax        # 0x12578
   148e1:	48 3b c3             	cmp    %rbx,%rax
   148e4:	0f 84 cc 02 00 00    	je     0x14bb6
   148ea:	48 8d 4c 24 70       	lea    0x70(%rsp),%rcx
   148ef:	e8 d4 f9 ff ff       	callq  0x142c8
   148f4:	8b f8                	mov    %eax,%edi
   148f6:	89 44 24 58          	mov    %eax,0x58(%rsp)
   148fa:	3b c3                	cmp    %ebx,%eax
   148fc:	0f 8c ad 02 00 00    	jl     0x14baf
   14902:	48 c7 84 24 80 00 00 	movq   $0xffffffffffb3b4c0,0x80(%rsp)
   14909:	00 c0 b4 b3 ff 
   1490e:	4c 8b 64 24 70       	mov    0x70(%rsp),%r12
   14913:	33 d2                	xor    %edx,%edx
   14915:	44 8d 42 30          	lea    0x30(%rdx),%r8d
   14919:	48 8d 8c 24 90 00 00 	lea    0x90(%rsp),%rcx
   14920:	00 
   14921:	e8 6a bf 00 00       	callq  0x20890
   14926:	c7 84 24 90 00 00 00 	movl   $0x30,0x90(%rsp)
   1492d:	30 00 00 00 
   14931:	48 89 9c 24 98 00 00 	mov    %rbx,0x98(%rsp)
   14938:	00 
   14939:	c7 84 24 a8 00 00 00 	movl   $0x250,0xa8(%rsp)
   14940:	50 02 00 00 
   14944:	48 89 b4 24 a0 00 00 	mov    %rsi,0xa0(%rsp)
   1494b:	00 
   1494c:	48 89 9c 24 b0 00 00 	mov    %rbx,0xb0(%rsp)
   14953:	00 
   14954:	48 89 9c 24 b8 00 00 	mov    %rbx,0xb8(%rsp)
   1495b:	00 
   1495c:	48 8d 44 24 50       	lea    0x50(%rsp),%rax
   14961:	48 89 44 24 40       	mov    %rax,0x40(%rsp)
   14966:	89 5c 24 38          	mov    %ebx,0x38(%rsp)
   1496a:	89 5c 24 30          	mov    %ebx,0x30(%rsp)
   1496e:	c7 44 24 28 98 01 00 	movl   $0x198,0x28(%rsp)
   14975:	00 
   14976:	48 89 5c 24 20       	mov    %rbx,0x20(%rsp)
   1497b:	45 33 c9             	xor    %r9d,%r9d
   1497e:	4c 8d 84 24 90 00 00 	lea    0x90(%rsp),%r8
   14985:	00 
   14986:	48 8b 15 23 d7 00 00 	mov    0xd723(%rip),%rdx        # 0x220b0
   1498d:	48 8b 12             	mov    (%rdx),%rdx
   14990:	33 c9                	xor    %ecx,%ecx
   14992:	e8 31 c0 00 00       	callq  0x209c8
   14997:	8b f8                	mov    %eax,%edi
   14999:	89 44 24 58          	mov    %eax,0x58(%rsp)
   1499d:	3b c3                	cmp    %ebx,%eax
   1499f:	0f 8c 1a 02 00 00    	jl     0x14bbf
   149a5:	41 b8 98 01 00 00    	mov    $0x198,%r8d
   149ab:	33 d2                	xor    %edx,%edx
   149ad:	48 8b 4c 24 50       	mov    0x50(%rsp),%rcx
   149b2:	e8 d9 be 00 00       	callq  0x20890
   149b7:	4c 8b 5c 24 50       	mov    0x50(%rsp),%r11
   149bc:	49 8d 8b 50 01 00 00 	lea    0x150(%r11),%rcx
   149c3:	49 89 4b 30          	mov    %rcx,0x30(%r11)
   149c7:	48 8b 44 24 50       	mov    0x50(%rsp),%rax
   149cc:	48 89 01             	mov    %rax,(%rcx)
   149cf:	48 8b 44 24 50       	mov    0x50(%rsp),%rax
   149d4:	66 c7 00 04 00       	movw   $0x4,(%rax)
   149d9:	48 8b 44 24 50       	mov    0x50(%rsp),%rax
   149de:	66 c7 40 02 50 01    	movw   $0x150,0x2(%rax)
   149e4:	48 8b 44 24 50       	mov    0x50(%rsp),%rax
   149e9:	c7 40 10 02 00 00 00 	movl   $0x2,0x10(%rax)
   149f0:	49 8b 4c 24 18       	mov    0x18(%r12),%rcx
   149f5:	48 8b 44 24 50       	mov    0x50(%rsp),%rax
   149fa:	48 89 48 18          	mov    %rcx,0x18(%rax)
   149fe:	41 8b 4c 24 20       	mov    0x20(%r12),%ecx
   14a03:	48 8b 44 24 50       	mov    0x50(%rsp),%rax
   14a08:	89 48 20             	mov    %ecx,0x20(%rax)
   14a0b:	49 8b 4c 24 28       	mov    0x28(%r12),%rcx
   14a10:	48 8b 44 24 50       	mov    0x50(%rsp),%rax
   14a15:	48 89 48 28          	mov    %rcx,0x28(%rax)
   14a19:	49 8b 4c 24 58       	mov    0x58(%r12),%rcx
   14a1e:	48 8b 44 24 50       	mov    0x50(%rsp),%rax
   14a23:	48 89 48 58          	mov    %rcx,0x58(%rax)
   14a27:	4d 8b 44 24 78       	mov    0x78(%r12),%r8
   14a2c:	8b d3                	mov    %ebx,%edx
   14a2e:	89 5c 24 78          	mov    %ebx,0x78(%rsp)
   14a32:	83 fa 1b             	cmp    $0x1b,%edx
   14a35:	77 15                	ja     0x14a4c
   14a37:	8b ca                	mov    %edx,%ecx
   14a39:	48 8b 44 24 50       	mov    0x50(%rsp),%rax
   14a3e:	4c 89 44 c8 70       	mov    %r8,0x70(%rax,%rcx,8)
   14a43:	83 c2 01             	add    $0x1,%edx
   14a46:	89 54 24 78          	mov    %edx,0x78(%rsp)
   14a4a:	eb e6                	jmp    0x14a32
   14a4c:	48 c7 84 24 80 00 00 	movq   $0xffffffffffb3b4c0,0x80(%rsp)
   14a53:	00 c0 b4 b3 ff 
   14a58:	48 8b 4c 24 50       	mov    0x50(%rsp),%rcx
   14a5d:	ff 15 ad d6 00 00    	callq  *0xd6ad(%rip)        # 0x22110
   14a63:	4c 8d 5c 24 60       	lea    0x60(%rsp),%r11
   14a68:	4c 89 5c 24 28       	mov    %r11,0x28(%rsp)
   14a6d:	48 89 5c 24 20       	mov    %rbx,0x20(%rsp)
   14a72:	45 33 c9             	xor    %r9d,%r9d
   14a75:	33 d2                	xor    %edx,%edx
   14a77:	45 8d 41 01          	lea    0x1(%r9),%r8d
   14a7b:	48 8b 4c 24 50       	mov    0x50(%rsp),%rcx
   14a80:	e8 4f bf 00 00       	callq  0x209d4
   14a85:	8b f8                	mov    %eax,%edi
   14a87:	89 44 24 58          	mov    %eax,0x58(%rsp)
   14a8b:	3b c3                	cmp    %ebx,%eax
   14a8d:	7d 5e                	jge    0x14aed
   14a8f:	48 8b 44 24 50       	mov    0x50(%rsp),%rax
   14a94:	48 89 58 18          	mov    %rbx,0x18(%rax)
   14a98:	48 8b 44 24 50       	mov    0x50(%rsp),%rax
   14a9d:	89 58 20             	mov    %ebx,0x20(%rax)
   14aa0:	48 8b 44 24 50       	mov    0x50(%rsp),%rax
   14aa5:	48 89 58 28          	mov    %rbx,0x28(%rax)
   14aa9:	48 8b 44 24 50       	mov    0x50(%rsp),%rax
   14aae:	48 89 58 58          	mov    %rbx,0x58(%rax)
   14ab2:	48 8b 4c 24 50       	mov    0x50(%rsp),%rcx
   14ab7:	ff 15 6b d6 00 00    	callq  *0xd66b(%rip)        # 0x22128
   14abd:	4c 8d 84 24 80 00 00 	lea    0x80(%rsp),%r8
   14ac4:	00 
   14ac5:	33 d2                	xor    %edx,%edx
   14ac7:	33 c9                	xor    %ecx,%ecx
   14ac9:	ff 15 51 d5 00 00    	callq  *0xd551(%rip)        # 0x22020
   14acf:	89 44 24 58          	mov    %eax,0x58(%rsp)
   14ad3:	41 81 ee f4 01 00 00 	sub    $0x1f4,%r14d
   14ada:	44 89 b4 24 88 00 00 	mov    %r14d,0x88(%rsp)
   14ae1:	00 
   14ae2:	bf b5 00 00 c0       	mov    $0xc00000b5,%edi
   14ae7:	89 7c 24 58          	mov    %edi,0x58(%rsp)
   14aeb:	eb 0b                	jmp    0x14af8
   14aed:	41 bd 01 00 00 00    	mov    $0x1,%r13d
   14af3:	44 89 6c 24 68       	mov    %r13d,0x68(%rsp)
   14af8:	44 3b eb             	cmp    %ebx,%r13d
   14afb:	75 09                	jne    0x14b06
   14afd:	44 3b f3             	cmp    %ebx,%r14d
   14b00:	0f 85 0d fe ff ff    	jne    0x14913
   14b06:	44 3b eb             	cmp    %ebx,%r13d
   14b09:	0f 84 b0 00 00 00    	je     0x14bbf
   14b0f:	0f b7 56 02          	movzwl 0x2(%rsi),%edx
   14b13:	b9 01 00 00 00       	mov    $0x1,%ecx
   14b18:	41 b8 5a a5 00 00    	mov    $0xa55a,%r8d
   14b1e:	ff 15 34 d6 00 00    	callq  *0xd634(%rip)        # 0x22158
   14b24:	48 8b 4c 24 50       	mov    0x50(%rsp),%rcx
   14b29:	48 89 41 40          	mov    %rax,0x40(%rcx)
   14b2d:	48 8b 4c 24 50       	mov    0x50(%rsp),%rcx
   14b32:	48 39 59 40          	cmp    %rbx,0x40(%rcx)
   14b36:	74 30                	je     0x14b68
   14b38:	0f b7 46 02          	movzwl 0x2(%rsi),%eax
   14b3c:	66 89 41 3a          	mov    %ax,0x3a(%rcx)
   14b40:	0f b7 0e             	movzwl (%rsi),%ecx
   14b43:	48 8b 44 24 50       	mov    0x50(%rsp),%rax
   14b48:	66 89 48 38          	mov    %cx,0x38(%rax)
   14b4c:	44 0f b7 46 02       	movzwl 0x2(%rsi),%r8d
   14b51:	48 8b 56 08          	mov    0x8(%rsi),%rdx
   14b55:	48 8b 4c 24 50       	mov    0x50(%rsp),%rcx
   14b5a:	48 8b 49 40          	mov    0x40(%rcx),%rcx
   14b5e:	e8 bd b9 00 00       	callq  0x20520
   14b63:	48 8b 4c 24 50       	mov    0x50(%rsp),%rcx
   14b68:	48 3b db             	cmp    %rbx,%rbx
   14b6b:	74 10                	je     0x14b7d
   14b6d:	4c 8b c3             	mov    %rbx,%r8
   14b70:	48 8b d3             	mov    %rbx,%rdx
   14b73:	ff d3                	callq  *%rbx
   14b75:	8b f8                	mov    %eax,%edi
   14b77:	89 44 24 58          	mov    %eax,0x58(%rsp)
   14b7b:	eb 0e                	jmp    0x14b8b
   14b7d:	48 8b d3             	mov    %rbx,%rdx
   14b80:	e8 f3 d9 ff ff       	callq  0x12578
   14b85:	8b f8                	mov    %eax,%edi
   14b87:	89 44 24 58          	mov    %eax,0x58(%rsp)
   14b8b:	3b fb                	cmp    %ebx,%edi
   14b8d:	7c 30                	jl     0x14bbf
   14b8f:	48 8b 4c 24 50       	mov    0x50(%rsp),%rcx
   14b94:	ff 15 76 d5 00 00    	callq  *0xd576(%rip)        # 0x22110
   14b9a:	48 3b db             	cmp    %rbx,%rbx
   14b9d:	74 08                	je     0x14ba7
   14b9f:	48 8b 44 24 50       	mov    0x50(%rsp),%rax
   14ba4:	48 89 03             	mov    %rax,(%rbx)
   14ba7:	8b fb                	mov    %ebx,%edi
   14ba9:	89 5c 24 58          	mov    %ebx,0x58(%rsp)
   14bad:	eb 10                	jmp    0x14bbf
   14baf:	4c 8b 64 24 70       	mov    0x70(%rsp),%r12
   14bb4:	eb 09                	jmp    0x14bbf
   14bb6:	bf 0d 00 00 c0       	mov    $0xc000000d,%edi
   14bbb:	89 7c 24 58          	mov    %edi,0x58(%rsp)
   14bbf:	48 8b 44 24 50       	mov    0x50(%rsp),%rax
   14bc4:	48 3b c3             	cmp    %rbx,%rax
   14bc7:	74 1e                	je     0x14be7
   14bc9:	48 89 58 18          	mov    %rbx,0x18(%rax)
   14bcd:	48 8b 44 24 50       	mov    0x50(%rsp),%rax
   14bd2:	89 58 20             	mov    %ebx,0x20(%rax)
   14bd5:	48 8b 44 24 50       	mov    0x50(%rsp),%rax
   14bda:	48 89 58 28          	mov    %rbx,0x28(%rax)
   14bde:	48 8b 44 24 50       	mov    0x50(%rsp),%rax
   14be3:	48 89 58 58          	mov    %rbx,0x58(%rax)
   14be7:	44 3b eb             	cmp    %ebx,%r13d
   14bea:	74 0b                	je     0x14bf7
   14bec:	48 8b 4c 24 50       	mov    0x50(%rsp),%rcx
   14bf1:	ff 15 31 d5 00 00    	callq  *0xd531(%rip)        # 0x22128
   14bf7:	48 39 5c 24 60       	cmp    %rbx,0x60(%rsp)
   14bfc:	74 1e                	je     0x14c1c
   14bfe:	3b fb                	cmp    %ebx,%edi
   14c00:	7d 0a                	jge    0x14c0c
   14c02:	48 8b 4c 24 50       	mov    0x50(%rsp),%rcx
   14c07:	e8 b0 bd 00 00       	callq  0x209bc
   14c0c:	48 8b 4c 24 60       	mov    0x60(%rsp),%rcx
   14c11:	ff 15 b9 d4 00 00    	callq  *0xd4b9(%rip)        # 0x220d0
   14c17:	48 89 5c 24 60       	mov    %rbx,0x60(%rsp)
   14c1c:	4c 3b e3             	cmp    %rbx,%r12
   14c1f:	74 09                	je     0x14c2a
   14c21:	49 8b cc             	mov    %r12,%rcx
   14c24:	ff 15 fe d4 00 00    	callq  *0xd4fe(%rip)        # 0x22128
   14c2a:	8b c7                	mov    %edi,%eax
   14c2c:	4c 8d 9c 24 c0 00 00 	lea    0xc0(%rsp),%r11
   14c33:	00 
   14c34:	49 8b 5b 20          	mov    0x20(%r11),%rbx
   14c38:	49 8b 73 28          	mov    0x28(%r11),%rsi
   14c3c:	49 8b 7b 30          	mov    0x30(%r11),%rdi
   14c40:	49 8b e3             	mov    %r11,%rsp
   14c43:	41 5e                	pop    %r14
   14c45:	41 5d                	pop    %r13
   14c47:	41 5c                	pop    %r12
   14c49:	c3                   	retq   
   14c4a:	cc                   	int3   
   14c4b:	cc                   	int3   
   14c4c:	cc                   	int3   
   14c4d:	cc                   	int3   
   14c4e:	cc                   	int3   
   14c4f:	cc                   	int3   
   14c50:	cc                   	int3   
   14c51:	cc                   	int3   
   14c52:	cc                   	int3   
   14c53:	cc                   	int3   
   14c54:	cc                   	int3   
   14c55:	cc                   	int3   
   14c56:	cc                   	int3   
   14c57:	cc                   	int3   
   14c58:	40 53                	rex push %rbx
   14c5a:	55                   	push   %rbp
   14c5b:	48 83 ec 58          	sub    $0x58,%rsp
   14c5f:	48 8b ea             	mov    %rdx,%rbp
   14c62:	48 8b 4d 50          	mov    0x50(%rbp),%rcx
   14c66:	33 db                	xor    %ebx,%ebx
   14c68:	48 3b cb             	cmp    %rbx,%rcx
   14c6b:	74 1f                	je     0x14c8c
   14c6d:	48 89 59 18          	mov    %rbx,0x18(%rcx)
   14c71:	48 8b 45 50          	mov    0x50(%rbp),%rax
   14c75:	89 58 20             	mov    %ebx,0x20(%rax)
   14c78:	48 8b 45 50          	mov    0x50(%rbp),%rax
   14c7c:	48 89 58 28          	mov    %rbx,0x28(%rax)
   14c80:	48 8b 45 50          	mov    0x50(%rbp),%rax
   14c84:	48 89 58 58          	mov    %rbx,0x58(%rax)
   14c88:	48 8b 4d 50          	mov    0x50(%rbp),%rcx
   14c8c:	39 5d 68             	cmp    %ebx,0x68(%rbp)
   14c8f:	74 0a                	je     0x14c9b
   14c91:	ff 15 91 d4 00 00    	callq  *0xd491(%rip)        # 0x22128
   14c97:	48 8b 4d 50          	mov    0x50(%rbp),%rcx
   14c9b:	48 8b 45 60          	mov    0x60(%rbp),%rax
   14c9f:	48 3b c3             	cmp    %rbx,%rax
   14ca2:	74 1b                	je     0x14cbf
   14ca4:	39 5d 58             	cmp    %ebx,0x58(%rbp)
   14ca7:	7d 09                	jge    0x14cb2
   14ca9:	e8 0e bd 00 00       	callq  0x209bc
   14cae:	48 8b 45 60          	mov    0x60(%rbp),%rax
   14cb2:	48 8b c8             	mov    %rax,%rcx
   14cb5:	ff 15 15 d4 00 00    	callq  *0xd415(%rip)        # 0x220d0
   14cbb:	48 89 5d 60          	mov    %rbx,0x60(%rbp)
   14cbf:	48 8b 4d 70          	mov    0x70(%rbp),%rcx
   14cc3:	48 3b cb             	cmp    %rbx,%rcx
   14cc6:	74 06                	je     0x14cce
   14cc8:	ff 15 5a d4 00 00    	callq  *0xd45a(%rip)        # 0x22128
   14cce:	48 83 c4 58          	add    $0x58,%rsp
   14cd2:	5d                   	pop    %rbp
   14cd3:	5b                   	pop    %rbx
   14cd4:	c3                   	retq   
   14cd5:	cc                   	int3   
   14cd6:	cc                   	int3   
   14cd7:	cc                   	int3   
   14cd8:	cc                   	int3   
   14cd9:	cc                   	int3   
   14cda:	cc                   	int3   
   14cdb:	cc                   	int3   
   14cdc:	4c 8b dc             	mov    %rsp,%r11
   14cdf:	49 89 5b 08          	mov    %rbx,0x8(%r11)
   14ce3:	49 89 73 18          	mov    %rsi,0x18(%r11)
   14ce7:	49 89 53 10          	mov    %rdx,0x10(%r11)
   14ceb:	57                   	push   %rdi
   14cec:	41 54                	push   %r12
   14cee:	41 55                	push   %r13
   14cf0:	41 56                	push   %r14
   14cf2:	41 57                	push   %r15
   14cf4:	48 81 ec c0 00 00 00 	sub    $0xc0,%rsp
   14cfb:	49 8b f8             	mov    %r8,%rdi
   14cfe:	4c 8b e9             	mov    %rcx,%r13
   14d01:	33 db                	xor    %ebx,%ebx
   14d03:	49 89 5b 80          	mov    %rbx,-0x80(%r11)
   14d07:	49 89 5b 88          	mov    %rbx,-0x78(%r11)
   14d0b:	33 c0                	xor    %eax,%eax
   14d0d:	49 89 43 90          	mov    %rax,-0x70(%r11)
   14d11:	48 89 5c 24 58       	mov    %rbx,0x58(%rsp)
   14d16:	48 8b cb             	mov    %rbx,%rcx
   14d19:	48 89 5c 24 48       	mov    %rbx,0x48(%rsp)
   14d1e:	4c 8b fb             	mov    %rbx,%r15
   14d21:	40 8a f3             	mov    %bl,%sil
   14d24:	88 5c 24 41          	mov    %bl,0x41(%rsp)
   14d28:	44 8a f3             	mov    %bl,%r14b
   14d2b:	88 5c 24 40          	mov    %bl,0x40(%rsp)
   14d2f:	4c 8b e3             	mov    %rbx,%r12
   14d32:	48 89 5c 24 60       	mov    %rbx,0x60(%rsp)
   14d37:	89 5c 24 50          	mov    %ebx,0x50(%rsp)
   14d3b:	89 5c 24 54          	mov    %ebx,0x54(%rsp)
   14d3f:	4c 3b eb             	cmp    %rbx,%r13
   14d42:	75 0e                	jne    0x14d52
   14d44:	bf 0d 00 00 c0       	mov    $0xc000000d,%edi
   14d49:	89 7c 24 44          	mov    %edi,0x44(%rsp)
   14d4d:	e9 87 01 00 00       	jmpq   0x14ed9
   14d52:	45 33 c9             	xor    %r9d,%r9d
   14d55:	45 33 c0             	xor    %r8d,%r8d
   14d58:	48 8d 54 24 54       	lea    0x54(%rsp),%rdx
   14d5d:	48 8d 4c 24 50       	lea    0x50(%rsp),%rcx
   14d62:	e8 59 ec ff ff       	callq  0x139c0
   14d67:	83 7c 24 50 05       	cmpl   $0x5,0x50(%rsp)
   14d6c:	75 43                	jne    0x14db1
   14d6e:	39 5c 24 54          	cmp    %ebx,0x54(%rsp)
   14d72:	75 3d                	jne    0x14db1
   14d74:	e8 73 e4 ff ff       	callq  0x131ec
   14d79:	4c 8b e0             	mov    %rax,%r12
   14d7c:	48 89 44 24 60       	mov    %rax,0x60(%rsp)
   14d81:	48 8b 0d 60 d3 00 00 	mov    0xd360(%rip),%rcx        # 0x220e8
   14d88:	48 3b 01             	cmp    (%rcx),%rax
   14d8b:	74 24                	je     0x14db1
   14d8d:	ff 15 f5 d3 00 00    	callq  *0xd3f5(%rip)        # 0x22188
   14d93:	ff 15 0f d3 00 00    	callq  *0xd30f(%rip)        # 0x220a8
   14d99:	4c 8b 1d 48 d3 00 00 	mov    0xd348(%rip),%r11        # 0x220e8
   14da0:	49 8b 0b             	mov    (%r11),%rcx
   14da3:	ff 15 47 d3 00 00    	callq  *0xd347(%rip)        # 0x220f0
   14da9:	41 b6 01             	mov    $0x1,%r14b
   14dac:	44 88 74 24 40       	mov    %r14b,0x40(%rsp)
   14db1:	48 3b fb             	cmp    %rbx,%rdi
   14db4:	74 25                	je     0x14ddb
   14db6:	4c 8d 44 24 68       	lea    0x68(%rsp),%r8
   14dbb:	33 d2                	xor    %edx,%edx
   14dbd:	48 8b cf             	mov    %rdi,%rcx
   14dc0:	e8 6f e9 ff ff       	callq  0x13734
   14dc5:	8b f8                	mov    %eax,%edi
   14dc7:	89 44 24 44          	mov    %eax,0x44(%rsp)
   14dcb:	3b c3                	cmp    %ebx,%eax
   14dcd:	0f 85 01 01 00 00    	jne    0x14ed4
   14dd3:	40 b6 01             	mov    $0x1,%sil
   14dd6:	40 88 74 24 41       	mov    %sil,0x41(%rsp)
   14ddb:	c7 84 24 88 00 00 00 	movl   $0x30,0x88(%rsp)
   14de2:	30 00 00 00 
   14de6:	48 89 9c 24 90 00 00 	mov    %rbx,0x90(%rsp)
   14ded:	00 
   14dee:	c7 84 24 a0 00 00 00 	movl   $0x240,0xa0(%rsp)
   14df5:	40 02 00 00 
   14df9:	48 89 9c 24 98 00 00 	mov    %rbx,0x98(%rsp)
   14e00:	00 
   14e01:	48 89 9c 24 a8 00 00 	mov    %rbx,0xa8(%rsp)
   14e08:	00 
   14e09:	48 89 9c 24 b0 00 00 	mov    %rbx,0xb0(%rsp)
   14e10:	00 
   14e11:	48 8b 84 24 f8 00 00 	mov    0xf8(%rsp),%rax
   14e18:	00 
   14e19:	48 89 44 24 30       	mov    %rax,0x30(%rsp)
   14e1e:	4c 89 6c 24 28       	mov    %r13,0x28(%rsp)
   14e23:	48 89 5c 24 20       	mov    %rbx,0x20(%rsp)
   14e28:	4c 8b 4c 24 68       	mov    0x68(%rsp),%r9
   14e2d:	4c 8d 84 24 88 00 00 	lea    0x88(%rsp),%r8
   14e34:	00 
   14e35:	41 bd ff 03 1f 00    	mov    $0x1f03ff,%r13d
   14e3b:	41 8b d5             	mov    %r13d,%edx
   14e3e:	48 8d 4c 24 58       	lea    0x58(%rsp),%rcx
   14e43:	ff 15 77 d2 00 00    	callq  *0xd277(%rip)        # 0x220c0
   14e49:	8b f8                	mov    %eax,%edi
   14e4b:	89 44 24 44          	mov    %eax,0x44(%rsp)
   14e4f:	3d 0a 01 00 c0       	cmp    $0xc000010a,%eax
   14e54:	74 7e                	je     0x14ed4
   14e56:	3b c3                	cmp    %ebx,%eax
   14e58:	7c 7a                	jl     0x14ed4
   14e5a:	8b 84 24 10 01 00 00 	mov    0x110(%rsp),%eax
   14e61:	3b c3                	cmp    %ebx,%eax
   14e63:	74 18                	je     0x14e7d
   14e65:	69 c0 80 69 67 ff    	imul   $0xff676980,%eax,%eax
   14e6b:	48 98                	cltq   
   14e6d:	48 89 84 24 80 00 00 	mov    %rax,0x80(%rsp)
   14e74:	00 
   14e75:	4c 8d bc 24 80 00 00 	lea    0x80(%rsp),%r15
   14e7c:	00 
   14e7d:	48 89 5c 24 28       	mov    %rbx,0x28(%rsp)
   14e82:	48 8d 44 24 48       	lea    0x48(%rsp),%rax
   14e87:	48 89 44 24 20       	mov    %rax,0x20(%rsp)
   14e8c:	45 33 c9             	xor    %r9d,%r9d
   14e8f:	45 33 c0             	xor    %r8d,%r8d
   14e92:	41 8b d5             	mov    %r13d,%edx
   14e95:	48 8b 4c 24 58       	mov    0x58(%rsp),%rcx
   14e9a:	ff 15 38 d2 00 00    	callq  *0xd238(%rip)        # 0x220d8
   14ea0:	8b f8                	mov    %eax,%edi
   14ea2:	89 44 24 44          	mov    %eax,0x44(%rsp)
   14ea6:	3b c3                	cmp    %ebx,%eax
   14ea8:	7c 2a                	jl     0x14ed4
   14eaa:	4c 89 7c 24 20       	mov    %r15,0x20(%rsp)
   14eaf:	45 33 c9             	xor    %r9d,%r9d
   14eb2:	45 33 c0             	xor    %r8d,%r8d
   14eb5:	33 d2                	xor    %edx,%edx
   14eb7:	48 8b 4c 24 48       	mov    0x48(%rsp),%rcx
   14ebc:	ff 15 1e d2 00 00    	callq  *0xd21e(%rip)        # 0x220e0
   14ec2:	8b fb                	mov    %ebx,%edi
   14ec4:	3b c3                	cmp    %ebx,%eax
   14ec6:	0f 4c f8             	cmovl  %eax,%edi
   14ec9:	89 7c 24 44          	mov    %edi,0x44(%rsp)
   14ecd:	48 8b 4c 24 48       	mov    0x48(%rsp),%rcx
   14ed2:	eb 05                	jmp    0x14ed9
   14ed4:	48 8b 4c 24 48       	mov    0x48(%rsp),%rcx
   14ed9:	48 3b cb             	cmp    %rbx,%rcx
   14edc:	74 06                	je     0x14ee4
   14ede:	ff 15 44 d2 00 00    	callq  *0xd244(%rip)        # 0x22128
   14ee4:	40 3a f3             	cmp    %bl,%sil
   14ee7:	74 0a                	je     0x14ef3
   14ee9:	48 8d 4c 24 68       	lea    0x68(%rsp),%rcx
   14eee:	e8 c1 e9 ff ff       	callq  0x138b4
   14ef3:	48 8b 4c 24 58       	mov    0x58(%rsp),%rcx
   14ef8:	48 3b cb             	cmp    %rbx,%rcx
   14efb:	74 06                	je     0x14f03
   14efd:	ff 15 cd d1 00 00    	callq  *0xd1cd(%rip)        # 0x220d0
   14f03:	44 3a f3             	cmp    %bl,%r14b
   14f06:	74 15                	je     0x14f1d
   14f08:	ff 15 9a d1 00 00    	callq  *0xd19a(%rip)        # 0x220a8
   14f0e:	49 8b cc             	mov    %r12,%rcx
   14f11:	ff 15 d9 d1 00 00    	callq  *0xd1d9(%rip)        # 0x220f0
   14f17:	ff 15 63 d2 00 00    	callq  *0xd263(%rip)        # 0x22180
   14f1d:	8b c7                	mov    %edi,%eax
   14f1f:	4c 8d 9c 24 c0 00 00 	lea    0xc0(%rsp),%r11
   14f26:	00 
   14f27:	49 8b 5b 30          	mov    0x30(%r11),%rbx
   14f2b:	49 8b 73 40          	mov    0x40(%r11),%rsi
   14f2f:	49 8b e3             	mov    %r11,%rsp
   14f32:	41 5f                	pop    %r15
   14f34:	41 5e                	pop    %r14
   14f36:	41 5d                	pop    %r13
   14f38:	41 5c                	pop    %r12
   14f3a:	5f                   	pop    %rdi
   14f3b:	c3                   	retq   
   14f3c:	40 53                	rex push %rbx
   14f3e:	55                   	push   %rbp
   14f3f:	48 83 ec 48          	sub    $0x48,%rsp
   14f43:	48 8b ea             	mov    %rdx,%rbp
   14f46:	48 8b 4d 48          	mov    0x48(%rbp),%rcx
   14f4a:	33 db                	xor    %ebx,%ebx
   14f4c:	48 3b cb             	cmp    %rbx,%rcx
   14f4f:	74 06                	je     0x14f57
   14f51:	ff 15 d1 d1 00 00    	callq  *0xd1d1(%rip)        # 0x22128
   14f57:	38 5d 41             	cmp    %bl,0x41(%rbp)
   14f5a:	74 09                	je     0x14f65
   14f5c:	48 8d 4d 68          	lea    0x68(%rbp),%rcx
   14f60:	e8 4f e9 ff ff       	callq  0x138b4
   14f65:	48 8b 4d 58          	mov    0x58(%rbp),%rcx
   14f69:	48 3b cb             	cmp    %rbx,%rcx
   14f6c:	74 06                	je     0x14f74
   14f6e:	ff 15 5c d1 00 00    	callq  *0xd15c(%rip)        # 0x220d0
   14f74:	38 5d 40             	cmp    %bl,0x40(%rbp)
   14f77:	74 19                	je     0x14f92
   14f79:	ff 15 29 d1 00 00    	callq  *0xd129(%rip)        # 0x220a8
   14f7f:	48 8b 4d 60          	mov    0x60(%rbp),%rcx
   14f83:	ff 15 67 d1 00 00    	callq  *0xd167(%rip)        # 0x220f0
   14f89:	88 5d 40             	mov    %bl,0x40(%rbp)
   14f8c:	ff 15 ee d1 00 00    	callq  *0xd1ee(%rip)        # 0x22180
   14f92:	48 83 c4 48          	add    $0x48,%rsp
   14f96:	5d                   	pop    %rbp
   14f97:	5b                   	pop    %rbx
   14f98:	c3                   	retq   
   14f99:	cc                   	int3   
   14f9a:	cc                   	int3   
   14f9b:	cc                   	int3   
   14f9c:	cc                   	int3   
   14f9d:	cc                   	int3   
   14f9e:	cc                   	int3   
   14f9f:	cc                   	int3   
   14fa0:	48 8b c4             	mov    %rsp,%rax
   14fa3:	48 89 70 10          	mov    %rsi,0x10(%rax)
   14fa7:	57                   	push   %rdi
   14fa8:	41 54                	push   %r12
   14faa:	41 55                	push   %r13
   14fac:	48 81 ec b0 00 00 00 	sub    $0xb0,%rsp
   14fb3:	4d 8b e0             	mov    %r8,%r12
   14fb6:	4c 8b ea             	mov    %rdx,%r13
   14fb9:	48 83 60 80 00       	andq   $0x0,-0x80(%rax)
   14fbe:	c7 44 24 40 01 00 00 	movl   $0xc0000001,0x40(%rsp)
   14fc5:	c0 
   14fc6:	33 f6                	xor    %esi,%esi
   14fc8:	48 89 70 88          	mov    %rsi,-0x78(%rax)
   14fcc:	48 85 c9             	test   %rcx,%rcx
   14fcf:	0f 84 8f 01 00 00    	je     0x15164
   14fd5:	48 85 d2             	test   %rdx,%rdx
   14fd8:	0f 84 86 01 00 00    	je     0x15164
   14fde:	4d 85 c0             	test   %r8,%r8
   14fe1:	0f 84 7d 01 00 00    	je     0x15164
   14fe7:	48 8b d1             	mov    %rcx,%rdx
   14fea:	48 8d 48 a0          	lea    -0x60(%rax),%rcx
   14fee:	ff 15 24 d0 00 00    	callq  *0xd024(%rip)        # 0x22018
   14ff4:	c7 44 24 78 30 00 00 	movl   $0x30,0x78(%rsp)
   14ffb:	00 
   14ffc:	48 21 b4 24 80 00 00 	and    %rsi,0x80(%rsp)
   15003:	00 
   15004:	c7 84 24 90 00 00 00 	movl   $0x240,0x90(%rsp)
   1500b:	40 02 00 00 
   1500f:	48 8d 44 24 68       	lea    0x68(%rsp),%rax
   15014:	48 89 84 24 88 00 00 	mov    %rax,0x88(%rsp)
   1501b:	00 
   1501c:	48 21 b4 24 98 00 00 	and    %rsi,0x98(%rsp)
   15023:	00 
   15024:	48 21 b4 24 a0 00 00 	and    %rsi,0xa0(%rsp)
   1502b:	00 
   1502c:	48 21 74 24 30       	and    %rsi,0x30(%rsp)
   15031:	21 74 24 28          	and    %esi,0x28(%rsp)
   15035:	48 21 74 24 20       	and    %rsi,0x20(%rsp)
   1503a:	45 33 c9             	xor    %r9d,%r9d
   1503d:	4c 8d 44 24 78       	lea    0x78(%rsp),%r8
   15042:	8d 56 01             	lea    0x1(%rsi),%edx
   15045:	48 8d 4c 24 48       	lea    0x48(%rsp),%rcx
   1504a:	ff 15 48 d1 00 00    	callq  *0xd148(%rip)        # 0x22198
   15050:	8b f8                	mov    %eax,%edi
   15052:	89 44 24 40          	mov    %eax,0x40(%rsp)
   15056:	85 c0                	test   %eax,%eax
   15058:	0f 88 de 00 00 00    	js     0x1513c
   1505e:	49 8b d5             	mov    %r13,%rdx
   15061:	48 8d 4c 24 58       	lea    0x58(%rsp),%rcx
   15066:	ff 15 ac cf 00 00    	callq  *0xcfac(%rip)        # 0x22018
   1506c:	4c 8d 9c 24 d0 00 00 	lea    0xd0(%rsp),%r11
   15073:	00 
   15074:	4c 89 5c 24 28       	mov    %r11,0x28(%rsp)
   15079:	21 74 24 20          	and    %esi,0x20(%rsp)
   1507d:	4c 8d 8c 24 e8 00 00 	lea    0xe8(%rsp),%r9
   15084:	00 
   15085:	44 8d 6e 02          	lea    0x2(%rsi),%r13d
   15089:	45 8b c5             	mov    %r13d,%r8d
   1508c:	48 8d 54 24 58       	lea    0x58(%rsp),%rdx
   15091:	48 8b 4c 24 48       	mov    0x48(%rsp),%rcx
   15096:	ff 15 04 d1 00 00    	callq  *0xd104(%rip)        # 0x221a0
   1509c:	8b f8                	mov    %eax,%edi
   1509e:	89 44 24 40          	mov    %eax,0x40(%rsp)
   150a2:	3d 05 00 00 80       	cmp    $0x80000005,%eax
   150a7:	74 0b                	je     0x150b4
   150a9:	3d 23 00 00 c0       	cmp    $0xc0000023,%eax
   150ae:	0f 85 88 00 00 00    	jne    0x1513c
   150b4:	8b 84 24 d0 00 00 00 	mov    0xd0(%rsp),%eax
   150bb:	05 00 01 00 00       	add    $0x100,%eax
   150c0:	89 84 24 e8 00 00 00 	mov    %eax,0xe8(%rsp)
   150c7:	8b d0                	mov    %eax,%edx
   150c9:	33 c9                	xor    %ecx,%ecx
   150cb:	ff 15 f7 cf 00 00    	callq  *0xcff7(%rip)        # 0x220c8
   150d1:	48 8b f0             	mov    %rax,%rsi
   150d4:	48 89 44 24 50       	mov    %rax,0x50(%rsp)
   150d9:	48 85 c0             	test   %rax,%rax
   150dc:	75 0b                	jne    0x150e9
   150de:	bf 9a 00 00 c0       	mov    $0xc000009a,%edi
   150e3:	89 7c 24 40          	mov    %edi,0x40(%rsp)
   150e7:	eb 53                	jmp    0x1513c
   150e9:	48 8d 84 24 d0 00 00 	lea    0xd0(%rsp),%rax
   150f0:	00 
   150f1:	48 89 44 24 28       	mov    %rax,0x28(%rsp)
   150f6:	8b 84 24 e8 00 00 00 	mov    0xe8(%rsp),%eax
   150fd:	89 44 24 20          	mov    %eax,0x20(%rsp)
   15101:	4c 8b ce             	mov    %rsi,%r9
   15104:	45 8b c5             	mov    %r13d,%r8d
   15107:	48 8d 54 24 58       	lea    0x58(%rsp),%rdx
   1510c:	48 8b 4c 24 48       	mov    0x48(%rsp),%rcx
   15111:	ff 15 89 d0 00 00    	callq  *0xd089(%rip)        # 0x221a0
   15117:	8b f8                	mov    %eax,%edi
   15119:	89 44 24 40          	mov    %eax,0x40(%rsp)
   1511d:	85 c0                	test   %eax,%eax
   1511f:	78 1b                	js     0x1513c
   15121:	83 7e 08 00          	cmpl   $0x0,0x8(%rsi)
   15125:	75 0b                	jne    0x15132
   15127:	bf 01 00 00 c0       	mov    $0xc0000001,%edi
   1512c:	89 7c 24 40          	mov    %edi,0x40(%rsp)
   15130:	eb 0a                	jmp    0x1513c
   15132:	49 89 34 24          	mov    %rsi,(%r12)
   15136:	33 ff                	xor    %edi,%edi
   15138:	89 7c 24 40          	mov    %edi,0x40(%rsp)
   1513c:	85 ff                	test   %edi,%edi
   1513e:	79 10                	jns    0x15150
   15140:	48 85 f6             	test   %rsi,%rsi
   15143:	74 0b                	je     0x15150
   15145:	33 d2                	xor    %edx,%edx
   15147:	48 8b ce             	mov    %rsi,%rcx
   1514a:	ff 15 b8 ce 00 00    	callq  *0xceb8(%rip)        # 0x22008
   15150:	48 8b 4c 24 48       	mov    0x48(%rsp),%rcx
   15155:	48 85 c9             	test   %rcx,%rcx
   15158:	74 06                	je     0x15160
   1515a:	ff 15 70 cf 00 00    	callq  *0xcf70(%rip)        # 0x220d0
   15160:	8b c7                	mov    %edi,%eax
   15162:	eb 05                	jmp    0x15169
   15164:	b8 0d 00 00 c0       	mov    $0xc000000d,%eax
   15169:	48 8b b4 24 d8 00 00 	mov    0xd8(%rsp),%rsi
   15170:	00 
   15171:	48 81 c4 b0 00 00 00 	add    $0xb0,%rsp
   15178:	41 5d                	pop    %r13
   1517a:	41 5c                	pop    %r12
   1517c:	5f                   	pop    %rdi
   1517d:	c3                   	retq   
   1517e:	cc                   	int3   
   1517f:	cc                   	int3   
   15180:	40 55                	rex push %rbp
   15182:	48 83 ec 40          	sub    $0x40,%rsp
   15186:	48 8b ea             	mov    %rdx,%rbp
   15189:	83 7d 40 00          	cmpl   $0x0,0x40(%rbp)
   1518d:	7d 11                	jge    0x151a0
   1518f:	48 8b 4d 50          	mov    0x50(%rbp),%rcx
   15193:	48 85 c9             	test   %rcx,%rcx
   15196:	74 08                	je     0x151a0
   15198:	33 d2                	xor    %edx,%edx
   1519a:	ff 15 68 ce 00 00    	callq  *0xce68(%rip)        # 0x22008
   151a0:	48 8b 4d 48          	mov    0x48(%rbp),%rcx
   151a4:	48 85 c9             	test   %rcx,%rcx
   151a7:	74 06                	je     0x151af
   151a9:	ff 15 21 cf 00 00    	callq  *0xcf21(%rip)        # 0x220d0
   151af:	48 83 c4 40          	add    $0x40,%rsp
   151b3:	5d                   	pop    %rbp
   151b4:	c3                   	retq   
   151b5:	cc                   	int3   
   151b6:	cc                   	int3   
   151b7:	cc                   	int3   
   151b8:	cc                   	int3   
   151b9:	cc                   	int3   
   151ba:	cc                   	int3   
   151bb:	cc                   	int3   
   151bc:	48 89 5c 24 08       	mov    %rbx,0x8(%rsp)
   151c1:	57                   	push   %rdi
   151c2:	48 83 ec 20          	sub    $0x20,%rsp
   151c6:	48 8b f9             	mov    %rcx,%rdi
   151c9:	48 8d 4c 24 40       	lea    0x40(%rsp),%rcx
   151ce:	48 8b da             	mov    %rdx,%rbx
   151d1:	e8 d6 83 00 00       	callq  0x1d5ac
   151d6:	48 8b 4c 24 40       	mov    0x40(%rsp),%rcx
   151db:	4c 8b cb             	mov    %rbx,%r9
   151de:	4c 8b c7             	mov    %rdi,%r8
   151e1:	ba 00 10 00 00       	mov    $0x1000,%edx
   151e6:	e8 55 7c 00 00       	callq  0x1ce40
   151eb:	48 8b 5c 24 30       	mov    0x30(%rsp),%rbx
   151f0:	48 83 c4 20          	add    $0x20,%rsp
   151f4:	5f                   	pop    %rdi
   151f5:	c3                   	retq   
   151f6:	cc                   	int3   
   151f7:	cc                   	int3   
   151f8:	cc                   	int3   
   151f9:	cc                   	int3   
   151fa:	cc                   	int3   
   151fb:	cc                   	int3   
   151fc:	40 53                	rex push %rbx
   151fe:	48 83 ec 20          	sub    $0x20,%rsp
   15202:	e8 69 88 00 00       	callq  0x1da70
   15207:	48 83 38 00          	cmpq   $0x0,(%rax)
   1520b:	0f 85 a7 00 00 00    	jne    0x152b8
   15211:	48 8d 54 24 38       	lea    0x38(%rsp),%rdx
   15216:	48 8d 4c 24 40       	lea    0x40(%rsp),%rcx
   1521b:	e8 9c ff ff ff       	callq  0x151bc
   15220:	e8 4b 88 00 00       	callq  0x1da70
   15225:	48 8b 4c 24 40       	mov    0x40(%rsp),%rcx
   1522a:	ba 60 92 74 e1       	mov    $0xe1749260,%edx
   1522f:	48 8b d8             	mov    %rax,%rbx
   15232:	e8 25 7c 00 00       	callq  0x1ce5c
   15237:	ba 1e b4 2f 21       	mov    $0x212fb41e,%edx
   1523c:	48 89 03             	mov    %rax,(%rbx)
   1523f:	48 8b 4c 24 40       	mov    0x40(%rsp),%rcx
   15244:	e8 13 7c 00 00       	callq  0x1ce5c
   15249:	ba 4c f2 16 e0       	mov    $0xe016f24c,%edx
   1524e:	48 89 43 08          	mov    %rax,0x8(%rbx)
   15252:	48 8b 4c 24 40       	mov    0x40(%rsp),%rcx
   15257:	e8 00 7c 00 00       	callq  0x1ce5c
   1525c:	ba 0d fc d0 cb       	mov    $0xcbd0fc0d,%edx
   15261:	48 89 43 18          	mov    %rax,0x18(%rbx)
   15265:	48 8b 4c 24 40       	mov    0x40(%rsp),%rcx
   1526a:	e8 ed 7b 00 00       	callq  0x1ce5c
   1526f:	ba 4a 4f 5d 28       	mov    $0x285d4f4a,%edx
   15274:	48 89 43 10          	mov    %rax,0x10(%rbx)
   15278:	48 8b 4c 24 40       	mov    0x40(%rsp),%rcx
   1527d:	e8 da 7b 00 00       	callq  0x1ce5c
   15282:	ba 2e 17 cd f0       	mov    $0xf0cd172e,%edx
   15287:	48 89 43 20          	mov    %rax,0x20(%rbx)
   1528b:	48 8b 4c 24 40       	mov    0x40(%rsp),%rcx
   15290:	e8 c7 7b 00 00       	callq  0x1ce5c
   15295:	4c 8d 4b 30          	lea    0x30(%rbx),%r9
   15299:	48 8d 53 28          	lea    0x28(%rbx),%rdx
   1529d:	48 89 43 34          	mov    %rax,0x34(%rbx)
   152a1:	48 8b 4c 24 40       	mov    0x40(%rsp),%rcx
   152a6:	4c 8d 44 24 30       	lea    0x30(%rsp),%r8
   152ab:	c7 44 24 30 01 00 00 	movl   $0x1,0x30(%rsp)
   152b2:	00 
   152b3:	e8 58 84 00 00       	callq  0x1d710
   152b8:	48 83 c4 20          	add    $0x20,%rsp
   152bc:	5b                   	pop    %rbx
   152bd:	c3                   	retq   
   152be:	cc                   	int3   
   152bf:	cc                   	int3   
   152c0:	cc                   	int3   
   152c1:	cc                   	int3   
   152c2:	cc                   	int3   
   152c3:	cc                   	int3   
   152c4:	48 8b 04 24          	mov    (%rsp),%rax
   152c8:	c3                   	retq   
   152c9:	cc                   	int3   
   152ca:	cc                   	int3   
   152cb:	cc                   	int3   
   152cc:	cc                   	int3   
   152cd:	cc                   	int3   
   152ce:	cc                   	int3   
   152cf:	cc                   	int3   
   152d0:	48 89 5c 24 08       	mov    %rbx,0x8(%rsp)
   152d5:	48 89 74 24 10       	mov    %rsi,0x10(%rsp)
   152da:	57                   	push   %rdi
   152db:	48 83 ec 50          	sub    $0x50,%rsp
   152df:	49 8b d9             	mov    %r9,%rbx
   152e2:	41 8b f8             	mov    %r8d,%edi
   152e5:	48 8b f2             	mov    %rdx,%rsi
   152e8:	e8 0f ff ff ff       	callq  0x151fc
   152ed:	e8 7e 87 00 00       	callq  0x1da70
   152f2:	33 d2                	xor    %edx,%edx
   152f4:	48 8b 48 08          	mov    0x8(%rax),%rcx
   152f8:	48 3b ca             	cmp    %rdx,%rcx
   152fb:	75 07                	jne    0x15304
   152fd:	b8 25 02 00 c0       	mov    $0xc0000225,%eax
   15302:	eb 3a                	jmp    0x1533e
   15304:	48 8b 40 28          	mov    0x28(%rax),%rax
   15308:	48 3b c2             	cmp    %rdx,%rax
   1530b:	74 f0                	je     0x152fd
   1530d:	48 89 54 24 48       	mov    %rdx,0x48(%rsp)
   15312:	48 89 54 24 40       	mov    %rdx,0x40(%rsp)
   15317:	48 89 54 24 38       	mov    %rdx,0x38(%rsp)
   1531c:	48 89 44 24 30       	mov    %rax,0x30(%rsp)
   15321:	48 89 4c 24 28       	mov    %rcx,0x28(%rsp)
   15326:	ba 0b 00 00 00       	mov    $0xb,%edx
   1532b:	8d 4a f9             	lea    -0x7(%rdx),%ecx
   1532e:	44 8b cf             	mov    %edi,%r9d
   15331:	4c 8b c6             	mov    %rsi,%r8
   15334:	48 89 5c 24 20       	mov    %rbx,0x20(%rsp)
   15339:	e8 4f 86 00 00       	callq  0x1d98d
   1533e:	48 8b 5c 24 60       	mov    0x60(%rsp),%rbx
   15343:	48 8b 74 24 68       	mov    0x68(%rsp),%rsi
   15348:	48 83 c4 50          	add    $0x50,%rsp
   1534c:	5f                   	pop    %rdi
   1534d:	c3                   	retq   
   1534e:	cc                   	int3   
   1534f:	cc                   	int3   
   15350:	cc                   	int3   
   15351:	cc                   	int3   
   15352:	cc                   	int3   
   15353:	cc                   	int3   
   15354:	40 53                	rex push %rbx
   15356:	48 83 ec 40          	sub    $0x40,%rsp
   1535a:	48 8b d9             	mov    %rcx,%rbx
   1535d:	e8 9a fe ff ff       	callq  0x151fc
   15362:	e8 09 87 00 00       	callq  0x1da70
   15367:	4c 8b 40 10          	mov    0x10(%rax),%r8
   1536b:	33 c9                	xor    %ecx,%ecx
   1536d:	4c 3b c1             	cmp    %rcx,%r8
   15370:	74 25                	je     0x15397
   15372:	4c 8b 48 28          	mov    0x28(%rax),%r9
   15376:	4c 3b c9             	cmp    %rcx,%r9
   15379:	74 1c                	je     0x15397
   1537b:	48 89 4c 24 30       	mov    %rcx,0x30(%rsp)
   15380:	48 89 4c 24 28       	mov    %rcx,0x28(%rsp)
   15385:	48 89 4c 24 20       	mov    %rcx,0x20(%rsp)
   1538a:	b9 01 00 00 00       	mov    $0x1,%ecx
   1538f:	48 8b d3             	mov    %rbx,%rdx
   15392:	e8 f6 85 00 00       	callq  0x1d98d
   15397:	48 83 c4 40          	add    $0x40,%rsp
   1539b:	5b                   	pop    %rbx
   1539c:	c3                   	retq   
   1539d:	cc                   	int3   
   1539e:	cc                   	int3   
   1539f:	cc                   	int3   
   153a0:	cc                   	int3   
   153a1:	cc                   	int3   
   153a2:	cc                   	int3   
   153a3:	cc                   	int3   
   153a4:	48 89 5c 24 08       	mov    %rbx,0x8(%rsp)
   153a9:	57                   	push   %rdi
   153aa:	48 83 ec 40          	sub    $0x40,%rsp
   153ae:	48 8b da             	mov    %rdx,%rbx
   153b1:	8b f9                	mov    %ecx,%edi
   153b3:	e8 44 fe ff ff       	callq  0x151fc
   153b8:	e8 b3 86 00 00       	callq  0x1da70
   153bd:	4c 8b 48 18          	mov    0x18(%rax),%r9
   153c1:	4d 85 c9             	test   %r9,%r9
   153c4:	75 04                	jne    0x153ca
   153c6:	33 c0                	xor    %eax,%eax
   153c8:	eb 30                	jmp    0x153fa
   153ca:	48 8b 48 28          	mov    0x28(%rax),%rcx
   153ce:	48 85 c9             	test   %rcx,%rcx
   153d1:	74 f3                	je     0x153c6
   153d3:	48 83 64 24 38 00    	andq   $0x0,0x38(%rsp)
   153d9:	48 83 64 24 30 00    	andq   $0x0,0x30(%rsp)
   153df:	8b 40 30             	mov    0x30(%rax),%eax
   153e2:	89 44 24 28          	mov    %eax,0x28(%rsp)
   153e6:	48 89 4c 24 20       	mov    %rcx,0x20(%rsp)
   153eb:	4c 8b c3             	mov    %rbx,%r8
   153ee:	b9 02 00 00 00       	mov    $0x2,%ecx
   153f3:	8b d7                	mov    %edi,%edx
   153f5:	e8 93 85 00 00       	callq  0x1d98d
   153fa:	48 8b 5c 24 50       	mov    0x50(%rsp),%rbx
   153ff:	48 83 c4 40          	add    $0x40,%rsp
   15403:	5f                   	pop    %rdi
   15404:	c3                   	retq   
   15405:	cc                   	int3   
   15406:	cc                   	int3   
   15407:	cc                   	int3   
   15408:	cc                   	int3   
   15409:	cc                   	int3   
   1540a:	cc                   	int3   
   1540b:	cc                   	int3   
   1540c:	48 8b c4             	mov    %rsp,%rax
   1540f:	48 89 58 10          	mov    %rbx,0x10(%rax)
   15413:	48 89 68 18          	mov    %rbp,0x18(%rax)
   15417:	48 89 70 20          	mov    %rsi,0x20(%rax)
   1541b:	57                   	push   %rdi
   1541c:	41 54                	push   %r12
   1541e:	41 55                	push   %r13
   15420:	48 83 ec 70          	sub    $0x70,%rsp
   15424:	44 8b 25 25 94 01 00 	mov    0x19425(%rip),%r12d        # 0x2e850
   1542b:	48 8b 35 16 94 01 00 	mov    0x19416(%rip),%rsi        # 0x2e848
   15432:	48 83 60 d8 00       	andq   $0x0,-0x28(%rax)
   15437:	4c 8b e9             	mov    %rcx,%r13
   1543a:	bf 01 00 00 00       	mov    $0x1,%edi
   1543f:	83 64 24 40 00       	andl   $0x0,0x40(%rsp)
   15444:	83 64 24 38 00       	andl   $0x0,0x38(%rsp)
   15449:	83 64 24 30 00       	andl   $0x0,0x30(%rsp)
   1544e:	48 83 64 24 28 00    	andq   $0x0,0x28(%rsp)
   15454:	4c 8d 8c 24 90 00 00 	lea    0x90(%rsp),%r9
   1545b:	00 
   1545c:	41 b8 c8 00 00 00    	mov    $0xc8,%r8d
   15462:	41 8b d4             	mov    %r12d,%edx
   15465:	48 8b ce             	mov    %rsi,%rcx
   15468:	89 7c 24 20          	mov    %edi,0x20(%rsp)
   1546c:	4c 89 ac 24 90 00 00 	mov    %r13,0x90(%rsp)
   15473:	00 
   15474:	e8 e3 90 00 00       	callq  0x1e55c
   15479:	48 85 c0             	test   %rax,%rax
   1547c:	48 8b d8             	mov    %rax,%rbx
   1547f:	0f 84 bc 01 00 00    	je     0x15641
   15485:	83 c7 01             	add    $0x1,%edi
   15488:	48 3b c6             	cmp    %rsi,%rax
   1548b:	72 b2                	jb     0x1543f
   1548d:	4e 8d 04 26          	lea    (%rsi,%r12,1),%r8
   15491:	48 8d 68 20          	lea    0x20(%rax),%rbp
   15495:	49 3b e8             	cmp    %r8,%rbp
   15498:	73 a5                	jae    0x1543f
   1549a:	8b 50 04             	mov    0x4(%rax),%edx
   1549d:	81 fa e8 03 00 00    	cmp    $0x3e8,%edx
   154a3:	77 9a                	ja     0x1543f
   154a5:	39 10                	cmp    %edx,(%rax)
   154a7:	77 96                	ja     0x1543f
   154a9:	33 c9                	xor    %ecx,%ecx
   154ab:	39 10                	cmp    %edx,(%rax)
   154ad:	0f b6 40 08          	movzbl 0x8(%rax),%eax
   154b1:	0f 94 c1             	sete   %cl
   154b4:	3b c8                	cmp    %eax,%ecx
   154b6:	75 87                	jne    0x1543f
   154b8:	8d 42 02             	lea    0x2(%rdx),%eax
   154bb:	48 8d 04 c3          	lea    (%rbx,%rax,8),%rax
   154bf:	49 3b c0             	cmp    %r8,%rax
   154c2:	0f 83 77 ff ff ff    	jae    0x1543f
   154c8:	48 8b 4b 10          	mov    0x10(%rbx),%rcx
   154cc:	ff 15 4e cc 00 00    	callq  *0xcc4e(%rip)        # 0x22120
   154d2:	84 c0                	test   %al,%al
   154d4:	0f 84 65 ff ff ff    	je     0x1543f
   154da:	48 8b 4b 18          	mov    0x18(%rbx),%rcx
   154de:	ff 15 3c cc 00 00    	callq  *0xcc3c(%rip)        # 0x22120
   154e4:	84 c0                	test   %al,%al
   154e6:	0f 84 53 ff ff ff    	je     0x1543f
   154ec:	81 7d 00 00 f0 ff 0f 	cmpl   $0xffff000,0x0(%rbp)
   154f3:	0f 87 46 ff ff ff    	ja     0x1543f
   154f9:	80 3d 07 93 01 00 00 	cmpb   $0x0,0x19307(%rip)        # 0x2e807
   15500:	0f 85 3b 01 00 00    	jne    0x15641
   15506:	b8 04 00 00 00       	mov    $0x4,%eax
   1550b:	bf c8 00 00 00       	mov    $0xc8,%edi
   15510:	4c 8d 4c 24 60       	lea    0x60(%rsp),%r9
   15515:	89 44 24 40          	mov    %eax,0x40(%rsp)
   15519:	c7 44 24 38 09 00 00 	movl   $0x9,0x38(%rsp)
   15520:	00 
   15521:	89 44 24 30          	mov    %eax,0x30(%rsp)
   15525:	48 8d 44 24 50       	lea    0x50(%rsp),%rax
   1552a:	44 8b c7             	mov    %edi,%r8d
   1552d:	41 8b d4             	mov    %r12d,%edx
   15530:	48 89 44 24 28       	mov    %rax,0x28(%rsp)
   15535:	48 8b ce             	mov    %rsi,%rcx
   15538:	c6 44 24 50 f0       	movb   $0xf0,0x50(%rsp)
   1553d:	c7 44 24 20 01 00 00 	movl   $0x1,0x20(%rsp)
   15544:	00 
   15545:	c6 44 24 51 48       	movb   $0x48,0x51(%rsp)
   1554a:	c6 44 24 52 83       	movb   $0x83,0x52(%rsp)
   1554f:	c6 44 24 53 25       	movb   $0x25,0x53(%rsp)
   15554:	c6 44 24 54 f0       	movb   $0xf0,0x54(%rsp)
   15559:	c6 44 24 55 48       	movb   $0x48,0x55(%rsp)
   1555e:	c6 44 24 56 0f       	movb   $0xf,0x56(%rsp)
   15563:	c6 44 24 57 ba       	movb   $0xba,0x57(%rsp)
   15568:	c6 44 24 58 2d       	movb   $0x2d,0x58(%rsp)
   1556d:	c6 84 24 90 00 00 00 	movb   $0xf0,0x90(%rsp)
   15574:	f0 
   15575:	c6 84 24 91 00 00 00 	movb   $0xf,0x91(%rsp)
   1557c:	0f 
   1557d:	c6 84 24 92 00 00 00 	movb   $0xb1,0x92(%rsp)
   15584:	b1 
   15585:	4c 89 6c 24 60       	mov    %r13,0x60(%rsp)
   1558a:	e8 cd 8f 00 00       	callq  0x1e55c
   1558f:	4c 8d 4c 24 60       	lea    0x60(%rsp),%r9
   15594:	48 8b e8             	mov    %rax,%rbp
   15597:	b8 05 00 00 00       	mov    $0x5,%eax
   1559c:	44 8b c7             	mov    %edi,%r8d
   1559f:	89 44 24 40          	mov    %eax,0x40(%rsp)
   155a3:	c7 44 24 38 0a 00 00 	movl   $0xa,0x38(%rsp)
   155aa:	00 
   155ab:	89 44 24 30          	mov    %eax,0x30(%rsp)
   155af:	48 8d 44 24 54       	lea    0x54(%rsp),%rax
   155b4:	41 8b d4             	mov    %r12d,%edx
   155b7:	48 8b ce             	mov    %rsi,%rcx
   155ba:	48 89 44 24 28       	mov    %rax,0x28(%rsp)
   155bf:	c7 44 24 20 01 00 00 	movl   $0x1,0x20(%rsp)
   155c6:	00 
   155c7:	4c 89 6c 24 60       	mov    %r13,0x60(%rsp)
   155cc:	e8 8b 8f 00 00       	callq  0x1e55c
   155d1:	48 85 ed             	test   %rbp,%rbp
   155d4:	48 8b f8             	mov    %rax,%rdi
   155d7:	75 55                	jne    0x1562e
   155d9:	48 85 c0             	test   %rax,%rax
   155dc:	75 5c                	jne    0x1563a
   155de:	c7 44 24 40 04 00 00 	movl   $0x4,0x40(%rsp)
   155e5:	00 
   155e6:	c7 44 24 38 08 00 00 	movl   $0x8,0x38(%rsp)
   155ed:	00 
   155ee:	48 8d 84 24 90 00 00 	lea    0x90(%rsp),%rax
   155f5:	00 
   155f6:	c7 44 24 30 03 00 00 	movl   $0x3,0x30(%rsp)
   155fd:	00 
   155fe:	48 89 44 24 28       	mov    %rax,0x28(%rsp)
   15603:	4c 8d 4c 24 60       	lea    0x60(%rsp),%r9
   15608:	41 b8 c8 00 00 00    	mov    $0xc8,%r8d
   1560e:	41 8b d4             	mov    %r12d,%edx
   15611:	48 8b ce             	mov    %rsi,%rcx
   15614:	c7 44 24 20 01 00 00 	movl   $0x1,0x20(%rsp)
   1561b:	00 
   1561c:	4c 89 6c 24 60       	mov    %r13,0x60(%rsp)
   15621:	e8 36 8f 00 00       	callq  0x1e55c
   15626:	48 85 c0             	test   %rax,%rax
   15629:	48 8b e8             	mov    %rax,%rbp
   1562c:	74 13                	je     0x15641
   1562e:	48 85 ff             	test   %rdi,%rdi
   15631:	48 89 2d 08 92 01 00 	mov    %rbp,0x19208(%rip)        # 0x2e840
   15638:	74 07                	je     0x15641
   1563a:	48 89 3d ff 91 01 00 	mov    %rdi,0x191ff(%rip)        # 0x2e840
   15641:	4c 8d 5c 24 70       	lea    0x70(%rsp),%r11
   15646:	48 8b c3             	mov    %rbx,%rax
   15649:	49 8b 5b 28          	mov    0x28(%r11),%rbx
   1564d:	49 8b 6b 30          	mov    0x30(%r11),%rbp
   15651:	49 8b 73 38          	mov    0x38(%r11),%rsi
   15655:	49 8b e3             	mov    %r11,%rsp
   15658:	41 5d                	pop    %r13
   1565a:	41 5c                	pop    %r12
   1565c:	5f                   	pop    %rdi
   1565d:	c3                   	retq   
   1565e:	cc                   	int3   
   1565f:	cc                   	int3   
   15660:	cc                   	int3   
   15661:	cc                   	int3   
   15662:	cc                   	int3   
   15663:	cc                   	int3   
   15664:	48 89 5c 24 08       	mov    %rbx,0x8(%rsp)
   15669:	48 89 6c 24 10       	mov    %rbp,0x10(%rsp)
   1566e:	48 89 74 24 18       	mov    %rsi,0x18(%rsp)
   15673:	57                   	push   %rdi
   15674:	48 83 ec 20          	sub    $0x20,%rsp
   15678:	8b 31                	mov    (%rcx),%esi
   1567a:	33 db                	xor    %ebx,%ebx
   1567c:	48 8b f9             	mov    %rcx,%rdi
   1567f:	3b de                	cmp    %esi,%ebx
   15681:	44 8d 43 18          	lea    0x18(%rbx),%r8d
   15685:	73 15                	jae    0x1569c
   15687:	48 8d 41 18          	lea    0x18(%rcx),%rax
   1568b:	48 3b 10             	cmp    (%rax),%rdx
   1568e:	74 0a                	je     0x1569a
   15690:	83 c3 01             	add    $0x1,%ebx
   15693:	49 03 c0             	add    %r8,%rax
   15696:	3b de                	cmp    %esi,%ebx
   15698:	72 f1                	jb     0x1568b
   1569a:	3b de                	cmp    %esi,%ebx
   1569c:	74 3c                	je     0x156da
   1569e:	48 8d 0c 5b          	lea    (%rbx,%rbx,2),%rcx
   156a2:	33 d2                	xor    %edx,%edx
   156a4:	48 8d 6c cf 10       	lea    0x10(%rdi,%rcx,8),%rbp
   156a9:	48 8b cd             	mov    %rbp,%rcx
   156ac:	e8 df b1 00 00       	callq  0x20890
   156b1:	83 fe 01             	cmp    $0x1,%esi
   156b4:	74 21                	je     0x156d7
   156b6:	2b f3                	sub    %ebx,%esi
   156b8:	8d 43 01             	lea    0x1(%rbx),%eax
   156bb:	48 8b cd             	mov    %rbp,%rcx
   156be:	83 ee 01             	sub    $0x1,%esi
   156c1:	48 8d 04 40          	lea    (%rax,%rax,2),%rax
   156c5:	4c 8d 04 76          	lea    (%rsi,%rsi,2),%r8
   156c9:	48 8d 54 c7 10       	lea    0x10(%rdi,%rax,8),%rdx
   156ce:	49 c1 e0 03          	shl    $0x3,%r8
   156d2:	e8 49 ae 00 00       	callq  0x20520
   156d7:	83 07 ff             	addl   $0xffffffff,(%rdi)
   156da:	48 8b 5c 24 30       	mov    0x30(%rsp),%rbx
   156df:	48 8b 6c 24 38       	mov    0x38(%rsp),%rbp
   156e4:	48 8b 74 24 40       	mov    0x40(%rsp),%rsi
   156e9:	48 83 c4 20          	add    $0x20,%rsp
   156ed:	5f                   	pop    %rdi
   156ee:	c3                   	retq   
   156ef:	cc                   	int3   
   156f0:	cc                   	int3   
   156f1:	cc                   	int3   
   156f2:	cc                   	int3   
   156f3:	cc                   	int3   
   156f4:	cc                   	int3   
   156f5:	cc                   	int3   
   156f6:	cc                   	int3   
   156f7:	cc                   	int3   
   156f8:	48 8b c4             	mov    %rsp,%rax
   156fb:	48 89 58 08          	mov    %rbx,0x8(%rax)
   156ff:	48 89 70 10          	mov    %rsi,0x10(%rax)
   15703:	48 89 78 20          	mov    %rdi,0x20(%rax)
   15707:	41 54                	push   %r12
   15709:	41 55                	push   %r13
   1570b:	41 56                	push   %r14
   1570d:	48 83 ec 30          	sub    $0x30,%rsp
   15711:	44 8b ea             	mov    %edx,%r13d
   15714:	4c 8b f1             	mov    %rcx,%r14
   15717:	bb ff 00 00 c0       	mov    $0xc00000ff,%ebx
   1571c:	40 32 ff             	xor    %dil,%dil
   1571f:	40 88 78 d8          	mov    %dil,-0x28(%rax)
   15723:	45 0f 20 c4          	mov    %cr8,%r12
   15727:	44 88 64 24 60       	mov    %r12b,0x60(%rsp)
   1572c:	b8 0c 00 00 00       	mov    $0xc,%eax
   15731:	44 0f 22 c0          	mov    %rax,%cr8
   15735:	48 8b 0d 04 91 01 00 	mov    0x19104(%rip),%rcx        # 0x2e840
   1573c:	48 85 c9             	test   %rcx,%rcx
   1573f:	74 0e                	je     0x1574f
   15741:	ff 15 81 ca 00 00    	callq  *0xca81(%rip)        # 0x221c8
   15747:	40 b7 01             	mov    $0x1,%dil
   1574a:	40 88 7c 24 20       	mov    %dil,0x20(%rsp)
   1574f:	48 8b 0d e2 90 01 00 	mov    0x190e2(%rip),%rcx        # 0x2e838
   15756:	8b 31                	mov    (%rcx),%esi
   15758:	3b 71 04             	cmp    0x4(%rcx),%esi
   1575b:	73 28                	jae    0x15785
   1575d:	45 8b c5             	mov    %r13d,%r8d
   15760:	49 8b d6             	mov    %r14,%rdx
   15763:	ff 15 c7 90 01 00    	callq  *0x190c7(%rip)        # 0x2e830
   15769:	4c 8b 1d c8 90 01 00 	mov    0x190c8(%rip),%r11        # 0x2e838
   15770:	41 39 33             	cmp    %esi,(%r11)
   15773:	75 07                	jne    0x1577c
   15775:	bb 08 09 00 c0       	mov    $0xc0000908,%ebx
   1577a:	eb 09                	jmp    0x15785
   1577c:	41 3b 33             	cmp    (%r11),%esi
   1577f:	1b c0                	sbb    %eax,%eax
   15781:	f7 d0                	not    %eax
   15783:	23 d8                	and    %eax,%ebx
   15785:	40 84 ff             	test   %dil,%dil
   15788:	74 0d                	je     0x15797
   1578a:	48 8b 0d af 90 01 00 	mov    0x190af(%rip),%rcx        # 0x2e840
   15791:	ff 15 29 ca 00 00    	callq  *0xca29(%rip)        # 0x221c0
   15797:	41 0f b6 cc          	movzbl %r12b,%ecx
   1579b:	44 0f 22 c1          	mov    %rcx,%cr8
   1579f:	8b c3                	mov    %ebx,%eax
   157a1:	48 8b 5c 24 50       	mov    0x50(%rsp),%rbx
   157a6:	48 8b 74 24 58       	mov    0x58(%rsp),%rsi
   157ab:	48 8b 7c 24 68       	mov    0x68(%rsp),%rdi
   157b0:	48 83 c4 30          	add    $0x30,%rsp
   157b4:	41 5e                	pop    %r14
   157b6:	41 5d                	pop    %r13
   157b8:	41 5c                	pop    %r12
   157ba:	c3                   	retq   
   157bb:	cc                   	int3   
   157bc:	cc                   	int3   
   157bd:	cc                   	int3   
   157be:	cc                   	int3   
   157bf:	cc                   	int3   
   157c0:	cc                   	int3   
   157c1:	cc                   	int3   
   157c2:	cc                   	int3   
   157c3:	cc                   	int3   
   157c4:	cc                   	int3   
   157c5:	cc                   	int3   
   157c6:	cc                   	int3   
   157c7:	cc                   	int3   
   157c8:	40 55                	rex push %rbp
   157ca:	48 83 ec 20          	sub    $0x20,%rsp
   157ce:	48 8b ea             	mov    %rdx,%rbp
   157d1:	80 7d 20 00          	cmpb   $0x0,0x20(%rbp)
   157d5:	74 0d                	je     0x157e4
   157d7:	48 8b 0d 62 90 01 00 	mov    0x19062(%rip),%rcx        # 0x2e840
   157de:	ff 15 dc c9 00 00    	callq  *0xc9dc(%rip)        # 0x221c0
   157e4:	0f b6 45 60          	movzbl 0x60(%rbp),%eax
   157e8:	44 0f 22 c0          	mov    %rax,%cr8
   157ec:	48 83 c4 20          	add    $0x20,%rsp
   157f0:	5d                   	pop    %rbp
   157f1:	c3                   	retq   
   157f2:	cc                   	int3   
   157f3:	cc                   	int3   
   157f4:	cc                   	int3   
   157f5:	cc                   	int3   
   157f6:	cc                   	int3   
   157f7:	cc                   	int3   
   157f8:	48 89 5c 24 08       	mov    %rbx,0x8(%rsp)
   157fd:	48 89 74 24 18       	mov    %rsi,0x18(%rsp)
   15802:	57                   	push   %rdi
   15803:	41 54                	push   %r12
   15805:	41 55                	push   %r13
   15807:	48 83 ec 30          	sub    $0x30,%rsp
   1580b:	4c 8b e9             	mov    %rcx,%r13
   1580e:	bb ff 00 00 c0       	mov    $0xc00000ff,%ebx
   15813:	40 32 ff             	xor    %dil,%dil
   15816:	40 88 7c 24 20       	mov    %dil,0x20(%rsp)
   1581b:	45 0f 20 c4          	mov    %cr8,%r12
   1581f:	44 88 64 24 58       	mov    %r12b,0x58(%rsp)
   15824:	b8 0c 00 00 00       	mov    $0xc,%eax
   15829:	44 0f 22 c0          	mov    %rax,%cr8
   1582d:	48 8b 05 f4 8f 01 00 	mov    0x18ff4(%rip),%rax        # 0x2e828
   15834:	48 85 c0             	test   %rax,%rax
   15837:	74 4f                	je     0x15888
   15839:	48 8b 0d 00 90 01 00 	mov    0x19000(%rip),%rcx        # 0x2e840
   15840:	48 85 c9             	test   %rcx,%rcx
   15843:	74 15                	je     0x1585a
   15845:	ff 15 7d c9 00 00    	callq  *0xc97d(%rip)        # 0x221c8
   1584b:	40 b7 01             	mov    $0x1,%dil
   1584e:	40 88 7c 24 20       	mov    %dil,0x20(%rsp)
   15853:	48 8b 05 ce 8f 01 00 	mov    0x18fce(%rip),%rax        # 0x2e828
   1585a:	48 8b 0d d7 8f 01 00 	mov    0x18fd7(%rip),%rcx        # 0x2e838
   15861:	8b 31                	mov    (%rcx),%esi
   15863:	85 f6                	test   %esi,%esi
   15865:	74 21                	je     0x15888
   15867:	49 8b d5             	mov    %r13,%rdx
   1586a:	ff d0                	callq  *%rax
   1586c:	4c 8b 1d c5 8f 01 00 	mov    0x18fc5(%rip),%r11        # 0x2e838
   15873:	41 39 33             	cmp    %esi,(%r11)
   15876:	75 07                	jne    0x1587f
   15878:	bb 08 09 00 c0       	mov    $0xc0000908,%ebx
   1587d:	eb 09                	jmp    0x15888
   1587f:	41 39 33             	cmp    %esi,(%r11)
   15882:	1b c0                	sbb    %eax,%eax
   15884:	f7 d0                	not    %eax
   15886:	23 d8                	and    %eax,%ebx
   15888:	40 84 ff             	test   %dil,%dil
   1588b:	74 0d                	je     0x1589a
   1588d:	48 8b 0d ac 8f 01 00 	mov    0x18fac(%rip),%rcx        # 0x2e840
   15894:	ff 15 26 c9 00 00    	callq  *0xc926(%rip)        # 0x221c0
   1589a:	41 0f b6 cc          	movzbl %r12b,%ecx
   1589e:	44 0f 22 c1          	mov    %rcx,%cr8
   158a2:	8b c3                	mov    %ebx,%eax
   158a4:	48 8b 5c 24 50       	mov    0x50(%rsp),%rbx
   158a9:	48 8b 74 24 60       	mov    0x60(%rsp),%rsi
   158ae:	48 83 c4 30          	add    $0x30,%rsp
   158b2:	41 5d                	pop    %r13
   158b4:	41 5c                	pop    %r12
   158b6:	5f                   	pop    %rdi
   158b7:	c3                   	retq   
   158b8:	40 55                	rex push %rbp
   158ba:	48 83 ec 20          	sub    $0x20,%rsp
   158be:	48 8b ea             	mov    %rdx,%rbp
   158c1:	80 7d 20 00          	cmpb   $0x0,0x20(%rbp)
   158c5:	74 0d                	je     0x158d4
   158c7:	48 8b 0d 72 8f 01 00 	mov    0x18f72(%rip),%rcx        # 0x2e840
   158ce:	ff 15 ec c8 00 00    	callq  *0xc8ec(%rip)        # 0x221c0
   158d4:	0f b6 45 58          	movzbl 0x58(%rbp),%eax
   158d8:	44 0f 22 c0          	mov    %rax,%cr8
   158dc:	48 83 c4 20          	add    $0x20,%rsp
   158e0:	5d                   	pop    %rbp
   158e1:	c3                   	retq   
   158e2:	cc                   	int3   
   158e3:	cc                   	int3   
   158e4:	cc                   	int3   
   158e5:	cc                   	int3   
   158e6:	cc                   	int3   
   158e7:	cc                   	int3   
   158e8:	89 54 24 10          	mov    %edx,0x10(%rsp)
   158ec:	53                   	push   %rbx
   158ed:	56                   	push   %rsi
   158ee:	57                   	push   %rdi
   158ef:	41 54                	push   %r12
   158f1:	41 55                	push   %r13
   158f3:	41 56                	push   %r14
   158f5:	41 57                	push   %r15
   158f7:	48 81 ec d0 00 00 00 	sub    $0xd0,%rsp
   158fe:	44 8b f2             	mov    %edx,%r14d
   15901:	4c 8b e9             	mov    %rcx,%r13
   15904:	45 33 ff             	xor    %r15d,%r15d
   15907:	41 8b df             	mov    %r15d,%ebx
   1590a:	41 8b ff             	mov    %r15d,%edi
   1590d:	44 89 7c 24 5c       	mov    %r15d,0x5c(%rsp)
   15912:	44 39 3d 8f 90 01 00 	cmp    %r15d,0x1908f(%rip)        # 0x2e9a8
   15919:	0f 85 cf 04 00 00    	jne    0x15dee
   1591f:	4c 8b 21             	mov    (%rcx),%r12
   15922:	4c 89 a4 24 a0 00 00 	mov    %r12,0xa0(%rsp)
   15929:	00 
   1592a:	ff 15 88 c8 00 00    	callq  *0xc888(%rip)        # 0x221b8
   15930:	48 83 f8 01          	cmp    $0x1,%rax
   15934:	0f 94 05 cc 8e 01 00 	sete   0x18ecc(%rip)        # 0x2e807
   1593b:	c7 05 63 90 01 00 01 	movl   $0x1,0x19063(%rip)        # 0x2e9a8
   15942:	00 00 00 
   15945:	c6 84 24 20 01 00 00 	movb   $0xe8,0x120(%rsp)
   1594c:	e8 
   1594d:	e8 aa f8 ff ff       	callq  0x151fc
   15952:	e8 19 81 00 00       	callq  0x1da70
   15957:	48 8b 58 34          	mov    0x34(%rax),%rbx
   1595b:	48 8d 15 ee 8e 01 00 	lea    0x18eee(%rip),%rdx        # 0x2e850
   15962:	48 8d 0d df 8e 01 00 	lea    0x18edf(%rip),%rcx        # 0x2e848
   15969:	e8 4e f8 ff ff       	callq  0x151bc
   1596e:	4c 8d 0d cb 8e 01 00 	lea    0x18ecb(%rip),%r9        # 0x2e840
   15975:	44 8b 05 d4 8e 01 00 	mov    0x18ed4(%rip),%r8d        # 0x2e850
   1597c:	48 8b 15 c5 8e 01 00 	mov    0x18ec5(%rip),%rdx        # 0x2e848
   15983:	48 8b cb             	mov    %rbx,%rcx
   15986:	e8 81 fa ff ff       	callq  0x1540c
   1598b:	48 89 05 a6 8e 01 00 	mov    %rax,0x18ea6(%rip)        # 0x2e838
   15992:	49 3b c7             	cmp    %r15,%rax
   15995:	0f 85 88 00 00 00    	jne    0x15a23
   1599b:	48 89 9c 24 88 00 00 	mov    %rbx,0x88(%rsp)
   159a2:	00 
   159a3:	44 89 7c 24 40       	mov    %r15d,0x40(%rsp)
   159a8:	44 89 7c 24 38       	mov    %r15d,0x38(%rsp)
   159ad:	c7 44 24 30 01 00 00 	movl   $0x1,0x30(%rsp)
   159b4:	00 
   159b5:	48 8d 84 24 20 01 00 	lea    0x120(%rsp),%rax
   159bc:	00 
   159bd:	48 89 44 24 28       	mov    %rax,0x28(%rsp)
   159c2:	c7 44 24 20 01 00 00 	movl   $0x1,0x20(%rsp)
   159c9:	00 
   159ca:	4c 8d 8c 24 88 00 00 	lea    0x88(%rsp),%r9
   159d1:	00 
   159d2:	41 b8 f4 01 00 00    	mov    $0x1f4,%r8d
   159d8:	8b 15 72 8e 01 00    	mov    0x18e72(%rip),%edx        # 0x2e850
   159de:	48 8b 0d 63 8e 01 00 	mov    0x18e63(%rip),%rcx        # 0x2e848
   159e5:	e8 72 8b 00 00       	callq  0x1e55c
   159ea:	48 89 05 2f 8e 01 00 	mov    %rax,0x18e2f(%rip)        # 0x2e820
   159f1:	49 3b c7             	cmp    %r15,%rax
   159f4:	74 26                	je     0x15a1c
   159f6:	4c 8d 0d 43 8e 01 00 	lea    0x18e43(%rip),%r9        # 0x2e840
   159fd:	44 8b 05 4c 8e 01 00 	mov    0x18e4c(%rip),%r8d        # 0x2e850
   15a04:	48 8b 15 3d 8e 01 00 	mov    0x18e3d(%rip),%rdx        # 0x2e848
   15a0b:	48 8b c8             	mov    %rax,%rcx
   15a0e:	e8 f9 f9 ff ff       	callq  0x1540c
   15a13:	48 89 05 1e 8e 01 00 	mov    %rax,0x18e1e(%rip)        # 0x2e838
   15a1a:	eb 07                	jmp    0x15a23
   15a1c:	48 8b 05 15 8e 01 00 	mov    0x18e15(%rip),%rax        # 0x2e838
   15a23:	49 3b c7             	cmp    %r15,%rax
   15a26:	75 0e                	jne    0x15a36
   15a28:	bb 31 01 00 c0       	mov    $0xc0000131,%ebx
   15a2d:	89 5c 24 54          	mov    %ebx,0x54(%rsp)
   15a31:	e9 d2 03 00 00       	jmpq   0x15e08
   15a36:	4c 8d 8c 24 98 00 00 	lea    0x98(%rsp),%r9
   15a3d:	00 
   15a3e:	4c 8d 44 24 60       	lea    0x60(%rsp),%r8
   15a43:	b2 01                	mov    $0x1,%dl
   15a45:	48 8b 0d fc 8d 01 00 	mov    0x18dfc(%rip),%rcx        # 0x2e848
   15a4c:	e8 d3 6a 00 00       	callq  0x1c524
   15a51:	8b d8                	mov    %eax,%ebx
   15a53:	89 44 24 54          	mov    %eax,0x54(%rsp)
   15a57:	41 3b c7             	cmp    %r15d,%eax
   15a5a:	0f 8c a8 03 00 00    	jl     0x15e08
   15a60:	49 8b c7             	mov    %r15,%rax
   15a63:	48 89 44 24 78       	mov    %rax,0x78(%rsp)
   15a68:	44 89 7c 24 68       	mov    %r15d,0x68(%rsp)
   15a6d:	33 f6                	xor    %esi,%esi
   15a6f:	48 89 b4 24 a8 00 00 	mov    %rsi,0xa8(%rsp)
   15a76:	00 
   15a77:	48 3b b4 24 98 00 00 	cmp    0x98(%rsp),%rsi
   15a7e:	00 
   15a7f:	0f 83 4e 01 00 00    	jae    0x15bd3
   15a85:	48 8d 0c 76          	lea    (%rsi,%rsi,2),%rcx
   15a89:	48 8b 44 24 60       	mov    0x60(%rsp),%rax
   15a8e:	44 8b 34 88          	mov    (%rax,%rcx,4),%r14d
   15a92:	4c 03 35 af 8d 01 00 	add    0x18daf(%rip),%r14        # 0x2e848
   15a99:	4c 89 b4 24 80 00 00 	mov    %r14,0x80(%rsp)
   15aa0:	00 
   15aa1:	45 32 e4             	xor    %r12b,%r12b
   15aa4:	44 88 64 24 58       	mov    %r12b,0x58(%rsp)
   15aa9:	49 8d 4e fd          	lea    -0x3(%r14),%rcx
   15aad:	ff 15 6d c6 00 00    	callq  *0xc66d(%rip)        # 0x22120
   15ab3:	84 c0                	test   %al,%al
   15ab5:	74 53                	je     0x15b0a
   15ab7:	49 8d 4e fe          	lea    -0x2(%r14),%rcx
   15abb:	ff 15 5f c6 00 00    	callq  *0xc65f(%rip)        # 0x22120
   15ac1:	84 c0                	test   %al,%al
   15ac3:	74 45                	je     0x15b0a
   15ac5:	49 8b ce             	mov    %r14,%rcx
   15ac8:	48 83 c1 ff          	add    $0xffffffffffffffff,%rcx
   15acc:	ff 15 4e c6 00 00    	callq  *0xc64e(%rip)        # 0x22120
   15ad2:	84 c0                	test   %al,%al
   15ad4:	74 34                	je     0x15b0a
   15ad6:	49 8b c6             	mov    %r14,%rax
   15ad9:	b1 90                	mov    $0x90,%cl
   15adb:	38 48 ff             	cmp    %cl,-0x1(%rax)
   15ade:	75 0b                	jne    0x15aeb
   15ae0:	41 38 4e fe          	cmp    %cl,-0x2(%r14)
   15ae4:	75 05                	jne    0x15aeb
   15ae6:	38 48 fd             	cmp    %cl,-0x3(%rax)
   15ae9:	74 12                	je     0x15afd
   15aeb:	b1 cc                	mov    $0xcc,%cl
   15aed:	38 48 ff             	cmp    %cl,-0x1(%rax)
   15af0:	75 10                	jne    0x15b02
   15af2:	41 38 4e fe          	cmp    %cl,-0x2(%r14)
   15af6:	75 0a                	jne    0x15b02
   15af8:	38 48 fd             	cmp    %cl,-0x3(%rax)
   15afb:	75 05                	jne    0x15b02
   15afd:	41 b4 01             	mov    $0x1,%r12b
   15b00:	eb 03                	jmp    0x15b05
   15b02:	45 32 e4             	xor    %r12b,%r12b
   15b05:	44 88 64 24 58       	mov    %r12b,0x58(%rsp)
   15b0a:	45 84 e4             	test   %r12b,%r12b
   15b0d:	75 05                	jne    0x15b14
   15b0f:	e9 ae 00 00 00       	jmpq   0x15bc2
   15b14:	48 8b 44 24 78       	mov    0x78(%rsp),%rax
   15b19:	48 3b 84 24 80 00 00 	cmp    0x80(%rsp),%rax
   15b20:	00 
   15b21:	76 0e                	jbe    0x15b31
   15b23:	41 83 c7 01          	add    $0x1,%r15d
   15b27:	44 89 7c 24 68       	mov    %r15d,0x68(%rsp)
   15b2c:	e9 91 00 00 00       	jmpq   0x15bc2
   15b31:	48 8b 44 24 60       	mov    0x60(%rsp),%rax
   15b36:	4c 8d 34 76          	lea    (%rsi,%rsi,2),%r14
   15b3a:	46 8b 64 b0 04       	mov    0x4(%rax,%r14,4),%r12d
   15b3f:	48 8b 0d 02 8d 01 00 	mov    0x18d02(%rip),%rcx        # 0x2e848
   15b46:	4c 03 e1             	add    %rcx,%r12
   15b49:	4c 89 64 24 78       	mov    %r12,0x78(%rsp)
   15b4e:	83 64 24 40 00       	andl   $0x0,0x40(%rsp)
   15b53:	83 64 24 38 00       	andl   $0x0,0x38(%rsp)
   15b58:	83 64 24 30 00       	andl   $0x0,0x30(%rsp)
   15b5d:	48 83 64 24 28 00    	andq   $0x0,0x28(%rsp)
   15b63:	c7 44 24 20 01 00 00 	movl   $0x1,0x20(%rsp)
   15b6a:	00 
   15b6b:	4c 8d 8c 24 80 00 00 	lea    0x80(%rsp),%r9
   15b72:	00 
   15b73:	41 b8 0a 00 00 00    	mov    $0xa,%r8d
   15b79:	8b 15 d1 8c 01 00    	mov    0x18cd1(%rip),%edx        # 0x2e850
   15b7f:	e8 d8 89 00 00       	callq  0x1e55c
   15b84:	48 3b 05 ad 8c 01 00 	cmp    0x18cad(%rip),%rax        # 0x2e838
   15b8b:	75 35                	jne    0x15bc2
   15b8d:	83 ff 02             	cmp    $0x2,%edi
   15b90:	7c 0e                	jl     0x15ba0
   15b92:	bb 31 01 00 c0       	mov    $0xc0000131,%ebx
   15b97:	89 5c 24 54          	mov    %ebx,0x54(%rsp)
   15b9b:	e9 68 02 00 00       	jmpq   0x15e08
   15ba0:	48 8b 44 24 60       	mov    0x60(%rsp),%rax
   15ba5:	42 8b 0c b0          	mov    (%rax,%r14,4),%ecx
   15ba9:	48 03 0d 98 8c 01 00 	add    0x18c98(%rip),%rcx        # 0x2e848
   15bb0:	48 63 c7             	movslq %edi,%rax
   15bb3:	48 89 8c c4 b0 00 00 	mov    %rcx,0xb0(%rsp,%rax,8)
   15bba:	00 
   15bbb:	83 c7 01             	add    $0x1,%edi
   15bbe:	89 7c 24 5c          	mov    %edi,0x5c(%rsp)
   15bc2:	48 83 c6 01          	add    $0x1,%rsi
   15bc6:	48 89 b4 24 a8 00 00 	mov    %rsi,0xa8(%rsp)
   15bcd:	00 
   15bce:	e9 a4 fe ff ff       	jmpq   0x15a77
   15bd3:	83 ff 01             	cmp    $0x1,%edi
   15bd6:	0f 8e ef 00 00 00    	jle    0x15ccb
   15bdc:	45 33 ff             	xor    %r15d,%r15d
   15bdf:	41 8b f7             	mov    %r15d,%esi
   15be2:	44 89 7c 24 6c       	mov    %r15d,0x6c(%rsp)
   15be7:	3b f7                	cmp    %edi,%esi
   15be9:	0f 8d df 00 00 00    	jge    0x15cce
   15bef:	48 63 c6             	movslq %esi,%rax
   15bf2:	48 8b 8c c4 b0 00 00 	mov    0xb0(%rsp,%rax,8),%rcx
   15bf9:	00 
   15bfa:	c6 84 24 28 01 00 00 	movb   $0xe8,0x128(%rsp)
   15c01:	e8 
   15c02:	48 89 8c 24 90 00 00 	mov    %rcx,0x90(%rsp)
   15c09:	00 
   15c0a:	45 8a e7             	mov    %r15b,%r12b
   15c0d:	44 88 7c 24 50       	mov    %r15b,0x50(%rsp)
   15c12:	4c 39 3d 07 8c 01 00 	cmp    %r15,0x18c07(%rip)        # 0x2e820
   15c19:	74 64                	je     0x15c7f
   15c1b:	44 89 7c 24 40       	mov    %r15d,0x40(%rsp)
   15c20:	c7 44 24 38 05 00 00 	movl   $0x5,0x38(%rsp)
   15c27:	00 
   15c28:	c7 44 24 30 01 00 00 	movl   $0x1,0x30(%rsp)
   15c2f:	00 
   15c30:	48 8d 84 24 28 01 00 	lea    0x128(%rsp),%rax
   15c37:	00 
   15c38:	48 89 44 24 28       	mov    %rax,0x28(%rsp)
   15c3d:	c7 44 24 20 01 00 00 	movl   $0x1,0x20(%rsp)
   15c44:	00 
   15c45:	4c 8d 8c 24 90 00 00 	lea    0x90(%rsp),%r9
   15c4c:	00 
   15c4d:	41 b8 c8 00 00 00    	mov    $0xc8,%r8d
   15c53:	8b 15 f7 8b 01 00    	mov    0x18bf7(%rip),%edx        # 0x2e850
   15c59:	48 8b 0d e8 8b 01 00 	mov    0x18be8(%rip),%rcx        # 0x2e848
   15c60:	e8 f7 88 00 00       	callq  0x1e55c
   15c65:	49 3b c7             	cmp    %r15,%rax
   15c68:	74 15                	je     0x15c7f
   15c6a:	48 3b 05 af 8b 01 00 	cmp    0x18baf(%rip),%rax        # 0x2e820
   15c71:	75 0a                	jne    0x15c7d
   15c73:	41 b4 01             	mov    $0x1,%r12b
   15c76:	44 88 64 24 50       	mov    %r12b,0x50(%rsp)
   15c7b:	eb 02                	jmp    0x15c7f
   15c7d:	eb 93                	jmp    0x15c12
   15c7f:	45 3a e7             	cmp    %r15b,%r12b
   15c82:	74 3b                	je     0x15cbf
   15c84:	44 8d 67 ff          	lea    -0x1(%rdi),%r12d
   15c88:	41 3b f4             	cmp    %r12d,%esi
   15c8b:	74 2a                	je     0x15cb7
   15c8d:	2b fe                	sub    %esi,%edi
   15c8f:	83 ef 01             	sub    $0x1,%edi
   15c92:	4c 63 c7             	movslq %edi,%r8
   15c95:	49 c1 e0 03          	shl    $0x3,%r8
   15c99:	8d 46 01             	lea    0x1(%rsi),%eax
   15c9c:	48 63 c8             	movslq %eax,%rcx
   15c9f:	48 8d 94 cc b0 00 00 	lea    0xb0(%rsp,%rcx,8),%rdx
   15ca6:	00 
   15ca7:	48 63 c6             	movslq %esi,%rax
   15caa:	48 8d 8c c4 b0 00 00 	lea    0xb0(%rsp,%rax,8),%rcx
   15cb1:	00 
   15cb2:	e8 69 a8 00 00       	callq  0x20520
   15cb7:	41 8b fc             	mov    %r12d,%edi
   15cba:	44 89 64 24 5c       	mov    %r12d,0x5c(%rsp)
   15cbf:	83 c6 01             	add    $0x1,%esi
   15cc2:	89 74 24 6c          	mov    %esi,0x6c(%rsp)
   15cc6:	e9 1c ff ff ff       	jmpq   0x15be7
   15ccb:	45 33 ff             	xor    %r15d,%r15d
   15cce:	4c 39 3d 5b 8b 01 00 	cmp    %r15,0x18b5b(%rip)        # 0x2e830
   15cd5:	0f 85 e5 00 00 00    	jne    0x15dc0
   15cdb:	41 8b f7             	mov    %r15d,%esi
   15cde:	44 89 7c 24 70       	mov    %r15d,0x70(%rsp)
   15ce3:	4c 8b a4 24 a0 00 00 	mov    0xa0(%rsp),%r12
   15cea:	00 
   15ceb:	44 8b b4 24 18 01 00 	mov    0x118(%rsp),%r14d
   15cf2:	00 
   15cf3:	3b f7                	cmp    %edi,%esi
   15cf5:	0f 8d 85 00 00 00    	jge    0x15d80
   15cfb:	4c 39 3d 2e 8b 01 00 	cmp    %r15,0x18b2e(%rip)        # 0x2e830
   15d02:	75 35                	jne    0x15d39
   15d04:	48 63 c6             	movslq %esi,%rax
   15d07:	48 8b 8c c4 b0 00 00 	mov    0xb0(%rsp,%rax,8),%rcx
   15d0e:	00 
   15d0f:	48 89 0d 1a 8b 01 00 	mov    %rcx,0x18b1a(%rip)        # 0x2e830
   15d16:	41 8b d6             	mov    %r14d,%edx
   15d19:	49 8b cd             	mov    %r13,%rcx
   15d1c:	e8 d7 f9 ff ff       	callq  0x156f8
   15d21:	8b d8                	mov    %eax,%ebx
   15d23:	89 44 24 54          	mov    %eax,0x54(%rsp)
   15d27:	4d 89 65 00          	mov    %r12,0x0(%r13)
   15d2b:	41 3b c7             	cmp    %r15d,%eax
   15d2e:	7c 02                	jl     0x15d32
   15d30:	eb 42                	jmp    0x15d74
   15d32:	4c 89 3d f7 8a 01 00 	mov    %r15,0x18af7(%rip)        # 0x2e830
   15d39:	4c 39 3d e8 8a 01 00 	cmp    %r15,0x18ae8(%rip)        # 0x2e828
   15d40:	75 32                	jne    0x15d74
   15d42:	48 63 c6             	movslq %esi,%rax
   15d45:	48 8b 8c c4 b0 00 00 	mov    0xb0(%rsp,%rax,8),%rcx
   15d4c:	00 
   15d4d:	48 89 0d d4 8a 01 00 	mov    %rcx,0x18ad4(%rip)        # 0x2e828
   15d54:	49 8b cd             	mov    %r13,%rcx
   15d57:	e8 9c fa ff ff       	callq  0x157f8
   15d5c:	8b d8                	mov    %eax,%ebx
   15d5e:	89 44 24 54          	mov    %eax,0x54(%rsp)
   15d62:	4d 89 65 00          	mov    %r12,0x0(%r13)
   15d66:	41 3b c7             	cmp    %r15d,%eax
   15d69:	7c 02                	jl     0x15d6d
   15d6b:	eb 07                	jmp    0x15d74
   15d6d:	4c 89 3d b4 8a 01 00 	mov    %r15,0x18ab4(%rip)        # 0x2e828
   15d74:	83 c6 01             	add    $0x1,%esi
   15d77:	89 74 24 70          	mov    %esi,0x70(%rsp)
   15d7b:	e9 73 ff ff ff       	jmpq   0x15cf3
   15d80:	4c 39 3d a1 8a 01 00 	cmp    %r15,0x18aa1(%rip)        # 0x2e828
   15d87:	75 3f                	jne    0x15dc8
   15d89:	48 8d 05 d4 f8 ff ff 	lea    -0x72c(%rip),%rax        # 0x15664
   15d90:	48 89 05 91 8a 01 00 	mov    %rax,0x18a91(%rip)        # 0x2e828
   15d97:	49 8b cd             	mov    %r13,%rcx
   15d9a:	e8 59 fa ff ff       	callq  0x157f8
   15d9f:	8b d8                	mov    %eax,%ebx
   15da1:	89 44 24 54          	mov    %eax,0x54(%rsp)
   15da5:	4d 89 65 00          	mov    %r12,0x0(%r13)
   15da9:	48 8b 05 78 8a 01 00 	mov    0x18a78(%rip),%rax        # 0x2e828
   15db0:	41 3b df             	cmp    %r15d,%ebx
   15db3:	49 0f 4c c7          	cmovl  %r15,%rax
   15db7:	48 89 05 6a 8a 01 00 	mov    %rax,0x18a6a(%rip)        # 0x2e828
   15dbe:	eb 08                	jmp    0x15dc8
   15dc0:	44 8b b4 24 18 01 00 	mov    0x118(%rsp),%r14d
   15dc7:	00 
   15dc8:	4c 39 3d 69 8a 01 00 	cmp    %r15,0x18a69(%rip)        # 0x2e838
   15dcf:	74 12                	je     0x15de3
   15dd1:	4c 39 3d 58 8a 01 00 	cmp    %r15,0x18a58(%rip)        # 0x2e830
   15dd8:	74 09                	je     0x15de3
   15dda:	4c 39 3d 47 8a 01 00 	cmp    %r15,0x18a47(%rip)        # 0x2e828
   15de1:	75 0b                	jne    0x15dee
   15de3:	bb ff 00 00 c0       	mov    $0xc00000ff,%ebx
   15de8:	89 5c 24 54          	mov    %ebx,0x54(%rsp)
   15dec:	eb 1a                	jmp    0x15e08
   15dee:	4c 39 3d 3b 8a 01 00 	cmp    %r15,0x18a3b(%rip)        # 0x2e830
   15df5:	74 11                	je     0x15e08
   15df7:	41 8b d6             	mov    %r14d,%edx
   15dfa:	49 8b cd             	mov    %r13,%rcx
   15dfd:	e8 f6 f8 ff ff       	callq  0x156f8
   15e02:	8b d8                	mov    %eax,%ebx
   15e04:	89 44 24 54          	mov    %eax,0x54(%rsp)
   15e08:	8b c3                	mov    %ebx,%eax
   15e0a:	48 81 c4 d0 00 00 00 	add    $0xd0,%rsp
   15e11:	41 5f                	pop    %r15
   15e13:	41 5e                	pop    %r14
   15e15:	41 5d                	pop    %r13
   15e17:	41 5c                	pop    %r12
   15e19:	5f                   	pop    %rdi
   15e1a:	5e                   	pop    %rsi
   15e1b:	5b                   	pop    %rbx
   15e1c:	c3                   	retq   
   15e1d:	cc                   	int3   
   15e1e:	cc                   	int3   
   15e1f:	cc                   	int3   
   15e20:	cc                   	int3   
   15e21:	cc                   	int3   
   15e22:	cc                   	int3   
   15e23:	cc                   	int3   
   15e24:	cc                   	int3   
   15e25:	cc                   	int3   
   15e26:	cc                   	int3   
   15e27:	cc                   	int3   
   15e28:	40 55                	rex push %rbp
   15e2a:	48 83 ec 50          	sub    $0x50,%rsp
   15e2e:	48 8b ea             	mov    %rdx,%rbp
   15e31:	48 83 c4 50          	add    $0x50,%rsp
   15e35:	5d                   	pop    %rbp
   15e36:	c3                   	retq   
   15e37:	cc                   	int3   
   15e38:	cc                   	int3   
   15e39:	cc                   	int3   
   15e3a:	cc                   	int3   
   15e3b:	cc                   	int3   
   15e3c:	cc                   	int3   
   15e3d:	cc                   	int3   
   15e3e:	cc                   	int3   
   15e3f:	cc                   	int3   
   15e40:	4c 8b dc             	mov    %rsp,%r11
   15e43:	49 89 5b 18          	mov    %rbx,0x18(%r11)
   15e47:	49 89 53 10          	mov    %rdx,0x10(%r11)
   15e4b:	55                   	push   %rbp
   15e4c:	56                   	push   %rsi
   15e4d:	57                   	push   %rdi
   15e4e:	41 54                	push   %r12
   15e50:	41 55                	push   %r13
   15e52:	41 56                	push   %r14
   15e54:	41 57                	push   %r15
   15e56:	48 83 ec 50          	sub    $0x50,%rsp
   15e5a:	33 c0                	xor    %eax,%eax
   15e5c:	45 33 e4             	xor    %r12d,%r12d
   15e5f:	4d 8b f8             	mov    %r8,%r15
   15e62:	49 3b cc             	cmp    %r12,%rcx
   15e65:	66 45 89 63 b8       	mov    %r12w,-0x48(%r11)
   15e6a:	49 89 43 ba          	mov    %rax,-0x46(%r11)
   15e6e:	66 45 89 63 a8       	mov    %r12w,-0x58(%r11)
   15e73:	49 89 43 aa          	mov    %rax,-0x56(%r11)
   15e77:	89 44 24 4a          	mov    %eax,0x4a(%rsp)
   15e7b:	66 89 44 24 4e       	mov    %ax,0x4e(%rsp)
   15e80:	89 44 24 3a          	mov    %eax,0x3a(%rsp)
   15e84:	66 89 44 24 3e       	mov    %ax,0x3e(%rsp)
   15e89:	48 8b d9             	mov    %rcx,%rbx
   15e8c:	4d 89 63 08          	mov    %r12,0x8(%r11)
   15e90:	75 0a                	jne    0x15e9c
   15e92:	b8 0d 00 00 c0       	mov    $0xc000000d,%eax
   15e97:	e9 c9 00 00 00       	jmpq   0x15f65
   15e9c:	45 33 c9             	xor    %r9d,%r9d
   15e9f:	48 8d 94 24 90 00 00 	lea    0x90(%rsp),%rdx
   15ea6:	00 
   15ea7:	c7 44 24 20 01 00 00 	movl   $0x1,0x20(%rsp)
   15eae:	00 
   15eaf:	45 8d 41 01          	lea    0x1(%r9),%r8d
   15eb3:	41 8d 49 0b          	lea    0xb(%r9),%ecx
   15eb7:	e8 b8 d7 ff ff       	callq  0x13674
   15ebc:	41 3b c4             	cmp    %r12d,%eax
   15ebf:	8b f8                	mov    %eax,%edi
   15ec1:	0f 8c 9c 00 00 00    	jl     0x15f63
   15ec7:	48 8b b4 24 90 00 00 	mov    0x90(%rsp),%rsi
   15ece:	00 
   15ecf:	48 8d 4c 24 40       	lea    0x40(%rsp),%rcx
   15ed4:	48 8b d3             	mov    %rbx,%rdx
   15ed7:	4c 8b 36             	mov    (%rsi),%r14
   15eda:	48 8d 6e 08          	lea    0x8(%rsi),%rbp
   15ede:	ff 15 ec c2 00 00    	callq  *0xc2ec(%rip)        # 0x221d0
   15ee4:	4d 3b f4             	cmp    %r12,%r14
   15ee7:	49 8b dc             	mov    %r12,%rbx
   15eea:	76 6c                	jbe    0x15f58
   15eec:	4c 8d 6d 26          	lea    0x26(%rbp),%r13
   15ef0:	41 0f b7 45 00       	movzwl 0x0(%r13),%eax
   15ef5:	48 8d 4c 24 30       	lea    0x30(%rsp),%rcx
   15efa:	49 03 c4             	add    %r12,%rax
   15efd:	48 8d 54 28 28       	lea    0x28(%rax,%rbp,1),%rdx
   15f02:	ff 15 c8 c2 00 00    	callq  *0xc2c8(%rip)        # 0x221d0
   15f08:	48 8d 54 24 30       	lea    0x30(%rsp),%rdx
   15f0d:	48 8d 4c 24 40       	lea    0x40(%rsp),%rcx
   15f12:	41 b0 01             	mov    $0x1,%r8b
   15f15:	ff 15 bd c2 00 00    	callq  *0xc2bd(%rip)        # 0x221d8
   15f1b:	85 c0                	test   %eax,%eax
   15f1d:	74 16                	je     0x15f35
   15f1f:	b8 28 01 00 00       	mov    $0x128,%eax
   15f24:	48 83 c3 01          	add    $0x1,%rbx
   15f28:	4c 03 e0             	add    %rax,%r12
   15f2b:	4c 03 e8             	add    %rax,%r13
   15f2e:	49 3b de             	cmp    %r14,%rbx
   15f31:	72 bd                	jb     0x15ef0
   15f33:	eb 23                	jmp    0x15f58
   15f35:	48 69 db 28 01 00 00 	imul   $0x128,%rbx,%rbx
   15f3c:	48 03 dd             	add    %rbp,%rbx
   15f3f:	74 17                	je     0x15f58
   15f41:	48 8b 43 10          	mov    0x10(%rbx),%rax
   15f45:	48 8b 8c 24 98 00 00 	mov    0x98(%rsp),%rcx
   15f4c:	00 
   15f4d:	33 ff                	xor    %edi,%edi
   15f4f:	48 89 01             	mov    %rax,(%rcx)
   15f52:	8b 43 18             	mov    0x18(%rbx),%eax
   15f55:	49 89 07             	mov    %rax,(%r15)
   15f58:	33 d2                	xor    %edx,%edx
   15f5a:	48 8b ce             	mov    %rsi,%rcx
   15f5d:	ff 15 a5 c0 00 00    	callq  *0xc0a5(%rip)        # 0x22008
   15f63:	8b c7                	mov    %edi,%eax
   15f65:	48 8b 9c 24 a0 00 00 	mov    0xa0(%rsp),%rbx
   15f6c:	00 
   15f6d:	48 83 c4 50          	add    $0x50,%rsp
   15f71:	41 5f                	pop    %r15
   15f73:	41 5e                	pop    %r14
   15f75:	41 5d                	pop    %r13
   15f77:	41 5c                	pop    %r12
   15f79:	5f                   	pop    %rdi
   15f7a:	5e                   	pop    %rsi
   15f7b:	5d                   	pop    %rbp
   15f7c:	c3                   	retq   
   15f7d:	cc                   	int3   
   15f7e:	cc                   	int3   
   15f7f:	cc                   	int3   
   15f80:	cc                   	int3   
   15f81:	cc                   	int3   
   15f82:	cc                   	int3   
   15f83:	cc                   	int3   
   15f84:	48 89 5c 24 08       	mov    %rbx,0x8(%rsp)
   15f89:	57                   	push   %rdi
   15f8a:	48 83 ec 30          	sub    $0x30,%rsp
   15f8e:	48 8b 05 63 63 01 00 	mov    0x16363(%rip),%rax        # 0x2c2f8
   15f95:	48 8b f9             	mov    %rcx,%rdi
   15f98:	48 8d 4c 24 20       	lea    0x20(%rsp),%rcx
   15f9d:	48 89 01             	mov    %rax,(%rcx)
   15fa0:	8b 05 5a 63 01 00    	mov    0x1635a(%rip),%eax        # 0x2c300
   15fa6:	48 8b da             	mov    %rdx,%rbx
   15fa9:	89 41 08             	mov    %eax,0x8(%rcx)
   15fac:	8a 05 52 63 01 00    	mov    0x16352(%rip),%al        # 0x2c304
   15fb2:	48 8d 54 24 20       	lea    0x20(%rsp),%rdx
   15fb7:	88 41 0c             	mov    %al,0xc(%rcx)
   15fba:	b9 d8 b2 ec 00       	mov    $0xecb2d8,%ecx
   15fbf:	e8 3c 60 00 00       	callq  0x1c000
   15fc4:	48 8d 4c 24 20       	lea    0x20(%rsp),%rcx
   15fc9:	4c 8b c3             	mov    %rbx,%r8
   15fcc:	48 8b d7             	mov    %rdi,%rdx
   15fcf:	e8 6c fe ff ff       	callq  0x15e40
   15fd4:	48 8d 54 24 20       	lea    0x20(%rsp),%rdx
   15fd9:	b9 d8 b2 ec 00       	mov    $0xecb2d8,%ecx
   15fde:	8b d8                	mov    %eax,%ebx
   15fe0:	e8 1b 60 00 00       	callq  0x1c000
   15fe5:	8b c3                	mov    %ebx,%eax
   15fe7:	48 8b 5c 24 40       	mov    0x40(%rsp),%rbx
   15fec:	48 83 c4 30          	add    $0x30,%rsp
   15ff0:	5f                   	pop    %rdi
   15ff1:	c3                   	retq   
   15ff2:	cc                   	int3   
   15ff3:	cc                   	int3   
   15ff4:	cc                   	int3   
   15ff5:	cc                   	int3   
   15ff6:	cc                   	int3   
   15ff7:	cc                   	int3   
   15ff8:	48 89 5c 24 08       	mov    %rbx,0x8(%rsp)
   15ffd:	48 89 74 24 10       	mov    %rsi,0x10(%rsp)
   16002:	57                   	push   %rdi
   16003:	48 83 ec 30          	sub    $0x30,%rsp
   16007:	66 83 64 24 20 00    	andw   $0x0,0x20(%rsp)
   1600d:	33 c0                	xor    %eax,%eax
   1600f:	48 8b fa             	mov    %rdx,%rdi
   16012:	48 89 44 24 22       	mov    %rax,0x22(%rsp)
   16017:	89 44 24 2a          	mov    %eax,0x2a(%rsp)
   1601b:	66 89 44 24 2e       	mov    %ax,0x2e(%rsp)
   16020:	8b f1                	mov    %ecx,%esi
   16022:	e8 a5 5f 00 00       	callq  0x1bfcc
   16027:	48 8d 4c 24 20       	lea    0x20(%rsp),%rcx
   1602c:	48 8b d7             	mov    %rdi,%rdx
   1602f:	ff 15 e3 bf 00 00    	callq  *0xbfe3(%rip)        # 0x22018
   16035:	48 8d 4c 24 20       	lea    0x20(%rsp),%rcx
   1603a:	ff 15 70 c1 00 00    	callq  *0xc170(%rip)        # 0x221b0
   16040:	48 8b d7             	mov    %rdi,%rdx
   16043:	8b ce                	mov    %esi,%ecx
   16045:	48 8b d8             	mov    %rax,%rbx
   16048:	e8 7f 5f 00 00       	callq  0x1bfcc
   1604d:	48 8b 74 24 48       	mov    0x48(%rsp),%rsi
   16052:	48 8b c3             	mov    %rbx,%rax
   16055:	48 8b 5c 24 40       	mov    0x40(%rsp),%rbx
   1605a:	48 83 c4 30          	add    $0x30,%rsp
   1605e:	5f                   	pop    %rdi
   1605f:	c3                   	retq   
   16060:	cc                   	int3   
   16061:	cc                   	int3   
   16062:	cc                   	int3   
   16063:	cc                   	int3   
   16064:	cc                   	int3   
   16065:	cc                   	int3   
   16066:	cc                   	int3   
   16067:	cc                   	int3   
   16068:	48 8b c4             	mov    %rsp,%rax
   1606b:	48 89 58 08          	mov    %rbx,0x8(%rax)
   1606f:	57                   	push   %rdi
   16070:	48 81 ec 70 01 00 00 	sub    $0x170,%rsp
   16077:	f3 0f 6f 05 89 62 01 	movdqu 0x16289(%rip),%xmm0        # 0x2c308
   1607e:	00 
   1607f:	48 8b 19             	mov    (%rcx),%rbx
   16082:	33 ff                	xor    %edi,%edi
   16084:	48 8d 48 90          	lea    -0x70(%rax),%rcx
   16088:	48 8d 15 89 62 01 00 	lea    0x16289(%rip),%rdx        # 0x2c318
   1608f:	44 8d 47 2c          	lea    0x2c(%rdi),%r8d
   16093:	f3 0f 7f 44 24 20    	movdqu %xmm0,0x20(%rsp)
   16099:	e8 82 a4 00 00       	callq  0x20520
   1609e:	48 8d 8c 24 b0 00 00 	lea    0xb0(%rsp),%rcx
   160a5:	00 
   160a6:	48 8d 15 9b 62 01 00 	lea    0x1629b(%rip),%rdx        # 0x2c348
   160ad:	44 8d 47 28          	lea    0x28(%rdi),%r8d
   160b1:	e8 6a a4 00 00       	callq  0x20520
   160b6:	48 8d 8c 24 d8 00 00 	lea    0xd8(%rsp),%rcx
   160bd:	00 
   160be:	48 8d 15 ab 62 01 00 	lea    0x162ab(%rip),%rdx        # 0x2c370
   160c5:	44 8d 47 2a          	lea    0x2a(%rdi),%r8d
   160c9:	e8 52 a4 00 00       	callq  0x20520
   160ce:	48 8d 8c 24 38 01 00 	lea    0x138(%rsp),%rcx
   160d5:	00 
   160d6:	48 8d 15 c3 62 01 00 	lea    0x162c3(%rip),%rdx        # 0x2c3a0
   160dd:	44 8d 47 30          	lea    0x30(%rdi),%r8d
   160e1:	e8 3a a4 00 00       	callq  0x20520
   160e6:	48 8d 15 13 9f ff ff 	lea    -0x60ed(%rip),%rdx        # 0x10000
   160ed:	48 8d 4c 24 48       	lea    0x48(%rsp),%rcx
   160f2:	48 8b 82 d0 c3 01 00 	mov    0x1c3d0(%rdx),%rax
   160f9:	4c 8d 5c 24 30       	lea    0x30(%rsp),%r11
   160fe:	44 8d 47 22          	lea    0x22(%rdi),%r8d
   16102:	49 89 03             	mov    %rax,(%r11)
   16105:	48 8b 82 d8 c3 01 00 	mov    0x1c3d8(%rdx),%rax
   1610c:	49 89 43 08          	mov    %rax,0x8(%r11)
   16110:	8b 82 e0 c3 01 00    	mov    0x1c3e0(%rdx),%eax
   16116:	41 89 43 10          	mov    %eax,0x10(%r11)
   1611a:	48 8b 82 e8 c3 01 00 	mov    0x1c3e8(%rdx),%rax
   16121:	48 89 01             	mov    %rax,(%rcx)
   16124:	48 8b 82 f0 c3 01 00 	mov    0x1c3f0(%rdx),%rax
   1612b:	48 89 41 08          	mov    %rax,0x8(%rcx)
   1612f:	48 8b 82 f8 c3 01 00 	mov    0x1c3f8(%rdx),%rax
   16136:	48 89 41 10          	mov    %rax,0x10(%rcx)
   1613a:	0f b7 82 00 c4 01 00 	movzwl 0x1c400(%rdx),%eax
   16141:	66 89 41 18          	mov    %ax,0x18(%rcx)
   16145:	48 8b 82 08 c4 01 00 	mov    0x1c408(%rdx),%rax
   1614c:	48 8d 4c 24 68       	lea    0x68(%rsp),%rcx
   16151:	48 89 01             	mov    %rax,(%rcx)
   16154:	48 8b 82 10 c4 01 00 	mov    0x1c410(%rdx),%rax
   1615b:	48 89 41 08          	mov    %rax,0x8(%rcx)
   1615f:	48 8b 82 18 c4 01 00 	mov    0x1c418(%rdx),%rax
   16166:	48 89 41 10          	mov    %rax,0x10(%rcx)
   1616a:	0f b7 82 20 c4 01 00 	movzwl 0x1c420(%rdx),%eax
   16171:	48 8d 15 b0 62 01 00 	lea    0x162b0(%rip),%rdx        # 0x2c428
   16178:	66 89 41 18          	mov    %ax,0x18(%rcx)
   1617c:	48 8d 8c 24 88 00 00 	lea    0x88(%rsp),%rcx
   16183:	00 
   16184:	e8 97 a3 00 00       	callq  0x20520
   16189:	48 8d 54 24 20       	lea    0x20(%rsp),%rdx
   1618e:	b9 70 2f 51 00       	mov    $0x512f70,%ecx
   16193:	e8 60 fe ff ff       	callq  0x15ff8
   16198:	48 8d 94 24 08 01 00 	lea    0x108(%rsp),%rdx
   1619f:	00 
   161a0:	b9 20 a9 53 01       	mov    $0x153a920,%ecx
   161a5:	48 89 03             	mov    %rax,(%rbx)
   161a8:	e8 4b fe ff ff       	callq  0x15ff8
   161ad:	48 8d 94 24 b0 00 00 	lea    0xb0(%rsp),%rdx
   161b4:	00 
   161b5:	b9 48 b2 f5 00       	mov    $0xf5b248,%ecx
   161ba:	48 89 43 08          	mov    %rax,0x8(%rbx)
   161be:	e8 35 fe ff ff       	callq  0x15ff8
   161c3:	48 8d 94 24 d8 00 00 	lea    0xd8(%rsp),%rdx
   161ca:	00 
   161cb:	b9 60 8a c9 00       	mov    $0xc98a60,%ecx
   161d0:	48 89 43 10          	mov    %rax,0x10(%rbx)
   161d4:	e8 1f fe ff ff       	callq  0x15ff8
   161d9:	48 8d 94 24 38 01 00 	lea    0x138(%rsp),%rdx
   161e0:	00 
   161e1:	b9 30 1e 93 00       	mov    $0x931e30,%ecx
   161e6:	48 89 43 18          	mov    %rax,0x18(%rbx)
   161ea:	e8 09 fe ff ff       	callq  0x15ff8
   161ef:	48 8d 54 24 30       	lea    0x30(%rsp),%rdx
   161f4:	b9 f0 4a 78 01       	mov    $0x1784af0,%ecx
   161f9:	48 89 43 20          	mov    %rax,0x20(%rbx)
   161fd:	e8 f6 fd ff ff       	callq  0x15ff8
   16202:	48 8d 54 24 48       	lea    0x48(%rsp),%rdx
   16207:	b9 10 95 59 01       	mov    $0x1599510,%ecx
   1620c:	48 89 43 28          	mov    %rax,0x28(%rbx)
   16210:	e8 e3 fd ff ff       	callq  0x15ff8
   16215:	48 8d 54 24 68       	lea    0x68(%rsp),%rdx
   1621a:	b9 80 90 39 01       	mov    $0x1399080,%ecx
   1621f:	48 89 43 30          	mov    %rax,0x30(%rbx)
   16223:	e8 d0 fd ff ff       	callq  0x15ff8
   16228:	48 8d 94 24 88 00 00 	lea    0x88(%rsp),%rdx
   1622f:	00 
   16230:	b9 88 1f 49 00       	mov    $0x491f88,%ecx
   16235:	48 89 43 38          	mov    %rax,0x38(%rbx)
   16239:	e8 ba fd ff ff       	callq  0x15ff8
   1623e:	48 89 43 40          	mov    %rax,0x40(%rbx)
   16242:	8d 47 09             	lea    0x9(%rdi),%eax
   16245:	48 83 3b 00          	cmpq   $0x0,(%rbx)
   16249:	b9 01 00 00 c0       	mov    $0xc0000001,%ecx
   1624e:	0f 44 f9             	cmove  %ecx,%edi
   16251:	48 83 c3 08          	add    $0x8,%rbx
   16255:	48 83 e8 01          	sub    $0x1,%rax
   16259:	75 ea                	jne    0x16245
   1625b:	8b c7                	mov    %edi,%eax
   1625d:	48 8b 9c 24 80 01 00 	mov    0x180(%rsp),%rbx
   16264:	00 
   16265:	48 81 c4 70 01 00 00 	add    $0x170,%rsp
   1626c:	5f                   	pop    %rdi
   1626d:	c3                   	retq   
   1626e:	cc                   	int3   
   1626f:	cc                   	int3   
   16270:	cc                   	int3   
   16271:	cc                   	int3   
   16272:	cc                   	int3   
   16273:	cc                   	int3   
   16274:	48 89 5c 24 08       	mov    %rbx,0x8(%rsp)
   16279:	48 89 6c 24 10       	mov    %rbp,0x10(%rsp)
   1627e:	48 89 74 24 18       	mov    %rsi,0x18(%rsp)
   16283:	57                   	push   %rdi
   16284:	41 54                	push   %r12
   16286:	41 55                	push   %r13
   16288:	48 83 ec 30          	sub    $0x30,%rsp
   1628c:	45 33 d2             	xor    %r10d,%r10d
   1628f:	4d 8b e8             	mov    %r8,%r13
   16292:	4c 8b c9             	mov    %rcx,%r9
   16295:	bd 01 00 00 c0       	mov    $0xc0000001,%ebp
   1629a:	48 8d 0c 24          	lea    (%rsp),%rcx
   1629e:	45 8d 5a 01          	lea    0x1(%r10),%r11d
   162a2:	45 8d 42 09          	lea    0x9(%r10),%r8d
   162a6:	8b 02                	mov    (%rdx),%eax
   162a8:	48 83 c2 08          	add    $0x8,%rdx
   162ac:	41 2b c1             	sub    %r9d,%eax
   162af:	89 01                	mov    %eax,(%rcx)
   162b1:	48 83 c1 04          	add    $0x4,%rcx
   162b5:	4d 2b c3             	sub    %r11,%r8
   162b8:	75 ec                	jne    0x162a6
   162ba:	4c 8d 04 24          	lea    (%rsp),%r8
   162be:	be 09 00 00 00       	mov    $0x9,%esi
   162c3:	45 8b 20             	mov    (%r8),%r12d
   162c6:	33 db                	xor    %ebx,%ebx
   162c8:	49 8b f9             	mov    %r9,%rdi
   162cb:	8b 07                	mov    (%rdi),%eax
   162cd:	33 d2                	xor    %edx,%edx
   162cf:	41 f7 f3             	div    %r11d
   162d2:	8b c8                	mov    %eax,%ecx
   162d4:	48 83 e1 f0          	and    $0xfffffffffffffff0,%rcx
   162d8:	4c 3b e1             	cmp    %rcx,%r12
   162db:	74 11                	je     0x162ee
   162dd:	83 c3 01             	add    $0x1,%ebx
   162e0:	48 83 c7 04          	add    $0x4,%rdi
   162e4:	81 fb 00 02 00 00    	cmp    $0x200,%ebx
   162ea:	72 df                	jb     0x162cb
   162ec:	eb 04                	jmp    0x162f2
   162ee:	41 83 c2 01          	add    $0x1,%r10d
   162f2:	49 83 c0 04          	add    $0x4,%r8
   162f6:	48 83 ee 01          	sub    $0x1,%rsi
   162fa:	75 c7                	jne    0x162c3
   162fc:	41 83 fa 03          	cmp    $0x3,%r10d
   16300:	77 0f                	ja     0x16311
   16302:	41 83 fb 01          	cmp    $0x1,%r11d
   16306:	75 1c                	jne    0x16324
   16308:	44 8d 5e 10          	lea    0x10(%rsi),%r11d
   1630c:	45 33 d2             	xor    %r10d,%r10d
   1630f:	eb a9                	jmp    0x162ba
   16311:	41 83 39 00          	cmpl   $0x0,(%r9)
   16315:	74 0d                	je     0x16324
   16317:	41 83 79 04 00       	cmpl   $0x0,0x4(%r9)
   1631c:	74 06                	je     0x16324
   1631e:	33 ed                	xor    %ebp,%ebp
   16320:	45 89 5d 00          	mov    %r11d,0x0(%r13)
   16324:	48 8b 5c 24 50       	mov    0x50(%rsp),%rbx
   16329:	48 8b 74 24 60       	mov    0x60(%rsp),%rsi
   1632e:	8b c5                	mov    %ebp,%eax
   16330:	48 8b 6c 24 58       	mov    0x58(%rsp),%rbp
   16335:	48 83 c4 30          	add    $0x30,%rsp
   16339:	41 5d                	pop    %r13
   1633b:	41 5c                	pop    %r12
   1633d:	5f                   	pop    %rdi
   1633e:	c3                   	retq   
   1633f:	cc                   	int3   
   16340:	cc                   	int3   
   16341:	cc                   	int3   
   16342:	cc                   	int3   
   16343:	cc                   	int3   
   16344:	cc                   	int3   
   16345:	cc                   	int3   
   16346:	cc                   	int3   
   16347:	cc                   	int3   
   16348:	4c 8b dc             	mov    %rsp,%r11
   1634b:	53                   	push   %rbx
   1634c:	55                   	push   %rbp
   1634d:	56                   	push   %rsi
   1634e:	57                   	push   %rdi
   1634f:	48 83 ec 78          	sub    $0x78,%rsp
   16353:	66 83 64 24 20 00    	andw   $0x0,0x20(%rsp)
   16359:	49 83 63 18 00       	andq   $0x0,0x18(%r11)
   1635e:	49 83 63 20 00       	andq   $0x0,0x20(%r11)
   16363:	33 c0                	xor    %eax,%eax
   16365:	bf 01 00 00 c0       	mov    $0xc0000001,%edi
   1636a:	66 c7 44 24 30 07 ac 	movw   $0xac07,0x30(%rsp)
   16371:	41 21 43 08          	and    %eax,0x8(%r11)
   16375:	66 21 44 24 60       	and    %ax,0x60(%rsp)
   1637a:	48 39 05 e7 84 01 00 	cmp    %rax,0x184e7(%rip)        # 0x2e868
   16381:	49 89 43 8a          	mov    %rax,-0x76(%r11)
   16385:	66 c7 44 24 32 a0 8d 	movw   $0x8da0,0x32(%rsp)
   1638c:	66 c7 44 24 34 6c da 	movw   $0xda6c,0x34(%rsp)
   16393:	89 44 24 2a          	mov    %eax,0x2a(%rsp)
   16397:	66 89 44 24 2e       	mov    %ax,0x2e(%rsp)
   1639c:	66 c7 44 24 36 9e af 	movw   $0xaf9e,0x36(%rsp)
   163a3:	66 c7 44 24 38 10 db 	movw   $0xdb10,0x38(%rsp)
   163aa:	66 c7 44 24 3a 41 e6 	movw   $0xe641,0x3a(%rsp)
   163b1:	66 c7 44 24 3c 2e a7 	movw   $0xa72e,0x3c(%rsp)
   163b8:	66 c7 44 24 3e 02 bb 	movw   $0xbb02,0x3e(%rsp)
   163bf:	66 c7 44 24 40 8a f2 	movw   $0xf28a,0x40(%rsp)
   163c6:	66 c7 44 24 42 2c e0 	movw   $0xe02c,0x42(%rsp)
   163cd:	66 c7 44 24 44 09 d4 	movw   $0xd409,0x44(%rsp)
   163d4:	66 c7 44 24 46 df 97 	movw   $0x97df,0x46(%rsp)
   163db:	66 c7 44 24 48 6e a0 	movw   $0xa06e,0x48(%rsp)
   163e2:	66 c7 44 24 4a ff c1 	movw   $0xc1ff,0x4a(%rsp)
   163e9:	66 c7 44 24 4c 34 b2 	movw   $0xb234,0x4c(%rsp)
   163f0:	66 c7 44 24 4e 1a 96 	movw   $0x961a,0x4e(%rsp)
   163f7:	66 c7 44 24 50 c0 f6 	movw   $0xf6c0,0x50(%rsp)
   163fe:	66 c7 44 24 52 e3 89 	movw   $0x89e3,0x52(%rsp)
   16405:	66 c7 44 24 54 40 a0 	movw   $0xa040,0x54(%rsp)
   1640c:	66 c7 44 24 56 8f c1 	movw   $0xc18f,0x56(%rsp)
   16413:	66 c7 44 24 58 3b cb 	movw   $0xcb3b,0x58(%rsp)
   1641a:	66 c7 44 24 5a 2e d8 	movw   $0xd82e,0x5a(%rsp)
   16421:	66 c7 44 24 5c c7 a8 	movw   $0xa8c7,0x5c(%rsp)
   16428:	66 c7 44 24 5e 01 f1 	movw   $0xf101,0x5e(%rsp)
   1642f:	0f 85 1e 01 00 00    	jne    0x16553
   16435:	bb c8 be 68 01       	mov    $0x168bec8,%ebx
   1643a:	49 8d 53 98          	lea    -0x68(%r11),%rdx
   1643e:	8b cb                	mov    %ebx,%ecx
   16440:	e8 87 5b 00 00       	callq  0x1bfcc
   16445:	48 8d 54 24 30       	lea    0x30(%rsp),%rdx
   1644a:	48 8d 4c 24 20       	lea    0x20(%rsp),%rcx
   1644f:	ff 15 c3 bb 00 00    	callq  *0xbbc3(%rip)        # 0x22018
   16455:	48 8d 54 24 30       	lea    0x30(%rsp),%rdx
   1645a:	8b cb                	mov    %ebx,%ecx
   1645c:	e8 6b 5b 00 00       	callq  0x1bfcc
   16461:	48 8d 4c 24 20       	lea    0x20(%rsp),%rcx
   16466:	ff 15 44 bd 00 00    	callq  *0xbd44(%rip)        # 0x221b0
   1646c:	ba 48 00 00 00       	mov    $0x48,%edx
   16471:	33 c9                	xor    %ecx,%ecx
   16473:	ff 15 4f bc 00 00    	callq  *0xbc4f(%rip)        # 0x220c8
   16479:	48 8b c8             	mov    %rax,%rcx
   1647c:	48 8b f0             	mov    %rax,%rsi
   1647f:	48 89 84 24 a8 00 00 	mov    %rax,0xa8(%rsp)
   16486:	00 
   16487:	ff 15 93 bc 00 00    	callq  *0xbc93(%rip)        # 0x22120
   1648d:	84 c0                	test   %al,%al
   1648f:	0f 84 bc 00 00 00    	je     0x16551
   16495:	48 8d 94 24 b8 00 00 	lea    0xb8(%rsp),%rdx
   1649c:	00 
   1649d:	48 8d 8c 24 b0 00 00 	lea    0xb0(%rsp),%rcx
   164a4:	00 
   164a5:	e8 da fa ff ff       	callq  0x15f84
   164aa:	85 c0                	test   %eax,%eax
   164ac:	8b f8                	mov    %eax,%edi
   164ae:	0f 88 92 00 00 00    	js     0x16546
   164b4:	48 8d 8c 24 a8 00 00 	lea    0xa8(%rsp),%rcx
   164bb:	00 
   164bc:	e8 a7 fb ff ff       	callq  0x16068
   164c1:	85 c0                	test   %eax,%eax
   164c3:	8b f8                	mov    %eax,%edi
   164c5:	78 77                	js     0x1653e
   164c7:	48 8b 9c 24 b0 00 00 	mov    0xb0(%rsp),%rbx
   164ce:	00 
   164cf:	48 8b ac 24 b8 00 00 	mov    0xb8(%rsp),%rbp
   164d6:	00 
   164d7:	bf 01 00 00 c0       	mov    $0xc0000001,%edi
   164dc:	48 03 eb             	add    %rbx,%rbp
   164df:	48 3b dd             	cmp    %rbp,%rbx
   164e2:	73 5a                	jae    0x1653e
   164e4:	48 8b b4 24 a8 00 00 	mov    0xa8(%rsp),%rsi
   164eb:	00 
   164ec:	48 8b cb             	mov    %rbx,%rcx
   164ef:	ff 15 2b bc 00 00    	callq  *0xbc2b(%rip)        # 0x22120
   164f5:	84 c0                	test   %al,%al
   164f7:	74 17                	je     0x16510
   164f9:	4c 8d 84 24 a0 00 00 	lea    0xa0(%rsp),%r8
   16500:	00 
   16501:	48 8b d6             	mov    %rsi,%rdx
   16504:	48 8b cb             	mov    %rbx,%rcx
   16507:	e8 68 fd ff ff       	callq  0x16274
   1650c:	85 c0                	test   %eax,%eax
   1650e:	79 0b                	jns    0x1651b
   16510:	48 83 c3 08          	add    $0x8,%rbx
   16514:	48 3b dd             	cmp    %rbp,%rbx
   16517:	73 2d                	jae    0x16546
   16519:	eb d1                	jmp    0x164ec
   1651b:	8b 84 24 a0 00 00 00 	mov    0xa0(%rsp),%eax
   16522:	48 89 1d 3f 83 01 00 	mov    %rbx,0x1833f(%rip)        # 0x2e868
   16529:	48 c7 05 44 83 01 00 	movq   $0x200,0x18344(%rip)        # 0x2e878
   16530:	00 02 00 00 
   16534:	89 05 ce 7e 01 00    	mov    %eax,0x17ece(%rip)        # 0x2e408
   1653a:	33 ff                	xor    %edi,%edi
   1653c:	eb 08                	jmp    0x16546
   1653e:	48 8b b4 24 a8 00 00 	mov    0xa8(%rsp),%rsi
   16545:	00 
   16546:	33 d2                	xor    %edx,%edx
   16548:	48 8b ce             	mov    %rsi,%rcx
   1654b:	ff 15 b7 ba 00 00    	callq  *0xbab7(%rip)        # 0x22008
   16551:	8b c7                	mov    %edi,%eax
   16553:	48 83 c4 78          	add    $0x78,%rsp
   16557:	5f                   	pop    %rdi
   16558:	5e                   	pop    %rsi
   16559:	5d                   	pop    %rbp
   1655a:	5b                   	pop    %rbx
   1655b:	c3                   	retq   
   1655c:	cc                   	int3   
   1655d:	cc                   	int3   
   1655e:	cc                   	int3   
   1655f:	cc                   	int3   
   16560:	cc                   	int3   
   16561:	cc                   	int3   
   16562:	cc                   	int3   
   16563:	cc                   	int3   
   16564:	4c 8b dc             	mov    %rsp,%r11
   16567:	49 89 5b 10          	mov    %rbx,0x10(%r11)
   1656b:	49 89 4b 08          	mov    %rcx,0x8(%r11)
   1656f:	55                   	push   %rbp
   16570:	56                   	push   %rsi
   16571:	57                   	push   %rdi
   16572:	48 83 ec 70          	sub    $0x70,%rsp
   16576:	48 8d 15 83 9a ff ff 	lea    -0x657d(%rip),%rdx        # 0x10000
   1657d:	49 8d 4b b8          	lea    -0x48(%r11),%rcx
   16581:	33 ed                	xor    %ebp,%ebp
   16583:	48 8b 82 50 c4 01 00 	mov    0x1c450(%rdx),%rax
   1658a:	49 89 6b 20          	mov    %rbp,0x20(%r11)
   1658e:	49 89 6b 08          	mov    %rbp,0x8(%r11)
   16592:	48 89 01             	mov    %rax,(%rcx)
   16595:	0f b7 82 58 c4 01 00 	movzwl 0x1c458(%rdx),%eax
   1659c:	49 89 6b 18          	mov    %rbp,0x18(%r11)
   165a0:	66 89 41 08          	mov    %ax,0x8(%rcx)
   165a4:	8a 82 5a c4 01 00    	mov    0x1c45a(%rdx),%al
   165aa:	48 89 2d ff 83 01 00 	mov    %rbp,0x183ff(%rip)        # 0x2e9b0
   165b1:	88 41 0a             	mov    %al,0xa(%rcx)
   165b4:	48 8b 82 60 c4 01 00 	mov    0x1c460(%rdx),%rax
   165bb:	49 8d 4b c8          	lea    -0x38(%r11),%rcx
   165bf:	48 89 01             	mov    %rax,(%rcx)
   165c2:	48 8b 82 68 c4 01 00 	mov    0x1c468(%rdx),%rax
   165c9:	48 89 41 08          	mov    %rax,0x8(%rcx)
   165cd:	8a 82 70 c4 01 00    	mov    0x1c470(%rdx),%al
   165d3:	88 41 10             	mov    %al,0x10(%rcx)
   165d6:	44 0f 20 c0          	mov    %cr8,%rax
   165da:	40 3a c5             	cmp    %bpl,%al
   165dd:	74 0a                	je     0x165e9
   165df:	b8 0d 00 00 c0       	mov    $0xc000000d,%eax
   165e4:	e9 ab 01 00 00       	jmpq   0x16794
   165e9:	48 39 2d 68 82 01 00 	cmp    %rbp,0x18268(%rip)        # 0x2e858
   165f0:	74 13                	je     0x16605
   165f2:	48 8b 05 67 82 01 00 	mov    0x18267(%rip),%rax        # 0x2e860
   165f9:	48 3b c5             	cmp    %rbp,%rax
   165fc:	74 07                	je     0x16605
   165fe:	8b fd                	mov    %ebp,%edi
   16600:	e9 86 01 00 00       	jmpq   0x1678b
   16605:	e8 3e fd ff ff       	callq  0x16348
   1660a:	3b c5                	cmp    %ebp,%eax
   1660c:	0f 8c 82 01 00 00    	jl     0x16794
   16612:	48 8d 94 24 a0 00 00 	lea    0xa0(%rsp),%rdx
   16619:	00 
   1661a:	48 8d 8c 24 90 00 00 	lea    0x90(%rsp),%rcx
   16621:	00 
   16622:	e8 5d f9 ff ff       	callq  0x15f84
   16627:	3b c5                	cmp    %ebp,%eax
   16629:	0f 8c 65 01 00 00    	jl     0x16794
   1662f:	bf 98 ad d7 00       	mov    $0xd7ad98,%edi
   16634:	48 8d 54 24 40       	lea    0x40(%rsp),%rdx
   16639:	8b cf                	mov    %edi,%ecx
   1663b:	e8 c0 59 00 00       	callq  0x1c000
   16640:	4c 8d 84 24 a8 00 00 	lea    0xa8(%rsp),%r8
   16647:	00 
   16648:	48 8d 54 24 30       	lea    0x30(%rsp),%rdx
   1664d:	48 8d 4c 24 40       	lea    0x40(%rsp),%rcx
   16652:	e8 e9 f7 ff ff       	callq  0x15e40
   16657:	48 8d 54 24 40       	lea    0x40(%rsp),%rdx
   1665c:	8b cf                	mov    %edi,%ecx
   1665e:	8b d8                	mov    %eax,%ebx
   16660:	e8 9b 59 00 00       	callq  0x1c000
   16665:	3b dd                	cmp    %ebp,%ebx
   16667:	7d 07                	jge    0x16670
   16669:	8b c3                	mov    %ebx,%eax
   1666b:	e9 24 01 00 00       	jmpq   0x16794
   16670:	bb c8 66 2a 01       	mov    $0x12a66c8,%ebx
   16675:	48 8d 54 24 50       	lea    0x50(%rsp),%rdx
   1667a:	8b cb                	mov    %ebx,%ecx
   1667c:	e8 7f 59 00 00       	callq  0x1c000
   16681:	48 8b 4c 24 30       	mov    0x30(%rsp),%rcx
   16686:	48 8d 44 24 38       	lea    0x38(%rsp),%rax
   1668b:	4c 8d 05 e6 5d 01 00 	lea    0x15de6(%rip),%r8        # 0x2c478
   16692:	45 33 c9             	xor    %r9d,%r9d
   16695:	b2 01                	mov    $0x1,%dl
   16697:	89 6c 24 28          	mov    %ebp,0x28(%rsp)
   1669b:	48 89 44 24 20       	mov    %rax,0x20(%rsp)
   166a0:	e8 bb 65 00 00       	callq  0x1cc60
   166a5:	48 8d 54 24 50       	lea    0x50(%rsp),%rdx
   166aa:	8b cb                	mov    %ebx,%ecx
   166ac:	8b f8                	mov    %eax,%edi
   166ae:	e8 4d 59 00 00       	callq  0x1c000
   166b3:	3b fd                	cmp    %ebp,%edi
   166b5:	0f 8c d7 00 00 00    	jl     0x16792
   166bb:	48 8b 9c 24 90 00 00 	mov    0x90(%rsp),%rbx
   166c2:	00 
   166c3:	48 8b 84 24 a0 00 00 	mov    0xa0(%rsp),%rax
   166ca:	00 
   166cb:	48 8d 74 18 c0       	lea    -0x40(%rax,%rbx,1),%rsi
   166d0:	48 3b de             	cmp    %rsi,%rbx
   166d3:	73 72                	jae    0x16747
   166d5:	48 8b cb             	mov    %rbx,%rcx
   166d8:	ff 15 42 ba 00 00    	callq  *0xba42(%rip)        # 0x22120
   166de:	40 3a c5             	cmp    %bpl,%al
   166e1:	74 4b                	je     0x1672e
   166e3:	48 8b 05 7e 81 01 00 	mov    0x1817e(%rip),%rax        # 0x2e868
   166ea:	48 39 03             	cmp    %rax,(%rbx)
   166ed:	75 3f                	jne    0x1672e
   166ef:	48 8b 4b 20          	mov    0x20(%rbx),%rcx
   166f3:	48 8b 05 66 81 01 00 	mov    0x18166(%rip),%rax        # 0x2e860
   166fa:	48 3b cd             	cmp    %rbp,%rcx
   166fd:	75 0c                	jne    0x1670b
   166ff:	48 8b cb             	mov    %rbx,%rcx
   16702:	48 89 1d 4f 81 01 00 	mov    %rbx,0x1814f(%rip)        # 0x2e858
   16709:	eb 17                	jmp    0x16722
   1670b:	48 3b 4c 24 38       	cmp    0x38(%rsp),%rcx
   16710:	48 8b 0d 41 81 01 00 	mov    0x18141(%rip),%rcx        # 0x2e858
   16717:	48 0f 44 c3          	cmove  %rbx,%rax
   1671b:	48 89 05 3e 81 01 00 	mov    %rax,0x1813e(%rip)        # 0x2e860
   16722:	48 3b cd             	cmp    %rbp,%rcx
   16725:	74 15                	je     0x1673c
   16727:	48 3b c5             	cmp    %rbp,%rax
   1672a:	75 29                	jne    0x16755
   1672c:	eb 0e                	jmp    0x1673c
   1672e:	48 8b 0d 23 81 01 00 	mov    0x18123(%rip),%rcx        # 0x2e858
   16735:	48 8b 05 24 81 01 00 	mov    0x18124(%rip),%rax        # 0x2e860
   1673c:	48 83 c3 08          	add    $0x8,%rbx
   16740:	48 3b de             	cmp    %rsi,%rbx
   16743:	72 90                	jb     0x166d5
   16745:	eb 0e                	jmp    0x16755
   16747:	48 8b 0d 0a 81 01 00 	mov    0x1810a(%rip),%rcx        # 0x2e858
   1674e:	48 8b 05 0b 81 01 00 	mov    0x1810b(%rip),%rax        # 0x2e860
   16755:	48 3b cd             	cmp    %rbp,%rcx
   16758:	74 26                	je     0x16780
   1675a:	48 3b c5             	cmp    %rbp,%rax
   1675d:	74 21                	je     0x16780
   1675f:	41 b8 20 00 00 00    	mov    $0x20,%r8d
   16765:	48 8b d0             	mov    %rax,%rdx
   16768:	ff 15 72 ba 00 00    	callq  *0xba72(%rip)        # 0x221e0
   1676e:	8b cd                	mov    %ebp,%ecx
   16770:	48 83 f8 20          	cmp    $0x20,%rax
   16774:	48 8b 05 e5 80 01 00 	mov    0x180e5(%rip),%rax        # 0x2e860
   1677b:	0f 94 c1             	sete   %cl
   1677e:	eb 02                	jmp    0x16782
   16780:	8b cd                	mov    %ebp,%ecx
   16782:	3b cd                	cmp    %ebp,%ecx
   16784:	0f 45 fd             	cmovne %ebp,%edi
   16787:	3b fd                	cmp    %ebp,%edi
   16789:	7c 07                	jl     0x16792
   1678b:	48 89 05 1e 82 01 00 	mov    %rax,0x1821e(%rip)        # 0x2e9b0
   16792:	8b c7                	mov    %edi,%eax
   16794:	48 8b 9c 24 98 00 00 	mov    0x98(%rsp),%rbx
   1679b:	00 
   1679c:	48 83 c4 70          	add    $0x70,%rsp
   167a0:	5f                   	pop    %rdi
   167a1:	5e                   	pop    %rsi
   167a2:	5d                   	pop    %rbp
   167a3:	c3                   	retq   
   167a4:	cc                   	int3   
   167a5:	cc                   	int3   
   167a6:	cc                   	int3   
   167a7:	cc                   	int3   
   167a8:	cc                   	int3   
   167a9:	cc                   	int3   
   167aa:	cc                   	int3   
   167ab:	cc                   	int3   
   167ac:	48 89 5c 24 08       	mov    %rbx,0x8(%rsp)
   167b1:	48 89 6c 24 10       	mov    %rbp,0x10(%rsp)
   167b6:	48 89 74 24 18       	mov    %rsi,0x18(%rsp)
   167bb:	57                   	push   %rdi
   167bc:	48 83 ec 20          	sub    $0x20,%rsp
   167c0:	33 db                	xor    %ebx,%ebx
   167c2:	48 8b f2             	mov    %rdx,%rsi
   167c5:	48 8b e9             	mov    %rcx,%rbp
   167c8:	48 8b fb             	mov    %rbx,%rdi
   167cb:	44 0f 20 c0          	mov    %cr8,%rax
   167cf:	48 3b d3             	cmp    %rbx,%rdx
   167d2:	74 33                	je     0x16807
   167d4:	3c 02                	cmp    $0x2,%al
   167d6:	72 07                	jb     0x167df
   167d8:	75 2d                	jne    0x16807
   167da:	44 3b c3             	cmp    %ebx,%r8d
   167dd:	75 28                	jne    0x16807
   167df:	41 8b c8             	mov    %r8d,%ecx
   167e2:	ff 15 e0 b8 00 00    	callq  *0xb8e0(%rip)        # 0x220c8
   167e8:	48 3b c3             	cmp    %rbx,%rax
   167eb:	48 8b f8             	mov    %rax,%rdi
   167ee:	74 17                	je     0x16807
   167f0:	44 0f 20 c0          	mov    %cr8,%rax
   167f4:	3c 02                	cmp    $0x2,%al
   167f6:	73 0d                	jae    0x16805
   167f8:	4c 8b c6             	mov    %rsi,%r8
   167fb:	33 d2                	xor    %edx,%edx
   167fd:	48 8b cf             	mov    %rdi,%rcx
   16800:	e8 8b a0 00 00       	callq  0x20890
   16805:	b3 01                	mov    $0x1,%bl
   16807:	48 8b 74 24 40       	mov    0x40(%rsp),%rsi
   1680c:	48 89 7d 00          	mov    %rdi,0x0(%rbp)
   16810:	48 8b 6c 24 38       	mov    0x38(%rsp),%rbp
   16815:	8a c3                	mov    %bl,%al
   16817:	48 8b 5c 24 30       	mov    0x30(%rsp),%rbx
   1681c:	48 83 c4 20          	add    $0x20,%rsp
   16820:	5f                   	pop    %rdi
   16821:	c3                   	retq   
   16822:	cc                   	int3   
   16823:	cc                   	int3   
   16824:	cc                   	int3   
   16825:	cc                   	int3   
   16826:	cc                   	int3   
   16827:	cc                   	int3   
   16828:	48 89 5c 24 08       	mov    %rbx,0x8(%rsp)
   1682d:	57                   	push   %rdi
   1682e:	48 83 ec 20          	sub    $0x20,%rsp
   16832:	48 8b f9             	mov    %rcx,%rdi
   16835:	33 db                	xor    %ebx,%ebx
   16837:	44 0f 20 c0          	mov    %cr8,%rax
   1683b:	3c 02                	cmp    $0x2,%al
   1683d:	77 1a                	ja     0x16859
   1683f:	48 3b cb             	cmp    %rbx,%rcx
   16842:	74 15                	je     0x16859
   16844:	48 39 19             	cmp    %rbx,(%rcx)
   16847:	74 10                	je     0x16859
   16849:	48 8b 09             	mov    (%rcx),%rcx
   1684c:	33 d2                	xor    %edx,%edx
   1684e:	ff 15 b4 b7 00 00    	callq  *0xb7b4(%rip)        # 0x22008
   16854:	48 89 1f             	mov    %rbx,(%rdi)
   16857:	b3 01                	mov    $0x1,%bl
   16859:	8a c3                	mov    %bl,%al
   1685b:	48 8b 5c 24 30       	mov    0x30(%rsp),%rbx
   16860:	48 83 c4 20          	add    $0x20,%rsp
   16864:	5f                   	pop    %rdi
   16865:	c3                   	retq   
   16866:	cc                   	int3   
   16867:	cc                   	int3   
   16868:	cc                   	int3   
   16869:	cc                   	int3   
   1686a:	cc                   	int3   
   1686b:	cc                   	int3   
   1686c:	48 85 c9             	test   %rcx,%rcx
   1686f:	74 2e                	je     0x1689f
   16871:	53                   	push   %rbx
   16872:	48 83 ec 20          	sub    $0x20,%rsp
   16876:	48 8b d9             	mov    %rcx,%rbx
   16879:	48 8b 09             	mov    (%rcx),%rcx
   1687c:	48 85 c9             	test   %rcx,%rcx
   1687f:	74 19                	je     0x1689a
   16881:	4c 8b c2             	mov    %rdx,%r8
   16884:	33 d2                	xor    %edx,%edx
   16886:	e8 05 a0 00 00       	callq  0x20890
   1688b:	48 8b 0b             	mov    (%rbx),%rcx
   1688e:	33 d2                	xor    %edx,%edx
   16890:	ff 15 72 b7 00 00    	callq  *0xb772(%rip)        # 0x22008
   16896:	48 83 23 00          	andq   $0x0,(%rbx)
   1689a:	48 83 c4 20          	add    $0x20,%rsp
   1689e:	5b                   	pop    %rbx
   1689f:	c3                   	retq   
   168a0:	cc                   	int3   
   168a1:	cc                   	int3   
   168a2:	cc                   	int3   
   168a3:	cc                   	int3   
   168a4:	cc                   	int3   
   168a5:	cc                   	int3   
   168a6:	cc                   	int3   
   168a7:	cc                   	int3   
   168a8:	48 89 5c 24 08       	mov    %rbx,0x8(%rsp)
   168ad:	57                   	push   %rdi
   168ae:	48 83 ec 30          	sub    $0x30,%rsp
   168b2:	4c 8b c9             	mov    %rcx,%r9
   168b5:	0f 20 c3             	mov    %cr0,%rbx
   168b8:	48 8b c3             	mov    %rbx,%rax
   168bb:	48 0f ba f0 10       	btr    $0x10,%rax
   168c0:	0f 22 c0             	mov    %rax,%cr0
   168c3:	83 79 08 10          	cmpl   $0x10,0x8(%rcx)
   168c7:	77 3a                	ja     0x16903
   168c9:	48 8b 39             	mov    (%rcx),%rdi
   168cc:	40 f6 c7 0f          	test   $0xf,%dil
   168d0:	75 31                	jne    0x16903
   168d2:	f3 0f 6f 07          	movdqu (%rdi),%xmm0
   168d6:	44 8b 41 08          	mov    0x8(%rcx),%r8d
   168da:	48 8d 51 0c          	lea    0xc(%rcx),%rdx
   168de:	48 8d 4c 24 20       	lea    0x20(%rsp),%rcx
   168e3:	f3 0f 7f 44 24 20    	movdqu %xmm0,0x20(%rsp)
   168e9:	e8 32 9c 00 00       	callq  0x20520
   168ee:	48 8d 54 24 20       	lea    0x20(%rsp),%rdx
   168f3:	45 33 c9             	xor    %r9d,%r9d
   168f6:	4c 8b c7             	mov    %rdi,%r8
   168f9:	48 8b cf             	mov    %rdi,%rcx
   168fc:	e8 9f 7d 00 00       	callq  0x1e6a0
   16901:	eb 25                	jmp    0x16928
   16903:	45 33 c0             	xor    %r8d,%r8d
   16906:	44 39 41 08          	cmp    %r8d,0x8(%rcx)
   1690a:	76 1c                	jbe    0x16928
   1690c:	4c 8d 51 0c          	lea    0xc(%rcx),%r10
   16910:	41 8a 02             	mov    (%r10),%al
   16913:	49 8b 09             	mov    (%r9),%rcx
   16916:	49 83 c2 01          	add    $0x1,%r10
   1691a:	41 88 04 08          	mov    %al,(%r8,%rcx,1)
   1691e:	41 83 c0 01          	add    $0x1,%r8d
   16922:	45 3b 41 08          	cmp    0x8(%r9),%r8d
   16926:	72 e8                	jb     0x16910
   16928:	0f 22 c3             	mov    %rbx,%cr0
   1692b:	48 8b 5c 24 40       	mov    0x40(%rsp),%rbx
   16930:	48 83 c4 30          	add    $0x30,%rsp
   16934:	5f                   	pop    %rdi
   16935:	c3                   	retq   
   16936:	cc                   	int3   
   16937:	cc                   	int3   
   16938:	cc                   	int3   
   16939:	cc                   	int3   
   1693a:	cc                   	int3   
   1693b:	cc                   	int3   
   1693c:	48 8b c4             	mov    %rsp,%rax
   1693f:	48 89 58 08          	mov    %rbx,0x8(%rax)
   16943:	48 89 70 10          	mov    %rsi,0x10(%rax)
   16947:	48 89 78 18          	mov    %rdi,0x18(%rax)
   1694b:	4c 89 60 20          	mov    %r12,0x20(%rax)
   1694f:	41 55                	push   %r13
   16951:	48 83 ec 30          	sub    $0x30,%rsp
   16955:	41 8b f0             	mov    %r8d,%esi
   16958:	4c 8b ea             	mov    %rdx,%r13
   1695b:	48 8b f9             	mov    %rcx,%rdi
   1695e:	33 db                	xor    %ebx,%ebx
   16960:	48 89 58 e8          	mov    %rbx,-0x18(%rax)
   16964:	ff 15 b6 b7 00 00    	callq  *0xb7b6(%rip)        # 0x22120
   1696a:	84 c0                	test   %al,%al
   1696c:	75 07                	jne    0x16975
   1696e:	bf 0d 00 00 c0       	mov    $0xc000000d,%edi
   16973:	eb 72                	jmp    0x169e7
   16975:	48 8d 56 10          	lea    0x10(%rsi),%rdx
   16979:	33 c9                	xor    %ecx,%ecx
   1697b:	41 b8 4e 4f 4e 45    	mov    $0x454e4f4e,%r8d
   16981:	ff 15 d1 b7 00 00    	callq  *0xb7d1(%rip)        # 0x22158
   16987:	48 8b d8             	mov    %rax,%rbx
   1698a:	48 89 44 24 20       	mov    %rax,0x20(%rsp)
   1698f:	48 85 c0             	test   %rax,%rax
   16992:	75 07                	jne    0x1699b
   16994:	bf 9a 00 00 c0       	mov    $0xc000009a,%edi
   16999:	eb 4c                	jmp    0x169e7
   1699b:	48 89 38             	mov    %rdi,(%rax)
   1699e:	48 85 ff             	test   %rdi,%rdi
   169a1:	75 07                	jne    0x169aa
   169a3:	bf eb 00 00 c0       	mov    $0xc00000eb,%edi
   169a8:	eb 3d                	jmp    0x169e7
   169aa:	89 70 08             	mov    %esi,0x8(%rax)
   169ad:	48 8d 48 0c          	lea    0xc(%rax),%rcx
   169b1:	4c 8b c6             	mov    %rsi,%r8
   169b4:	49 8b d5             	mov    %r13,%rdx
   169b7:	e8 64 9b 00 00       	callq  0x20520
   169bc:	83 7b 08 10          	cmpl   $0x10,0x8(%rbx)
   169c0:	77 11                	ja     0x169d3
   169c2:	f6 03 0f             	testb  $0xf,(%rbx)
   169c5:	75 0c                	jne    0x169d3
   169c7:	48 8b cb             	mov    %rbx,%rcx
   169ca:	e8 d9 fe ff ff       	callq  0x168a8
   169cf:	33 ff                	xor    %edi,%edi
   169d1:	eb 14                	jmp    0x169e7
   169d3:	41 b0 03             	mov    $0x3,%r8b
   169d6:	48 8b d3             	mov    %rbx,%rdx
   169d9:	48 8d 0d c8 fe ff ff 	lea    -0x138(%rip),%rcx        # 0x168a8
   169e0:	e8 f3 00 00 00       	callq  0x16ad8
   169e5:	8b f8                	mov    %eax,%edi
   169e7:	48 85 db             	test   %rbx,%rbx
   169ea:	74 0b                	je     0x169f7
   169ec:	33 d2                	xor    %edx,%edx
   169ee:	48 8b cb             	mov    %rbx,%rcx
   169f1:	ff 15 11 b6 00 00    	callq  *0xb611(%rip)        # 0x22008
   169f7:	8b c7                	mov    %edi,%eax
   169f9:	48 8b 5c 24 40       	mov    0x40(%rsp),%rbx
   169fe:	48 8b 74 24 48       	mov    0x48(%rsp),%rsi
   16a03:	48 8b 7c 24 50       	mov    0x50(%rsp),%rdi
   16a08:	4c 8b 64 24 58       	mov    0x58(%rsp),%r12
   16a0d:	48 83 c4 30          	add    $0x30,%rsp
   16a11:	41 5d                	pop    %r13
   16a13:	c3                   	retq   
   16a14:	cc                   	int3   
   16a15:	cc                   	int3   
   16a16:	cc                   	int3   
   16a17:	cc                   	int3   
   16a18:	cc                   	int3   
   16a19:	cc                   	int3   
   16a1a:	cc                   	int3   
   16a1b:	cc                   	int3   
   16a1c:	40 55                	rex push %rbp
   16a1e:	48 83 ec 20          	sub    $0x20,%rsp
   16a22:	48 8b ea             	mov    %rdx,%rbp
   16a25:	48 8b 4d 20          	mov    0x20(%rbp),%rcx
   16a29:	48 85 c9             	test   %rcx,%rcx
   16a2c:	74 08                	je     0x16a36
   16a2e:	33 d2                	xor    %edx,%edx
   16a30:	ff 15 d2 b5 00 00    	callq  *0xb5d2(%rip)        # 0x22008
   16a36:	48 83 c4 20          	add    $0x20,%rsp
   16a3a:	5d                   	pop    %rbp
   16a3b:	c3                   	retq   
   16a3c:	cc                   	int3   
   16a3d:	cc                   	int3   
   16a3e:	cc                   	int3   
   16a3f:	cc                   	int3   
   16a40:	cc                   	int3   
   16a41:	cc                   	int3   
   16a42:	cc                   	int3   
   16a43:	cc                   	int3   
   16a44:	48 83 ec 28          	sub    $0x28,%rsp
   16a48:	69 c9 f0 d8 ff ff    	imul   $0xffffd8f0,%ecx,%ecx
   16a4e:	4c 8d 44 24 38       	lea    0x38(%rsp),%r8
   16a53:	33 d2                	xor    %edx,%edx
   16a55:	48 63 c1             	movslq %ecx,%rax
   16a58:	33 c9                	xor    %ecx,%ecx
   16a5a:	48 89 44 24 38       	mov    %rax,0x38(%rsp)
   16a5f:	ff 15 bb b5 00 00    	callq  *0xb5bb(%rip)        # 0x22020
   16a65:	48 83 c4 28          	add    $0x28,%rsp
   16a69:	c3                   	retq   
   16a6a:	cc                   	int3   
   16a6b:	cc                   	int3   
   16a6c:	cc                   	int3   
   16a6d:	cc                   	int3   
   16a6e:	cc                   	int3   
   16a6f:	cc                   	int3   
   16a70:	48 89 54 24 10       	mov    %rdx,0x10(%rsp)
   16a75:	48 8b 44 24 10       	mov    0x10(%rsp),%rax
   16a7a:	f0 83 00 01          	lock addl $0x1,(%rax)
   16a7e:	33 d2                	xor    %edx,%edx
   16a80:	eb 05                	jmp    0x16a87
   16a82:	38 50 0e             	cmp    %dl,0xe(%rax)
   16a85:	75 40                	jne    0x16ac7
   16a87:	48 8b 44 24 10       	mov    0x10(%rsp),%rax
   16a8c:	38 50 0d             	cmp    %dl,0xd(%rax)
   16a8f:	48 8b 44 24 10       	mov    0x10(%rsp),%rax
   16a94:	74 ec                	je     0x16a82
   16a96:	44 0f 20 c1          	mov    %cr8,%rcx
   16a9a:	0f b6 40 0c          	movzbl 0xc(%rax),%eax
   16a9e:	44 0f 22 c0          	mov    %rax,%cr8
   16aa2:	48 8b 44 24 10       	mov    0x10(%rsp),%rax
   16aa7:	f0 83 40 08 01       	lock addl $0x1,0x8(%rax)
   16aac:	48 8b 44 24 10       	mov    0x10(%rsp),%rax
   16ab1:	38 50 0e             	cmp    %dl,0xe(%rax)
   16ab4:	74 f6                	je     0x16aac
   16ab6:	0f b6 c1             	movzbl %cl,%eax
   16ab9:	44 0f 22 c0          	mov    %rax,%cr8
   16abd:	48 8b 44 24 10       	mov    0x10(%rsp),%rax
   16ac2:	f0 83 40 08 ff       	lock addl $0xffffffff,0x8(%rax)
   16ac7:	48 8b 44 24 10       	mov    0x10(%rsp),%rax
   16acc:	f0 83 00 ff          	lock addl $0xffffffff,(%rax)
   16ad0:	c3                   	retq   
   16ad1:	cc                   	int3   
   16ad2:	cc                   	int3   
   16ad3:	cc                   	int3   
   16ad4:	cc                   	int3   
   16ad5:	cc                   	int3   
   16ad6:	cc                   	int3   
   16ad7:	cc                   	int3   
   16ad8:	48 89 5c 24 08       	mov    %rbx,0x8(%rsp)
   16add:	48 89 6c 24 10       	mov    %rbp,0x10(%rsp)
   16ae2:	48 89 74 24 18       	mov    %rsi,0x18(%rsp)
   16ae7:	57                   	push   %rdi
   16ae8:	41 54                	push   %r12
   16aea:	41 55                	push   %r13
   16aec:	41 56                	push   %r14
   16aee:	41 57                	push   %r15
   16af0:	48 83 ec 30          	sub    $0x30,%rsp
   16af4:	4c 8b f2             	mov    %rdx,%r14
   16af7:	41 bc 01 00 00 c0    	mov    $0xc0000001,%r12d
   16afd:	45 32 ed             	xor    %r13b,%r13b
   16b00:	48 c7 44 24 78 00 00 	movq   $0x0,0x78(%rsp)
   16b07:	00 00 
   16b09:	ff 15 a9 b6 00 00    	callq  *0xb6a9(%rip)        # 0x221b8
   16b0f:	48 83 f8 01          	cmp    $0x1,%rax
   16b13:	48 8b f8             	mov    %rax,%rdi
   16b16:	75 22                	jne    0x16b3a
   16b18:	44 0f 20 c3          	mov    %cr8,%rbx
   16b1c:	8d 70 02             	lea    0x2(%rax),%esi
   16b1f:	44 0f 22 c6          	mov    %rsi,%cr8
   16b23:	49 8b ce             	mov    %r14,%rcx
   16b26:	e8 7d fd ff ff       	callq  0x168a8
   16b2b:	44 0f b6 db          	movzbl %bl,%r11d
   16b2f:	45 0f 22 c3          	mov    %r11,%cr8
   16b33:	33 c0                	xor    %eax,%eax
   16b35:	e9 8f 01 00 00       	jmpq   0x16cc9
   16b3a:	33 db                	xor    %ebx,%ebx
   16b3c:	48 85 ff             	test   %rdi,%rdi
   16b3f:	0f 84 81 01 00 00    	je     0x16cc6
   16b45:	83 c3 01             	add    $0x1,%ebx
   16b48:	48 d1 e8             	shr    %rax
   16b4b:	75 f8                	jne    0x16b45
   16b4d:	85 db                	test   %ebx,%ebx
   16b4f:	0f 84 71 01 00 00    	je     0x16cc6
   16b55:	81 fb ff 00 00 00    	cmp    $0xff,%ebx
   16b5b:	0f 87 65 01 00 00    	ja     0x16cc6
   16b61:	8b f3                	mov    %ebx,%esi
   16b63:	33 c9                	xor    %ecx,%ecx
   16b65:	48 c1 e6 06          	shl    $0x6,%rsi
   16b69:	48 8b d6             	mov    %rsi,%rdx
   16b6c:	ff 15 56 b5 00 00    	callq  *0xb556(%rip)        # 0x220c8
   16b72:	48 85 c0             	test   %rax,%rax
   16b75:	48 8b e8             	mov    %rax,%rbp
   16b78:	75 0a                	jne    0x16b84
   16b7a:	b8 9a 00 00 c0       	mov    $0xc000009a,%eax
   16b7f:	e9 45 01 00 00       	jmpq   0x16cc9
   16b84:	4c 8b c6             	mov    %rsi,%r8
   16b87:	33 d2                	xor    %edx,%edx
   16b89:	48 8b c8             	mov    %rax,%rcx
   16b8c:	e8 ff 9c 00 00       	callq  0x20890
   16b91:	be 10 00 00 00       	mov    $0x10,%esi
   16b96:	33 c9                	xor    %ecx,%ecx
   16b98:	48 8b d6             	mov    %rsi,%rdx
   16b9b:	ff 15 27 b5 00 00    	callq  *0xb527(%rip)        # 0x220c8
   16ba1:	33 d2                	xor    %edx,%edx
   16ba3:	48 89 44 24 78       	mov    %rax,0x78(%rsp)
   16ba8:	48 8b 44 24 78       	mov    0x78(%rsp),%rax
   16bad:	48 85 c0             	test   %rax,%rax
   16bb0:	75 0b                	jne    0x16bbd
   16bb2:	48 8b cd             	mov    %rbp,%rcx
   16bb5:	ff 15 4d b4 00 00    	callq  *0xb44d(%rip)        # 0x22008
   16bbb:	eb bd                	jmp    0x16b7a
   16bbd:	48 8b 4c 24 78       	mov    0x78(%rsp),%rcx
   16bc2:	4c 8b c6             	mov    %rsi,%r8
   16bc5:	e8 c6 9c 00 00       	callq  0x20890
   16bca:	48 8b 44 24 78       	mov    0x78(%rsp),%rax
   16bcf:	44 8d 5b ff          	lea    -0x1(%rbx),%r11d
   16bd3:	44 89 58 04          	mov    %r11d,0x4(%rax)
   16bd7:	48 8b 44 24 78       	mov    0x78(%rsp),%rax
   16bdc:	be 03 00 00 00       	mov    $0x3,%esi
   16be1:	40 88 70 0c          	mov    %sil,0xc(%rax)
   16be5:	44 0f 20 c0          	mov    %cr8,%rax
   16be9:	48 89 44 24 20       	mov    %rax,0x20(%rsp)
   16bee:	8d 46 ff             	lea    -0x1(%rsi),%eax
   16bf1:	44 0f 22 c0          	mov    %rax,%cr8
   16bf5:	65 8a 04 25 84 01 00 	mov    %gs:0x184,%al
   16bfc:	00 
   16bfd:	44 0f b6 f8          	movzbl %al,%r15d
   16c01:	40 f6 c7 01          	test   $0x1,%dil
   16c05:	74 4b                	je     0x16c52
   16c07:	41 0f b6 c5          	movzbl %r13b,%eax
   16c0b:	41 3b c7             	cmp    %r15d,%eax
   16c0e:	74 3e                	je     0x16c4e
   16c10:	4c 8b 44 24 78       	mov    0x78(%rsp),%r8
   16c15:	41 0f b6 dd          	movzbl %r13b,%ebx
   16c19:	48 8d 15 50 fe ff ff 	lea    -0x1b0(%rip),%rdx        # 0x16a70
   16c20:	48 c1 e3 06          	shl    $0x6,%rbx
   16c24:	48 03 dd             	add    %rbp,%rbx
   16c27:	48 8b cb             	mov    %rbx,%rcx
   16c2a:	ff 15 d8 b5 00 00    	callq  *0xb5d8(%rip)        # 0x22208
   16c30:	41 8a d5             	mov    %r13b,%dl
   16c33:	48 8b cb             	mov    %rbx,%rcx
   16c36:	ff 15 d4 b5 00 00    	callq  *0xb5d4(%rip)        # 0x22210
   16c3c:	45 33 c0             	xor    %r8d,%r8d
   16c3f:	33 d2                	xor    %edx,%edx
   16c41:	48 8b cb             	mov    %rbx,%rcx
   16c44:	ff 15 ce b5 00 00    	callq  *0xb5ce(%rip)        # 0x22218
   16c4a:	84 c0                	test   %al,%al
   16c4c:	74 44                	je     0x16c92
   16c4e:	41 80 c5 01          	add    $0x1,%r13b
   16c52:	48 d1 ef             	shr    %rdi
   16c55:	75 aa                	jne    0x16c01
   16c57:	48 8b 54 24 78       	mov    0x78(%rsp),%rdx
   16c5c:	48 8b 44 24 78       	mov    0x78(%rsp),%rax
   16c61:	8b 48 04             	mov    0x4(%rax),%ecx
   16c64:	39 0a                	cmp    %ecx,(%rdx)
   16c66:	75 ef                	jne    0x16c57
   16c68:	44 0f 22 c6          	mov    %rsi,%cr8
   16c6c:	48 8b 44 24 78       	mov    0x78(%rsp),%rax
   16c71:	c6 40 0d 01          	movb   $0x1,0xd(%rax)
   16c75:	48 8b 54 24 78       	mov    0x78(%rsp),%rdx
   16c7a:	48 8b 44 24 78       	mov    0x78(%rsp),%rax
   16c7f:	8b 48 04             	mov    0x4(%rax),%ecx
   16c82:	39 4a 08             	cmp    %ecx,0x8(%rdx)
   16c85:	75 ee                	jne    0x16c75
   16c87:	49 8b ce             	mov    %r14,%rcx
   16c8a:	e8 19 fc ff ff       	callq  0x168a8
   16c8f:	45 33 e4             	xor    %r12d,%r12d
   16c92:	48 8b 44 24 78       	mov    0x78(%rsp),%rax
   16c97:	c6 40 0e 01          	movb   $0x1,0xe(%rax)
   16c9b:	0f b6 44 24 20       	movzbl 0x20(%rsp),%eax
   16ca0:	44 0f 22 c0          	mov    %rax,%cr8
   16ca4:	48 8b 4c 24 78       	mov    0x78(%rsp),%rcx
   16ca9:	83 39 00             	cmpl   $0x0,(%rcx)
   16cac:	75 f6                	jne    0x16ca4
   16cae:	48 8b 4c 24 78       	mov    0x78(%rsp),%rcx
   16cb3:	33 d2                	xor    %edx,%edx
   16cb5:	ff 15 4d b3 00 00    	callq  *0xb34d(%rip)        # 0x22008
   16cbb:	33 d2                	xor    %edx,%edx
   16cbd:	48 8b cd             	mov    %rbp,%rcx
   16cc0:	ff 15 42 b3 00 00    	callq  *0xb342(%rip)        # 0x22008
   16cc6:	41 8b c4             	mov    %r12d,%eax
   16cc9:	48 8b 5c 24 60       	mov    0x60(%rsp),%rbx
   16cce:	48 8b 6c 24 68       	mov    0x68(%rsp),%rbp
   16cd3:	48 8b 74 24 70       	mov    0x70(%rsp),%rsi
   16cd8:	48 83 c4 30          	add    $0x30,%rsp
   16cdc:	41 5f                	pop    %r15
   16cde:	41 5e                	pop    %r14
   16ce0:	41 5d                	pop    %r13
   16ce2:	41 5c                	pop    %r12
   16ce4:	5f                   	pop    %rdi
   16ce5:	c3                   	retq   
   16ce6:	cc                   	int3   
   16ce7:	cc                   	int3   
   16ce8:	cc                   	int3   
   16ce9:	cc                   	int3   
   16cea:	cc                   	int3   
   16ceb:	cc                   	int3   
   16cec:	48 89 5c 24 08       	mov    %rbx,0x8(%rsp)
   16cf1:	48 89 74 24 10       	mov    %rsi,0x10(%rsp)
   16cf6:	48 89 7c 24 18       	mov    %rdi,0x18(%rsp)
   16cfb:	41 54                	push   %r12
   16cfd:	48 83 ec 20          	sub    $0x20,%rsp
   16d01:	33 f6                	xor    %esi,%esi
   16d03:	bf 01 00 00 c0       	mov    $0xc0000001,%edi
   16d08:	39 35 f2 7b 01 00    	cmp    %esi,0x17bf2(%rip)        # 0x2e900
   16d0e:	0f 85 f1 00 00 00    	jne    0x16e05
   16d14:	44 8d 66 01          	lea    0x1(%rsi),%r12d
   16d18:	48 8d 0d c1 77 01 00 	lea    0x177c1(%rip),%rcx        # 0x2e4e0
   16d1f:	45 33 c0             	xor    %r8d,%r8d
   16d22:	44 89 25 d7 7b 01 00 	mov    %r12d,0x17bd7(%rip)        # 0x2e900
   16d29:	44 89 25 98 77 01 00 	mov    %r12d,0x17798(%rip)        # 0x2e4c8
   16d30:	41 8b d4             	mov    %r12d,%edx
   16d33:	48 89 35 96 77 01 00 	mov    %rsi,0x17796(%rip)        # 0x2e4d0
   16d3a:	89 35 98 77 01 00    	mov    %esi,0x17798(%rip)        # 0x2e4d8
   16d40:	ff 15 4a b3 00 00    	callq  *0xb34a(%rip)        # 0x22090
   16d46:	48 8d 0d eb 77 01 00 	lea    0x177eb(%rip),%rcx        # 0x2e538
   16d4d:	45 33 c0             	xor    %r8d,%r8d
   16d50:	41 8b d4             	mov    %r12d,%edx
   16d53:	44 89 25 c6 77 01 00 	mov    %r12d,0x177c6(%rip)        # 0x2e520
   16d5a:	48 89 35 c7 77 01 00 	mov    %rsi,0x177c7(%rip)        # 0x2e528
   16d61:	89 35 c9 77 01 00    	mov    %esi,0x177c9(%rip)        # 0x2e530
   16d67:	ff 15 23 b3 00 00    	callq  *0xb323(%rip)        # 0x22090
   16d6d:	e8 ca 24 00 00       	callq  0x1923c
   16d72:	8d 56 68             	lea    0x68(%rsi),%edx
   16d75:	33 c9                	xor    %ecx,%ecx
   16d77:	66 89 35 f2 77 01 00 	mov    %si,0x177f2(%rip)        # 0x2e570
   16d7e:	8b fe                	mov    %esi,%edi
   16d80:	ff 15 42 b3 00 00    	callq  *0xb342(%rip)        # 0x220c8
   16d86:	48 3b c6             	cmp    %rsi,%rax
   16d89:	48 8b d8             	mov    %rax,%rbx
   16d8c:	74 21                	je     0x16daf
   16d8e:	ba 08 80 00 00       	mov    $0x8008,%edx
   16d93:	41 8b cc             	mov    %r12d,%ecx
   16d96:	ff 15 2c b3 00 00    	callq  *0xb32c(%rip)        # 0x220c8
   16d9c:	48 3b c6             	cmp    %rsi,%rax
   16d9f:	48 89 03             	mov    %rax,(%rbx)
   16da2:	75 79                	jne    0x16e1d
   16da4:	33 d2                	xor    %edx,%edx
   16da6:	48 8b cb             	mov    %rbx,%rcx
   16da9:	ff 15 59 b2 00 00    	callq  *0xb259(%rip)        # 0x22008
   16daf:	48 8b de             	mov    %rsi,%rbx
   16db2:	48 3b de             	cmp    %rsi,%rbx
   16db5:	48 89 1d 3c 7b 01 00 	mov    %rbx,0x17b3c(%rip)        # 0x2e8f8
   16dbc:	74 47                	je     0x16e05
   16dbe:	e8 bd 13 00 00       	callq  0x18180
   16dc3:	48 3b c6             	cmp    %rsi,%rax
   16dc6:	48 89 05 23 7b 01 00 	mov    %rax,0x17b23(%rip)        # 0x2e8f0
   16dcd:	75 36                	jne    0x16e05
   16dcf:	48 8b 1d 22 7b 01 00 	mov    0x17b22(%rip),%rbx        # 0x2e8f8
   16dd6:	48 3b de             	cmp    %rsi,%rbx
   16dd9:	74 1e                	je     0x16df9
   16ddb:	48 8b 0b             	mov    (%rbx),%rcx
   16dde:	48 3b ce             	cmp    %rsi,%rcx
   16de1:	74 08                	je     0x16deb
   16de3:	33 d2                	xor    %edx,%edx
   16de5:	ff 15 1d b2 00 00    	callq  *0xb21d(%rip)        # 0x22008
   16deb:	33 d2                	xor    %edx,%edx
   16ded:	48 8b cb             	mov    %rbx,%rcx
   16df0:	48 89 33             	mov    %rsi,(%rbx)
   16df3:	ff 15 0f b2 00 00    	callq  *0xb20f(%rip)        # 0x22008
   16df9:	48 89 35 f8 7a 01 00 	mov    %rsi,0x17af8(%rip)        # 0x2e8f8
   16e00:	bf 01 00 00 c0       	mov    $0xc0000001,%edi
   16e05:	48 8b 5c 24 30       	mov    0x30(%rsp),%rbx
   16e0a:	48 8b 74 24 38       	mov    0x38(%rsp),%rsi
   16e0f:	8b c7                	mov    %edi,%eax
   16e11:	48 8b 7c 24 40       	mov    0x40(%rsp),%rdi
   16e16:	48 83 c4 20          	add    $0x20,%rsp
   16e1a:	41 5c                	pop    %r12
   16e1c:	c3                   	retq   
   16e1d:	89 73 0c             	mov    %esi,0xc(%rbx)
   16e20:	89 73 08             	mov    %esi,0x8(%rbx)
   16e23:	c7 43 10 01 10 00 00 	movl   $0x1001,0x10(%rbx)
   16e2a:	48 8d 4b 30          	lea    0x30(%rbx),%rcx
   16e2e:	45 33 c0             	xor    %r8d,%r8d
   16e31:	41 8b d4             	mov    %r12d,%edx
   16e34:	44 89 63 18          	mov    %r12d,0x18(%rbx)
   16e38:	48 89 73 20          	mov    %rsi,0x20(%rbx)
   16e3c:	89 73 28             	mov    %esi,0x28(%rbx)
   16e3f:	ff 15 4b b2 00 00    	callq  *0xb24b(%rip)        # 0x22090
   16e45:	48 8d 4b 50          	lea    0x50(%rbx),%rcx
   16e49:	45 33 c0             	xor    %r8d,%r8d
   16e4c:	33 d2                	xor    %edx,%edx
   16e4e:	ff 15 3c b2 00 00    	callq  *0xb23c(%rip)        # 0x22090
   16e54:	e9 59 ff ff ff       	jmpq   0x16db2
   16e59:	cc                   	int3   
   16e5a:	cc                   	int3   
   16e5b:	cc                   	int3   
   16e5c:	cc                   	int3   
   16e5d:	cc                   	int3   
   16e5e:	cc                   	int3   
   16e5f:	cc                   	int3   
   16e60:	48 89 5c 24 08       	mov    %rbx,0x8(%rsp)
   16e65:	48 89 74 24 10       	mov    %rsi,0x10(%rsp)
   16e6a:	57                   	push   %rdi
   16e6b:	48 83 ec 20          	sub    $0x20,%rsp
   16e6f:	33 f6                	xor    %esi,%esi
   16e71:	39 35 89 7a 01 00    	cmp    %esi,0x17a89(%rip)        # 0x2e900
   16e77:	8b de                	mov    %esi,%ebx
   16e79:	74 76                	je     0x16ef1
   16e7b:	48 8b 0d 6e 7a 01 00 	mov    0x17a6e(%rip),%rcx        # 0x2e8f0
   16e82:	89 35 78 7a 01 00    	mov    %esi,0x17a78(%rip)        # 0x2e900
   16e88:	e8 b3 16 00 00       	callq  0x18540
   16e8d:	39 35 71 7a 01 00    	cmp    %esi,0x17a71(%rip)        # 0x2e904
   16e93:	8b ce                	mov    %esi,%ecx
   16e95:	8b f8                	mov    %eax,%edi
   16e97:	74 1d                	je     0x16eb6
   16e99:	e8 9e 0a 00 00       	callq  0x1793c
   16e9e:	e8 05 12 00 00       	callq  0x180a8
   16ea3:	8b c8                	mov    %eax,%ecx
   16ea5:	8b 05 59 7a 01 00    	mov    0x17a59(%rip),%eax        # 0x2e904
   16eab:	3b ce                	cmp    %esi,%ecx
   16ead:	0f 4d c6             	cmovge %esi,%eax
   16eb0:	89 05 4e 7a 01 00    	mov    %eax,0x17a4e(%rip)        # 0x2e904
   16eb6:	3b fe                	cmp    %esi,%edi
   16eb8:	48 8b 3d 39 7a 01 00 	mov    0x17a39(%rip),%rdi        # 0x2e8f8
   16ebf:	bb 01 00 00 c0       	mov    $0xc0000001,%ebx
   16ec4:	0f 44 d9             	cmove  %ecx,%ebx
   16ec7:	48 3b fe             	cmp    %rsi,%rdi
   16eca:	74 25                	je     0x16ef1
   16ecc:	48 8b 0f             	mov    (%rdi),%rcx
   16ecf:	48 3b ce             	cmp    %rsi,%rcx
   16ed2:	74 08                	je     0x16edc
   16ed4:	33 d2                	xor    %edx,%edx
   16ed6:	ff 15 2c b1 00 00    	callq  *0xb12c(%rip)        # 0x22008
   16edc:	33 d2                	xor    %edx,%edx
   16ede:	48 8b cf             	mov    %rdi,%rcx
   16ee1:	48 89 37             	mov    %rsi,(%rdi)
   16ee4:	ff 15 1e b1 00 00    	callq  *0xb11e(%rip)        # 0x22008
   16eea:	48 89 35 07 7a 01 00 	mov    %rsi,0x17a07(%rip)        # 0x2e8f8
   16ef1:	48 8b 74 24 38       	mov    0x38(%rsp),%rsi
   16ef6:	8b c3                	mov    %ebx,%eax
   16ef8:	48 8b 5c 24 30       	mov    0x30(%rsp),%rbx
   16efd:	48 83 c4 20          	add    $0x20,%rsp
   16f01:	5f                   	pop    %rdi
   16f02:	c3                   	retq   
   16f03:	cc                   	int3   
   16f04:	cc                   	int3   
   16f05:	cc                   	int3   
   16f06:	cc                   	int3   
   16f07:	cc                   	int3   
   16f08:	cc                   	int3   
   16f09:	cc                   	int3   
   16f0a:	cc                   	int3   
   16f0b:	cc                   	int3   
   16f0c:	48 89 5c 24 08       	mov    %rbx,0x8(%rsp)
   16f11:	57                   	push   %rdi
   16f12:	48 83 ec 20          	sub    $0x20,%rsp
   16f16:	48 8b 15 db 79 01 00 	mov    0x179db(%rip),%rdx        # 0x2e8f8
   16f1d:	48 8d 0d ac b1 ff ff 	lea    -0x4e54(%rip),%rcx        # 0x120d0
   16f24:	66 41 81 c8 ff ff    	or     $0xffff,%r8w
   16f2a:	48 89 0d d7 79 01 00 	mov    %rcx,0x179d7(%rip)        # 0x2e908
   16f31:	66 44 89 05 d7 71 01 	mov    %r8w,0x171d7(%rip)        # 0x2e110
   16f38:	00 
   16f39:	e8 3e 10 00 00       	callq  0x17f7c
   16f3e:	33 ff                	xor    %edi,%edi
   16f40:	8b d8                	mov    %eax,%ebx
   16f42:	3b c7                	cmp    %edi,%eax
   16f44:	7c 39                	jl     0x16f7f
   16f46:	0f b7 15 c3 71 01 00 	movzwl 0x171c3(%rip),%edx        # 0x2e110
   16f4d:	48 8b 0d a4 79 01 00 	mov    0x179a4(%rip),%rcx        # 0x2e8f8
   16f54:	c7 05 a6 79 01 00 01 	movl   $0x1,0x179a6(%rip)        # 0x2e904
   16f5b:	00 00 00 
   16f5e:	e8 35 09 00 00       	callq  0x17898
   16f63:	3b c7                	cmp    %edi,%eax
   16f65:	8b d8                	mov    %eax,%ebx
   16f67:	7d 16                	jge    0x16f7f
   16f69:	e8 3a 11 00 00       	callq  0x180a8
   16f6e:	8b 0d 90 79 01 00    	mov    0x17990(%rip),%ecx        # 0x2e904
   16f74:	3b c7                	cmp    %edi,%eax
   16f76:	0f 4d cf             	cmovge %edi,%ecx
   16f79:	89 0d 85 79 01 00    	mov    %ecx,0x17985(%rip)        # 0x2e904
   16f7f:	8b c3                	mov    %ebx,%eax
   16f81:	48 8b 5c 24 30       	mov    0x30(%rsp),%rbx
   16f86:	48 83 c4 20          	add    $0x20,%rsp
   16f8a:	5f                   	pop    %rdi
   16f8b:	c3                   	retq   
   16f8c:	cc                   	int3   
   16f8d:	cc                   	int3   
   16f8e:	cc                   	int3   
   16f8f:	cc                   	int3   
   16f90:	cc                   	int3   
   16f91:	cc                   	int3   
   16f92:	cc                   	int3   
   16f93:	cc                   	int3   
   16f94:	48 83 ec 28          	sub    $0x28,%rsp
   16f98:	b8 01 00 00 c0       	mov    $0xc0000001,%eax
   16f9d:	48 83 3d 63 79 01 00 	cmpq   $0x0,0x17963(%rip)        # 0x2e908
   16fa4:	00 
   16fa5:	74 57                	je     0x16ffe
   16fa7:	e8 90 09 00 00       	callq  0x1793c
   16fac:	0f b7 15 5d 71 01 00 	movzwl 0x1715d(%rip),%edx        # 0x2e110
   16fb3:	48 8b 0d 3e 79 01 00 	mov    0x1793e(%rip),%rcx        # 0x2e8f8
   16fba:	e8 d9 08 00 00       	callq  0x17898
   16fbf:	85 c0                	test   %eax,%eax
   16fc1:	78 3b                	js     0x16ffe
   16fc3:	e8 e0 10 00 00       	callq  0x180a8
   16fc8:	85 c0                	test   %eax,%eax
   16fca:	78 32                	js     0x16ffe
   16fcc:	83 25 31 79 01 00 00 	andl   $0x0,0x17931(%rip)        # 0x2e904
   16fd3:	44 0f b7 05 35 71 01 	movzwl 0x17135(%rip),%r8d        # 0x2e110
   16fda:	00 
   16fdb:	48 8b 15 16 79 01 00 	mov    0x17916(%rip),%rdx        # 0x2e8f8
   16fe2:	48 8b 0d 1f 79 01 00 	mov    0x1791f(%rip),%rcx        # 0x2e908
   16fe9:	e8 8e 0f 00 00       	callq  0x17f7c
   16fee:	85 c0                	test   %eax,%eax
   16ff0:	78 0c                	js     0x16ffe
   16ff2:	c7 05 08 79 01 00 01 	movl   $0x1,0x17908(%rip)        # 0x2e904
   16ff9:	00 00 00 
   16ffc:	33 c0                	xor    %eax,%eax
   16ffe:	48 83 c4 28          	add    $0x28,%rsp
   17002:	c3                   	retq   
   17003:	cc                   	int3   
   17004:	40 55                	rex push %rbp
   17006:	48 83 ec 20          	sub    $0x20,%rsp
   1700a:	48 8b ea             	mov    %rdx,%rbp
   1700d:	48 83 c4 20          	add    $0x20,%rsp
   17011:	5d                   	pop    %rbp
   17012:	c3                   	retq   
   17013:	cc                   	int3   
   17014:	cc                   	int3   
   17015:	cc                   	int3   
   17016:	cc                   	int3   
   17017:	cc                   	int3   
   17018:	cc                   	int3   
   17019:	cc                   	int3   
   1701a:	cc                   	int3   
   1701b:	cc                   	int3   
   1701c:	48 89 5c 24 08       	mov    %rbx,0x8(%rsp)
   17021:	48 89 74 24 10       	mov    %rsi,0x10(%rsp)
   17026:	57                   	push   %rdi
   17027:	48 83 ec 30          	sub    $0x30,%rsp
   1702b:	8b f2                	mov    %edx,%esi
   1702d:	48 8b f9             	mov    %rcx,%rdi
   17030:	48 8b d1             	mov    %rcx,%rdx
   17033:	8b ce                	mov    %esi,%ecx
   17035:	e8 92 4f 00 00       	callq  0x1bfcc
   1703a:	48 8d 4c 24 20       	lea    0x20(%rsp),%rcx
   1703f:	48 8b d7             	mov    %rdi,%rdx
   17042:	ff 15 d0 af 00 00    	callq  *0xafd0(%rip)        # 0x22018
   17048:	48 8d 4c 24 20       	lea    0x20(%rsp),%rcx
   1704d:	ff 15 5d b1 00 00    	callq  *0xb15d(%rip)        # 0x221b0
   17053:	48 8b d7             	mov    %rdi,%rdx
   17056:	8b ce                	mov    %esi,%ecx
   17058:	48 8b d8             	mov    %rax,%rbx
   1705b:	e8 6c 4f 00 00       	callq  0x1bfcc
   17060:	48 8b 74 24 48       	mov    0x48(%rsp),%rsi
   17065:	48 8b c3             	mov    %rbx,%rax
   17068:	48 8b 5c 24 40       	mov    0x40(%rsp),%rbx
   1706d:	48 83 c4 30          	add    $0x30,%rsp
   17071:	5f                   	pop    %rdi
   17072:	c3                   	retq   
   17073:	cc                   	int3   
   17074:	cc                   	int3   
   17075:	cc                   	int3   
   17076:	cc                   	int3   
   17077:	cc                   	int3   
   17078:	cc                   	int3   
   17079:	cc                   	int3   
   1707a:	cc                   	int3   
   1707b:	cc                   	int3   
   1707c:	48 8b c4             	mov    %rsp,%rax
   1707f:	48 89 58 08          	mov    %rbx,0x8(%rax)
   17083:	57                   	push   %rdi
   17084:	48 81 ec f0 01 00 00 	sub    $0x1f0,%rsp
   1708b:	33 ff                	xor    %edi,%edi
   1708d:	48 8b d9             	mov    %rcx,%rbx
   17090:	66 c7 44 24 60 42 9b 	movw   $0x9b42,0x60(%rsp)
   17097:	66 c7 44 24 62 20 d3 	movw   $0xd320,0x62(%rsp)
   1709e:	66 c7 44 24 64 c1 e2 	movw   $0xe2c1,0x64(%rsp)
   170a5:	66 c7 44 24 66 f3 ca 	movw   $0xcaf3,0x66(%rsp)
   170ac:	66 89 7c 24 78       	mov    %di,0x78(%rsp)
   170b1:	66 89 78 b4          	mov    %di,-0x4c(%rax)
   170b5:	66 89 7c 24 5e       	mov    %di,0x5e(%rsp)
   170ba:	66 89 7c 24 44       	mov    %di,0x44(%rsp)
   170bf:	66 89 7c 24 2e       	mov    %di,0x2e(%rsp)
   170c4:	66 c7 44 24 68 32 d4 	movw   $0xd432,0x68(%rsp)
   170cb:	66 c7 44 24 6a 82 f0 	movw   $0xf082,0x6a(%rsp)
   170d2:	66 c7 44 24 6c 38 95 	movw   $0x9538,0x6c(%rsp)
   170d9:	66 c7 44 24 6e d4 ab 	movw   $0xabd4,0x6e(%rsp)
   170e0:	66 c7 44 24 70 18 fb 	movw   $0xfb18,0x70(%rsp)
   170e7:	66 c7 44 24 72 0c a9 	movw   $0xa90c,0x72(%rsp)
   170ee:	66 c7 44 24 74 b6 d4 	movw   $0xd4b6,0x74(%rsp)
   170f5:	66 c7 44 24 76 bd c0 	movw   $0xc0bd,0x76(%rsp)
   170fc:	66 c7 40 88 87 88    	movw   $0x8887,-0x78(%rax)
   17102:	66 c7 40 8a 06 8a    	movw   $0x8a06,-0x76(%rax)
   17108:	66 c7 40 8c 4b fa    	movw   $0xfa4b,-0x74(%rax)
   1710e:	66 c7 40 8e cf cd    	movw   $0xcdcf,-0x72(%rax)
   17114:	66 c7 40 90 a2 fa    	movw   $0xfaa2,-0x70(%rax)
   1711a:	66 c7 40 92 b2 e5    	movw   $0xe5b2,-0x6e(%rax)
   17120:	66 c7 40 94 d8 e9    	movw   $0xe9d8,-0x6c(%rax)
   17126:	66 c7 40 96 5d f4    	movw   $0xf45d,-0x6a(%rax)
   1712c:	66 c7 40 98 2d ef    	movw   $0xef2d,-0x68(%rax)
   17132:	66 c7 40 9a 24 b3    	movw   $0xb324,-0x66(%rax)
   17138:	66 c7 40 9c 9d 88    	movw   $0x889d,-0x64(%rax)
   1713e:	66 c7 40 9e de c6    	movw   $0xc6de,-0x62(%rax)
   17144:	66 c7 40 a0 5b 87    	movw   $0x875b,-0x60(%rax)
   1714a:	66 c7 40 a2 07 e2    	movw   $0xe207,-0x5e(%rax)
   17150:	66 c7 40 a4 b5 82    	movw   $0x82b5,-0x5c(%rax)
   17156:	66 c7 40 a6 33 da    	movw   $0xda33,-0x5a(%rax)
   1715c:	66 c7 40 a8 58 be    	movw   $0xbe58,-0x58(%rax)
   17162:	66 c7 40 aa 29 8f    	movw   $0x8f29,-0x56(%rax)
   17168:	66 c7 40 ac 83 a9    	movw   $0xa983,-0x54(%rax)
   1716e:	66 c7 40 ae 35 d9    	movw   $0xd935,-0x52(%rax)
   17174:	66 c7 40 b0 d4 d5    	movw   $0xd5d4,-0x50(%rax)
   1717a:	66 c7 40 b2 13 cb    	movw   $0xcb13,-0x4e(%rax)
   17180:	66 c7 44 24 48 55 e7 	movw   $0xe755,0x48(%rsp)
   17187:	66 c7 44 24 4a 45 f6 	movw   $0xf645,0x4a(%rsp)
   1718e:	66 c7 44 24 4c b4 be 	movw   $0xbeb4,0x4c(%rsp)
   17195:	66 c7 44 24 4e 92 c1 	movw   $0xc192,0x4e(%rsp)
   1719c:	66 c7 44 24 50 7b b0 	movw   $0xb07b,0x50(%rsp)
   171a3:	66 c7 44 24 52 84 cb 	movw   $0xcb84,0x52(%rsp)
   171aa:	66 c7 44 24 54 19 be 	movw   $0xbe19,0x54(%rsp)
   171b1:	66 c7 44 24 56 97 d6 	movw   $0xd697,0x56(%rsp)
   171b8:	66 c7 44 24 58 42 e4 	movw   $0xe442,0x58(%rsp)
   171bf:	66 c7 44 24 5a f7 ad 	movw   $0xadf7,0x5a(%rsp)
   171c6:	66 c7 44 24 5c 33 8b 	movw   $0x8b33,0x5c(%rsp)
   171cd:	66 c7 44 24 30 5b ff 	movw   $0xff5b,0x30(%rsp)
   171d4:	66 c7 44 24 32 27 e8 	movw   $0xe827,0x32(%rsp)
   171db:	66 c7 44 24 34 50 cd 	movw   $0xcd50,0x34(%rsp)
   171e2:	66 c7 44 24 36 15 e9 	movw   $0xe915,0x36(%rsp)
   171e9:	66 c7 44 24 38 69 98 	movw   $0x9869,0x38(%rsp)
   171f0:	66 c7 44 24 3a bd fa 	movw   $0xfabd,0x3a(%rsp)
   171f7:	66 c7 44 24 3c 05 86 	movw   $0x8605,0x3c(%rsp)
   171fe:	66 c7 44 24 3e 97 96 	movw   $0x9697,0x3e(%rsp)
   17205:	66 c7 44 24 40 8f 9b 	movw   $0x9b8f,0x40(%rsp)
   1720c:	66 c7 44 24 42 8a 96 	movw   $0x968a,0x42(%rsp)
   17213:	66 c7 44 24 20 f3 ab 	movw   $0xabf3,0x20(%rsp)
   1721a:	66 c7 44 24 22 f1 f7 	movw   $0xf7f1,0x22(%rsp)
   17221:	66 c7 44 24 24 b6 fb 	movw   $0xfbb6,0x24(%rsp)
   17228:	66 c7 44 24 26 52 a9 	movw   $0xa952,0x26(%rsp)
   1722f:	66 c7 44 24 28 b9 e2 	movw   $0xe2b9,0x28(%rsp)
   17236:	66 c7 44 24 2a be ea 	movw   $0xeabe,0x2a(%rsp)
   1723d:	66 c7 44 24 2c 02 81 	movw   $0x8102,0x2c(%rsp)
   17244:	66 c7 40 b8 97 a7    	movw   $0xa797,-0x48(%rax)
   1724a:	66 c7 40 ba a7 d7    	movw   $0xd7a7,-0x46(%rax)
   17250:	66 c7 40 bc fc ed    	movw   $0xedfc,-0x44(%rax)
   17256:	66 c7 40 be a0 aa    	movw   $0xaaa0,-0x42(%rax)
   1725c:	66 c7 40 c0 ff c7    	movw   $0xc7ff,-0x40(%rax)
   17262:	66 c7 40 c2 75 90    	movw   $0x9075,-0x3e(%rax)
   17268:	66 c7 40 c4 a3 c1    	movw   $0xc1a3,-0x3c(%rax)
   1726e:	66 c7 40 c6 be f4    	movw   $0xf4be,-0x3a(%rax)
   17274:	66 c7 40 c8 4c ad    	movw   $0xad4c,-0x38(%rax)
   1727a:	66 c7 40 ca e3 f9    	movw   $0xf9e3,-0x36(%rax)
   17280:	66 c7 40 cc 8e d7    	movw   $0xd78e,-0x34(%rax)
   17286:	66 c7 40 ce 47 9c    	movw   $0x9c47,-0x32(%rax)
   1728c:	66 c7 40 d0 34 bf    	movw   $0xbf34,-0x30(%rax)
   17292:	66 c7 40 d2 ed f2    	movw   $0xf2ed,-0x2e(%rax)
   17298:	66 c7 40 d4 7c db    	movw   $0xdb7c,-0x2c(%rax)
   1729e:	66 c7 40 d6 dc 9c    	movw   $0x9cdc,-0x2a(%rax)
   172a4:	66 c7 40 d8 86 98    	movw   $0x9886,-0x28(%rax)
   172aa:	66 c7 40 da 6d 8b    	movw   $0x8b6d,-0x26(%rax)
   172b0:	66 c7 40 dc c4 df    	movw   $0xdfc4,-0x24(%rax)
   172b6:	66 c7 40 de 74 d5    	movw   $0xd574,-0x22(%rax)
   172bc:	66 c7 40 e0 3e 83    	movw   $0x833e,-0x20(%rax)
   172c2:	66 c7 40 e2 2c 9d    	movw   $0x9d2c,-0x1e(%rax)
   172c8:	66 c7 40 e4 ee 9d    	movw   $0x9dee,-0x1c(%rax)
   172ce:	66 c7 40 e6 65 9a    	movw   $0x9a65,-0x1a(%rax)
   172d4:	66 c7 40 e8 3c b2    	movw   $0xb23c,-0x18(%rax)
   172da:	66 89 78 ea          	mov    %di,-0x16(%rax)
   172de:	66 c7 80 f8 fe ff ff 	movw   $0x8581,-0x108(%rax)
   172e5:	81 85 
   172e7:	66 c7 80 fa fe ff ff 	movw   $0xea1b,-0x106(%rax)
   172ee:	1b ea 
   172f0:	66 c7 80 fc fe ff ff 	movw   $0xa881,-0x104(%rax)
   172f7:	81 a8 
   172f9:	66 c7 80 fe fe ff ff 	movw   $0xd1c1,-0x102(%rax)
   17300:	c1 d1 
   17302:	66 c7 80 00 ff ff ff 	movw   $0xe147,-0x100(%rax)
   17309:	47 e1 
   1730b:	66 c7 80 02 ff ff ff 	movw   $0x887f,-0xfe(%rax)
   17312:	7f 88 
   17314:	66 c7 80 04 ff ff ff 	movw   $0x98c9,-0xfc(%rax)
   1731b:	c9 98 
   1731d:	66 c7 80 06 ff ff ff 	movw   $0x9993,-0xfa(%rax)
   17324:	93 99 
   17326:	66 c7 80 08 ff ff ff 	movw   $0xf32c,-0xf8(%rax)
   1732d:	2c f3 
   1732f:	66 c7 80 0a ff ff ff 	movw   $0xf007,-0xf6(%rax)
   17336:	07 f0 
   17338:	66 c7 80 0c ff ff ff 	movw   $0xb47d,-0xf4(%rax)
   1733f:	7d b4 
   17341:	66 c7 80 0e ff ff ff 	movw   $0xb1c1,-0xf2(%rax)
   17348:	c1 b1 
   1734a:	66 c7 80 10 ff ff ff 	movw   $0xfab7,-0xf0(%rax)
   17351:	b7 fa 
   17353:	66 c7 80 12 ff ff ff 	movw   $0xa3fd,-0xee(%rax)
   1735a:	fd a3 
   1735c:	66 c7 80 14 ff ff ff 	movw   $0xcf22,-0xec(%rax)
   17363:	22 cf 
   17365:	66 c7 80 16 ff ff ff 	movw   $0xd71e,-0xea(%rax)
   1736c:	1e d7 
   1736e:	66 c7 80 18 ff ff ff 	movw   $0xde09,-0xe8(%rax)
   17375:	09 de 
   17377:	66 c7 80 1a ff ff ff 	movw   $0xbe7f,-0xe6(%rax)
   1737e:	7f be 
   17380:	66 c7 80 1c ff ff ff 	movw   $0x8fba,-0xe4(%rax)
   17387:	ba 8f 
   17389:	66 c7 80 1e ff ff ff 	movw   $0xfa0b,-0xe2(%rax)
   17390:	0b fa 
   17392:	66 89 b8 20 ff ff ff 	mov    %di,-0xe0(%rax)
   17399:	66 c7 80 58 ff ff ff 	movw   $0xb01c,-0xa8(%rax)
   173a0:	1c b0 
   173a2:	66 c7 80 5a ff ff ff 	movw   $0xeba2,-0xa6(%rax)
   173a9:	a2 eb 
   173ab:	66 c7 80 5c ff ff ff 	movw   $0xd961,-0xa4(%rax)
   173b2:	61 d9 
   173b4:	66 c7 80 5e ff ff ff 	movw   $0xd0ed,-0xa2(%rax)
   173bb:	ed d0 
   173bd:	66 c7 80 60 ff ff ff 	movw   $0xe6b4,-0xa0(%rax)
   173c4:	b4 e6 
   173c6:	66 c7 80 62 ff ff ff 	movw   $0x828e,-0x9e(%rax)
   173cd:	8e 82 
   173cf:	66 c7 80 64 ff ff ff 	movw   $0xe189,-0x9c(%rax)
   173d6:	89 e1 
   173d8:	66 c7 80 66 ff ff ff 	movw   $0xbc21,-0x9a(%rax)
   173df:	21 bc 
   173e1:	66 c7 80 68 ff ff ff 	movw   $0x8968,-0x98(%rax)
   173e8:	68 89 
   173ea:	66 c7 80 6a ff ff ff 	movw   $0xe61a,-0x96(%rax)
   173f1:	1a e6 
   173f3:	66 c7 80 6c ff ff ff 	movw   $0xc63d,-0x94(%rax)
   173fa:	3d c6 
   173fc:	66 c7 80 6e ff ff ff 	movw   $0xe1e2,-0x92(%rax)
   17403:	e2 e1 
   17405:	66 c7 80 70 ff ff ff 	movw   $0xa641,-0x90(%rax)
   1740c:	41 a6 
   1740e:	66 c7 80 72 ff ff ff 	movw   $0xbdb7,-0x8e(%rax)
   17415:	b7 bd 
   17417:	66 c7 80 74 ff ff ff 	movw   $0xae83,-0x8c(%rax)
   1741e:	83 ae 
   17420:	66 c7 80 76 ff ff ff 	movw   $0xd717,-0x8a(%rax)
   17427:	17 d7 
   17429:	66 c7 80 78 ff ff ff 	movw   $0xf29a,-0x88(%rax)
   17430:	9a f2 
   17432:	66 c7 80 7a ff ff ff 	movw   $0xac8a,-0x86(%rax)
   17439:	8a ac 
   1743b:	66 c7 80 7c ff ff ff 	movw   $0xef67,-0x84(%rax)
   17442:	67 ef 
   17444:	66 c7 80 7e ff ff ff 	movw   $0xf0e6,-0x82(%rax)
   1744b:	e6 f0 
   1744d:	66 c7 40 80 89 e4    	movw   $0xe489,-0x80(%rax)
   17453:	66 c7 40 82 e7 8b    	movw   $0x8be7,-0x7e(%rax)
   17459:	66 89 78 84          	mov    %di,-0x7c(%rax)
   1745d:	66 c7 80 88 fe ff ff 	movw   $0x88a3,-0x178(%rax)
   17464:	a3 88 
   17466:	66 c7 80 8a fe ff ff 	movw   $0x89f4,-0x176(%rax)
   1746d:	f4 89 
   1746f:	66 c7 80 8c fe ff ff 	movw   $0xf1e2,-0x174(%rax)
   17476:	e2 f1 
   17478:	66 c7 80 8e fe ff ff 	movw   $0xca64,-0x172(%rax)
   1747f:	64 ca 
   17481:	66 c7 80 90 fe ff ff 	movw   $0x9d83,-0x170(%rax)
   17488:	83 9d 
   1748a:	66 c7 80 92 fe ff ff 	movw   $0xa947,-0x16e(%rax)
   17491:	47 a9 
   17493:	66 c7 80 94 fe ff ff 	movw   $0xd544,-0x16c(%rax)
   1749a:	44 d5 
   1749c:	66 c7 80 96 fe ff ff 	movw   $0xb7f0,-0x16a(%rax)
   174a3:	f0 b7 
   174a5:	66 c7 80 98 fe ff ff 	movw   $0xeb3e,-0x168(%rax)
   174ac:	3e eb 
   174ae:	66 c7 80 9a fe ff ff 	movw   $0xb367,-0x166(%rax)
   174b5:	67 b3 
   174b7:	66 c7 80 9c fe ff ff 	movw   $0xff03,-0x164(%rax)
   174be:	03 ff 
   174c0:	66 c7 80 9e fe ff ff 	movw   $0xf0a6,-0x162(%rax)
   174c7:	a6 f0 
   174c9:	66 c7 80 a0 fe ff ff 	movw   $0xcedb,-0x160(%rax)
   174d0:	db ce 
   174d2:	66 89 b8 a2 fe ff ff 	mov    %di,-0x15e(%rax)
   174d9:	66 c7 80 28 ff ff ff 	movw   $0xb00c,-0xd8(%rax)
   174e0:	0c b0 
   174e2:	66 c7 80 2a ff ff ff 	movw   $0xfdbb,-0xd6(%rax)
   174e9:	bb fd 
   174eb:	66 c7 80 2c ff ff ff 	movw   $0x9042,-0xd4(%rax)
   174f2:	42 90 
   174f4:	66 c7 80 2e ff ff ff 	movw   $0xad1a,-0xd2(%rax)
   174fb:	1a ad 
   174fd:	66 c7 80 30 ff ff ff 	movw   $0xfe93,-0xd0(%rax)
   17504:	93 fe 
   17506:	66 c7 80 32 ff ff ff 	movw   $0xf1a9,-0xce(%rax)
   1750d:	a9 f1 
   1750f:	66 c7 80 34 ff ff ff 	movw   $0xff4e,-0xcc(%rax)
   17516:	4e ff 
   17518:	66 c7 80 36 ff ff ff 	movw   $0x8781,-0xca(%rax)
   1751f:	81 87 
   17521:	66 c7 80 38 ff ff ff 	movw   $0x9351,-0xc8(%rax)
   17528:	51 93 
   1752a:	66 c7 80 3a ff ff ff 	movw   $0xb383,-0xc6(%rax)
   17531:	83 b3 
   17533:	66 c7 80 3c ff ff ff 	movw   $0x9cde,-0xc4(%rax)
   1753a:	de 9c 
   1753c:	66 c7 80 3e ff ff ff 	movw   $0xe5e4,-0xc2(%rax)
   17543:	e4 e5 
   17545:	66 c7 80 40 ff ff ff 	movw   $0xa3ef,-0xc0(%rax)
   1754c:	ef a3 
   1754e:	66 c7 80 42 ff ff ff 	movw   $0xfe21,-0xbe(%rax)
   17555:	21 fe 
   17557:	66 c7 80 44 ff ff ff 	movw   $0xd44f,-0xbc(%rax)
   1755e:	4f d4 
   17560:	66 c7 80 46 ff ff ff 	movw   $0xd8f7,-0xba(%rax)
   17567:	f7 d8 
   17569:	66 c7 80 48 ff ff ff 	movw   $0xfaff,-0xb8(%rax)
   17570:	ff fa 
   17572:	66 c7 80 4a ff ff ff 	movw   $0x9680,-0xb6(%rax)
   17579:	80 96 
   1757b:	48 8d 4c 24 60       	lea    0x60(%rsp),%rcx
   17580:	ba 80 bf 5f 00       	mov    $0x5fbf80,%edx
   17585:	66 c7 84 24 44 01 00 	movw   $0x85bb,0x144(%rsp)
   1758c:	00 bb 85 
   1758f:	66 c7 84 24 46 01 00 	movw   $0xeb6e,0x146(%rsp)
   17596:	00 6e eb 
   17599:	66 c7 84 24 48 01 00 	movw   $0xa78a,0x148(%rsp)
   175a0:	00 8a a7 
   175a3:	66 89 bc 24 4a 01 00 	mov    %di,0x14a(%rsp)
   175aa:	00 
   175ab:	66 c7 84 24 a0 00 00 	movw   $0xfd73,0xa0(%rsp)
   175b2:	00 73 fd 
   175b5:	66 c7 84 24 a2 00 00 	movw   $0xeaf5,0xa2(%rsp)
   175bc:	00 f5 ea 
   175bf:	66 c7 84 24 a4 00 00 	movw   $0xf42e,0xa4(%rsp)
   175c6:	00 2e f4 
   175c9:	66 c7 84 24 a6 00 00 	movw   $0xfe45,0xa6(%rsp)
   175d0:	00 45 fe 
   175d3:	66 c7 84 24 a8 00 00 	movw   $0xb14d,0xa8(%rsp)
   175da:	00 4d b1 
   175dd:	66 c7 84 24 aa 00 00 	movw   $0xfbc5,0xaa(%rsp)
   175e4:	00 c5 fb 
   175e7:	66 c7 84 24 ac 00 00 	movw   $0xc8d5,0xac(%rsp)
   175ee:	00 d5 c8 
   175f1:	66 c7 84 24 ae 00 00 	movw   $0x8c11,0xae(%rsp)
   175f8:	00 11 8c 
   175fb:	66 c7 84 24 b0 00 00 	movw   $0xdac6,0xb0(%rsp)
   17602:	00 c6 da 
   17605:	66 c7 84 24 b2 00 00 	movw   $0xb20c,0xb2(%rsp)
   1760c:	00 0c b2 
   1760f:	66 c7 84 24 b4 00 00 	movw   $0xbff6,0xb4(%rsp)
   17616:	00 f6 bf 
   17619:	66 c7 84 24 b6 00 00 	movw   $0xd41d,0xb6(%rsp)
   17620:	00 1d d4 
   17623:	66 c7 84 24 b8 00 00 	movw   $0xa230,0xb8(%rsp)
   1762a:	00 30 a2 
   1762d:	66 c7 84 24 ba 00 00 	movw   $0xd51a,0xba(%rsp)
   17634:	00 1a d5 
   17637:	66 c7 84 24 bc 00 00 	movw   $0x9c41,0xbc(%rsp)
   1763e:	00 41 9c 
   17641:	66 c7 84 24 be 00 00 	movw   $0x9573,0xbe(%rsp)
   17648:	00 73 95 
   1764b:	66 c7 84 24 c0 00 00 	movw   $0xd658,0xc0(%rsp)
   17652:	00 58 d6 
   17655:	66 c7 84 24 c2 00 00 	movw   $0x9f90,0xc2(%rsp)
   1765c:	00 90 9f 
   1765f:	66 c7 84 24 c4 00 00 	movw   $0xf7ce,0xc4(%rsp)
   17666:	00 ce f7 
   17669:	66 89 bc 24 c6 00 00 	mov    %di,0xc6(%rsp)
   17670:	00 
   17671:	66 c7 84 24 c8 00 00 	movw   $0xe7d8,0xc8(%rsp)
   17678:	00 d8 e7 
   1767b:	66 c7 84 24 ca 00 00 	movw   $0xba16,0xca(%rsp)
   17682:	00 16 ba 
   17685:	66 c7 84 24 cc 00 00 	movw   $0xf837,0xcc(%rsp)
   1768c:	00 37 f8 
   1768f:	66 c7 84 24 ce 00 00 	movw   $0xa75c,0xce(%rsp)
   17696:	00 5c a7 
   17699:	66 c7 84 24 d0 00 00 	movw   $0x9d78,0xd0(%rsp)
   176a0:	00 78 9d 
   176a3:	66 c7 84 24 d2 00 00 	movw   $0x9515,0xd2(%rsp)
   176aa:	00 15 95 
   176ad:	66 c7 84 24 d4 00 00 	movw   $0xe1e0,0xd4(%rsp)
   176b4:	00 e0 e1 
   176b7:	66 c7 84 24 d6 00 00 	movw   $0x933f,0xd6(%rsp)
   176be:	00 3f 93 
   176c1:	66 c7 84 24 d8 00 00 	movw   $0xfc97,0xd8(%rsp)
   176c8:	00 97 fc 
   176cb:	66 c7 84 24 da 00 00 	movw   $0xe2a2,0xda(%rsp)
   176d2:	00 a2 e2 
   176d5:	66 c7 84 24 dc 00 00 	movw   $0xbeea,0xdc(%rsp)
   176dc:	00 ea be 
   176df:	66 c7 84 24 de 00 00 	movw   $0xd2d2,0xde(%rsp)
   176e6:	00 d2 d2 
   176e9:	66 c7 84 24 e0 00 00 	movw   $0x92da,0xe0(%rsp)
   176f0:	00 da 92 
   176f3:	66 c7 84 24 e2 00 00 	movw   $0xab54,0xe2(%rsp)
   176fa:	00 54 ab 
   176fd:	66 c7 84 24 e4 00 00 	movw   $0xedd3,0xe4(%rsp)
   17704:	00 d3 ed 
   17707:	66 c7 84 24 e6 00 00 	movw   $0xcb21,0xe6(%rsp)
   1770e:	00 21 cb 
   17711:	66 c7 84 24 e8 00 00 	movw   $0xe8ff,0xe8(%rsp)
   17718:	00 ff e8 
   1771b:	66 c7 84 24 ea 00 00 	movw   $0xfd80,0xea(%rsp)
   17722:	00 80 fd 
   17725:	66 c7 84 24 ec 00 00 	movw   $0x8e44,0xec(%rsp)
   1772c:	00 44 8e 
   1772f:	66 89 bc 24 ee 00 00 	mov    %di,0xee(%rsp)
   17736:	00 
   17737:	e8 e0 f8 ff ff       	callq  0x1701c
   1773c:	48 8d 8c 24 80 01 00 	lea    0x180(%rsp),%rcx
   17743:	00 
   17744:	ba 00 e7 7d 01       	mov    $0x17de700,%edx
   17749:	48 89 03             	mov    %rax,(%rbx)
   1774c:	e8 cb f8 ff ff       	callq  0x1701c
   17751:	48 8d 4c 24 48       	lea    0x48(%rsp),%rcx
   17756:	ba 80 a5 03 01       	mov    $0x103a580,%edx
   1775b:	48 89 43 08          	mov    %rax,0x8(%rbx)
   1775f:	e8 b8 f8 ff ff       	callq  0x1701c
   17764:	48 8d 4c 24 30       	lea    0x30(%rsp),%rcx
   17769:	ba 00 d1 ca 00       	mov    $0xcad100,%edx
   1776e:	48 89 43 10          	mov    %rax,0x10(%rbx)
   17772:	e8 a5 f8 ff ff       	callq  0x1701c
   17777:	48 8d 4c 24 20       	lea    0x20(%rsp),%rcx
   1777c:	ba 80 da 20 00       	mov    $0x20da80,%edx
   17781:	48 89 43 18          	mov    %rax,0x18(%rbx)
   17785:	e8 92 f8 ff ff       	callq  0x1701c
   1778a:	48 8d 8c 24 b0 01 00 	lea    0x1b0(%rsp),%rcx
   17791:	00 
   17792:	ba 00 04 5e 01       	mov    $0x15e0400,%edx
   17797:	48 89 43 20          	mov    %rax,0x20(%rbx)
   1779b:	e8 7c f8 ff ff       	callq  0x1701c
   177a0:	48 8d 8c 24 f0 00 00 	lea    0xf0(%rsp),%rcx
   177a7:	00 
   177a8:	ba 80 3a 32 01       	mov    $0x1323a80,%edx
   177ad:	48 89 43 28          	mov    %rax,0x28(%rbx)
   177b1:	e8 66 f8 ff ff       	callq  0x1701c
   177b6:	48 89 43 30          	mov    %rax,0x30(%rbx)
   177ba:	48 8d 8c 24 50 01 00 	lea    0x150(%rsp),%rcx
   177c1:	00 
   177c2:	ba 00 fe 48 01       	mov    $0x148fe00,%edx
   177c7:	e8 50 f8 ff ff       	callq  0x1701c
   177cc:	48 8d 8c 24 80 00 00 	lea    0x80(%rsp),%rcx
   177d3:	00 
   177d4:	ba 80 2d c3 01       	mov    $0x1c32d80,%edx
   177d9:	48 89 43 38          	mov    %rax,0x38(%rbx)
   177dd:	e8 3a f8 ff ff       	callq  0x1701c
   177e2:	48 8d 8c 24 20 01 00 	lea    0x120(%rsp),%rcx
   177e9:	00 
   177ea:	ba 80 71 2b 01       	mov    $0x12b7180,%edx
   177ef:	48 89 43 40          	mov    %rax,0x40(%rbx)
   177f3:	e8 24 f8 ff ff       	callq  0x1701c
   177f8:	48 8d 8c 24 a0 00 00 	lea    0xa0(%rsp),%rcx
   177ff:	00 
   17800:	ba 80 8b f8 01       	mov    $0x1f88b80,%edx
   17805:	48 89 43 48          	mov    %rax,0x48(%rbx)
   17809:	e8 0e f8 ff ff       	callq  0x1701c
   1780e:	48 3b c7             	cmp    %rdi,%rax
   17811:	48 89 43 50          	mov    %rax,0x50(%rbx)
   17815:	75 16                	jne    0x1782d
   17817:	48 8d 8c 24 c8 00 00 	lea    0xc8(%rsp),%rcx
   1781e:	00 
   1781f:	ba 80 8d a2 01       	mov    $0x1a28d80,%edx
   17824:	e8 f3 f7 ff ff       	callq  0x1701c
   17829:	48 89 43 50          	mov    %rax,0x50(%rbx)
   1782d:	48 39 3b             	cmp    %rdi,(%rbx)
   17830:	75 07                	jne    0x17839
   17832:	b8 01 00 00 c0       	mov    $0xc0000001,%eax
   17837:	eb 46                	jmp    0x1787f
   17839:	48 39 7b 08          	cmp    %rdi,0x8(%rbx)
   1783d:	74 f3                	je     0x17832
   1783f:	48 39 7b 10          	cmp    %rdi,0x10(%rbx)
   17843:	74 ed                	je     0x17832
   17845:	48 39 7b 18          	cmp    %rdi,0x18(%rbx)
   17849:	74 e7                	je     0x17832
   1784b:	48 39 7b 20          	cmp    %rdi,0x20(%rbx)
   1784f:	74 e1                	je     0x17832
   17851:	48 39 7b 28          	cmp    %rdi,0x28(%rbx)
   17855:	74 db                	je     0x17832
   17857:	48 39 7b 30          	cmp    %rdi,0x30(%rbx)
   1785b:	74 d5                	je     0x17832
   1785d:	48 39 7b 38          	cmp    %rdi,0x38(%rbx)
   17861:	74 cf                	je     0x17832
   17863:	48 39 7b 40          	cmp    %rdi,0x40(%rbx)
   17867:	74 c9                	je     0x17832
   17869:	48 39 7b 48          	cmp    %rdi,0x48(%rbx)
   1786d:	74 c3                	je     0x17832
   1786f:	48 8b 43 50          	mov    0x50(%rbx),%rax
   17873:	48 f7 d8             	neg    %rax
   17876:	1b c0                	sbb    %eax,%eax
   17878:	f7 d0                	not    %eax
   1787a:	25 01 00 00 c0       	and    $0xc0000001,%eax
   1787f:	48 8b 9c 24 00 02 00 	mov    0x200(%rsp),%rbx
   17886:	00 
   17887:	48 81 c4 f0 01 00 00 	add    $0x1f0,%rsp
   1788e:	5f                   	pop    %rdi
   1788f:	c3                   	retq   
   17890:	cc                   	int3   
   17891:	cc                   	int3   
   17892:	cc                   	int3   
   17893:	cc                   	int3   
   17894:	cc                   	int3   
   17895:	cc                   	int3   
   17896:	cc                   	int3   
   17897:	cc                   	int3   
   17898:	48 89 5c 24 08       	mov    %rbx,0x8(%rsp)
   1789d:	57                   	push   %rdi
   1789e:	48 83 ec 20          	sub    $0x20,%rsp
   178a2:	0f b7 da             	movzwl %dx,%ebx
   178a5:	48 8b f9             	mov    %rcx,%rdi
   178a8:	48 8d 0d 19 6c 01 00 	lea    0x16c19(%rip),%rcx        # 0x2e4c8
   178af:	ff 15 43 a9 00 00    	callq  *0xa943(%rip)        # 0x221f8
   178b5:	90                   	nop
   178b6:	83 3d 53 70 01 00 00 	cmpl   $0x0,0x17053(%rip)        # 0x2e910
   178bd:	75 3b                	jne    0x178fa
   178bf:	48 89 3d b2 6b 01 00 	mov    %rdi,0x16bb2(%rip)        # 0x2e478
   178c6:	c7 05 40 70 01 00 01 	movl   $0x1,0x17040(%rip)        # 0x2e910
   178cd:	00 00 00 
   178d0:	66 89 1d 35 6b 01 00 	mov    %bx,0x16b35(%rip)        # 0x2e40c
   178d7:	48 8d 0d 42 6c 01 00 	lea    0x16c42(%rip),%rcx        # 0x2e520
   178de:	ff 15 14 a9 00 00    	callq  *0xa914(%rip)        # 0x221f8
   178e4:	0f b7 cb             	movzwl %bx,%ecx
   178e7:	e8 78 0e 00 00       	callq  0x18764
   178ec:	48 8d 0d 2d 6c 01 00 	lea    0x16c2d(%rip),%rcx        # 0x2e520
   178f3:	ff 15 f7 a8 00 00    	callq  *0xa8f7(%rip)        # 0x221f0
   178f9:	90                   	nop
   178fa:	48 8d 0d c7 6b 01 00 	lea    0x16bc7(%rip),%rcx        # 0x2e4c8
   17901:	ff 15 e9 a8 00 00    	callq  *0xa8e9(%rip)        # 0x221f0
   17907:	33 c0                	xor    %eax,%eax
   17909:	48 8b 5c 24 30       	mov    0x30(%rsp),%rbx
   1790e:	48 83 c4 20          	add    $0x20,%rsp
   17912:	5f                   	pop    %rdi
   17913:	c3                   	retq   
   17914:	cc                   	int3   
   17915:	cc                   	int3   
   17916:	cc                   	int3   
   17917:	cc                   	int3   
   17918:	40 55                	rex push %rbp
   1791a:	48 83 ec 20          	sub    $0x20,%rsp
   1791e:	48 8b ea             	mov    %rdx,%rbp
   17921:	48 8d 0d a0 6b 01 00 	lea    0x16ba0(%rip),%rcx        # 0x2e4c8
   17928:	ff 15 c2 a8 00 00    	callq  *0xa8c2(%rip)        # 0x221f0
   1792e:	48 83 c4 20          	add    $0x20,%rsp
   17932:	5d                   	pop    %rbp
   17933:	c3                   	retq   
   17934:	cc                   	int3   
   17935:	cc                   	int3   
   17936:	cc                   	int3   
   17937:	cc                   	int3   
   17938:	cc                   	int3   
   17939:	cc                   	int3   
   1793a:	cc                   	int3   
   1793b:	cc                   	int3   
   1793c:	48 89 5c 24 08       	mov    %rbx,0x8(%rsp)
   17941:	57                   	push   %rdi
   17942:	48 83 ec 30          	sub    $0x30,%rsp
   17946:	48 8d 0d 7b 6b 01 00 	lea    0x16b7b(%rip),%rcx        # 0x2e4c8
   1794d:	ff 15 a5 a8 00 00    	callq  *0xa8a5(%rip)        # 0x221f8
   17953:	90                   	nop
   17954:	33 ff                	xor    %edi,%edi
   17956:	39 3d b4 6f 01 00    	cmp    %edi,0x16fb4(%rip)        # 0x2e910
   1795c:	0f 84 95 00 00 00    	je     0x179f7
   17962:	89 3d a8 6f 01 00    	mov    %edi,0x16fa8(%rip)        # 0x2e910
   17968:	48 8d 0d b1 6b 01 00 	lea    0x16bb1(%rip),%rcx        # 0x2e520
   1796f:	ff 15 83 a8 00 00    	callq  *0xa883(%rip)        # 0x221f8
   17975:	48 8b 1d dc 6f 01 00 	mov    0x16fdc(%rip),%rbx        # 0x2e958
   1797c:	0f b7 d7             	movzwl %di,%edx
   1797f:	44 0f b7 43 10       	movzwl 0x10(%rbx),%r8d
   17984:	41 d1 e8             	shr    %r8d
   17987:	66 89 7b 12          	mov    %di,0x12(%rbx)
   1798b:	8b cf                	mov    %edi,%ecx
   1798d:	89 4c 24 20          	mov    %ecx,0x20(%rsp)
   17991:	41 3b c8             	cmp    %r8d,%ecx
   17994:	73 0f                	jae    0x179a5
   17996:	8b c1                	mov    %ecx,%eax
   17998:	66 33 14 43          	xor    (%rbx,%rax,2),%dx
   1799c:	83 c1 01             	add    $0x1,%ecx
   1799f:	89 4c 24 20          	mov    %ecx,0x20(%rsp)
   179a3:	eb ec                	jmp    0x17991
   179a5:	66 89 53 12          	mov    %dx,0x12(%rbx)
   179a9:	48 89 3d a8 6f 01 00 	mov    %rdi,0x16fa8(%rip)        # 0x2e958
   179b0:	48 8d 0d 69 6b 01 00 	lea    0x16b69(%rip),%rcx        # 0x2e520
   179b7:	ff 15 33 a8 00 00    	callq  *0xa833(%rip)        # 0x221f0
   179bd:	48 89 5c 24 28       	mov    %rbx,0x28(%rsp)
   179c2:	66 83 7b 10 14       	cmpw   $0x14,0x10(%rbx)
   179c7:	76 1d                	jbe    0x179e6
   179c9:	45 33 c0             	xor    %r8d,%r8d
   179cc:	48 8b d3             	mov    %rbx,%rdx
   179cf:	48 8b 0d a2 6a 01 00 	mov    0x16aa2(%rip),%rcx        # 0x2e478
   179d6:	e8 05 0d 00 00       	callq  0x186e0
   179db:	3b c7                	cmp    %edi,%eax
   179dd:	48 0f 45 df          	cmovne %rdi,%rbx
   179e1:	48 89 5c 24 28       	mov    %rbx,0x28(%rsp)
   179e6:	48 3b df             	cmp    %rdi,%rbx
   179e9:	74 0c                	je     0x179f7
   179eb:	33 d2                	xor    %edx,%edx
   179ed:	48 8b cb             	mov    %rbx,%rcx
   179f0:	ff 15 12 a6 00 00    	callq  *0xa612(%rip)        # 0x22008
   179f6:	90                   	nop
   179f7:	48 8d 0d ca 6a 01 00 	lea    0x16aca(%rip),%rcx        # 0x2e4c8
   179fe:	ff 15 ec a7 00 00    	callq  *0xa7ec(%rip)        # 0x221f0
   17a04:	48 8b 5c 24 40       	mov    0x40(%rsp),%rbx
   17a09:	48 83 c4 30          	add    $0x30,%rsp
   17a0d:	5f                   	pop    %rdi
   17a0e:	c3                   	retq   
   17a0f:	cc                   	int3   
   17a10:	cc                   	int3   
   17a11:	cc                   	int3   
   17a12:	cc                   	int3   
   17a13:	cc                   	int3   
   17a14:	cc                   	int3   
   17a15:	cc                   	int3   
   17a16:	cc                   	int3   
   17a17:	cc                   	int3   
   17a18:	cc                   	int3   
   17a19:	cc                   	int3   
   17a1a:	cc                   	int3   
   17a1b:	cc                   	int3   
   17a1c:	40 55                	rex push %rbp
   17a1e:	48 83 ec 20          	sub    $0x20,%rsp
   17a22:	48 8b ea             	mov    %rdx,%rbp
   17a25:	48 8d 0d 9c 6a 01 00 	lea    0x16a9c(%rip),%rcx        # 0x2e4c8
   17a2c:	ff 15 be a7 00 00    	callq  *0xa7be(%rip)        # 0x221f0
   17a32:	48 83 c4 20          	add    $0x20,%rsp
   17a36:	5d                   	pop    %rbp
   17a37:	c3                   	retq   
   17a38:	cc                   	int3   
   17a39:	cc                   	int3   
   17a3a:	cc                   	int3   
   17a3b:	cc                   	int3   
   17a3c:	cc                   	int3   
   17a3d:	cc                   	int3   
   17a3e:	cc                   	int3   
   17a3f:	cc                   	int3   
   17a40:	48 8b c4             	mov    %rsp,%rax
   17a43:	48 89 58 08          	mov    %rbx,0x8(%rax)
   17a47:	48 89 70 10          	mov    %rsi,0x10(%rax)
   17a4b:	48 89 78 18          	mov    %rdi,0x18(%rax)
   17a4f:	41 54                	push   %r12
   17a51:	48 83 ec 40          	sub    $0x40,%rsp
   17a55:	33 db                	xor    %ebx,%ebx
   17a57:	48 89 58 e0          	mov    %rbx,-0x20(%rax)
   17a5b:	48 39 1d 3e 6d 01 00 	cmp    %rbx,0x16d3e(%rip)        # 0x2e7a0
   17a62:	75 5e                	jne    0x17ac2
   17a64:	48 39 1d 3d 6d 01 00 	cmp    %rbx,0x16d3d(%rip)        # 0x2e7a8
   17a6b:	74 55                	je     0x17ac2
   17a6d:	48 39 1d 3c 6d 01 00 	cmp    %rbx,0x16d3c(%rip)        # 0x2e7b0
   17a74:	74 4c                	je     0x17ac2
   17a76:	48 39 1d 3b 6d 01 00 	cmp    %rbx,0x16d3b(%rip)        # 0x2e7b8
   17a7d:	74 43                	je     0x17ac2
   17a7f:	48 39 1d 3a 6d 01 00 	cmp    %rbx,0x16d3a(%rip)        # 0x2e7c0
   17a86:	74 3a                	je     0x17ac2
   17a88:	48 39 1d 39 6d 01 00 	cmp    %rbx,0x16d39(%rip)        # 0x2e7c8
   17a8f:	74 31                	je     0x17ac2
   17a91:	48 39 1d 38 6d 01 00 	cmp    %rbx,0x16d38(%rip)        # 0x2e7d0
   17a98:	74 28                	je     0x17ac2
   17a9a:	48 39 1d 37 6d 01 00 	cmp    %rbx,0x16d37(%rip)        # 0x2e7d8
   17aa1:	74 1f                	je     0x17ac2
   17aa3:	48 39 1d 36 6d 01 00 	cmp    %rbx,0x16d36(%rip)        # 0x2e7e0
   17aaa:	74 16                	je     0x17ac2
   17aac:	48 39 1d 35 6d 01 00 	cmp    %rbx,0x16d35(%rip)        # 0x2e7e8
   17ab3:	74 0d                	je     0x17ac2
   17ab5:	48 39 1d 34 6d 01 00 	cmp    %rbx,0x16d34(%rip)        # 0x2e7f0
   17abc:	0f 85 da 00 00 00    	jne    0x17b9c
   17ac2:	4c 8d 44 24 68       	lea    0x68(%rsp),%r8
   17ac7:	48 8d 54 24 28       	lea    0x28(%rsp),%rdx
   17acc:	e8 97 1d 00 00       	callq  0x19868
   17ad1:	3b c3                	cmp    %ebx,%eax
   17ad3:	0f 85 c3 00 00 00    	jne    0x17b9c
   17ad9:	8b 44 24 68          	mov    0x68(%rsp),%eax
   17add:	b9 00 10 00 00       	mov    $0x1000,%ecx
   17ae2:	3b c1                	cmp    %ecx,%eax
   17ae4:	66 0f 47 c1          	cmova  %cx,%ax
   17ae8:	0f b7 c0             	movzwl %ax,%eax
   17aeb:	48 8b 7c 24 28       	mov    0x28(%rsp),%rdi
   17af0:	48 8d 74 38 fe       	lea    -0x2(%rax,%rdi,1),%rsi
   17af5:	48 89 74 24 30       	mov    %rsi,0x30(%rsp)
   17afa:	44 0f b7 26          	movzwl (%rsi),%r12d
   17afe:	66 44 89 64 24 68    	mov    %r12w,0x68(%rsp)
   17b04:	66 89 1e             	mov    %bx,(%rsi)
   17b07:	39 1d 03 6e 01 00    	cmp    %ebx,0x16e03(%rip)        # 0x2e910
   17b0d:	74 73                	je     0x17b82
   17b0f:	48 83 c0 04          	add    $0x4,%rax
   17b13:	66 89 44 24 22       	mov    %ax,0x22(%rsp)
   17b18:	66 3b 05 ed 68 01 00 	cmp    0x168ed(%rip),%ax        # 0x2e40c
   17b1f:	73 61                	jae    0x17b82
   17b21:	66 c7 44 24 20 a1 02 	movw   $0x2a1,0x20(%rsp)
   17b28:	45 33 c9             	xor    %r9d,%r9d
   17b2b:	45 33 c0             	xor    %r8d,%r8d
   17b2e:	66 ba 04 00          	mov    $0x4,%dx
   17b32:	48 8d 4c 24 20       	lea    0x20(%rsp),%rcx
   17b37:	e8 d4 0e 00 00       	callq  0x18a10
   17b3c:	48 3b c3             	cmp    %rbx,%rax
   17b3f:	74 12                	je     0x17b53
   17b41:	45 33 c0             	xor    %r8d,%r8d
   17b44:	48 8b d0             	mov    %rax,%rdx
   17b47:	48 8b 0d 2a 69 01 00 	mov    0x1692a(%rip),%rcx        # 0x2e478
   17b4e:	e8 8d 0b 00 00       	callq  0x186e0
   17b53:	0f b7 54 24 22       	movzwl 0x22(%rsp),%edx
   17b58:	66 83 ea 04          	sub    $0x4,%dx
   17b5c:	45 33 c9             	xor    %r9d,%r9d
   17b5f:	45 33 c0             	xor    %r8d,%r8d
   17b62:	48 8b cf             	mov    %rdi,%rcx
   17b65:	e8 a6 0e 00 00       	callq  0x18a10
   17b6a:	48 3b c3             	cmp    %rbx,%rax
   17b6d:	74 13                	je     0x17b82
   17b6f:	45 33 c0             	xor    %r8d,%r8d
   17b72:	48 8b d0             	mov    %rax,%rdx
   17b75:	48 8b 0d fc 68 01 00 	mov    0x168fc(%rip),%rcx        # 0x2e478
   17b7c:	e8 5f 0b 00 00       	callq  0x186e0
   17b81:	90                   	nop
   17b82:	66 44 89 26          	mov    %r12w,(%rsi)
   17b86:	48 3b fb             	cmp    %rbx,%rdi
   17b89:	74 11                	je     0x17b9c
   17b8b:	ff 15 57 6c 01 00    	callq  *0x16c57(%rip)        # 0x2e7e8
   17b91:	48 8b d0             	mov    %rax,%rdx
   17b94:	48 8b cf             	mov    %rdi,%rcx
   17b97:	e8 d8 12 00 00       	callq  0x18e74
   17b9c:	48 8b 5c 24 50       	mov    0x50(%rsp),%rbx
   17ba1:	48 8b 74 24 58       	mov    0x58(%rsp),%rsi
   17ba6:	48 8b 7c 24 60       	mov    0x60(%rsp),%rdi
   17bab:	48 83 c4 40          	add    $0x40,%rsp
   17baf:	41 5c                	pop    %r12
   17bb1:	c3                   	retq   
   17bb2:	cc                   	int3   
   17bb3:	cc                   	int3   
   17bb4:	cc                   	int3   
   17bb5:	cc                   	int3   
   17bb6:	cc                   	int3   
   17bb7:	cc                   	int3   
   17bb8:	cc                   	int3   
   17bb9:	cc                   	int3   
   17bba:	cc                   	int3   
   17bbb:	cc                   	int3   
   17bbc:	cc                   	int3   
   17bbd:	cc                   	int3   
   17bbe:	cc                   	int3   
   17bbf:	cc                   	int3   
   17bc0:	40 53                	rex push %rbx
   17bc2:	55                   	push   %rbp
   17bc3:	48 83 ec 28          	sub    $0x28,%rsp
   17bc7:	48 8b ea             	mov    %rdx,%rbp
   17bca:	48 8b 4d 30          	mov    0x30(%rbp),%rcx
   17bce:	0f b7 45 68          	movzwl 0x68(%rbp),%eax
   17bd2:	66 89 01             	mov    %ax,(%rcx)
   17bd5:	33 db                	xor    %ebx,%ebx
   17bd7:	48 39 5d 28          	cmp    %rbx,0x28(%rbp)
   17bdb:	74 12                	je     0x17bef
   17bdd:	ff 15 05 6c 01 00    	callq  *0x16c05(%rip)        # 0x2e7e8
   17be3:	48 8b d0             	mov    %rax,%rdx
   17be6:	48 8b 4d 28          	mov    0x28(%rbp),%rcx
   17bea:	e8 85 12 00 00       	callq  0x18e74
   17bef:	48 83 c4 28          	add    $0x28,%rsp
   17bf3:	5d                   	pop    %rbp
   17bf4:	5b                   	pop    %rbx
   17bf5:	c3                   	retq   
   17bf6:	cc                   	int3   
   17bf7:	cc                   	int3   
   17bf8:	cc                   	int3   
   17bf9:	cc                   	int3   
   17bfa:	cc                   	int3   
   17bfb:	cc                   	int3   
   17bfc:	48 89 5c 24 08       	mov    %rbx,0x8(%rsp)
   17c01:	57                   	push   %rdi
   17c02:	48 83 ec 30          	sub    $0x30,%rsp
   17c06:	48 8b fa             	mov    %rdx,%rdi
   17c09:	48 8b d9             	mov    %rcx,%rbx
   17c0c:	ba 30 00 00 00       	mov    $0x30,%edx
   17c11:	44 8d 42 d1          	lea    -0x2f(%rdx),%r8d
   17c15:	ff 15 cd a5 00 00    	callq  *0xa5cd(%rip)        # 0x221e8
   17c1b:	48 85 ff             	test   %rdi,%rdi
   17c1e:	75 08                	jne    0x17c28
   17c20:	48 8b 3b             	mov    (%rbx),%rdi
   17c23:	48 89 7c 24 48       	mov    %rdi,0x48(%rsp)
   17c28:	8b 53 08             	mov    0x8(%rbx),%edx
   17c2b:	81 fa 00 01 00 00    	cmp    $0x100,%edx
   17c31:	72 64                	jb     0x17c97
   17c33:	81 fa 02 01 00 00    	cmp    $0x102,%edx
   17c39:	76 23                	jbe    0x17c5e
   17c3b:	81 fa 09 01 00 00    	cmp    $0x109,%edx
   17c41:	74 1b                	je     0x17c5e
   17c43:	81 fa 0f 01 00 00    	cmp    $0x10f,%edx
   17c49:	74 13                	je     0x17c5e
   17c4b:	81 fa 86 02 00 00    	cmp    $0x286,%edx
   17c51:	74 0b                	je     0x17c5e
   17c53:	8d 82 00 fd ff ff    	lea    -0x300(%rdx),%eax
   17c59:	83 f8 02             	cmp    $0x2,%eax
   17c5c:	77 39                	ja     0x17c97
   17c5e:	83 3d ab 6c 01 00 00 	cmpl   $0x0,0x16cab(%rip)        # 0x2e910
   17c65:	74 30                	je     0x17c97
   17c67:	8b 43 20             	mov    0x20(%rbx),%eax
   17c6a:	89 44 24 20          	mov    %eax,0x20(%rsp)
   17c6e:	4c 8b 4b 18          	mov    0x18(%rbx),%r9
   17c72:	4c 8b 43 10          	mov    0x10(%rbx),%r8
   17c76:	48 8b cf             	mov    %rdi,%rcx
   17c79:	e8 92 10 00 00       	callq  0x18d10
   17c7e:	48 85 c0             	test   %rax,%rax
   17c81:	74 14                	je     0x17c97
   17c83:	45 33 c0             	xor    %r8d,%r8d
   17c86:	48 8b d0             	mov    %rax,%rdx
   17c89:	48 8b 0d e8 67 01 00 	mov    0x167e8(%rip),%rcx        # 0x2e478
   17c90:	e8 4b 0a 00 00       	callq  0x186e0
   17c95:	eb 00                	jmp    0x17c97
   17c97:	48 8b 5c 24 40       	mov    0x40(%rsp),%rbx
   17c9c:	48 83 c4 30          	add    $0x30,%rsp
   17ca0:	5f                   	pop    %rdi
   17ca1:	c3                   	retq   
   17ca2:	cc                   	int3   
   17ca3:	cc                   	int3   
   17ca4:	cc                   	int3   
   17ca5:	cc                   	int3   
   17ca6:	cc                   	int3   
   17ca7:	cc                   	int3   
   17ca8:	48 89 5c 24 08       	mov    %rbx,0x8(%rsp)
   17cad:	48 89 74 24 10       	mov    %rsi,0x10(%rsp)
   17cb2:	57                   	push   %rdi
   17cb3:	48 83 ec 30          	sub    $0x30,%rsp
   17cb7:	48 83 64 24 20 00    	andq   $0x0,0x20(%rsp)
   17cbd:	48 8b 3d 54 6c 01 00 	mov    0x16c54(%rip),%rdi        # 0x2e918
   17cc4:	33 db                	xor    %ebx,%ebx
   17cc6:	48 89 5c 24 28       	mov    %rbx,0x28(%rsp)
   17ccb:	48 85 ff             	test   %rdi,%rdi
   17cce:	74 5e                	je     0x17d2e
   17cd0:	48 8d 4f 18          	lea    0x18(%rdi),%rcx
   17cd4:	ff 15 1e a5 00 00    	callq  *0xa51e(%rip)        # 0x221f8
   17cda:	44 8b 4f 08          	mov    0x8(%rdi),%r9d
   17cde:	8b 47 0c             	mov    0xc(%rdi),%eax
   17ce1:	44 3b c8             	cmp    %eax,%r9d
   17ce4:	74 3e                	je     0x17d24
   17ce6:	83 c0 01             	add    $0x1,%eax
   17ce9:	33 d2                	xor    %edx,%edx
   17ceb:	f7 77 10             	divl   0x10(%rdi)
   17cee:	45 33 c0             	xor    %r8d,%r8d
   17cf1:	41 3b d1             	cmp    %r9d,%edx
   17cf4:	41 0f 94 c0          	sete   %r8b
   17cf8:	48 8b 07             	mov    (%rdi),%rax
   17cfb:	4a 8b 1c c8          	mov    (%rax,%r9,8),%rbx
   17cff:	48 89 5c 24 28       	mov    %rbx,0x28(%rsp)
   17d04:	41 8d 41 01          	lea    0x1(%r9),%eax
   17d08:	33 d2                	xor    %edx,%edx
   17d0a:	f7 77 10             	divl   0x10(%rdi)
   17d0d:	89 57 08             	mov    %edx,0x8(%rdi)
   17d10:	45 85 c0             	test   %r8d,%r8d
   17d13:	74 0f                	je     0x17d24
   17d15:	48 8d 4f 50          	lea    0x50(%rdi),%rcx
   17d19:	45 33 c0             	xor    %r8d,%r8d
   17d1c:	33 d2                	xor    %edx,%edx
   17d1e:	ff 15 64 a3 00 00    	callq  *0xa364(%rip)        # 0x22088
   17d24:	48 8d 4f 18          	lea    0x18(%rdi),%rcx
   17d28:	ff 15 c2 a4 00 00    	callq  *0xa4c2(%rip)        # 0x221f0
   17d2e:	48 89 5c 24 20       	mov    %rbx,0x20(%rsp)
   17d33:	48 85 db             	test   %rbx,%rbx
   17d36:	75 07                	jne    0x17d3f
   17d38:	bf 22 00 00 80       	mov    $0x80000022,%edi
   17d3d:	eb 5d                	jmp    0x17d9c
   17d3f:	0f b7 3d ca 67 01 00 	movzwl 0x167ca(%rip),%edi        # 0x2e510
   17d46:	0f b7 4b 10          	movzwl 0x10(%rbx),%ecx
   17d4a:	03 cf                	add    %edi,%ecx
   17d4c:	0f b7 05 ad 67 01 00 	movzwl 0x167ad(%rip),%eax        # 0x2e500
   17d53:	3b c8                	cmp    %eax,%ecx
   17d55:	7c 19                	jl     0x17d70
   17d57:	0f b7 d7             	movzwl %di,%edx
   17d5a:	48 8b 0d cf 6b 01 00 	mov    0x16bcf(%rip),%rcx        # 0x2e930
   17d61:	e8 8a 00 00 00       	callq  0x17df0
   17d66:	66 33 ff             	xor    %di,%di
   17d69:	66 89 3d a0 67 01 00 	mov    %di,0x167a0(%rip)        # 0x2e510
   17d70:	44 0f b7 43 10       	movzwl 0x10(%rbx),%r8d
   17d75:	0f b7 cf             	movzwl %di,%ecx
   17d78:	48 03 0d b1 6b 01 00 	add    0x16bb1(%rip),%rcx        # 0x2e930
   17d7f:	48 8b d3             	mov    %rbx,%rdx
   17d82:	e8 99 87 00 00       	callq  0x20520
   17d87:	66 44 8b df          	mov    %di,%r11w
   17d8b:	66 8b 43 10          	mov    0x10(%rbx),%ax
   17d8f:	44 03 d8             	add    %eax,%r11d
   17d92:	66 44 89 1d 76 67 01 	mov    %r11w,0x16776(%rip)        # 0x2e510
   17d99:	00 
   17d9a:	33 ff                	xor    %edi,%edi
   17d9c:	48 85 db             	test   %rbx,%rbx
   17d9f:	74 0b                	je     0x17dac
   17da1:	33 d2                	xor    %edx,%edx
   17da3:	48 8b cb             	mov    %rbx,%rcx
   17da6:	ff 15 5c a2 00 00    	callq  *0xa25c(%rip)        # 0x22008
   17dac:	8b c7                	mov    %edi,%eax
   17dae:	48 8b 5c 24 40       	mov    0x40(%rsp),%rbx
   17db3:	48 8b 74 24 48       	mov    0x48(%rsp),%rsi
   17db8:	48 83 c4 30          	add    $0x30,%rsp
   17dbc:	5f                   	pop    %rdi
   17dbd:	c3                   	retq   
   17dbe:	cc                   	int3   
   17dbf:	cc                   	int3   
   17dc0:	cc                   	int3   
   17dc1:	cc                   	int3   
   17dc2:	cc                   	int3   
   17dc3:	cc                   	int3   
   17dc4:	cc                   	int3   
   17dc5:	cc                   	int3   
   17dc6:	cc                   	int3   
   17dc7:	cc                   	int3   
   17dc8:	40 55                	rex push %rbp
   17dca:	48 83 ec 20          	sub    $0x20,%rsp
   17dce:	48 8b ea             	mov    %rdx,%rbp
   17dd1:	48 8b 4d 20          	mov    0x20(%rbp),%rcx
   17dd5:	48 85 c9             	test   %rcx,%rcx
   17dd8:	74 08                	je     0x17de2
   17dda:	33 d2                	xor    %edx,%edx
   17ddc:	ff 15 26 a2 00 00    	callq  *0xa226(%rip)        # 0x22008
   17de2:	48 83 c4 20          	add    $0x20,%rsp
   17de6:	5d                   	pop    %rbp
   17de7:	c3                   	retq   
   17de8:	cc                   	int3   
   17de9:	cc                   	int3   
   17dea:	cc                   	int3   
   17deb:	cc                   	int3   
   17dec:	cc                   	int3   
   17ded:	cc                   	int3   
   17dee:	cc                   	int3   
   17def:	cc                   	int3   
   17df0:	48 89 5c 24 08       	mov    %rbx,0x8(%rsp)
   17df5:	48 89 6c 24 18       	mov    %rbp,0x18(%rsp)
   17dfa:	66 89 54 24 10       	mov    %dx,0x10(%rsp)
   17dff:	56                   	push   %rsi
   17e00:	57                   	push   %rdi
   17e01:	41 54                	push   %r12
   17e03:	48 83 ec 20          	sub    $0x20,%rsp
   17e07:	0f b7 1d 02 67 01 00 	movzwl 0x16702(%rip),%ebx        # 0x2e510
   17e0e:	4c 8b 25 1b 6b 01 00 	mov    0x16b1b(%rip),%r12        # 0x2e930
   17e15:	be 01 00 00 c0       	mov    $0xc0000001,%esi
   17e1a:	8b c3                	mov    %ebx,%eax
   17e1c:	8b eb                	mov    %ebx,%ebp
   17e1e:	c1 e8 03             	shr    $0x3,%eax
   17e21:	8d 8c 18 00 01 00 00 	lea    0x100(%rax,%rbx,1),%ecx
   17e28:	8b d1                	mov    %ecx,%edx
   17e2a:	89 4c 24 48          	mov    %ecx,0x48(%rsp)
   17e2e:	b9 01 00 00 00       	mov    $0x1,%ecx
   17e33:	48 83 c2 04          	add    $0x4,%rdx
   17e37:	ff 15 8b a2 00 00    	callq  *0xa28b(%rip)        # 0x220c8
   17e3d:	48 85 c0             	test   %rax,%rax
   17e40:	48 8b f8             	mov    %rax,%rdi
   17e43:	74 5c                	je     0x17ea1
   17e45:	4c 8d 4c 24 48       	lea    0x48(%rsp),%r9
   17e4a:	4c 8d 40 04          	lea    0x4(%rax),%r8
   17e4e:	8b d3                	mov    %ebx,%edx
   17e50:	49 8b cc             	mov    %r12,%rcx
   17e53:	66 89 58 02          	mov    %bx,0x2(%rax)
   17e57:	e8 ec 2b 00 00       	callq  0x1aa48
   17e5c:	85 c0                	test   %eax,%eax
   17e5e:	78 10                	js     0x17e70
   17e60:	8b 44 24 48          	mov    0x48(%rsp),%eax
   17e64:	3b c3                	cmp    %ebx,%eax
   17e66:	73 08                	jae    0x17e70
   17e68:	66 89 07             	mov    %ax,(%rdi)
   17e6b:	8d 58 04             	lea    0x4(%rax),%ebx
   17e6e:	eb 18                	jmp    0x17e88
   17e70:	66 83 27 00          	andw   $0x0,(%rdi)
   17e74:	48 8d 4f 04          	lea    0x4(%rdi),%rcx
   17e78:	44 0f b7 c3          	movzwl %bx,%r8d
   17e7c:	49 8b d4             	mov    %r12,%rdx
   17e7f:	e8 9c 86 00 00       	callq  0x20520
   17e84:	66 83 c3 04          	add    $0x4,%bx
   17e88:	0f b7 d3             	movzwl %bx,%edx
   17e8b:	48 8b cf             	mov    %rdi,%rcx
   17e8e:	ff 15 94 6a 01 00    	callq  *0x16a94(%rip)        # 0x2e928
   17e94:	33 d2                	xor    %edx,%edx
   17e96:	48 8b cf             	mov    %rdi,%rcx
   17e99:	8b f0                	mov    %eax,%esi
   17e9b:	ff 15 67 a1 00 00    	callq  *0xa167(%rip)        # 0x22008
   17ea1:	48 8b 5c 24 40       	mov    0x40(%rsp),%rbx
   17ea6:	48 8b 6c 24 50       	mov    0x50(%rsp),%rbp
   17eab:	8b c6                	mov    %esi,%eax
   17ead:	48 83 c4 20          	add    $0x20,%rsp
   17eb1:	41 5c                	pop    %r12
   17eb3:	5f                   	pop    %rdi
   17eb4:	5e                   	pop    %rsi
   17eb5:	c3                   	retq   
   17eb6:	cc                   	int3   
   17eb7:	cc                   	int3   
   17eb8:	cc                   	int3   
   17eb9:	cc                   	int3   
   17eba:	cc                   	int3   
   17ebb:	cc                   	int3   
   17ebc:	40 53                	rex push %rbx
   17ebe:	48 83 ec 20          	sub    $0x20,%rsp
   17ec2:	33 db                	xor    %ebx,%ebx
   17ec4:	b9 01 00 00 c0       	mov    $0xc0000001,%ecx
   17ec9:	48 c7 44 24 38 00 1f 	movq   $0xfffffffffa0a1f00,0x38(%rsp)
   17ed0:	0a fa 
   17ed2:	48 39 1d 3f 6a 01 00 	cmp    %rbx,0x16a3f(%rip)        # 0x2e918
   17ed9:	0f 84 88 00 00 00    	je     0x17f67
   17edf:	48 39 1d 42 6a 01 00 	cmp    %rbx,0x16a42(%rip)        # 0x2e928
   17ee6:	74 7f                	je     0x17f67
   17ee8:	39 1d 16 66 01 00    	cmp    %ebx,0x16616(%rip)        # 0x2e504
   17eee:	75 75                	jne    0x17f65
   17ef0:	81 fb 08 07 00 00    	cmp    $0x708,%ebx
   17ef6:	72 46                	jb     0x17f3e
   17ef8:	e8 3f fa ff ff       	callq  0x1793c
   17efd:	0f b7 15 fc 65 01 00 	movzwl 0x165fc(%rip),%edx        # 0x2e500
   17f04:	48 8b 0d 0d 6a 01 00 	mov    0x16a0d(%rip),%rcx        # 0x2e918
   17f0b:	e8 88 f9 ff ff       	callq  0x17898
   17f10:	e8 93 fd ff ff       	callq  0x17ca8
   17f15:	3d 22 00 00 80       	cmp    $0x80000022,%eax
   17f1a:	75 f4                	jne    0x17f10
   17f1c:	0f b7 15 ed 65 01 00 	movzwl 0x165ed(%rip),%edx        # 0x2e510
   17f23:	66 85 d2             	test   %dx,%dx
   17f26:	74 14                	je     0x17f3c
   17f28:	48 8b 0d 01 6a 01 00 	mov    0x16a01(%rip),%rcx        # 0x2e930
   17f2f:	e8 bc fe ff ff       	callq  0x17df0
   17f34:	66 83 25 d4 65 01 00 	andw   $0x0,0x165d4(%rip)        # 0x2e510
   17f3b:	00 
   17f3c:	33 db                	xor    %ebx,%ebx
   17f3e:	e8 65 fd ff ff       	callq  0x17ca8
   17f43:	3d 22 00 00 80       	cmp    $0x80000022,%eax
   17f48:	75 12                	jne    0x17f5c
   17f4a:	4c 8d 44 24 38       	lea    0x38(%rsp),%r8
   17f4f:	33 d2                	xor    %edx,%edx
   17f51:	33 c9                	xor    %ecx,%ecx
   17f53:	ff 15 c7 a0 00 00    	callq  *0xa0c7(%rip)        # 0x22020
   17f59:	83 c3 0a             	add    $0xa,%ebx
   17f5c:	83 3d a1 65 01 00 00 	cmpl   $0x0,0x165a1(%rip)        # 0x2e504
   17f63:	74 8b                	je     0x17ef0
   17f65:	33 c9                	xor    %ecx,%ecx
   17f67:	ff 15 cb a0 00 00    	callq  *0xa0cb(%rip)        # 0x22038
   17f6d:	48 83 c4 20          	add    $0x20,%rsp
   17f71:	5b                   	pop    %rbx
   17f72:	c3                   	retq   
   17f73:	cc                   	int3   
   17f74:	cc                   	int3   
   17f75:	cc                   	int3   
   17f76:	cc                   	int3   
   17f77:	cc                   	int3   
   17f78:	cc                   	int3   
   17f79:	cc                   	int3   
   17f7a:	cc                   	int3   
   17f7b:	cc                   	int3   
   17f7c:	48 89 5c 24 08       	mov    %rbx,0x8(%rsp)
   17f81:	48 89 74 24 10       	mov    %rsi,0x10(%rsp)
   17f86:	57                   	push   %rdi
   17f87:	48 83 ec 40          	sub    $0x40,%rsp
   17f8b:	83 3d 82 69 01 00 00 	cmpl   $0x0,0x16982(%rip)        # 0x2e914
   17f92:	48 8b 35 5f 69 01 00 	mov    0x1695f(%rip),%rsi        # 0x2e8f8
   17f99:	48 8b f9             	mov    %rcx,%rdi
   17f9c:	bb 01 00 00 c0       	mov    $0xc0000001,%ebx
   17fa1:	74 07                	je     0x17faa
   17fa3:	33 db                	xor    %ebx,%ebx
   17fa5:	e9 e4 00 00 00       	jmpq   0x1808e
   17faa:	66 83 25 5e 65 01 00 	andw   $0x0,0x1655e(%rip)        # 0x2e510
   17fb1:	00 
   17fb2:	41 0f b7 d0          	movzwl %r8w,%edx
   17fb6:	b9 01 00 00 00       	mov    $0x1,%ecx
   17fbb:	66 44 89 05 3d 65 01 	mov    %r8w,0x1653d(%rip)        # 0x2e500
   17fc2:	00 
   17fc3:	ff 15 ff a0 00 00    	callq  *0xa0ff(%rip)        # 0x220c8
   17fc9:	48 85 c0             	test   %rax,%rax
   17fcc:	48 89 05 5d 69 01 00 	mov    %rax,0x1695d(%rip)        # 0x2e930
   17fd3:	0f 84 ad 00 00 00    	je     0x18086
   17fd9:	48 83 64 24 30 00    	andq   $0x0,0x30(%rsp)
   17fdf:	83 25 1e 65 01 00 00 	andl   $0x0,0x1651e(%rip)        # 0x2e504
   17fe6:	48 89 3d 3b 69 01 00 	mov    %rdi,0x1693b(%rip)        # 0x2e928
   17fed:	48 8d 05 c8 fe ff ff 	lea    -0x138(%rip),%rax        # 0x17ebc
   17ff4:	bf ff 03 1f 00       	mov    $0x1f03ff,%edi
   17ff9:	48 8d 0d 08 65 01 00 	lea    0x16508(%rip),%rcx        # 0x2e508
   18000:	48 89 44 24 28       	mov    %rax,0x28(%rsp)
   18005:	48 83 64 24 20 00    	andq   $0x0,0x20(%rsp)
   1800b:	45 33 c9             	xor    %r9d,%r9d
   1800e:	8b d7                	mov    %edi,%edx
   18010:	45 33 c0             	xor    %r8d,%r8d
   18013:	48 89 35 fe 68 01 00 	mov    %rsi,0x168fe(%rip)        # 0x2e918
   1801a:	ff 15 a0 a0 00 00    	callq  *0xa0a0(%rip)        # 0x220c0
   18020:	85 c0                	test   %eax,%eax
   18022:	8b d8                	mov    %eax,%ebx
   18024:	78 44                	js     0x1806a
   18026:	48 8b 0d db 64 01 00 	mov    0x164db(%rip),%rcx        # 0x2e508
   1802d:	48 83 64 24 28 00    	andq   $0x0,0x28(%rsp)
   18033:	48 8d 05 e6 68 01 00 	lea    0x168e6(%rip),%rax        # 0x2e920
   1803a:	45 33 c9             	xor    %r9d,%r9d
   1803d:	45 33 c0             	xor    %r8d,%r8d
   18040:	8b d7                	mov    %edi,%edx
   18042:	48 89 44 24 20       	mov    %rax,0x20(%rsp)
   18047:	ff 15 8b a0 00 00    	callq  *0xa08b(%rip)        # 0x220d8
   1804d:	48 8b 0d b4 64 01 00 	mov    0x164b4(%rip),%rcx        # 0x2e508
   18054:	8b d8                	mov    %eax,%ebx
   18056:	ff 15 74 a0 00 00    	callq  *0xa074(%rip)        # 0x220d0
   1805c:	85 db                	test   %ebx,%ebx
   1805e:	c7 05 ac 68 01 00 01 	movl   $0x1,0x168ac(%rip)        # 0x2e914
   18065:	00 00 00 
   18068:	79 24                	jns    0x1808e
   1806a:	48 8b 0d bf 68 01 00 	mov    0x168bf(%rip),%rcx        # 0x2e930
   18071:	48 85 c9             	test   %rcx,%rcx
   18074:	74 10                	je     0x18086
   18076:	33 d2                	xor    %edx,%edx
   18078:	ff 15 8a 9f 00 00    	callq  *0x9f8a(%rip)        # 0x22008
   1807e:	48 83 25 aa 68 01 00 	andq   $0x0,0x168aa(%rip)        # 0x2e930
   18085:	00 
   18086:	48 83 25 92 68 01 00 	andq   $0x0,0x16892(%rip)        # 0x2e920
   1808d:	00 
   1808e:	48 8b 74 24 58       	mov    0x58(%rsp),%rsi
   18093:	8b c3                	mov    %ebx,%eax
   18095:	48 8b 5c 24 50       	mov    0x50(%rsp),%rbx
   1809a:	48 83 c4 40          	add    $0x40,%rsp
   1809e:	5f                   	pop    %rdi
   1809f:	c3                   	retq   
   180a0:	cc                   	int3   
   180a1:	cc                   	int3   
   180a2:	cc                   	int3   
   180a3:	cc                   	int3   
   180a4:	cc                   	int3   
   180a5:	cc                   	int3   
   180a6:	cc                   	int3   
   180a7:	cc                   	int3   
   180a8:	48 83 ec 38          	sub    $0x38,%rsp
   180ac:	b8 01 00 00 c0       	mov    $0xc0000001,%eax
   180b1:	c7 05 49 64 01 00 01 	movl   $0x1,0x16449(%rip)        # 0x2e504
   180b8:	00 00 00 
   180bb:	83 3d 52 68 01 00 00 	cmpl   $0x0,0x16852(%rip)        # 0x2e914
   180c2:	0f 84 90 00 00 00    	je     0x18158
   180c8:	48 8b 0d 51 68 01 00 	mov    0x16851(%rip),%rcx        # 0x2e920
   180cf:	48 85 c9             	test   %rcx,%rcx
   180d2:	0f 84 80 00 00 00    	je     0x18158
   180d8:	48 83 3d 38 68 01 00 	cmpq   $0x0,0x16838(%rip)        # 0x2e918
   180df:	00 
   180e0:	74 76                	je     0x18158
   180e2:	48 83 3d 3e 68 01 00 	cmpq   $0x0,0x1683e(%rip)        # 0x2e928
   180e9:	00 
   180ea:	74 6c                	je     0x18158
   180ec:	83 25 21 68 01 00 00 	andl   $0x0,0x16821(%rip)        # 0x2e914
   180f3:	48 83 64 24 20 00    	andq   $0x0,0x20(%rsp)
   180f9:	45 33 c9             	xor    %r9d,%r9d
   180fc:	45 33 c0             	xor    %r8d,%r8d
   180ff:	33 d2                	xor    %edx,%edx
   18101:	ff 15 d9 9f 00 00    	callq  *0x9fd9(%rip)        # 0x220e0
   18107:	48 8b 0d 12 68 01 00 	mov    0x16812(%rip),%rcx        # 0x2e920
   1810e:	ff 15 14 a0 00 00    	callq  *0xa014(%rip)        # 0x22128
   18114:	e8 8f fb ff ff       	callq  0x17ca8
   18119:	3d 22 00 00 80       	cmp    $0x80000022,%eax
   1811e:	74 02                	je     0x18122
   18120:	eb f2                	jmp    0x18114
   18122:	0f b7 15 e7 63 01 00 	movzwl 0x163e7(%rip),%edx        # 0x2e510
   18129:	66 85 d2             	test   %dx,%dx
   1812c:	74 0c                	je     0x1813a
   1812e:	48 8b 0d fb 67 01 00 	mov    0x167fb(%rip),%rcx        # 0x2e930
   18135:	e8 b6 fc ff ff       	callq  0x17df0
   1813a:	48 8b 0d ef 67 01 00 	mov    0x167ef(%rip),%rcx        # 0x2e930
   18141:	48 85 c9             	test   %rcx,%rcx
   18144:	74 08                	je     0x1814e
   18146:	33 d2                	xor    %edx,%edx
   18148:	ff 15 ba 9e 00 00    	callq  *0x9eba(%rip)        # 0x22008
   1814e:	48 83 25 da 67 01 00 	andq   $0x0,0x167da(%rip)        # 0x2e930
   18155:	00 
   18156:	33 c0                	xor    %eax,%eax
   18158:	48 83 c4 38          	add    $0x38,%rsp
   1815c:	c3                   	retq   
   1815d:	cc                   	int3   
   1815e:	cc                   	int3   
   1815f:	cc                   	int3   
   18160:	cc                   	int3   
   18161:	cc                   	int3   
   18162:	cc                   	int3   
   18163:	cc                   	int3   
   18164:	cc                   	int3   
   18165:	cc                   	int3   
   18166:	cc                   	int3   
   18167:	cc                   	int3   
   18168:	40 55                	rex push %rbp
   1816a:	48 83 ec 30          	sub    $0x30,%rsp
   1816e:	48 8b ea             	mov    %rdx,%rbp
   18171:	48 83 c4 30          	add    $0x30,%rsp
   18175:	5d                   	pop    %rbp
   18176:	c3                   	retq   
   18177:	cc                   	int3   
   18178:	cc                   	int3   
   18179:	cc                   	int3   
   1817a:	cc                   	int3   
   1817b:	cc                   	int3   
   1817c:	cc                   	int3   
   1817d:	cc                   	int3   
   1817e:	cc                   	int3   
   1817f:	cc                   	int3   
   18180:	48 8b c4             	mov    %rsp,%rax
   18183:	48 89 58 20          	mov    %rbx,0x20(%rax)
   18187:	55                   	push   %rbp
   18188:	56                   	push   %rsi
   18189:	41 54                	push   %r12
   1818b:	41 55                	push   %r13
   1818d:	41 56                	push   %r14
   1818f:	48 83 ec 70          	sub    $0x70,%rsp
   18193:	45 33 ed             	xor    %r13d,%r13d
   18196:	66 c7 40 88 18 8a    	movw   $0x8a18,-0x78(%rax)
   1819c:	66 c7 40 8a 64 e6    	movw   $0xe664,-0x76(%rax)
   181a2:	4c 39 2d f7 65 01 00 	cmp    %r13,0x165f7(%rip)        # 0x2e7a0
   181a9:	66 c7 40 8c 9f f5    	movw   $0xf59f,-0x74(%rax)
   181af:	66 c7 40 8e 2e 86    	movw   $0x862e,-0x72(%rax)
   181b5:	66 c7 40 90 6a eb    	movw   $0xeb6a,-0x70(%rax)
   181bb:	66 c7 40 92 4f 80    	movw   $0x804f,-0x6e(%rax)
   181c1:	66 c7 40 94 d2 95    	movw   $0x95d2,-0x6c(%rax)
   181c7:	66 c7 40 96 09 e0    	movw   $0xe009,-0x6a(%rax)
   181cd:	66 c7 40 98 70 a4    	movw   $0xa470,-0x68(%rax)
   181d3:	66 44 89 68 9a       	mov    %r13w,-0x66(%rax)
   181d8:	44 89 68 08          	mov    %r13d,0x8(%rax)
   181dc:	75 5e                	jne    0x1823c
   181de:	4c 39 2d c3 65 01 00 	cmp    %r13,0x165c3(%rip)        # 0x2e7a8
   181e5:	74 55                	je     0x1823c
   181e7:	4c 39 2d c2 65 01 00 	cmp    %r13,0x165c2(%rip)        # 0x2e7b0
   181ee:	74 4c                	je     0x1823c
   181f0:	4c 39 2d c1 65 01 00 	cmp    %r13,0x165c1(%rip)        # 0x2e7b8
   181f7:	74 43                	je     0x1823c
   181f9:	4c 39 2d c0 65 01 00 	cmp    %r13,0x165c0(%rip)        # 0x2e7c0
   18200:	74 3a                	je     0x1823c
   18202:	4c 39 2d bf 65 01 00 	cmp    %r13,0x165bf(%rip)        # 0x2e7c8
   18209:	74 31                	je     0x1823c
   1820b:	4c 39 2d be 65 01 00 	cmp    %r13,0x165be(%rip)        # 0x2e7d0
   18212:	74 28                	je     0x1823c
   18214:	4c 39 2d bd 65 01 00 	cmp    %r13,0x165bd(%rip)        # 0x2e7d8
   1821b:	74 1f                	je     0x1823c
   1821d:	4c 39 2d bc 65 01 00 	cmp    %r13,0x165bc(%rip)        # 0x2e7e0
   18224:	74 16                	je     0x1823c
   18226:	4c 39 2d bb 65 01 00 	cmp    %r13,0x165bb(%rip)        # 0x2e7e8
   1822d:	74 0d                	je     0x1823c
   1822f:	4c 39 2d ba 65 01 00 	cmp    %r13,0x165ba(%rip)        # 0x2e7f0
   18236:	0f 85 e4 02 00 00    	jne    0x18520
   1823c:	48 8d 8c 24 a8 00 00 	lea    0xa8(%rsp),%rcx
   18243:	00 
   18244:	45 33 c9             	xor    %r9d,%r9d
   18247:	45 33 c0             	xor    %r8d,%r8d
   1824a:	33 d2                	xor    %edx,%edx
   1824c:	e8 6f b7 ff ff       	callq  0x139c0
   18251:	41 3b c5             	cmp    %r13d,%eax
   18254:	0f 85 c6 02 00 00    	jne    0x18520
   1825a:	8b 84 24 a8 00 00 00 	mov    0xa8(%rsp),%eax
   18261:	48 8d 54 24 20       	lea    0x20(%rsp),%rdx
   18266:	b9 80 b8 00 00       	mov    $0xb880,%ecx
   1826b:	89 05 d7 66 01 00    	mov    %eax,0x166d7(%rip)        # 0x2e948
   18271:	e8 56 3d 00 00       	callq  0x1bfcc
   18276:	48 8d 94 24 b0 00 00 	lea    0xb0(%rsp),%rdx
   1827d:	00 
   1827e:	48 8d 4c 24 20       	lea    0x20(%rsp),%rcx
   18283:	e8 64 b5 ff ff       	callq  0x137ec
   18288:	48 8d 54 24 20       	lea    0x20(%rsp),%rdx
   1828d:	b9 80 b8 00 00       	mov    $0xb880,%ecx
   18292:	8b d8                	mov    %eax,%ebx
   18294:	e8 33 3d 00 00       	callq  0x1bfcc
   18299:	41 3b dd             	cmp    %r13d,%ebx
   1829c:	0f 8c 7e 02 00 00    	jl     0x18520
   182a2:	48 8b 8c 24 b0 00 00 	mov    0xb0(%rsp),%rcx
   182a9:	00 
   182aa:	48 8d 15 87 66 01 00 	lea    0x16687(%rip),%rdx        # 0x2e938
   182b1:	e8 72 b3 ff ff       	callq  0x13628
   182b6:	41 3b c5             	cmp    %r13d,%eax
   182b9:	0f 8c 61 02 00 00    	jl     0x18520
   182bf:	48 8b 0d 72 66 01 00 	mov    0x16672(%rip),%rcx        # 0x2e938
   182c6:	48 8d 54 24 38       	lea    0x38(%rsp),%rdx
   182cb:	ff 15 ff 64 01 00    	callq  *0x164ff(%rip)        # 0x2e7d0
   182d1:	b9 04 00 00 00       	mov    $0x4,%ecx
   182d6:	e8 35 37 00 00       	callq  0x1ba10
   182db:	b9 03 00 00 00       	mov    $0x3,%ecx
   182e0:	4c 8b e0             	mov    %rax,%r12
   182e3:	e8 28 37 00 00       	callq  0x1ba10
   182e8:	b9 05 00 00 00       	mov    $0x5,%ecx
   182ed:	48 8b f0             	mov    %rax,%rsi
   182f0:	e8 1b 37 00 00       	callq  0x1ba10
   182f5:	4d 3b e5             	cmp    %r13,%r12
   182f8:	48 8b e8             	mov    %rax,%rbp
   182fb:	0f 84 14 02 00 00    	je     0x18515
   18301:	49 3b f5             	cmp    %r13,%rsi
   18304:	0f 84 0b 02 00 00    	je     0x18515
   1830a:	ba 40 00 00 00       	mov    $0x40,%edx
   1830f:	8d 4a c1             	lea    -0x3f(%rdx),%ecx
   18312:	ff 15 b0 9d 00 00    	callq  *0x9db0(%rip)        # 0x220c8
   18318:	49 3b c5             	cmp    %r13,%rax
   1831b:	48 89 05 2e 66 01 00 	mov    %rax,0x1662e(%rip)        # 0x2e950
   18322:	0f 84 ed 01 00 00    	je     0x18515
   18328:	44 89 68 28          	mov    %r13d,0x28(%rax)
   1832c:	48 8b 05 1d 66 01 00 	mov    0x1661d(%rip),%rax        # 0x2e950
   18333:	48 8d 0d c2 f8 ff ff 	lea    -0x73e(%rip),%rcx        # 0x17bfc
   1833a:	44 89 68 2c          	mov    %r13d,0x2c(%rax)
   1833e:	48 8b 05 0b 66 01 00 	mov    0x1660b(%rip),%rax        # 0x2e950
   18345:	48 89 08             	mov    %rcx,(%rax)
   18348:	48 8b 05 01 66 01 00 	mov    0x16601(%rip),%rax        # 0x2e950
   1834f:	48 8d 0d ea f6 ff ff 	lea    -0x916(%rip),%rcx        # 0x17a40
   18356:	48 89 48 08          	mov    %rcx,0x8(%rax)
   1835a:	48 8d 8c 24 a0 00 00 	lea    0xa0(%rsp),%rcx
   18361:	00 
   18362:	e8 e5 30 00 00       	callq  0x1b44c
   18367:	41 3b c5             	cmp    %r13d,%eax
   1836a:	7c 0f                	jl     0x1837b
   1836c:	44 39 ac 24 a0 00 00 	cmp    %r13d,0xa0(%rsp)
   18373:	00 
   18374:	74 05                	je     0x1837b
   18376:	e8 8d 32 00 00       	callq  0x1b608
   1837b:	48 8d 1d e2 8e 00 00 	lea    0x8ee2(%rip),%rbx        # 0x21264
   18382:	4c 8d 35 7f 8c 00 00 	lea    0x8c7f(%rip),%r14        # 0x21008
   18389:	33 c9                	xor    %ecx,%ecx
   1838b:	49 2b de             	sub    %r14,%rbx
   1838e:	48 8d 53 08          	lea    0x8(%rbx),%rdx
   18392:	ff 15 30 9d 00 00    	callq  *0x9d30(%rip)        # 0x220c8
   18398:	49 3b c5             	cmp    %r13,%rax
   1839b:	0f 84 74 01 00 00    	je     0x18515
   183a1:	48 8b 15 a8 65 01 00 	mov    0x165a8(%rip),%rdx        # 0x2e950
   183a8:	48 8d 48 08          	lea    0x8(%rax),%rcx
   183ac:	4c 8b c3             	mov    %rbx,%r8
   183af:	48 89 10             	mov    %rdx,(%rax)
   183b2:	49 8b d6             	mov    %r14,%rdx
   183b5:	48 89 0d 84 65 01 00 	mov    %rcx,0x16584(%rip)        # 0x2e940
   183bc:	e8 5f 81 00 00       	callq  0x20520
   183c1:	44 39 ac 24 a0 00 00 	cmp    %r13d,0xa0(%rsp)
   183c8:	00 
   183c9:	48 8b 05 80 65 01 00 	mov    0x16580(%rip),%rax        # 0x2e950
   183d0:	4c 8b 1d 01 9d 00 00 	mov    0x9d01(%rip),%r11        # 0x220d8
   183d7:	4c 89 58 38          	mov    %r11,0x38(%rax)
   183db:	74 58                	je     0x18435
   183dd:	48 8b 0d bc 65 01 00 	mov    0x165bc(%rip),%rcx        # 0x2e9a0
   183e4:	49 3b cd             	cmp    %r13,%rcx
   183e7:	74 4c                	je     0x18435
   183e9:	48 8b 1d 60 65 01 00 	mov    0x16560(%rip),%rbx        # 0x2e950
   183f0:	4c 39 2b             	cmp    %r13,(%rbx)
   183f3:	74 47                	je     0x1843c
   183f5:	44 39 29             	cmp    %r13d,(%rcx)
   183f8:	75 42                	jne    0x1843c
   183fa:	4c 8d 41 18          	lea    0x18(%rcx),%r8
   183fe:	48 8b 49 10          	mov    0x10(%rcx),%rcx
   18402:	48 8d 15 cb 32 00 00 	lea    0x32cb(%rip),%rdx        # 0x1b6d4
   18409:	e8 ce 2a 00 00       	callq  0x1aedc
   1840e:	41 3b c5             	cmp    %r13d,%eax
   18411:	7c 22                	jl     0x18435
   18413:	48 8b 0d 86 65 01 00 	mov    0x16586(%rip),%rcx        # 0x2e9a0
   1841a:	48 89 59 30          	mov    %rbx,0x30(%rcx)
   1841e:	c7 01 01 00 00 00    	movl   $0x1,(%rcx)
   18424:	48 8b 03             	mov    (%rbx),%rax
   18427:	48 87 41 28          	xchg   %rax,0x28(%rcx)
   1842b:	48 8d 0d 46 33 00 00 	lea    0x3346(%rip),%rcx        # 0x1b778
   18432:	48 87 0b             	xchg   %rcx,(%rbx)
   18435:	48 8b 1d 14 65 01 00 	mov    0x16514(%rip),%rbx        # 0x2e950
   1843c:	48 8b 15 fd 64 01 00 	mov    0x164fd(%rip),%rdx        # 0x2e940
   18443:	48 8b ce             	mov    %rsi,%rcx
   18446:	49 2b d6             	sub    %r14,%rdx
   18449:	83 3d f8 64 01 00 05 	cmpl   $0x5,0x164f8(%rip)        # 0x2e948
   18450:	76 1b                	jbe    0x1846d
   18452:	48 8d 05 b7 8c 00 00 	lea    0x8cb7(%rip),%rax        # 0x21110
   18459:	4c 8d 4b 18          	lea    0x18(%rbx),%r9
   1845d:	41 b8 34 b4 3e aa    	mov    $0xaa3eb434,%r8d
   18463:	48 03 d0             	add    %rax,%rdx
   18466:	e8 11 2b 00 00       	callq  0x1af7c
   1846b:	eb 13                	jmp    0x18480
   1846d:	48 8d 05 e8 8c 00 00 	lea    0x8ce8(%rip),%rax        # 0x2115c
   18474:	4c 8d 43 10          	lea    0x10(%rbx),%r8
   18478:	48 03 d0             	add    %rax,%rdx
   1847b:	e8 5c 2a 00 00       	callq  0x1aedc
   18480:	48 8b 15 b9 64 01 00 	mov    0x164b9(%rip),%rdx        # 0x2e940
   18487:	4c 8b 05 c2 64 01 00 	mov    0x164c2(%rip),%r8        # 0x2e950
   1848e:	48 8d 05 3b 8d 00 00 	lea    0x8d3b(%rip),%rax        # 0x211d0
   18495:	49 2b d6             	sub    %r14,%rdx
   18498:	49 83 c0 20          	add    $0x20,%r8
   1849c:	49 8b cc             	mov    %r12,%rcx
   1849f:	48 03 d0             	add    %rax,%rdx
   184a2:	e8 35 2a 00 00       	callq  0x1aedc
   184a7:	49 3b ed             	cmp    %r13,%rbp
   184aa:	74 29                	je     0x184d5
   184ac:	48 8b 15 8d 64 01 00 	mov    0x1648d(%rip),%rdx        # 0x2e940
   184b3:	4c 8b 05 96 64 01 00 	mov    0x16496(%rip),%r8        # 0x2e950
   184ba:	48 8d 05 8f 8b 00 00 	lea    0x8b8f(%rip),%rax        # 0x21050
   184c1:	49 2b d6             	sub    %r14,%rdx
   184c4:	49 83 c0 30          	add    $0x30,%r8
   184c8:	48 8b cd             	mov    %rbp,%rcx
   184cb:	48 03 d0             	add    %rax,%rdx
   184ce:	e8 09 2a 00 00       	callq  0x1aedc
   184d3:	eb 1e                	jmp    0x184f3
   184d5:	48 8b 0d 74 64 01 00 	mov    0x16474(%rip),%rcx        # 0x2e950
   184dc:	33 d2                	xor    %edx,%edx
   184de:	48 8b 49 30          	mov    0x30(%rcx),%rcx
   184e2:	ff 15 20 9b 00 00    	callq  *0x9b20(%rip)        # 0x22008
   184e8:	4c 8b 1d 61 64 01 00 	mov    0x16461(%rip),%r11        # 0x2e950
   184ef:	4d 89 6b 30          	mov    %r13,0x30(%r11)
   184f3:	48 8b 05 56 64 01 00 	mov    0x16456(%rip),%rax        # 0x2e950
   184fa:	48 8d 4c 24 38       	lea    0x38(%rsp),%rcx
   184ff:	c7 40 28 01 00 00 00 	movl   $0x1,0x28(%rax)
   18506:	ff 15 cc 62 01 00    	callq  *0x162cc(%rip)        # 0x2e7d8
   1850c:	48 8b 05 3d 64 01 00 	mov    0x1643d(%rip),%rax        # 0x2e950
   18513:	eb 0d                	jmp    0x18522
   18515:	48 8d 4c 24 38       	lea    0x38(%rsp),%rcx
   1851a:	ff 15 b8 62 01 00    	callq  *0x162b8(%rip)        # 0x2e7d8
   18520:	33 c0                	xor    %eax,%eax
   18522:	48 8b 9c 24 b8 00 00 	mov    0xb8(%rsp),%rbx
   18529:	00 
   1852a:	48 83 c4 70          	add    $0x70,%rsp
   1852e:	41 5e                	pop    %r14
   18530:	41 5d                	pop    %r13
   18532:	41 5c                	pop    %r12
   18534:	5e                   	pop    %rsi
   18535:	5d                   	pop    %rbp
   18536:	c3                   	retq   
   18537:	cc                   	int3   
   18538:	cc                   	int3   
   18539:	cc                   	int3   
   1853a:	cc                   	int3   
   1853b:	cc                   	int3   
   1853c:	cc                   	int3   
   1853d:	cc                   	int3   
   1853e:	cc                   	int3   
   1853f:	cc                   	int3   
   18540:	48 89 5c 24 18       	mov    %rbx,0x18(%rsp)
   18545:	48 89 4c 24 08       	mov    %rcx,0x8(%rsp)
   1854a:	57                   	push   %rdi
   1854b:	48 83 ec 50          	sub    $0x50,%rsp
   1854f:	48 8b 1d 9a 63 01 00 	mov    0x1639a(%rip),%rbx        # 0x2e8f0
   18556:	33 ff                	xor    %edi,%edi
   18558:	48 3b df             	cmp    %rdi,%rbx
   1855b:	0f 84 67 01 00 00    	je     0x186c8
   18561:	39 7b 28             	cmp    %edi,0x28(%rbx)
   18564:	0f 84 5e 01 00 00    	je     0x186c8
   1856a:	48 39 3d 2f 62 01 00 	cmp    %rdi,0x1622f(%rip)        # 0x2e7a0
   18571:	75 5e                	jne    0x185d1
   18573:	48 39 3d 2e 62 01 00 	cmp    %rdi,0x1622e(%rip)        # 0x2e7a8
   1857a:	74 55                	je     0x185d1
   1857c:	48 39 3d 2d 62 01 00 	cmp    %rdi,0x1622d(%rip)        # 0x2e7b0
   18583:	74 4c                	je     0x185d1
   18585:	48 39 3d 2c 62 01 00 	cmp    %rdi,0x1622c(%rip)        # 0x2e7b8
   1858c:	74 43                	je     0x185d1
   1858e:	48 39 3d 2b 62 01 00 	cmp    %rdi,0x1622b(%rip)        # 0x2e7c0
   18595:	74 3a                	je     0x185d1
   18597:	48 39 3d 2a 62 01 00 	cmp    %rdi,0x1622a(%rip)        # 0x2e7c8
   1859e:	74 31                	je     0x185d1
   185a0:	48 39 3d 29 62 01 00 	cmp    %rdi,0x16229(%rip)        # 0x2e7d0
   185a7:	74 28                	je     0x185d1
   185a9:	48 39 3d 28 62 01 00 	cmp    %rdi,0x16228(%rip)        # 0x2e7d8
   185b0:	74 1f                	je     0x185d1
   185b2:	48 39 3d 27 62 01 00 	cmp    %rdi,0x16227(%rip)        # 0x2e7e0
   185b9:	74 16                	je     0x185d1
   185bb:	48 39 3d 26 62 01 00 	cmp    %rdi,0x16226(%rip)        # 0x2e7e8
   185c2:	74 0d                	je     0x185d1
   185c4:	48 39 3d 25 62 01 00 	cmp    %rdi,0x16225(%rip)        # 0x2e7f0
   185cb:	0f 85 f7 00 00 00    	jne    0x186c8
   185d1:	89 7b 28             	mov    %edi,0x28(%rbx)
   185d4:	48 8b 0d 5d 63 01 00 	mov    0x1635d(%rip),%rcx        # 0x2e938
   185db:	48 8d 54 24 20       	lea    0x20(%rsp),%rdx
   185e0:	ff 15 ea 61 01 00    	callq  *0x161ea(%rip)        # 0x2e7d0
   185e6:	83 3d 5b 63 01 00 05 	cmpl   $0x5,0x1635b(%rip)        # 0x2e948
   185ed:	76 0b                	jbe    0x185fa
   185ef:	48 8b 4b 18          	mov    0x18(%rbx),%rcx
   185f3:	e8 78 2d 00 00       	callq  0x1b370
   185f8:	eb 09                	jmp    0x18603
   185fa:	48 8b 4b 10          	mov    0x10(%rbx),%rcx
   185fe:	e8 d1 2c 00 00       	callq  0x1b2d4
   18603:	48 8b 4b 20          	mov    0x20(%rbx),%rcx
   18607:	e8 c8 2c 00 00       	callq  0x1b2d4
   1860c:	4c 8b 1d 3d 63 01 00 	mov    0x1633d(%rip),%r11        # 0x2e950
   18613:	49 39 7b 30          	cmp    %rdi,0x30(%r11)
   18617:	74 09                	je     0x18622
   18619:	48 8b 4b 30          	mov    0x30(%rbx),%rcx
   1861d:	e8 b2 2c 00 00       	callq  0x1b2d4
   18622:	48 8b 0d 77 63 01 00 	mov    0x16377(%rip),%rcx        # 0x2e9a0
   18629:	48 3b cf             	cmp    %rdi,%rcx
   1862c:	74 6c                	je     0x1869a
   1862e:	39 39                	cmp    %edi,(%rcx)
   18630:	74 50                	je     0x18682
   18632:	48 8b 49 18          	mov    0x18(%rcx),%rcx
   18636:	e8 99 2c 00 00       	callq  0x1b2d4
   1863b:	3b c7                	cmp    %edi,%eax
   1863d:	7c 3c                	jl     0x1867b
   1863f:	48 8b 05 5a 63 01 00 	mov    0x1635a(%rip),%rax        # 0x2e9a0
   18646:	48 8b 48 28          	mov    0x28(%rax),%rcx
   1864a:	48 8b 40 30          	mov    0x30(%rax),%rax
   1864e:	48 87 08             	xchg   %rcx,(%rax)
   18651:	eb 18                	jmp    0x1866b
   18653:	4c 8d 44 24 60       	lea    0x60(%rsp),%r8
   18658:	33 d2                	xor    %edx,%edx
   1865a:	33 c9                	xor    %ecx,%ecx
   1865c:	48 c7 44 24 60 80 69 	movq   $0xffffffffff676980,0x60(%rsp)
   18663:	67 ff 
   18665:	ff 15 b5 99 00 00    	callq  *0x99b5(%rip)        # 0x22020
   1866b:	48 8b 0d 2e 63 01 00 	mov    0x1632e(%rip),%rcx        # 0x2e9a0
   18672:	39 79 20             	cmp    %edi,0x20(%rcx)
   18675:	75 dc                	jne    0x18653
   18677:	89 39                	mov    %edi,(%rcx)
   18679:	eb 07                	jmp    0x18682
   1867b:	48 8b 0d 1e 63 01 00 	mov    0x1631e(%rip),%rcx        # 0x2e9a0
   18682:	48 3b cf             	cmp    %rdi,%rcx
   18685:	74 13                	je     0x1869a
   18687:	39 39                	cmp    %edi,(%rcx)
   18689:	75 0f                	jne    0x1869a
   1868b:	33 d2                	xor    %edx,%edx
   1868d:	ff 15 75 99 00 00    	callq  *0x9975(%rip)        # 0x22008
   18693:	48 89 3d 06 63 01 00 	mov    %rdi,0x16306(%rip)        # 0x2e9a0
   1869a:	48 8d 4c 24 20       	lea    0x20(%rsp),%rcx
   1869f:	ff 15 33 61 01 00    	callq  *0x16133(%rip)        # 0x2e7d8
   186a5:	eb 18                	jmp    0x186bf
   186a7:	4c 8d 44 24 68       	lea    0x68(%rsp),%r8
   186ac:	33 d2                	xor    %edx,%edx
   186ae:	33 c9                	xor    %ecx,%ecx
   186b0:	48 c7 44 24 68 80 69 	movq   $0xffffffffff676980,0x68(%rsp)
   186b7:	67 ff 
   186b9:	ff 15 61 99 00 00    	callq  *0x9961(%rip)        # 0x22020
   186bf:	39 7b 2c             	cmp    %edi,0x2c(%rbx)
   186c2:	75 e3                	jne    0x186a7
   186c4:	33 c0                	xor    %eax,%eax
   186c6:	eb 05                	jmp    0x186cd
   186c8:	b8 01 00 00 c0       	mov    $0xc0000001,%eax
   186cd:	48 8b 5c 24 70       	mov    0x70(%rsp),%rbx
   186d2:	48 83 c4 50          	add    $0x50,%rsp
   186d6:	5f                   	pop    %rdi
   186d7:	c3                   	retq   
   186d8:	cc                   	int3   
   186d9:	cc                   	int3   
   186da:	cc                   	int3   
   186db:	cc                   	int3   
   186dc:	cc                   	int3   
   186dd:	cc                   	int3   
   186de:	cc                   	int3   
   186df:	cc                   	int3   
   186e0:	48 89 5c 24 08       	mov    %rbx,0x8(%rsp)
   186e5:	48 89 6c 24 10       	mov    %rbp,0x10(%rsp)
   186ea:	48 89 74 24 18       	mov    %rsi,0x18(%rsp)
   186ef:	57                   	push   %rdi
   186f0:	48 83 ec 20          	sub    $0x20,%rsp
   186f4:	48 8b 3d 7d 5d 01 00 	mov    0x15d7d(%rip),%rdi        # 0x2e478
   186fb:	33 db                	xor    %ebx,%ebx
   186fd:	48 8b ea             	mov    %rdx,%rbp
   18700:	48 3b fb             	cmp    %rbx,%rdi
   18703:	74 3f                	je     0x18744
   18705:	48 8d 4f 18          	lea    0x18(%rdi),%rcx
   18709:	ff 15 e9 9a 00 00    	callq  *0x9ae9(%rip)        # 0x221f8
   1870f:	8b 4f 0c             	mov    0xc(%rdi),%ecx
   18712:	33 d2                	xor    %edx,%edx
   18714:	8d 41 01             	lea    0x1(%rcx),%eax
   18717:	f7 77 10             	divl   0x10(%rdi)
   1871a:	3b 57 08             	cmp    0x8(%rdi),%edx
   1871d:	75 0c                	jne    0x1872b
   1871f:	48 8d 4f 18          	lea    0x18(%rdi),%rcx
   18723:	ff 15 c7 9a 00 00    	callq  *0x9ac7(%rip)        # 0x221f0
   18729:	eb 19                	jmp    0x18744
   1872b:	48 8b 07             	mov    (%rdi),%rax
   1872e:	48 89 2c c8          	mov    %rbp,(%rax,%rcx,8)
   18732:	48 8d 4f 18          	lea    0x18(%rdi),%rcx
   18736:	89 57 0c             	mov    %edx,0xc(%rdi)
   18739:	ff 15 b1 9a 00 00    	callq  *0x9ab1(%rip)        # 0x221f0
   1873f:	bb 01 00 00 00       	mov    $0x1,%ebx
   18744:	48 8b 6c 24 38       	mov    0x38(%rsp),%rbp
   18749:	48 8b 74 24 40       	mov    0x40(%rsp),%rsi
   1874e:	8b c3                	mov    %ebx,%eax
   18750:	48 8b 5c 24 30       	mov    0x30(%rsp),%rbx
   18755:	48 83 c4 20          	add    $0x20,%rsp
   18759:	5f                   	pop    %rdi
   1875a:	c3                   	retq   
   1875b:	cc                   	int3   
   1875c:	cc                   	int3   
   1875d:	cc                   	int3   
   1875e:	cc                   	int3   
   1875f:	cc                   	int3   
   18760:	cc                   	int3   
   18761:	cc                   	int3   
   18762:	cc                   	int3   
   18763:	cc                   	int3   
   18764:	48 89 5c 24 08       	mov    %rbx,0x8(%rsp)
   18769:	57                   	push   %rdi
   1876a:	48 83 ec 20          	sub    $0x20,%rsp
   1876e:	66 81 f9 44 06       	cmp    $0x644,%cx
   18773:	0f b7 f9             	movzwl %cx,%edi
   18776:	bb 01 00 00 c0       	mov    $0xc0000001,%ebx
   1877b:	76 40                	jbe    0x187bd
   1877d:	48 83 25 d3 61 01 00 	andq   $0x0,0x161d3(%rip)        # 0x2e958
   18784:	00 
   18785:	0f b7 d1             	movzwl %cx,%edx
   18788:	b9 01 00 00 00       	mov    $0x1,%ecx
   1878d:	ff 15 35 99 00 00    	callq  *0x9935(%rip)        # 0x220c8
   18793:	48 85 c0             	test   %rax,%rax
   18796:	4c 8b d8             	mov    %rax,%r11
   18799:	48 89 05 b8 61 01 00 	mov    %rax,0x161b8(%rip)        # 0x2e958
   187a0:	74 1b                	je     0x187bd
   187a2:	48 83 c0 14          	add    $0x14,%rax
   187a6:	66 41 c7 43 10 14 00 	movw   $0x14,0x10(%r11)
   187ad:	66 89 3d a4 5d 01 00 	mov    %di,0x15da4(%rip)        # 0x2e558
   187b4:	48 89 05 ad 5d 01 00 	mov    %rax,0x15dad(%rip)        # 0x2e568
   187bb:	33 db                	xor    %ebx,%ebx
   187bd:	8b c3                	mov    %ebx,%eax
   187bf:	48 8b 5c 24 30       	mov    0x30(%rsp),%rbx
   187c4:	48 83 c4 20          	add    $0x20,%rsp
   187c8:	5f                   	pop    %rdi
   187c9:	c3                   	retq   
   187ca:	cc                   	int3   
   187cb:	cc                   	int3   
   187cc:	cc                   	int3   
   187cd:	cc                   	int3   
   187ce:	cc                   	int3   
   187cf:	cc                   	int3   
   187d0:	48 8b c4             	mov    %rsp,%rax
   187d3:	48 89 58 08          	mov    %rbx,0x8(%rax)
   187d7:	48 89 68 10          	mov    %rbp,0x10(%rax)
   187db:	56                   	push   %rsi
   187dc:	57                   	push   %rdi
   187dd:	41 54                	push   %r12
   187df:	48 81 ec 30 06 00 00 	sub    $0x630,%rsp
   187e6:	33 ed                	xor    %ebp,%ebp
   187e8:	48 8b f2             	mov    %rdx,%rsi
   187eb:	48 39 2d ae 5f 01 00 	cmp    %rbp,0x15fae(%rip)        # 0x2e7a0
   187f2:	66 89 a8 e8 fd ff ff 	mov    %bp,-0x218(%rax)
   187f9:	66 89 a8 e8 fb ff ff 	mov    %bp,-0x418(%rax)
   18800:	75 62                	jne    0x18864
   18802:	48 39 2d 9f 5f 01 00 	cmp    %rbp,0x15f9f(%rip)        # 0x2e7a8
   18809:	74 59                	je     0x18864
   1880b:	48 39 2d 9e 5f 01 00 	cmp    %rbp,0x15f9e(%rip)        # 0x2e7b0
   18812:	74 50                	je     0x18864
   18814:	48 39 2d 9d 5f 01 00 	cmp    %rbp,0x15f9d(%rip)        # 0x2e7b8
   1881b:	74 47                	je     0x18864
   1881d:	48 39 2d 9c 5f 01 00 	cmp    %rbp,0x15f9c(%rip)        # 0x2e7c0
   18824:	74 3e                	je     0x18864
   18826:	48 39 2d 9b 5f 01 00 	cmp    %rbp,0x15f9b(%rip)        # 0x2e7c8
   1882d:	74 35                	je     0x18864
   1882f:	48 39 2d 9a 5f 01 00 	cmp    %rbp,0x15f9a(%rip)        # 0x2e7d0
   18836:	74 2c                	je     0x18864
   18838:	48 39 2d 99 5f 01 00 	cmp    %rbp,0x15f99(%rip)        # 0x2e7d8
   1883f:	74 23                	je     0x18864
   18841:	48 39 2d 98 5f 01 00 	cmp    %rbp,0x15f98(%rip)        # 0x2e7e0
   18848:	74 1a                	je     0x18864
   1884a:	48 39 2d 97 5f 01 00 	cmp    %rbp,0x15f97(%rip)        # 0x2e7e8
   18851:	74 11                	je     0x18864
   18853:	48 39 2d 96 5f 01 00 	cmp    %rbp,0x15f96(%rip)        # 0x2e7f0
   1885a:	74 08                	je     0x18864
   1885c:	66 33 c0             	xor    %ax,%ax
   1885f:	e9 8c 01 00 00       	jmpq   0x189f0
   18864:	48 3b d5             	cmp    %rbp,%rdx
   18867:	74 f3                	je     0x1885c
   18869:	48 a1 14 00 00 00 80 	movabs 0xfffff78000000014,%rax
   18870:	f7 ff ff 
   18873:	49 83 cc ff          	or     $0xffffffffffffffff,%r12
   18877:	49 8b cc             	mov    %r12,%rcx
   1887a:	48 89 02             	mov    %rax,(%rdx)
   1887d:	e8 3e 07 00 00       	callq  0x18fc0
   18882:	89 46 08             	mov    %eax,0x8(%rsi)
   18885:	ff 15 5d 5f 01 00    	callq  *0x15f5d(%rip)        # 0x2e7e8
   1888b:	4c 8d 84 24 60 06 00 	lea    0x660(%rsp),%r8
   18892:	00 
   18893:	48 8d 94 24 30 04 00 	lea    0x430(%rsp),%rdx
   1889a:	00 
   1889b:	bf 00 01 00 00       	mov    $0x100,%edi
   188a0:	45 33 c9             	xor    %r9d,%r9d
   188a3:	49 8b cc             	mov    %r12,%rcx
   188a6:	89 46 0c             	mov    %eax,0xc(%rsi)
   188a9:	89 bc 24 60 06 00 00 	mov    %edi,0x660(%rsp)
   188b0:	e8 bf 07 00 00       	callq  0x19074
   188b5:	48 8d 94 24 60 06 00 	lea    0x660(%rsp),%rdx
   188bc:	00 
   188bd:	48 8d 8c 24 30 02 00 	lea    0x230(%rsp),%rcx
   188c4:	00 
   188c5:	89 bc 24 60 06 00 00 	mov    %edi,0x660(%rsp)
   188cc:	e8 df 0b 00 00       	callq  0x194b0
   188d1:	48 8d 84 24 30 04 00 	lea    0x430(%rsp),%rax
   188d8:	00 
   188d9:	48 8d 56 14          	lea    0x14(%rsi),%rdx
   188dd:	48 8d 8c 24 30 04 00 	lea    0x430(%rsp),%rcx
   188e4:	00 
   188e5:	48 2b d0             	sub    %rax,%rdx
   188e8:	0f b7 01             	movzwl (%rcx),%eax
   188eb:	66 89 04 0a          	mov    %ax,(%rdx,%rcx,1)
   188ef:	48 83 c1 02          	add    $0x2,%rcx
   188f3:	66 3b c5             	cmp    %bp,%ax
   188f6:	75 f0                	jne    0x188e8
   188f8:	33 c0                	xor    %eax,%eax
   188fa:	48 8d bc 24 30 04 00 	lea    0x430(%rsp),%rdi
   18901:	00 
   18902:	49 8b cc             	mov    %r12,%rcx
   18905:	66 f2 af             	repnz scas %es:(%rdi),%ax
   18908:	48 8d 84 24 30 02 00 	lea    0x230(%rsp),%rax
   1890f:	00 
   18910:	48 f7 d1             	not    %rcx
   18913:	4c 8d 44 4e 14       	lea    0x14(%rsi,%rcx,2),%r8
   18918:	48 8d 8c 24 30 02 00 	lea    0x230(%rsp),%rcx
   1891f:	00 
   18920:	49 8b d0             	mov    %r8,%rdx
   18923:	48 2b d0             	sub    %rax,%rdx
   18926:	0f b7 01             	movzwl (%rcx),%eax
   18929:	66 89 04 0a          	mov    %ax,(%rdx,%rcx,1)
   1892d:	48 83 c1 02          	add    $0x2,%rcx
   18931:	66 3b c5             	cmp    %bp,%ax
   18934:	75 f0                	jne    0x18926
   18936:	33 c0                	xor    %eax,%eax
   18938:	48 8d bc 24 30 02 00 	lea    0x230(%rsp),%rdi
   1893f:	00 
   18940:	49 8b cc             	mov    %r12,%rcx
   18943:	66 f2 af             	repnz scas %es:(%rdi),%ax
   18946:	48 8d 94 24 60 06 00 	lea    0x660(%rsp),%rdx
   1894d:	00 
   1894e:	c7 84 24 60 06 00 00 	movl   $0x104,0x660(%rsp)
   18955:	04 01 00 00 
   18959:	48 f7 d1             	not    %rcx
   1895c:	49 8d 1c 48          	lea    (%r8,%rcx,2),%rbx
   18960:	48 8d 4c 24 20       	lea    0x20(%rsp),%rcx
   18965:	e8 c6 10 00 00       	callq  0x19a30
   1896a:	3b c5                	cmp    %ebp,%eax
   1896c:	75 75                	jne    0x189e3
   1896e:	4c 8d 05 fb 5b 01 00 	lea    0x15bfb(%rip),%r8        # 0x2e570
   18975:	48 8d 44 24 20       	lea    0x20(%rsp),%rax
   1897a:	49 8b d0             	mov    %r8,%rdx
   1897d:	48 2b d0             	sub    %rax,%rdx
   18980:	0f b7 08             	movzwl (%rax),%ecx
   18983:	0f b7 3c 10          	movzwl (%rax,%rdx,1),%edi
   18987:	2b cf                	sub    %edi,%ecx
   18989:	75 08                	jne    0x18993
   1898b:	48 83 c0 02          	add    $0x2,%rax
   1898f:	85 ff                	test   %edi,%edi
   18991:	75 ed                	jne    0x18980
   18993:	3b cd                	cmp    %ebp,%ecx
   18995:	74 4c                	je     0x189e3
   18997:	48 8b cd             	mov    %rbp,%rcx
   1899a:	0f b7 44 0c 20       	movzwl 0x20(%rsp,%rcx,1),%eax
   1899f:	66 42 89 04 01       	mov    %ax,(%rcx,%r8,1)
   189a4:	48 83 c1 02          	add    $0x2,%rcx
   189a8:	66 3b c5             	cmp    %bp,%ax
   189ab:	75 ed                	jne    0x1899a
   189ad:	48 8d 44 24 20       	lea    0x20(%rsp),%rax
   189b2:	48 8b cb             	mov    %rbx,%rcx
   189b5:	48 8d 54 24 20       	lea    0x20(%rsp),%rdx
   189ba:	48 2b c8             	sub    %rax,%rcx
   189bd:	0f b7 02             	movzwl (%rdx),%eax
   189c0:	66 89 04 11          	mov    %ax,(%rcx,%rdx,1)
   189c4:	48 83 c2 02          	add    $0x2,%rdx
   189c8:	66 3b c5             	cmp    %bp,%ax
   189cb:	75 f0                	jne    0x189bd
   189cd:	48 8d 7c 24 20       	lea    0x20(%rsp),%rdi
   189d2:	33 c0                	xor    %eax,%eax
   189d4:	49 8b cc             	mov    %r12,%rcx
   189d7:	66 f2 af             	repnz scas %es:(%rdi),%ax
   189da:	48 f7 d1             	not    %rcx
   189dd:	48 8d 1c 4b          	lea    (%rbx,%rcx,2),%rbx
   189e1:	eb 07                	jmp    0x189ea
   189e3:	66 89 2b             	mov    %bp,(%rbx)
   189e6:	48 83 c3 02          	add    $0x2,%rbx
   189ea:	48 2b de             	sub    %rsi,%rbx
   189ed:	66 8b c3             	mov    %bx,%ax
   189f0:	4c 8d 9c 24 30 06 00 	lea    0x630(%rsp),%r11
   189f7:	00 
   189f8:	49 8b 5b 20          	mov    0x20(%r11),%rbx
   189fc:	49 8b 6b 28          	mov    0x28(%r11),%rbp
   18a00:	49 8b e3             	mov    %r11,%rsp
   18a03:	41 5c                	pop    %r12
   18a05:	5f                   	pop    %rdi
   18a06:	5e                   	pop    %rsi
   18a07:	c3                   	retq   
   18a08:	cc                   	int3   
   18a09:	cc                   	int3   
   18a0a:	cc                   	int3   
   18a0b:	cc                   	int3   
   18a0c:	cc                   	int3   
   18a0d:	cc                   	int3   
   18a0e:	cc                   	int3   
   18a0f:	cc                   	int3   
   18a10:	48 89 5c 24 18       	mov    %rbx,0x18(%rsp)
   18a15:	48 89 4c 24 08       	mov    %rcx,0x8(%rsp)
   18a1a:	55                   	push   %rbp
   18a1b:	56                   	push   %rsi
   18a1c:	57                   	push   %rdi
   18a1d:	41 54                	push   %r12
   18a1f:	41 55                	push   %r13
   18a21:	41 56                	push   %r14
   18a23:	41 57                	push   %r15
   18a25:	48 81 ec 50 08 00 00 	sub    $0x850,%rsp
   18a2c:	48 8b 05 b5 5d 01 00 	mov    0x15db5(%rip),%rax        # 0x2e7e8
   18a33:	33 db                	xor    %ebx,%ebx
   18a35:	4d 8b e1             	mov    %r9,%r12
   18a38:	48 39 1d 61 5d 01 00 	cmp    %rbx,0x15d61(%rip)        # 0x2e7a0
   18a3f:	45 8b f8             	mov    %r8d,%r15d
   18a42:	44 0f b7 f2          	movzwl %dx,%r14d
   18a46:	48 8b eb             	mov    %rbx,%rbp
   18a49:	0f b7 f3             	movzwl %bx,%esi
   18a4c:	40 8a fb             	mov    %bl,%dil
   18a4f:	75 5d                	jne    0x18aae
   18a51:	48 39 1d 50 5d 01 00 	cmp    %rbx,0x15d50(%rip)        # 0x2e7a8
   18a58:	74 54                	je     0x18aae
   18a5a:	48 39 1d 4f 5d 01 00 	cmp    %rbx,0x15d4f(%rip)        # 0x2e7b0
   18a61:	74 4b                	je     0x18aae
   18a63:	48 39 1d 4e 5d 01 00 	cmp    %rbx,0x15d4e(%rip)        # 0x2e7b8
   18a6a:	74 42                	je     0x18aae
   18a6c:	48 39 1d 4d 5d 01 00 	cmp    %rbx,0x15d4d(%rip)        # 0x2e7c0
   18a73:	74 39                	je     0x18aae
   18a75:	48 39 1d 4c 5d 01 00 	cmp    %rbx,0x15d4c(%rip)        # 0x2e7c8
   18a7c:	74 30                	je     0x18aae
   18a7e:	48 39 1d 4b 5d 01 00 	cmp    %rbx,0x15d4b(%rip)        # 0x2e7d0
   18a85:	74 27                	je     0x18aae
   18a87:	48 39 1d 4a 5d 01 00 	cmp    %rbx,0x15d4a(%rip)        # 0x2e7d8
   18a8e:	74 1e                	je     0x18aae
   18a90:	48 39 1d 49 5d 01 00 	cmp    %rbx,0x15d49(%rip)        # 0x2e7e0
   18a97:	74 15                	je     0x18aae
   18a99:	48 3b c3             	cmp    %rbx,%rax
   18a9c:	74 10                	je     0x18aae
   18a9e:	48 39 1d 4b 5d 01 00 	cmp    %rbx,0x15d4b(%rip)        # 0x2e7f0
   18aa5:	74 07                	je     0x18aae
   18aa7:	33 c0                	xor    %eax,%eax
   18aa9:	e9 30 02 00 00       	jmpq   0x18cde
   18aae:	ff d0                	callq  *%rax
   18ab0:	4c 8b e8             	mov    %rax,%r13
   18ab3:	40 3a fb             	cmp    %bl,%dil
   18ab6:	74 1c                	je     0x18ad4
   18ab8:	48 8d 94 24 20 02 00 	lea    0x220(%rsp),%rdx
   18abf:	00 
   18ac0:	49 8b cc             	mov    %r12,%rcx
   18ac3:	e8 08 fd ff ff       	callq  0x187d0
   18ac8:	66 3b c3             	cmp    %bx,%ax
   18acb:	66 8b f0             	mov    %ax,%si
   18ace:	0f 84 07 02 00 00    	je     0x18cdb
   18ad4:	48 8d 0d 45 5a 01 00 	lea    0x15a45(%rip),%rcx        # 0x2e520
   18adb:	ff 15 17 97 00 00    	callq  *0x9717(%rip)        # 0x221f8
   18ae1:	48 8b 1d 70 5e 01 00 	mov    0x15e70(%rip),%rbx        # 0x2e958
   18ae8:	48 85 db             	test   %rbx,%rbx
   18aeb:	0f 84 dd 01 00 00    	je     0x18cce
   18af1:	66 83 7b 10 14       	cmpw   $0x14,0x10(%rbx)
   18af6:	75 1d                	jne    0x18b15
   18af8:	66 85 f6             	test   %si,%si
   18afb:	0f 85 4a 01 00 00    	jne    0x18c4b
   18b01:	48 8d 0d 18 5a 01 00 	lea    0x15a18(%rip),%rcx        # 0x2e520
   18b08:	40 b7 01             	mov    $0x1,%dil
   18b0b:	ff 15 df 96 00 00    	callq  *0x96df(%rip)        # 0x221f0
   18b11:	33 db                	xor    %ebx,%ebx
   18b13:	eb 9e                	jmp    0x18ab3
   18b15:	0f b7 4b 10          	movzwl 0x10(%rbx),%ecx
   18b19:	41 0f b7 c6          	movzwl %r14w,%eax
   18b1d:	03 c8                	add    %eax,%ecx
   18b1f:	0f b7 05 32 5a 01 00 	movzwl 0x15a32(%rip),%eax        # 0x2e558
   18b26:	3b c8                	cmp    %eax,%ecx
   18b28:	0f 83 ca 00 00 00    	jae    0x18bf8
   18b2e:	4c 39 25 e3 59 01 00 	cmp    %r12,0x159e3(%rip)        # 0x2e518
   18b35:	0f 85 bd 00 00 00    	jne    0x18bf8
   18b3b:	4c 39 2d 1e 5a 01 00 	cmp    %r13,0x15a1e(%rip)        # 0x2e560
   18b42:	0f 85 b0 00 00 00    	jne    0x18bf8
   18b48:	41 8b c7             	mov    %r15d,%eax
   18b4b:	2b 05 0b 5a 01 00    	sub    0x15a0b(%rip),%eax        # 0x2e55c
   18b51:	3d 98 3a 00 00       	cmp    $0x3a98,%eax
   18b56:	0f 87 9c 00 00 00    	ja     0x18bf8
   18b5c:	66 21 6c 24 20       	and    %bp,0x20(%rsp)
   18b61:	48 8d 4c 24 22       	lea    0x22(%rsp),%rcx
   18b66:	33 d2                	xor    %edx,%edx
   18b68:	41 b8 fe 01 00 00    	mov    $0x1fe,%r8d
   18b6e:	e8 1d 7d 00 00       	callq  0x20890
   18b73:	48 8d 94 24 98 08 00 	lea    0x898(%rsp),%rdx
   18b7a:	00 
   18b7b:	48 8d 4c 24 20       	lea    0x20(%rsp),%rcx
   18b80:	c7 84 24 98 08 00 00 	movl   $0x100,0x898(%rsp)
   18b87:	00 01 00 00 
   18b8b:	e8 20 09 00 00       	callq  0x194b0
   18b90:	85 c0                	test   %eax,%eax
   18b92:	0f 88 61 01 00 00    	js     0x18cf9
   18b98:	48 8b 1d b9 5d 01 00 	mov    0x15db9(%rip),%rbx        # 0x2e958
   18b9f:	33 c0                	xor    %eax,%eax
   18ba1:	49 83 c8 ff          	or     $0xffffffffffffffff,%r8
   18ba5:	48 8d 7b 14          	lea    0x14(%rbx),%rdi
   18ba9:	49 8b c8             	mov    %r8,%rcx
   18bac:	66 f2 af             	repnz scas %es:(%rdi),%ax
   18baf:	48 f7 d1             	not    %rcx
   18bb2:	48 8d 54 4b 14       	lea    0x14(%rbx,%rcx,2),%rdx
   18bb7:	49 8b c8             	mov    %r8,%rcx
   18bba:	48 8b fa             	mov    %rdx,%rdi
   18bbd:	66 f2 af             	repnz scas %es:(%rdi),%ax
   18bc0:	8b 84 24 98 08 00 00 	mov    0x898(%rsp),%eax
   18bc7:	48 f7 d1             	not    %rcx
   18bca:	83 c0 ff             	add    $0xffffffff,%eax
   18bcd:	48 83 e9 01          	sub    $0x1,%rcx
   18bd1:	48 3b c1             	cmp    %rcx,%rax
   18bd4:	75 22                	jne    0x18bf8
   18bd6:	48 8d 3c 09          	lea    (%rcx,%rcx,1),%rdi
   18bda:	48 8d 4c 24 20       	lea    0x20(%rsp),%rcx
   18bdf:	4c 8b c7             	mov    %rdi,%r8
   18be2:	ff 15 f8 95 00 00    	callq  *0x95f8(%rip)        # 0x221e0
   18be8:	48 3b f8             	cmp    %rax,%rdi
   18beb:	0f 84 08 01 00 00    	je     0x18cf9
   18bf1:	48 8b 1d 60 5d 01 00 	mov    0x15d60(%rip),%rbx        # 0x2e958
   18bf8:	66 85 f6             	test   %si,%si
   18bfb:	0f 84 00 ff ff ff    	je     0x18b01
   18c01:	0f b7 43 10          	movzwl 0x10(%rbx),%eax
   18c05:	66 33 c9             	xor    %cx,%cx
   18c08:	d1 e8                	shr    %eax
   18c0a:	66 89 4b 12          	mov    %cx,0x12(%rbx)
   18c0e:	74 10                	je     0x18c20
   18c10:	48 8b d3             	mov    %rbx,%rdx
   18c13:	66 33 0a             	xor    (%rdx),%cx
   18c16:	48 83 c2 02          	add    $0x2,%rdx
   18c1a:	48 83 e8 01          	sub    $0x1,%rax
   18c1e:	75 f3                	jne    0x18c13
   18c20:	48 83 25 30 5d 01 00 	andq   $0x0,0x15d30(%rip)        # 0x2e958
   18c27:	00 
   18c28:	66 89 4b 12          	mov    %cx,0x12(%rbx)
   18c2c:	0f b7 0d 25 59 01 00 	movzwl 0x15925(%rip),%ecx        # 0x2e558
   18c33:	48 8b eb             	mov    %rbx,%rbp
   18c36:	e8 29 fb ff ff       	callq  0x18764
   18c3b:	48 8b 1d 16 5d 01 00 	mov    0x15d16(%rip),%rbx        # 0x2e958
   18c42:	48 85 db             	test   %rbx,%rbx
   18c45:	0f 84 83 00 00 00    	je     0x18cce
   18c4b:	48 8b 84 24 20 02 00 	mov    0x220(%rsp),%rax
   18c52:	00 
   18c53:	66 83 ee 14          	sub    $0x14,%si
   18c57:	48 8d 94 24 34 02 00 	lea    0x234(%rsp),%rdx
   18c5e:	00 
   18c5f:	48 89 03             	mov    %rax,(%rbx)
   18c62:	8b 84 24 28 02 00 00 	mov    0x228(%rsp),%eax
   18c69:	0f b7 fe             	movzwl %si,%edi
   18c6c:	89 43 08             	mov    %eax,0x8(%rbx)
   18c6f:	8b 84 24 2c 02 00 00 	mov    0x22c(%rsp),%eax
   18c76:	48 8d 4b 14          	lea    0x14(%rbx),%rcx
   18c7a:	4c 8b c7             	mov    %rdi,%r8
   18c7d:	89 43 0c             	mov    %eax,0xc(%rbx)
   18c80:	e8 9b 78 00 00       	callq  0x20520
   18c85:	66 01 73 10          	add    %si,0x10(%rbx)
   18c89:	48 8b 35 d8 58 01 00 	mov    0x158d8(%rip),%rsi        # 0x2e568
   18c90:	48 03 f7             	add    %rdi,%rsi
   18c93:	44 89 3d c2 58 01 00 	mov    %r15d,0x158c2(%rip)        # 0x2e55c
   18c9a:	48 8b 94 24 90 08 00 	mov    0x890(%rsp),%rdx
   18ca1:	00 
   18ca2:	41 0f b7 fe          	movzwl %r14w,%edi
   18ca6:	48 8b ce             	mov    %rsi,%rcx
   18ca9:	4c 8b c7             	mov    %rdi,%r8
   18cac:	e8 6f 78 00 00       	callq  0x20520
   18cb1:	66 44 01 73 10       	add    %r14w,0x10(%rbx)
   18cb6:	48 03 f7             	add    %rdi,%rsi
   18cb9:	48 89 35 a8 58 01 00 	mov    %rsi,0x158a8(%rip)        # 0x2e568
   18cc0:	4c 89 25 51 58 01 00 	mov    %r12,0x15851(%rip)        # 0x2e518
   18cc7:	4c 89 2d 92 58 01 00 	mov    %r13,0x15892(%rip)        # 0x2e560
   18cce:	48 8d 0d 4b 58 01 00 	lea    0x1584b(%rip),%rcx        # 0x2e520
   18cd5:	ff 15 15 95 00 00    	callq  *0x9515(%rip)        # 0x221f0
   18cdb:	48 8b c5             	mov    %rbp,%rax
   18cde:	48 8b 9c 24 a0 08 00 	mov    0x8a0(%rsp),%rbx
   18ce5:	00 
   18ce6:	48 81 c4 50 08 00 00 	add    $0x850,%rsp
   18ced:	41 5f                	pop    %r15
   18cef:	41 5e                	pop    %r14
   18cf1:	41 5d                	pop    %r13
   18cf3:	41 5c                	pop    %r12
   18cf5:	5f                   	pop    %rdi
   18cf6:	5e                   	pop    %rsi
   18cf7:	5d                   	pop    %rbp
   18cf8:	c3                   	retq   
   18cf9:	48 8b 1d 58 5c 01 00 	mov    0x15c58(%rip),%rbx        # 0x2e958
   18d00:	48 8b 35 61 58 01 00 	mov    0x15861(%rip),%rsi        # 0x2e568
   18d07:	eb 91                	jmp    0x18c9a
   18d09:	cc                   	int3   
   18d0a:	cc                   	int3   
   18d0b:	cc                   	int3   
   18d0c:	cc                   	int3   
   18d0d:	cc                   	int3   
   18d0e:	cc                   	int3   
   18d0f:	cc                   	int3   
   18d10:	48 89 5c 24 08       	mov    %rbx,0x8(%rsp)
   18d15:	57                   	push   %rdi
   18d16:	48 83 ec 30          	sub    $0x30,%rsp
   18d1a:	81 fa 00 01 00 00    	cmp    $0x100,%edx
   18d20:	49 8b d8             	mov    %r8,%rbx
   18d23:	48 8b f9             	mov    %rcx,%rdi
   18d26:	66 89 54 24 20       	mov    %dx,0x20(%rsp)
   18d2b:	0f 84 e6 00 00 00    	je     0x18e17
   18d31:	81 fa 01 01 00 00    	cmp    $0x101,%edx
   18d37:	0f 84 ab 00 00 00    	je     0x18de8
   18d3d:	81 fa 02 01 00 00    	cmp    $0x102,%edx
   18d43:	0f 84 8a 00 00 00    	je     0x18dd3
   18d49:	81 fa 09 01 00 00    	cmp    $0x109,%edx
   18d4f:	74 31                	je     0x18d82
   18d51:	81 fa 0f 01 00 00    	cmp    $0x10f,%edx
   18d57:	0f 84 b6 00 00 00    	je     0x18e13
   18d5d:	81 fa 86 02 00 00    	cmp    $0x286,%edx
   18d63:	74 6e                	je     0x18dd3
   18d65:	81 fa ff 02 00 00    	cmp    $0x2ff,%edx
   18d6b:	0f 86 a2 00 00 00    	jbe    0x18e13
   18d71:	81 fa 02 03 00 00    	cmp    $0x302,%edx
   18d77:	0f 87 96 00 00 00    	ja     0x18e13
   18d7d:	e9 a9 00 00 00       	jmpq   0x18e2b
   18d82:	48 81 fb ff ff 00 00 	cmp    $0xffff,%rbx
   18d89:	0f 84 84 00 00 00    	je     0x18e13
   18d8f:	44 8b 44 24 60       	mov    0x60(%rsp),%r8d
   18d94:	49 c1 e9 10          	shr    $0x10,%r9
   18d98:	48 8b c3             	mov    %rbx,%rax
   18d9b:	48 c1 e8 10          	shr    $0x10,%rax
   18d9f:	44 88 4c 24 22       	mov    %r9b,0x22(%rsp)
   18da4:	66 ba 05 00          	mov    $0x5,%dx
   18da8:	0f b6 c0             	movzbl %al,%eax
   18dab:	66 89 44 24 23       	mov    %ax,0x23(%rsp)
   18db0:	41 0f b6 c1          	movzbl %r9b,%eax
   18db4:	4c 8b c9             	mov    %rcx,%r9
   18db7:	48 8d 4c 24 20       	lea    0x20(%rsp),%rcx
   18dbc:	89 05 8a 5b 01 00    	mov    %eax,0x15b8a(%rip)        # 0x2e94c
   18dc2:	e8 49 fc ff ff       	callq  0x18a10
   18dc7:	44 0f b6 db          	movzbl %bl,%r11d
   18dcb:	66 44 89 5c 24 23    	mov    %r11w,0x23(%rsp)
   18dd1:	eb 58                	jmp    0x18e2b
   18dd3:	49 c1 e9 10          	shr    $0x10,%r9
   18dd7:	66 89 5c 24 23       	mov    %bx,0x23(%rsp)
   18ddc:	41 0f b6 c1          	movzbl %r9b,%eax
   18de0:	89 05 66 5b 01 00    	mov    %eax,0x15b66(%rip)        # 0x2e94c
   18de6:	eb 3e                	jmp    0x18e26
   18de8:	8b 05 5e 5b 01 00    	mov    0x15b5e(%rip),%eax        # 0x2e94c
   18dee:	49 c1 e9 10          	shr    $0x10,%r9
   18df2:	41 0f b6 c9          	movzbl %r9b,%ecx
   18df6:	48 3b c8             	cmp    %rax,%rcx
   18df9:	74 09                	je     0x18e04
   18dfb:	48 3b 1d 66 5b 01 00 	cmp    0x15b66(%rip),%rbx        # 0x2e968
   18e02:	75 1e                	jne    0x18e22
   18e04:	48 3b 3d 55 5b 01 00 	cmp    0x15b55(%rip),%rdi        # 0x2e960
   18e0b:	75 15                	jne    0x18e22
   18e0d:	48 83 fb 10          	cmp    $0x10,%rbx
   18e11:	74 0f                	je     0x18e22
   18e13:	33 c0                	xor    %eax,%eax
   18e15:	eb 49                	jmp    0x18e60
   18e17:	49 c1 e9 10          	shr    $0x10,%r9
   18e1b:	48 89 1d 46 5b 01 00 	mov    %rbx,0x15b46(%rip)        # 0x2e968
   18e22:	88 5c 24 23          	mov    %bl,0x23(%rsp)
   18e26:	44 88 4c 24 22       	mov    %r9b,0x22(%rsp)
   18e2b:	48 3b 3d 2e 5b 01 00 	cmp    0x15b2e(%rip),%rdi        # 0x2e960
   18e32:	74 0f                	je     0x18e43
   18e34:	48 83 25 2c 5b 01 00 	andq   $0x0,0x15b2c(%rip)        # 0x2e968
   18e3b:	00 
   18e3c:	83 25 09 5b 01 00 00 	andl   $0x0,0x15b09(%rip)        # 0x2e94c
   18e43:	44 8b 44 24 60       	mov    0x60(%rsp),%r8d
   18e48:	48 8d 4c 24 20       	lea    0x20(%rsp),%rcx
   18e4d:	4c 8b cf             	mov    %rdi,%r9
   18e50:	66 ba 05 00          	mov    $0x5,%dx
   18e54:	48 89 3d 05 5b 01 00 	mov    %rdi,0x15b05(%rip)        # 0x2e960
   18e5b:	e8 b0 fb ff ff       	callq  0x18a10
   18e60:	48 8b 5c 24 40       	mov    0x40(%rsp),%rbx
   18e65:	48 83 c4 30          	add    $0x30,%rsp
   18e69:	5f                   	pop    %rdi
   18e6a:	c3                   	retq   
   18e6b:	cc                   	int3   
   18e6c:	cc                   	int3   
   18e6d:	cc                   	int3   
   18e6e:	cc                   	int3   
   18e6f:	cc                   	int3   
   18e70:	cc                   	int3   
   18e71:	cc                   	int3   
   18e72:	cc                   	int3   
   18e73:	cc                   	int3   
   18e74:	48 8b c4             	mov    %rsp,%rax
   18e77:	48 89 48 08          	mov    %rcx,0x8(%rax)
   18e7b:	53                   	push   %rbx
   18e7c:	48 83 ec 60          	sub    $0x60,%rsp
   18e80:	33 db                	xor    %ebx,%ebx
   18e82:	48 89 58 18          	mov    %rbx,0x18(%rax)
   18e86:	48 39 1d 13 59 01 00 	cmp    %rbx,0x15913(%rip)        # 0x2e7a0
   18e8d:	75 63                	jne    0x18ef2
   18e8f:	48 39 1d 12 59 01 00 	cmp    %rbx,0x15912(%rip)        # 0x2e7a8
   18e96:	74 5a                	je     0x18ef2
   18e98:	48 39 1d 11 59 01 00 	cmp    %rbx,0x15911(%rip)        # 0x2e7b0
   18e9f:	74 51                	je     0x18ef2
   18ea1:	48 39 1d 10 59 01 00 	cmp    %rbx,0x15910(%rip)        # 0x2e7b8
   18ea8:	74 48                	je     0x18ef2
   18eaa:	48 39 1d 0f 59 01 00 	cmp    %rbx,0x1590f(%rip)        # 0x2e7c0
   18eb1:	74 3f                	je     0x18ef2
   18eb3:	48 39 1d 0e 59 01 00 	cmp    %rbx,0x1590e(%rip)        # 0x2e7c8
   18eba:	74 36                	je     0x18ef2
   18ebc:	48 39 1d 0d 59 01 00 	cmp    %rbx,0x1590d(%rip)        # 0x2e7d0
   18ec3:	74 2d                	je     0x18ef2
   18ec5:	48 39 1d 0c 59 01 00 	cmp    %rbx,0x1590c(%rip)        # 0x2e7d8
   18ecc:	74 24                	je     0x18ef2
   18ece:	48 8b 05 0b 59 01 00 	mov    0x1590b(%rip),%rax        # 0x2e7e0
   18ed5:	48 3b c3             	cmp    %rbx,%rax
   18ed8:	74 1f                	je     0x18ef9
   18eda:	48 39 1d 07 59 01 00 	cmp    %rbx,0x15907(%rip)        # 0x2e7e8
   18ee1:	74 16                	je     0x18ef9
   18ee3:	48 39 1d 06 59 01 00 	cmp    %rbx,0x15906(%rip)        # 0x2e7f0
   18eea:	0f 85 98 00 00 00    	jne    0x18f88
   18ef0:	eb 07                	jmp    0x18ef9
   18ef2:	48 8b 05 e7 58 01 00 	mov    0x158e7(%rip),%rax        # 0x2e7e0
   18ef9:	c7 44 24 30 30 00 00 	movl   $0x30,0x30(%rsp)
   18f00:	00 
   18f01:	48 89 5c 24 38       	mov    %rbx,0x38(%rsp)
   18f06:	48 89 5c 24 40       	mov    %rbx,0x40(%rsp)
   18f0b:	c7 44 24 48 40 00 00 	movl   $0x40,0x48(%rsp)
   18f12:	00 
   18f13:	48 89 5c 24 50       	mov    %rbx,0x50(%rsp)
   18f18:	48 89 5c 24 58       	mov    %rbx,0x58(%rsp)
   18f1d:	48 89 5c 24 20       	mov    %rbx,0x20(%rsp)
   18f22:	48 89 5c 24 28       	mov    %rbx,0x28(%rsp)
   18f27:	48 89 54 24 20       	mov    %rdx,0x20(%rsp)
   18f2c:	4c 8d 4c 24 20       	lea    0x20(%rsp),%r9
   18f31:	4c 8d 44 24 30       	lea    0x30(%rsp),%r8
   18f36:	ba 28 00 00 00       	mov    $0x28,%edx
   18f3b:	48 8d 8c 24 80 00 00 	lea    0x80(%rsp),%rcx
   18f42:	00 
   18f43:	ff d0                	callq  *%rax
   18f45:	48 8b 8c 24 80 00 00 	mov    0x80(%rsp),%rcx
   18f4c:	00 
   18f4d:	48 3b cb             	cmp    %rbx,%rcx
   18f50:	74 2b                	je     0x18f7d
   18f52:	48 39 5c 24 70       	cmp    %rbx,0x70(%rsp)
   18f57:	74 24                	je     0x18f7d
   18f59:	48 8b 05 20 5a 01 00 	mov    0x15a20(%rip),%rax        # 0x2e980
   18f60:	48 3b c3             	cmp    %rbx,%rax
   18f63:	74 18                	je     0x18f7d
   18f65:	41 b9 00 80 00 00    	mov    $0x8000,%r9d
   18f6b:	45 33 c0             	xor    %r8d,%r8d
   18f6e:	48 8d 54 24 70       	lea    0x70(%rsp),%rdx
   18f73:	ff d0                	callq  *%rax
   18f75:	48 8b 8c 24 80 00 00 	mov    0x80(%rsp),%rcx
   18f7c:	00 
   18f7d:	48 3b cb             	cmp    %rbx,%rcx
   18f80:	74 06                	je     0x18f88
   18f82:	ff 15 38 58 01 00    	callq  *0x15838(%rip)        # 0x2e7c0
   18f88:	48 83 c4 60          	add    $0x60,%rsp
   18f8c:	5b                   	pop    %rbx
   18f8d:	c3                   	retq   
   18f8e:	cc                   	int3   
   18f8f:	cc                   	int3   
   18f90:	cc                   	int3   
   18f91:	cc                   	int3   
   18f92:	cc                   	int3   
   18f93:	cc                   	int3   
   18f94:	40 53                	rex push %rbx
   18f96:	55                   	push   %rbp
   18f97:	48 83 ec 28          	sub    $0x28,%rsp
   18f9b:	48 8b ea             	mov    %rdx,%rbp
   18f9e:	48 8b 8d 80 00 00 00 	mov    0x80(%rbp),%rcx
   18fa5:	33 db                	xor    %ebx,%ebx
   18fa7:	48 3b cb             	cmp    %rbx,%rcx
   18faa:	74 06                	je     0x18fb2
   18fac:	ff 15 0e 58 01 00    	callq  *0x1580e(%rip)        # 0x2e7c0
   18fb2:	48 83 c4 28          	add    $0x28,%rsp
   18fb6:	5d                   	pop    %rbp
   18fb7:	5b                   	pop    %rbx
   18fb8:	c3                   	retq   
   18fb9:	cc                   	int3   
   18fba:	cc                   	int3   
   18fbb:	cc                   	int3   
   18fbc:	cc                   	int3   
   18fbd:	cc                   	int3   
   18fbe:	cc                   	int3   
   18fbf:	cc                   	int3   
   18fc0:	48 83 ec 38          	sub    $0x38,%rsp
   18fc4:	48 83 3d d4 57 01 00 	cmpq   $0x0,0x157d4(%rip)        # 0x2e7a0
   18fcb:	00 
   18fcc:	48 8b 05 f5 57 01 00 	mov    0x157f5(%rip),%rax        # 0x2e7c8
   18fd3:	41 b9 04 00 00 00    	mov    $0x4,%r9d
   18fd9:	44 89 4c 24 48       	mov    %r9d,0x48(%rsp)
   18fde:	75 5f                	jne    0x1903f
   18fe0:	48 83 3d c0 57 01 00 	cmpq   $0x0,0x157c0(%rip)        # 0x2e7a8
   18fe7:	00 
   18fe8:	74 55                	je     0x1903f
   18fea:	48 83 3d be 57 01 00 	cmpq   $0x0,0x157be(%rip)        # 0x2e7b0
   18ff1:	00 
   18ff2:	74 4b                	je     0x1903f
   18ff4:	48 83 3d bc 57 01 00 	cmpq   $0x0,0x157bc(%rip)        # 0x2e7b8
   18ffb:	00 
   18ffc:	74 41                	je     0x1903f
   18ffe:	48 83 3d ba 57 01 00 	cmpq   $0x0,0x157ba(%rip)        # 0x2e7c0
   19005:	00 
   19006:	74 37                	je     0x1903f
   19008:	48 85 c0             	test   %rax,%rax
   1900b:	74 32                	je     0x1903f
   1900d:	48 83 3d bb 57 01 00 	cmpq   $0x0,0x157bb(%rip)        # 0x2e7d0
   19014:	00 
   19015:	74 28                	je     0x1903f
   19017:	48 83 3d b9 57 01 00 	cmpq   $0x0,0x157b9(%rip)        # 0x2e7d8
   1901e:	00 
   1901f:	74 1e                	je     0x1903f
   19021:	48 83 3d b7 57 01 00 	cmpq   $0x0,0x157b7(%rip)        # 0x2e7e0
   19028:	00 
   19029:	74 14                	je     0x1903f
   1902b:	48 83 3d b5 57 01 00 	cmpq   $0x0,0x157b5(%rip)        # 0x2e7e8
   19032:	00 
   19033:	74 0a                	je     0x1903f
   19035:	48 83 3d b3 57 01 00 	cmpq   $0x0,0x157b3(%rip)        # 0x2e7f0
   1903c:	00 
   1903d:	75 1e                	jne    0x1905d
   1903f:	48 8d 4c 24 48       	lea    0x48(%rsp),%rcx
   19044:	4c 8d 44 24 50       	lea    0x50(%rsp),%r8
   19049:	ba 18 00 00 00       	mov    $0x18,%edx
   1904e:	48 89 4c 24 20       	mov    %rcx,0x20(%rsp)
   19053:	48 83 c9 ff          	or     $0xffffffffffffffff,%rcx
   19057:	ff d0                	callq  *%rax
   19059:	85 c0                	test   %eax,%eax
   1905b:	74 05                	je     0x19062
   1905d:	83 c8 ff             	or     $0xffffffff,%eax
   19060:	eb 04                	jmp    0x19066
   19062:	8b 44 24 50          	mov    0x50(%rsp),%eax
   19066:	48 83 c4 38          	add    $0x38,%rsp
   1906a:	c3                   	retq   
   1906b:	cc                   	int3   
   1906c:	cc                   	int3   
   1906d:	cc                   	int3   
   1906e:	cc                   	int3   
   1906f:	cc                   	int3   
   19070:	cc                   	int3   
   19071:	cc                   	int3   
   19072:	cc                   	int3   
   19073:	cc                   	int3   
   19074:	48 8b c4             	mov    %rsp,%rax
   19077:	48 89 58 08          	mov    %rbx,0x8(%rax)
   1907b:	48 89 68 10          	mov    %rbp,0x10(%rax)
   1907f:	48 89 70 18          	mov    %rsi,0x18(%rax)
   19083:	48 89 78 20          	mov    %rdi,0x20(%rax)
   19087:	41 54                	push   %r12
   19089:	48 83 ec 40          	sub    $0x40,%rsp
   1908d:	45 33 e4             	xor    %r12d,%r12d
   19090:	49 8b e8             	mov    %r8,%rbp
   19093:	48 8b f2             	mov    %rdx,%rsi
   19096:	4c 39 25 03 57 01 00 	cmp    %r12,0x15703(%rip)        # 0x2e7a0
   1909d:	44 89 60 e8          	mov    %r12d,-0x18(%rax)
   190a1:	48 8b 05 20 57 01 00 	mov    0x15720(%rip),%rax        # 0x2e7c8
   190a8:	75 5e                	jne    0x19108
   190aa:	4c 39 25 f7 56 01 00 	cmp    %r12,0x156f7(%rip)        # 0x2e7a8
   190b1:	74 55                	je     0x19108
   190b3:	4c 39 25 f6 56 01 00 	cmp    %r12,0x156f6(%rip)        # 0x2e7b0
   190ba:	74 4c                	je     0x19108
   190bc:	4c 39 25 f5 56 01 00 	cmp    %r12,0x156f5(%rip)        # 0x2e7b8
   190c3:	74 43                	je     0x19108
   190c5:	4c 39 25 f4 56 01 00 	cmp    %r12,0x156f4(%rip)        # 0x2e7c0
   190cc:	74 3a                	je     0x19108
   190ce:	49 3b c4             	cmp    %r12,%rax
   190d1:	74 35                	je     0x19108
   190d3:	4c 39 25 f6 56 01 00 	cmp    %r12,0x156f6(%rip)        # 0x2e7d0
   190da:	74 2c                	je     0x19108
   190dc:	4c 39 25 f5 56 01 00 	cmp    %r12,0x156f5(%rip)        # 0x2e7d8
   190e3:	74 23                	je     0x19108
   190e5:	4c 39 25 f4 56 01 00 	cmp    %r12,0x156f4(%rip)        # 0x2e7e0
   190ec:	74 1a                	je     0x19108
   190ee:	4c 39 25 f3 56 01 00 	cmp    %r12,0x156f3(%rip)        # 0x2e7e8
   190f5:	74 11                	je     0x19108
   190f7:	4c 39 25 f2 56 01 00 	cmp    %r12,0x156f2(%rip)        # 0x2e7f0
   190fe:	74 08                	je     0x19108
   19100:	83 c8 ff             	or     $0xffffffff,%eax
   19103:	e9 10 01 00 00       	jmpq   0x19218
   19108:	45 33 c9             	xor    %r9d,%r9d
   1910b:	48 8d 4c 24 30       	lea    0x30(%rsp),%rcx
   19110:	45 33 c0             	xor    %r8d,%r8d
   19113:	41 8d 59 1b          	lea    0x1b(%r9),%ebx
   19117:	48 89 4c 24 20       	mov    %rcx,0x20(%rsp)
   1911c:	48 83 c9 ff          	or     $0xffffffffffffffff,%rcx
   19120:	8b d3                	mov    %ebx,%edx
   19122:	ff d0                	callq  *%rax
   19124:	3d 03 00 00 c0       	cmp    $0xc0000003,%eax
   19129:	75 4f                	jne    0x1917a
   1912b:	ff 15 bf 56 01 00    	callq  *0x156bf(%rip)        # 0x2e7f0
   19131:	4c 8d 98 fc 01 00 00 	lea    0x1fc(%rax),%r11
   19138:	41 8b c4             	mov    %r12d,%eax
   1913b:	45 38 23             	cmp    %r12b,(%r11)
   1913e:	74 0f                	je     0x1914f
   19140:	49 8b cb             	mov    %r11,%rcx
   19143:	48 83 c1 01          	add    $0x1,%rcx
   19147:	83 c0 01             	add    $0x1,%eax
   1914a:	44 38 21             	cmp    %r12b,(%rcx)
   1914d:	75 f4                	jne    0x19143
   1914f:	39 45 00             	cmp    %eax,0x0(%rbp)
   19152:	0f 86 be 00 00 00    	jbe    0x19216
   19158:	83 c0 01             	add    $0x1,%eax
   1915b:	89 45 00             	mov    %eax,0x0(%rbp)
   1915e:	8b c8                	mov    %eax,%ecx
   19160:	41 0f be 03          	movsbl (%r11),%eax
   19164:	49 83 c3 01          	add    $0x1,%r11
   19168:	66 89 06             	mov    %ax,(%rsi)
   1916b:	48 83 c6 02          	add    $0x2,%rsi
   1916f:	48 83 e9 01          	sub    $0x1,%rcx
   19173:	75 eb                	jne    0x19160
   19175:	e9 9c 00 00 00       	jmpq   0x19216
   1917a:	3d 04 00 00 c0       	cmp    $0xc0000004,%eax
   1917f:	0f 85 91 00 00 00    	jne    0x19216
   19185:	8b 54 24 30          	mov    0x30(%rsp),%edx
   19189:	b9 01 00 00 00       	mov    $0x1,%ecx
   1918e:	ff 15 34 8f 00 00    	callq  *0x8f34(%rip)        # 0x220c8
   19194:	49 3b c4             	cmp    %r12,%rax
   19197:	48 8b f8             	mov    %rax,%rdi
   1919a:	74 7a                	je     0x19216
   1919c:	44 8b 4c 24 30       	mov    0x30(%rsp),%r9d
   191a1:	48 8d 44 24 30       	lea    0x30(%rsp),%rax
   191a6:	4c 8b c7             	mov    %rdi,%r8
   191a9:	8b d3                	mov    %ebx,%edx
   191ab:	48 83 c9 ff          	or     $0xffffffffffffffff,%rcx
   191af:	48 89 44 24 20       	mov    %rax,0x20(%rsp)
   191b4:	ff 15 0e 56 01 00    	callq  *0x1560e(%rip)        # 0x2e7c8
   191ba:	41 3b c4             	cmp    %r12d,%eax
   191bd:	75 4c                	jne    0x1920b
   191bf:	0f b7 1f             	movzwl (%rdi),%ebx
   191c2:	4c 8b 4f 08          	mov    0x8(%rdi),%r9
   191c6:	d1 eb                	shr    %ebx
   191c8:	8d 53 fe             	lea    -0x2(%rbx),%edx
   191cb:	48 63 c2             	movslq %edx,%rax
   191ce:	49 3b c4             	cmp    %r12,%rax
   191d1:	7c 1f                	jl     0x191f2
   191d3:	66 41 83 3c 41 5c    	cmpw   $0x5c,(%r9,%rax,2)
   191d9:	74 0b                	je     0x191e6
   191db:	83 ea 01             	sub    $0x1,%edx
   191de:	48 83 e8 01          	sub    $0x1,%rax
   191e2:	79 ef                	jns    0x191d3
   191e4:	eb 0c                	jmp    0x191f2
   191e6:	8d 42 01             	lea    0x1(%rdx),%eax
   191e9:	2b da                	sub    %edx,%ebx
   191eb:	48 63 c8             	movslq %eax,%rcx
   191ee:	4d 8d 0c 49          	lea    (%r9,%rcx,2),%r9
   191f2:	39 5d 00             	cmp    %ebx,0x0(%rbp)
   191f5:	72 14                	jb     0x1920b
   191f7:	44 8b c3             	mov    %ebx,%r8d
   191fa:	49 8b d1             	mov    %r9,%rdx
   191fd:	48 8b ce             	mov    %rsi,%rcx
   19200:	4d 03 c0             	add    %r8,%r8
   19203:	e8 18 73 00 00       	callq  0x20520
   19208:	89 5d 00             	mov    %ebx,0x0(%rbp)
   1920b:	33 d2                	xor    %edx,%edx
   1920d:	48 8b cf             	mov    %rdi,%rcx
   19210:	ff 15 f2 8d 00 00    	callq  *0x8df2(%rip)        # 0x22008
   19216:	33 c0                	xor    %eax,%eax
   19218:	48 8b 5c 24 50       	mov    0x50(%rsp),%rbx
   1921d:	48 8b 6c 24 58       	mov    0x58(%rsp),%rbp
   19222:	48 8b 74 24 60       	mov    0x60(%rsp),%rsi
   19227:	48 8b 7c 24 68       	mov    0x68(%rsp),%rdi
   1922c:	48 83 c4 40          	add    $0x40,%rsp
   19230:	41 5c                	pop    %r12
   19232:	c3                   	retq   
   19233:	cc                   	int3   
   19234:	cc                   	int3   
   19235:	cc                   	int3   
   19236:	cc                   	int3   
   19237:	cc                   	int3   
   19238:	cc                   	int3   
   19239:	cc                   	int3   
   1923a:	cc                   	int3   
   1923b:	cc                   	int3   
   1923c:	48 8b c4             	mov    %rsp,%rax
   1923f:	48 89 58 18          	mov    %rbx,0x18(%rax)
   19243:	56                   	push   %rsi
   19244:	48 81 ec a0 00 00 00 	sub    $0xa0,%rsp
   1924b:	c6 44 24 20 eb       	movb   $0xeb,0x20(%rsp)
   19250:	c6 44 24 21 ac       	movb   $0xac,0x21(%rsp)
   19255:	c6 44 24 22 c4       	movb   $0xc4,0x22(%rsp)
   1925a:	c6 44 24 23 bd       	movb   $0xbd,0x23(%rsp)
   1925f:	c6 44 24 24 98       	movb   $0x98,0x24(%rsp)
   19264:	c6 44 24 25 ba       	movb   $0xba,0x25(%rsp)
   19269:	c6 44 24 26 f9       	movb   $0xf9,0x26(%rsp)
   1926e:	c6 44 24 27 91       	movb   $0x91,0x27(%rsp)
   19273:	33 f6                	xor    %esi,%esi
   19275:	48 39 35 24 55 01 00 	cmp    %rsi,0x15524(%rip)        # 0x2e7a0
   1927c:	66 c7 40 98 18 8a    	movw   $0x8a18,-0x68(%rax)
   19282:	66 c7 40 9a 64 e6    	movw   $0xe664,-0x66(%rax)
   19288:	66 c7 40 9c 9f f5    	movw   $0xf59f,-0x64(%rax)
   1928e:	66 c7 40 9e 2e 86    	movw   $0x862e,-0x62(%rax)
   19294:	66 c7 40 a0 6a eb    	movw   $0xeb6a,-0x60(%rax)
   1929a:	66 c7 40 a2 4f 80    	movw   $0x804f,-0x5e(%rax)
   192a0:	66 c7 40 a4 d2 95    	movw   $0x95d2,-0x5c(%rax)
   192a6:	66 c7 40 a6 09 e0    	movw   $0xe009,-0x5a(%rax)
   192ac:	66 c7 40 a8 70 a4    	movw   $0xa470,-0x58(%rax)
   192b2:	66 89 70 aa          	mov    %si,-0x56(%rax)
   192b6:	66 c7 40 b0 ae 9d    	movw   $0x9dae,-0x50(%rax)
   192bc:	66 c7 40 b2 60 9c    	movw   $0x9c60,-0x4e(%rax)
   192c2:	66 c7 40 b4 64 bb    	movw   $0xbb64,-0x4c(%rax)
   192c8:	66 c7 40 b6 e6 80    	movw   $0x80e6,-0x4a(%rax)
   192ce:	66 c7 40 b8 91 8b    	movw   $0x8b91,-0x48(%rax)
   192d4:	66 c7 40 ba b4 d9    	movw   $0xd9b4,-0x46(%rax)
   192da:	66 c7 40 bc 36 91    	movw   $0x9136,-0x44(%rax)
   192e0:	66 c7 40 be 5f c1    	movw   $0xc15f,-0x42(%rax)
   192e6:	66 c7 40 c0 10 d0    	movw   $0xd010,-0x40(%rax)
   192ec:	66 89 70 c2          	mov    %si,-0x3e(%rax)
   192f0:	c6 40 80 e3          	movb   $0xe3,-0x80(%rax)
   192f4:	c6 40 81 93          	movb   $0x93,-0x7f(%rax)
   192f8:	c6 40 82 bc          	movb   $0xbc,-0x7e(%rax)
   192fc:	c6 40 83 ce          	movb   $0xce,-0x7d(%rax)
   19300:	c6 40 84 f8          	movb   $0xf8,-0x7c(%rax)
   19304:	c6 40 85 8d          	movb   $0x8d,-0x7b(%rax)
   19308:	c6 40 86 b3          	movb   $0xb3,-0x7a(%rax)
   1930c:	c6 40 87 d2          	movb   $0xd2,-0x79(%rax)
   19310:	c6 40 88 95          	movb   $0x95,-0x78(%rax)
   19314:	c6 40 89 88          	movb   $0x88,-0x77(%rax)
   19318:	c6 40 8a cc          	movb   $0xcc,-0x76(%rax)
   1931c:	c6 40 8b f9          	movb   $0xf9,-0x75(%rax)
   19320:	c6 40 8c ea          	movb   $0xea,-0x74(%rax)
   19324:	c6 40 8d ac          	movb   $0xac,-0x73(%rax)
   19328:	c6 40 8e f8          	movb   $0xf8,-0x72(%rax)
   1932c:	c6 40 8f b5          	movb   $0xb5,-0x71(%rax)
   19330:	c6 40 90 a4          	movb   $0xa4,-0x70(%rax)
   19334:	c6 40 91 c0          	movb   $0xc0,-0x6f(%rax)
   19338:	c6 40 92 81          	movb   $0x81,-0x6e(%rax)
   1933c:	c6 40 93 c3          	movb   $0xc3,-0x6d(%rax)
   19340:	c6 40 94 a5          	movb   $0xa5,-0x6c(%rax)
   19344:	40 88 70 95          	mov    %sil,-0x6b(%rax)
   19348:	75 5e                	jne    0x193a8
   1934a:	48 39 35 57 54 01 00 	cmp    %rsi,0x15457(%rip)        # 0x2e7a8
   19351:	74 55                	je     0x193a8
   19353:	48 39 35 56 54 01 00 	cmp    %rsi,0x15456(%rip)        # 0x2e7b0
   1935a:	74 4c                	je     0x193a8
   1935c:	48 39 35 55 54 01 00 	cmp    %rsi,0x15455(%rip)        # 0x2e7b8
   19363:	74 43                	je     0x193a8
   19365:	48 39 35 54 54 01 00 	cmp    %rsi,0x15454(%rip)        # 0x2e7c0
   1936c:	74 3a                	je     0x193a8
   1936e:	48 39 35 53 54 01 00 	cmp    %rsi,0x15453(%rip)        # 0x2e7c8
   19375:	74 31                	je     0x193a8
   19377:	48 39 35 52 54 01 00 	cmp    %rsi,0x15452(%rip)        # 0x2e7d0
   1937e:	74 28                	je     0x193a8
   19380:	48 39 35 51 54 01 00 	cmp    %rsi,0x15451(%rip)        # 0x2e7d8
   19387:	74 1f                	je     0x193a8
   19389:	48 39 35 50 54 01 00 	cmp    %rsi,0x15450(%rip)        # 0x2e7e0
   19390:	74 16                	je     0x193a8
   19392:	48 39 35 4f 54 01 00 	cmp    %rsi,0x1544f(%rip)        # 0x2e7e8
   19399:	74 0d                	je     0x193a8
   1939b:	48 39 35 4e 54 01 00 	cmp    %rsi,0x1544e(%rip)        # 0x2e7f0
   193a2:	0f 85 ec 00 00 00    	jne    0x19494
   193a8:	48 8d 54 24 40       	lea    0x40(%rsp),%rdx
   193ad:	b9 80 b8 00 00       	mov    $0xb880,%ecx
   193b2:	e8 15 2c 00 00       	callq  0x1bfcc
   193b7:	48 8d 94 24 b0 00 00 	lea    0xb0(%rsp),%rdx
   193be:	00 
   193bf:	48 8d 4c 24 40       	lea    0x40(%rsp),%rcx
   193c4:	e8 23 a4 ff ff       	callq  0x137ec
   193c9:	48 8d 54 24 40       	lea    0x40(%rsp),%rdx
   193ce:	b9 80 b8 00 00       	mov    $0xb880,%ecx
   193d3:	8b d8                	mov    %eax,%ebx
   193d5:	e8 f2 2b 00 00       	callq  0x1bfcc
   193da:	3b de                	cmp    %esi,%ebx
   193dc:	0f 8c b2 00 00 00    	jl     0x19494
   193e2:	48 8b 8c 24 b0 00 00 	mov    0xb0(%rsp),%rcx
   193e9:	00 
   193ea:	48 8d 94 24 b8 00 00 	lea    0xb8(%rsp),%rdx
   193f1:	00 
   193f2:	e8 31 a2 ff ff       	callq  0x13628
   193f7:	3b c6                	cmp    %esi,%eax
   193f9:	0f 8c 95 00 00 00    	jl     0x19494
   193ff:	48 8b 8c 24 b8 00 00 	mov    0xb8(%rsp),%rcx
   19406:	00 
   19407:	48 8d 54 24 70       	lea    0x70(%rsp),%rdx
   1940c:	ff 15 be 53 01 00    	callq  *0x153be(%rip)        # 0x2e7d0
   19412:	33 c9                	xor    %ecx,%ecx
   19414:	e8 f7 25 00 00       	callq  0x1ba10
   19419:	b9 01 00 00 00       	mov    $0x1,%ecx
   1941e:	48 89 05 53 55 01 00 	mov    %rax,0x15553(%rip)        # 0x2e978
   19425:	e8 e6 25 00 00       	callq  0x1ba10
   1942a:	b9 02 00 00 00       	mov    $0x2,%ecx
   1942f:	48 89 05 3a 55 01 00 	mov    %rax,0x1553a(%rip)        # 0x2e970
   19436:	e8 d5 25 00 00       	callq  0x1ba10
   1943b:	48 39 35 2e 55 01 00 	cmp    %rsi,0x1552e(%rip)        # 0x2e970
   19442:	48 89 05 37 55 01 00 	mov    %rax,0x15537(%rip)        # 0x2e980
   19449:	74 3e                	je     0x19489
   1944b:	48 39 35 26 55 01 00 	cmp    %rsi,0x15526(%rip)        # 0x2e978
   19452:	74 35                	je     0x19489
   19454:	48 3b c6             	cmp    %rsi,%rax
   19457:	74 30                	je     0x19489
   19459:	4c 8d 44 24 20       	lea    0x20(%rsp),%r8
   1945e:	48 8d 4c 24 58       	lea    0x58(%rsp),%rcx
   19463:	41 b9 00 eb d1 00    	mov    $0xd1eb00,%r9d
   19469:	ba 00 57 6f 00       	mov    $0x6f5700,%edx
   1946e:	e8 8d 27 00 00       	callq  0x1bc00
   19473:	48 8d 4c 24 70       	lea    0x70(%rsp),%rcx
   19478:	48 89 05 11 55 01 00 	mov    %rax,0x15511(%rip)        # 0x2e990
   1947f:	ff 15 53 53 01 00    	callq  *0x15353(%rip)        # 0x2e7d8
   19485:	33 c0                	xor    %eax,%eax
   19487:	eb 10                	jmp    0x19499
   19489:	48 8d 4c 24 70       	lea    0x70(%rsp),%rcx
   1948e:	ff 15 44 53 01 00    	callq  *0x15344(%rip)        # 0x2e7d8
   19494:	b8 01 00 00 c0       	mov    $0xc0000001,%eax
   19499:	48 8b 9c 24 c0 00 00 	mov    0xc0(%rsp),%rbx
   194a0:	00 
   194a1:	48 81 c4 a0 00 00 00 	add    $0xa0,%rsp
   194a8:	5e                   	pop    %rsi
   194a9:	c3                   	retq   
   194aa:	cc                   	int3   
   194ab:	cc                   	int3   
   194ac:	cc                   	int3   
   194ad:	cc                   	int3   
   194ae:	cc                   	int3   
   194af:	cc                   	int3   
   194b0:	4c 8b dc             	mov    %rsp,%r11
   194b3:	53                   	push   %rbx
   194b4:	56                   	push   %rsi
   194b5:	57                   	push   %rdi
   194b6:	41 54                	push   %r12
   194b8:	41 55                	push   %r13
   194ba:	48 81 ec 80 00 00 00 	sub    $0x80,%rsp
   194c1:	48 8b f2             	mov    %rdx,%rsi
   194c4:	4c 8b e1             	mov    %rcx,%r12
   194c7:	33 db                	xor    %ebx,%ebx
   194c9:	49 89 5b 10          	mov    %rbx,0x10(%r11)
   194cd:	49 89 5b 18          	mov    %rbx,0x18(%r11)
   194d1:	c7 44 24 48 30 00 00 	movl   $0x30,0x48(%rsp)
   194d8:	00 
   194d9:	49 89 5b a8          	mov    %rbx,-0x58(%r11)
   194dd:	49 89 5b b0          	mov    %rbx,-0x50(%r11)
   194e1:	c7 44 24 60 40 00 00 	movl   $0x40,0x60(%rsp)
   194e8:	00 
   194e9:	49 89 5b c0          	mov    %rbx,-0x40(%r11)
   194ed:	49 89 5b c8          	mov    %rbx,-0x38(%r11)
   194f1:	49 89 5b 90          	mov    %rbx,-0x70(%r11)
   194f5:	33 c0                	xor    %eax,%eax
   194f7:	49 89 43 98          	mov    %rax,-0x68(%r11)
   194fb:	8b 02                	mov    (%rdx),%eax
   194fd:	48 03 c0             	add    %rax,%rax
   19500:	49 89 43 20          	mov    %rax,0x20(%r11)
   19504:	48 39 1d 95 52 01 00 	cmp    %rbx,0x15295(%rip)        # 0x2e7a0
   1950b:	75 67                	jne    0x19574
   1950d:	48 39 1d 94 52 01 00 	cmp    %rbx,0x15294(%rip)        # 0x2e7a8
   19514:	74 5e                	je     0x19574
   19516:	48 39 1d 93 52 01 00 	cmp    %rbx,0x15293(%rip)        # 0x2e7b0
   1951d:	74 55                	je     0x19574
   1951f:	48 39 1d 92 52 01 00 	cmp    %rbx,0x15292(%rip)        # 0x2e7b8
   19526:	74 4c                	je     0x19574
   19528:	48 39 1d 91 52 01 00 	cmp    %rbx,0x15291(%rip)        # 0x2e7c0
   1952f:	74 43                	je     0x19574
   19531:	48 39 1d 90 52 01 00 	cmp    %rbx,0x15290(%rip)        # 0x2e7c8
   19538:	74 3a                	je     0x19574
   1953a:	48 39 1d 8f 52 01 00 	cmp    %rbx,0x1528f(%rip)        # 0x2e7d0
   19541:	74 31                	je     0x19574
   19543:	48 39 1d 8e 52 01 00 	cmp    %rbx,0x1528e(%rip)        # 0x2e7d8
   1954a:	74 28                	je     0x19574
   1954c:	48 39 1d 8d 52 01 00 	cmp    %rbx,0x1528d(%rip)        # 0x2e7e0
   19553:	74 1f                	je     0x19574
   19555:	48 8b 05 8c 52 01 00 	mov    0x1528c(%rip),%rax        # 0x2e7e8
   1955c:	48 3b c3             	cmp    %rbx,%rax
   1955f:	74 1a                	je     0x1957b
   19561:	48 39 1d 88 52 01 00 	cmp    %rbx,0x15288(%rip)        # 0x2e7f0
   19568:	74 11                	je     0x1957b
   1956a:	b8 01 00 00 c0       	mov    $0xc0000001,%eax
   1956f:	e9 41 01 00 00       	jmpq   0x196b5
   19574:	48 8b 05 6d 52 01 00 	mov    0x1526d(%rip),%rax        # 0x2e7e8
   1957b:	ff d0                	callq  *%rax
   1957d:	48 89 44 24 38       	mov    %rax,0x38(%rsp)
   19582:	48 89 5c 24 40       	mov    %rbx,0x40(%rsp)
   19587:	48 8b 05 e2 53 01 00 	mov    0x153e2(%rip),%rax        # 0x2e970
   1958e:	48 3b c3             	cmp    %rbx,%rax
   19591:	0f 84 d7 00 00 00    	je     0x1966e
   19597:	48 39 1d da 53 01 00 	cmp    %rbx,0x153da(%rip)        # 0x2e978
   1959e:	0f 84 ca 00 00 00    	je     0x1966e
   195a4:	4c 3b e3             	cmp    %rbx,%r12
   195a7:	0f 84 c1 00 00 00    	je     0x1966e
   195ad:	39 1e                	cmp    %ebx,(%rsi)
   195af:	0f 84 b9 00 00 00    	je     0x1966e
   195b5:	ff d0                	callq  *%rax
   195b7:	4c 8b e8             	mov    %rax,%r13
   195ba:	4c 8d 4c 24 38       	lea    0x38(%rsp),%r9
   195bf:	4c 8d 44 24 48       	lea    0x48(%rsp),%r8
   195c4:	ba 28 00 00 00       	mov    $0x28,%edx
   195c9:	48 8d 8c 24 c0 00 00 	lea    0xc0(%rsp),%rcx
   195d0:	00 
   195d1:	ff 15 09 52 01 00    	callq  *0x15209(%rip)        # 0x2e7e0
   195d7:	89 44 24 30          	mov    %eax,0x30(%rsp)
   195db:	48 39 9c 24 c0 00 00 	cmp    %rbx,0xc0(%rsp)
   195e2:	00 
   195e3:	75 0e                	jne    0x195f3
   195e5:	bf 01 00 00 c0       	mov    $0xc0000001,%edi
   195ea:	89 7c 24 30          	mov    %edi,0x30(%rsp)
   195ee:	e9 84 00 00 00       	jmpq   0x19677
   195f3:	c7 44 24 28 04 00 00 	movl   $0x4,0x28(%rsp)
   195fa:	00 
   195fb:	c7 44 24 20 00 30 00 	movl   $0x3000,0x20(%rsp)
   19602:	00 
   19603:	4c 8d 8c 24 c8 00 00 	lea    0xc8(%rsp),%r9
   1960a:	00 
   1960b:	45 33 c0             	xor    %r8d,%r8d
   1960e:	48 8d 94 24 b8 00 00 	lea    0xb8(%rsp),%rdx
   19615:	00 
   19616:	48 8b 8c 24 c0 00 00 	mov    0xc0(%rsp),%rcx
   1961d:	00 
   1961e:	e8 81 73 00 00       	callq  0x209a4
   19623:	8b f8                	mov    %eax,%edi
   19625:	89 44 24 30          	mov    %eax,0x30(%rsp)
   19629:	48 8b 94 24 b8 00 00 	mov    0xb8(%rsp),%rdx
   19630:	00 
   19631:	48 3b d3             	cmp    %rbx,%rdx
   19634:	74 41                	je     0x19677
   19636:	44 8b 06             	mov    (%rsi),%r8d
   19639:	49 8b cd             	mov    %r13,%rcx
   1963c:	ff 15 36 53 01 00    	callq  *0x15336(%rip)        # 0x2e978
   19642:	83 c0 01             	add    $0x1,%eax
   19645:	89 06                	mov    %eax,(%rsi)
   19647:	3b c3                	cmp    %ebx,%eax
   19649:	75 0b                	jne    0x19656
   1964b:	bf 01 00 00 c0       	mov    $0xc0000001,%edi
   19650:	89 7c 24 30          	mov    %edi,0x30(%rsp)
   19654:	eb 21                	jmp    0x19677
   19656:	44 8b c0             	mov    %eax,%r8d
   19659:	4d 03 c0             	add    %r8,%r8
   1965c:	48 8b 94 24 b8 00 00 	mov    0xb8(%rsp),%rdx
   19663:	00 
   19664:	49 8b cc             	mov    %r12,%rcx
   19667:	e8 b4 6e 00 00       	callq  0x20520
   1966c:	eb 09                	jmp    0x19677
   1966e:	bf 01 00 00 c0       	mov    $0xc0000001,%edi
   19673:	89 7c 24 30          	mov    %edi,0x30(%rsp)
   19677:	48 39 9c 24 b8 00 00 	cmp    %rbx,0xb8(%rsp)
   1967e:	00 
   1967f:	74 1f                	je     0x196a0
   19681:	41 b9 00 80 00 00    	mov    $0x8000,%r9d
   19687:	45 33 c0             	xor    %r8d,%r8d
   1968a:	48 8d 94 24 b8 00 00 	lea    0xb8(%rsp),%rdx
   19691:	00 
   19692:	48 8b 8c 24 c0 00 00 	mov    0xc0(%rsp),%rcx
   19699:	00 
   1969a:	ff 15 e0 52 01 00    	callq  *0x152e0(%rip)        # 0x2e980
   196a0:	48 8b 8c 24 c0 00 00 	mov    0xc0(%rsp),%rcx
   196a7:	00 
   196a8:	48 3b cb             	cmp    %rbx,%rcx
   196ab:	74 06                	je     0x196b3
   196ad:	ff 15 0d 51 01 00    	callq  *0x1510d(%rip)        # 0x2e7c0
   196b3:	8b c7                	mov    %edi,%eax
   196b5:	48 81 c4 80 00 00 00 	add    $0x80,%rsp
   196bc:	41 5d                	pop    %r13
   196be:	41 5c                	pop    %r12
   196c0:	5f                   	pop    %rdi
   196c1:	5e                   	pop    %rsi
   196c2:	5b                   	pop    %rbx
   196c3:	c3                   	retq   
   196c4:	cc                   	int3   
   196c5:	cc                   	int3   
   196c6:	cc                   	int3   
   196c7:	cc                   	int3   
   196c8:	cc                   	int3   
   196c9:	cc                   	int3   
   196ca:	cc                   	int3   
   196cb:	cc                   	int3   
   196cc:	cc                   	int3   
   196cd:	cc                   	int3   
   196ce:	cc                   	int3   
   196cf:	cc                   	int3   
   196d0:	40 53                	rex push %rbx
   196d2:	55                   	push   %rbp
   196d3:	48 83 ec 38          	sub    $0x38,%rsp
   196d7:	48 8b ea             	mov    %rdx,%rbp
   196da:	33 db                	xor    %ebx,%ebx
   196dc:	48 39 9d b8 00 00 00 	cmp    %rbx,0xb8(%rbp)
   196e3:	74 1d                	je     0x19702
   196e5:	41 b9 00 80 00 00    	mov    $0x8000,%r9d
   196eb:	45 33 c0             	xor    %r8d,%r8d
   196ee:	48 8d 95 b8 00 00 00 	lea    0xb8(%rbp),%rdx
   196f5:	48 8b 8d c0 00 00 00 	mov    0xc0(%rbp),%rcx
   196fc:	ff 15 7e 52 01 00    	callq  *0x1527e(%rip)        # 0x2e980
   19702:	48 8b 8d c0 00 00 00 	mov    0xc0(%rbp),%rcx
   19709:	48 3b cb             	cmp    %rbx,%rcx
   1970c:	74 06                	je     0x19714
   1970e:	ff 15 ac 50 01 00    	callq  *0x150ac(%rip)        # 0x2e7c0
   19714:	48 83 c4 38          	add    $0x38,%rsp
   19718:	5d                   	pop    %rbp
   19719:	5b                   	pop    %rbx
   1971a:	c3                   	retq   
   1971b:	cc                   	int3   
   1971c:	cc                   	int3   
   1971d:	cc                   	int3   
   1971e:	cc                   	int3   
   1971f:	cc                   	int3   
   19720:	cc                   	int3   
   19721:	cc                   	int3   
   19722:	cc                   	int3   
   19723:	cc                   	int3   
   19724:	48 8b c4             	mov    %rsp,%rax
   19727:	48 89 48 08          	mov    %rcx,0x8(%rax)
   1972b:	53                   	push   %rbx
   1972c:	48 83 ec 70          	sub    $0x70,%rsp
   19730:	33 db                	xor    %ebx,%ebx
   19732:	c7 40 c8 30 00 00 00 	movl   $0x30,-0x38(%rax)
   19739:	c7 40 e0 40 02 00 00 	movl   $0x240,-0x20(%rax)
   19740:	48 89 58 b8          	mov    %rbx,-0x48(%rax)
   19744:	48 89 58 18          	mov    %rbx,0x18(%rax)
   19748:	48 89 58 10          	mov    %rbx,0x10(%rax)
   1974c:	48 89 58 d0          	mov    %rbx,-0x30(%rax)
   19750:	48 89 58 d8          	mov    %rbx,-0x28(%rax)
   19754:	48 89 58 e8          	mov    %rbx,-0x18(%rax)
   19758:	48 89 58 f0          	mov    %rbx,-0x10(%rax)
   1975c:	33 c0                	xor    %eax,%eax
   1975e:	48 39 1d 3b 50 01 00 	cmp    %rbx,0x1503b(%rip)        # 0x2e7a0
   19765:	48 89 44 24 38       	mov    %rax,0x38(%rsp)
   1976a:	48 8b 05 77 50 01 00 	mov    0x15077(%rip),%rax        # 0x2e7e8
   19771:	75 5d                	jne    0x197d0
   19773:	48 39 1d 2e 50 01 00 	cmp    %rbx,0x1502e(%rip)        # 0x2e7a8
   1977a:	74 54                	je     0x197d0
   1977c:	48 39 1d 2d 50 01 00 	cmp    %rbx,0x1502d(%rip)        # 0x2e7b0
   19783:	74 4b                	je     0x197d0
   19785:	48 39 1d 2c 50 01 00 	cmp    %rbx,0x1502c(%rip)        # 0x2e7b8
   1978c:	74 42                	je     0x197d0
   1978e:	48 39 1d 2b 50 01 00 	cmp    %rbx,0x1502b(%rip)        # 0x2e7c0
   19795:	74 39                	je     0x197d0
   19797:	48 39 1d 2a 50 01 00 	cmp    %rbx,0x1502a(%rip)        # 0x2e7c8
   1979e:	74 30                	je     0x197d0
   197a0:	48 39 1d 29 50 01 00 	cmp    %rbx,0x15029(%rip)        # 0x2e7d0
   197a7:	74 27                	je     0x197d0
   197a9:	48 39 1d 28 50 01 00 	cmp    %rbx,0x15028(%rip)        # 0x2e7d8
   197b0:	74 1e                	je     0x197d0
   197b2:	48 39 1d 27 50 01 00 	cmp    %rbx,0x15027(%rip)        # 0x2e7e0
   197b9:	74 15                	je     0x197d0
   197bb:	48 3b c3             	cmp    %rbx,%rax
   197be:	74 10                	je     0x197d0
   197c0:	48 39 1d 29 50 01 00 	cmp    %rbx,0x15029(%rip)        # 0x2e7f0
   197c7:	74 07                	je     0x197d0
   197c9:	33 c0                	xor    %eax,%eax
   197cb:	e9 8c 00 00 00       	jmpq   0x1985c
   197d0:	ff d0                	callq  *%rax
   197d2:	48 39 1d a7 51 01 00 	cmp    %rbx,0x151a7(%rip)        # 0x2e980
   197d9:	48 89 5c 24 38       	mov    %rbx,0x38(%rsp)
   197de:	48 89 44 24 30       	mov    %rax,0x30(%rsp)
   197e3:	74 5c                	je     0x19841
   197e5:	4c 8d 4c 24 30       	lea    0x30(%rsp),%r9
   197ea:	4c 8d 44 24 40       	lea    0x40(%rsp),%r8
   197ef:	48 8d 8c 24 88 00 00 	lea    0x88(%rsp),%rcx
   197f6:	00 
   197f7:	ba 28 00 00 00       	mov    $0x28,%edx
   197fc:	ff 15 de 4f 01 00    	callq  *0x14fde(%rip)        # 0x2e7e0
   19802:	48 8b 8c 24 88 00 00 	mov    0x88(%rsp),%rcx
   19809:	00 
   1980a:	44 8b db             	mov    %ebx,%r11d
   1980d:	48 3b cb             	cmp    %rbx,%rcx
   19810:	41 0f 95 c3          	setne  %r11b
   19814:	44 3b db             	cmp    %ebx,%r11d
   19817:	7c 30                	jl     0x19849
   19819:	4c 8d 8c 24 80 00 00 	lea    0x80(%rsp),%r9
   19820:	00 
   19821:	48 8d 94 24 90 00 00 	lea    0x90(%rsp),%rdx
   19828:	00 
   19829:	45 33 c0             	xor    %r8d,%r8d
   1982c:	c7 44 24 28 04 00 00 	movl   $0x4,0x28(%rsp)
   19833:	00 
   19834:	c7 44 24 20 00 30 00 	movl   $0x3000,0x20(%rsp)
   1983b:	00 
   1983c:	e8 63 71 00 00       	callq  0x209a4
   19841:	48 8b 8c 24 88 00 00 	mov    0x88(%rsp),%rcx
   19848:	00 
   19849:	48 3b cb             	cmp    %rbx,%rcx
   1984c:	74 06                	je     0x19854
   1984e:	ff 15 6c 4f 01 00    	callq  *0x14f6c(%rip)        # 0x2e7c0
   19854:	48 8b 84 24 90 00 00 	mov    0x90(%rsp),%rax
   1985b:	00 
   1985c:	48 83 c4 70          	add    $0x70,%rsp
   19860:	5b                   	pop    %rbx
   19861:	c3                   	retq   
   19862:	cc                   	int3   
   19863:	cc                   	int3   
   19864:	cc                   	int3   
   19865:	cc                   	int3   
   19866:	cc                   	int3   
   19867:	cc                   	int3   
   19868:	48 8b c4             	mov    %rsp,%rax
   1986b:	48 89 70 10          	mov    %rsi,0x10(%rax)
   1986f:	48 89 78 18          	mov    %rdi,0x18(%rax)
   19873:	4c 89 60 20          	mov    %r12,0x20(%rax)
   19877:	41 55                	push   %r13
   19879:	41 56                	push   %r14
   1987b:	41 57                	push   %r15
   1987d:	48 83 ec 30          	sub    $0x30,%rsp
   19881:	4d 8b f8             	mov    %r8,%r15
   19884:	4c 8b ea             	mov    %rdx,%r13
   19887:	4c 8b f1             	mov    %rcx,%r14
   1988a:	48 83 60 e0 00       	andq   $0x0,-0x20(%rax)
   1988f:	be 01 00 00 c0       	mov    $0xc0000001,%esi
   19894:	48 85 c9             	test   %rcx,%rcx
   19897:	0f 84 4b 01 00 00    	je     0x199e8
   1989d:	48 85 d2             	test   %rdx,%rdx
   198a0:	0f 84 42 01 00 00    	je     0x199e8
   198a6:	48 83 3d f2 4e 01 00 	cmpq   $0x0,0x14ef2(%rip)        # 0x2e7a0
   198ad:	00 
   198ae:	75 6d                	jne    0x1991d
   198b0:	48 83 3d f0 4e 01 00 	cmpq   $0x0,0x14ef0(%rip)        # 0x2e7a8
   198b7:	00 
   198b8:	74 63                	je     0x1991d
   198ba:	48 83 3d ee 4e 01 00 	cmpq   $0x0,0x14eee(%rip)        # 0x2e7b0
   198c1:	00 
   198c2:	74 59                	je     0x1991d
   198c4:	48 83 3d ec 4e 01 00 	cmpq   $0x0,0x14eec(%rip)        # 0x2e7b8
   198cb:	00 
   198cc:	74 4f                	je     0x1991d
   198ce:	48 83 3d ea 4e 01 00 	cmpq   $0x0,0x14eea(%rip)        # 0x2e7c0
   198d5:	00 
   198d6:	74 45                	je     0x1991d
   198d8:	48 83 3d e8 4e 01 00 	cmpq   $0x0,0x14ee8(%rip)        # 0x2e7c8
   198df:	00 
   198e0:	74 3b                	je     0x1991d
   198e2:	48 83 3d e6 4e 01 00 	cmpq   $0x0,0x14ee6(%rip)        # 0x2e7d0
   198e9:	00 
   198ea:	74 31                	je     0x1991d
   198ec:	48 83 3d e4 4e 01 00 	cmpq   $0x0,0x14ee4(%rip)        # 0x2e7d8
   198f3:	00 
   198f4:	74 27                	je     0x1991d
   198f6:	48 83 3d e2 4e 01 00 	cmpq   $0x0,0x14ee2(%rip)        # 0x2e7e0
   198fd:	00 
   198fe:	74 1d                	je     0x1991d
   19900:	48 8b 05 e1 4e 01 00 	mov    0x14ee1(%rip),%rax        # 0x2e7e8
   19907:	48 85 c0             	test   %rax,%rax
   1990a:	74 18                	je     0x19924
   1990c:	48 83 3d dc 4e 01 00 	cmpq   $0x0,0x14edc(%rip)        # 0x2e7f0
   19913:	00 
   19914:	74 0e                	je     0x19924
   19916:	8b c6                	mov    %esi,%eax
   19918:	e9 d0 00 00 00       	jmpq   0x199ed
   1991d:	48 8b 05 c4 4e 01 00 	mov    0x14ec4(%rip),%rax        # 0x2e7e8
   19924:	ff d0                	callq  *%rax
   19926:	4c 8b e0             	mov    %rax,%r12
   19929:	48 89 44 24 50       	mov    %rax,0x50(%rsp)
   1992e:	83 3d 63 50 01 00 00 	cmpl   $0x0,0x15063(%rip)        # 0x2e998
   19935:	75 1d                	jne    0x19954
   19937:	b9 06 00 00 00       	mov    $0x6,%ecx
   1993c:	e8 cf 20 00 00       	callq  0x1ba10
   19941:	48 89 05 40 50 01 00 	mov    %rax,0x15040(%rip)        # 0x2e988
   19948:	c7 05 46 50 01 00 01 	movl   $0x1,0x15046(%rip)        # 0x2e998
   1994f:	00 00 00 
   19952:	eb 07                	jmp    0x1995b
   19954:	48 8b 05 2d 50 01 00 	mov    0x1502d(%rip),%rax        # 0x2e988
   1995b:	48 85 c0             	test   %rax,%rax
   1995e:	75 0a                	jne    0x1996a
   19960:	b8 af 00 00 c0       	mov    $0xc00000af,%eax
   19965:	e9 83 00 00 00       	jmpq   0x199ed
   1996a:	b9 04 00 00 00       	mov    $0x4,%ecx
   1996f:	e8 b0 fd ff ff       	callq  0x19724
   19974:	48 8b f8             	mov    %rax,%rdi
   19977:	48 89 44 24 28       	mov    %rax,0x28(%rsp)
   1997c:	48 85 c0             	test   %rax,%rax
   1997f:	74 53                	je     0x199d4
   19981:	4c 8b c8             	mov    %rax,%r9
   19984:	45 33 c0             	xor    %r8d,%r8d
   19987:	33 d2                	xor    %edx,%edx
   19989:	49 8b ce             	mov    %r14,%rcx
   1998c:	ff 15 f6 4f 01 00    	callq  *0x14ff6(%rip)        # 0x2e988
   19992:	8b f0                	mov    %eax,%esi
   19994:	89 44 24 20          	mov    %eax,0x20(%rsp)
   19998:	3d 23 00 00 c0       	cmp    $0xc0000023,%eax
   1999d:	75 35                	jne    0x199d4
   1999f:	81 3f 00 00 10 00    	cmpl   $0x100000,(%rdi)
   199a5:	73 2d                	jae    0x199d4
   199a7:	8b 0f                	mov    (%rdi),%ecx
   199a9:	e8 76 fd ff ff       	callq  0x19724
   199ae:	49 89 45 00          	mov    %rax,0x0(%r13)
   199b2:	48 85 c0             	test   %rax,%rax
   199b5:	74 1d                	je     0x199d4
   199b7:	45 33 c9             	xor    %r9d,%r9d
   199ba:	44 8b 07             	mov    (%rdi),%r8d
   199bd:	48 8b d0             	mov    %rax,%rdx
   199c0:	49 8b ce             	mov    %r14,%rcx
   199c3:	ff 15 bf 4f 01 00    	callq  *0x14fbf(%rip)        # 0x2e988
   199c9:	8b f0                	mov    %eax,%esi
   199cb:	89 44 24 20          	mov    %eax,0x20(%rsp)
   199cf:	8b 07                	mov    (%rdi),%eax
   199d1:	41 89 07             	mov    %eax,(%r15)
   199d4:	48 85 ff             	test   %rdi,%rdi
   199d7:	74 0b                	je     0x199e4
   199d9:	49 8b d4             	mov    %r12,%rdx
   199dc:	48 8b cf             	mov    %rdi,%rcx
   199df:	e8 90 f4 ff ff       	callq  0x18e74
   199e4:	8b c6                	mov    %esi,%eax
   199e6:	eb 05                	jmp    0x199ed
   199e8:	b8 0d 00 00 c0       	mov    $0xc000000d,%eax
   199ed:	48 8b 74 24 58       	mov    0x58(%rsp),%rsi
   199f2:	48 8b 7c 24 60       	mov    0x60(%rsp),%rdi
   199f7:	4c 8b 64 24 68       	mov    0x68(%rsp),%r12
   199fc:	48 83 c4 30          	add    $0x30,%rsp
   19a00:	41 5f                	pop    %r15
   19a02:	41 5e                	pop    %r14
   19a04:	41 5d                	pop    %r13
   19a06:	c3                   	retq   
   19a07:	cc                   	int3   
   19a08:	40 55                	rex push %rbp
   19a0a:	48 83 ec 20          	sub    $0x20,%rsp
   19a0e:	48 8b ea             	mov    %rdx,%rbp
   19a11:	48 8b 4d 28          	mov    0x28(%rbp),%rcx
   19a15:	48 85 c9             	test   %rcx,%rcx
   19a18:	74 09                	je     0x19a23
   19a1a:	48 8b 55 50          	mov    0x50(%rbp),%rdx
   19a1e:	e8 51 f4 ff ff       	callq  0x18e74
   19a23:	48 83 c4 20          	add    $0x20,%rsp
   19a27:	5d                   	pop    %rbp
   19a28:	c3                   	retq   
   19a29:	cc                   	int3   
   19a2a:	cc                   	int3   
   19a2b:	cc                   	int3   
   19a2c:	cc                   	int3   
   19a2d:	cc                   	int3   
   19a2e:	cc                   	int3   
   19a2f:	cc                   	int3   
   19a30:	48 8b c4             	mov    %rsp,%rax
   19a33:	48 89 58 08          	mov    %rbx,0x8(%rax)
   19a37:	48 89 70 10          	mov    %rsi,0x10(%rax)
   19a3b:	57                   	push   %rdi
   19a3c:	48 83 ec 60          	sub    $0x60,%rsp
   19a40:	66 83 60 e8 00       	andw   $0x0,-0x18(%rax)
   19a45:	48 8b f2             	mov    %rdx,%rsi
   19a48:	48 8b d9             	mov    %rcx,%rbx
   19a4b:	48 8d 50 d8          	lea    -0x28(%rax),%rdx
   19a4f:	b9 80 d9 54 00       	mov    $0x54d980,%ecx
   19a54:	bf 01 00 00 c0       	mov    $0xc0000001,%edi
   19a59:	66 c7 40 d8 b3 cc    	movw   $0xccb3,-0x28(%rax)
   19a5f:	66 c7 40 da 2e 91    	movw   $0x912e,-0x26(%rax)
   19a65:	66 c7 40 dc 6b d9    	movw   $0xd96b,-0x24(%rax)
   19a6b:	66 c7 40 de 99 b8    	movw   $0xb899,-0x22(%rax)
   19a71:	66 c7 40 e0 7f f8    	movw   $0xf87f,-0x20(%rax)
   19a77:	66 c7 40 e2 27 ee    	movw   $0xee27,-0x1e(%rax)
   19a7d:	66 c7 40 e4 34 b1    	movw   $0xb134,-0x1c(%rax)
   19a83:	66 c7 40 e6 0c 94    	movw   $0x940c,-0x1a(%rax)
   19a89:	e8 3e 25 00 00       	callq  0x1bfcc
   19a8e:	48 8d 54 24 40       	lea    0x40(%rsp),%rdx
   19a93:	48 8d 4c 24 30       	lea    0x30(%rsp),%rcx
   19a98:	ff 15 7a 85 00 00    	callq  *0x857a(%rip)        # 0x22018
   19a9e:	0f b7 06             	movzwl (%rsi),%eax
   19aa1:	66 83 64 24 20 00    	andw   $0x0,0x20(%rsp)
   19aa7:	66 2d 01 00          	sub    $0x1,%ax
   19aab:	48 89 5c 24 28       	mov    %rbx,0x28(%rsp)
   19ab0:	66 89 44 24 22       	mov    %ax,0x22(%rsp)
   19ab5:	48 8b 05 d4 4e 01 00 	mov    0x14ed4(%rip),%rax        # 0x2e990
   19abc:	48 85 c0             	test   %rax,%rax
   19abf:	74 1e                	je     0x19adf
   19ac1:	4c 8d 44 24 20       	lea    0x20(%rsp),%r8
   19ac6:	48 8d 54 24 30       	lea    0x30(%rsp),%rdx
   19acb:	33 c9                	xor    %ecx,%ecx
   19acd:	ff d0                	callq  *%rax
   19acf:	85 c0                	test   %eax,%eax
   19ad1:	8b f8                	mov    %eax,%edi
   19ad3:	75 0a                	jne    0x19adf
   19ad5:	0f b7 54 24 20       	movzwl 0x20(%rsp),%edx
   19ada:	83 c2 02             	add    $0x2,%edx
   19add:	89 16                	mov    %edx,(%rsi)
   19adf:	48 8d 54 24 40       	lea    0x40(%rsp),%rdx
   19ae4:	b9 80 d9 54 00       	mov    $0x54d980,%ecx
   19ae9:	e8 de 24 00 00       	callq  0x1bfcc
   19aee:	48 8b 5c 24 70       	mov    0x70(%rsp),%rbx
   19af3:	48 8b 74 24 78       	mov    0x78(%rsp),%rsi
   19af8:	8b c7                	mov    %edi,%eax
   19afa:	48 83 c4 60          	add    $0x60,%rsp
   19afe:	5f                   	pop    %rdi
   19aff:	c3                   	retq   
   19b00:	cc                   	int3   
   19b01:	cc                   	int3   
   19b02:	cc                   	int3   
   19b03:	cc                   	int3   
   19b04:	cc                   	int3   
   19b05:	cc                   	int3   
   19b06:	cc                   	int3   
   19b07:	cc                   	int3   
   19b08:	48 89 5c 24 08       	mov    %rbx,0x8(%rsp)
   19b0d:	56                   	push   %rsi
   19b0e:	48 83 ec 20          	sub    $0x20,%rsp
   19b12:	33 f6                	xor    %esi,%esi
   19b14:	48 8b d9             	mov    %rcx,%rbx
   19b17:	b8 00 00 80 00       	mov    $0x800000,%eax
   19b1c:	39 31                	cmp    %esi,(%rcx)
   19b1e:	75 02                	jne    0x19b22
   19b20:	89 01                	mov    %eax,(%rcx)
   19b22:	39 73 04             	cmp    %esi,0x4(%rbx)
   19b25:	b9 00 08 00 00       	mov    $0x800,%ecx
   19b2a:	75 03                	jne    0x19b2f
   19b2c:	89 4b 04             	mov    %ecx,0x4(%rbx)
   19b2f:	8b 13                	mov    (%rbx),%edx
   19b31:	c7 43 08 01 00 00 00 	movl   $0x1,0x8(%rbx)
   19b38:	3b d0                	cmp    %eax,%edx
   19b3a:	0f 87 74 01 00 00    	ja     0x19cb4
   19b40:	8b 43 04             	mov    0x4(%rbx),%eax
   19b43:	3b c1                	cmp    %ecx,%eax
   19b45:	0f 87 69 01 00 00    	ja     0x19cb4
   19b4b:	89 4b 10             	mov    %ecx,0x10(%rbx)
   19b4e:	8d 0c 10             	lea    (%rax,%rdx,1),%ecx
   19b51:	89 43 14             	mov    %eax,0x14(%rbx)
   19b54:	03 c1                	add    %ecx,%eax
   19b56:	89 73 18             	mov    %esi,0x18(%rbx)
   19b59:	89 73 1c             	mov    %esi,0x1c(%rbx)
   19b5c:	83 f8 ff             	cmp    $0xffffffff,%eax
   19b5f:	89 4b 60             	mov    %ecx,0x60(%rbx)
   19b62:	72 08                	jb     0x19b6c
   19b64:	83 c8 ff             	or     $0xffffffff,%eax
   19b67:	e9 4d 01 00 00       	jmpq   0x19cb9
   19b6c:	48 8d 4c 19 78       	lea    0x78(%rcx,%rbx,1),%rcx
   19b71:	89 53 70             	mov    %edx,0x70(%rbx)
   19b74:	41 b8 00 00 04 00    	mov    $0x40000,%r8d
   19b7a:	48 89 4b 68          	mov    %rcx,0x68(%rbx)
   19b7e:	48 8d 8b 78 50 84 04 	lea    0x4845078(%rbx),%rcx
   19b85:	33 d2                	xor    %edx,%edx
   19b87:	e8 04 6d 00 00       	callq  0x20890
   19b8c:	48 8d 8b 78 50 88 04 	lea    0x4885078(%rbx),%rcx
   19b93:	ba ff 00 00 00       	mov    $0xff,%edx
   19b98:	41 b8 00 00 04 00    	mov    $0x40000,%r8d
   19b9e:	e8 ed 6c 00 00       	callq  0x20890
   19ba3:	48 8b 53 30          	mov    0x30(%rbx),%rdx
   19ba7:	89 73 54             	mov    %esi,0x54(%rbx)
   19baa:	48 89 73 48          	mov    %rsi,0x48(%rbx)
   19bae:	48 89 73 40          	mov    %rsi,0x40(%rbx)
   19bb2:	89 73 50             	mov    %esi,0x50(%rbx)
   19bb5:	89 73 58             	mov    %esi,0x58(%rbx)
   19bb8:	89 73 74             	mov    %esi,0x74(%rbx)
   19bbb:	8b 4a 30             	mov    0x30(%rdx),%ecx
   19bbe:	2b 4a 20             	sub    0x20(%rdx),%ecx
   19bc1:	89 4b 28             	mov    %ecx,0x28(%rbx)
   19bc4:	74 2c                	je     0x19bf2
   19bc6:	8b 43 04             	mov    0x4(%rbx),%eax
   19bc9:	3b c8                	cmp    %eax,%ecx
   19bcb:	76 03                	jbe    0x19bd0
   19bcd:	89 43 28             	mov    %eax,0x28(%rbx)
   19bd0:	44 8b 43 28          	mov    0x28(%rbx),%r8d
   19bd4:	48 8b 52 20          	mov    0x20(%rdx),%rdx
   19bd8:	48 8d 4b 78          	lea    0x78(%rbx),%rcx
   19bdc:	e8 3f 69 00 00       	callq  0x20520
   19be1:	8b 43 28             	mov    0x28(%rbx),%eax
   19be4:	4c 8b 5b 30          	mov    0x30(%rbx),%r11
   19be8:	49 01 43 20          	add    %rax,0x20(%r11)
   19bec:	8b 43 28             	mov    0x28(%rbx),%eax
   19bef:	01 43 54             	add    %eax,0x54(%rbx)
   19bf2:	8b 43 60             	mov    0x60(%rbx),%eax
   19bf5:	39 43 54             	cmp    %eax,0x54(%rbx)
   19bf8:	75 03                	jne    0x19bfd
   19bfa:	89 73 54             	mov    %esi,0x54(%rbx)
   19bfd:	83 7b 28 02          	cmpl   $0x2,0x28(%rbx)
   19c01:	0f 82 90 00 00 00    	jb     0x19c97
   19c07:	8b 53 50             	mov    0x50(%rbx),%edx
   19c0a:	3b d6                	cmp    %esi,%edx
   19c0c:	0f 86 85 00 00 00    	jbe    0x19c97
   19c12:	8b 03                	mov    (%rbx),%eax
   19c14:	44 8b ce             	mov    %esi,%r9d
   19c17:	89 73 74             	mov    %esi,0x74(%rbx)
   19c1a:	2b c2                	sub    %edx,%eax
   19c1c:	4c 8d 43 78          	lea    0x78(%rbx),%r8
   19c20:	4c 8d 93 78 30 84 02 	lea    0x2843078(%rbx),%r10
   19c27:	89 43 70             	mov    %eax,0x70(%rbx)
   19c2a:	41 0f b6 00          	movzbl (%r8),%eax
   19c2e:	41 0f b6 48 01       	movzbl 0x1(%r8),%ecx
   19c33:	83 c2 ff             	add    $0xffffffff,%edx
   19c36:	c1 e0 05             	shl    $0x5,%eax
   19c39:	33 c8                	xor    %eax,%ecx
   19c3b:	41 0f b6 40 02       	movzbl 0x2(%r8),%eax
   19c40:	c1 e1 05             	shl    $0x5,%ecx
   19c43:	33 c8                	xor    %eax,%ecx
   19c45:	69 c9 5f 9f 00 00    	imul   $0x9f5f,%ecx,%ecx
   19c4b:	c1 e9 05             	shr    $0x5,%ecx
   19c4e:	0f b7 c1             	movzwl %cx,%eax
   19c51:	48 8b c8             	mov    %rax,%rcx
   19c54:	8b 84 83 78 10 80 00 	mov    0x801078(%rbx,%rax,4),%eax
   19c5b:	41 89 82 00 e0 ff fd 	mov    %eax,-0x2002000(%r10)
   19c62:	44 89 8c 8b 78 10 80 	mov    %r9d,0x801078(%rbx,%rcx,4)
   19c69:	00 
   19c6a:	8b 43 04             	mov    0x4(%rbx),%eax
   19c6d:	83 c0 01             	add    $0x1,%eax
   19c70:	41 89 02             	mov    %eax,(%r10)
   19c73:	83 84 8b 78 50 84 04 	addl   $0x1,0x4845078(%rbx,%rcx,4)
   19c7a:	01 
   19c7b:	41 0f b7 00          	movzwl (%r8),%eax
   19c7f:	44 89 8c 83 78 50 88 	mov    %r9d,0x4885078(%rbx,%rax,4)
   19c86:	04 
   19c87:	49 83 c2 04          	add    $0x4,%r10
   19c8b:	49 83 c0 01          	add    $0x1,%r8
   19c8f:	41 83 c1 01          	add    $0x1,%r9d
   19c93:	3b d6                	cmp    %esi,%edx
   19c95:	77 93                	ja     0x19c2a
   19c97:	8b 43 74             	mov    0x74(%rbx),%eax
   19c9a:	3b 43 70             	cmp    0x70(%rbx),%eax
   19c9d:	89 43 5c             	mov    %eax,0x5c(%rbx)
   19ca0:	72 05                	jb     0x19ca7
   19ca2:	2b 43 70             	sub    0x70(%rbx),%eax
   19ca5:	eb 06                	jmp    0x19cad
   19ca7:	2b 43 70             	sub    0x70(%rbx),%eax
   19caa:	03 43 60             	add    0x60(%rbx),%eax
   19cad:	89 43 5c             	mov    %eax,0x5c(%rbx)
   19cb0:	33 c0                	xor    %eax,%eax
   19cb2:	eb 05                	jmp    0x19cb9
   19cb4:	b8 fe ff ff ff       	mov    $0xfffffffe,%eax
   19cb9:	48 8b 5c 24 30       	mov    0x30(%rsp),%rbx
   19cbe:	48 83 c4 20          	add    $0x20,%rsp
   19cc2:	5e                   	pop    %rsi
   19cc3:	c3                   	retq   
   19cc4:	cc                   	int3   
   19cc5:	cc                   	int3   
   19cc6:	cc                   	int3   
   19cc7:	cc                   	int3   
   19cc8:	cc                   	int3   
   19cc9:	cc                   	int3   
   19cca:	cc                   	int3   
   19ccb:	cc                   	int3   
   19ccc:	48 8b d1             	mov    %rcx,%rdx
   19ccf:	48 8b 49 30          	mov    0x30(%rcx),%rcx
   19cd3:	48 8b 41 30          	mov    0x30(%rcx),%rax
   19cd7:	48 39 41 20          	cmp    %rax,0x20(%rcx)
   19cdb:	73 12                	jae    0x19cef
   19cdd:	48 8b 41 20          	mov    0x20(%rcx),%rax
   19ce1:	44 0f b6 00          	movzbl (%rax),%r8d
   19ce5:	48 83 c0 01          	add    $0x1,%rax
   19ce9:	48 89 41 20          	mov    %rax,0x20(%rcx)
   19ced:	eb 04                	jmp    0x19cf3
   19cef:	41 83 c8 ff          	or     $0xffffffff,%r8d
   19cf3:	45 33 c9             	xor    %r9d,%r9d
   19cf6:	45 3b c1             	cmp    %r9d,%r8d
   19cf9:	7d 10                	jge    0x19d0b
   19cfb:	8b 42 28             	mov    0x28(%rdx),%eax
   19cfe:	41 3b c1             	cmp    %r9d,%eax
   19d01:	76 23                	jbe    0x19d26
   19d03:	83 c0 ff             	add    $0xffffffff,%eax
   19d06:	89 42 28             	mov    %eax,0x28(%rdx)
   19d09:	eb 1b                	jmp    0x19d26
   19d0b:	8b 42 54             	mov    0x54(%rdx),%eax
   19d0e:	44 88 44 10 78       	mov    %r8b,0x78(%rax,%rdx,1)
   19d13:	8b 42 54             	mov    0x54(%rdx),%eax
   19d16:	3b 42 04             	cmp    0x4(%rdx),%eax
   19d19:	73 0b                	jae    0x19d26
   19d1b:	48 8b c8             	mov    %rax,%rcx
   19d1e:	48 8b 42 68          	mov    0x68(%rdx),%rax
   19d22:	44 88 04 01          	mov    %r8b,(%rcx,%rax,1)
   19d26:	8b 42 60             	mov    0x60(%rdx),%eax
   19d29:	83 42 54 01          	addl   $0x1,0x54(%rdx)
   19d2d:	39 42 54             	cmp    %eax,0x54(%rdx)
   19d30:	75 04                	jne    0x19d36
   19d32:	44 89 4a 54          	mov    %r9d,0x54(%rdx)
   19d36:	83 42 58 01          	addl   $0x1,0x58(%rdx)
   19d3a:	39 42 58             	cmp    %eax,0x58(%rdx)
   19d3d:	75 04                	jne    0x19d43
   19d3f:	44 89 4a 58          	mov    %r9d,0x58(%rdx)
   19d43:	83 42 5c 01          	addl   $0x1,0x5c(%rdx)
   19d47:	39 42 5c             	cmp    %eax,0x5c(%rdx)
   19d4a:	75 04                	jne    0x19d50
   19d4c:	44 89 4a 5c          	mov    %r9d,0x5c(%rdx)
   19d50:	c3                   	retq   
   19d51:	cc                   	int3   
   19d52:	cc                   	int3   
   19d53:	cc                   	int3   
   19d54:	cc                   	int3   
   19d55:	cc                   	int3   
   19d56:	cc                   	int3   
   19d57:	cc                   	int3   
   19d58:	8b 41 70             	mov    0x70(%rcx),%eax
   19d5b:	85 c0                	test   %eax,%eax
   19d5d:	75 5a                	jne    0x19db9
   19d5f:	8d 42 01             	lea    0x1(%rdx),%eax
   19d62:	44 8b d2             	mov    %edx,%r10d
   19d65:	41 83 c8 ff          	or     $0xffffffff,%r8d
   19d69:	44 0f b6 4c 08 78    	movzbl 0x78(%rax,%rcx,1),%r9d
   19d6f:	41 0f b6 44 0a 78    	movzbl 0x78(%r10,%rcx,1),%eax
   19d75:	c1 e0 05             	shl    $0x5,%eax
   19d78:	44 33 c8             	xor    %eax,%r9d
   19d7b:	8d 42 02             	lea    0x2(%rdx),%eax
   19d7e:	0f b6 44 08 78       	movzbl 0x78(%rax,%rcx,1),%eax
   19d83:	41 c1 e1 05          	shl    $0x5,%r9d
   19d87:	44 33 c8             	xor    %eax,%r9d
   19d8a:	45 69 c9 5f 9f 00 00 	imul   $0x9f5f,%r9d,%r9d
   19d91:	41 c1 e9 05          	shr    $0x5,%r9d
   19d95:	41 0f b7 c1          	movzwl %r9w,%eax
   19d99:	44 01 84 81 78 50 84 	add    %r8d,0x4845078(%rcx,%rax,4)
   19da0:	04 
   19da1:	41 0f b7 44 0a 78    	movzwl 0x78(%r10,%rcx,1),%eax
   19da7:	39 94 81 78 50 88 04 	cmp    %edx,0x4885078(%rcx,%rax,4)
   19dae:	75 0f                	jne    0x19dbf
   19db0:	44 89 84 81 78 50 88 	mov    %r8d,0x4885078(%rcx,%rax,4)
   19db7:	04 
   19db8:	c3                   	retq   
   19db9:	83 c0 ff             	add    $0xffffffff,%eax
   19dbc:	89 41 70             	mov    %eax,0x70(%rcx)
   19dbf:	c3                   	retq   
   19dc0:	cc                   	int3   
   19dc1:	cc                   	int3   
   19dc2:	cc                   	int3   
   19dc3:	cc                   	int3   
   19dc4:	cc                   	int3   
   19dc5:	cc                   	int3   
   19dc6:	cc                   	int3   
   19dc7:	cc                   	int3   
   19dc8:	85 d2                	test   %edx,%edx
   19dca:	0f 84 aa 00 00 00    	je     0x19e7a
   19dd0:	48 89 5c 24 08       	mov    %rbx,0x8(%rsp)
   19dd5:	57                   	push   %rdi
   19dd6:	48 83 ec 20          	sub    $0x20,%rsp
   19dda:	8b da                	mov    %edx,%ebx
   19ddc:	48 8b f9             	mov    %rcx,%rdi
   19ddf:	8b 57 5c             	mov    0x5c(%rdi),%edx
   19de2:	48 8b cf             	mov    %rdi,%rcx
   19de5:	e8 6e ff ff ff       	callq  0x19d58
   19dea:	44 8b 5f 58          	mov    0x58(%rdi),%r11d
   19dee:	41 8d 43 01          	lea    0x1(%r11),%eax
   19df2:	0f b6 54 38 78       	movzbl 0x78(%rax,%rdi,1),%edx
   19df7:	41 0f b6 44 3b 78    	movzbl 0x78(%r11,%rdi,1),%eax
   19dfd:	c1 e0 05             	shl    $0x5,%eax
   19e00:	33 d0                	xor    %eax,%edx
   19e02:	41 8d 43 02          	lea    0x2(%r11),%eax
   19e06:	0f b6 44 38 78       	movzbl 0x78(%rax,%rdi,1),%eax
   19e0b:	c1 e2 05             	shl    $0x5,%edx
   19e0e:	33 d0                	xor    %eax,%edx
   19e10:	69 d2 5f 9f 00 00    	imul   $0x9f5f,%edx,%edx
   19e16:	c1 ea 05             	shr    $0x5,%edx
   19e19:	0f b7 c2             	movzwl %dx,%eax
   19e1c:	48 8b d0             	mov    %rax,%rdx
   19e1f:	8b 84 87 78 10 80 00 	mov    0x801078(%rdi,%rax,4),%eax
   19e26:	42 89 84 9f 78 10 84 	mov    %eax,0x841078(%rdi,%r11,4)
   19e2d:	00 
   19e2e:	8b 47 58             	mov    0x58(%rdi),%eax
   19e31:	89 84 97 78 10 80 00 	mov    %eax,0x801078(%rdi,%rdx,4)
   19e38:	8b 4f 04             	mov    0x4(%rdi),%ecx
   19e3b:	8b 47 58             	mov    0x58(%rdi),%eax
   19e3e:	83 c1 01             	add    $0x1,%ecx
   19e41:	89 8c 87 78 30 84 02 	mov    %ecx,0x2843078(%rdi,%rax,4)
   19e48:	83 84 97 78 50 84 04 	addl   $0x1,0x4845078(%rdi,%rdx,4)
   19e4f:	01 
   19e50:	8b 4f 58             	mov    0x58(%rdi),%ecx
   19e53:	0f b7 44 39 78       	movzwl 0x78(%rcx,%rdi,1),%eax
   19e58:	89 8c 87 78 50 88 04 	mov    %ecx,0x4885078(%rdi,%rax,4)
   19e5f:	48 8b cf             	mov    %rdi,%rcx
   19e62:	e8 65 fe ff ff       	callq  0x19ccc
   19e67:	83 c3 ff             	add    $0xffffffff,%ebx
   19e6a:	0f 85 6f ff ff ff    	jne    0x19ddf
   19e70:	48 8b 5c 24 30       	mov    0x30(%rsp),%rbx
   19e75:	48 83 c4 20          	add    $0x20,%rsp
   19e79:	5f                   	pop    %rdi
   19e7a:	c3                   	retq   
   19e7b:	cc                   	int3   
   19e7c:	cc                   	int3   
   19e7d:	cc                   	int3   
   19e7e:	cc                   	int3   
   19e7f:	cc                   	int3   
   19e80:	cc                   	int3   
   19e81:	cc                   	int3   
   19e82:	cc                   	int3   
   19e83:	cc                   	int3   
   19e84:	48 8b c4             	mov    %rsp,%rax
   19e87:	48 89 58 08          	mov    %rbx,0x8(%rax)
   19e8b:	48 89 68 10          	mov    %rbp,0x10(%rax)
   19e8f:	48 89 70 18          	mov    %rsi,0x18(%rax)
   19e93:	48 89 78 20          	mov    %rdi,0x20(%rax)
   19e97:	41 54                	push   %r12
   19e99:	45 85 c0             	test   %r8d,%r8d
   19e9c:	44 8b 49 58          	mov    0x58(%rcx),%r9d
   19ea0:	8b 69 28             	mov    0x28(%rcx),%ebp
   19ea3:	8b 79 20             	mov    0x20(%rcx),%edi
   19ea6:	49 8d 04 29          	lea    (%r9,%rbp,1),%rax
   19eaa:	4d 8d 5c 09 78       	lea    0x78(%r9,%rcx,1),%r11
   19eaf:	4c 8d 64 08 78       	lea    0x78(%rax,%rcx,1),%r12
   19eb4:	8d 47 ff             	lea    -0x1(%rdi),%eax
   19eb7:	41 8b f0             	mov    %r8d,%esi
   19eba:	44 8b c8             	mov    %eax,%r9d
   19ebd:	46 8a 0c 18          	mov    (%rax,%r11,1),%r9b
   19ec1:	8b da                	mov    %edx,%ebx
   19ec3:	4c 8b d1             	mov    %rcx,%r10
   19ec6:	0f 84 86 00 00 00    	je     0x19f52
   19ecc:	44 8b c3             	mov    %ebx,%r8d
   19ecf:	8d 47 ff             	lea    -0x1(%rdi),%eax
   19ed2:	83 c6 ff             	add    $0xffffffff,%esi
   19ed5:	4b 8d 54 10 78       	lea    0x78(%r8,%r10,1),%rdx
   19eda:	44 38 0c 10          	cmp    %r9b,(%rax,%rdx,1)
   19ede:	75 62                	jne    0x19f42
   19ee0:	8b cf                	mov    %edi,%ecx
   19ee2:	42 8a 04 19          	mov    (%rcx,%r11,1),%al
   19ee6:	38 04 11             	cmp    %al,(%rcx,%rdx,1)
   19ee9:	75 57                	jne    0x19f42
   19eeb:	41 8a 03             	mov    (%r11),%al
   19eee:	38 02                	cmp    %al,(%rdx)
   19ef0:	75 50                	jne    0x19f42
   19ef2:	41 8a 43 01          	mov    0x1(%r11),%al
   19ef6:	38 42 01             	cmp    %al,0x1(%rdx)
   19ef9:	75 47                	jne    0x19f42
   19efb:	49 8d 4b 02          	lea    0x2(%r11),%rcx
   19eff:	48 83 c2 02          	add    $0x2,%rdx
   19f03:	48 83 c1 01          	add    $0x1,%rcx
   19f07:	49 3b cc             	cmp    %r12,%rcx
   19f0a:	73 0a                	jae    0x19f16
   19f0c:	48 83 c2 01          	add    $0x1,%rdx
   19f10:	8a 02                	mov    (%rdx),%al
   19f12:	38 01                	cmp    %al,(%rcx)
   19f14:	74 ed                	je     0x19f03
   19f16:	41 2b cb             	sub    %r11d,%ecx
   19f19:	3b cf                	cmp    %edi,%ecx
   19f1b:	76 25                	jbe    0x19f42
   19f1d:	3b cd                	cmp    %ebp,%ecx
   19f1f:	8b f9                	mov    %ecx,%edi
   19f21:	41 89 4a 20          	mov    %ecx,0x20(%r10)
   19f25:	41 89 5a 38          	mov    %ebx,0x38(%r10)
   19f29:	74 27                	je     0x19f52
   19f2b:	41 3b 4a 14          	cmp    0x14(%r10),%ecx
   19f2f:	73 21                	jae    0x19f52
   19f31:	43 3b 8c 82 78 30 84 	cmp    0x2843078(%r10,%r8,4),%ecx
   19f38:	02 
   19f39:	77 17                	ja     0x19f52
   19f3b:	8d 41 ff             	lea    -0x1(%rcx),%eax
   19f3e:	46 8a 0c 18          	mov    (%rax,%r11,1),%r9b
   19f42:	85 f6                	test   %esi,%esi
   19f44:	43 8b 9c 82 78 10 84 	mov    0x841078(%r10,%r8,4),%ebx
   19f4b:	00 
   19f4c:	0f 85 7a ff ff ff    	jne    0x19ecc
   19f52:	48 8b 5c 24 10       	mov    0x10(%rsp),%rbx
   19f57:	48 8b 6c 24 18       	mov    0x18(%rsp),%rbp
   19f5c:	48 8b 74 24 20       	mov    0x20(%rsp),%rsi
   19f61:	48 8b 7c 24 28       	mov    0x28(%rsp),%rdi
   19f66:	41 5c                	pop    %r12
   19f68:	c3                   	retq   
   19f69:	cc                   	int3   
   19f6a:	cc                   	int3   
   19f6b:	cc                   	int3   
   19f6c:	cc                   	int3   
   19f6d:	cc                   	int3   
   19f6e:	cc                   	int3   
   19f6f:	cc                   	int3   
   19f70:	48 89 5c 24 08       	mov    %rbx,0x8(%rsp)
   19f75:	48 89 6c 24 10       	mov    %rbp,0x10(%rsp)
   19f7a:	48 89 74 24 18       	mov    %rsi,0x18(%rsp)
   19f7f:	57                   	push   %rdi
   19f80:	48 83 ec 20          	sub    $0x20,%rsp
   19f84:	45 85 c9             	test   %r9d,%r9d
   19f87:	41 8b e9             	mov    %r9d,%ebp
   19f8a:	41 8b f0             	mov    %r8d,%esi
   19f8d:	48 8b da             	mov    %rdx,%rbx
   19f90:	48 8b f9             	mov    %rcx,%rdi
   19f93:	74 1b                	je     0x19fb0
   19f95:	41 8b d0             	mov    %r8d,%edx
   19f98:	48 8b cb             	mov    %rbx,%rcx
   19f9b:	41 2b d1             	sub    %r9d,%edx
   19f9e:	e8 25 fe ff ff       	callq  0x19dc8
   19fa3:	2b f5                	sub    %ebp,%esi
   19fa5:	83 c6 01             	add    $0x1,%esi
   19fa8:	01 b7 a0 00 00 00    	add    %esi,0xa0(%rdi)
   19fae:	eb 09                	jmp    0x19fb9
   19fb0:	41 2b f1             	sub    %r9d,%esi
   19fb3:	01 b1 a0 00 00 00    	add    %esi,0xa0(%rcx)
   19fb9:	44 8b 43 58          	mov    0x58(%rbx),%r8d
   19fbd:	c7 43 20 01 00 00 00 	movl   $0x1,0x20(%rbx)
   19fc4:	41 8d 40 01          	lea    0x1(%r8),%eax
   19fc8:	0f b6 54 18 78       	movzbl 0x78(%rax,%rbx,1),%edx
   19fcd:	41 0f b6 44 18 78    	movzbl 0x78(%r8,%rbx,1),%eax
   19fd3:	c1 e0 05             	shl    $0x5,%eax
   19fd6:	33 d0                	xor    %eax,%edx
   19fd8:	41 8d 40 02          	lea    0x2(%r8),%eax
   19fdc:	0f b6 44 18 78       	movzbl 0x78(%rax,%rbx,1),%eax
   19fe1:	c1 e2 05             	shl    $0x5,%edx
   19fe4:	33 d0                	xor    %eax,%edx
   19fe6:	69 d2 5f 9f 00 00    	imul   $0x9f5f,%edx,%edx
   19fec:	c1 ea 05             	shr    $0x5,%edx
   19fef:	0f b7 c2             	movzwl %dx,%eax
   19ff2:	48 8b c8             	mov    %rax,%rcx
   19ff5:	8b 84 83 78 10 80 00 	mov    0x801078(%rbx,%rax,4),%eax
   19ffc:	42 89 84 83 78 10 84 	mov    %eax,0x841078(%rbx,%r8,4)
   1a003:	00 
   1a004:	8b 43 58             	mov    0x58(%rbx),%eax
   1a007:	44 8b 84 8b 78 50 84 	mov    0x4845078(%rbx,%rcx,4),%r8d
   1a00e:	04 
   1a00f:	44 8b 94 83 78 10 84 	mov    0x841078(%rbx,%rax,4),%r10d
   1a016:	00 
   1a017:	41 8d 40 01          	lea    0x1(%r8),%eax
   1a01b:	89 84 8b 78 50 84 04 	mov    %eax,0x4845078(%rbx,%rcx,4)
   1a022:	8b 43 10             	mov    0x10(%rbx),%eax
   1a025:	44 3b c0             	cmp    %eax,%r8d
   1a028:	76 06                	jbe    0x1a030
   1a02a:	85 c0                	test   %eax,%eax
   1a02c:	44 0f 45 c0          	cmovne %eax,%r8d
   1a030:	8b 43 58             	mov    0x58(%rbx),%eax
   1a033:	89 84 8b 78 10 80 00 	mov    %eax,0x801078(%rbx,%rcx,4)
   1a03a:	8b 53 58             	mov    0x58(%rbx),%edx
   1a03d:	8b 73 20             	mov    0x20(%rbx),%esi
   1a040:	8b 4b 28             	mov    0x28(%rbx),%ecx
   1a043:	0f b6 44 1a 78       	movzbl 0x78(%rdx,%rbx,1),%eax
   1a048:	3b f1                	cmp    %ecx,%esi
   1a04a:	89 43 2c             	mov    %eax,0x2c(%rbx)
   1a04d:	72 1b                	jb     0x1a06a
   1a04f:	85 c9                	test   %ecx,%ecx
   1a051:	75 04                	jne    0x1a057
   1a053:	83 4b 2c ff          	orl    $0xffffffff,0x2c(%rbx)
   1a057:	8b 43 04             	mov    0x4(%rbx),%eax
   1a05a:	83 63 24 00          	andl   $0x0,0x24(%rbx)
   1a05e:	83 c0 01             	add    $0x1,%eax
   1a061:	89 84 93 78 30 84 02 	mov    %eax,0x2843078(%rbx,%rdx,4)
   1a068:	eb 5c                	jmp    0x1a0c6
   1a06a:	0f b7 44 1a 78       	movzwl 0x78(%rdx,%rbx,1),%eax
   1a06f:	44 8b 8c 83 78 50 88 	mov    0x4885078(%rbx,%rax,4),%r9d
   1a076:	04 
   1a077:	41 83 f9 ff          	cmp    $0xffffffff,%r9d
   1a07b:	74 20                	je     0x1a09d
   1a07d:	83 fe 02             	cmp    $0x2,%esi
   1a080:	73 0b                	jae    0x1a08d
   1a082:	c7 43 20 02 00 00 00 	movl   $0x2,0x20(%rbx)
   1a089:	44 89 4b 38          	mov    %r9d,0x38(%rbx)
   1a08d:	83 f9 03             	cmp    $0x3,%ecx
   1a090:	72 0b                	jb     0x1a09d
   1a092:	41 8b d2             	mov    %r10d,%edx
   1a095:	48 8b cb             	mov    %rbx,%rcx
   1a098:	e8 e7 fd ff ff       	callq  0x19e84
   1a09d:	8b 53 20             	mov    0x20(%rbx),%edx
   1a0a0:	3b d6                	cmp    %esi,%edx
   1a0a2:	76 18                	jbe    0x1a0bc
   1a0a4:	8b 4b 58             	mov    0x58(%rbx),%ecx
   1a0a7:	3b 4b 38             	cmp    0x38(%rbx),%ecx
   1a0aa:	76 05                	jbe    0x1a0b1
   1a0ac:	2b 4b 38             	sub    0x38(%rbx),%ecx
   1a0af:	eb 08                	jmp    0x1a0b9
   1a0b1:	8b 43 60             	mov    0x60(%rbx),%eax
   1a0b4:	2b 43 38             	sub    0x38(%rbx),%eax
   1a0b7:	03 c8                	add    %eax,%ecx
   1a0b9:	89 4b 24             	mov    %ecx,0x24(%rbx)
   1a0bc:	8b 43 58             	mov    0x58(%rbx),%eax
   1a0bf:	89 94 83 78 30 84 02 	mov    %edx,0x2843078(%rbx,%rax,4)
   1a0c6:	8b 53 5c             	mov    0x5c(%rbx),%edx
   1a0c9:	48 8b cb             	mov    %rbx,%rcx
   1a0cc:	e8 87 fc ff ff       	callq  0x19d58
   1a0d1:	8b 4b 58             	mov    0x58(%rbx),%ecx
   1a0d4:	0f b7 44 19 78       	movzwl 0x78(%rcx,%rbx,1),%eax
   1a0d9:	89 8c 83 78 50 88 04 	mov    %ecx,0x4885078(%rbx,%rax,4)
   1a0e0:	8b 43 20             	mov    0x20(%rbx),%eax
   1a0e3:	48 8b cb             	mov    %rbx,%rcx
   1a0e6:	89 47 08             	mov    %eax,0x8(%rdi)
   1a0e9:	8b 43 24             	mov    0x24(%rbx),%eax
   1a0ec:	89 47 0c             	mov    %eax,0xc(%rdi)
   1a0ef:	e8 d8 fb ff ff       	callq  0x19ccc
   1a0f4:	83 7b 2c 00          	cmpl   $0x0,0x2c(%rbx)
   1a0f8:	7d 0a                	jge    0x1a104
   1a0fa:	83 67 04 00          	andl   $0x0,0x4(%rdi)
   1a0fe:	83 67 08 00          	andl   $0x0,0x8(%rdi)
   1a102:	eb 09                	jmp    0x1a10d
   1a104:	8b 43 28             	mov    0x28(%rbx),%eax
   1a107:	83 c0 01             	add    $0x1,%eax
   1a10a:	89 47 04             	mov    %eax,0x4(%rdi)
   1a10d:	8b 47 04             	mov    0x4(%rdi),%eax
   1a110:	48 8b 4f 20          	mov    0x20(%rdi),%rcx
   1a114:	48 2b c8             	sub    %rax,%rcx
   1a117:	48 8b 87 98 00 00 00 	mov    0x98(%rdi),%rax
   1a11e:	48 85 c0             	test   %rax,%rax
   1a121:	48 89 4f 18          	mov    %rcx,0x18(%rdi)
   1a125:	74 2a                	je     0x1a151
   1a127:	8b 8f a0 00 00 00    	mov    0xa0(%rdi),%ecx
   1a12d:	3b 8f a8 00 00 00    	cmp    0xa8(%rdi),%ecx
   1a133:	76 1c                	jbe    0x1a151
   1a135:	4c 8b 48 08          	mov    0x8(%rax),%r9
   1a139:	8b 97 a4 00 00 00    	mov    0xa4(%rdi),%edx
   1a13f:	41 b8 03 00 00 00    	mov    $0x3,%r8d
   1a145:	ff 10                	callq  *(%rax)
   1a147:	81 87 a8 00 00 00 00 	addl   $0x400,0xa8(%rdi)
   1a14e:	04 00 00 
   1a151:	48 8b 5c 24 30       	mov    0x30(%rsp),%rbx
   1a156:	48 8b 6c 24 38       	mov    0x38(%rsp),%rbp
   1a15b:	48 8b 74 24 40       	mov    0x40(%rsp),%rsi
   1a160:	33 c0                	xor    %eax,%eax
   1a162:	48 83 c4 20          	add    $0x20,%rsp
   1a166:	5f                   	pop    %rdi
   1a167:	c3                   	retq   
   1a168:	cc                   	int3   
   1a169:	cc                   	int3   
   1a16a:	cc                   	int3   
   1a16b:	cc                   	int3   
   1a16c:	cc                   	int3   
   1a16d:	cc                   	int3   
   1a16e:	cc                   	int3   
   1a16f:	cc                   	int3   
   1a170:	83 c8 ff             	or     $0xffffffff,%eax
   1a173:	45 33 c9             	xor    %r9d,%r9d
   1a176:	3b d0                	cmp    %eax,%edx
   1a178:	74 09                	je     0x1a183
   1a17a:	41 3b d1             	cmp    %r9d,%edx
   1a17d:	75 40                	jne    0x1a1bf
   1a17f:	44 89 49 48          	mov    %r9d,0x48(%rcx)
   1a183:	44 3b c0             	cmp    %eax,%r8d
   1a186:	74 25                	je     0x1a1ad
   1a188:	41 83 f8 08          	cmp    $0x8,%r8d
   1a18c:	74 0c                	je     0x1a19a
   1a18e:	41 83 f8 10          	cmp    $0x10,%r8d
   1a192:	74 06                	je     0x1a19a
   1a194:	41 83 f8 20          	cmp    $0x20,%r8d
   1a198:	75 25                	jne    0x1a1bf
   1a19a:	41 8b c0             	mov    %r8d,%eax
   1a19d:	44 89 41 4c          	mov    %r8d,0x4c(%rcx)
   1a1a1:	99                   	cltd   
   1a1a2:	83 e2 07             	and    $0x7,%edx
   1a1a5:	03 c2                	add    %edx,%eax
   1a1a7:	c1 f8 03             	sar    $0x3,%eax
   1a1aa:	89 41 50             	mov    %eax,0x50(%rcx)
   1a1ad:	44 89 49 40          	mov    %r9d,0x40(%rcx)
   1a1b1:	44 89 49 44          	mov    %r9d,0x44(%rcx)
   1a1b5:	4c 89 49 58          	mov    %r9,0x58(%rcx)
   1a1b9:	4c 89 49 60          	mov    %r9,0x60(%rcx)
   1a1bd:	33 c0                	xor    %eax,%eax
   1a1bf:	c3                   	retq   
   1a1c0:	cc                   	int3   
   1a1c1:	cc                   	int3   
   1a1c2:	cc                   	int3   
   1a1c3:	cc                   	int3   
   1a1c4:	cc                   	int3   
   1a1c5:	cc                   	int3   
   1a1c6:	cc                   	int3   
   1a1c7:	cc                   	int3   
   1a1c8:	44 8b 51 44          	mov    0x44(%rcx),%r10d
   1a1cc:	44 8b da             	mov    %edx,%r11d
   1a1cf:	4c 8b c9             	mov    %rcx,%r9
   1a1d2:	44 3b 51 4c          	cmp    0x4c(%rcx),%r10d
   1a1d6:	73 2a                	jae    0x1a202
   1a1d8:	45 85 d2             	test   %r10d,%r10d
   1a1db:	75 12                	jne    0x1a1ef
   1a1dd:	4c 8b 41 60          	mov    0x60(%rcx),%r8
   1a1e1:	8b 41 50             	mov    0x50(%rcx),%eax
   1a1e4:	49 03 c0             	add    %r8,%rax
   1a1e7:	4c 89 41 58          	mov    %r8,0x58(%rcx)
   1a1eb:	48 89 41 60          	mov    %rax,0x60(%rcx)
   1a1ef:	8b 41 40             	mov    0x40(%rcx),%eax
   1a1f2:	8d 0c 42             	lea    (%rdx,%rax,2),%ecx
   1a1f5:	41 8d 42 01          	lea    0x1(%r10),%eax
   1a1f9:	41 89 41 44          	mov    %eax,0x44(%r9)
   1a1fd:	41 89 49 40          	mov    %ecx,0x40(%r9)
   1a201:	c3                   	retq   
   1a202:	48 8b 51 58          	mov    0x58(%rcx),%rdx
   1a206:	8b 49 40             	mov    0x40(%rcx),%ecx
   1a209:	88 0a                	mov    %cl,(%rdx)
   1a20b:	41 83 79 4c 10       	cmpl   $0x10,0x4c(%r9)
   1a210:	72 1d                	jb     0x1a22f
   1a212:	8b c1                	mov    %ecx,%eax
   1a214:	c1 e8 08             	shr    $0x8,%eax
   1a217:	88 42 01             	mov    %al,0x1(%rdx)
   1a21a:	41 83 79 4c 20       	cmpl   $0x20,0x4c(%r9)
   1a21f:	75 0e                	jne    0x1a22f
   1a221:	8b c1                	mov    %ecx,%eax
   1a223:	c1 e8 10             	shr    $0x10,%eax
   1a226:	c1 e9 18             	shr    $0x18,%ecx
   1a229:	88 4a 03             	mov    %cl,0x3(%rdx)
   1a22c:	88 42 02             	mov    %al,0x2(%rdx)
   1a22f:	49 8b 49 60          	mov    0x60(%r9),%rcx
   1a233:	41 8b 41 50          	mov    0x50(%r9),%eax
   1a237:	45 89 59 40          	mov    %r11d,0x40(%r9)
   1a23b:	48 03 c1             	add    %rcx,%rax
   1a23e:	49 89 49 58          	mov    %rcx,0x58(%r9)
   1a242:	41 c7 41 44 01 00 00 	movl   $0x1,0x44(%r9)
   1a249:	00 
   1a24a:	49 89 41 60          	mov    %rax,0x60(%r9)
   1a24e:	c3                   	retq   
   1a24f:	cc                   	int3   
   1a250:	cc                   	int3   
   1a251:	cc                   	int3   
   1a252:	cc                   	int3   
   1a253:	cc                   	int3   
   1a254:	cc                   	int3   
   1a255:	cc                   	int3   
   1a256:	cc                   	int3   
   1a257:	cc                   	int3   
   1a258:	48 89 5c 24 08       	mov    %rbx,0x8(%rsp)
   1a25d:	48 89 74 24 10       	mov    %rsi,0x10(%rsp)
   1a262:	57                   	push   %rdi
   1a263:	48 83 ec 20          	sub    $0x20,%rsp
   1a267:	83 fa 02             	cmp    $0x2,%edx
   1a26a:	8b fa                	mov    %edx,%edi
   1a26c:	48 8b f1             	mov    %rcx,%rsi
   1a26f:	72 33                	jb     0x1a2a4
   1a271:	bb 04 00 00 00       	mov    $0x4,%ebx
   1a276:	83 c7 02             	add    $0x2,%edi
   1a279:	03 db                	add    %ebx,%ebx
   1a27b:	3b fb                	cmp    %ebx,%edi
   1a27d:	73 fa                	jae    0x1a279
   1a27f:	d1 eb                	shr    %ebx
   1a281:	ba 00 00 00 00       	mov    $0x0,%edx
   1a286:	d1 eb                	shr    %ebx
   1a288:	48 8b ce             	mov    %rsi,%rcx
   1a28b:	85 df                	test   %ebx,%edi
   1a28d:	0f 95 c2             	setne  %dl
   1a290:	e8 33 ff ff ff       	callq  0x1a1c8
   1a295:	33 d2                	xor    %edx,%edx
   1a297:	48 8b ce             	mov    %rsi,%rcx
   1a29a:	e8 29 ff ff ff       	callq  0x1a1c8
   1a29f:	83 fb 02             	cmp    $0x2,%ebx
   1a2a2:	77 dd                	ja     0x1a281
   1a2a4:	83 e7 01             	and    $0x1,%edi
   1a2a7:	48 8b ce             	mov    %rsi,%rcx
   1a2aa:	8b d7                	mov    %edi,%edx
   1a2ac:	e8 17 ff ff ff       	callq  0x1a1c8
   1a2b1:	ba 01 00 00 00       	mov    $0x1,%edx
   1a2b6:	48 8b ce             	mov    %rsi,%rcx
   1a2b9:	48 8b 5c 24 30       	mov    0x30(%rsp),%rbx
   1a2be:	48 8b 74 24 38       	mov    0x38(%rsp),%rsi
   1a2c3:	48 83 c4 20          	add    $0x20,%rsp
   1a2c7:	5f                   	pop    %rdi
   1a2c8:	e9 fb fe ff ff       	jmpq   0x1a1c8
   1a2cd:	cc                   	int3   
   1a2ce:	cc                   	int3   
   1a2cf:	cc                   	int3   
   1a2d0:	cc                   	int3   
   1a2d1:	cc                   	int3   
   1a2d2:	cc                   	int3   
   1a2d3:	cc                   	int3   
   1a2d4:	48 89 5c 24 08       	mov    %rbx,0x8(%rsp)
   1a2d9:	48 89 74 24 10       	mov    %rsi,0x10(%rsp)
   1a2de:	57                   	push   %rdi
   1a2df:	48 83 ec 20          	sub    $0x20,%rsp
   1a2e3:	48 8b d9             	mov    %rcx,%rbx
   1a2e6:	8b 49 74             	mov    0x74(%rcx),%ecx
   1a2e9:	41 8b f0             	mov    %r8d,%esi
   1a2ec:	3b d1                	cmp    %ecx,%edx
   1a2ee:	8b fa                	mov    %edx,%edi
   1a2f0:	76 1e                	jbe    0x1a310
   1a2f2:	8d 51 fd             	lea    -0x3(%rcx),%edx
   1a2f5:	44 8b c6             	mov    %esi,%r8d
   1a2f8:	48 8b cb             	mov    %rbx,%rcx
   1a2fb:	e8 d4 ff ff ff       	callq  0x1a2d4
   1a300:	8b 4b 74             	mov    0x74(%rbx),%ecx
   1a303:	b8 03 00 00 00       	mov    $0x3,%eax
   1a308:	2b c1                	sub    %ecx,%eax
   1a30a:	03 f8                	add    %eax,%edi
   1a30c:	3b f9                	cmp    %ecx,%edi
   1a30e:	77 e2                	ja     0x1a2f2
   1a310:	48 8b 83 90 00 00 00 	mov    0x90(%rbx),%rax
   1a317:	01 bb b0 00 00 00    	add    %edi,0xb0(%rbx)
   1a31d:	3b 78 0c             	cmp    0xc(%rax),%edi
   1a320:	76 03                	jbe    0x1a325
   1a322:	89 78 0c             	mov    %edi,0xc(%rax)
   1a325:	48 8b 83 90 00 00 00 	mov    0x90(%rbx),%rax
   1a32c:	3b 70 04             	cmp    0x4(%rax),%esi
   1a32f:	76 03                	jbe    0x1a334
   1a331:	89 70 04             	mov    %esi,0x4(%rax)
   1a334:	33 d2                	xor    %edx,%edx
   1a336:	48 8b cb             	mov    %rbx,%rcx
   1a339:	e8 8a fe ff ff       	callq  0x1a1c8
   1a33e:	3b 73 14             	cmp    0x14(%rbx),%esi
   1a341:	48 8b cb             	mov    %rbx,%rcx
   1a344:	75 16                	jne    0x1a35c
   1a346:	33 d2                	xor    %edx,%edx
   1a348:	e8 7b fe ff ff       	callq  0x1a1c8
   1a34d:	ba 01 00 00 00       	mov    $0x1,%edx
   1a352:	48 8b cb             	mov    %rbx,%rcx
   1a355:	e8 6e fe ff ff       	callq  0x1a1c8
   1a35a:	eb 1c                	jmp    0x1a378
   1a35c:	8d 56 ff             	lea    -0x1(%rsi),%edx
   1a35f:	c1 ea 08             	shr    $0x8,%edx
   1a362:	83 c2 01             	add    $0x1,%edx
   1a365:	e8 ee fe ff ff       	callq  0x1a258
   1a36a:	48 8b 43 60          	mov    0x60(%rbx),%rax
   1a36e:	8d 4e ff             	lea    -0x1(%rsi),%ecx
   1a371:	88 08                	mov    %cl,(%rax)
   1a373:	48 83 43 60 01       	addq   $0x1,0x60(%rbx)
   1a378:	33 d2                	xor    %edx,%edx
   1a37a:	81 fe 00 0d 00 00    	cmp    $0xd00,%esi
   1a380:	8b ca                	mov    %edx,%ecx
   1a382:	0f 97 c1             	seta   %cl
   1a385:	83 c8 ff             	or     $0xffffffff,%eax
   1a388:	2b c1                	sub    %ecx,%eax
   1a38a:	48 8b cb             	mov    %rbx,%rcx
   1a38d:	03 f8                	add    %eax,%edi
   1a38f:	83 ff 04             	cmp    $0x4,%edi
   1a392:	72 1c                	jb     0x1a3b0
   1a394:	e8 2f fe ff ff       	callq  0x1a1c8
   1a399:	33 d2                	xor    %edx,%edx
   1a39b:	48 8b cb             	mov    %rbx,%rcx
   1a39e:	e8 25 fe ff ff       	callq  0x1a1c8
   1a3a3:	8d 57 fc             	lea    -0x4(%rdi),%edx
   1a3a6:	48 8b cb             	mov    %rbx,%rcx
   1a3a9:	e8 aa fe ff ff       	callq  0x1a258
   1a3ae:	eb 18                	jmp    0x1a3c8
   1a3b0:	83 ff 01             	cmp    $0x1,%edi
   1a3b3:	0f 97 c2             	seta   %dl
   1a3b6:	e8 0d fe ff ff       	callq  0x1a1c8
   1a3bb:	83 e7 01             	and    $0x1,%edi
   1a3be:	48 8b cb             	mov    %rbx,%rcx
   1a3c1:	8b d7                	mov    %edi,%edx
   1a3c3:	e8 00 fe ff ff       	callq  0x1a1c8
   1a3c8:	89 73 14             	mov    %esi,0x14(%rbx)
   1a3cb:	48 8b 5c 24 30       	mov    0x30(%rsp),%rbx
   1a3d0:	48 8b 74 24 38       	mov    0x38(%rsp),%rsi
   1a3d5:	48 83 c4 20          	add    $0x20,%rsp
   1a3d9:	5f                   	pop    %rdi
   1a3da:	c3                   	retq   
   1a3db:	cc                   	int3   
   1a3dc:	cc                   	int3   
   1a3dd:	cc                   	int3   
   1a3de:	cc                   	int3   
   1a3df:	cc                   	int3   
   1a3e0:	cc                   	int3   
   1a3e1:	cc                   	int3   
   1a3e2:	cc                   	int3   
   1a3e3:	cc                   	int3   
   1a3e4:	45 85 c0             	test   %r8d,%r8d
   1a3e7:	74 62                	je     0x1a44b
   1a3e9:	48 89 5c 24 08       	mov    %rbx,0x8(%rsp)
   1a3ee:	48 89 74 24 10       	mov    %rsi,0x10(%rsp)
   1a3f3:	57                   	push   %rdi
   1a3f4:	48 83 ec 20          	sub    $0x20,%rsp
   1a3f8:	48 8b 81 90 00 00 00 	mov    0x90(%rcx),%rax
   1a3ff:	41 8b d8             	mov    %r8d,%ebx
   1a402:	48 8b f2             	mov    %rdx,%rsi
   1a405:	01 99 ac 00 00 00    	add    %ebx,0xac(%rcx)
   1a40b:	3b 58 14             	cmp    0x14(%rax),%ebx
   1a40e:	48 8b f9             	mov    %rcx,%rdi
   1a411:	76 03                	jbe    0x1a416
   1a413:	89 58 14             	mov    %ebx,0x14(%rax)
   1a416:	ba 01 00 00 00       	mov    $0x1,%edx
   1a41b:	48 8b cf             	mov    %rdi,%rcx
   1a41e:	e8 a5 fd ff ff       	callq  0x1a1c8
   1a423:	44 0f b6 1e          	movzbl (%rsi),%r11d
   1a427:	48 8b 47 60          	mov    0x60(%rdi),%rax
   1a42b:	44 88 18             	mov    %r11b,(%rax)
   1a42e:	48 83 47 60 01       	addq   $0x1,0x60(%rdi)
   1a433:	48 83 c6 01          	add    $0x1,%rsi
   1a437:	83 c3 ff             	add    $0xffffffff,%ebx
   1a43a:	75 da                	jne    0x1a416
   1a43c:	48 8b 5c 24 30       	mov    0x30(%rsp),%rbx
   1a441:	48 8b 74 24 38       	mov    0x38(%rsp),%rsi
   1a446:	48 83 c4 20          	add    $0x20,%rsp
   1a44a:	5f                   	pop    %rdi
   1a44b:	c3                   	retq   
   1a44c:	cc                   	int3   
   1a44d:	cc                   	int3   
   1a44e:	cc                   	int3   
   1a44f:	cc                   	int3   
   1a450:	cc                   	int3   
   1a451:	cc                   	int3   
   1a452:	cc                   	int3   
   1a453:	cc                   	int3   
   1a454:	83 fa 02             	cmp    $0x2,%edx
   1a457:	4c 8b c9             	mov    %rcx,%r9
   1a45a:	72 5a                	jb     0x1a4b6
   1a45c:	b8 00 0d 00 00       	mov    $0xd00,%eax
   1a461:	75 05                	jne    0x1a468
   1a463:	44 3b c0             	cmp    %eax,%r8d
   1a466:	77 4e                	ja     0x1a4b6
   1a468:	44 3b 41 70          	cmp    0x70(%rcx),%r8d
   1a46c:	77 48                	ja     0x1a4b6
   1a46e:	33 c9                	xor    %ecx,%ecx
   1a470:	44 3b c0             	cmp    %eax,%r8d
   1a473:	b8 fe ff ff ff       	mov    $0xfffffffe,%eax
   1a478:	0f 97 c1             	seta   %cl
   1a47b:	2b c1                	sub    %ecx,%eax
   1a47d:	03 d0                	add    %eax,%edx
   1a47f:	45 3b 41 14          	cmp    0x14(%r9),%r8d
   1a483:	75 07                	jne    0x1a48c
   1a485:	b8 03 00 00 00       	mov    $0x3,%eax
   1a48a:	eb 17                	jmp    0x1a4a3
   1a48c:	41 83 c0 ff          	add    $0xffffffff,%r8d
   1a490:	b8 0b 00 00 00       	mov    $0xb,%eax
   1a495:	41 c1 e8 08          	shr    $0x8,%r8d
   1a499:	74 08                	je     0x1a4a3
   1a49b:	83 c0 02             	add    $0x2,%eax
   1a49e:	41 d1 e8             	shr    %r8d
   1a4a1:	75 f8                	jne    0x1a49b
   1a4a3:	83 c0 02             	add    $0x2,%eax
   1a4a6:	83 fa 03             	cmp    $0x3,%edx
   1a4a9:	72 0e                	jb     0x1a4b9
   1a4ab:	83 c2 fd             	add    $0xfffffffd,%edx
   1a4ae:	83 c0 02             	add    $0x2,%eax
   1a4b1:	d1 ea                	shr    %edx
   1a4b3:	75 f9                	jne    0x1a4ae
   1a4b5:	c3                   	retq   
   1a4b6:	83 c8 ff             	or     $0xffffffff,%eax
   1a4b9:	c3                   	retq   
   1a4ba:	cc                   	int3   
   1a4bb:	cc                   	int3   
   1a4bc:	cc                   	int3   
   1a4bd:	cc                   	int3   
   1a4be:	cc                   	int3   
   1a4bf:	cc                   	int3   
   1a4c0:	48 89 5c 24 08       	mov    %rbx,0x8(%rsp)
   1a4c5:	4c 89 4c 24 20       	mov    %r9,0x20(%rsp)
   1a4ca:	4c 89 44 24 18       	mov    %r8,0x18(%rsp)
   1a4cf:	55                   	push   %rbp
   1a4d0:	56                   	push   %rsi
   1a4d1:	57                   	push   %rdi
   1a4d2:	41 54                	push   %r12
   1a4d4:	41 55                	push   %r13
   1a4d6:	41 56                	push   %r14
   1a4d8:	41 57                	push   %r15
   1a4da:	48 81 ec 40 01 00 00 	sub    $0x140,%rsp
   1a4e1:	8b 84 24 a0 01 00 00 	mov    0x1a0(%rsp),%eax
   1a4e8:	4d 8b f9             	mov    %r9,%r15
   1a4eb:	4d 8b f0             	mov    %r8,%r14
   1a4ee:	83 f8 0a             	cmp    $0xa,%eax
   1a4f1:	8b fa                	mov    %edx,%edi
   1a4f3:	48 8b d9             	mov    %rcx,%rbx
   1a4f6:	0f 8f 26 05 00 00    	jg     0x1aa22
   1a4fc:	83 c0 ff             	add    $0xffffffff,%eax
   1a4ff:	48 8d 4c 24 30       	lea    0x30(%rsp),%rcx
   1a504:	33 d2                	xor    %edx,%edx
   1a506:	48 63 f0             	movslq %eax,%rsi
   1a509:	48 8d 05 c0 1c 01 00 	lea    0x11cc0(%rip),%rax        # 0x2c1d0
   1a510:	41 b8 c0 00 00 00    	mov    $0xc0,%r8d
   1a516:	48 6b f6 1c          	imul   $0x1c,%rsi,%rsi
   1a51a:	48 03 f0             	add    %rax,%rsi
   1a51d:	e8 6e 63 00 00       	callq  0x20890
   1a522:	48 8d 8c 24 98 00 00 	lea    0x98(%rsp),%rcx
   1a529:	00 
   1a52a:	ba ff 00 00 00       	mov    $0xff,%edx
   1a52f:	41 b8 24 00 00 00    	mov    $0x24,%r8d
   1a535:	e8 56 63 00 00       	callq  0x20890
   1a53a:	48 8d 04 3b          	lea    (%rbx,%rdi,1),%rax
   1a53e:	33 d2                	xor    %edx,%edx
   1a540:	48 89 44 24 60       	mov    %rax,0x60(%rsp)
   1a545:	48 8d 84 24 00 01 00 	lea    0x100(%rsp),%rax
   1a54c:	00 
   1a54d:	48 8d 8c 24 00 01 00 	lea    0x100(%rsp),%rcx
   1a554:	00 
   1a555:	44 8d 42 40          	lea    0x40(%rdx),%r8d
   1a559:	48 89 5c 24 58       	mov    %rbx,0x58(%rsp)
   1a55e:	48 89 5c 24 50       	mov    %rbx,0x50(%rsp)
   1a563:	48 89 84 24 c0 00 00 	mov    %rax,0xc0(%rsp)
   1a56a:	00 
   1a56b:	4c 89 74 24 68       	mov    %r14,0x68(%rsp)
   1a570:	e8 1b 63 00 00       	callq  0x20890
   1a575:	48 8b 84 24 c0 00 00 	mov    0xc0(%rsp),%rax
   1a57c:	00 
   1a57d:	45 33 d2             	xor    %r10d,%r10d
   1a580:	83 cd ff             	or     $0xffffffff,%ebp
   1a583:	89 68 10             	mov    %ebp,0x10(%rax)
   1a586:	48 8b 84 24 c0 00 00 	mov    0xc0(%rsp),%rax
   1a58d:	00 
   1a58e:	48 8d 4c 24 30       	lea    0x30(%rsp),%rcx
   1a593:	89 68 08             	mov    %ebp,0x8(%rax)
   1a596:	48 8b 84 24 c0 00 00 	mov    0xc0(%rsp),%rax
   1a59d:	00 
   1a59e:	89 28                	mov    %ebp,(%rax)
   1a5a0:	44 8b 84 24 9c 00 00 	mov    0x9c(%rsp),%r8d
   1a5a7:	00 
   1a5a8:	8b 94 24 98 00 00 00 	mov    0x98(%rsp),%edx
   1a5af:	44 89 54 24 78       	mov    %r10d,0x78(%rsp)
   1a5b4:	c7 44 24 7c 08 00 00 	movl   $0x8,0x7c(%rsp)
   1a5bb:	00 
   1a5bc:	c7 84 24 80 00 00 00 	movl   $0x1,0x80(%rsp)
   1a5c3:	01 00 00 00 
   1a5c7:	44 89 54 24 70       	mov    %r10d,0x70(%rsp)
   1a5cc:	44 89 54 24 74       	mov    %r10d,0x74(%rsp)
   1a5d1:	4c 89 94 24 88 00 00 	mov    %r10,0x88(%rsp)
   1a5d8:	00 
   1a5d9:	4c 89 94 24 90 00 00 	mov    %r10,0x90(%rsp)
   1a5e0:	00 
   1a5e1:	e8 8a fb ff ff       	callq  0x1a170
   1a5e6:	41 3b c2             	cmp    %r10d,%eax
   1a5e9:	0f 85 33 04 00 00    	jne    0x1aa22
   1a5ef:	4c 8b 64 24 50       	mov    0x50(%rsp),%r12
   1a5f4:	41 8d 4a 01          	lea    0x1(%r10),%ecx
   1a5f8:	ba 78 50 8c 04       	mov    $0x48c5078,%edx
   1a5fd:	4c 89 b4 24 90 00 00 	mov    %r14,0x90(%rsp)
   1a604:	00 
   1a605:	45 8b ea             	mov    %r10d,%r13d
   1a608:	ff 15 ba 7a 00 00    	callq  *0x7aba(%rip)        # 0x220c8
   1a60e:	33 d2                	xor    %edx,%edx
   1a610:	48 8b d8             	mov    %rax,%rbx
   1a613:	48 3b c2             	cmp    %rdx,%rax
   1a616:	75 08                	jne    0x1a620
   1a618:	8d 42 fd             	lea    -0x3(%rdx),%eax
   1a61b:	e9 07 04 00 00       	jmpq   0x1aa27
   1a620:	8b 8c 24 a4 00 00 00 	mov    0xa4(%rsp),%ecx
   1a627:	b8 00 08 00 00       	mov    $0x800,%eax
   1a62c:	41 b8 00 00 80 00    	mov    $0x800000,%r8d
   1a632:	3b c8                	cmp    %eax,%ecx
   1a634:	0f 43 c8             	cmovae %eax,%ecx
   1a637:	89 4b 04             	mov    %ecx,0x4(%rbx)
   1a63a:	8b 46 18             	mov    0x18(%rsi),%eax
   1a63d:	c7 43 0c ff ff 00 00 	movl   $0xffff,0xc(%rbx)
   1a644:	41 3b c0             	cmp    %r8d,%eax
   1a647:	41 0f 43 c0          	cmovae %r8d,%eax
   1a64b:	89 03                	mov    %eax,(%rbx)
   1a64d:	8b 84 24 a0 00 00 00 	mov    0xa0(%rsp),%eax
   1a654:	3b c5                	cmp    %ebp,%eax
   1a656:	74 09                	je     0x1a661
   1a658:	41 3b c0             	cmp    %r8d,%eax
   1a65b:	41 0f 43 c0          	cmovae %r8d,%eax
   1a65f:	89 03                	mov    %eax,(%rbx)
   1a661:	3b 3b                	cmp    (%rbx),%edi
   1a663:	41 b8 00 01 00 00    	mov    $0x100,%r8d
   1a669:	73 0b                	jae    0x1a676
   1a66b:	41 8b c0             	mov    %r8d,%eax
   1a66e:	41 3b f8             	cmp    %r8d,%edi
   1a671:	0f 43 c7             	cmovae %edi,%eax
   1a674:	89 03                	mov    %eax,(%rbx)
   1a676:	83 f9 08             	cmp    $0x8,%ecx
   1a679:	0f 82 a3 03 00 00    	jb     0x1aa22
   1a67f:	44 39 03             	cmp    %r8d,(%rbx)
   1a682:	0f 82 9a 03 00 00    	jb     0x1aa22
   1a688:	8b 6e 14             	mov    0x14(%rsi),%ebp
   1a68b:	48 8d 44 24 30       	lea    0x30(%rsp),%rax
   1a690:	c7 44 24 30 01 00 00 	movl   $0x1,0x30(%rsp)
   1a697:	00 
   1a698:	48 89 43 30          	mov    %rax,0x30(%rbx)
   1a69c:	45 33 c0             	xor    %r8d,%r8d
   1a69f:	48 8b cb             	mov    %rbx,%rcx
   1a6a2:	89 54 24 44          	mov    %edx,0x44(%rsp)
   1a6a6:	89 54 24 40          	mov    %edx,0x40(%rsp)
   1a6aa:	89 94 24 d8 00 00 00 	mov    %edx,0xd8(%rsp)
   1a6b1:	89 94 24 d4 00 00 00 	mov    %edx,0xd4(%rsp)
   1a6b8:	89 94 24 d0 00 00 00 	mov    %edx,0xd0(%rsp)
   1a6bf:	89 94 24 e4 00 00 00 	mov    %edx,0xe4(%rsp)
   1a6c6:	89 94 24 e0 00 00 00 	mov    %edx,0xe0(%rsp)
   1a6cd:	89 94 24 dc 00 00 00 	mov    %edx,0xdc(%rsp)
   1a6d4:	89 94 24 e8 00 00 00 	mov    %edx,0xe8(%rsp)
   1a6db:	e8 28 f4 ff ff       	callq  0x19b08
   1a6e0:	85 c0                	test   %eax,%eax
   1a6e2:	8b f8                	mov    %eax,%edi
   1a6e4:	75 06                	jne    0x1a6ec
   1a6e6:	83 e5 01             	and    $0x1,%ebp
   1a6e9:	89 6b 18             	mov    %ebp,0x18(%rbx)
   1a6ec:	85 ff                	test   %edi,%edi
   1a6ee:	75 0c                	jne    0x1a6fc
   1a6f0:	81 7b 0c ff ff 00 00 	cmpl   $0xffff,0xc(%rbx)
   1a6f7:	74 15                	je     0x1a70e
   1a6f9:	83 cf ff             	or     $0xffffffff,%edi
   1a6fc:	33 d2                	xor    %edx,%edx
   1a6fe:	48 8b cb             	mov    %rbx,%rcx
   1a701:	ff 15 01 79 00 00    	callq  *0x7901(%rip)        # 0x22008
   1a707:	8b c7                	mov    %edi,%eax
   1a709:	e9 19 03 00 00       	jmpq   0x1aa27
   1a70e:	8b 46 10             	mov    0x10(%rsi),%eax
   1a711:	85 c0                	test   %eax,%eax
   1a713:	74 03                	je     0x1a718
   1a715:	89 43 10             	mov    %eax,0x10(%rbx)
   1a718:	8b 46 0c             	mov    0xc(%rsi),%eax
   1a71b:	85 c0                	test   %eax,%eax
   1a71d:	74 03                	je     0x1a722
   1a71f:	89 43 14             	mov    %eax,0x14(%rbx)
   1a722:	8b 84 24 a4 00 00 00 	mov    0xa4(%rsp),%eax
   1a729:	3b 43 14             	cmp    0x14(%rbx),%eax
   1a72c:	73 03                	jae    0x1a731
   1a72e:	89 43 14             	mov    %eax,0x14(%rbx)
   1a731:	48 8b 84 24 c8 00 00 	mov    0xc8(%rsp),%rax
   1a738:	00 
   1a739:	48 85 c0             	test   %rax,%rax
   1a73c:	74 0e                	je     0x1a74c
   1a73e:	4c 8b 48 08          	mov    0x8(%rax),%r9
   1a742:	41 83 c8 ff          	or     $0xffffffff,%r8d
   1a746:	33 d2                	xor    %edx,%edx
   1a748:	33 c9                	xor    %ecx,%ecx
   1a74a:	ff 10                	callq  *(%rax)
   1a74c:	48 8d 4c 24 30       	lea    0x30(%rsp),%rcx
   1a751:	45 33 c9             	xor    %r9d,%r9d
   1a754:	45 33 c0             	xor    %r8d,%r8d
   1a757:	48 8b d3             	mov    %rbx,%rdx
   1a75a:	c7 44 24 44 01 00 00 	movl   $0x1,0x44(%rsp)
   1a761:	00 
   1a762:	e8 09 f8 ff ff       	callq  0x19f70
   1a767:	85 c0                	test   %eax,%eax
   1a769:	0f 85 b8 02 00 00    	jne    0x1aa27
   1a76f:	8b 7c 24 34          	mov    0x34(%rsp),%edi
   1a773:	85 ff                	test   %edi,%edi
   1a775:	0f 84 bc 01 00 00    	je     0x1a937
   1a77b:	44 8b 5c 24 3c       	mov    0x3c(%rsp),%r11d
   1a780:	44 8b 54 24 38       	mov    0x38(%rsp),%r10d
   1a785:	8b 84 24 90 00 00 00 	mov    0x90(%rsp),%eax
   1a78c:	45 8b fa             	mov    %r10d,%r15d
   1a78f:	44 89 5c 24 20       	mov    %r11d,0x20(%rsp)
   1a794:	41 2b c6             	sub    %r14d,%eax
   1a797:	45 85 ed             	test   %r13d,%r13d
   1a79a:	4c 0f 44 64 24 48    	cmove  0x48(%rsp),%r12
   1a7a0:	41 83 fa 02          	cmp    $0x2,%r10d
   1a7a4:	89 84 24 d4 00 00 00 	mov    %eax,0xd4(%rsp)
   1a7ab:	4c 89 a4 24 f0 00 00 	mov    %r12,0xf0(%rsp)
   1a7b2:	00 
   1a7b3:	0f 82 3a 01 00 00    	jb     0x1a8f3
   1a7b9:	75 0d                	jne    0x1a7c8
   1a7bb:	41 81 fb 00 0d 00 00 	cmp    $0xd00,%r11d
   1a7c2:	0f 87 2b 01 00 00    	ja     0x1a8f3
   1a7c8:	44 3b 9c 24 a0 00 00 	cmp    0xa0(%rsp),%r11d
   1a7cf:	00 
   1a7d0:	0f 87 1d 01 00 00    	ja     0x1a8f3
   1a7d6:	33 ed                	xor    %ebp,%ebp
   1a7d8:	39 2e                	cmp    %ebp,(%rsi)
   1a7da:	76 31                	jbe    0x1a80d
   1a7dc:	44 3b 56 08          	cmp    0x8(%rsi),%r10d
   1a7e0:	73 2b                	jae    0x1a80d
   1a7e2:	44 3b 5c 24 44       	cmp    0x44(%rsp),%r11d
   1a7e7:	74 24                	je     0x1a80d
   1a7e9:	48 8d 4c 24 30       	lea    0x30(%rsp),%rcx
   1a7ee:	45 8b c3             	mov    %r11d,%r8d
   1a7f1:	41 8b d2             	mov    %r10d,%edx
   1a7f4:	e8 5b fc ff ff       	callq  0x1a454
   1a7f9:	45 8d 62 ff          	lea    -0x1(%r10),%r12d
   1a7fd:	44 39 26             	cmp    %r12d,(%rsi)
   1a800:	89 84 24 a0 01 00 00 	mov    %eax,0x1a0(%rsp)
   1a807:	44 0f 46 26          	cmovbe (%rsi),%r12d
   1a80b:	eb 0a                	jmp    0x1a817
   1a80d:	21 ac 24 a0 01 00 00 	and    %ebp,0x1a0(%rsp)
   1a814:	45 33 e4             	xor    %r12d,%r12d
   1a817:	45 85 e4             	test   %r12d,%r12d
   1a81a:	0f 84 95 00 00 00    	je     0x1a8b5
   1a820:	45 33 f6             	xor    %r14d,%r14d
   1a823:	41 3b ff             	cmp    %r15d,%edi
   1a826:	0f 86 89 00 00 00    	jbe    0x1a8b5
   1a82c:	44 3b 7e 04          	cmp    0x4(%rsi),%r15d
   1a830:	8b 46 10             	mov    0x10(%rsi),%eax
   1a833:	72 03                	jb     0x1a838
   1a835:	c1 e8 02             	shr    $0x2,%eax
   1a838:	45 33 c9             	xor    %r9d,%r9d
   1a83b:	48 8d 4c 24 30       	lea    0x30(%rsp),%rcx
   1a840:	48 8b d3             	mov    %rbx,%rdx
   1a843:	45 8d 41 01          	lea    0x1(%r9),%r8d
   1a847:	89 43 10             	mov    %eax,0x10(%rbx)
   1a84a:	e8 21 f7 ff ff       	callq  0x19f70
   1a84f:	44 8b 54 24 38       	mov    0x38(%rsp),%r10d
   1a854:	83 c5 01             	add    $0x1,%ebp
   1a857:	41 83 c6 09          	add    $0x9,%r14d
   1a85b:	41 83 fa 02          	cmp    $0x2,%r10d
   1a85f:	72 34                	jb     0x1a895
   1a861:	44 8b 5c 24 3c       	mov    0x3c(%rsp),%r11d
   1a866:	48 8d 4c 24 30       	lea    0x30(%rsp),%rcx
   1a86b:	41 8b d2             	mov    %r10d,%edx
   1a86e:	45 8b c3             	mov    %r11d,%r8d
   1a871:	e8 de fb ff ff       	callq  0x1a454
   1a876:	85 c0                	test   %eax,%eax
   1a878:	78 1b                	js     0x1a895
   1a87a:	8b 8c 24 a0 01 00 00 	mov    0x1a0(%rsp),%ecx
   1a881:	41 8b d2             	mov    %r10d,%edx
   1a884:	41 03 c6             	add    %r14d,%eax
   1a887:	41 2b d7             	sub    %r15d,%edx
   1a88a:	03 d5                	add    %ebp,%edx
   1a88c:	8d 0c 91             	lea    (%rcx,%rdx,4),%ecx
   1a88f:	03 d1                	add    %ecx,%edx
   1a891:	3b d0                	cmp    %eax,%edx
   1a893:	7f 0b                	jg     0x1a8a0
   1a895:	41 3b ec             	cmp    %r12d,%ebp
   1a898:	73 1b                	jae    0x1a8b5
   1a89a:	8b 7c 24 34          	mov    0x34(%rsp),%edi
   1a89e:	eb 83                	jmp    0x1a823
   1a8a0:	83 84 24 e8 00 00 00 	addl   $0x1,0xe8(%rsp)
   1a8a7:	01 
   1a8a8:	4c 8b a4 24 f0 00 00 	mov    0xf0(%rsp),%r12
   1a8af:	00 
   1a8b0:	44 03 ed             	add    %ebp,%r13d
   1a8b3:	eb 66                	jmp    0x1a91b
   1a8b5:	4c 8b a4 24 f0 00 00 	mov    0xf0(%rsp),%r12
   1a8bc:	00 
   1a8bd:	48 8d 4c 24 30       	lea    0x30(%rsp),%rcx
   1a8c2:	45 8b c5             	mov    %r13d,%r8d
   1a8c5:	49 8b d4             	mov    %r12,%rdx
   1a8c8:	e8 17 fb ff ff       	callq  0x1a3e4
   1a8cd:	44 8b 44 24 20       	mov    0x20(%rsp),%r8d
   1a8d2:	48 8d 4c 24 30       	lea    0x30(%rsp),%rcx
   1a8d7:	41 8b d7             	mov    %r15d,%edx
   1a8da:	45 33 ed             	xor    %r13d,%r13d
   1a8dd:	e8 f2 f9 ff ff       	callq  0x1a2d4
   1a8e2:	44 8b 5e 10          	mov    0x10(%rsi),%r11d
   1a8e6:	44 8d 4d 01          	lea    0x1(%rbp),%r9d
   1a8ea:	44 89 5b 10          	mov    %r11d,0x10(%rbx)
   1a8ee:	45 8b c7             	mov    %r15d,%r8d
   1a8f1:	eb 11                	jmp    0x1a904
   1a8f3:	8b 46 10             	mov    0x10(%rsi),%eax
   1a8f6:	41 83 c5 01          	add    $0x1,%r13d
   1a8fa:	45 33 c9             	xor    %r9d,%r9d
   1a8fd:	89 43 10             	mov    %eax,0x10(%rbx)
   1a900:	45 8d 41 01          	lea    0x1(%r9),%r8d
   1a904:	48 8d 4c 24 30       	lea    0x30(%rsp),%rcx
   1a909:	48 8b d3             	mov    %rbx,%rdx
   1a90c:	e8 5f f6 ff ff       	callq  0x19f70
   1a911:	44 8b 54 24 38       	mov    0x38(%rsp),%r10d
   1a916:	44 8b 5c 24 3c       	mov    0x3c(%rsp),%r11d
   1a91b:	8b 7c 24 34          	mov    0x34(%rsp),%edi
   1a91f:	4c 8b b4 24 90 01 00 	mov    0x190(%rsp),%r14
   1a926:	00 
   1a927:	85 ff                	test   %edi,%edi
   1a929:	0f 85 56 fe ff ff    	jne    0x1a785
   1a92f:	4c 8b bc 24 98 01 00 	mov    0x198(%rsp),%r15
   1a936:	00 
   1a937:	48 8d 4c 24 30       	lea    0x30(%rsp),%rcx
   1a93c:	45 8b c5             	mov    %r13d,%r8d
   1a93f:	49 8b d4             	mov    %r12,%rdx
   1a942:	e8 9d fa ff ff       	callq  0x1a3e4
   1a947:	48 8d 4c 24 30       	lea    0x30(%rsp),%rcx
   1a94c:	33 d2                	xor    %edx,%edx
   1a94e:	e8 75 f8 ff ff       	callq  0x1a1c8
   1a953:	48 8d 4c 24 30       	lea    0x30(%rsp),%rcx
   1a958:	ba 00 00 00 01       	mov    $0x1000000,%edx
   1a95d:	e8 f6 f8 ff ff       	callq  0x1a258
   1a962:	4c 8b 9c 24 90 00 00 	mov    0x90(%rsp),%r11
   1a969:	00 
   1a96a:	41 c6 03 ff          	movb   $0xff,(%r11)
   1a96e:	8b 44 24 74          	mov    0x74(%rsp),%eax
   1a972:	48 83 84 24 90 00 00 	addq   $0x1,0x90(%rsp)
   1a979:	00 01 
   1a97b:	85 c0                	test   %eax,%eax
   1a97d:	74 57                	je     0x1a9d6
   1a97f:	3b 44 24 7c          	cmp    0x7c(%rsp),%eax
   1a983:	74 18                	je     0x1a99d
   1a985:	48 8d 4c 24 30       	lea    0x30(%rsp),%rcx
   1a98a:	33 d2                	xor    %edx,%edx
   1a98c:	e8 37 f8 ff ff       	callq  0x1a1c8
   1a991:	44 8b 5c 24 7c       	mov    0x7c(%rsp),%r11d
   1a996:	44 39 5c 24 74       	cmp    %r11d,0x74(%rsp)
   1a99b:	75 e8                	jne    0x1a985
   1a99d:	8b 4c 24 70          	mov    0x70(%rsp),%ecx
   1a9a1:	48 8b 94 24 88 00 00 	mov    0x88(%rsp),%rdx
   1a9a8:	00 
   1a9a9:	88 0a                	mov    %cl,(%rdx)
   1a9ab:	83 7c 24 7c 10       	cmpl   $0x10,0x7c(%rsp)
   1a9b0:	8a c1                	mov    %cl,%al
   1a9b2:	72 1d                	jb     0x1a9d1
   1a9b4:	8b c1                	mov    %ecx,%eax
   1a9b6:	c1 e8 08             	shr    $0x8,%eax
   1a9b9:	88 42 01             	mov    %al,0x1(%rdx)
   1a9bc:	83 7c 24 7c 20       	cmpl   $0x20,0x7c(%rsp)
   1a9c1:	75 0e                	jne    0x1a9d1
   1a9c3:	8b c1                	mov    %ecx,%eax
   1a9c5:	c1 e8 10             	shr    $0x10,%eax
   1a9c8:	c1 e9 18             	shr    $0x18,%ecx
   1a9cb:	88 4a 03             	mov    %cl,0x3(%rdx)
   1a9ce:	88 42 02             	mov    %al,0x2(%rdx)
   1a9d1:	83 64 24 74 00       	andl   $0x0,0x74(%rsp)
   1a9d6:	8b 94 24 90 00 00 00 	mov    0x90(%rsp),%edx
   1a9dd:	48 8b 84 24 c8 00 00 	mov    0xc8(%rsp),%rax
   1a9e4:	00 
   1a9e5:	48 83 a4 24 88 00 00 	andq   $0x0,0x88(%rsp)
   1a9ec:	00 00 
   1a9ee:	41 2b d6             	sub    %r14d,%edx
   1a9f1:	48 85 c0             	test   %rax,%rax
   1a9f4:	89 94 24 d4 00 00 00 	mov    %edx,0xd4(%rsp)
   1a9fb:	41 89 17             	mov    %edx,(%r15)
   1a9fe:	74 13                	je     0x1aa13
   1aa00:	4c 8b 48 08          	mov    0x8(%rax),%r9
   1aa04:	8b 8c 24 d0 00 00 00 	mov    0xd0(%rsp),%ecx
   1aa0b:	41 b8 04 00 00 00    	mov    $0x4,%r8d
   1aa11:	ff 10                	callq  *(%rax)
   1aa13:	33 d2                	xor    %edx,%edx
   1aa15:	48 8b cb             	mov    %rbx,%rcx
   1aa18:	ff 15 ea 75 00 00    	callq  *0x75ea(%rip)        # 0x22008
   1aa1e:	33 c0                	xor    %eax,%eax
   1aa20:	eb 05                	jmp    0x1aa27
   1aa22:	b8 fe ff ff ff       	mov    $0xfffffffe,%eax
   1aa27:	48 8b 9c 24 80 01 00 	mov    0x180(%rsp),%rbx
   1aa2e:	00 
   1aa2f:	48 81 c4 40 01 00 00 	add    $0x140,%rsp
   1aa36:	41 5f                	pop    %r15
   1aa38:	41 5e                	pop    %r14
   1aa3a:	41 5d                	pop    %r13
   1aa3c:	41 5c                	pop    %r12
   1aa3e:	5f                   	pop    %rdi
   1aa3f:	5e                   	pop    %rsi
   1aa40:	5d                   	pop    %rbp
   1aa41:	c3                   	retq   
   1aa42:	cc                   	int3   
   1aa43:	cc                   	int3   
   1aa44:	cc                   	int3   
   1aa45:	cc                   	int3   
   1aa46:	cc                   	int3   
   1aa47:	cc                   	int3   
   1aa48:	40 53                	rex push %rbx
   1aa4a:	48 83 ec 30          	sub    $0x30,%rsp
   1aa4e:	bb 01 00 00 c0       	mov    $0xc0000001,%ebx
   1aa53:	48 85 c9             	test   %rcx,%rcx
   1aa56:	74 1d                	je     0x1aa75
   1aa58:	4d 85 c9             	test   %r9,%r9
   1aa5b:	74 18                	je     0x1aa75
   1aa5d:	4d 85 c0             	test   %r8,%r8
   1aa60:	74 13                	je     0x1aa75
   1aa62:	c7 44 24 20 0a 00 00 	movl   $0xa,0x20(%rsp)
   1aa69:	00 
   1aa6a:	e8 51 fa ff ff       	callq  0x1a4c0
   1aa6f:	f7 d8                	neg    %eax
   1aa71:	1b c9                	sbb    %ecx,%ecx
   1aa73:	23 d9                	and    %ecx,%ebx
   1aa75:	8b c3                	mov    %ebx,%eax
   1aa77:	48 83 c4 30          	add    $0x30,%rsp
   1aa7b:	5b                   	pop    %rbx
   1aa7c:	c3                   	retq   
   1aa7d:	cc                   	int3   
   1aa7e:	cc                   	int3   
   1aa7f:	cc                   	int3   
   1aa80:	cc                   	int3   
   1aa81:	cc                   	int3   
   1aa82:	cc                   	int3   
   1aa83:	cc                   	int3   
   1aa84:	cc                   	int3   
   1aa85:	cc                   	int3   
   1aa86:	cc                   	int3   
   1aa87:	cc                   	int3   
   1aa88:	40 55                	rex push %rbp
   1aa8a:	48 83 ec 30          	sub    $0x30,%rsp
   1aa8e:	48 8b ea             	mov    %rdx,%rbp
   1aa91:	48 83 c4 30          	add    $0x30,%rsp
   1aa95:	5d                   	pop    %rbp
   1aa96:	c3                   	retq   
   1aa97:	cc                   	int3   
   1aa98:	cc                   	int3   
   1aa99:	cc                   	int3   
   1aa9a:	cc                   	int3   
   1aa9b:	cc                   	int3   
   1aa9c:	cc                   	int3   
   1aa9d:	cc                   	int3   
   1aa9e:	cc                   	int3   
   1aa9f:	cc                   	int3   
   1aaa0:	48 8b c4             	mov    %rsp,%rax
   1aaa3:	48 89 58 10          	mov    %rbx,0x10(%rax)
   1aaa7:	48 89 68 18          	mov    %rbp,0x18(%rax)
   1aaab:	48 89 70 20          	mov    %rsi,0x20(%rax)
   1aaaf:	57                   	push   %rdi
   1aab0:	41 54                	push   %r12
   1aab2:	41 55                	push   %r13
   1aab4:	41 56                	push   %r14
   1aab6:	41 57                	push   %r15
   1aab8:	48 83 ec 20          	sub    $0x20,%rsp
   1aabc:	33 ed                	xor    %ebp,%ebp
   1aabe:	33 ff                	xor    %edi,%edi
   1aac0:	48 85 c9             	test   %rcx,%rcx
   1aac3:	4d 8b e8             	mov    %r8,%r13
   1aac6:	4c 8b fa             	mov    %rdx,%r15
   1aac9:	4c 8b f1             	mov    %rcx,%r14
   1aacc:	bb 01 00 00 c0       	mov    $0xc0000001,%ebx
   1aad1:	0f 84 dc 01 00 00    	je     0x1acb3
   1aad7:	48 85 d2             	test   %rdx,%rdx
   1aada:	0f 84 d3 01 00 00    	je     0x1acb3
   1aae0:	4d 85 c0             	test   %r8,%r8
   1aae3:	0f 84 ca 01 00 00    	je     0x1acb3
   1aae9:	49 21 38             	and    %rdi,(%r8)
   1aaec:	44 8b 60 08          	mov    0x8(%rax),%r12d
   1aaf0:	48 63 f5             	movslq %ebp,%rsi
   1aaf3:	49 03 f6             	add    %r14,%rsi
   1aaf6:	48 8b ce             	mov    %rsi,%rcx
   1aaf9:	e8 6a 33 00 00       	callq  0x1de68
   1aafe:	85 c0                	test   %eax,%eax
   1ab00:	44 8b d8             	mov    %eax,%r11d
   1ab03:	0f 84 af 01 00 00    	je     0x1acb8
   1ab09:	48 85 f6             	test   %rsi,%rsi
   1ab0c:	74 73                	je     0x1ab81
   1ab0e:	33 db                	xor    %ebx,%ebx
   1ab10:	45 33 e4             	xor    %r12d,%r12d
   1ab13:	8d 53 01             	lea    0x1(%rbx),%edx
   1ab16:	3b c2                	cmp    %edx,%eax
   1ab18:	75 0c                	jne    0x1ab26
   1ab1a:	80 3e 50             	cmpb   $0x50,(%rsi)
   1ab1d:	72 67                	jb     0x1ab86
   1ab1f:	80 3e 57             	cmpb   $0x57,(%rsi)
   1ab22:	77 62                	ja     0x1ab86
   1ab24:	eb 56                	jmp    0x1ab7c
   1ab26:	83 f8 02             	cmp    $0x2,%eax
   1ab29:	75 20                	jne    0x1ab4b
   1ab2b:	80 3e 41             	cmpb   $0x41,(%rsi)
   1ab2e:	75 0b                	jne    0x1ab3b
   1ab30:	8a 46 01             	mov    0x1(%rsi),%al
   1ab33:	3c 50                	cmp    $0x50,%al
   1ab35:	72 04                	jb     0x1ab3b
   1ab37:	3c 57                	cmp    $0x57,%al
   1ab39:	76 41                	jbe    0x1ab7c
   1ab3b:	80 3e ff             	cmpb   $0xff,(%rsi)
   1ab3e:	75 46                	jne    0x1ab86
   1ab40:	8a 46 01             	mov    0x1(%rsi),%al
   1ab43:	24 38                	and    $0x38,%al
   1ab45:	3c 30                	cmp    $0x30,%al
   1ab47:	75 3d                	jne    0x1ab86
   1ab49:	eb 31                	jmp    0x1ab7c
   1ab4b:	83 f8 03             	cmp    $0x3,%eax
   1ab4e:	72 36                	jb     0x1ab86
   1ab50:	8a 06                	mov    (%rsi),%al
   1ab52:	24 48                	and    $0x48,%al
   1ab54:	3c 48                	cmp    $0x48,%al
   1ab56:	75 2e                	jne    0x1ab86
   1ab58:	0f b6 4e 01          	movzbl 0x1(%rsi),%ecx
   1ab5c:	81 e9 81 00 00 00    	sub    $0x81,%ecx
   1ab62:	74 0f                	je     0x1ab73
   1ab64:	83 e9 02             	sub    $0x2,%ecx
   1ab67:	74 0a                	je     0x1ab73
   1ab69:	83 e9 06             	sub    $0x6,%ecx
   1ab6c:	74 05                	je     0x1ab73
   1ab6e:	83 f9 02             	cmp    $0x2,%ecx
   1ab71:	75 13                	jne    0x1ab86
   1ab73:	8a 46 02             	mov    0x2(%rsi),%al
   1ab76:	24 c7                	and    $0xc7,%al
   1ab78:	3c 06                	cmp    $0x6,%al
   1ab7a:	74 0a                	je     0x1ab86
   1ab7c:	44 8b e2             	mov    %edx,%r12d
   1ab7f:	eb 05                	jmp    0x1ab86
   1ab81:	bb 0d 00 00 c0       	mov    $0xc000000d,%ebx
   1ab86:	85 db                	test   %ebx,%ebx
   1ab88:	0f 88 2c 01 00 00    	js     0x1acba
   1ab8e:	45 85 e4             	test   %r12d,%r12d
   1ab91:	0f 84 21 01 00 00    	je     0x1acb8
   1ab97:	41 03 eb             	add    %r11d,%ebp
   1ab9a:	83 fd 0c             	cmp    $0xc,%ebp
   1ab9d:	0f 8c 4d ff ff ff    	jl     0x1aaf0
   1aba3:	48 63 dd             	movslq %ebp,%rbx
   1aba6:	33 c9                	xor    %ecx,%ecx
   1aba8:	48 8d 53 29          	lea    0x29(%rbx),%rdx
   1abac:	ff 15 16 75 00 00    	callq  *0x7516(%rip)        # 0x220c8
   1abb2:	48 85 c0             	test   %rax,%rax
   1abb5:	48 8b f8             	mov    %rax,%rdi
   1abb8:	75 0a                	jne    0x1abc4
   1abba:	bb 9a 00 00 c0       	mov    $0xc000009a,%ebx
   1abbf:	e9 f8 00 00 00       	jmpq   0x1acbc
   1abc4:	4c 8d 43 29          	lea    0x29(%rbx),%r8
   1abc8:	33 d2                	xor    %edx,%edx
   1abca:	48 8b c8             	mov    %rax,%rcx
   1abcd:	e8 be 5c 00 00       	callq  0x20890
   1abd2:	48 8d 4f 21          	lea    0x21(%rdi),%rcx
   1abd6:	4c 8b c3             	mov    %rbx,%r8
   1abd9:	49 8b d6             	mov    %r14,%rdx
   1abdc:	e8 3f 59 00 00       	callq  0x20520
   1abe1:	48 8d 53 11          	lea    0x11(%rbx),%rdx
   1abe5:	33 c9                	xor    %ecx,%ecx
   1abe7:	89 6f 1d             	mov    %ebp,0x1d(%rdi)
   1abea:	4c 89 77 09          	mov    %r14,0x9(%rdi)
   1abee:	ff 15 d4 74 00 00    	callq  *0x74d4(%rip)        # 0x220c8
   1abf4:	48 85 c0             	test   %rax,%rax
   1abf7:	48 89 47 01          	mov    %rax,0x1(%rdi)
   1abfb:	74 bd                	je     0x1abba
   1abfd:	4c 8d 43 11          	lea    0x11(%rbx),%r8
   1ac01:	ba 90 00 00 00       	mov    $0x90,%edx
   1ac06:	48 8b c8             	mov    %rax,%rcx
   1ac09:	e8 82 5c 00 00       	callq  0x20890
   1ac0e:	48 8b 77 01          	mov    0x1(%rdi),%rsi
   1ac12:	8d 4d 29             	lea    0x29(%rbp),%ecx
   1ac15:	48 8d 45 0f          	lea    0xf(%rbp),%rax
   1ac19:	c6 44 24 50 48       	movb   $0x48,0x50(%rsp)
   1ac1e:	c6 44 24 51 ff       	movb   $0xff,0x51(%rsp)
   1ac23:	48 3b c8             	cmp    %rax,%rcx
   1ac26:	c6 44 24 52 25       	movb   $0x25,0x52(%rsp)
   1ac2b:	c6 44 24 53 00       	movb   $0x0,0x53(%rsp)
   1ac30:	c6 44 24 54 00       	movb   $0x0,0x54(%rsp)
   1ac35:	c6 44 24 55 00       	movb   $0x0,0x55(%rsp)
   1ac3a:	c6 44 24 56 00       	movb   $0x0,0x56(%rsp)
   1ac3f:	8b dd                	mov    %ebp,%ebx
   1ac41:	73 07                	jae    0x1ac4a
   1ac43:	bb 0d 00 00 c0       	mov    $0xc000000d,%ebx
   1ac48:	eb 72                	jmp    0x1acbc
   1ac4a:	4c 8b c3             	mov    %rbx,%r8
   1ac4d:	49 8b d6             	mov    %r14,%rdx
   1ac50:	48 8b ce             	mov    %rsi,%rcx
   1ac53:	e8 c8 58 00 00       	callq  0x20520
   1ac58:	48 8d 57 11          	lea    0x11(%rdi),%rdx
   1ac5c:	48 8d 4c 24 50       	lea    0x50(%rsp),%rcx
   1ac61:	8b 01                	mov    (%rcx),%eax
   1ac63:	41 b8 0c 00 00 00    	mov    $0xc,%r8d
   1ac69:	89 44 35 00          	mov    %eax,0x0(%rbp,%rsi,1)
   1ac6d:	0f b7 41 04          	movzwl 0x4(%rcx),%eax
   1ac71:	66 89 44 35 04       	mov    %ax,0x4(%rbp,%rsi,1)
   1ac76:	8a 41 06             	mov    0x6(%rcx),%al
   1ac79:	49 8b ce             	mov    %r14,%rcx
   1ac7c:	88 44 35 06          	mov    %al,0x6(%rbp,%rsi,1)
   1ac80:	4a 8d 44 35 00       	lea    0x0(%rbp,%r14,1),%rax
   1ac85:	48 89 44 35 07       	mov    %rax,0x7(%rbp,%rsi,1)
   1ac8a:	c6 02 48             	movb   $0x48,(%rdx)
   1ac8d:	c6 42 01 b8          	movb   $0xb8,0x1(%rdx)
   1ac91:	4c 89 7a 02          	mov    %r15,0x2(%rdx)
   1ac95:	c6 42 0a ff          	movb   $0xff,0xa(%rdx)
   1ac99:	c6 42 0b e0          	movb   $0xe0,0xb(%rdx)
   1ac9d:	e8 9a bc ff ff       	callq  0x1693c
   1aca2:	85 c0                	test   %eax,%eax
   1aca4:	8b d8                	mov    %eax,%ebx
   1aca6:	78 10                	js     0x1acb8
   1aca8:	c6 07 01             	movb   $0x1,(%rdi)
   1acab:	33 db                	xor    %ebx,%ebx
   1acad:	49 89 7d 00          	mov    %rdi,0x0(%r13)
   1acb1:	eb 2f                	jmp    0x1ace2
   1acb3:	bb 0d 00 00 c0       	mov    $0xc000000d,%ebx
   1acb8:	85 db                	test   %ebx,%ebx
   1acba:	74 26                	je     0x1ace2
   1acbc:	48 85 ff             	test   %rdi,%rdi
   1acbf:	74 21                	je     0x1ace2
   1acc1:	48 8b 4f 01          	mov    0x1(%rdi),%rcx
   1acc5:	48 85 c9             	test   %rcx,%rcx
   1acc8:	74 0d                	je     0x1acd7
   1acca:	33 d2                	xor    %edx,%edx
   1accc:	ff 15 36 73 00 00    	callq  *0x7336(%rip)        # 0x22008
   1acd2:	48 83 67 01 00       	andq   $0x0,0x1(%rdi)
   1acd7:	33 d2                	xor    %edx,%edx
   1acd9:	48 8b cf             	mov    %rdi,%rcx
   1acdc:	ff 15 26 73 00 00    	callq  *0x7326(%rip)        # 0x22008
   1ace2:	48 8b 6c 24 60       	mov    0x60(%rsp),%rbp
   1ace7:	48 8b 74 24 68       	mov    0x68(%rsp),%rsi
   1acec:	8b c3                	mov    %ebx,%eax
   1acee:	48 8b 5c 24 58       	mov    0x58(%rsp),%rbx
   1acf3:	48 83 c4 20          	add    $0x20,%rsp
   1acf7:	41 5f                	pop    %r15
   1acf9:	41 5e                	pop    %r14
   1acfb:	41 5d                	pop    %r13
   1acfd:	41 5c                	pop    %r12
   1acff:	5f                   	pop    %rdi
   1ad00:	c3                   	retq   
   1ad01:	cc                   	int3   
   1ad02:	cc                   	int3   
   1ad03:	cc                   	int3   
   1ad04:	cc                   	int3   
   1ad05:	cc                   	int3   
   1ad06:	cc                   	int3   
   1ad07:	cc                   	int3   
   1ad08:	48 8b c4             	mov    %rsp,%rax
   1ad0b:	48 89 58 10          	mov    %rbx,0x10(%rax)
   1ad0f:	48 89 68 18          	mov    %rbp,0x18(%rax)
   1ad13:	48 89 70 20          	mov    %rsi,0x20(%rax)
   1ad17:	57                   	push   %rdi
   1ad18:	41 54                	push   %r12
   1ad1a:	41 55                	push   %r13
   1ad1c:	41 56                	push   %r14
   1ad1e:	41 57                	push   %r15
   1ad20:	48 83 ec 30          	sub    $0x30,%rsp
   1ad24:	c6 40 c8 90          	movb   $0x90,-0x38(%rax)
   1ad28:	33 c0                	xor    %eax,%eax
   1ad2a:	48 85 c9             	test   %rcx,%rcx
   1ad2d:	4d 8b f1             	mov    %r9,%r14
   1ad30:	49 8b d8             	mov    %r8,%rbx
   1ad33:	4c 8b fa             	mov    %rdx,%r15
   1ad36:	48 89 44 24 21       	mov    %rax,0x21(%rsp)
   1ad3b:	66 89 44 24 29       	mov    %ax,0x29(%rsp)
   1ad40:	88 44 24 2b          	mov    %al,0x2b(%rsp)
   1ad44:	4c 8b e1             	mov    %rcx,%r12
   1ad47:	bf 01 00 00 c0       	mov    $0xc0000001,%edi
   1ad4c:	0f 84 46 01 00 00    	je     0x1ae98
   1ad52:	48 85 d2             	test   %rdx,%rdx
   1ad55:	0f 84 3d 01 00 00    	je     0x1ae98
   1ad5b:	48 85 db             	test   %rbx,%rbx
   1ad5e:	0f 84 34 01 00 00    	je     0x1ae98
   1ad64:	4d 85 c9             	test   %r9,%r9
   1ad67:	0f 84 2b 01 00 00    	je     0x1ae98
   1ad6d:	44 8b ac 24 80 00 00 	mov    0x80(%rsp),%r13d
   1ad74:	00 
   1ad75:	45 85 ed             	test   %r13d,%r13d
   1ad78:	0f 84 1a 01 00 00    	je     0x1ae98
   1ad7e:	48 8b ac 24 88 00 00 	mov    0x88(%rsp),%rbp
   1ad85:	00 
   1ad86:	48 85 ed             	test   %rbp,%rbp
   1ad89:	0f 84 09 01 00 00    	je     0x1ae98
   1ad8f:	48 21 45 00          	and    %rax,0x0(%rbp)
   1ad93:	48 8b f1             	mov    %rcx,%rsi
   1ad96:	e8 cd 30 00 00       	callq  0x1de68
   1ad9b:	85 c0                	test   %eax,%eax
   1ad9d:	44 8b d8             	mov    %eax,%r11d
   1ada0:	0f 84 eb 00 00 00    	je     0x1ae91
   1ada6:	80 3e c3             	cmpb   $0xc3,(%rsi)
   1ada9:	0f 84 e2 00 00 00    	je     0x1ae91
   1adaf:	80 3e e8             	cmpb   $0xe8,(%rsi)
   1adb2:	75 0e                	jne    0x1adc2
   1adb4:	48 63 46 01          	movslq 0x1(%rsi),%rax
   1adb8:	48 8d 4c 30 05       	lea    0x5(%rax,%rsi,1),%rcx
   1adbd:	48 3b d9             	cmp    %rcx,%rbx
   1adc0:	74 0b                	je     0x1adcd
   1adc2:	41 8b c3             	mov    %r11d,%eax
   1adc5:	48 03 f0             	add    %rax,%rsi
   1adc8:	48 8b ce             	mov    %rsi,%rcx
   1adcb:	eb c9                	jmp    0x1ad96
   1adcd:	bf 31 00 00 00       	mov    $0x31,%edi
   1add2:	33 c9                	xor    %ecx,%ecx
   1add4:	48 8b d7             	mov    %rdi,%rdx
   1add7:	ff 15 eb 72 00 00    	callq  *0x72eb(%rip)        # 0x220c8
   1addd:	48 85 c0             	test   %rax,%rax
   1ade0:	48 8b d8             	mov    %rax,%rbx
   1ade3:	75 0a                	jne    0x1adef
   1ade5:	bf 9a 00 00 c0       	mov    $0xc000009a,%edi
   1adea:	e9 c7 00 00 00       	jmpq   0x1aeb6
   1adef:	4c 8b c7             	mov    %rdi,%r8
   1adf2:	33 d2                	xor    %edx,%edx
   1adf4:	48 8b c8             	mov    %rax,%rcx
   1adf7:	e8 94 5a 00 00       	callq  0x20890
   1adfc:	4c 89 63 01          	mov    %r12,0x1(%rbx)
   1ae00:	48 89 73 09          	mov    %rsi,0x9(%rbx)
   1ae04:	48 63 46 01          	movslq 0x1(%rsi),%rax
   1ae08:	48 8d 54 24 20       	lea    0x20(%rsp),%rdx
   1ae0d:	41 b8 0c 00 00 00    	mov    $0xc,%r8d
   1ae13:	48 8d 4c 30 05       	lea    0x5(%rax,%rsi,1),%rcx
   1ae18:	89 43 11             	mov    %eax,0x11(%rbx)
   1ae1b:	c6 44 24 20 48       	movb   $0x48,0x20(%rsp)
   1ae20:	48 89 4b 15          	mov    %rcx,0x15(%rbx)
   1ae24:	41 8d 4d f4          	lea    -0xc(%r13),%ecx
   1ae28:	c6 44 24 21 b8       	movb   $0xb8,0x21(%rsp)
   1ae2d:	49 03 ce             	add    %r14,%rcx
   1ae30:	4c 89 7c 24 22       	mov    %r15,0x22(%rsp)
   1ae35:	c6 44 24 2a ff       	movb   $0xff,0x2a(%rsp)
   1ae3a:	48 89 4b 1d          	mov    %rcx,0x1d(%rbx)
   1ae3e:	48 8b 01             	mov    (%rcx),%rax
   1ae41:	c6 44 24 2b e0       	movb   $0xe0,0x2b(%rsp)
   1ae46:	48 89 43 25          	mov    %rax,0x25(%rbx)
   1ae4a:	8b 41 08             	mov    0x8(%rcx),%eax
   1ae4d:	89 43 2d             	mov    %eax,0x2d(%rbx)
   1ae50:	e8 e7 ba ff ff       	callq  0x1693c
   1ae55:	85 c0                	test   %eax,%eax
   1ae57:	8b f8                	mov    %eax,%edi
   1ae59:	78 47                	js     0x1aea2
   1ae5b:	8b 43 1d             	mov    0x1d(%rbx),%eax
   1ae5e:	48 8b 4b 09          	mov    0x9(%rbx),%rcx
   1ae62:	48 8d 54 24 60       	lea    0x60(%rsp),%rdx
   1ae67:	2b 43 09             	sub    0x9(%rbx),%eax
   1ae6a:	48 83 c1 01          	add    $0x1,%rcx
   1ae6e:	41 b8 04 00 00 00    	mov    $0x4,%r8d
   1ae74:	83 e8 05             	sub    $0x5,%eax
   1ae77:	89 44 24 60          	mov    %eax,0x60(%rsp)
   1ae7b:	e8 bc ba ff ff       	callq  0x1693c
   1ae80:	85 c0                	test   %eax,%eax
   1ae82:	8b f8                	mov    %eax,%edi
   1ae84:	78 1c                	js     0x1aea2
   1ae86:	c6 03 01             	movb   $0x1,(%rbx)
   1ae89:	33 ff                	xor    %edi,%edi
   1ae8b:	48 89 5d 00          	mov    %rbx,0x0(%rbp)
   1ae8f:	eb 25                	jmp    0x1aeb6
   1ae91:	48 8b 5c 24 60       	mov    0x60(%rsp),%rbx
   1ae96:	eb 0e                	jmp    0x1aea6
   1ae98:	48 8b 5c 24 60       	mov    0x60(%rsp),%rbx
   1ae9d:	bf 0d 00 00 c0       	mov    $0xc000000d,%edi
   1aea2:	85 ff                	test   %edi,%edi
   1aea4:	74 10                	je     0x1aeb6
   1aea6:	48 85 db             	test   %rbx,%rbx
   1aea9:	74 0b                	je     0x1aeb6
   1aeab:	33 d2                	xor    %edx,%edx
   1aead:	48 8b cb             	mov    %rbx,%rcx
   1aeb0:	ff 15 52 71 00 00    	callq  *0x7152(%rip)        # 0x22008
   1aeb6:	48 8b 5c 24 68       	mov    0x68(%rsp),%rbx
   1aebb:	48 8b 6c 24 70       	mov    0x70(%rsp),%rbp
   1aec0:	48 8b 74 24 78       	mov    0x78(%rsp),%rsi
   1aec5:	8b c7                	mov    %edi,%eax
   1aec7:	48 83 c4 30          	add    $0x30,%rsp
   1aecb:	41 5f                	pop    %r15
   1aecd:	41 5e                	pop    %r14
   1aecf:	41 5d                	pop    %r13
   1aed1:	41 5c                	pop    %r12
   1aed3:	5f                   	pop    %rdi
   1aed4:	c3                   	retq   
   1aed5:	cc                   	int3   
   1aed6:	cc                   	int3   
   1aed7:	cc                   	int3   
   1aed8:	cc                   	int3   
   1aed9:	cc                   	int3   
   1aeda:	cc                   	int3   
   1aedb:	cc                   	int3   
   1aedc:	48 89 5c 24 10       	mov    %rbx,0x10(%rsp)
   1aee1:	48 89 74 24 18       	mov    %rsi,0x18(%rsp)
   1aee6:	57                   	push   %rdi
   1aee7:	48 83 ec 20          	sub    $0x20,%rsp
   1aeeb:	48 85 c9             	test   %rcx,%rcx
   1aeee:	49 8b d8             	mov    %r8,%rbx
   1aef1:	48 8b f2             	mov    %rdx,%rsi
   1aef4:	48 8b f9             	mov    %rcx,%rdi
   1aef7:	74 67                	je     0x1af60
   1aef9:	48 85 d2             	test   %rdx,%rdx
   1aefc:	74 62                	je     0x1af60
   1aefe:	48 85 db             	test   %rbx,%rbx
   1af01:	74 5d                	je     0x1af60
   1af03:	49 83 20 00          	andq   $0x0,(%r8)
   1af07:	48 8d 4c 24 30       	lea    0x30(%rsp),%rcx
   1af0c:	e8 f3 0d 00 00       	callq  0x1bd04
   1af11:	85 c0                	test   %eax,%eax
   1af13:	78 50                	js     0x1af65
   1af15:	83 7c 24 30 00       	cmpl   $0x0,0x30(%rsp)
   1af1a:	74 18                	je     0x1af34
   1af1c:	4c 8d 0d 19 ba ff ff 	lea    -0x45e7(%rip),%r9        # 0x1693c
   1af23:	41 b0 cc             	mov    $0xcc,%r8b
   1af26:	b2 90                	mov    $0x90,%dl
   1af28:	48 8b cf             	mov    %rdi,%rcx
   1af2b:	e8 50 0f 00 00       	callq  0x1be80
   1af30:	85 c0                	test   %eax,%eax
   1af32:	78 31                	js     0x1af65
   1af34:	4c 8b c3             	mov    %rbx,%r8
   1af37:	48 8b d6             	mov    %rsi,%rdx
   1af3a:	48 8b cf             	mov    %rdi,%rcx
   1af3d:	e8 5e fb ff ff       	callq  0x1aaa0
   1af42:	85 c0                	test   %eax,%eax
   1af44:	8b d8                	mov    %eax,%ebx
   1af46:	79 14                	jns    0x1af5c
   1af48:	4c 8d 0d ed b9 ff ff 	lea    -0x4613(%rip),%r9        # 0x1693c
   1af4f:	41 b0 90             	mov    $0x90,%r8b
   1af52:	b2 cc                	mov    $0xcc,%dl
   1af54:	48 8b cf             	mov    %rdi,%rcx
   1af57:	e8 24 0f 00 00       	callq  0x1be80
   1af5c:	8b c3                	mov    %ebx,%eax
   1af5e:	eb 05                	jmp    0x1af65
   1af60:	b8 0d 00 00 c0       	mov    $0xc000000d,%eax
   1af65:	48 8b 5c 24 38       	mov    0x38(%rsp),%rbx
   1af6a:	48 8b 74 24 40       	mov    0x40(%rsp),%rsi
   1af6f:	48 83 c4 20          	add    $0x20,%rsp
   1af73:	5f                   	pop    %rdi
   1af74:	c3                   	retq   
   1af75:	cc                   	int3   
   1af76:	cc                   	int3   
   1af77:	cc                   	int3   
   1af78:	cc                   	int3   
   1af79:	cc                   	int3   
   1af7a:	cc                   	int3   
   1af7b:	cc                   	int3   
   1af7c:	48 8b c4             	mov    %rsp,%rax
   1af7f:	48 89 58 18          	mov    %rbx,0x18(%rax)
   1af83:	4c 89 48 20          	mov    %r9,0x20(%rax)
   1af87:	48 89 50 10          	mov    %rdx,0x10(%rax)
   1af8b:	48 89 48 08          	mov    %rcx,0x8(%rax)
   1af8f:	55                   	push   %rbp
   1af90:	56                   	push   %rsi
   1af91:	57                   	push   %rdi
   1af92:	41 54                	push   %r12
   1af94:	41 55                	push   %r13
   1af96:	41 56                	push   %r14
   1af98:	41 57                	push   %r15
   1af9a:	48 81 ec a0 00 00 00 	sub    $0xa0,%rsp
   1afa1:	45 33 f6             	xor    %r14d,%r14d
   1afa4:	48 8b f9             	mov    %rcx,%rdi
   1afa7:	4c 8b e2             	mov    %rdx,%r12
   1afaa:	48 8d 48 89          	lea    -0x77(%rax),%rcx
   1afae:	45 8d 46 3f          	lea    0x3f(%r14),%r8d
   1afb2:	33 d2                	xor    %edx,%edx
   1afb4:	49 8b d9             	mov    %r9,%rbx
   1afb7:	44 88 70 88          	mov    %r14b,-0x78(%rax)
   1afbb:	e8 d0 58 00 00       	callq  0x20890
   1afc0:	49 3b fe             	cmp    %r14,%rdi
   1afc3:	41 8b f6             	mov    %r14d,%esi
   1afc6:	49 8b ee             	mov    %r14,%rbp
   1afc9:	45 8b fe             	mov    %r14d,%r15d
   1afcc:	c6 44 24 30 e0       	movb   $0xe0,0x30(%rsp)
   1afd1:	c6 44 24 31 d4       	movb   $0xd4,0x31(%rsp)
   1afd6:	c6 44 24 32 e6       	movb   $0xe6,0x32(%rsp)
   1afdb:	c6 44 24 33 da       	movb   $0xda,0x33(%rsp)
   1afe0:	c6 44 24 34 ae       	movb   $0xae,0x34(%rsp)
   1afe5:	44 88 74 24 35       	mov    %r14b,0x35(%rsp)
   1afea:	44 89 74 24 3c       	mov    %r14d,0x3c(%rsp)
   1afef:	44 89 74 24 38       	mov    %r14d,0x38(%rsp)
   1aff4:	0f 84 b2 02 00 00    	je     0x1b2ac
   1affa:	4d 3b e6             	cmp    %r14,%r12
   1affd:	0f 84 a9 02 00 00    	je     0x1b2ac
   1b003:	49 3b de             	cmp    %r14,%rbx
   1b006:	0f 84 a0 02 00 00    	je     0x1b2ac
   1b00c:	45 8d 46 40          	lea    0x40(%r14),%r8d
   1b010:	48 8d 54 24 60       	lea    0x60(%rsp),%rdx
   1b015:	45 33 c9             	xor    %r9d,%r9d
   1b018:	33 c9                	xor    %ecx,%ecx
   1b01a:	4c 89 33             	mov    %r14,(%rbx)
   1b01d:	ff 15 75 70 00 00    	callq  *0x7075(%rip)        # 0x22098
   1b023:	41 3b c6             	cmp    %r14d,%eax
   1b026:	8b d8                	mov    %eax,%ebx
   1b028:	0f 8c bb 00 00 00    	jl     0x1b0e9
   1b02e:	8b 54 24 68          	mov    0x68(%rsp),%edx
   1b032:	4c 8d 4c 24 50       	lea    0x50(%rsp),%r9
   1b037:	4c 8d 44 24 48       	lea    0x48(%rsp),%r8
   1b03c:	48 8b cf             	mov    %rdi,%rcx
   1b03f:	e8 fc 1d 00 00       	callq  0x1ce40
   1b044:	48 8b 4c 24 48       	mov    0x48(%rsp),%rcx
   1b049:	ba 34 b4 3e aa       	mov    $0xaa3eb434,%edx
   1b04e:	e8 09 1e 00 00       	callq  0x1ce5c
   1b053:	49 3b c6             	cmp    %r14,%rax
   1b056:	48 89 44 24 58       	mov    %rax,0x58(%rsp)
   1b05b:	0f 84 83 00 00 00    	je     0x1b0e4
   1b061:	48 8b 4c 24 48       	mov    0x48(%rsp),%rcx
   1b066:	83 ca ff             	or     $0xffffffff,%edx
   1b069:	e8 3a 16 00 00       	callq  0x1c6a8
   1b06e:	49 3b c6             	cmp    %r14,%rax
   1b071:	48 8b d8             	mov    %rax,%rbx
   1b074:	74 6e                	je     0x1b0e4
   1b076:	66 44 39 73 06       	cmp    %r14w,0x6(%rbx)
   1b07b:	0f b7 40 14          	movzwl 0x14(%rax),%eax
   1b07f:	41 8b fe             	mov    %r14d,%edi
   1b082:	4c 8d 6c 18 18       	lea    0x18(%rax,%rbx,1),%r13
   1b087:	76 5b                	jbe    0x1b0e4
   1b089:	8b c7                	mov    %edi,%eax
   1b08b:	48 8d 0c 80          	lea    (%rax,%rax,4),%rcx
   1b08f:	4d 8d 64 cd 00       	lea    0x0(%r13,%rcx,8),%r12
   1b094:	49 8b cc             	mov    %r12,%rcx
   1b097:	e8 d4 17 00 00       	callq  0x1c870
   1b09c:	41 3a c6             	cmp    %r14b,%al
   1b09f:	74 38                	je     0x1b0d9
   1b0a1:	48 8d 54 24 30       	lea    0x30(%rsp),%rdx
   1b0a6:	b9 80 b7 5d 01       	mov    $0x15db780,%ecx
   1b0ab:	e8 50 0f 00 00       	callq  0x1c000
   1b0b0:	48 8d 54 24 30       	lea    0x30(%rsp),%rdx
   1b0b5:	41 b8 05 00 00 00    	mov    $0x5,%r8d
   1b0bb:	49 8b cc             	mov    %r12,%rcx
   1b0be:	ff 15 1c 71 00 00    	callq  *0x711c(%rip)        # 0x221e0
   1b0c4:	48 8d 54 24 30       	lea    0x30(%rsp),%rdx
   1b0c9:	b9 80 b7 5d 01       	mov    $0x15db780,%ecx
   1b0ce:	48 83 f8 05          	cmp    $0x5,%rax
   1b0d2:	74 1c                	je     0x1b0f0
   1b0d4:	e8 27 0f 00 00       	callq  0x1c000
   1b0d9:	0f b7 43 06          	movzwl 0x6(%rbx),%eax
   1b0dd:	83 c7 01             	add    $0x1,%edi
   1b0e0:	3b f8                	cmp    %eax,%edi
   1b0e2:	72 a5                	jb     0x1b089
   1b0e4:	bb 01 00 00 c0       	mov    $0xc0000001,%ebx
   1b0e9:	8b c3                	mov    %ebx,%eax
   1b0eb:	e9 c1 01 00 00       	jmpq   0x1b2b1
   1b0f0:	e8 0b 0f 00 00       	callq  0x1c000
   1b0f5:	44 8b df             	mov    %edi,%r11d
   1b0f8:	4b 8d 04 9b          	lea    (%r11,%r11,4),%rax
   1b0fc:	45 8b 74 c5 0c       	mov    0xc(%r13,%rax,8),%r14d
   1b101:	41 8b 4c c5 10       	mov    0x10(%r13,%rax,8),%ecx
   1b106:	4c 03 74 24 48       	add    0x48(%rsp),%r14
   1b10b:	74 d7                	je     0x1b0e4
   1b10d:	44 8d 69 f4          	lea    -0xc(%rcx),%r13d
   1b111:	33 ff                	xor    %edi,%edi
   1b113:	45 85 ed             	test   %r13d,%r13d
   1b116:	0f 84 3a 01 00 00    	je     0x1b256
   1b11c:	49 8b de             	mov    %r14,%rbx
   1b11f:	44 8b e7             	mov    %edi,%r12d
   1b122:	4d 03 e6             	add    %r14,%r12
   1b125:	49 8b cc             	mov    %r12,%rcx
   1b128:	ff 15 f2 6f 00 00    	callq  *0x6ff2(%rip)        # 0x22120
   1b12e:	84 c0                	test   %al,%al
   1b130:	74 2f                	je     0x1b161
   1b132:	45 85 ff             	test   %r15d,%r15d
   1b135:	75 0d                	jne    0x1b144
   1b137:	80 3b c3             	cmpb   $0xc3,(%rbx)
   1b13a:	75 25                	jne    0x1b161
   1b13c:	41 bf 01 00 00 00    	mov    $0x1,%r15d
   1b142:	eb 1d                	jmp    0x1b161
   1b144:	80 3b 90             	cmpb   $0x90,(%rbx)
   1b147:	74 09                	je     0x1b152
   1b149:	45 33 ff             	xor    %r15d,%r15d
   1b14c:	33 f6                	xor    %esi,%esi
   1b14e:	33 ed                	xor    %ebp,%ebp
   1b150:	eb 0f                	jmp    0x1b161
   1b152:	48 85 ed             	test   %rbp,%rbp
   1b155:	49 0f 44 ec          	cmove  %r12,%rbp
   1b159:	83 c6 01             	add    $0x1,%esi
   1b15c:	83 fe 0c             	cmp    $0xc,%esi
   1b15f:	74 15                	je     0x1b176
   1b161:	83 c7 01             	add    $0x1,%edi
   1b164:	48 83 c3 01          	add    $0x1,%rbx
   1b168:	41 3b fd             	cmp    %r13d,%edi
   1b16b:	72 b2                	jb     0x1b11f
   1b16d:	83 fe 0c             	cmp    $0xc,%esi
   1b170:	0f 85 e0 00 00 00    	jne    0x1b256
   1b176:	48 85 ed             	test   %rbp,%rbp
   1b179:	0f 84 d7 00 00 00    	je     0x1b256
   1b17f:	8b ce                	mov    %esi,%ecx
   1b181:	48 63 de             	movslq %esi,%rbx
   1b184:	48 03 cd             	add    %rbp,%rcx
   1b187:	ff 15 93 6f 00 00    	callq  *0x6f93(%rip)        # 0x22120
   1b18d:	84 c0                	test   %al,%al
   1b18f:	0f 84 4f ff ff ff    	je     0x1b0e4
   1b195:	48 03 dd             	add    %rbp,%rbx
   1b198:	80 3b 90             	cmpb   $0x90,(%rbx)
   1b19b:	75 1b                	jne    0x1b1b8
   1b19d:	83 c6 01             	add    $0x1,%esi
   1b1a0:	48 83 c3 01          	add    $0x1,%rbx
   1b1a4:	8b ce                	mov    %esi,%ecx
   1b1a6:	48 03 cd             	add    %rbp,%rcx
   1b1a9:	ff 15 71 6f 00 00    	callq  *0x6f71(%rip)        # 0x22120
   1b1af:	84 c0                	test   %al,%al
   1b1b1:	75 e5                	jne    0x1b198
   1b1b3:	e9 2c ff ff ff       	jmpq   0x1b0e4
   1b1b8:	48 8d 4c 24 40       	lea    0x40(%rsp),%rcx
   1b1bd:	e8 42 0b 00 00       	callq  0x1bd04
   1b1c2:	85 c0                	test   %eax,%eax
   1b1c4:	8b d8                	mov    %eax,%ebx
   1b1c6:	0f 88 1d ff ff ff    	js     0x1b0e9
   1b1cc:	83 7c 24 40 00       	cmpl   $0x0,0x40(%rsp)
   1b1d1:	48 8b bc 24 e0 00 00 	mov    0xe0(%rsp),%rdi
   1b1d8:	00 
   1b1d9:	74 4a                	je     0x1b225
   1b1db:	4c 8d 0d 5a b7 ff ff 	lea    -0x48a6(%rip),%r9        # 0x1693c
   1b1e2:	41 b0 cc             	mov    $0xcc,%r8b
   1b1e5:	b2 90                	mov    $0x90,%dl
   1b1e7:	48 8b cf             	mov    %rdi,%rcx
   1b1ea:	e8 91 0c 00 00       	callq  0x1be80
   1b1ef:	85 c0                	test   %eax,%eax
   1b1f1:	8b d8                	mov    %eax,%ebx
   1b1f3:	0f 88 f0 fe ff ff    	js     0x1b0e9
   1b1f9:	8b ce                	mov    %esi,%ecx
   1b1fb:	4c 8d 0d 3a b7 ff ff 	lea    -0x48c6(%rip),%r9        # 0x1693c
   1b202:	41 b0 cc             	mov    $0xcc,%r8b
   1b205:	b2 90                	mov    $0x90,%dl
   1b207:	48 03 cd             	add    %rbp,%rcx
   1b20a:	c7 44 24 3c 01 00 00 	movl   $0x1,0x3c(%rsp)
   1b211:	00 
   1b212:	e8 69 0c 00 00       	callq  0x1be80
   1b217:	85 c0                	test   %eax,%eax
   1b219:	8b d8                	mov    %eax,%ebx
   1b21b:	78 55                	js     0x1b272
   1b21d:	c7 44 24 38 01 00 00 	movl   $0x1,0x38(%rsp)
   1b224:	00 
   1b225:	48 8b 84 24 f8 00 00 	mov    0xf8(%rsp),%rax
   1b22c:	00 
   1b22d:	4c 8b 44 24 58       	mov    0x58(%rsp),%r8
   1b232:	48 8b 94 24 e8 00 00 	mov    0xe8(%rsp),%rdx
   1b239:	00 
   1b23a:	48 89 44 24 28       	mov    %rax,0x28(%rsp)
   1b23f:	4c 8b cd             	mov    %rbp,%r9
   1b242:	48 8b cf             	mov    %rdi,%rcx
   1b245:	89 74 24 20          	mov    %esi,0x20(%rsp)
   1b249:	e8 ba fa ff ff       	callq  0x1ad08
   1b24e:	85 c0                	test   %eax,%eax
   1b250:	8b d8                	mov    %eax,%ebx
   1b252:	78 17                	js     0x1b26b
   1b254:	eb 0d                	jmp    0x1b263
   1b256:	48 8b bc 24 e0 00 00 	mov    0xe0(%rsp),%rdi
   1b25d:	00 
   1b25e:	bb 01 00 00 c0       	mov    $0xc0000001,%ebx
   1b263:	85 db                	test   %ebx,%ebx
   1b265:	0f 89 7e fe ff ff    	jns    0x1b0e9
   1b26b:	83 7c 24 3c 00       	cmpl   $0x0,0x3c(%rsp)
   1b270:	74 14                	je     0x1b286
   1b272:	4c 8d 0d c3 b6 ff ff 	lea    -0x493d(%rip),%r9        # 0x1693c
   1b279:	41 b0 90             	mov    $0x90,%r8b
   1b27c:	b2 cc                	mov    $0xcc,%dl
   1b27e:	48 8b cf             	mov    %rdi,%rcx
   1b281:	e8 fa 0b 00 00       	callq  0x1be80
   1b286:	83 7c 24 38 00       	cmpl   $0x0,0x38(%rsp)
   1b28b:	0f 84 58 fe ff ff    	je     0x1b0e9
   1b291:	8b ce                	mov    %esi,%ecx
   1b293:	4c 8d 0d a2 b6 ff ff 	lea    -0x495e(%rip),%r9        # 0x1693c
   1b29a:	41 b0 90             	mov    $0x90,%r8b
   1b29d:	48 03 cd             	add    %rbp,%rcx
   1b2a0:	b2 cc                	mov    $0xcc,%dl
   1b2a2:	e8 d9 0b 00 00       	callq  0x1be80
   1b2a7:	e9 3d fe ff ff       	jmpq   0x1b0e9
   1b2ac:	b8 0d 00 00 c0       	mov    $0xc000000d,%eax
   1b2b1:	48 8b 9c 24 f0 00 00 	mov    0xf0(%rsp),%rbx
   1b2b8:	00 
   1b2b9:	48 81 c4 a0 00 00 00 	add    $0xa0,%rsp
   1b2c0:	41 5f                	pop    %r15
   1b2c2:	41 5e                	pop    %r14
   1b2c4:	41 5d                	pop    %r13
   1b2c6:	41 5c                	pop    %r12
   1b2c8:	5f                   	pop    %rdi
   1b2c9:	5e                   	pop    %rsi
   1b2ca:	5d                   	pop    %rbp
   1b2cb:	c3                   	retq   
   1b2cc:	cc                   	int3   
   1b2cd:	cc                   	int3   
   1b2ce:	cc                   	int3   
   1b2cf:	cc                   	int3   
   1b2d0:	cc                   	int3   
   1b2d1:	cc                   	int3   
   1b2d2:	cc                   	int3   
   1b2d3:	cc                   	int3   
   1b2d4:	48 89 5c 24 10       	mov    %rbx,0x10(%rsp)
   1b2d9:	57                   	push   %rdi
   1b2da:	48 83 ec 20          	sub    $0x20,%rsp
   1b2de:	48 85 c9             	test   %rcx,%rcx
   1b2e1:	48 8b d9             	mov    %rcx,%rbx
   1b2e4:	bf 01 00 00 c0       	mov    $0xc0000001,%edi
   1b2e9:	74 70                	je     0x1b35b
   1b2eb:	80 39 00             	cmpb   $0x0,(%rcx)
   1b2ee:	74 6b                	je     0x1b35b
   1b2f0:	48 8b 49 09          	mov    0x9(%rcx),%rcx
   1b2f4:	48 85 c9             	test   %rcx,%rcx
   1b2f7:	74 62                	je     0x1b35b
   1b2f9:	4c 8b 01             	mov    (%rcx),%r8
   1b2fc:	4c 3b 43 11          	cmp    0x11(%rbx),%r8
   1b300:	75 0e                	jne    0x1b310
   1b302:	44 8b 41 08          	mov    0x8(%rcx),%r8d
   1b306:	44 3b 43 19          	cmp    0x19(%rbx),%r8d
   1b30a:	75 04                	jne    0x1b310
   1b30c:	33 c0                	xor    %eax,%eax
   1b30e:	eb 05                	jmp    0x1b315
   1b310:	1b c0                	sbb    %eax,%eax
   1b312:	83 d8 ff             	sbb    $0xffffffff,%eax
   1b315:	85 c0                	test   %eax,%eax
   1b317:	75 42                	jne    0x1b35b
   1b319:	44 8b 43 1d          	mov    0x1d(%rbx),%r8d
   1b31d:	48 8d 53 21          	lea    0x21(%rbx),%rdx
   1b321:	e8 16 b6 ff ff       	callq  0x1693c
   1b326:	85 c0                	test   %eax,%eax
   1b328:	8b f8                	mov    %eax,%edi
   1b32a:	78 2f                	js     0x1b35b
   1b32c:	48 8d 4c 24 30       	lea    0x30(%rsp),%rcx
   1b331:	c6 03 00             	movb   $0x0,(%rbx)
   1b334:	e8 cb 09 00 00       	callq  0x1bd04
   1b339:	85 c0                	test   %eax,%eax
   1b33b:	78 1e                	js     0x1b35b
   1b33d:	83 7c 24 30 00       	cmpl   $0x0,0x30(%rsp)
   1b342:	74 15                	je     0x1b359
   1b344:	48 8b 4b 09          	mov    0x9(%rbx),%rcx
   1b348:	4c 8d 0d ed b5 ff ff 	lea    -0x4a13(%rip),%r9        # 0x1693c
   1b34f:	41 b0 90             	mov    $0x90,%r8b
   1b352:	b2 cc                	mov    $0xcc,%dl
   1b354:	e8 27 0b 00 00       	callq  0x1be80
   1b359:	33 ff                	xor    %edi,%edi
   1b35b:	8b c7                	mov    %edi,%eax
   1b35d:	48 8b 5c 24 38       	mov    0x38(%rsp),%rbx
   1b362:	48 83 c4 20          	add    $0x20,%rsp
   1b366:	5f                   	pop    %rdi
   1b367:	c3                   	retq   
   1b368:	cc                   	int3   
   1b369:	cc                   	int3   
   1b36a:	cc                   	int3   
   1b36b:	cc                   	int3   
   1b36c:	cc                   	int3   
   1b36d:	cc                   	int3   
   1b36e:	cc                   	int3   
   1b36f:	cc                   	int3   
   1b370:	48 89 5c 24 10       	mov    %rbx,0x10(%rsp)
   1b375:	57                   	push   %rdi
   1b376:	48 83 ec 20          	sub    $0x20,%rsp
   1b37a:	48 85 c9             	test   %rcx,%rcx
   1b37d:	48 8b d9             	mov    %rcx,%rbx
   1b380:	bf 01 00 00 c0       	mov    $0xc0000001,%edi
   1b385:	0f 84 ac 00 00 00    	je     0x1b437
   1b38b:	80 39 00             	cmpb   $0x0,(%rcx)
   1b38e:	0f 84 a3 00 00 00    	je     0x1b437
   1b394:	48 83 79 1d 00       	cmpq   $0x0,0x1d(%rcx)
   1b399:	0f 84 98 00 00 00    	je     0x1b437
   1b39f:	48 8b 49 09          	mov    0x9(%rcx),%rcx
   1b3a3:	48 85 c9             	test   %rcx,%rcx
   1b3a6:	0f 84 8b 00 00 00    	je     0x1b437
   1b3ac:	4c 8d 49 01          	lea    0x1(%rcx),%r9
   1b3b0:	49 63 01             	movslq (%r9),%rax
   1b3b3:	48 8d 4c 08 05       	lea    0x5(%rax,%rcx,1),%rcx
   1b3b8:	48 3b 4b 1d          	cmp    0x1d(%rbx),%rcx
   1b3bc:	75 79                	jne    0x1b437
   1b3be:	48 8d 53 11          	lea    0x11(%rbx),%rdx
   1b3c2:	41 b8 04 00 00 00    	mov    $0x4,%r8d
   1b3c8:	49 8b c9             	mov    %r9,%rcx
   1b3cb:	e8 6c b5 ff ff       	callq  0x1693c
   1b3d0:	85 c0                	test   %eax,%eax
   1b3d2:	8b f8                	mov    %eax,%edi
   1b3d4:	78 61                	js     0x1b437
   1b3d6:	48 8b 4b 1d          	mov    0x1d(%rbx),%rcx
   1b3da:	48 8d 53 25          	lea    0x25(%rbx),%rdx
   1b3de:	41 b8 0c 00 00 00    	mov    $0xc,%r8d
   1b3e4:	e8 53 b5 ff ff       	callq  0x1693c
   1b3e9:	85 c0                	test   %eax,%eax
   1b3eb:	8b f8                	mov    %eax,%edi
   1b3ed:	78 48                	js     0x1b437
   1b3ef:	48 8d 4c 24 30       	lea    0x30(%rsp),%rcx
   1b3f4:	c6 03 00             	movb   $0x0,(%rbx)
   1b3f7:	e8 08 09 00 00       	callq  0x1bd04
   1b3fc:	85 c0                	test   %eax,%eax
   1b3fe:	78 37                	js     0x1b437
   1b400:	83 7c 24 30 00       	cmpl   $0x0,0x30(%rsp)
   1b405:	74 2e                	je     0x1b435
   1b407:	48 8b 4b 01          	mov    0x1(%rbx),%rcx
   1b40b:	4c 8d 0d 2a b5 ff ff 	lea    -0x4ad6(%rip),%r9        # 0x1693c
   1b412:	41 b0 90             	mov    $0x90,%r8b
   1b415:	b2 cc                	mov    $0xcc,%dl
   1b417:	e8 64 0a 00 00       	callq  0x1be80
   1b41c:	48 8b 4b 1d          	mov    0x1d(%rbx),%rcx
   1b420:	4c 8d 0d 15 b5 ff ff 	lea    -0x4aeb(%rip),%r9        # 0x1693c
   1b427:	48 83 c1 0c          	add    $0xc,%rcx
   1b42b:	41 b0 90             	mov    $0x90,%r8b
   1b42e:	b2 cc                	mov    $0xcc,%dl
   1b430:	e8 4b 0a 00 00       	callq  0x1be80
   1b435:	33 ff                	xor    %edi,%edi
   1b437:	8b c7                	mov    %edi,%eax
   1b439:	48 8b 5c 24 38       	mov    0x38(%rsp),%rbx
   1b43e:	48 83 c4 20          	add    $0x20,%rsp
   1b442:	5f                   	pop    %rdi
   1b443:	c3                   	retq   
   1b444:	cc                   	int3   
   1b445:	cc                   	int3   
   1b446:	cc                   	int3   
   1b447:	cc                   	int3   
   1b448:	cc                   	int3   
   1b449:	cc                   	int3   
   1b44a:	cc                   	int3   
   1b44b:	cc                   	int3   
   1b44c:	48 8b c4             	mov    %rsp,%rax
   1b44f:	48 89 58 10          	mov    %rbx,0x10(%rax)
   1b453:	57                   	push   %rdi
   1b454:	48 81 ec b0 00 00 00 	sub    $0xb0,%rsp
   1b45b:	66 83 60 c0 00       	andw   $0x0,-0x40(%rax)
   1b460:	66 83 64 24 30 00    	andw   $0x0,0x30(%rsp)
   1b466:	66 c7 40 98 38 8b    	movw   $0x8b38,-0x68(%rax)
   1b46c:	66 c7 40 9a c0 dc    	movw   $0xdcc0,-0x66(%rax)
   1b472:	66 c7 40 9c a7 c2    	movw   $0xc2a7,-0x64(%rax)
   1b478:	66 c7 40 9e 34 86    	movw   $0x8634,-0x62(%rax)
   1b47e:	66 c7 40 a0 f8 8f    	movw   $0x8ff8,-0x60(%rax)
   1b484:	66 c7 40 a2 9e a5    	movw   $0xa59e,-0x5e(%rax)
   1b48a:	66 c7 40 a4 93 b4    	movw   $0xb493,-0x5c(%rax)
   1b490:	66 c7 40 a6 ee 98    	movw   $0x98ee,-0x5a(%rax)
   1b496:	66 c7 40 a8 79 9a    	movw   $0x9a79,-0x58(%rax)
   1b49c:	66 c7 40 aa 50 b9    	movw   $0xb950,-0x56(%rax)
   1b4a2:	66 c7 40 ac 5a aa    	movw   $0xaa5a,-0x54(%rax)
   1b4a8:	66 c7 40 ae 9a fd    	movw   $0xfd9a,-0x52(%rax)
   1b4ae:	66 c7 40 b0 c6 c4    	movw   $0xc4c6,-0x50(%rax)
   1b4b4:	66 c7 40 b2 c5 f3    	movw   $0xf3c5,-0x4e(%rax)
   1b4ba:	66 c7 40 b4 57 f4    	movw   $0xf457,-0x4c(%rax)
   1b4c0:	66 c7 40 b6 5a 98    	movw   $0x985a,-0x4a(%rax)
   1b4c6:	66 c7 40 b8 19 8e    	movw   $0x8e19,-0x48(%rax)
   1b4cc:	66 c7 40 ba 5d f5    	movw   $0xf55d,-0x46(%rax)
   1b4d2:	66 c7 40 bc f8 a4    	movw   $0xa4f8,-0x44(%rax)
   1b4d8:	66 c7 40 be e1 91    	movw   $0x91e1,-0x42(%rax)
   1b4de:	33 c0                	xor    %eax,%eax
   1b4e0:	48 8b f9             	mov    %rcx,%rdi
   1b4e3:	21 84 24 80 00 00 00 	and    %eax,0x80(%rsp)
   1b4ea:	44 8d 40 28          	lea    0x28(%rax),%r8d
   1b4ee:	48 8d 8c 24 88 00 00 	lea    0x88(%rsp),%rcx
   1b4f5:	00 
   1b4f6:	33 d2                	xor    %edx,%edx
   1b4f8:	48 89 44 24 32       	mov    %rax,0x32(%rsp)
   1b4fd:	89 44 24 3a          	mov    %eax,0x3a(%rsp)
   1b501:	66 89 44 24 3e       	mov    %ax,0x3e(%rsp)
   1b506:	e8 85 53 00 00       	callq  0x20890
   1b50b:	48 83 a4 24 c0 00 00 	andq   $0x0,0xc0(%rsp)
   1b512:	00 00 
   1b514:	48 85 ff             	test   %rdi,%rdi
   1b517:	75 0a                	jne    0x1b523
   1b519:	b8 0d 00 00 c0       	mov    $0xc000000d,%eax
   1b51e:	e9 cc 00 00 00       	jmpq   0x1b5ef
   1b523:	83 27 00             	andl   $0x0,(%rdi)
   1b526:	48 8d 54 24 50       	lea    0x50(%rsp),%rdx
   1b52b:	b9 80 b0 02 00       	mov    $0x2b080,%ecx
   1b530:	e8 97 0a 00 00       	callq  0x1bfcc
   1b535:	48 8d 54 24 50       	lea    0x50(%rsp),%rdx
   1b53a:	48 8d 4c 24 30       	lea    0x30(%rsp),%rcx
   1b53f:	ff 15 d3 6a 00 00    	callq  *0x6ad3(%rip)        # 0x22018
   1b545:	48 83 a4 24 88 00 00 	andq   $0x0,0x88(%rsp)
   1b54c:	00 00 
   1b54e:	48 83 a4 24 a0 00 00 	andq   $0x0,0xa0(%rsp)
   1b555:	00 00 
   1b557:	48 83 a4 24 a8 00 00 	andq   $0x0,0xa8(%rsp)
   1b55e:	00 00 
   1b560:	48 8d 44 24 30       	lea    0x30(%rsp),%rax
   1b565:	4c 8d 4c 24 40       	lea    0x40(%rsp),%r9
   1b56a:	4c 8d 84 24 80 00 00 	lea    0x80(%rsp),%r8
   1b571:	00 
   1b572:	48 8d 8c 24 c0 00 00 	lea    0xc0(%rsp),%rcx
   1b579:	00 
   1b57a:	33 d2                	xor    %edx,%edx
   1b57c:	c7 44 24 28 40 00 00 	movl   $0x40,0x28(%rsp)
   1b583:	00 
   1b584:	48 89 84 24 90 00 00 	mov    %rax,0x90(%rsp)
   1b58b:	00 
   1b58c:	c7 84 24 80 00 00 00 	movl   $0x30,0x80(%rsp)
   1b593:	30 00 00 00 
   1b597:	c7 84 24 98 00 00 00 	movl   $0x240,0x98(%rsp)
   1b59e:	40 02 00 00 
   1b5a2:	c7 44 24 20 01 00 00 	movl   $0x1,0x20(%rsp)
   1b5a9:	00 
   1b5aa:	ff 15 70 6c 00 00    	callq  *0x6c70(%rip)        # 0x22220
   1b5b0:	85 c0                	test   %eax,%eax
   1b5b2:	8b d8                	mov    %eax,%ebx
   1b5b4:	79 0b                	jns    0x1b5c1
   1b5b6:	3d 34 00 00 c0       	cmp    $0xc0000034,%eax
   1b5bb:	75 21                	jne    0x1b5de
   1b5bd:	33 db                	xor    %ebx,%ebx
   1b5bf:	eb 1d                	jmp    0x1b5de
   1b5c1:	48 8b 8c 24 c0 00 00 	mov    0xc0(%rsp),%rcx
   1b5c8:	00 
   1b5c9:	ff 15 01 6b 00 00    	callq  *0x6b01(%rip)        # 0x220d0
   1b5cf:	48 83 a4 24 c0 00 00 	andq   $0x0,0xc0(%rsp)
   1b5d6:	00 00 
   1b5d8:	c7 07 01 00 00 00    	movl   $0x1,(%rdi)
   1b5de:	48 8d 54 24 50       	lea    0x50(%rsp),%rdx
   1b5e3:	b9 80 b0 02 00       	mov    $0x2b080,%ecx
   1b5e8:	e8 df 09 00 00       	callq  0x1bfcc
   1b5ed:	8b c3                	mov    %ebx,%eax
   1b5ef:	48 8b 9c 24 c8 00 00 	mov    0xc8(%rsp),%rbx
   1b5f6:	00 
   1b5f7:	48 81 c4 b0 00 00 00 	add    $0xb0,%rsp
   1b5fe:	5f                   	pop    %rdi
   1b5ff:	c3                   	retq   
   1b600:	cc                   	int3   
   1b601:	cc                   	int3   
   1b602:	cc                   	int3   
   1b603:	cc                   	int3   
   1b604:	cc                   	int3   
   1b605:	cc                   	int3   
   1b606:	cc                   	int3   
   1b607:	cc                   	int3   
   1b608:	40 53                	rex push %rbx
   1b60a:	48 83 ec 20          	sub    $0x20,%rsp
   1b60e:	48 8b 0d 8b 33 01 00 	mov    0x1338b(%rip),%rcx        # 0x2e9a0
   1b615:	bb 01 00 00 c0       	mov    $0xc0000001,%ebx
   1b61a:	48 85 c9             	test   %rcx,%rcx
   1b61d:	0f 85 92 00 00 00    	jne    0x1b6b5
   1b623:	ba 10 01 00 00       	mov    $0x110,%edx
   1b628:	b9 01 00 00 00       	mov    $0x1,%ecx
   1b62d:	41 b8 65 6e 6f 4e    	mov    $0x4e6f6e65,%r8d
   1b633:	ff 15 1f 6b 00 00    	callq  *0x6b1f(%rip)        # 0x22158
   1b639:	48 85 c0             	test   %rax,%rax
   1b63c:	48 89 05 5d 33 01 00 	mov    %rax,0x1335d(%rip)        # 0x2e9a0
   1b643:	75 07                	jne    0x1b64c
   1b645:	bb 17 00 00 c0       	mov    $0xc0000017,%ebx
   1b64a:	eb 79                	jmp    0x1b6c5
   1b64c:	33 d2                	xor    %edx,%edx
   1b64e:	41 b8 10 01 00 00    	mov    $0x110,%r8d
   1b654:	48 8b c8             	mov    %rax,%rcx
   1b657:	e8 34 52 00 00       	callq  0x20890
   1b65c:	b9 07 00 00 00       	mov    $0x7,%ecx
   1b661:	e8 aa 03 00 00       	callq  0x1ba10
   1b666:	48 8b 0d 33 33 01 00 	mov    0x13333(%rip),%rcx        # 0x2e9a0
   1b66d:	48 85 c0             	test   %rax,%rax
   1b670:	48 89 41 08          	mov    %rax,0x8(%rcx)
   1b674:	74 3f                	je     0x1b6b5
   1b676:	b9 08 00 00 00       	mov    $0x8,%ecx
   1b67b:	e8 90 03 00 00       	callq  0x1ba10
   1b680:	48 8b 0d 19 33 01 00 	mov    0x13319(%rip),%rcx        # 0x2e9a0
   1b687:	48 85 c0             	test   %rax,%rax
   1b68a:	48 89 41 10          	mov    %rax,0x10(%rcx)
   1b68e:	74 25                	je     0x1b6b5
   1b690:	48 83 61 40 00       	andq   $0x0,0x40(%rcx)
   1b695:	83 61 48 00          	andl   $0x0,0x48(%rcx)
   1b699:	45 33 c0             	xor    %r8d,%r8d
   1b69c:	c7 41 38 01 00 00 00 	movl   $0x1,0x38(%rcx)
   1b6a3:	41 8d 50 01          	lea    0x1(%r8),%edx
   1b6a7:	48 83 c1 50          	add    $0x50,%rcx
   1b6ab:	ff 15 df 69 00 00    	callq  *0x69df(%rip)        # 0x22090
   1b6b1:	33 db                	xor    %ebx,%ebx
   1b6b3:	eb 10                	jmp    0x1b6c5
   1b6b5:	33 d2                	xor    %edx,%edx
   1b6b7:	ff 15 4b 69 00 00    	callq  *0x694b(%rip)        # 0x22008
   1b6bd:	48 83 25 db 32 01 00 	andq   $0x0,0x132db(%rip)        # 0x2e9a0
   1b6c4:	00 
   1b6c5:	8b c3                	mov    %ebx,%eax
   1b6c7:	48 83 c4 20          	add    $0x20,%rsp
   1b6cb:	5b                   	pop    %rbx
   1b6cc:	c3                   	retq   
   1b6cd:	cc                   	int3   
   1b6ce:	cc                   	int3   
   1b6cf:	cc                   	int3   
   1b6d0:	cc                   	int3   
   1b6d1:	cc                   	int3   
   1b6d2:	cc                   	int3   
   1b6d3:	cc                   	int3   
   1b6d4:	4c 8b dc             	mov    %rsp,%r11
   1b6d7:	49 89 5b 08          	mov    %rbx,0x8(%r11)
   1b6db:	49 89 6b 10          	mov    %rbp,0x10(%r11)
   1b6df:	49 89 73 18          	mov    %rsi,0x18(%r11)
   1b6e3:	57                   	push   %rdi
   1b6e4:	48 83 ec 40          	sub    $0x40,%rsp
   1b6e8:	48 8b 05 b1 32 01 00 	mov    0x132b1(%rip),%rax        # 0x2e9a0
   1b6ef:	49 8b f9             	mov    %r9,%rdi
   1b6f2:	8b f2                	mov    %edx,%esi
   1b6f4:	8b e9                	mov    %ecx,%ebp
   1b6f6:	f0 83 40 20 01       	lock addl $0x1,0x20(%rax)
   1b6fb:	48 8b 05 9e 32 01 00 	mov    0x1329e(%rip),%rax        # 0x2e9a0
   1b702:	4c 8b 50 18          	mov    0x18(%rax),%r10
   1b706:	48 8b 84 24 80 00 00 	mov    0x80(%rsp),%rax
   1b70d:	00 
   1b70e:	49 89 43 e8          	mov    %rax,-0x18(%r11)
   1b712:	8b 44 24 78          	mov    0x78(%rsp),%eax
   1b716:	89 44 24 28          	mov    %eax,0x28(%rsp)
   1b71a:	8b 44 24 70          	mov    0x70(%rsp),%eax
   1b71e:	89 44 24 20          	mov    %eax,0x20(%rsp)
   1b722:	41 ff 52 01          	callq  *0x1(%r10)
   1b726:	83 f8 01             	cmp    $0x1,%eax
   1b729:	8b d8                	mov    %eax,%ebx
   1b72b:	75 20                	jne    0x1b74d
   1b72d:	48 8b 15 6c 32 01 00 	mov    0x1326c(%rip),%rdx        # 0x2e9a0
   1b734:	33 c9                	xor    %ecx,%ecx
   1b736:	ff 52 08             	callq  *0x8(%rdx)
   1b739:	85 c0                	test   %eax,%eax
   1b73b:	8b c8                	mov    %eax,%ecx
   1b73d:	74 0e                	je     0x1b74d
   1b73f:	44 0f b7 0f          	movzwl (%rdi),%r9d
   1b743:	44 8b c5             	mov    %ebp,%r8d
   1b746:	8b d6                	mov    %esi,%edx
   1b748:	e8 fb 01 00 00       	callq  0x1b948
   1b74d:	48 8b 05 4c 32 01 00 	mov    0x1324c(%rip),%rax        # 0x2e9a0
   1b754:	f0 83 40 20 ff       	lock addl $0xffffffff,0x20(%rax)
   1b759:	48 8b 6c 24 58       	mov    0x58(%rsp),%rbp
   1b75e:	48 8b 74 24 60       	mov    0x60(%rsp),%rsi
   1b763:	8b c3                	mov    %ebx,%eax
   1b765:	48 8b 5c 24 50       	mov    0x50(%rsp),%rbx
   1b76a:	48 83 c4 40          	add    $0x40,%rsp
   1b76e:	5f                   	pop    %rdi
   1b76f:	c3                   	retq   
   1b770:	cc                   	int3   
   1b771:	cc                   	int3   
   1b772:	cc                   	int3   
   1b773:	cc                   	int3   
   1b774:	cc                   	int3   
   1b775:	cc                   	int3   
   1b776:	cc                   	int3   
   1b777:	cc                   	int3   
   1b778:	48 89 5c 24 08       	mov    %rbx,0x8(%rsp)
   1b77d:	48 89 74 24 10       	mov    %rsi,0x10(%rsp)
   1b782:	48 89 7c 24 18       	mov    %rdi,0x18(%rsp)
   1b787:	41 54                	push   %r12
   1b789:	41 55                	push   %r13
   1b78b:	41 56                	push   %r14
   1b78d:	48 81 ec 80 00 00 00 	sub    $0x80,%rsp
   1b794:	48 8b fa             	mov    %rdx,%rdi
   1b797:	48 8b d9             	mov    %rcx,%rbx
   1b79a:	41 b8 01 00 00 00    	mov    $0x1,%r8d
   1b7a0:	45 8d 70 2f          	lea    0x2f(%r8),%r14d
   1b7a4:	49 8b d6             	mov    %r14,%rdx
   1b7a7:	ff 15 3b 6a 00 00    	callq  *0x6a3b(%rip)        # 0x221e8
   1b7ad:	90                   	nop
   1b7ae:	81 7b 08 00 01 00 00 	cmpl   $0x100,0x8(%rbx)
   1b7b5:	74 1e                	je     0x1b7d5
   1b7b7:	81 7b 08 01 01 00 00 	cmpl   $0x101,0x8(%rbx)
   1b7be:	74 15                	je     0x1b7d5
   1b7c0:	48 8b d7             	mov    %rdi,%rdx
   1b7c3:	48 8b cb             	mov    %rbx,%rcx
   1b7c6:	48 8b 05 d3 31 01 00 	mov    0x131d3(%rip),%rax        # 0x2e9a0
   1b7cd:	ff 50 28             	callq  *0x28(%rax)
   1b7d0:	e9 4e 01 00 00       	jmpq   0x1b923
   1b7d5:	48 85 ff             	test   %rdi,%rdi
   1b7d8:	0f 85 33 01 00 00    	jne    0x1b911
   1b7de:	48 81 7b 10 fc 00 00 	cmpq   $0xfc,0x10(%rbx)
   1b7e5:	00 
   1b7e6:	74 0b                	je     0x1b7f3
   1b7e8:	48 83 7b 10 0c       	cmpq   $0xc,0x10(%rbx)
   1b7ed:	0f 85 1e 01 00 00    	jne    0x1b911
   1b7f3:	4c 8b 2b             	mov    (%rbx),%r13
   1b7f6:	33 ff                	xor    %edi,%edi
   1b7f8:	ff 15 92 69 00 00    	callq  *0x6992(%rip)        # 0x22190
   1b7fe:	4c 8b e0             	mov    %rax,%r12
   1b801:	48 8b 0d 98 31 01 00 	mov    0x13198(%rip),%rcx        # 0x2e9a0
   1b808:	48 83 c1 38          	add    $0x38,%rcx
   1b80c:	ff 15 e6 69 00 00    	callq  *0x69e6(%rip)        # 0x221f8
   1b812:	45 33 db             	xor    %r11d,%r11d
   1b815:	33 c9                	xor    %ecx,%ecx
   1b817:	48 8b 35 82 31 01 00 	mov    0x13182(%rip),%rsi        # 0x2e9a0
   1b81e:	48 8d 04 89          	lea    (%rcx,%rcx,4),%rax
   1b822:	48 8d 54 c6 70       	lea    0x70(%rsi,%rax,8),%rdx
   1b827:	4c 3b 6a 10          	cmp    0x10(%rdx),%r13
   1b82b:	75 0d                	jne    0x1b83a
   1b82d:	4c 3b 62 08          	cmp    0x8(%rdx),%r12
   1b831:	75 07                	jne    0x1b83a
   1b833:	bf 01 00 00 00       	mov    $0x1,%edi
   1b838:	eb 0e                	jmp    0x1b848
   1b83a:	41 83 c3 01          	add    $0x1,%r11d
   1b83e:	48 83 c1 01          	add    $0x1,%rcx
   1b842:	41 83 fb 04          	cmp    $0x4,%r11d
   1b846:	72 d6                	jb     0x1b81e
   1b848:	85 ff                	test   %edi,%edi
   1b84a:	74 10                	je     0x1b85c
   1b84c:	48 8d 4c 24 20       	lea    0x20(%rsp),%rcx
   1b851:	41 b8 28 00 00 00    	mov    $0x28,%r8d
   1b857:	e8 c4 4c 00 00       	callq  0x20520
   1b85c:	48 8d 4e 38          	lea    0x38(%rsi),%rcx
   1b860:	ff 15 8a 69 00 00    	callq  *0x698a(%rip)        # 0x221f0
   1b866:	85 ff                	test   %edi,%edi
   1b868:	75 15                	jne    0x1b87f
   1b86a:	48 8b 13             	mov    (%rbx),%rdx
   1b86d:	48 8b cb             	mov    %rbx,%rcx
   1b870:	48 8b 05 29 31 01 00 	mov    0x13129(%rip),%rax        # 0x2e9a0
   1b877:	ff 50 28             	callq  *0x28(%rax)
   1b87a:	e9 a4 00 00 00       	jmpq   0x1b923
   1b87f:	48 8d 4c 24 48       	lea    0x48(%rsp),%rcx
   1b884:	48 8b d3             	mov    %rbx,%rdx
   1b887:	4d 8b c6             	mov    %r14,%r8
   1b88a:	e8 91 4c 00 00       	callq  0x20520
   1b88f:	81 7b 08 00 01 00 00 	cmpl   $0x100,0x8(%rbx)
   1b896:	75 44                	jne    0x1b8dc
   1b898:	8b 44 24 3c          	mov    0x3c(%rsp),%eax
   1b89c:	48 89 43 10          	mov    %rax,0x10(%rbx)
   1b8a0:	8b 44 24 38          	mov    0x38(%rsp),%eax
   1b8a4:	c1 e0 10             	shl    $0x10,%eax
   1b8a7:	48 09 43 18          	or     %rax,0x18(%rbx)
   1b8ab:	48 8b 13             	mov    (%rbx),%rdx
   1b8ae:	48 8b cb             	mov    %rbx,%rcx
   1b8b1:	48 8b 05 e8 30 01 00 	mov    0x130e8(%rip),%rax        # 0x2e9a0
   1b8b8:	ff 50 28             	callq  *0x28(%rax)
   1b8bb:	c7 43 08 02 01 00 00 	movl   $0x102,0x8(%rbx)
   1b8c2:	8b 44 24 40          	mov    0x40(%rsp),%eax
   1b8c6:	48 89 43 10          	mov    %rax,0x10(%rbx)
   1b8ca:	48 8b 13             	mov    (%rbx),%rdx
   1b8cd:	48 8b cb             	mov    %rbx,%rcx
   1b8d0:	48 8b 05 c9 30 01 00 	mov    0x130c9(%rip),%rax        # 0x2e9a0
   1b8d7:	ff 50 28             	callq  *0x28(%rax)
   1b8da:	eb 23                	jmp    0x1b8ff
   1b8dc:	8b 44 24 3c          	mov    0x3c(%rsp),%eax
   1b8e0:	48 89 43 10          	mov    %rax,0x10(%rbx)
   1b8e4:	8b 44 24 38          	mov    0x38(%rsp),%eax
   1b8e8:	c1 e0 10             	shl    $0x10,%eax
   1b8eb:	48 09 43 18          	or     %rax,0x18(%rbx)
   1b8ef:	48 8b 13             	mov    (%rbx),%rdx
   1b8f2:	48 8b cb             	mov    %rbx,%rcx
   1b8f5:	48 8b 05 a4 30 01 00 	mov    0x130a4(%rip),%rax        # 0x2e9a0
   1b8fc:	ff 50 28             	callq  *0x28(%rax)
   1b8ff:	48 8b cb             	mov    %rbx,%rcx
   1b902:	48 8d 54 24 48       	lea    0x48(%rsp),%rdx
   1b907:	4d 8b c6             	mov    %r14,%r8
   1b90a:	e8 11 4c 00 00       	callq  0x20520
   1b90f:	eb 12                	jmp    0x1b923
   1b911:	48 8b d7             	mov    %rdi,%rdx
   1b914:	48 8b cb             	mov    %rbx,%rcx
   1b917:	48 8b 05 82 30 01 00 	mov    0x13082(%rip),%rax        # 0x2e9a0
   1b91e:	ff 50 28             	callq  *0x28(%rax)
   1b921:	eb 00                	jmp    0x1b923
   1b923:	4c 8d 9c 24 80 00 00 	lea    0x80(%rsp),%r11
   1b92a:	00 
   1b92b:	49 8b 5b 20          	mov    0x20(%r11),%rbx
   1b92f:	49 8b 73 28          	mov    0x28(%r11),%rsi
   1b933:	49 8b 7b 30          	mov    0x30(%r11),%rdi
   1b937:	49 8b e3             	mov    %r11,%rsp
   1b93a:	41 5e                	pop    %r14
   1b93c:	41 5d                	pop    %r13
   1b93e:	41 5c                	pop    %r12
   1b940:	c3                   	retq   
   1b941:	cc                   	int3   
   1b942:	cc                   	int3   
   1b943:	cc                   	int3   
   1b944:	cc                   	int3   
   1b945:	cc                   	int3   
   1b946:	cc                   	int3   
   1b947:	cc                   	int3   
   1b948:	48 8b c4             	mov    %rsp,%rax
   1b94b:	48 89 58 08          	mov    %rbx,0x8(%rax)
   1b94f:	48 89 68 10          	mov    %rbp,0x10(%rax)
   1b953:	48 89 70 18          	mov    %rsi,0x18(%rax)
   1b957:	48 89 78 20          	mov    %rdi,0x20(%rax)
   1b95b:	41 54                	push   %r12
   1b95d:	48 83 ec 20          	sub    $0x20,%rsp
   1b961:	41 8b f1             	mov    %r9d,%esi
   1b964:	41 8b e8             	mov    %r8d,%ebp
   1b967:	44 8b e2             	mov    %edx,%r12d
   1b96a:	48 8b d9             	mov    %rcx,%rbx
   1b96d:	ff 15 1d 68 00 00    	callq  *0x681d(%rip)        # 0x22190
   1b973:	48 8b 0d 26 30 01 00 	mov    0x13026(%rip),%rcx        # 0x2e9a0
   1b97a:	48 83 c1 38          	add    $0x38,%rcx
   1b97e:	48 8b f8             	mov    %rax,%rdi
   1b981:	ff 15 71 68 00 00    	callq  *0x6871(%rip)        # 0x221f8
   1b987:	4c 8b 1d 12 30 01 00 	mov    0x13012(%rip),%r11        # 0x2e9a0
   1b98e:	49 83 c3 70          	add    $0x70,%r11
   1b992:	33 c9                	xor    %ecx,%ecx
   1b994:	4d 8b d3             	mov    %r11,%r10
   1b997:	49 3b 5a 10          	cmp    0x10(%r10),%rbx
   1b99b:	75 06                	jne    0x1b9a3
   1b99d:	49 3b 7a 08          	cmp    0x8(%r10),%rdi
   1b9a1:	74 19                	je     0x1b9bc
   1b9a3:	49 8b 03             	mov    (%r11),%rax
   1b9a6:	49 39 02             	cmp    %rax,(%r10)
   1b9a9:	4d 0f 4c da          	cmovl  %r10,%r11
   1b9ad:	83 c1 01             	add    $0x1,%ecx
   1b9b0:	49 83 c2 28          	add    $0x28,%r10
   1b9b4:	83 f9 04             	cmp    $0x4,%ecx
   1b9b7:	72 de                	jb     0x1b997
   1b9b9:	4d 8b d3             	mov    %r11,%r10
   1b9bc:	48 a1 20 03 00 00 80 	movabs 0xfffff78000000320,%rax
   1b9c3:	f7 ff ff 
   1b9c6:	48 8b 0d d3 2f 01 00 	mov    0x12fd3(%rip),%rcx        # 0x2e9a0
   1b9cd:	49 89 7a 08          	mov    %rdi,0x8(%r10)
   1b9d1:	48 83 c1 38          	add    $0x38,%rcx
   1b9d5:	49 89 02             	mov    %rax,(%r10)
   1b9d8:	49 89 5a 10          	mov    %rbx,0x10(%r10)
   1b9dc:	45 89 62 18          	mov    %r12d,0x18(%r10)
   1b9e0:	41 89 6a 1c          	mov    %ebp,0x1c(%r10)
   1b9e4:	41 89 72 20          	mov    %esi,0x20(%r10)
   1b9e8:	48 8b 5c 24 30       	mov    0x30(%rsp),%rbx
   1b9ed:	48 8b 6c 24 38       	mov    0x38(%rsp),%rbp
   1b9f2:	48 8b 74 24 40       	mov    0x40(%rsp),%rsi
   1b9f7:	48 8b 7c 24 48       	mov    0x48(%rsp),%rdi
   1b9fc:	48 83 c4 20          	add    $0x20,%rsp
   1ba00:	41 5c                	pop    %r12
   1ba02:	48 ff 25 e7 67 00 00 	rex.W jmpq *0x67e7(%rip)        # 0x221f0
   1ba09:	cc                   	int3   
   1ba0a:	cc                   	int3   
   1ba0b:	cc                   	int3   
   1ba0c:	cc                   	int3   
   1ba0d:	cc                   	int3   
   1ba0e:	cc                   	int3   
   1ba0f:	cc                   	int3   
   1ba10:	48 89 5c 24 08       	mov    %rbx,0x8(%rsp)
   1ba15:	57                   	push   %rdi
   1ba16:	48 83 ec 20          	sub    $0x20,%rsp
   1ba1a:	48 8b 05 df 67 00 00 	mov    0x67df(%rip),%rax        # 0x22200
   1ba21:	8b 00                	mov    (%rax),%eax
   1ba23:	25 ff 3f 00 00       	and    $0x3fff,%eax
   1ba28:	3d ce 0e 00 00       	cmp    $0xece,%eax
   1ba2d:	0f 84 ea 00 00 00    	je     0x1bb1d
   1ba33:	3d 6f 17 00 00       	cmp    $0x176f,%eax
   1ba38:	0f 86 17 01 00 00    	jbe    0x1bb55
   1ba3e:	3d 72 17 00 00       	cmp    $0x1772,%eax
   1ba43:	0f 86 96 00 00 00    	jbe    0x1badf
   1ba49:	05 50 e2 ff ff       	add    $0xffffe250,%eax
   1ba4e:	ba 01 00 00 00       	mov    $0x1,%edx
   1ba53:	3b c2                	cmp    %edx,%eax
   1ba55:	0f 87 fa 00 00 00    	ja     0x1bb55
   1ba5b:	33 ff                	xor    %edi,%edi
   1ba5d:	3b cf                	cmp    %edi,%ecx
   1ba5f:	74 74                	je     0x1bad5
   1ba61:	2b ca                	sub    %edx,%ecx
   1ba63:	74 66                	je     0x1bacb
   1ba65:	2b ca                	sub    %edx,%ecx
   1ba67:	74 58                	je     0x1bac1
   1ba69:	2b ca                	sub    %edx,%ecx
   1ba6b:	74 4a                	je     0x1bab7
   1ba6d:	2b ca                	sub    %edx,%ecx
   1ba6f:	74 3c                	je     0x1baad
   1ba71:	2b ca                	sub    %edx,%ecx
   1ba73:	74 2e                	je     0x1baa3
   1ba75:	2b ca                	sub    %edx,%ecx
   1ba77:	74 20                	je     0x1ba99
   1ba79:	2b ca                	sub    %edx,%ecx
   1ba7b:	74 12                	je     0x1ba8f
   1ba7d:	3b ca                	cmp    %edx,%ecx
   1ba7f:	0f 85 d0 00 00 00    	jne    0x1bb55
   1ba85:	bb 79 10 00 00       	mov    $0x1079,%ebx
   1ba8a:	e9 e7 00 00 00       	jmpq   0x1bb76
   1ba8f:	bb 00 10 00 00       	mov    $0x1000,%ebx
   1ba94:	e9 dd 00 00 00       	jmpq   0x1bb76
   1ba99:	bb eb 10 00 00       	mov    $0x10eb,%ebx
   1ba9e:	e9 d3 00 00 00       	jmpq   0x1bb76
   1baa3:	bb f9 10 00 00       	mov    $0x10f9,%ebx
   1baa8:	e9 c9 00 00 00       	jmpq   0x1bb76
   1baad:	bb 01 10 00 00       	mov    $0x1001,%ebx
   1bab2:	e9 bf 00 00 00       	jmpq   0x1bb76
   1bab7:	bb 06 10 00 00       	mov    $0x1006,%ebx
   1babc:	e9 b5 00 00 00       	jmpq   0x1bb76
   1bac1:	bb 1b 00 00 00       	mov    $0x1b,%ebx
   1bac6:	e9 ab 00 00 00       	jmpq   0x1bb76
   1bacb:	bb 3c 10 00 00       	mov    $0x103c,%ebx
   1bad0:	e9 a1 00 00 00       	jmpq   0x1bb76
   1bad5:	bb 63 10 00 00       	mov    $0x1063,%ebx
   1bada:	e9 97 00 00 00       	jmpq   0x1bb76
   1badf:	33 ff                	xor    %edi,%edi
   1bae1:	3b cf                	cmp    %edi,%ecx
   1bae3:	74 f0                	je     0x1bad5
   1bae5:	8d 57 01             	lea    0x1(%rdi),%edx
   1bae8:	2b ca                	sub    %edx,%ecx
   1baea:	74 df                	je     0x1bacb
   1baec:	2b ca                	sub    %edx,%ecx
   1baee:	74 d1                	je     0x1bac1
   1baf0:	2b ca                	sub    %edx,%ecx
   1baf2:	74 c3                	je     0x1bab7
   1baf4:	2b ca                	sub    %edx,%ecx
   1baf6:	74 b5                	je     0x1baad
   1baf8:	2b ca                	sub    %edx,%ecx
   1bafa:	74 1a                	je     0x1bb16
   1bafc:	2b ca                	sub    %edx,%ecx
   1bafe:	74 0f                	je     0x1bb0f
   1bb00:	2b ca                	sub    %edx,%ecx
   1bb02:	74 8b                	je     0x1ba8f
   1bb04:	3b ca                	cmp    %edx,%ecx
   1bb06:	75 4d                	jne    0x1bb55
   1bb08:	bb 7b 10 00 00       	mov    $0x107b,%ebx
   1bb0d:	eb 67                	jmp    0x1bb76
   1bb0f:	bb f0 10 00 00       	mov    $0x10f0,%ebx
   1bb14:	eb 60                	jmp    0x1bb76
   1bb16:	bb fe 10 00 00       	mov    $0x10fe,%ebx
   1bb1b:	eb 59                	jmp    0x1bb76
   1bb1d:	33 ff                	xor    %edi,%edi
   1bb1f:	3b cf                	cmp    %edi,%ecx
   1bb21:	74 4e                	je     0x1bb71
   1bb23:	8d 57 01             	lea    0x1(%rdi),%edx
   1bb26:	2b ca                	sub    %edx,%ecx
   1bb28:	74 40                	je     0x1bb6a
   1bb2a:	2b ca                	sub    %edx,%ecx
   1bb2c:	74 93                	je     0x1bac1
   1bb2e:	2b ca                	sub    %edx,%ecx
   1bb30:	74 85                	je     0x1bab7
   1bb32:	2b ca                	sub    %edx,%ecx
   1bb34:	0f 84 73 ff ff ff    	je     0x1baad
   1bb3a:	2b ca                	sub    %edx,%ecx
   1bb3c:	74 25                	je     0x1bb63
   1bb3e:	2b ca                	sub    %edx,%ecx
   1bb40:	74 1a                	je     0x1bb5c
   1bb42:	2b ca                	sub    %edx,%ecx
   1bb44:	0f 84 45 ff ff ff    	je     0x1ba8f
   1bb4a:	3b ca                	cmp    %edx,%ecx
   1bb4c:	75 07                	jne    0x1bb55
   1bb4e:	bb 7a 10 00 00       	mov    $0x107a,%ebx
   1bb53:	eb 21                	jmp    0x1bb76
   1bb55:	33 c0                	xor    %eax,%eax
   1bb57:	e9 90 00 00 00       	jmpq   0x1bbec
   1bb5c:	bb ef 10 00 00       	mov    $0x10ef,%ebx
   1bb61:	eb 13                	jmp    0x1bb76
   1bb63:	bb fd 10 00 00       	mov    $0x10fd,%ebx
   1bb68:	eb 0c                	jmp    0x1bb76
   1bb6a:	bb 3b 10 00 00       	mov    $0x103b,%ebx
   1bb6f:	eb 05                	jmp    0x1bb76
   1bb71:	bb 62 10 00 00       	mov    $0x1062,%ebx
   1bb76:	48 8b 15 33 2e 01 00 	mov    0x12e33(%rip),%rdx        # 0x2e9b0
   1bb7d:	48 3b d7             	cmp    %rdi,%rdx
   1bb80:	75 27                	jne    0x1bba9
   1bb82:	48 8d 15 27 2e 01 00 	lea    0x12e27(%rip),%rdx        # 0x2e9b0
   1bb89:	33 c9                	xor    %ecx,%ecx
   1bb8b:	e8 d4 a9 ff ff       	callq  0x16564
   1bb90:	48 8b 15 19 2e 01 00 	mov    0x12e19(%rip),%rdx        # 0x2e9b0
   1bb97:	3b c7                	cmp    %edi,%eax
   1bb99:	48 0f 4c d7          	cmovl  %rdi,%rdx
   1bb9d:	48 3b d7             	cmp    %rdi,%rdx
   1bba0:	48 89 15 09 2e 01 00 	mov    %rdx,0x12e09(%rip)        # 0x2e9b0
   1bba7:	74 40                	je     0x1bbe9
   1bba9:	8b c3                	mov    %ebx,%eax
   1bbab:	c1 e8 0c             	shr    $0xc,%eax
   1bbae:	83 e0 03             	and    $0x3,%eax
   1bbb1:	83 f8 03             	cmp    $0x3,%eax
   1bbb4:	77 33                	ja     0x1bbe9
   1bbb6:	8b c8                	mov    %eax,%ecx
   1bbb8:	48 c1 e1 05          	shl    $0x5,%rcx
   1bbbc:	48 03 ca             	add    %rdx,%rcx
   1bbbf:	74 28                	je     0x1bbe9
   1bbc1:	81 e3 ff 0f 00 00    	and    $0xfff,%ebx
   1bbc7:	8b c3                	mov    %ebx,%eax
   1bbc9:	48 3b 41 10          	cmp    0x10(%rcx),%rax
   1bbcd:	73 1a                	jae    0x1bbe9
   1bbcf:	48 39 79 18          	cmp    %rdi,0x18(%rcx)
   1bbd3:	48 8b 11             	mov    (%rcx),%rdx
   1bbd6:	8b 04 9a             	mov    (%rdx,%rbx,4),%eax
   1bbd9:	74 05                	je     0x1bbe0
   1bbdb:	c1 f8 04             	sar    $0x4,%eax
   1bbde:	eb 03                	jmp    0x1bbe3
   1bbe0:	83 e0 f0             	and    $0xfffffff0,%eax
   1bbe3:	48 63 f8             	movslq %eax,%rdi
   1bbe6:	48 03 fa             	add    %rdx,%rdi
   1bbe9:	48 8b c7             	mov    %rdi,%rax
   1bbec:	48 8b 5c 24 30       	mov    0x30(%rsp),%rbx
   1bbf1:	48 83 c4 20          	add    $0x20,%rsp
   1bbf5:	5f                   	pop    %rdi
   1bbf6:	c3                   	retq   
   1bbf7:	cc                   	int3   
   1bbf8:	cc                   	int3   
   1bbf9:	cc                   	int3   
   1bbfa:	cc                   	int3   
   1bbfb:	cc                   	int3   
   1bbfc:	cc                   	int3   
   1bbfd:	cc                   	int3   
   1bbfe:	cc                   	int3   
   1bbff:	cc                   	int3   
   1bc00:	48 89 5c 24 08       	mov    %rbx,0x8(%rsp)
   1bc05:	48 89 74 24 10       	mov    %rsi,0x10(%rsp)
   1bc0a:	57                   	push   %rdi
   1bc0b:	48 83 ec 50          	sub    $0x50,%rsp
   1bc0f:	48 8b f1             	mov    %rcx,%rsi
   1bc12:	48 8b d1             	mov    %rcx,%rdx
   1bc15:	b9 00 57 6f 00       	mov    $0x6f5700,%ecx
   1bc1a:	49 8b f8             	mov    %r8,%rdi
   1bc1d:	e8 aa 03 00 00       	callq  0x1bfcc
   1bc22:	48 8b d7             	mov    %rdi,%rdx
   1bc25:	b9 00 eb d1 00       	mov    $0xd1eb00,%ecx
   1bc2a:	e8 d1 03 00 00       	callq  0x1c000
   1bc2f:	48 8b 05 ba 2b 01 00 	mov    0x12bba(%rip),%rax        # 0x2e7f0
   1bc36:	33 db                	xor    %ebx,%ebx
   1bc38:	48 39 1d 61 2b 01 00 	cmp    %rbx,0x12b61(%rip)        # 0x2e7a0
   1bc3f:	48 89 5c 24 40       	mov    %rbx,0x40(%rsp)
   1bc44:	75 56                	jne    0x1bc9c
   1bc46:	48 39 1d 5b 2b 01 00 	cmp    %rbx,0x12b5b(%rip)        # 0x2e7a8
   1bc4d:	74 4d                	je     0x1bc9c
   1bc4f:	48 39 1d 5a 2b 01 00 	cmp    %rbx,0x12b5a(%rip)        # 0x2e7b0
   1bc56:	74 44                	je     0x1bc9c
   1bc58:	48 39 1d 59 2b 01 00 	cmp    %rbx,0x12b59(%rip)        # 0x2e7b8
   1bc5f:	74 3b                	je     0x1bc9c
   1bc61:	48 39 1d 58 2b 01 00 	cmp    %rbx,0x12b58(%rip)        # 0x2e7c0
   1bc68:	74 32                	je     0x1bc9c
   1bc6a:	48 39 1d 57 2b 01 00 	cmp    %rbx,0x12b57(%rip)        # 0x2e7c8
   1bc71:	74 29                	je     0x1bc9c
   1bc73:	48 39 1d 56 2b 01 00 	cmp    %rbx,0x12b56(%rip)        # 0x2e7d0
   1bc7a:	74 20                	je     0x1bc9c
   1bc7c:	48 39 1d 55 2b 01 00 	cmp    %rbx,0x12b55(%rip)        # 0x2e7d8
   1bc83:	74 17                	je     0x1bc9c
   1bc85:	48 39 1d 54 2b 01 00 	cmp    %rbx,0x12b54(%rip)        # 0x2e7e0
   1bc8c:	74 0e                	je     0x1bc9c
   1bc8e:	48 39 1d 53 2b 01 00 	cmp    %rbx,0x12b53(%rip)        # 0x2e7e8
   1bc95:	74 05                	je     0x1bc9c
   1bc97:	48 3b c3             	cmp    %rbx,%rax
   1bc9a:	75 34                	jne    0x1bcd0
   1bc9c:	ff d0                	callq  *%rax
   1bc9e:	48 8d 4c 24 40       	lea    0x40(%rsp),%rcx
   1bca3:	41 b1 01             	mov    $0x1,%r9b
   1bca6:	48 89 4c 24 30       	mov    %rcx,0x30(%rsp)
   1bcab:	45 33 c0             	xor    %r8d,%r8d
   1bcae:	33 d2                	xor    %edx,%edx
   1bcb0:	48 8b c8             	mov    %rax,%rcx
   1bcb3:	48 89 7c 24 28       	mov    %rdi,0x28(%rsp)
   1bcb8:	48 89 74 24 20       	mov    %rsi,0x20(%rsp)
   1bcbd:	e8 9a 75 ff ff       	callq  0x1325c
   1bcc2:	48 8b 54 24 40       	mov    0x40(%rsp),%rdx
   1bcc7:	3b c3                	cmp    %ebx,%eax
   1bcc9:	48 0f 4c d3          	cmovl  %rbx,%rdx
   1bccd:	48 8b da             	mov    %rdx,%rbx
   1bcd0:	48 8b d6             	mov    %rsi,%rdx
   1bcd3:	b9 00 57 6f 00       	mov    $0x6f5700,%ecx
   1bcd8:	e8 ef 02 00 00       	callq  0x1bfcc
   1bcdd:	48 8b d7             	mov    %rdi,%rdx
   1bce0:	b9 00 eb d1 00       	mov    $0xd1eb00,%ecx
   1bce5:	e8 16 03 00 00       	callq  0x1c000
   1bcea:	48 8b 74 24 68       	mov    0x68(%rsp),%rsi
   1bcef:	48 8b c3             	mov    %rbx,%rax
   1bcf2:	48 8b 5c 24 60       	mov    0x60(%rsp),%rbx
   1bcf7:	48 83 c4 50          	add    $0x50,%rsp
   1bcfb:	5f                   	pop    %rdi
   1bcfc:	c3                   	retq   
   1bcfd:	cc                   	int3   
   1bcfe:	cc                   	int3   
   1bcff:	cc                   	int3   
   1bd00:	cc                   	int3   
   1bd01:	cc                   	int3   
   1bd02:	cc                   	int3   
   1bd03:	cc                   	int3   
   1bd04:	48 89 5c 24 08       	mov    %rbx,0x8(%rsp)
   1bd09:	48 89 74 24 10       	mov    %rsi,0x10(%rsp)
   1bd0e:	57                   	push   %rdi
   1bd0f:	48 81 ec 70 01 00 00 	sub    $0x170,%rsp
   1bd16:	33 db                	xor    %ebx,%ebx
   1bd18:	48 8b f9             	mov    %rcx,%rdi
   1bd1b:	66 c7 44 24 20 90 c4 	movw   $0xc490,0x20(%rsp)
   1bd22:	66 21 5c 24 3a       	and    %bx,0x3a(%rsp)
   1bd27:	48 85 c9             	test   %rcx,%rcx
   1bd2a:	66 c7 44 24 22 20 a8 	movw   $0xa820,0x22(%rsp)
   1bd31:	66 c7 44 24 24 7f 91 	movw   $0x917f,0x24(%rsp)
   1bd38:	66 c7 44 24 26 01 a0 	movw   $0xa001,0x26(%rsp)
   1bd3f:	66 c7 44 24 28 1a 8a 	movw   $0x8a1a,0x28(%rsp)
   1bd46:	66 c7 44 24 2a e6 f7 	movw   $0xf7e6,0x2a(%rsp)
   1bd4d:	66 c7 44 24 2c aa f0 	movw   $0xf0aa,0x2c(%rsp)
   1bd54:	66 c7 44 24 2e b7 a7 	movw   $0xa7b7,0x2e(%rsp)
   1bd5b:	66 c7 44 24 30 b1 ad 	movw   $0xadb1,0x30(%rsp)
   1bd62:	66 c7 44 24 32 f3 db 	movw   $0xdbf3,0x32(%rsp)
   1bd69:	66 c7 44 24 34 7d f5 	movw   $0xf57d,0x34(%rsp)
   1bd70:	66 c7 44 24 36 a4 e8 	movw   $0xe8a4,0x36(%rsp)
   1bd77:	66 c7 44 24 38 ba f3 	movw   $0xf3ba,0x38(%rsp)
   1bd7e:	75 0a                	jne    0x1bd8a
   1bd80:	bb 0d 00 00 c0       	mov    $0xc000000d,%ebx
   1bd85:	e9 d7 00 00 00       	jmpq   0x1be61
   1bd8a:	45 33 c9             	xor    %r9d,%r9d
   1bd8d:	45 33 c0             	xor    %r8d,%r8d
   1bd90:	33 d2                	xor    %edx,%edx
   1bd92:	33 c9                	xor    %ecx,%ecx
   1bd94:	ff 15 5e 63 00 00    	callq  *0x635e(%rip)        # 0x220f8
   1bd9a:	84 c0                	test   %al,%al
   1bd9c:	74 0a                	je     0x1bda8
   1bd9e:	bb bb 00 00 c0       	mov    $0xc00000bb,%ebx
   1bda3:	e9 b9 00 00 00       	jmpq   0x1be61
   1bda8:	39 1d ee 2b 01 00    	cmp    %ebx,0x12bee(%rip)        # 0x2e99c
   1bdae:	74 0d                	je     0x1bdbd
   1bdb0:	8b 05 c2 29 01 00    	mov    0x129c2(%rip),%eax        # 0x2e778
   1bdb6:	89 07                	mov    %eax,(%rdi)
   1bdb8:	e9 89 00 00 00       	jmpq   0x1be46
   1bdbd:	21 1f                	and    %ebx,(%rdi)
   1bdbf:	48 8d 54 24 20       	lea    0x20(%rsp),%rdx
   1bdc4:	b9 00 95 26 02       	mov    $0x2269500,%ecx
   1bdc9:	e8 fe 01 00 00       	callq  0x1bfcc
   1bdce:	48 8d 54 24 20       	lea    0x20(%rsp),%rdx
   1bdd3:	48 8d 4c 24 40       	lea    0x40(%rsp),%rcx
   1bdd8:	ff 15 3a 62 00 00    	callq  *0x623a(%rip)        # 0x22018
   1bdde:	48 8d 4c 24 40       	lea    0x40(%rsp),%rcx
   1bde3:	ff 15 c7 63 00 00    	callq  *0x63c7(%rip)        # 0x221b0
   1bde9:	48 8d 54 24 20       	lea    0x20(%rsp),%rdx
   1bdee:	b9 00 95 26 02       	mov    $0x2269500,%ecx
   1bdf3:	48 8b f0             	mov    %rax,%rsi
   1bdf6:	e8 d1 01 00 00       	callq  0x1bfcc
   1bdfb:	48 85 f6             	test   %rsi,%rsi
   1bdfe:	74 46                	je     0x1be46
   1be00:	48 8d 4c 24 50       	lea    0x50(%rsp),%rcx
   1be05:	c7 44 24 50 1c 01 00 	movl   $0x11c,0x50(%rsp)
   1be0c:	00 
   1be0d:	ff d6                	callq  *%rsi
   1be0f:	85 c0                	test   %eax,%eax
   1be11:	8b d8                	mov    %eax,%ebx
   1be13:	78 4c                	js     0x1be61
   1be15:	83 7c 24 54 05       	cmpl   $0x5,0x54(%rsp)
   1be1a:	75 24                	jne    0x1be40
   1be1c:	83 7c 24 58 01       	cmpl   $0x1,0x58(%rsp)
   1be21:	75 0b                	jne    0x1be2e
   1be23:	66 83 bc 24 64 01 00 	cmpw   $0x2,0x164(%rsp)
   1be2a:	00 02 
   1be2c:	72 18                	jb     0x1be46
   1be2e:	83 7c 24 58 02       	cmpl   $0x2,0x58(%rsp)
   1be33:	75 0b                	jne    0x1be40
   1be35:	66 83 bc 24 64 01 00 	cmpw   $0x1,0x164(%rsp)
   1be3c:	00 01 
   1be3e:	72 06                	jb     0x1be46
   1be40:	c7 07 01 00 00 00    	movl   $0x1,(%rdi)
   1be46:	83 3d 4f 2b 01 00 00 	cmpl   $0x0,0x12b4f(%rip)        # 0x2e99c
   1be4d:	75 12                	jne    0x1be61
   1be4f:	8b 07                	mov    (%rdi),%eax
   1be51:	c7 05 41 2b 01 00 01 	movl   $0x1,0x12b41(%rip)        # 0x2e99c
   1be58:	00 00 00 
   1be5b:	89 05 17 29 01 00    	mov    %eax,0x12917(%rip)        # 0x2e778
   1be61:	4c 8d 9c 24 70 01 00 	lea    0x170(%rsp),%r11
   1be68:	00 
   1be69:	8b c3                	mov    %ebx,%eax
   1be6b:	49 8b 5b 10          	mov    0x10(%r11),%rbx
   1be6f:	49 8b 73 18          	mov    0x18(%r11),%rsi
   1be73:	49 8b e3             	mov    %r11,%rsp
   1be76:	5f                   	pop    %rdi
   1be77:	c3                   	retq   
   1be78:	cc                   	int3   
   1be79:	cc                   	int3   
   1be7a:	cc                   	int3   
   1be7b:	cc                   	int3   
   1be7c:	cc                   	int3   
   1be7d:	cc                   	int3   
   1be7e:	cc                   	int3   
   1be7f:	cc                   	int3   
   1be80:	48 89 5c 24 10       	mov    %rbx,0x10(%rsp)
   1be85:	48 89 74 24 18       	mov    %rsi,0x18(%rsp)
   1be8a:	48 89 7c 24 20       	mov    %rdi,0x20(%rsp)
   1be8f:	41 54                	push   %r12
   1be91:	41 55                	push   %r13
   1be93:	41 56                	push   %r14
   1be95:	48 83 ec 30          	sub    $0x30,%rsp
   1be99:	45 8a f0             	mov    %r8b,%r14b
   1be9c:	48 8b d9             	mov    %rcx,%rbx
   1be9f:	be 01 00 00 c0       	mov    $0xc0000001,%esi
   1bea4:	48 83 64 24 50 00    	andq   $0x0,0x50(%rsp)
   1beaa:	45 33 e4             	xor    %r12d,%r12d
   1bead:	48 85 c9             	test   %rcx,%rcx
   1beb0:	75 08                	jne    0x1beba
   1beb2:	8d 46 0c             	lea    0xc(%rsi),%eax
   1beb5:	e9 83 00 00 00       	jmpq   0x1bf3d
   1beba:	48 83 eb 01          	sub    $0x1,%rbx
   1bebe:	48 89 5c 24 28       	mov    %rbx,0x28(%rsp)
   1bec3:	3a 13                	cmp    (%rbx),%dl
   1bec5:	74 4f                	je     0x1bf16
   1bec7:	48 83 c3 01          	add    $0x1,%rbx
   1becb:	48 89 5c 24 28       	mov    %rbx,0x28(%rsp)
   1bed0:	45 85 e4             	test   %r12d,%r12d
   1bed3:	75 04                	jne    0x1bed9
   1bed5:	8b c6                	mov    %esi,%eax
   1bed7:	eb 64                	jmp    0x1bf3d
   1bed9:	45 8b ec             	mov    %r12d,%r13d
   1bedc:	41 b8 65 6e 6f 4e    	mov    $0x4e6f6e65,%r8d
   1bee2:	41 8b d4             	mov    %r12d,%edx
   1bee5:	33 c9                	xor    %ecx,%ecx
   1bee7:	ff 15 6b 62 00 00    	callq  *0x626b(%rip)        # 0x22158
   1beed:	48 8b f8             	mov    %rax,%rdi
   1bef0:	48 85 c0             	test   %rax,%rax
   1bef3:	74 36                	je     0x1bf2b
   1bef5:	41 0f b6 d6          	movzbl %r14b,%edx
   1bef9:	4d 8b c5             	mov    %r13,%r8
   1befc:	48 8b c8             	mov    %rax,%rcx
   1beff:	e8 8c 49 00 00       	callq  0x20890
   1bf04:	45 8b c4             	mov    %r12d,%r8d
   1bf07:	48 8b d7             	mov    %rdi,%rdx
   1bf0a:	48 8b cb             	mov    %rbx,%rcx
   1bf0d:	e8 2a aa ff ff       	callq  0x1693c
   1bf12:	8b f0                	mov    %eax,%esi
   1bf14:	eb 15                	jmp    0x1bf2b
   1bf16:	41 83 c4 01          	add    $0x1,%r12d
   1bf1a:	44 89 64 24 20       	mov    %r12d,0x20(%rsp)
   1bf1f:	eb 99                	jmp    0x1beba
   1bf21:	be 41 01 00 c0       	mov    $0xc0000141,%esi
   1bf26:	48 8b 7c 24 50       	mov    0x50(%rsp),%rdi
   1bf2b:	48 85 ff             	test   %rdi,%rdi
   1bf2e:	74 0b                	je     0x1bf3b
   1bf30:	33 d2                	xor    %edx,%edx
   1bf32:	48 8b cf             	mov    %rdi,%rcx
   1bf35:	ff 15 cd 60 00 00    	callq  *0x60cd(%rip)        # 0x22008
   1bf3b:	8b c6                	mov    %esi,%eax
   1bf3d:	48 8b 5c 24 58       	mov    0x58(%rsp),%rbx
   1bf42:	48 8b 74 24 60       	mov    0x60(%rsp),%rsi
   1bf47:	48 8b 7c 24 68       	mov    0x68(%rsp),%rdi
   1bf4c:	48 83 c4 30          	add    $0x30,%rsp
   1bf50:	41 5e                	pop    %r14
   1bf52:	41 5d                	pop    %r13
   1bf54:	41 5c                	pop    %r12
   1bf56:	c3                   	retq   
   1bf57:	cc                   	int3   
   1bf58:	cc                   	int3   
   1bf59:	cc                   	int3   
   1bf5a:	cc                   	int3   
   1bf5b:	cc                   	int3   
   1bf5c:	cc                   	int3   
   1bf5d:	cc                   	int3   
   1bf5e:	cc                   	int3   
   1bf5f:	cc                   	int3   
   1bf60:	48 85 d2             	test   %rdx,%rdx
   1bf63:	74 2a                	je     0x1bf8f
   1bf65:	45 85 c0             	test   %r8d,%r8d
   1bf68:	74 25                	je     0x1bf8f
   1bf6a:	45 8b c8             	mov    %r8d,%r9d
   1bf6d:	69 c9 0d 66 19 00    	imul   $0x19660d,%ecx,%ecx
   1bf73:	81 c1 5f f3 6e 3c    	add    $0x3c6ef35f,%ecx
   1bf79:	8b c1                	mov    %ecx,%eax
   1bf7b:	c1 e8 10             	shr    $0x10,%eax
   1bf7e:	66 0d 00 80          	or     $0x8000,%ax
   1bf82:	66 31 02             	xor    %ax,(%rdx)
   1bf85:	48 83 c2 02          	add    $0x2,%rdx
   1bf89:	49 83 e9 01          	sub    $0x1,%r9
   1bf8d:	75 de                	jne    0x1bf6d
   1bf8f:	c3                   	retq   
   1bf90:	cc                   	int3   
   1bf91:	cc                   	int3   
   1bf92:	cc                   	int3   
   1bf93:	cc                   	int3   
   1bf94:	cc                   	int3   
   1bf95:	cc                   	int3   
   1bf96:	cc                   	int3   
   1bf97:	cc                   	int3   
   1bf98:	48 85 d2             	test   %rdx,%rdx
   1bf9b:	74 27                	je     0x1bfc4
   1bf9d:	45 85 c0             	test   %r8d,%r8d
   1bfa0:	74 22                	je     0x1bfc4
   1bfa2:	45 8b c8             	mov    %r8d,%r9d
   1bfa5:	69 c9 0d 66 19 00    	imul   $0x19660d,%ecx,%ecx
   1bfab:	81 c1 5f f3 6e 3c    	add    $0x3c6ef35f,%ecx
   1bfb1:	8b c1                	mov    %ecx,%eax
   1bfb3:	c1 e8 10             	shr    $0x10,%eax
   1bfb6:	0c 80                	or     $0x80,%al
   1bfb8:	30 02                	xor    %al,(%rdx)
   1bfba:	48 83 c2 01          	add    $0x1,%rdx
   1bfbe:	49 83 e9 01          	sub    $0x1,%r9
   1bfc2:	75 e1                	jne    0x1bfa5
   1bfc4:	c3                   	retq   
   1bfc5:	cc                   	int3   
   1bfc6:	cc                   	int3   
   1bfc7:	cc                   	int3   
   1bfc8:	cc                   	int3   
   1bfc9:	cc                   	int3   
   1bfca:	cc                   	int3   
   1bfcb:	cc                   	int3   
   1bfcc:	48 85 d2             	test   %rdx,%rdx
   1bfcf:	74 28                	je     0x1bff9
   1bfd1:	57                   	push   %rdi
   1bfd2:	48 83 ec 20          	sub    $0x20,%rsp
   1bfd6:	44 8b c9             	mov    %ecx,%r9d
   1bfd9:	48 83 c9 ff          	or     $0xffffffffffffffff,%rcx
   1bfdd:	33 c0                	xor    %eax,%eax
   1bfdf:	48 8b fa             	mov    %rdx,%rdi
   1bfe2:	66 f2 af             	repnz scas %es:(%rdi),%ax
   1bfe5:	48 f7 d1             	not    %rcx
   1bfe8:	4c 8d 41 ff          	lea    -0x1(%rcx),%r8
   1bfec:	41 8b c9             	mov    %r9d,%ecx
   1bfef:	e8 6c ff ff ff       	callq  0x1bf60
   1bff4:	48 83 c4 20          	add    $0x20,%rsp
   1bff8:	5f                   	pop    %rdi
   1bff9:	c3                   	retq   
   1bffa:	cc                   	int3   
   1bffb:	cc                   	int3   
   1bffc:	cc                   	int3   
   1bffd:	cc                   	int3   
   1bffe:	cc                   	int3   
   1bfff:	cc                   	int3   
   1c000:	48 85 d2             	test   %rdx,%rdx
   1c003:	74 27                	je     0x1c02c
   1c005:	57                   	push   %rdi
   1c006:	48 83 ec 20          	sub    $0x20,%rsp
   1c00a:	44 8b c9             	mov    %ecx,%r9d
   1c00d:	48 83 c9 ff          	or     $0xffffffffffffffff,%rcx
   1c011:	33 c0                	xor    %eax,%eax
   1c013:	48 8b fa             	mov    %rdx,%rdi
   1c016:	f2 ae                	repnz scas %es:(%rdi),%al
   1c018:	48 f7 d1             	not    %rcx
   1c01b:	4c 8d 41 ff          	lea    -0x1(%rcx),%r8
   1c01f:	41 8b c9             	mov    %r9d,%ecx
   1c022:	e8 71 ff ff ff       	callq  0x1bf98
   1c027:	48 83 c4 20          	add    $0x20,%rsp
   1c02b:	5f                   	pop    %rdi
   1c02c:	c3                   	retq   
   1c02d:	cc                   	int3   
   1c02e:	cc                   	int3   
   1c02f:	cc                   	int3   
   1c030:	cc                   	int3   
   1c031:	cc                   	int3   
   1c032:	cc                   	int3   
   1c033:	cc                   	int3   
   1c034:	48 8b c4             	mov    %rsp,%rax
   1c037:	48 89 70 08          	mov    %rsi,0x8(%rax)
   1c03b:	48 89 78 10          	mov    %rdi,0x10(%rax)
   1c03f:	48 8b f9             	mov    %rcx,%rdi
   1c042:	48 8b f2             	mov    %rdx,%rsi
   1c045:	49 8b c8             	mov    %r8,%rcx
   1c048:	f3 a4                	rep movsb %ds:(%rsi),%es:(%rdi)
   1c04a:	48 8b 70 08          	mov    0x8(%rax),%rsi
   1c04e:	48 8b 78 10          	mov    0x10(%rax),%rdi
   1c052:	c3                   	retq   
   1c053:	cc                   	int3   
   1c054:	cc                   	int3   
   1c055:	cc                   	int3   
   1c056:	cc                   	int3   
   1c057:	cc                   	int3   
   1c058:	cc                   	int3   
   1c059:	cc                   	int3   
   1c05a:	cc                   	int3   
   1c05b:	cc                   	int3   
   1c05c:	48 89 7c 24 08       	mov    %rdi,0x8(%rsp)
   1c061:	48 8b f9             	mov    %rcx,%rdi
   1c064:	8a c2                	mov    %dl,%al
   1c066:	49 8b c8             	mov    %r8,%rcx
   1c069:	f3 aa                	rep stos %al,%es:(%rdi)
   1c06b:	48 8b 7c 24 08       	mov    0x8(%rsp),%rdi
   1c070:	c3                   	retq   
   1c071:	cc                   	int3   
   1c072:	cc                   	int3   
   1c073:	cc                   	int3   
   1c074:	cc                   	int3   
   1c075:	cc                   	int3   
   1c076:	cc                   	int3   
   1c077:	cc                   	int3   
   1c078:	48 85 c9             	test   %rcx,%rcx
   1c07b:	74 05                	je     0x1c082
   1c07d:	48 85 d2             	test   %rdx,%rdx
   1c080:	75 2b                	jne    0x1c0ad
   1c082:	32 c0                	xor    %al,%al
   1c084:	c3                   	retq   
   1c085:	41 8d 40 9f          	lea    -0x61(%r8),%eax
   1c089:	3c 19                	cmp    $0x19,%al
   1c08b:	77 04                	ja     0x1c091
   1c08d:	41 80 e8 20          	sub    $0x20,%r8b
   1c091:	44 8a 0a             	mov    (%rdx),%r9b
   1c094:	41 8d 41 9f          	lea    -0x61(%r9),%eax
   1c098:	3c 19                	cmp    $0x19,%al
   1c09a:	77 04                	ja     0x1c0a0
   1c09c:	41 80 e9 20          	sub    $0x20,%r9b
   1c0a0:	45 3a c1             	cmp    %r9b,%r8b
   1c0a3:	75 dd                	jne    0x1c082
   1c0a5:	48 83 c1 01          	add    $0x1,%rcx
   1c0a9:	48 83 c2 01          	add    $0x1,%rdx
   1c0ad:	44 8a 01             	mov    (%rcx),%r8b
   1c0b0:	45 84 c0             	test   %r8b,%r8b
   1c0b3:	75 d0                	jne    0x1c085
   1c0b5:	44 38 02             	cmp    %r8b,(%rdx)
   1c0b8:	0f 94 c0             	sete   %al
   1c0bb:	c3                   	retq   
   1c0bc:	cc                   	int3   
   1c0bd:	cc                   	int3   
   1c0be:	cc                   	int3   
   1c0bf:	cc                   	int3   
   1c0c0:	cc                   	int3   
   1c0c1:	cc                   	int3   
   1c0c2:	cc                   	int3   
   1c0c3:	cc                   	int3   
   1c0c4:	4c 89 44 24 18       	mov    %r8,0x18(%rsp)
   1c0c9:	89 54 24 10          	mov    %edx,0x10(%rsp)
   1c0cd:	48 89 4c 24 08       	mov    %rcx,0x8(%rsp)
   1c0d2:	48 8b 44 24 18       	mov    0x18(%rsp),%rax
   1c0d7:	48 8b 4c 24 18       	mov    0x18(%rsp),%rcx
   1c0dc:	48 83 e9 01          	sub    $0x1,%rcx
   1c0e0:	48 89 4c 24 18       	mov    %rcx,0x18(%rsp)
   1c0e5:	48 85 c0             	test   %rax,%rax
   1c0e8:	74 18                	je     0x1c102
   1c0ea:	48 8b 44 24 18       	mov    0x18(%rsp),%rax
   1c0ef:	48 8b 4c 24 08       	mov    0x8(%rsp),%rcx
   1c0f4:	48 03 c8             	add    %rax,%rcx
   1c0f7:	48 8b c1             	mov    %rcx,%rax
   1c0fa:	8a 4c 24 10          	mov    0x10(%rsp),%cl
   1c0fe:	88 08                	mov    %cl,(%rax)
   1c100:	eb d0                	jmp    0x1c0d2
   1c102:	48 8b 44 24 08       	mov    0x8(%rsp),%rax
   1c107:	c3                   	retq   
   1c108:	cc                   	int3   
   1c109:	cc                   	int3   
   1c10a:	cc                   	int3   
   1c10b:	cc                   	int3   
   1c10c:	cc                   	int3   
   1c10d:	cc                   	int3   
   1c10e:	cc                   	int3   
   1c10f:	cc                   	int3   
   1c110:	48 89 5c 24 08       	mov    %rbx,0x8(%rsp)
   1c115:	41 83 c9 ff          	or     $0xffffffff,%r9d
   1c119:	48 85 c9             	test   %rcx,%rcx
   1c11c:	8b da                	mov    %edx,%ebx
   1c11e:	74 6f                	je     0x1c18f
   1c120:	45 33 c0             	xor    %r8d,%r8d
   1c123:	48 8b c1             	mov    %rcx,%rax
   1c126:	44 38 01             	cmp    %r8b,(%rcx)
   1c129:	74 0d                	je     0x1c138
   1c12b:	48 83 c0 01          	add    $0x1,%rax
   1c12f:	41 83 c0 01          	add    $0x1,%r8d
   1c133:	80 38 00             	cmpb   $0x0,(%rax)
   1c136:	75 f3                	jne    0x1c12b
   1c138:	45 85 c0             	test   %r8d,%r8d
   1c13b:	74 52                	je     0x1c18f
   1c13d:	45 33 c9             	xor    %r9d,%r9d
   1c140:	49 63 c0             	movslq %r8d,%rax
   1c143:	45 8d 59 01          	lea    0x1(%r9),%r11d
   1c147:	4c 8d 54 08 ff       	lea    -0x1(%rax,%rcx,1),%r10
   1c14c:	41 0f be 0a          	movsbl (%r10),%ecx
   1c150:	8b d1                	mov    %ecx,%edx
   1c152:	8d 41 d0             	lea    -0x30(%rcx),%eax
   1c155:	85 c0                	test   %eax,%eax
   1c157:	78 05                	js     0x1c15e
   1c159:	83 f8 09             	cmp    $0x9,%eax
   1c15c:	7e 1c                	jle    0x1c17a
   1c15e:	83 fb 10             	cmp    $0x10,%ebx
   1c161:	75 35                	jne    0x1c198
   1c163:	8d 41 bf             	lea    -0x41(%rcx),%eax
   1c166:	3c 05                	cmp    $0x5,%al
   1c168:	77 05                	ja     0x1c16f
   1c16a:	8d 42 c9             	lea    -0x37(%rdx),%eax
   1c16d:	eb 0b                	jmp    0x1c17a
   1c16f:	80 e9 61             	sub    $0x61,%cl
   1c172:	80 f9 05             	cmp    $0x5,%cl
   1c175:	77 21                	ja     0x1c198
   1c177:	8d 42 a9             	lea    -0x57(%rdx),%eax
   1c17a:	41 0f af c3          	imul   %r11d,%eax
   1c17e:	49 83 ea 01          	sub    $0x1,%r10
   1c182:	44 0f af db          	imul   %ebx,%r11d
   1c186:	44 03 c8             	add    %eax,%r9d
   1c189:	41 83 c0 ff          	add    $0xffffffff,%r8d
   1c18d:	75 bd                	jne    0x1c14c
   1c18f:	41 8b c1             	mov    %r9d,%eax
   1c192:	48 8b 5c 24 08       	mov    0x8(%rsp),%rbx
   1c197:	c3                   	retq   
   1c198:	83 c8 ff             	or     $0xffffffff,%eax
   1c19b:	eb f5                	jmp    0x1c192
   1c19d:	cc                   	int3   
   1c19e:	cc                   	int3   
   1c19f:	cc                   	int3   
   1c1a0:	cc                   	int3   
   1c1a1:	cc                   	int3   
   1c1a2:	cc                   	int3   
   1c1a3:	cc                   	int3   
   1c1a4:	ba 0a 00 00 00       	mov    $0xa,%edx
   1c1a9:	e9 62 ff ff ff       	jmpq   0x1c110
   1c1ae:	cc                   	int3   
   1c1af:	cc                   	int3   
   1c1b0:	cc                   	int3   
   1c1b1:	cc                   	int3   
   1c1b2:	cc                   	int3   
   1c1b3:	cc                   	int3   
   1c1b4:	48 85 c9             	test   %rcx,%rcx
   1c1b7:	74 2e                	je     0x1c1e7
   1c1b9:	48 85 d2             	test   %rdx,%rdx
   1c1bc:	74 29                	je     0x1c1e7
   1c1be:	8a 01                	mov    (%rcx),%al
   1c1c0:	45 33 c0             	xor    %r8d,%r8d
   1c1c3:	4c 8b ca             	mov    %rdx,%r9
   1c1c6:	0f be c0             	movsbl %al,%eax
   1c1c9:	48 83 c1 01          	add    $0x1,%rcx
   1c1cd:	41 83 c0 01          	add    $0x1,%r8d
   1c1d1:	66 41 89 01          	mov    %ax,(%r9)
   1c1d5:	8a 01                	mov    (%rcx),%al
   1c1d7:	49 83 c1 02          	add    $0x2,%r9
   1c1db:	84 c0                	test   %al,%al
   1c1dd:	75 e7                	jne    0x1c1c6
   1c1df:	49 63 c0             	movslq %r8d,%rax
   1c1e2:	66 83 24 42 00       	andw   $0x0,(%rdx,%rax,2)
   1c1e7:	c3                   	retq   
   1c1e8:	cc                   	int3   
   1c1e9:	cc                   	int3   
   1c1ea:	cc                   	int3   
   1c1eb:	cc                   	int3   
   1c1ec:	cc                   	int3   
   1c1ed:	cc                   	int3   
   1c1ee:	cc                   	int3   
   1c1ef:	cc                   	int3   
   1c1f0:	48 85 c9             	test   %rcx,%rcx
   1c1f3:	74 2b                	je     0x1c220
   1c1f5:	48 85 d2             	test   %rdx,%rdx
   1c1f8:	74 26                	je     0x1c220
   1c1fa:	45 33 c0             	xor    %r8d,%r8d
   1c1fd:	48 8b c1             	mov    %rcx,%rax
   1c200:	45 33 c9             	xor    %r9d,%r9d
   1c203:	8a 00                	mov    (%rax),%al
   1c205:	41 83 c0 01          	add    $0x1,%r8d
   1c209:	41 88 04 11          	mov    %al,(%r9,%rdx,1)
   1c20d:	49 83 c1 01          	add    $0x1,%r9
   1c211:	4a 8d 04 49          	lea    (%rcx,%r9,2),%rax
   1c215:	66 83 38 00          	cmpw   $0x0,(%rax)
   1c219:	75 e8                	jne    0x1c203
   1c21b:	41 c6 04 10 00       	movb   $0x0,(%r8,%rdx,1)
   1c220:	c3                   	retq   
   1c221:	cc                   	int3   
   1c222:	cc                   	int3   
   1c223:	cc                   	int3   
   1c224:	cc                   	int3   
   1c225:	cc                   	int3   
   1c226:	cc                   	int3   
   1c227:	cc                   	int3   
   1c228:	48 85 c9             	test   %rcx,%rcx
   1c22b:	48 8b c1             	mov    %rcx,%rax
   1c22e:	75 01                	jne    0x1c231
   1c230:	c3                   	retq   
   1c231:	8a 09                	mov    (%rcx),%cl
   1c233:	33 d2                	xor    %edx,%edx
   1c235:	eb 11                	jmp    0x1c248
   1c237:	0f be c9             	movsbl %cl,%ecx
   1c23a:	69 c9 79 b6 73 f6    	imul   $0xf673b679,%ecx,%ecx
   1c240:	33 d1                	xor    %ecx,%edx
   1c242:	48 83 c0 01          	add    $0x1,%rax
   1c246:	8a 08                	mov    (%rax),%cl
   1c248:	84 c9                	test   %cl,%cl
   1c24a:	75 eb                	jne    0x1c237
   1c24c:	8b c2                	mov    %edx,%eax
   1c24e:	c3                   	retq   
   1c24f:	cc                   	int3   
   1c250:	cc                   	int3   
   1c251:	cc                   	int3   
   1c252:	cc                   	int3   
   1c253:	cc                   	int3   
   1c254:	cc                   	int3   
   1c255:	cc                   	int3   
   1c256:	cc                   	int3   
   1c257:	cc                   	int3   
   1c258:	48 85 c9             	test   %rcx,%rcx
   1c25b:	75 03                	jne    0x1c260
   1c25d:	33 c0                	xor    %eax,%eax
   1c25f:	c3                   	retq   
   1c260:	b8 05 15 00 00       	mov    $0x1505,%eax
   1c265:	eb 0b                	jmp    0x1c272
   1c267:	48 6b c0 21          	imul   $0x21,%rax,%rax
   1c26b:	48 03 c2             	add    %rdx,%rax
   1c26e:	48 83 c1 01          	add    $0x1,%rcx
   1c272:	48 0f be 11          	movsbq (%rcx),%rdx
   1c276:	48 85 d2             	test   %rdx,%rdx
   1c279:	75 ec                	jne    0x1c267
   1c27b:	c3                   	retq   
   1c27c:	cc                   	int3   
   1c27d:	cc                   	int3   
   1c27e:	cc                   	int3   
   1c27f:	cc                   	int3   
   1c280:	cc                   	int3   
   1c281:	cc                   	int3   
   1c282:	cc                   	int3   
   1c283:	cc                   	int3   
   1c284:	48 8b c4             	mov    %rsp,%rax
   1c287:	48 89 58 08          	mov    %rbx,0x8(%rax)
   1c28b:	48 89 68 10          	mov    %rbp,0x10(%rax)
   1c28f:	48 89 70 18          	mov    %rsi,0x18(%rax)
   1c293:	48 89 78 20          	mov    %rdi,0x20(%rax)
   1c297:	41 54                	push   %r12
   1c299:	48 81 ec 30 01 00 00 	sub    $0x130,%rsp
   1c2a0:	33 db                	xor    %ebx,%ebx
   1c2a2:	41 8b f9             	mov    %r9d,%edi
   1c2a5:	41 8a e8             	mov    %r8b,%bpl
   1c2a8:	48 3b cb             	cmp    %rbx,%rcx
   1c2ab:	4c 8b e2             	mov    %rdx,%r12
   1c2ae:	48 8b f1             	mov    %rcx,%rsi
   1c2b1:	0f 84 b0 00 00 00    	je     0x1c367
   1c2b7:	44 3b cb             	cmp    %ebx,%r9d
   1c2ba:	75 14                	jne    0x1c2d0
   1c2bc:	38 19                	cmp    %bl,(%rcx)
   1c2be:	8b fb                	mov    %ebx,%edi
   1c2c0:	48 8b c1             	mov    %rcx,%rax
   1c2c3:	74 0b                	je     0x1c2d0
   1c2c5:	48 83 c0 01          	add    $0x1,%rax
   1c2c9:	83 c7 01             	add    $0x1,%edi
   1c2cc:	38 18                	cmp    %bl,(%rax)
   1c2ce:	75 f5                	jne    0x1c2c5
   1c2d0:	81 ff 04 01 00 00    	cmp    $0x104,%edi
   1c2d6:	0f 8d 8b 00 00 00    	jge    0x1c367
   1c2dc:	48 8d 4c 24 20       	lea    0x20(%rsp),%rcx
   1c2e1:	33 d2                	xor    %edx,%edx
   1c2e3:	41 b8 04 01 00 00    	mov    $0x104,%r8d
   1c2e9:	e8 d6 fd ff ff       	callq  0x1c0c4
   1c2ee:	4c 63 c7             	movslq %edi,%r8
   1c2f1:	4c 8b db             	mov    %rbx,%r11
   1c2f4:	4c 3b c3             	cmp    %rbx,%r8
   1c2f7:	7e 0f                	jle    0x1c308
   1c2f9:	41 38 1c 33          	cmp    %bl,(%r11,%rsi,1)
   1c2fd:	74 68                	je     0x1c367
   1c2ff:	49 83 c3 01          	add    $0x1,%r11
   1c303:	4d 3b d8             	cmp    %r8,%r11
   1c306:	7c f1                	jl     0x1c2f9
   1c308:	48 8d 4c 24 20       	lea    0x20(%rsp),%rcx
   1c30d:	48 8b d6             	mov    %rsi,%rdx
   1c310:	e8 1f fd ff ff       	callq  0x1c034
   1c315:	40 3a eb             	cmp    %bl,%bpl
   1c318:	74 2b                	je     0x1c345
   1c31a:	48 8d 44 24 20       	lea    0x20(%rsp),%rax
   1c31f:	48 8d 54 24 20       	lea    0x20(%rsp),%rdx
   1c324:	48 3b c3             	cmp    %rbx,%rax
   1c327:	74 1c                	je     0x1c345
   1c329:	38 5c 24 20          	cmp    %bl,0x20(%rsp)
   1c32d:	74 16                	je     0x1c345
   1c32f:	8a 0a                	mov    (%rdx),%cl
   1c331:	8d 41 9f             	lea    -0x61(%rcx),%eax
   1c334:	3c 19                	cmp    $0x19,%al
   1c336:	77 03                	ja     0x1c33b
   1c338:	80 e9 20             	sub    $0x20,%cl
   1c33b:	88 0a                	mov    %cl,(%rdx)
   1c33d:	48 83 c2 01          	add    $0x1,%rdx
   1c341:	38 1a                	cmp    %bl,(%rdx)
   1c343:	75 ea                	jne    0x1c32f
   1c345:	48 8d 4c 24 20       	lea    0x20(%rsp),%rcx
   1c34a:	e8 09 ff ff ff       	callq  0x1c258
   1c34f:	48 8d 4c 24 20       	lea    0x20(%rsp),%rcx
   1c354:	41 b8 04 01 00 00    	mov    $0x104,%r8d
   1c35a:	49 3b c4             	cmp    %r12,%rax
   1c35d:	0f 94 c3             	sete   %bl
   1c360:	33 d2                	xor    %edx,%edx
   1c362:	e8 5d fd ff ff       	callq  0x1c0c4
   1c367:	4c 8d 9c 24 30 01 00 	lea    0x130(%rsp),%r11
   1c36e:	00 
   1c36f:	8a c3                	mov    %bl,%al
   1c371:	49 8b 5b 10          	mov    0x10(%r11),%rbx
   1c375:	49 8b 6b 18          	mov    0x18(%r11),%rbp
   1c379:	49 8b 73 20          	mov    0x20(%r11),%rsi
   1c37d:	49 8b 7b 28          	mov    0x28(%r11),%rdi
   1c381:	49 8b e3             	mov    %r11,%rsp
   1c384:	41 5c                	pop    %r12
   1c386:	c3                   	retq   
   1c387:	cc                   	int3   
   1c388:	cc                   	int3   
   1c389:	cc                   	int3   
   1c38a:	cc                   	int3   
   1c38b:	cc                   	int3   
   1c38c:	cc                   	int3   
   1c38d:	cc                   	int3   
   1c38e:	cc                   	int3   
   1c38f:	cc                   	int3   
   1c390:	45 33 c9             	xor    %r9d,%r9d
   1c393:	e9 ec fe ff ff       	jmpq   0x1c284
   1c398:	cc                   	int3   
   1c399:	cc                   	int3   
   1c39a:	cc                   	int3   
   1c39b:	cc                   	int3   
   1c39c:	cc                   	int3   
   1c39d:	cc                   	int3   
   1c39e:	cc                   	int3   
   1c39f:	cc                   	int3   
   1c3a0:	0f b7 c2             	movzwl %dx,%eax
   1c3a3:	83 f8 03             	cmp    $0x3,%eax
   1c3a6:	74 0a                	je     0x1c3b2
   1c3a8:	83 f8 0a             	cmp    $0xa,%eax
   1c3ab:	75 08                	jne    0x1c3b5
   1c3ad:	4c 01 01             	add    %r8,(%rcx)
   1c3b0:	eb 03                	jmp    0x1c3b5
   1c3b2:	44 01 01             	add    %r8d,(%rcx)
   1c3b5:	33 c0                	xor    %eax,%eax
   1c3b7:	c3                   	retq   
   1c3b8:	cc                   	int3   
   1c3b9:	cc                   	int3   
   1c3ba:	cc                   	int3   
   1c3bb:	cc                   	int3   
   1c3bc:	cc                   	int3   
   1c3bd:	cc                   	int3   
   1c3be:	cc                   	int3   
   1c3bf:	cc                   	int3   
   1c3c0:	48 89 5c 24 08       	mov    %rbx,0x8(%rsp)
   1c3c5:	4c 63 4a 3c          	movslq 0x3c(%rdx),%r9
   1c3c9:	49 8b d8             	mov    %r8,%rbx
   1c3cc:	4c 8b da             	mov    %rdx,%r11
   1c3cf:	4c 03 ca             	add    %rdx,%r9
   1c3d2:	44 8b d1             	mov    %ecx,%r10d
   1c3d5:	41 3b 49 54          	cmp    0x54(%r9),%ecx
   1c3d9:	73 09                	jae    0x1c3e4
   1c3db:	4a 8d 04 12          	lea    (%rdx,%r10,1),%rax
   1c3df:	49 89 00             	mov    %rax,(%r8)
   1c3e2:	eb 4e                	jmp    0x1c432
   1c3e4:	41 0f b7 41 14       	movzwl 0x14(%r9),%eax
   1c3e9:	45 33 c0             	xor    %r8d,%r8d
   1c3ec:	4a 8d 54 08 18       	lea    0x18(%rax,%r9,1),%rdx
   1c3f1:	45 0f b7 49 06       	movzwl 0x6(%r9),%r9d
   1c3f6:	45 3b c1             	cmp    %r9d,%r8d
   1c3f9:	7d 22                	jge    0x1c41d
   1c3fb:	8b 4a 14             	mov    0x14(%rdx),%ecx
   1c3fe:	41 3b ca             	cmp    %r10d,%ecx
   1c401:	77 0a                	ja     0x1c40d
   1c403:	8b 42 10             	mov    0x10(%rdx),%eax
   1c406:	03 c8                	add    %eax,%ecx
   1c408:	44 3b d1             	cmp    %ecx,%r10d
   1c40b:	72 0d                	jb     0x1c41a
   1c40d:	41 83 c0 01          	add    $0x1,%r8d
   1c411:	48 83 c2 28          	add    $0x28,%rdx
   1c415:	45 3b c1             	cmp    %r9d,%r8d
   1c418:	7c e1                	jl     0x1c3fb
   1c41a:	45 3b c1             	cmp    %r9d,%r8d
   1c41d:	75 04                	jne    0x1c423
   1c41f:	32 c0                	xor    %al,%al
   1c421:	eb 11                	jmp    0x1c434
   1c423:	8b 42 0c             	mov    0xc(%rdx),%eax
   1c426:	2b 42 14             	sub    0x14(%rdx),%eax
   1c429:	41 03 c2             	add    %r10d,%eax
   1c42c:	49 03 c3             	add    %r11,%rax
   1c42f:	48 89 03             	mov    %rax,(%rbx)
   1c432:	b0 01                	mov    $0x1,%al
   1c434:	48 8b 5c 24 08       	mov    0x8(%rsp),%rbx
   1c439:	c3                   	retq   
   1c43a:	cc                   	int3   
   1c43b:	cc                   	int3   
   1c43c:	cc                   	int3   
   1c43d:	cc                   	int3   
   1c43e:	cc                   	int3   
   1c43f:	cc                   	int3   
   1c440:	4c 63 51 3c          	movslq 0x3c(%rcx),%r10
   1c444:	44 8b c2             	mov    %edx,%r8d
   1c447:	4c 03 d1             	add    %rcx,%r10
   1c44a:	41 3b 52 54          	cmp    0x54(%r10),%edx
   1c44e:	73 03                	jae    0x1c453
   1c450:	8b c2                	mov    %edx,%eax
   1c452:	c3                   	retq   
   1c453:	41 0f b7 42 14       	movzwl 0x14(%r10),%eax
   1c458:	45 0f b7 5a 06       	movzwl 0x6(%r10),%r11d
   1c45d:	45 33 c9             	xor    %r9d,%r9d
   1c460:	45 3b d9             	cmp    %r9d,%r11d
   1c463:	4a 8d 54 10 18       	lea    0x18(%rax,%r10,1),%rdx
   1c468:	7e 1d                	jle    0x1c487
   1c46a:	8b 4a 0c             	mov    0xc(%rdx),%ecx
   1c46d:	41 3b c8             	cmp    %r8d,%ecx
   1c470:	77 08                	ja     0x1c47a
   1c472:	03 4a 08             	add    0x8(%rdx),%ecx
   1c475:	44 3b c1             	cmp    %ecx,%r8d
   1c478:	72 11                	jb     0x1c48b
   1c47a:	41 83 c1 01          	add    $0x1,%r9d
   1c47e:	48 83 c2 28          	add    $0x28,%rdx
   1c482:	45 3b cb             	cmp    %r11d,%r9d
   1c485:	7c e3                	jl     0x1c46a
   1c487:	83 c8 ff             	or     $0xffffffff,%eax
   1c48a:	c3                   	retq   
   1c48b:	8b 42 14             	mov    0x14(%rdx),%eax
   1c48e:	2b 42 0c             	sub    0xc(%rdx),%eax
   1c491:	41 03 c0             	add    %r8d,%eax
   1c494:	c3                   	retq   
   1c495:	cc                   	int3   
   1c496:	cc                   	int3   
   1c497:	cc                   	int3   
   1c498:	cc                   	int3   
   1c499:	cc                   	int3   
   1c49a:	cc                   	int3   
   1c49b:	cc                   	int3   
   1c49c:	48 89 5c 24 08       	mov    %rbx,0x8(%rsp)
   1c4a1:	48 89 6c 24 10       	mov    %rbp,0x10(%rsp)
   1c4a6:	48 89 74 24 18       	mov    %rsi,0x18(%rsp)
   1c4ab:	41 54                	push   %r12
   1c4ad:	48 83 ec 20          	sub    $0x20,%rsp
   1c4b1:	8b f2                	mov    %edx,%esi
   1c4b3:	49 8b e9             	mov    %r9,%rbp
   1c4b6:	4d 8b e0             	mov    %r8,%r12
   1c4b9:	48 8d 5e ff          	lea    -0x1(%rsi),%rbx
   1c4bd:	48 f7 d3             	not    %rbx
   1c4c0:	48 23 d9             	and    %rcx,%rbx
   1c4c3:	48 83 7c 24 50 00    	cmpq   $0x0,0x50(%rsp)
   1c4c9:	74 0b                	je     0x1c4d6
   1c4cb:	48 8b cb             	mov    %rbx,%rcx
   1c4ce:	ff 54 24 50          	callq  *0x50(%rsp)
   1c4d2:	3c 01                	cmp    $0x1,%al
   1c4d4:	75 1e                	jne    0x1c4f4
   1c4d6:	81 3b 4d 5a 90 00    	cmpl   $0x905a4d,(%rbx)
   1c4dc:	75 16                	jne    0x1c4f4
   1c4de:	81 7b 3c 00 40 00 00 	cmpl   $0x4000,0x3c(%rbx)
   1c4e5:	7d 0d                	jge    0x1c4f4
   1c4e7:	48 63 43 3c          	movslq 0x3c(%rbx),%rax
   1c4eb:	81 3c 18 50 45 00 00 	cmpl   $0x4550,(%rax,%rbx,1)
   1c4f2:	74 05                	je     0x1c4f9
   1c4f4:	48 2b de             	sub    %rsi,%rbx
   1c4f7:	eb ca                	jmp    0x1c4c3
   1c4f9:	48 63 43 3c          	movslq 0x3c(%rbx),%rax
   1c4fd:	48 8b 74 24 40       	mov    0x40(%rsp),%rsi
   1c502:	8b 4c 18 50          	mov    0x50(%rax,%rbx,1),%ecx
   1c506:	49 89 1c 24          	mov    %rbx,(%r12)
   1c50a:	48 8b 5c 24 30       	mov    0x30(%rsp),%rbx
   1c50f:	89 4d 00             	mov    %ecx,0x0(%rbp)
   1c512:	48 8b 6c 24 38       	mov    0x38(%rsp),%rbp
   1c517:	48 83 c4 20          	add    $0x20,%rsp
   1c51b:	41 5c                	pop    %r12
   1c51d:	c3                   	retq   
   1c51e:	cc                   	int3   
   1c51f:	cc                   	int3   
   1c520:	cc                   	int3   
   1c521:	cc                   	int3   
   1c522:	cc                   	int3   
   1c523:	cc                   	int3   
   1c524:	48 83 ec 18          	sub    $0x18,%rsp
   1c528:	8a c2                	mov    %dl,%al
   1c52a:	4c 8b d9             	mov    %rcx,%r11
   1c52d:	c7 04 24 01 00 00 c0 	movl   $0xc0000001,(%rsp)
   1c534:	45 33 d2             	xor    %r10d,%r10d
   1c537:	49 3b ca             	cmp    %r10,%rcx
   1c53a:	74 62                	je     0x1c59e
   1c53c:	4d 3b ca             	cmp    %r10,%r9
   1c53f:	74 5d                	je     0x1c59e
   1c541:	4d 3b c2             	cmp    %r10,%r8
   1c544:	74 58                	je     0x1c59e
   1c546:	48 63 51 3c          	movslq 0x3c(%rcx),%rdx
   1c54a:	48 03 d1             	add    %rcx,%rdx
   1c54d:	75 0c                	jne    0x1c55b
   1c54f:	41 ba 0d 00 00 c0    	mov    $0xc000000d,%r10d
   1c555:	44 89 14 24          	mov    %r10d,(%rsp)
   1c559:	eb 4d                	jmp    0x1c5a8
   1c55b:	41 3a c2             	cmp    %r10b,%al
   1c55e:	75 12                	jne    0x1c572
   1c560:	0f b7 42 14          	movzwl 0x14(%rdx),%eax
   1c564:	8b 4c 10 2c          	mov    0x2c(%rax,%rdx,1),%ecx
   1c568:	8b 44 10 24          	mov    0x24(%rax,%rdx,1),%eax
   1c56c:	48 2b c8             	sub    %rax,%rcx
   1c56f:	4c 03 d9             	add    %rcx,%r11
   1c572:	8b 82 a0 00 00 00    	mov    0xa0(%rdx),%eax
   1c578:	49 03 c3             	add    %r11,%rax
   1c57b:	49 89 00             	mov    %rax,(%r8)
   1c57e:	8b 8a a4 00 00 00    	mov    0xa4(%rdx),%ecx
   1c584:	48 b8 ab aa aa aa aa 	movabs $0xaaaaaaaaaaaaaaab,%rax
   1c58b:	aa aa aa 
   1c58e:	48 f7 e1             	mul    %rcx
   1c591:	48 c1 ea 03          	shr    $0x3,%rdx
   1c595:	49 89 11             	mov    %rdx,(%r9)
   1c598:	44 89 14 24          	mov    %r10d,(%rsp)
   1c59c:	eb 0a                	jmp    0x1c5a8
   1c59e:	41 ba 0d 00 00 c0    	mov    $0xc000000d,%r10d
   1c5a4:	44 89 14 24          	mov    %r10d,(%rsp)
   1c5a8:	eb 04                	jmp    0x1c5ae
   1c5aa:	44 8b 14 24          	mov    (%rsp),%r10d
   1c5ae:	41 8b c2             	mov    %r10d,%eax
   1c5b1:	48 83 c4 18          	add    $0x18,%rsp
   1c5b5:	c3                   	retq   
   1c5b6:	cc                   	int3   
   1c5b7:	cc                   	int3   
   1c5b8:	cc                   	int3   
   1c5b9:	cc                   	int3   
   1c5ba:	cc                   	int3   
   1c5bb:	cc                   	int3   
   1c5bc:	48 89 5c 24 08       	mov    %rbx,0x8(%rsp)
   1c5c1:	4c 89 4c 24 20       	mov    %r9,0x20(%rsp)
   1c5c6:	55                   	push   %rbp
   1c5c7:	56                   	push   %rsi
   1c5c8:	57                   	push   %rdi
   1c5c9:	41 54                	push   %r12
   1c5cb:	41 55                	push   %r13
   1c5cd:	41 56                	push   %r14
   1c5cf:	41 57                	push   %r15
   1c5d1:	48 83 ec 20          	sub    $0x20,%rsp
   1c5d5:	4d 85 c0             	test   %r8,%r8
   1c5d8:	4d 8b f0             	mov    %r8,%r14
   1c5db:	48 8b f9             	mov    %rcx,%rdi
   1c5de:	75 0a                	jne    0x1c5ea
   1c5e0:	b8 0d 00 00 c0       	mov    $0xc000000d,%eax
   1c5e5:	e9 a2 00 00 00       	jmpq   0x1c68c
   1c5ea:	48 63 41 3c          	movslq 0x3c(%rcx),%rax
   1c5ee:	44 8b e2             	mov    %edx,%r12d
   1c5f1:	8b 94 08 b0 00 00 00 	mov    0xb0(%rax,%rcx,1),%edx
   1c5f8:	4c 03 e1             	add    %rcx,%r12
   1c5fb:	8b 8c 08 b4 00 00 00 	mov    0xb4(%rax,%rcx,1),%ecx
   1c602:	85 d2                	test   %edx,%edx
   1c604:	0f 84 80 00 00 00    	je     0x1c68a
   1c60a:	85 c9                	test   %ecx,%ecx
   1c60c:	74 7c                	je     0x1c68a
   1c60e:	48 8d 1c 17          	lea    (%rdi,%rdx,1),%rbx
   1c612:	4c 8b ef             	mov    %rdi,%r13
   1c615:	4c 2b 6c 38 30       	sub    0x30(%rax,%rdi,1),%r13
   1c61a:	48 8d 2c 0b          	lea    (%rbx,%rcx,1),%rbp
   1c61e:	48 3b dd             	cmp    %rbp,%rbx
   1c621:	73 67                	jae    0x1c68a
   1c623:	8b 73 04             	mov    0x4(%rbx),%esi
   1c626:	83 64 24 70 00       	andl   $0x0,0x70(%rsp)
   1c62b:	4c 8d 7b 08          	lea    0x8(%rbx),%r15
   1c62f:	48 83 ee 08          	sub    $0x8,%rsi
   1c633:	48 d1 ee             	shr    %rsi
   1c636:	85 f6                	test   %esi,%esi
   1c638:	74 41                	je     0x1c67b
   1c63a:	66 41 8b 17          	mov    (%r15),%dx
   1c63e:	8b ca                	mov    %edx,%ecx
   1c640:	81 e1 ff 0f 00 00    	and    $0xfff,%ecx
   1c646:	03 0b                	add    (%rbx),%ecx
   1c648:	48 03 cf             	add    %rdi,%rcx
   1c64b:	48 3b cf             	cmp    %rdi,%rcx
   1c64e:	72 33                	jb     0x1c683
   1c650:	49 3b cc             	cmp    %r12,%rcx
   1c653:	73 2e                	jae    0x1c683
   1c655:	66 c1 ea 0c          	shr    $0xc,%dx
   1c659:	4d 8b c5             	mov    %r13,%r8
   1c65c:	41 ff d6             	callq  *%r14
   1c65f:	44 8b 44 24 70       	mov    0x70(%rsp),%r8d
   1c664:	4c 8b 4c 24 78       	mov    0x78(%rsp),%r9
   1c669:	41 83 c0 01          	add    $0x1,%r8d
   1c66d:	49 83 c7 02          	add    $0x2,%r15
   1c671:	44 3b c6             	cmp    %esi,%r8d
   1c674:	44 89 44 24 70       	mov    %r8d,0x70(%rsp)
   1c679:	72 bf                	jb     0x1c63a
   1c67b:	8b 43 04             	mov    0x4(%rbx),%eax
   1c67e:	48 03 d8             	add    %rax,%rbx
   1c681:	eb 9b                	jmp    0x1c61e
   1c683:	b8 01 00 00 c0       	mov    $0xc0000001,%eax
   1c688:	eb 02                	jmp    0x1c68c
   1c68a:	33 c0                	xor    %eax,%eax
   1c68c:	48 8b 5c 24 60       	mov    0x60(%rsp),%rbx
   1c691:	48 83 c4 20          	add    $0x20,%rsp
   1c695:	41 5f                	pop    %r15
   1c697:	41 5e                	pop    %r14
   1c699:	41 5d                	pop    %r13
   1c69b:	41 5c                	pop    %r12
   1c69d:	5f                   	pop    %rdi
   1c69e:	5e                   	pop    %rsi
   1c69f:	5d                   	pop    %rbp
   1c6a0:	c3                   	retq   
   1c6a1:	cc                   	int3   
   1c6a2:	cc                   	int3   
   1c6a3:	cc                   	int3   
   1c6a4:	cc                   	int3   
   1c6a5:	cc                   	int3   
   1c6a6:	cc                   	int3   
   1c6a7:	cc                   	int3   
   1c6a8:	45 33 c0             	xor    %r8d,%r8d
   1c6ab:	44 8b d2             	mov    %edx,%r10d
   1c6ae:	49 3b c8             	cmp    %r8,%rcx
   1c6b1:	74 65                	je     0x1c718
   1c6b3:	41 83 fa 40          	cmp    $0x40,%r10d
   1c6b7:	72 5f                	jb     0x1c718
   1c6b9:	66 81 39 4d 5a       	cmpw   $0x5a4d,(%rcx)
   1c6be:	75 54                	jne    0x1c714
   1c6c0:	48 63 41 3c          	movslq 0x3c(%rcx),%rax
   1c6c4:	48 8d 14 08          	lea    (%rax,%rcx,1),%rdx
   1c6c8:	48 8d 88 08 01 00 00 	lea    0x108(%rax),%rcx
   1c6cf:	49 3b ca             	cmp    %r10,%rcx
   1c6d2:	73 40                	jae    0x1c714
   1c6d4:	81 3a 50 45 00 00    	cmpl   $0x4550,(%rdx)
   1c6da:	75 38                	jne    0x1c714
   1c6dc:	44 0f b7 5a 06       	movzwl 0x6(%rdx),%r11d
   1c6e1:	0f b7 42 14          	movzwl 0x14(%rdx),%eax
   1c6e5:	45 3b d8             	cmp    %r8d,%r11d
   1c6e8:	7e 27                	jle    0x1c711
   1c6ea:	4c 8d 4c 10 28       	lea    0x28(%rax,%rdx,1),%r9
   1c6ef:	41 8b 09             	mov    (%r9),%ecx
   1c6f2:	41 3b 49 f8          	cmp    -0x8(%r9),%ecx
   1c6f6:	41 0f 47 49 f8       	cmova  -0x8(%r9),%ecx
   1c6fb:	41 03 49 04          	add    0x4(%r9),%ecx
   1c6ff:	41 3b ca             	cmp    %r10d,%ecx
   1c702:	77 14                	ja     0x1c718
   1c704:	41 83 c0 01          	add    $0x1,%r8d
   1c708:	49 83 c1 28          	add    $0x28,%r9
   1c70c:	45 3b c3             	cmp    %r11d,%r8d
   1c70f:	7c de                	jl     0x1c6ef
   1c711:	4c 8b c2             	mov    %rdx,%r8
   1c714:	49 8b c0             	mov    %r8,%rax
   1c717:	c3                   	retq   
   1c718:	33 c0                	xor    %eax,%eax
   1c71a:	c3                   	retq   
   1c71b:	cc                   	int3   
   1c71c:	cc                   	int3   
   1c71d:	cc                   	int3   
   1c71e:	cc                   	int3   
   1c71f:	cc                   	int3   
   1c720:	cc                   	int3   
   1c721:	cc                   	int3   
   1c722:	cc                   	int3   
   1c723:	cc                   	int3   
   1c724:	48 8b c4             	mov    %rsp,%rax
   1c727:	48 89 58 08          	mov    %rbx,0x8(%rax)
   1c72b:	4c 89 48 20          	mov    %r9,0x20(%rax)
   1c72f:	4c 89 40 18          	mov    %r8,0x18(%rax)
   1c733:	48 89 50 10          	mov    %rdx,0x10(%rax)
   1c737:	55                   	push   %rbp
   1c738:	56                   	push   %rsi
   1c739:	57                   	push   %rdi
   1c73a:	41 54                	push   %r12
   1c73c:	41 55                	push   %r13
   1c73e:	41 56                	push   %r14
   1c740:	41 57                	push   %r15
   1c742:	48 83 ec 40          	sub    $0x40,%rsp
   1c746:	4c 8b e2             	mov    %rdx,%r12
   1c749:	83 ca ff             	or     $0xffffffff,%edx
   1c74c:	48 8b e9             	mov    %rcx,%rbp
   1c74f:	bb 01 00 00 c0       	mov    $0xc0000001,%ebx
   1c754:	e8 4f ff ff ff       	callq  0x1c6a8
   1c759:	48 85 c0             	test   %rax,%rax
   1c75c:	75 0a                	jne    0x1c768
   1c75e:	bb 0d 00 00 c0       	mov    $0xc000000d,%ebx
   1c763:	e9 e7 00 00 00       	jmpq   0x1c84f
   1c768:	8b 90 90 00 00 00    	mov    0x90(%rax),%edx
   1c76e:	85 d2                	test   %edx,%edx
   1c770:	0f 84 d7 00 00 00    	je     0x1c84d
   1c776:	8b 88 94 00 00 00    	mov    0x94(%rax),%ecx
   1c77c:	85 c9                	test   %ecx,%ecx
   1c77e:	0f 84 c9 00 00 00    	je     0x1c84d
   1c784:	48 8d 34 11          	lea    (%rcx,%rdx,1),%rsi
   1c788:	48 8d 3c 2a          	lea    (%rdx,%rbp,1),%rdi
   1c78c:	48 03 f5             	add    %rbp,%rsi
   1c78f:	e9 ae 00 00 00       	jmpq   0x1c842
   1c794:	83 7f 0c 00          	cmpl   $0x0,0xc(%rdi)
   1c798:	0f 84 b1 00 00 00    	je     0x1c84f
   1c79e:	44 8b 77 0c          	mov    0xc(%rdi),%r14d
   1c7a2:	4c 03 f5             	add    %rbp,%r14
   1c7a5:	49 8b ce             	mov    %r14,%rcx
   1c7a8:	41 ff d4             	callq  *%r12
   1c7ab:	83 3f 00             	cmpl   $0x0,(%rdi)
   1c7ae:	4c 8b f8             	mov    %rax,%r15
   1c7b1:	8b 47 10             	mov    0x10(%rdi),%eax
   1c7b4:	4c 8d 6c 05 00       	lea    0x0(%rbp,%rax,1),%r13
   1c7b9:	0f 45 07             	cmovne (%rdi),%eax
   1c7bc:	44 8b e0             	mov    %eax,%r12d
   1c7bf:	4c 03 e5             	add    %rbp,%r12
   1c7c2:	eb 69                	jmp    0x1c82d
   1c7c4:	48 b8 00 00 00 00 00 	movabs $0x8000000000000000,%rax
   1c7cb:	00 00 80 
   1c7ce:	4d 8b c7             	mov    %r15,%r8
   1c7d1:	49 8b d6             	mov    %r14,%rdx
   1c7d4:	48 85 c8             	test   %rcx,%rax
   1c7d7:	74 20                	je     0x1c7f9
   1c7d9:	48 8b 8c 24 98 00 00 	mov    0x98(%rsp),%rcx
   1c7e0:	00 
   1c7e1:	41 0f b7 04 24       	movzwl (%r12),%eax
   1c7e6:	45 33 c9             	xor    %r9d,%r9d
   1c7e9:	48 89 4c 24 30       	mov    %rcx,0x30(%rsp)
   1c7ee:	4c 89 6c 24 28       	mov    %r13,0x28(%rsp)
   1c7f3:	89 44 24 20          	mov    %eax,0x20(%rsp)
   1c7f7:	eb 1c                	jmp    0x1c815
   1c7f9:	48 8b 84 24 98 00 00 	mov    0x98(%rsp),%rax
   1c800:	00 
   1c801:	4c 8d 4c 29 02       	lea    0x2(%rcx,%rbp,1),%r9
   1c806:	48 89 44 24 30       	mov    %rax,0x30(%rsp)
   1c80b:	4c 89 6c 24 28       	mov    %r13,0x28(%rsp)
   1c810:	83 64 24 20 00       	andl   $0x0,0x20(%rsp)
   1c815:	48 8b cd             	mov    %rbp,%rcx
   1c818:	ff 94 24 90 00 00 00 	callq  *0x90(%rsp)
   1c81f:	85 c0                	test   %eax,%eax
   1c821:	8b d8                	mov    %eax,%ebx
   1c823:	75 2a                	jne    0x1c84f
   1c825:	49 83 c4 08          	add    $0x8,%r12
   1c829:	49 83 c5 08          	add    $0x8,%r13
   1c82d:	49 8b 0c 24          	mov    (%r12),%rcx
   1c831:	48 85 c9             	test   %rcx,%rcx
   1c834:	75 8e                	jne    0x1c7c4
   1c836:	4c 8b a4 24 88 00 00 	mov    0x88(%rsp),%r12
   1c83d:	00 
   1c83e:	48 83 c7 14          	add    $0x14,%rdi
   1c842:	48 3b fe             	cmp    %rsi,%rdi
   1c845:	0f 82 49 ff ff ff    	jb     0x1c794
   1c84b:	eb 02                	jmp    0x1c84f
   1c84d:	33 db                	xor    %ebx,%ebx
   1c84f:	8b c3                	mov    %ebx,%eax
   1c851:	48 8b 9c 24 80 00 00 	mov    0x80(%rsp),%rbx
   1c858:	00 
   1c859:	48 83 c4 40          	add    $0x40,%rsp
   1c85d:	41 5f                	pop    %r15
   1c85f:	41 5e                	pop    %r14
   1c861:	41 5d                	pop    %r13
   1c863:	41 5c                	pop    %r12
   1c865:	5f                   	pop    %rdi
   1c866:	5e                   	pop    %rsi
   1c867:	5d                   	pop    %rbp
   1c868:	c3                   	retq   
   1c869:	cc                   	int3   
   1c86a:	cc                   	int3   
   1c86b:	cc                   	int3   
   1c86c:	cc                   	int3   
   1c86d:	cc                   	int3   
   1c86e:	cc                   	int3   
   1c86f:	cc                   	int3   
   1c870:	48 85 c9             	test   %rcx,%rcx
   1c873:	74 18                	je     0x1c88d
   1c875:	8b 41 24             	mov    0x24(%rcx),%eax
   1c878:	a8 20                	test   $0x20,%al
   1c87a:	74 11                	je     0x1c88d
   1c87c:	0f ba e0 1d          	bt     $0x1d,%eax
   1c880:	73 0b                	jae    0x1c88d
   1c882:	a8 40                	test   $0x40,%al
   1c884:	75 07                	jne    0x1c88d
   1c886:	84 c0                	test   %al,%al
   1c888:	78 03                	js     0x1c88d
   1c88a:	b0 01                	mov    $0x1,%al
   1c88c:	c3                   	retq   
   1c88d:	32 c0                	xor    %al,%al
   1c88f:	c3                   	retq   
   1c890:	cc                   	int3   
   1c891:	cc                   	int3   
   1c892:	cc                   	int3   
   1c893:	cc                   	int3   
   1c894:	cc                   	int3   
   1c895:	cc                   	int3   
   1c896:	cc                   	int3   
   1c897:	cc                   	int3   
   1c898:	40 53                	rex push %rbx
   1c89a:	48 83 ec 10          	sub    $0x10,%rsp
   1c89e:	48 8b d9             	mov    %rcx,%rbx
   1c8a1:	45 33 c9             	xor    %r9d,%r9d
   1c8a4:	45 33 d2             	xor    %r10d,%r10d
   1c8a7:	4d 85 c0             	test   %r8,%r8
   1c8aa:	0f 84 0d 01 00 00    	je     0x1c9bd
   1c8b0:	48 85 d2             	test   %rdx,%rdx
   1c8b3:	0f 84 04 01 00 00    	je     0x1c9bd
   1c8b9:	48 85 c9             	test   %rcx,%rcx
   1c8bc:	0f 84 fb 00 00 00    	je     0x1c9bd
   1c8c2:	41 2b 18             	sub    (%r8),%ebx
   1c8c5:	2b da                	sub    %edx,%ebx
   1c8c7:	45 8b 58 08          	mov    0x8(%r8),%r11d
   1c8cb:	4c 03 da             	add    %rdx,%r11
   1c8ce:	41 0f b6 43 02       	movzbl 0x2(%r11),%eax
   1c8d3:	44 3b c8             	cmp    %eax,%r9d
   1c8d6:	0f 83 e1 00 00 00    	jae    0x1c9bd
   1c8dc:	47 0f b6 44 4b 05    	movzbl 0x5(%r11,%r9,2),%r8d
   1c8e2:	41 8b c8             	mov    %r8d,%ecx
   1c8e5:	83 e1 0f             	and    $0xf,%ecx
   1c8e8:	41 c1 e8 04          	shr    $0x4,%r8d
   1c8ec:	43 0f b6 44 4b 04    	movzbl 0x4(%r11,%r9,2),%eax
   1c8f2:	3b d8                	cmp    %eax,%ebx
   1c8f4:	0f 82 bb 00 00 00    	jb     0x1c9b5
   1c8fa:	85 c9                	test   %ecx,%ecx
   1c8fc:	0f 84 9d 00 00 00    	je     0x1c99f
   1c902:	83 e9 01             	sub    $0x1,%ecx
   1c905:	74 51                	je     0x1c958
   1c907:	83 e9 01             	sub    $0x1,%ecx
   1c90a:	74 40                	je     0x1c94c
   1c90c:	83 e9 02             	sub    $0x2,%ecx
   1c90f:	74 31                	je     0x1c942
   1c911:	83 e9 01             	sub    $0x1,%ecx
   1c914:	74 22                	je     0x1c938
   1c916:	83 e9 03             	sub    $0x3,%ecx
   1c919:	74 13                	je     0x1c92e
   1c91b:	83 f9 01             	cmp    $0x1,%ecx
   1c91e:	0f 85 84 00 00 00    	jne    0x1c9a8
   1c924:	41 83 c1 02          	add    $0x2,%r9d
   1c928:	44 89 0c 24          	mov    %r9d,(%rsp)
   1c92c:	eb 7a                	jmp    0x1c9a8
   1c92e:	41 83 c1 01          	add    $0x1,%r9d
   1c932:	44 89 0c 24          	mov    %r9d,(%rsp)
   1c936:	eb 70                	jmp    0x1c9a8
   1c938:	41 83 c1 02          	add    $0x2,%r9d
   1c93c:	44 89 0c 24          	mov    %r9d,(%rsp)
   1c940:	eb 66                	jmp    0x1c9a8
   1c942:	41 83 c1 01          	add    $0x1,%r9d
   1c946:	44 89 0c 24          	mov    %r9d,(%rsp)
   1c94a:	eb 5c                	jmp    0x1c9a8
   1c94c:	47 8d 54 c2 08       	lea    0x8(%r10,%r8,8),%r10d
   1c951:	44 89 54 24 04       	mov    %r10d,0x4(%rsp)
   1c956:	eb 50                	jmp    0x1c9a8
   1c958:	41 83 c1 01          	add    $0x1,%r9d
   1c95c:	44 89 0c 24          	mov    %r9d,(%rsp)
   1c960:	41 8b c1             	mov    %r9d,%eax
   1c963:	43 0f b7 54 4b 04    	movzwl 0x4(%r11,%r9,2),%edx
   1c969:	89 54 24 08          	mov    %edx,0x8(%rsp)
   1c96d:	45 85 c0             	test   %r8d,%r8d
   1c970:	74 1c                	je     0x1c98e
   1c972:	41 83 c1 01          	add    $0x1,%r9d
   1c976:	44 89 0c 24          	mov    %r9d,(%rsp)
   1c97a:	41 8b c1             	mov    %r9d,%eax
   1c97d:	43 0f b7 4c 4b 04    	movzwl 0x4(%r11,%r9,2),%ecx
   1c983:	c1 e1 10             	shl    $0x10,%ecx
   1c986:	03 d1                	add    %ecx,%edx
   1c988:	89 54 24 08          	mov    %edx,0x8(%rsp)
   1c98c:	eb 07                	jmp    0x1c995
   1c98e:	c1 e2 03             	shl    $0x3,%edx
   1c991:	89 54 24 08          	mov    %edx,0x8(%rsp)
   1c995:	44 03 d2             	add    %edx,%r10d
   1c998:	44 89 54 24 04       	mov    %r10d,0x4(%rsp)
   1c99d:	eb 09                	jmp    0x1c9a8
   1c99f:	41 83 c2 08          	add    $0x8,%r10d
   1c9a3:	44 89 54 24 04       	mov    %r10d,0x4(%rsp)
   1c9a8:	41 83 c1 01          	add    $0x1,%r9d
   1c9ac:	44 89 0c 24          	mov    %r9d,(%rsp)
   1c9b0:	e9 19 ff ff ff       	jmpq   0x1c8ce
   1c9b5:	45 33 d2             	xor    %r10d,%r10d
   1c9b8:	44 89 54 24 04       	mov    %r10d,0x4(%rsp)
   1c9bd:	41 8b c2             	mov    %r10d,%eax
   1c9c0:	48 83 c4 10          	add    $0x10,%rsp
   1c9c4:	5b                   	pop    %rbx
   1c9c5:	c3                   	retq   
   1c9c6:	cc                   	int3   
   1c9c7:	cc                   	int3   
   1c9c8:	40 55                	rex push %rbp
   1c9ca:	48 8b ea             	mov    %rdx,%rbp
   1c9cd:	5d                   	pop    %rbp
   1c9ce:	c3                   	retq   
   1c9cf:	cc                   	int3   
   1c9d0:	cc                   	int3   
   1c9d1:	cc                   	int3   
   1c9d2:	cc                   	int3   
   1c9d3:	cc                   	int3   
   1c9d4:	cc                   	int3   
   1c9d5:	cc                   	int3   
   1c9d6:	cc                   	int3   
   1c9d7:	cc                   	int3   
   1c9d8:	48 8b c4             	mov    %rsp,%rax
   1c9db:	48 89 58 08          	mov    %rbx,0x8(%rax)
   1c9df:	48 89 70 20          	mov    %rsi,0x20(%rax)
   1c9e3:	4c 89 40 18          	mov    %r8,0x18(%rax)
   1c9e7:	88 50 10             	mov    %dl,0x10(%rax)
   1c9ea:	57                   	push   %rdi
   1c9eb:	41 54                	push   %r12
   1c9ed:	41 55                	push   %r13
   1c9ef:	41 56                	push   %r14
   1c9f1:	41 57                	push   %r15
   1c9f3:	48 83 ec 40          	sub    $0x40,%rsp
   1c9f7:	4d 8b f9             	mov    %r9,%r15
   1c9fa:	48 8b d9             	mov    %rcx,%rbx
   1c9fd:	b8 0d 00 00 c0       	mov    $0xc000000d,%eax
   1ca02:	33 c9                	xor    %ecx,%ecx
   1ca04:	48 3b d9             	cmp    %rcx,%rbx
   1ca07:	0f 84 19 02 00 00    	je     0x1cc26
   1ca0d:	4c 3b c1             	cmp    %rcx,%r8
   1ca10:	74 03                	je     0x1ca15
   1ca12:	49 89 08             	mov    %rcx,(%r8)
   1ca15:	4c 3b c9             	cmp    %rcx,%r9
   1ca18:	74 03                	je     0x1ca1d
   1ca1a:	49 89 09             	mov    %rcx,(%r9)
   1ca1d:	48 8b bc 24 90 00 00 	mov    0x90(%rsp),%rdi
   1ca24:	00 
   1ca25:	48 3b f9             	cmp    %rcx,%rdi
   1ca28:	74 02                	je     0x1ca2c
   1ca2a:	89 0f                	mov    %ecx,(%rdi)
   1ca2c:	48 8b b4 24 98 00 00 	mov    0x98(%rsp),%rsi
   1ca33:	00 
   1ca34:	48 3b f1             	cmp    %rcx,%rsi
   1ca37:	74 02                	je     0x1ca3b
   1ca39:	89 0e                	mov    %ecx,(%rsi)
   1ca3b:	4c 8b ac 24 a0 00 00 	mov    0xa0(%rsp),%r13
   1ca42:	00 
   1ca43:	4c 3b e9             	cmp    %rcx,%r13
   1ca46:	74 04                	je     0x1ca4c
   1ca48:	49 89 4d 00          	mov    %rcx,0x0(%r13)
   1ca4c:	4c 8b b4 24 a8 00 00 	mov    0xa8(%rsp),%r14
   1ca53:	00 
   1ca54:	4c 3b f1             	cmp    %rcx,%r14
   1ca57:	74 03                	je     0x1ca5c
   1ca59:	49 89 0e             	mov    %rcx,(%r14)
   1ca5c:	4c 8b a4 24 b0 00 00 	mov    0xb0(%rsp),%r12
   1ca63:	00 
   1ca64:	4c 3b e1             	cmp    %rcx,%r12
   1ca67:	74 08                	je     0x1ca71
   1ca69:	41 c7 04 24 01 00 00 	movl   $0x1,(%r12)
   1ca70:	00 
   1ca71:	83 ca ff             	or     $0xffffffff,%edx
   1ca74:	48 8b cb             	mov    %rbx,%rcx
   1ca77:	e8 2c fc ff ff       	callq  0x1c6a8
   1ca7c:	4c 8b d0             	mov    %rax,%r10
   1ca7f:	48 89 44 24 28       	mov    %rax,0x28(%rsp)
   1ca84:	48 85 c0             	test   %rax,%rax
   1ca87:	75 0a                	jne    0x1ca93
   1ca89:	b8 7b 00 00 c0       	mov    $0xc000007b,%eax
   1ca8e:	e9 93 01 00 00       	jmpq   0x1cc26
   1ca93:	0f b7 48 04          	movzwl 0x4(%rax),%ecx
   1ca97:	8b 94 24 c8 00 00 00 	mov    0xc8(%rsp),%edx
   1ca9e:	85 d2                	test   %edx,%edx
   1caa0:	74 4d                	je     0x1caef
   1caa2:	83 ea 01             	sub    $0x1,%edx
   1caa5:	74 2a                	je     0x1cad1
   1caa7:	83 fa 01             	cmp    $0x1,%edx
   1caaa:	75 1e                	jne    0x1caca
   1caac:	66 b8 64 86          	mov    $0x8664,%ax
   1cab0:	66 23 c8             	and    %ax,%cx
   1cab3:	66 3b c8             	cmp    %ax,%cx
   1cab6:	74 0a                	je     0x1cac2
   1cab8:	b8 59 03 00 c0       	mov    $0xc0000359,%eax
   1cabd:	e9 64 01 00 00       	jmpq   0x1cc26
   1cac2:	41 b8 88 00 00 00    	mov    $0x88,%r8d
   1cac8:	eb 41                	jmp    0x1cb0b
   1caca:	4c 8b 44 24 28       	mov    0x28(%rsp),%r8
   1cacf:	eb 3a                	jmp    0x1cb0b
   1cad1:	66 b8 4c 01          	mov    $0x14c,%ax
   1cad5:	66 23 c8             	and    %ax,%cx
   1cad8:	66 3b c8             	cmp    %ax,%cx
   1cadb:	74 0a                	je     0x1cae7
   1cadd:	b8 5a 03 00 c0       	mov    $0xc000035a,%eax
   1cae2:	e9 3f 01 00 00       	jmpq   0x1cc26
   1cae7:	41 b8 78 00 00 00    	mov    $0x78,%r8d
   1caed:	eb 1c                	jmp    0x1cb0b
   1caef:	66 b8 64 86          	mov    $0x8664,%ax
   1caf3:	66 23 c8             	and    %ax,%cx
   1caf6:	66 3b c8             	cmp    %ax,%cx
   1caf9:	74 0a                	je     0x1cb05
   1cafb:	b8 59 03 00 c0       	mov    $0xc0000359,%eax
   1cb00:	e9 21 01 00 00       	jmpq   0x1cc26
   1cb05:	41 b8 88 00 00 00    	mov    $0x88,%r8d
   1cb0b:	4c 63 4b 3c          	movslq 0x3c(%rbx),%r9
   1cb0f:	4c 03 cb             	add    %rbx,%r9
   1cb12:	74 65                	je     0x1cb79
   1cb14:	41 83 b9 84 00 00 00 	cmpl   $0x0,0x84(%r9)
   1cb1b:	00 
   1cb1c:	76 5b                	jbe    0x1cb79
   1cb1e:	41 0f b7 41 14       	movzwl 0x14(%r9),%eax
   1cb23:	4a 8d 54 08 18       	lea    0x18(%rax,%r9,1),%rdx
   1cb28:	66 45 33 d2          	xor    %r10w,%r10w
   1cb2c:	66 44 89 54 24 20    	mov    %r10w,0x20(%rsp)
   1cb32:	41 0f b7 c2          	movzwl %r10w,%eax
   1cb36:	66 41 83 c2 01       	add    $0x1,%r10w
   1cb3b:	66 44 89 54 24 20    	mov    %r10w,0x20(%rsp)
   1cb41:	66 41 3b 41 06       	cmp    0x6(%r9),%ax
   1cb46:	73 28                	jae    0x1cb70
   1cb48:	8b 4a 0c             	mov    0xc(%rdx),%ecx
   1cb4b:	8b 42 10             	mov    0x10(%rdx),%eax
   1cb4e:	44 8d 1c 01          	lea    (%rcx,%rax,1),%r11d
   1cb52:	43 3b 0c 01          	cmp    (%r9,%r8,1),%ecx
   1cb56:	77 0d                	ja     0x1cb65
   1cb58:	47 3b 1c 01          	cmp    (%r9,%r8,1),%r11d
   1cb5c:	76 07                	jbe    0x1cb65
   1cb5e:	4c 8b 54 24 28       	mov    0x28(%rsp),%r10
   1cb63:	eb 16                	jmp    0x1cb7b
   1cb65:	48 83 c2 28          	add    $0x28,%rdx
   1cb69:	48 89 54 24 30       	mov    %rdx,0x30(%rsp)
   1cb6e:	eb c2                	jmp    0x1cb32
   1cb70:	33 d2                	xor    %edx,%edx
   1cb72:	4c 8b 54 24 28       	mov    0x28(%rsp),%r10
   1cb77:	eb 02                	jmp    0x1cb7b
   1cb79:	33 d2                	xor    %edx,%edx
   1cb7b:	48 85 d2             	test   %rdx,%rdx
   1cb7e:	75 0a                	jne    0x1cb8a
   1cb80:	b8 7b 00 00 c0       	mov    $0xc000007b,%eax
   1cb85:	e9 9c 00 00 00       	jmpq   0x1cc26
   1cb8a:	47 8b 0c 10          	mov    (%r8,%r10,1),%r9d
   1cb8e:	48 8b 84 24 b8 00 00 	mov    0xb8(%rsp),%rax
   1cb95:	00 
   1cb96:	48 85 c0             	test   %rax,%rax
   1cb99:	74 03                	je     0x1cb9e
   1cb9b:	44 89 08             	mov    %r9d,(%rax)
   1cb9e:	48 8b 8c 24 c0 00 00 	mov    0xc0(%rsp),%rcx
   1cba5:	00 
   1cba6:	48 85 c9             	test   %rcx,%rcx
   1cba9:	74 07                	je     0x1cbb2
   1cbab:	43 8b 44 10 04       	mov    0x4(%r8,%r10,1),%eax
   1cbb0:	89 01                	mov    %eax,(%rcx)
   1cbb2:	80 7c 24 78 00       	cmpb   $0x0,0x78(%rsp)
   1cbb7:	75 0c                	jne    0x1cbc5
   1cbb9:	8b 4a 14             	mov    0x14(%rdx),%ecx
   1cbbc:	8b 42 0c             	mov    0xc(%rdx),%eax
   1cbbf:	48 2b c8             	sub    %rax,%rcx
   1cbc2:	48 03 d9             	add    %rcx,%rbx
   1cbc5:	4a 8d 0c 0b          	lea    (%rbx,%r9,1),%rcx
   1cbc9:	48 8b 84 24 80 00 00 	mov    0x80(%rsp),%rax
   1cbd0:	00 
   1cbd1:	48 85 c0             	test   %rax,%rax
   1cbd4:	74 03                	je     0x1cbd9
   1cbd6:	48 89 18             	mov    %rbx,(%rax)
   1cbd9:	4d 85 ff             	test   %r15,%r15
   1cbdc:	74 09                	je     0x1cbe7
   1cbde:	8b 41 20             	mov    0x20(%rcx),%eax
   1cbe1:	48 03 c3             	add    %rbx,%rax
   1cbe4:	49 89 07             	mov    %rax,(%r15)
   1cbe7:	48 85 ff             	test   %rdi,%rdi
   1cbea:	74 05                	je     0x1cbf1
   1cbec:	8b 41 18             	mov    0x18(%rcx),%eax
   1cbef:	89 07                	mov    %eax,(%rdi)
   1cbf1:	48 85 f6             	test   %rsi,%rsi
   1cbf4:	74 05                	je     0x1cbfb
   1cbf6:	8b 41 14             	mov    0x14(%rcx),%eax
   1cbf9:	89 06                	mov    %eax,(%rsi)
   1cbfb:	4d 85 ed             	test   %r13,%r13
   1cbfe:	74 0a                	je     0x1cc0a
   1cc00:	8b 41 24             	mov    0x24(%rcx),%eax
   1cc03:	48 03 c3             	add    %rbx,%rax
   1cc06:	49 89 45 00          	mov    %rax,0x0(%r13)
   1cc0a:	4d 85 f6             	test   %r14,%r14
   1cc0d:	74 09                	je     0x1cc18
   1cc0f:	8b 41 1c             	mov    0x1c(%rcx),%eax
   1cc12:	48 03 c3             	add    %rbx,%rax
   1cc15:	49 89 06             	mov    %rax,(%r14)
   1cc18:	4d 85 e4             	test   %r12,%r12
   1cc1b:	74 07                	je     0x1cc24
   1cc1d:	8b 41 10             	mov    0x10(%rcx),%eax
   1cc20:	41 89 04 24          	mov    %eax,(%r12)
   1cc24:	33 c0                	xor    %eax,%eax
   1cc26:	4c 8d 5c 24 40       	lea    0x40(%rsp),%r11
   1cc2b:	49 8b 5b 30          	mov    0x30(%r11),%rbx
   1cc2f:	49 8b 73 48          	mov    0x48(%r11),%rsi
   1cc33:	49 8b e3             	mov    %r11,%rsp
   1cc36:	41 5f                	pop    %r15
   1cc38:	41 5e                	pop    %r14
   1cc3a:	41 5d                	pop    %r13
   1cc3c:	41 5c                	pop    %r12
   1cc3e:	5f                   	pop    %rdi
   1cc3f:	c3                   	retq   
   1cc40:	cc                   	int3   
   1cc41:	cc                   	int3   
   1cc42:	cc                   	int3   
   1cc43:	cc                   	int3   
   1cc44:	cc                   	int3   
   1cc45:	cc                   	int3   
   1cc46:	cc                   	int3   
   1cc47:	cc                   	int3   
   1cc48:	40 55                	rex push %rbp
   1cc4a:	48 83 ec 20          	sub    $0x20,%rsp
   1cc4e:	48 8b ea             	mov    %rdx,%rbp
   1cc51:	48 83 c4 20          	add    $0x20,%rsp
   1cc55:	5d                   	pop    %rbp
   1cc56:	c3                   	retq   
   1cc57:	cc                   	int3   
   1cc58:	cc                   	int3   
   1cc59:	cc                   	int3   
   1cc5a:	cc                   	int3   
   1cc5b:	cc                   	int3   
   1cc5c:	cc                   	int3   
   1cc5d:	cc                   	int3   
   1cc5e:	cc                   	int3   
   1cc5f:	cc                   	int3   
   1cc60:	48 89 5c 24 10       	mov    %rbx,0x10(%rsp)
   1cc65:	48 89 6c 24 18       	mov    %rbp,0x18(%rsp)
   1cc6a:	48 89 74 24 20       	mov    %rsi,0x20(%rsp)
   1cc6f:	57                   	push   %rdi
   1cc70:	41 54                	push   %r12
   1cc72:	41 55                	push   %r13
   1cc74:	41 56                	push   %r14
   1cc76:	41 57                	push   %r15
   1cc78:	48 81 ec 90 00 00 00 	sub    $0x90,%rsp
   1cc7f:	33 db                	xor    %ebx,%ebx
   1cc81:	49 8b f9             	mov    %r9,%rdi
   1cc84:	4d 8b e0             	mov    %r8,%r12
   1cc87:	48 3b cb             	cmp    %rbx,%rcx
   1cc8a:	40 8a ea             	mov    %dl,%bpl
   1cc8d:	48 8b f1             	mov    %rcx,%rsi
   1cc90:	0f 84 7d 01 00 00    	je     0x1ce13
   1cc96:	4c 8b bc 24 e0 00 00 	mov    0xe0(%rsp),%r15
   1cc9d:	00 
   1cc9e:	4c 3b fb             	cmp    %rbx,%r15
   1cca1:	0f 84 6c 01 00 00    	je     0x1ce13
   1cca7:	4c 3b c3             	cmp    %rbx,%r8
   1ccaa:	75 09                	jne    0x1ccb5
   1ccac:	4c 3b cb             	cmp    %rbx,%r9
   1ccaf:	0f 84 5e 01 00 00    	je     0x1ce13
   1ccb5:	8b 84 24 e8 00 00 00 	mov    0xe8(%rsp),%eax
   1ccbc:	4c 8d 8c 24 80 00 00 	lea    0x80(%rsp),%r9
   1ccc3:	00 
   1ccc4:	4c 8d 84 24 88 00 00 	lea    0x88(%rsp),%r8
   1cccb:	00 
   1cccc:	89 44 24 58          	mov    %eax,0x58(%rsp)
   1ccd0:	48 8d 44 24 60       	lea    0x60(%rsp),%rax
   1ccd5:	40 8a d5             	mov    %bpl,%dl
   1ccd8:	48 89 44 24 50       	mov    %rax,0x50(%rsp)
   1ccdd:	48 8d 84 24 c0 00 00 	lea    0xc0(%rsp),%rax
   1cce4:	00 
   1cce5:	48 89 44 24 48       	mov    %rax,0x48(%rsp)
   1ccea:	48 8d 44 24 68       	lea    0x68(%rsp),%rax
   1ccef:	48 89 44 24 40       	mov    %rax,0x40(%rsp)
   1ccf4:	48 8d 44 24 70       	lea    0x70(%rsp),%rax
   1ccf9:	48 89 44 24 38       	mov    %rax,0x38(%rsp)
   1ccfe:	48 8d 44 24 78       	lea    0x78(%rsp),%rax
   1cd03:	48 89 44 24 30       	mov    %rax,0x30(%rsp)
   1cd08:	48 8d 44 24 6c       	lea    0x6c(%rsp),%rax
   1cd0d:	48 89 44 24 28       	mov    %rax,0x28(%rsp)
   1cd12:	48 8d 44 24 64       	lea    0x64(%rsp),%rax
   1cd17:	48 89 44 24 20       	mov    %rax,0x20(%rsp)
   1cd1c:	e8 b7 fc ff ff       	callq  0x1c9d8
   1cd21:	3b c3                	cmp    %ebx,%eax
   1cd23:	0f 85 ef 00 00 00    	jne    0x1ce18
   1cd29:	4c 3b e3             	cmp    %rbx,%r12
   1cd2c:	74 6d                	je     0x1cd9b
   1cd2e:	44 8b 6c 24 64       	mov    0x64(%rsp),%r13d
   1cd33:	48 8b fb             	mov    %rbx,%rdi
   1cd36:	4c 3b eb             	cmp    %rbx,%r13
   1cd39:	76 39                	jbe    0x1cd74
   1cd3b:	4c 8b b4 24 80 00 00 	mov    0x80(%rsp),%r14
   1cd42:	00 
   1cd43:	40 3a eb             	cmp    %bl,%bpl
   1cd46:	75 10                	jne    0x1cd58
   1cd48:	41 8b 14 be          	mov    (%r14,%rdi,4),%edx
   1cd4c:	48 8b ce             	mov    %rsi,%rcx
   1cd4f:	e8 ec f6 ff ff       	callq  0x1c440
   1cd54:	8b c8                	mov    %eax,%ecx
   1cd56:	eb 04                	jmp    0x1cd5c
   1cd58:	41 8b 0c be          	mov    (%r14,%rdi,4),%ecx
   1cd5c:	48 03 ce             	add    %rsi,%rcx
   1cd5f:	49 8b d4             	mov    %r12,%rdx
   1cd62:	e8 11 f3 ff ff       	callq  0x1c078
   1cd67:	3a c3                	cmp    %bl,%al
   1cd69:	75 13                	jne    0x1cd7e
   1cd6b:	48 83 c7 01          	add    $0x1,%rdi
   1cd6f:	49 3b fd             	cmp    %r13,%rdi
   1cd72:	72 cf                	jb     0x1cd43
   1cd74:	b8 7a 00 00 c0       	mov    $0xc000007a,%eax
   1cd79:	e9 9a 00 00 00       	jmpq   0x1ce18
   1cd7e:	40 3a eb             	cmp    %bl,%bpl
   1cd81:	48 8b 44 24 78       	mov    0x78(%rsp),%rax
   1cd86:	0f b7 0c 78          	movzwl (%rax,%rdi,2),%ecx
   1cd8a:	48 8b 44 24 70       	mov    0x70(%rsp),%rax
   1cd8f:	74 05                	je     0x1cd96
   1cd91:	8b 3c 88             	mov    (%rax,%rcx,4),%edi
   1cd94:	eb 36                	jmp    0x1cdcc
   1cd96:	8b 14 88             	mov    (%rax,%rcx,4),%edx
   1cd99:	eb 27                	jmp    0x1cdc2
   1cd9b:	8b 44 24 68          	mov    0x68(%rsp),%eax
   1cd9f:	48 3b f8             	cmp    %rax,%rdi
   1cda2:	72 6f                	jb     0x1ce13
   1cda4:	48 2b f8             	sub    %rax,%rdi
   1cda7:	8b 44 24 6c          	mov    0x6c(%rsp),%eax
   1cdab:	48 3b f8             	cmp    %rax,%rdi
   1cdae:	73 c4                	jae    0x1cd74
   1cdb0:	40 3a eb             	cmp    %bl,%bpl
   1cdb3:	48 8b 44 24 70       	mov    0x70(%rsp),%rax
   1cdb8:	74 05                	je     0x1cdbf
   1cdba:	8b 3c b8             	mov    (%rax,%rdi,4),%edi
   1cdbd:	eb 0d                	jmp    0x1cdcc
   1cdbf:	8b 14 b8             	mov    (%rax,%rdi,4),%edx
   1cdc2:	48 8b ce             	mov    %rsi,%rcx
   1cdc5:	e8 76 f6 ff ff       	callq  0x1c440
   1cdca:	8b f8                	mov    %eax,%edi
   1cdcc:	48 03 fe             	add    %rsi,%rdi
   1cdcf:	48 3b fb             	cmp    %rbx,%rdi
   1cdd2:	74 a0                	je     0x1cd74
   1cdd4:	40 3a eb             	cmp    %bl,%bpl
   1cdd7:	74 09                	je     0x1cde2
   1cdd9:	8b 84 24 c0 00 00 00 	mov    0xc0(%rsp),%eax
   1cde0:	eb 11                	jmp    0x1cdf3
   1cde2:	8b 94 24 c0 00 00 00 	mov    0xc0(%rsp),%edx
   1cde9:	48 8b ce             	mov    %rsi,%rcx
   1cdec:	e8 4f f6 ff ff       	callq  0x1c440
   1cdf1:	8b c0                	mov    %eax,%eax
   1cdf3:	8b 4c 24 60          	mov    0x60(%rsp),%ecx
   1cdf7:	48 03 c6             	add    %rsi,%rax
   1cdfa:	48 03 c8             	add    %rax,%rcx
   1cdfd:	48 3b c7             	cmp    %rdi,%rax
   1ce00:	73 0a                	jae    0x1ce0c
   1ce02:	48 3b f9             	cmp    %rcx,%rdi
   1ce05:	73 05                	jae    0x1ce0c
   1ce07:	bb 16 00 00 c0       	mov    $0xc0000016,%ebx
   1ce0c:	49 89 3f             	mov    %rdi,(%r15)
   1ce0f:	8b c3                	mov    %ebx,%eax
   1ce11:	eb 05                	jmp    0x1ce18
   1ce13:	b8 0d 00 00 c0       	mov    $0xc000000d,%eax
   1ce18:	4c 8d 9c 24 90 00 00 	lea    0x90(%rsp),%r11
   1ce1f:	00 
   1ce20:	49 8b 5b 38          	mov    0x38(%r11),%rbx
   1ce24:	49 8b 6b 40          	mov    0x40(%r11),%rbp
   1ce28:	49 8b 73 48          	mov    0x48(%r11),%rsi
   1ce2c:	49 8b e3             	mov    %r11,%rsp
   1ce2f:	41 5f                	pop    %r15
   1ce31:	41 5e                	pop    %r14
   1ce33:	41 5d                	pop    %r13
   1ce35:	41 5c                	pop    %r12
   1ce37:	5f                   	pop    %rdi
   1ce38:	c3                   	retq   
   1ce39:	cc                   	int3   
   1ce3a:	cc                   	int3   
   1ce3b:	cc                   	int3   
   1ce3c:	cc                   	int3   
   1ce3d:	cc                   	int3   
   1ce3e:	cc                   	int3   
   1ce3f:	cc                   	int3   
   1ce40:	48 83 ec 38          	sub    $0x38,%rsp
   1ce44:	48 83 64 24 20 00    	andq   $0x0,0x20(%rsp)
   1ce4a:	e8 4d f6 ff ff       	callq  0x1c49c
   1ce4f:	48 83 c4 38          	add    $0x38,%rsp
   1ce53:	c3                   	retq   
   1ce54:	cc                   	int3   
   1ce55:	cc                   	int3   
   1ce56:	cc                   	int3   
   1ce57:	cc                   	int3   
   1ce58:	cc                   	int3   
   1ce59:	cc                   	int3   
   1ce5a:	cc                   	int3   
   1ce5b:	cc                   	int3   
   1ce5c:	48 89 5c 24 08       	mov    %rbx,0x8(%rsp)
   1ce61:	89 54 24 10          	mov    %edx,0x10(%rsp)
   1ce65:	55                   	push   %rbp
   1ce66:	56                   	push   %rsi
   1ce67:	57                   	push   %rdi
   1ce68:	41 54                	push   %r12
   1ce6a:	41 55                	push   %r13
   1ce6c:	41 56                	push   %r14
   1ce6e:	41 57                	push   %r15
   1ce70:	48 83 ec 20          	sub    $0x20,%rsp
   1ce74:	83 ca ff             	or     $0xffffffff,%edx
   1ce77:	48 8b e9             	mov    %rcx,%rbp
   1ce7a:	33 db                	xor    %ebx,%ebx
   1ce7c:	e8 27 f8 ff ff       	callq  0x1c6a8
   1ce81:	48 3b c3             	cmp    %rbx,%rax
   1ce84:	4c 8b f8             	mov    %rax,%r15
   1ce87:	75 04                	jne    0x1ce8d
   1ce89:	33 c0                	xor    %eax,%eax
   1ce8b:	eb 7a                	jmp    0x1cf07
   1ce8d:	8b b8 88 00 00 00    	mov    0x88(%rax),%edi
   1ce93:	44 8b f3             	mov    %ebx,%r14d
   1ce96:	48 03 fd             	add    %rbp,%rdi
   1ce99:	8b 57 1c             	mov    0x1c(%rdi),%edx
   1ce9c:	44 8b 67 20          	mov    0x20(%rdi),%r12d
   1cea0:	44 8b 6f 24          	mov    0x24(%rdi),%r13d
   1cea4:	48 03 d5             	add    %rbp,%rdx
   1cea7:	4c 03 e5             	add    %rbp,%r12
   1ceaa:	4c 03 ed             	add    %rbp,%r13
   1cead:	39 5f 18             	cmp    %ebx,0x18(%rdi)
   1ceb0:	48 89 54 24 70       	mov    %rdx,0x70(%rsp)
   1ceb5:	76 4d                	jbe    0x1cf04
   1ceb7:	41 0f b7 45 00       	movzwl 0x0(%r13),%eax
   1cebc:	41 8b 0c 24          	mov    (%r12),%ecx
   1cec0:	8b 34 82             	mov    (%rdx,%rax,4),%esi
   1cec3:	48 03 cd             	add    %rbp,%rcx
   1cec6:	48 03 f5             	add    %rbp,%rsi
   1cec9:	e8 5a f3 ff ff       	callq  0x1c228
   1cece:	39 44 24 68          	cmp    %eax,0x68(%rsp)
   1ced2:	75 14                	jne    0x1cee8
   1ced4:	48 3b fe             	cmp    %rsi,%rdi
   1ced7:	77 28                	ja     0x1cf01
   1ced9:	41 8b 87 8c 00 00 00 	mov    0x8c(%r15),%eax
   1cee0:	48 03 c7             	add    %rdi,%rax
   1cee3:	48 3b f0             	cmp    %rax,%rsi
   1cee6:	77 19                	ja     0x1cf01
   1cee8:	41 83 c6 01          	add    $0x1,%r14d
   1ceec:	49 83 c4 04          	add    $0x4,%r12
   1cef0:	49 83 c5 02          	add    $0x2,%r13
   1cef4:	44 3b 77 18          	cmp    0x18(%rdi),%r14d
   1cef8:	73 0a                	jae    0x1cf04
   1cefa:	48 8b 54 24 70       	mov    0x70(%rsp),%rdx
   1ceff:	eb b6                	jmp    0x1ceb7
   1cf01:	48 8b de             	mov    %rsi,%rbx
   1cf04:	48 8b c3             	mov    %rbx,%rax
   1cf07:	48 8b 5c 24 60       	mov    0x60(%rsp),%rbx
   1cf0c:	48 83 c4 20          	add    $0x20,%rsp
   1cf10:	41 5f                	pop    %r15
   1cf12:	41 5e                	pop    %r14
   1cf14:	41 5d                	pop    %r13
   1cf16:	41 5c                	pop    %r12
   1cf18:	5f                   	pop    %rdi
   1cf19:	5e                   	pop    %rsi
   1cf1a:	5d                   	pop    %rbp
   1cf1b:	c3                   	retq   
   1cf1c:	cc                   	int3   
   1cf1d:	cc                   	int3   
   1cf1e:	cc                   	int3   
   1cf1f:	cc                   	int3   
   1cf20:	cc                   	int3   
   1cf21:	cc                   	int3   
   1cf22:	cc                   	int3   
   1cf23:	cc                   	int3   
   1cf24:	48 89 5c 24 08       	mov    %rbx,0x8(%rsp)
   1cf29:	57                   	push   %rdi
   1cf2a:	48 83 ec 20          	sub    $0x20,%rsp
   1cf2e:	8b da                	mov    %edx,%ebx
   1cf30:	48 8b f9             	mov    %rcx,%rdi
   1cf33:	e8 70 f7 ff ff       	callq  0x1c6a8
   1cf38:	48 85 c0             	test   %rax,%rax
   1cf3b:	75 07                	jne    0x1cf44
   1cf3d:	b8 7b 00 00 c0       	mov    $0xc000007b,%eax
   1cf42:	eb 14                	jmp    0x1cf58
   1cf44:	4c 8d 05 55 f4 ff ff 	lea    -0xbab(%rip),%r8        # 0x1c3a0
   1cf4b:	45 33 c9             	xor    %r9d,%r9d
   1cf4e:	8b d3                	mov    %ebx,%edx
   1cf50:	48 8b cf             	mov    %rdi,%rcx
   1cf53:	e8 64 f6 ff ff       	callq  0x1c5bc
   1cf58:	48 8b 5c 24 30       	mov    0x30(%rsp),%rbx
   1cf5d:	48 83 c4 20          	add    $0x20,%rsp
   1cf61:	5f                   	pop    %rdi
   1cf62:	c3                   	retq   
   1cf63:	cc                   	int3   
   1cf64:	cc                   	int3   
   1cf65:	cc                   	int3   
   1cf66:	cc                   	int3   
   1cf67:	cc                   	int3   
   1cf68:	cc                   	int3   
   1cf69:	cc                   	int3   
   1cf6a:	cc                   	int3   
   1cf6b:	cc                   	int3   
   1cf6c:	48 8b c4             	mov    %rsp,%rax
   1cf6f:	48 89 58 08          	mov    %rbx,0x8(%rax)
   1cf73:	48 89 70 10          	mov    %rsi,0x10(%rax)
   1cf77:	4c 89 48 20          	mov    %r9,0x20(%rax)
   1cf7b:	4c 89 40 18          	mov    %r8,0x18(%rax)
   1cf7f:	57                   	push   %rdi
   1cf80:	48 81 ec b0 00 00 00 	sub    $0xb0,%rsp
   1cf87:	49 8b c0             	mov    %r8,%rax
   1cf8a:	48 8b fa             	mov    %rdx,%rdi
   1cf8d:	48 85 d2             	test   %rdx,%rdx
   1cf90:	75 05                	jne    0x1cf97
   1cf92:	ff d0                	callq  *%rax
   1cf94:	48 8b f8             	mov    %rax,%rdi
   1cf97:	48 85 ff             	test   %rdi,%rdi
   1cf9a:	75 0a                	jne    0x1cfa6
   1cf9c:	b8 35 01 00 c0       	mov    $0xc0000135,%eax
   1cfa1:	e9 c0 02 00 00       	jmpq   0x1d266
   1cfa6:	48 83 bc 24 e8 00 00 	cmpq   $0x0,0xe8(%rsp)
   1cfad:	00 00 
   1cfaf:	0f 84 d0 01 00 00    	je     0x1d185
   1cfb5:	33 db                	xor    %ebx,%ebx
   1cfb7:	48 89 9c 24 80 00 00 	mov    %rbx,0x80(%rsp)
   1cfbe:	00 
   1cfbf:	48 8b b4 24 f8 00 00 	mov    0xf8(%rsp),%rsi
   1cfc6:	00 
   1cfc7:	48 85 f6             	test   %rsi,%rsi
   1cfca:	0f 84 ae 01 00 00    	je     0x1d17e
   1cfd0:	21 5c 24 58          	and    %ebx,0x58(%rsp)
   1cfd4:	48 8d 44 24 64       	lea    0x64(%rsp),%rax
   1cfd9:	48 89 44 24 50       	mov    %rax,0x50(%rsp)
   1cfde:	48 8d 44 24 60       	lea    0x60(%rsp),%rax
   1cfe3:	48 89 44 24 48       	mov    %rax,0x48(%rsp)
   1cfe8:	48 8d 84 24 a0 00 00 	lea    0xa0(%rsp),%rax
   1cfef:	00 
   1cff0:	48 89 44 24 40       	mov    %rax,0x40(%rsp)
   1cff5:	48 8d 84 24 88 00 00 	lea    0x88(%rsp),%rax
   1cffc:	00 
   1cffd:	48 89 44 24 38       	mov    %rax,0x38(%rsp)
   1d002:	48 8d 44 24 78       	lea    0x78(%rsp),%rax
   1d007:	48 89 44 24 30       	mov    %rax,0x30(%rsp)
   1d00c:	48 8d 84 24 90 00 00 	lea    0x90(%rsp),%rax
   1d013:	00 
   1d014:	48 89 44 24 28       	mov    %rax,0x28(%rsp)
   1d019:	48 8d 44 24 6c       	lea    0x6c(%rsp),%rax
   1d01e:	48 89 44 24 20       	mov    %rax,0x20(%rsp)
   1d023:	4c 8d 4c 24 70       	lea    0x70(%rsp),%r9
   1d028:	4c 8d 84 24 a8 00 00 	lea    0xa8(%rsp),%r8
   1d02f:	00 
   1d030:	8a 94 24 e0 00 00 00 	mov    0xe0(%rsp),%dl
   1d037:	48 8b cf             	mov    %rdi,%rcx
   1d03a:	e8 99 f9 ff ff       	callq  0x1c9d8
   1d03f:	85 c0                	test   %eax,%eax
   1d041:	0f 85 6a 01 00 00    	jne    0x1d1b1
   1d047:	33 f6                	xor    %esi,%esi
   1d049:	48 89 b4 24 98 00 00 	mov    %rsi,0x98(%rsp)
   1d050:	00 
   1d051:	8b 44 24 6c          	mov    0x6c(%rsp),%eax
   1d055:	48 3b f0             	cmp    %rax,%rsi
   1d058:	0f 83 ab 00 00 00    	jae    0x1d109
   1d05e:	38 9c 24 e0 00 00 00 	cmp    %bl,0xe0(%rsp)
   1d065:	75 17                	jne    0x1d07e
   1d067:	48 8b 44 24 70       	mov    0x70(%rsp),%rax
   1d06c:	8b 14 b0             	mov    (%rax,%rsi,4),%edx
   1d06f:	48 8b cf             	mov    %rdi,%rcx
   1d072:	e8 c9 f3 ff ff       	callq  0x1c440
   1d077:	8b c8                	mov    %eax,%ecx
   1d079:	48 03 cf             	add    %rdi,%rcx
   1d07c:	eb 0b                	jmp    0x1d089
   1d07e:	48 8b 44 24 70       	mov    0x70(%rsp),%rax
   1d083:	8b 0c b0             	mov    (%rax,%rsi,4),%ecx
   1d086:	48 03 cf             	add    %rdi,%rcx
   1d089:	48 8b 94 24 e8 00 00 	mov    0xe8(%rsp),%rdx
   1d090:	00 
   1d091:	e8 e2 ef ff ff       	callq  0x1c078
   1d096:	84 c0                	test   %al,%al
   1d098:	74 5e                	je     0x1d0f8
   1d09a:	8a 94 24 e0 00 00 00 	mov    0xe0(%rsp),%dl
   1d0a1:	84 d2                	test   %dl,%dl
   1d0a3:	74 21                	je     0x1d0c6
   1d0a5:	48 8b 44 24 78       	mov    0x78(%rsp),%rax
   1d0aa:	0f b7 0c 70          	movzwl (%rax,%rsi,2),%ecx
   1d0ae:	48 8b 84 24 88 00 00 	mov    0x88(%rsp),%rax
   1d0b5:	00 
   1d0b6:	8b 1c 88             	mov    (%rax,%rcx,4),%ebx
   1d0b9:	48 03 df             	add    %rdi,%rbx
   1d0bc:	48 89 9c 24 80 00 00 	mov    %rbx,0x80(%rsp)
   1d0c3:	00 
   1d0c4:	eb 4a                	jmp    0x1d110
   1d0c6:	48 8b 44 24 78       	mov    0x78(%rsp),%rax
   1d0cb:	0f b7 0c 70          	movzwl (%rax,%rsi,2),%ecx
   1d0cf:	48 8b 84 24 88 00 00 	mov    0x88(%rsp),%rax
   1d0d6:	00 
   1d0d7:	8b 14 88             	mov    (%rax,%rcx,4),%edx
   1d0da:	48 8b cf             	mov    %rdi,%rcx
   1d0dd:	e8 5e f3 ff ff       	callq  0x1c440
   1d0e2:	8b d8                	mov    %eax,%ebx
   1d0e4:	48 03 df             	add    %rdi,%rbx
   1d0e7:	48 89 9c 24 80 00 00 	mov    %rbx,0x80(%rsp)
   1d0ee:	00 
   1d0ef:	8a 94 24 e0 00 00 00 	mov    0xe0(%rsp),%dl
   1d0f6:	eb 18                	jmp    0x1d110
   1d0f8:	48 83 c6 01          	add    $0x1,%rsi
   1d0fc:	48 89 b4 24 98 00 00 	mov    %rsi,0x98(%rsp)
   1d103:	00 
   1d104:	e9 48 ff ff ff       	jmpq   0x1d051
   1d109:	8a 94 24 e0 00 00 00 	mov    0xe0(%rsp),%dl
   1d110:	48 85 db             	test   %rbx,%rbx
   1d113:	74 43                	je     0x1d158
   1d115:	84 d2                	test   %dl,%dl
   1d117:	74 10                	je     0x1d129
   1d119:	8b 44 24 60          	mov    0x60(%rsp),%eax
   1d11d:	48 03 c7             	add    %rdi,%rax
   1d120:	8b 4c 24 64          	mov    0x64(%rsp),%ecx
   1d124:	48 03 c8             	add    %rax,%rcx
   1d127:	eb 18                	jmp    0x1d141
   1d129:	8b 54 24 60          	mov    0x60(%rsp),%edx
   1d12d:	48 8b cf             	mov    %rdi,%rcx
   1d130:	e8 0b f3 ff ff       	callq  0x1c440
   1d135:	8b c0                	mov    %eax,%eax
   1d137:	48 03 c7             	add    %rdi,%rax
   1d13a:	8b 4c 24 64          	mov    0x64(%rsp),%ecx
   1d13e:	48 03 c8             	add    %rax,%rcx
   1d141:	48 3b c3             	cmp    %rbx,%rax
   1d144:	73 12                	jae    0x1d158
   1d146:	48 3b d9             	cmp    %rcx,%rbx
   1d149:	73 0d                	jae    0x1d158
   1d14b:	48 8b b4 24 f8 00 00 	mov    0xf8(%rsp),%rsi
   1d152:	00 
   1d153:	48 89 1e             	mov    %rbx,(%rsi)
   1d156:	eb 64                	jmp    0x1d1bc
   1d158:	48 85 db             	test   %rbx,%rbx
   1d15b:	74 12                	je     0x1d16f
   1d15d:	48 8b 84 24 f8 00 00 	mov    0xf8(%rsp),%rax
   1d164:	00 
   1d165:	48 89 18             	mov    %rbx,(%rax)
   1d168:	33 c0                	xor    %eax,%eax
   1d16a:	e9 f7 00 00 00       	jmpq   0x1d266
   1d16f:	b8 7a 00 00 c0       	mov    $0xc000007a,%eax
   1d174:	48 8b b4 24 f8 00 00 	mov    0xf8(%rsp),%rsi
   1d17b:	00 
   1d17c:	eb 33                	jmp    0x1d1b1
   1d17e:	b8 0d 00 00 c0       	mov    $0xc000000d,%eax
   1d183:	eb 2c                	jmp    0x1d1b1
   1d185:	44 8b 8c 24 f0 00 00 	mov    0xf0(%rsp),%r9d
   1d18c:	00 
   1d18d:	83 64 24 28 00       	andl   $0x0,0x28(%rsp)
   1d192:	48 8b b4 24 f8 00 00 	mov    0xf8(%rsp),%rsi
   1d199:	00 
   1d19a:	48 89 74 24 20       	mov    %rsi,0x20(%rsp)
   1d19f:	45 33 c0             	xor    %r8d,%r8d
   1d1a2:	8a 94 24 e0 00 00 00 	mov    0xe0(%rsp),%dl
   1d1a9:	48 8b cf             	mov    %rdi,%rcx
   1d1ac:	e8 af fa ff ff       	callq  0x1cc60
   1d1b1:	3d 16 00 00 c0       	cmp    $0xc0000016,%eax
   1d1b6:	0f 85 aa 00 00 00    	jne    0x1d266
   1d1bc:	4c 8b 0e             	mov    (%rsi),%r9
   1d1bf:	33 c9                	xor    %ecx,%ecx
   1d1c1:	45 33 d2             	xor    %r10d,%r10d
   1d1c4:	33 d2                	xor    %edx,%edx
   1d1c6:	89 54 24 68          	mov    %edx,0x68(%rsp)
   1d1ca:	48 8b 9c 24 d8 00 00 	mov    0xd8(%rsp),%rbx
   1d1d1:	00 
   1d1d2:	81 fa 00 01 00 00    	cmp    $0x100,%edx
   1d1d8:	7d 3d                	jge    0x1d217
   1d1da:	4c 63 c2             	movslq %edx,%r8
   1d1dd:	43 8a 04 08          	mov    (%r8,%r9,1),%al
   1d1e1:	41 88 04 18          	mov    %al,(%r8,%rbx,1)
   1d1e5:	43 80 3c 08 2e       	cmpb   $0x2e,(%r8,%r9,1)
   1d1ea:	75 22                	jne    0x1d20e
   1d1ec:	41 c6 44 18 01 64    	movb   $0x64,0x1(%r8,%rbx,1)
   1d1f2:	41 c6 44 18 02 6c    	movb   $0x6c,0x2(%r8,%rbx,1)
   1d1f8:	41 c6 44 18 03 6c    	movb   $0x6c,0x3(%r8,%rbx,1)
   1d1fe:	41 88 4c 18 04       	mov    %cl,0x4(%r8,%rbx,1)
   1d203:	8d 42 01             	lea    0x1(%rdx),%eax
   1d206:	48 63 c8             	movslq %eax,%rcx
   1d209:	49 03 c9             	add    %r9,%rcx
   1d20c:	eb 09                	jmp    0x1d217
   1d20e:	83 c2 01             	add    $0x1,%edx
   1d211:	89 54 24 68          	mov    %edx,0x68(%rsp)
   1d215:	eb bb                	jmp    0x1d1d2
   1d217:	48 85 c9             	test   %rcx,%rcx
   1d21a:	75 07                	jne    0x1d223
   1d21c:	b8 01 00 00 c0       	mov    $0xc0000001,%eax
   1d221:	eb 43                	jmp    0x1d266
   1d223:	80 39 23             	cmpb   $0x23,(%rcx)
   1d226:	75 0e                	jne    0x1d236
   1d228:	48 83 c1 01          	add    $0x1,%rcx
   1d22c:	e8 73 ef ff ff       	callq  0x1c1a4
   1d231:	44 8b d0             	mov    %eax,%r10d
   1d234:	33 c9                	xor    %ecx,%ecx
   1d236:	48 89 74 24 38       	mov    %rsi,0x38(%rsp)
   1d23b:	44 89 54 24 30       	mov    %r10d,0x30(%rsp)
   1d240:	48 89 4c 24 28       	mov    %rcx,0x28(%rsp)
   1d245:	8a 84 24 e0 00 00 00 	mov    0xe0(%rsp),%al
   1d24c:	88 44 24 20          	mov    %al,0x20(%rsp)
   1d250:	4c 8b cb             	mov    %rbx,%r9
   1d253:	4c 8b 84 24 d0 00 00 	mov    0xd0(%rsp),%r8
   1d25a:	00 
   1d25b:	33 d2                	xor    %edx,%edx
   1d25d:	48 8b cb             	mov    %rbx,%rcx
   1d260:	e8 07 fd ff ff       	callq  0x1cf6c
   1d265:	90                   	nop
   1d266:	4c 8d 9c 24 b0 00 00 	lea    0xb0(%rsp),%r11
   1d26d:	00 
   1d26e:	49 8b 5b 10          	mov    0x10(%r11),%rbx
   1d272:	49 8b 73 18          	mov    0x18(%r11),%rsi
   1d276:	49 8b e3             	mov    %r11,%rsp
   1d279:	5f                   	pop    %rdi
   1d27a:	c3                   	retq   
   1d27b:	cc                   	int3   
   1d27c:	40 55                	rex push %rbp
   1d27e:	48 83 ec 60          	sub    $0x60,%rsp
   1d282:	48 8b ea             	mov    %rdx,%rbp
   1d285:	48 83 c4 60          	add    $0x60,%rsp
   1d289:	5d                   	pop    %rbp
   1d28a:	c3                   	retq   
   1d28b:	cc                   	int3   
   1d28c:	cc                   	int3   
   1d28d:	cc                   	int3   
   1d28e:	cc                   	int3   
   1d28f:	cc                   	int3   
   1d290:	cc                   	int3   
   1d291:	cc                   	int3   
   1d292:	cc                   	int3   
   1d293:	cc                   	int3   
   1d294:	cc                   	int3   
   1d295:	cc                   	int3   
   1d296:	cc                   	int3   
   1d297:	cc                   	int3   
   1d298:	cc                   	int3   
   1d299:	cc                   	int3   
   1d29a:	cc                   	int3   
   1d29b:	cc                   	int3   
   1d29c:	cc                   	int3   
   1d29d:	cc                   	int3   
   1d29e:	cc                   	int3   
   1d29f:	cc                   	int3   
   1d2a0:	4c 89 4c 24 20       	mov    %r9,0x20(%rsp)
   1d2a5:	4c 89 44 24 18       	mov    %r8,0x18(%rsp)
   1d2aa:	48 89 54 24 10       	mov    %rdx,0x10(%rsp)
   1d2af:	48 89 4c 24 08       	mov    %rcx,0x8(%rsp)
   1d2b4:	53                   	push   %rbx
   1d2b5:	41 54                	push   %r12
   1d2b7:	41 55                	push   %r13
   1d2b9:	41 56                	push   %r14
   1d2bb:	41 57                	push   %r15
   1d2bd:	48 83 ec 20          	sub    $0x20,%rsp
   1d2c1:	48 b8 7a d3 01 00 00 	movabs $0x1d37a,%rax
   1d2c8:	00 00 00 
   1d2cb:	48 bb 3f d3 01 00 00 	movabs $0x1d33f,%rbx
   1d2d2:	00 00 00 
   1d2d5:	48 2b c3             	sub    %rbx,%rax
   1d2d8:	48 8b d0             	mov    %rax,%rdx
   1d2db:	48 33 c9             	xor    %rcx,%rcx
   1d2de:	e8 9d 36 00 00       	callq  0x20980
   1d2e3:	48 33 db             	xor    %rbx,%rbx
   1d2e6:	48 3b d8             	cmp    %rax,%rbx
   1d2e9:	74 40                	je     0x1d32b
   1d2eb:	4c 8b e8             	mov    %rax,%r13
   1d2ee:	49 bb 3f d3 01 00 00 	movabs $0x1d33f,%r11
   1d2f5:	00 00 00 
   1d2f8:	49 bc 7a d3 01 00 00 	movabs $0x1d37a,%r12
   1d2ff:	00 00 00 
   1d302:	4c 8b d0             	mov    %rax,%r10
   1d305:	49 8b c3             	mov    %r11,%rax
   1d308:	49 3b c4             	cmp    %r12,%rax
   1d30b:	74 0e                	je     0x1d31b
   1d30d:	41 8a 03             	mov    (%r11),%al
   1d310:	41 88 02             	mov    %al,(%r10)
   1d313:	49 ff c3             	inc    %r11
   1d316:	49 ff c2             	inc    %r10
   1d319:	eb ea                	jmp    0x1d305
   1d31b:	48 83 c4 20          	add    $0x20,%rsp
   1d31f:	41 5f                	pop    %r15
   1d321:	41 5e                	pop    %r14
   1d323:	41 5e                	pop    %r14
   1d325:	41 5c                	pop    %r12
   1d327:	5b                   	pop    %rbx
   1d328:	41 55                	push   %r13
   1d32a:	c3                   	retq   
   1d32b:	48 33 c0             	xor    %rax,%rax
   1d32e:	48 ff c8             	dec    %rax
   1d331:	48 83 c4 20          	add    $0x20,%rsp
   1d335:	41 5f                	pop    %r15
   1d337:	41 5e                	pop    %r14
   1d339:	41 5d                	pop    %r13
   1d33b:	41 5c                	pop    %r12
   1d33d:	5b                   	pop    %rbx
   1d33e:	c3                   	retq   
   1d33f:	48 83 ec 28          	sub    $0x28,%rsp
   1d343:	48 8b 4c 24 30       	mov    0x30(%rsp),%rcx
   1d348:	48 8b 54 24 38       	mov    0x38(%rsp),%rdx
   1d34d:	ff 54 24 50          	callq  *0x50(%rsp)
   1d351:	48 8b 4c 24 30       	mov    0x30(%rsp),%rcx
   1d356:	ff 54 24 48          	callq  *0x48(%rsp)
   1d35a:	49 8b cd             	mov    %r13,%rcx
   1d35d:	48 ba 3b 00 00 00 00 	movabs $0x3b,%rdx
   1d364:	00 00 00 
   1d367:	4c 8b 64 24 50       	mov    0x50(%rsp),%r12
   1d36c:	4c 8b 74 24 40       	mov    0x40(%rsp),%r14
   1d371:	48 83 ec 08          	sub    $0x8,%rsp
   1d375:	41 56                	push   %r14
   1d377:	41 54                	push   %r12
   1d379:	c3                   	retq   
   1d37a:	cc                   	int3   
   1d37b:	cc                   	int3   
   1d37c:	cc                   	int3   
   1d37d:	cc                   	int3   
   1d37e:	cc                   	int3   
   1d37f:	cc                   	int3   
   1d380:	48 89 5c 24 08       	mov    %rbx,0x8(%rsp)
   1d385:	48 89 6c 24 10       	mov    %rbp,0x10(%rsp)
   1d38a:	48 89 74 24 18       	mov    %rsi,0x18(%rsp)
   1d38f:	57                   	push   %rdi
   1d390:	41 54                	push   %r12
   1d392:	41 55                	push   %r13
   1d394:	41 56                	push   %r14
   1d396:	41 57                	push   %r15
   1d398:	48 83 ec 20          	sub    $0x20,%rsp
   1d39c:	48 85 c9             	test   %rcx,%rcx
   1d39f:	4d 8b f9             	mov    %r9,%r15
   1d3a2:	41 8a f8             	mov    %r8b,%dil
   1d3a5:	48 8b d9             	mov    %rcx,%rbx
   1d3a8:	0f 84 a8 01 00 00    	je     0x1d556
   1d3ae:	48 85 d2             	test   %rdx,%rdx
   1d3b1:	0f 84 9f 01 00 00    	je     0x1d556
   1d3b7:	4d 85 c9             	test   %r9,%r9
   1d3ba:	0f 84 96 01 00 00    	je     0x1d556
   1d3c0:	ff 15 5a 4d 00 00    	callq  *0x4d5a(%rip)        # 0x22120
   1d3c6:	84 c0                	test   %al,%al
   1d3c8:	0f 84 88 01 00 00    	je     0x1d556
   1d3ce:	83 ca ff             	or     $0xffffffff,%edx
   1d3d1:	48 8b cb             	mov    %rbx,%rcx
   1d3d4:	e8 cf f2 ff ff       	callq  0x1c6a8
   1d3d9:	48 85 c0             	test   %rax,%rax
   1d3dc:	48 8b f0             	mov    %rax,%rsi
   1d3df:	75 0a                	jne    0x1d3eb
   1d3e1:	b8 7b 00 00 c0       	mov    $0xc000007b,%eax
   1d3e6:	e9 70 01 00 00       	jmpq   0x1d55b
   1d3eb:	8b 80 98 00 00 00    	mov    0x98(%rax),%eax
   1d3f1:	40 0f b6 ef          	movzbl %dil,%ebp
   1d3f5:	66 c1 e5 08          	shl    $0x8,%bp
   1d3f9:	85 c0                	test   %eax,%eax
   1d3fb:	74 17                	je     0x1d414
   1d3fd:	8b 96 9c 00 00 00    	mov    0x9c(%rsi),%edx
   1d403:	85 d2                	test   %edx,%edx
   1d405:	74 0d                	je     0x1d414
   1d407:	48 8d 0c 03          	lea    (%rbx,%rax,1),%rcx
   1d40b:	44 0f b7 c5          	movzwl %bp,%r8d
   1d40f:	e8 f8 06 00 00       	callq  0x1db0c
   1d414:	8b 86 b0 00 00 00    	mov    0xb0(%rsi),%eax
   1d41a:	85 c0                	test   %eax,%eax
   1d41c:	74 17                	je     0x1d435
   1d41e:	8b 96 b4 00 00 00    	mov    0xb4(%rsi),%edx
   1d424:	85 d2                	test   %edx,%edx
   1d426:	74 0d                	je     0x1d435
   1d428:	48 8d 0c 03          	lea    (%rbx,%rax,1),%rcx
   1d42c:	44 0f b7 c5          	movzwl %bp,%r8d
   1d430:	e8 d7 06 00 00       	callq  0x1db0c
   1d435:	8b 86 b8 00 00 00    	mov    0xb8(%rsi),%eax
   1d43b:	85 c0                	test   %eax,%eax
   1d43d:	74 17                	je     0x1d456
   1d43f:	8b 96 bc 00 00 00    	mov    0xbc(%rsi),%edx
   1d445:	85 d2                	test   %edx,%edx
   1d447:	74 0d                	je     0x1d456
   1d449:	48 8d 0c 03          	lea    (%rbx,%rax,1),%rcx
   1d44d:	44 0f b7 c5          	movzwl %bp,%r8d
   1d451:	e8 b6 06 00 00       	callq  0x1db0c
   1d456:	8b 86 88 00 00 00    	mov    0x88(%rsi),%eax
   1d45c:	85 c0                	test   %eax,%eax
   1d45e:	74 17                	je     0x1d477
   1d460:	8b 96 8c 00 00 00    	mov    0x8c(%rsi),%edx
   1d466:	85 d2                	test   %edx,%edx
   1d468:	74 0d                	je     0x1d477
   1d46a:	48 8d 0c 03          	lea    (%rbx,%rax,1),%rcx
   1d46e:	44 0f b7 c5          	movzwl %bp,%r8d
   1d472:	e8 95 06 00 00       	callq  0x1db0c
   1d477:	48 63 43 3c          	movslq 0x3c(%rbx),%rax
   1d47b:	8b 94 18 90 00 00 00 	mov    0x90(%rax,%rbx,1),%edx
   1d482:	85 d2                	test   %edx,%edx
   1d484:	0f 84 b3 00 00 00    	je     0x1d53d
   1d48a:	8b 8c 18 94 00 00 00 	mov    0x94(%rax,%rbx,1),%ecx
   1d491:	85 c9                	test   %ecx,%ecx
   1d493:	0f 84 a4 00 00 00    	je     0x1d53d
   1d499:	4c 8d 34 11          	lea    (%rcx,%rdx,1),%r14
   1d49d:	4c 8d 24 1a          	lea    (%rdx,%rbx,1),%r12
   1d4a1:	4c 03 f3             	add    %rbx,%r14
   1d4a4:	e9 8b 00 00 00       	jmpq   0x1d534
   1d4a9:	41 83 7c 24 0c 00    	cmpl   $0x0,0xc(%r12)
   1d4af:	0f 84 88 00 00 00    	je     0x1d53d
   1d4b5:	45 8b 4c 24 0c       	mov    0xc(%r12),%r9d
   1d4ba:	48 83 c9 ff          	or     $0xffffffffffffffff,%rcx
   1d4be:	33 c0                	xor    %eax,%eax
   1d4c0:	4c 03 cb             	add    %rbx,%r9
   1d4c3:	44 0f b7 c5          	movzwl %bp,%r8d
   1d4c7:	49 8b f9             	mov    %r9,%rdi
   1d4ca:	f2 ae                	repnz scas %es:(%rdi),%al
   1d4cc:	48 f7 d1             	not    %rcx
   1d4cf:	48 8d 51 ff          	lea    -0x1(%rcx),%rdx
   1d4d3:	49 8b c9             	mov    %r9,%rcx
   1d4d6:	e8 31 06 00 00       	callq  0x1db0c
   1d4db:	41 8b 14 24          	mov    (%r12),%edx
   1d4df:	85 d2                	test   %edx,%edx
   1d4e1:	75 05                	jne    0x1d4e8
   1d4e3:	41 8b 54 24 10       	mov    0x10(%r12),%edx
   1d4e8:	44 8b ea             	mov    %edx,%r13d
   1d4eb:	4c 03 eb             	add    %rbx,%r13
   1d4ee:	eb 38                	jmp    0x1d528
   1d4f0:	8b c8                	mov    %eax,%ecx
   1d4f2:	48 b8 00 00 00 00 00 	movabs $0x8000000000000000,%rax
   1d4f9:	00 00 80 
   1d4fc:	48 85 c8             	test   %rcx,%rax
   1d4ff:	74 23                	je     0x1d524
   1d501:	4c 8d 4c 19 02       	lea    0x2(%rcx,%rbx,1),%r9
   1d506:	48 83 c9 ff          	or     $0xffffffffffffffff,%rcx
   1d50a:	33 c0                	xor    %eax,%eax
   1d50c:	49 8b f9             	mov    %r9,%rdi
   1d50f:	44 0f b7 c5          	movzwl %bp,%r8d
   1d513:	f2 ae                	repnz scas %es:(%rdi),%al
   1d515:	48 f7 d1             	not    %rcx
   1d518:	48 8d 51 ff          	lea    -0x1(%rcx),%rdx
   1d51c:	49 8b c9             	mov    %r9,%rcx
   1d51f:	e8 e8 05 00 00       	callq  0x1db0c
   1d524:	49 83 c5 04          	add    $0x4,%r13
   1d528:	41 8b 45 00          	mov    0x0(%r13),%eax
   1d52c:	85 c0                	test   %eax,%eax
   1d52e:	75 c0                	jne    0x1d4f0
   1d530:	49 83 c4 14          	add    $0x14,%r12
   1d534:	4d 3b e6             	cmp    %r14,%r12
   1d537:	0f 82 6c ff ff ff    	jb     0x1d4a9
   1d53d:	8b 46 54             	mov    0x54(%rsi),%eax
   1d540:	44 0f b7 c5          	movzwl %bp,%r8d
   1d544:	48 8b cb             	mov    %rbx,%rcx
   1d547:	41 89 07             	mov    %eax,(%r15)
   1d54a:	8b 56 54             	mov    0x54(%rsi),%edx
   1d54d:	e8 ba 05 00 00       	callq  0x1db0c
   1d552:	33 c0                	xor    %eax,%eax
   1d554:	eb 05                	jmp    0x1d55b
   1d556:	b8 0d 00 00 c0       	mov    $0xc000000d,%eax
   1d55b:	48 8b 5c 24 50       	mov    0x50(%rsp),%rbx
   1d560:	48 8b 6c 24 58       	mov    0x58(%rsp),%rbp
   1d565:	48 8b 74 24 60       	mov    0x60(%rsp),%rsi
   1d56a:	48 83 c4 20          	add    $0x20,%rsp
   1d56e:	41 5f                	pop    %r15
   1d570:	41 5e                	pop    %r14
   1d572:	41 5d                	pop    %r13
   1d574:	41 5c                	pop    %r12
   1d576:	5f                   	pop    %rdi
   1d577:	c3                   	retq   
   1d578:	cc                   	int3   
   1d579:	cc                   	int3   
   1d57a:	cc                   	int3   
   1d57b:	cc                   	int3   
   1d57c:	cc                   	int3   
   1d57d:	cc                   	int3   
   1d57e:	cc                   	int3   
   1d57f:	cc                   	int3   
   1d580:	48 89 0c 24          	mov    %rcx,(%rsp)
   1d584:	c3                   	retq   
   1d585:	cc                   	int3   
   1d586:	c3                   	retq   
   1d587:	cc                   	int3   
   1d588:	cc                   	int3   
   1d589:	cc                   	int3   
   1d58a:	cc                   	int3   
   1d58b:	cc                   	int3   
   1d58c:	cc                   	int3   
   1d58d:	cc                   	int3   
   1d58e:	cc                   	int3   
   1d58f:	cc                   	int3   
	...
   1d5ac:	48 89 4c 24 08       	mov    %rcx,0x8(%rsp)
   1d5b1:	48 83 ec 08          	sub    $0x8,%rsp
   1d5b5:	41 52                	push   %r10
   1d5b7:	41 53                	push   %r11
   1d5b9:	50                   	push   %rax
   1d5ba:	56                   	push   %rsi
   1d5bb:	55                   	push   %rbp
   1d5bc:	0f 01 0d cf ff ff ff 	sidt   -0x31(%rip)        # 0x1d592
   1d5c3:	48 8b 35 ca ff ff ff 	mov    -0x36(%rip),%rsi        # 0x1d594
   1d5ca:	48 8d 2d cb ff ff ff 	lea    -0x35(%rip),%rbp        # 0x1d59c
   1d5d1:	48 ad                	lods   %ds:(%rsi),%rax
   1d5d3:	48 89 45 00          	mov    %rax,0x0(%rbp)
   1d5d7:	48 ad                	lods   %ds:(%rsi),%rax
   1d5d9:	48 89 45 08          	mov    %rax,0x8(%rbp)
   1d5dd:	48 33 c0             	xor    %rax,%rax
   1d5e0:	44 8b 15 bd ff ff ff 	mov    -0x43(%rip),%r10d        # 0x1d5a4
   1d5e7:	41 83 e2 ff          	and    $0xffffffff,%r10d
   1d5eb:	49 8b c2             	mov    %r10,%rax
   1d5ee:	48 c1 e0 10          	shl    $0x10,%rax
   1d5f2:	4d 33 d2             	xor    %r10,%r10
   1d5f5:	66 44 8b 15 a5 ff ff 	mov    -0x5b(%rip),%r10w        # 0x1d5a2
   1d5fc:	ff 
   1d5fd:	66 41 83 e2 ff       	and    $0xffff,%r10w
   1d602:	49 0b c2             	or     %r10,%rax
   1d605:	48 c1 e0 10          	shl    $0x10,%rax
   1d609:	4d 33 d2             	xor    %r10,%r10
   1d60c:	66 44 8b 15 88 ff ff 	mov    -0x78(%rip),%r10w        # 0x1d59c
   1d613:	ff 
   1d614:	66 41 83 e2 ff       	and    $0xffff,%r10w
   1d619:	49 0b c2             	or     %r10,%rax
   1d61c:	48 89 01             	mov    %rax,(%rcx)
   1d61f:	5d                   	pop    %rbp
   1d620:	5e                   	pop    %rsi
   1d621:	58                   	pop    %rax
   1d622:	41 5b                	pop    %r11
   1d624:	41 5a                	pop    %r10
   1d626:	48 83 c4 08          	add    $0x8,%rsp
   1d62a:	c3                   	retq   
   1d62b:	cc                   	int3   
   1d62c:	cc                   	int3   
   1d62d:	cc                   	int3   
   1d62e:	cc                   	int3   
   1d62f:	cc                   	int3   
   1d630:	cc                   	int3   
   1d631:	cc                   	int3   
   1d632:	cc                   	int3   
   1d633:	cc                   	int3   
   1d634:	48 89 4c 24 08       	mov    %rcx,0x8(%rsp)
   1d639:	48 83 ec 28          	sub    $0x28,%rsp
   1d63d:	33 c9                	xor    %ecx,%ecx
   1d63f:	ff 54 24 30          	callq  *0x30(%rsp)
   1d643:	48 83 c4 28          	add    $0x28,%rsp
   1d647:	c3                   	retq   
   1d648:	cc                   	int3   
   1d649:	cc                   	int3   
   1d64a:	cc                   	int3   
   1d64b:	cc                   	int3   
   1d64c:	cc                   	int3   
   1d64d:	cc                   	int3   
   1d64e:	cc                   	int3   
   1d64f:	cc                   	int3   
   1d650:	48 8b c4             	mov    %rsp,%rax
   1d653:	48 89 58 10          	mov    %rbx,0x10(%rax)
   1d657:	48 89 70 18          	mov    %rsi,0x18(%rax)
   1d65b:	48 89 78 20          	mov    %rdi,0x20(%rax)
   1d65f:	4c 63 49 3c          	movslq 0x3c(%rcx),%r9
   1d663:	c6 40 08 2e          	movb   $0x2e,0x8(%rax)
   1d667:	c6 40 09 74          	movb   $0x74,0x9(%rax)
   1d66b:	4c 03 c9             	add    %rcx,%r9
   1d66e:	c6 40 0a 65          	movb   $0x65,0xa(%rax)
   1d672:	c6 40 0b 78          	movb   $0x78,0xb(%rax)
   1d676:	45 0f b7 59 06       	movzwl 0x6(%r9),%r11d
   1d67b:	c6 40 0c 74          	movb   $0x74,0xc(%rax)
   1d67f:	c6 40 0d 00          	movb   $0x0,0xd(%rax)
   1d683:	41 0f b7 41 14       	movzwl 0x14(%r9),%eax
   1d688:	45 33 d2             	xor    %r10d,%r10d
   1d68b:	45 85 db             	test   %r11d,%r11d
   1d68e:	48 8b f2             	mov    %rdx,%rsi
   1d691:	49 8b f8             	mov    %r8,%rdi
   1d694:	48 8b d9             	mov    %rcx,%rbx
   1d697:	4a 8d 54 08 18       	lea    0x18(%rax,%r9,1),%rdx
   1d69c:	7e 3e                	jle    0x1d6dc
   1d69e:	48 8d 44 24 08       	lea    0x8(%rsp),%rax
   1d6a3:	4c 8b ca             	mov    %rdx,%r9
   1d6a6:	4c 2b c8             	sub    %rax,%r9
   1d6a9:	45 33 c0             	xor    %r8d,%r8d
   1d6ac:	42 8a 44 04 08       	mov    0x8(%rsp,%r8,1),%al
   1d6b1:	4b 8d 0c 01          	lea    (%r9,%r8,1),%rcx
   1d6b5:	38 44 0c 08          	cmp    %al,0x8(%rsp,%rcx,1)
   1d6b9:	75 0a                	jne    0x1d6c5
   1d6bb:	49 83 c0 01          	add    $0x1,%r8
   1d6bf:	49 83 f8 06          	cmp    $0x6,%r8
   1d6c3:	72 e7                	jb     0x1d6ac
   1d6c5:	49 83 f8 06          	cmp    $0x6,%r8
   1d6c9:	74 11                	je     0x1d6dc
   1d6cb:	41 83 c2 01          	add    $0x1,%r10d
   1d6cf:	48 83 c2 28          	add    $0x28,%rdx
   1d6d3:	49 83 c1 28          	add    $0x28,%r9
   1d6d7:	45 3b d3             	cmp    %r11d,%r10d
   1d6da:	7c cd                	jl     0x1d6a9
   1d6dc:	45 3b d3             	cmp    %r11d,%r10d
   1d6df:	75 07                	jne    0x1d6e8
   1d6e1:	b8 25 02 00 c0       	mov    $0xc0000225,%eax
   1d6e6:	eb 10                	jmp    0x1d6f8
   1d6e8:	8b 42 0c             	mov    0xc(%rdx),%eax
   1d6eb:	48 03 c3             	add    %rbx,%rax
   1d6ee:	48 89 06             	mov    %rax,(%rsi)
   1d6f1:	8b 42 08             	mov    0x8(%rdx),%eax
   1d6f4:	89 07                	mov    %eax,(%rdi)
   1d6f6:	33 c0                	xor    %eax,%eax
   1d6f8:	48 8b 5c 24 10       	mov    0x10(%rsp),%rbx
   1d6fd:	48 8b 74 24 18       	mov    0x18(%rsp),%rsi
   1d702:	48 8b 7c 24 20       	mov    0x20(%rsp),%rdi
   1d707:	c3                   	retq   
   1d708:	cc                   	int3   
   1d709:	cc                   	int3   
   1d70a:	cc                   	int3   
   1d70b:	cc                   	int3   
   1d70c:	cc                   	int3   
   1d70d:	cc                   	int3   
   1d70e:	cc                   	int3   
   1d70f:	cc                   	int3   
   1d710:	48 89 5c 24 18       	mov    %rbx,0x18(%rsp)
   1d715:	48 89 54 24 10       	mov    %rdx,0x10(%rsp)
   1d71a:	55                   	push   %rbp
   1d71b:	56                   	push   %rsi
   1d71c:	57                   	push   %rdi
   1d71d:	41 54                	push   %r12
   1d71f:	41 55                	push   %r13
   1d721:	41 56                	push   %r14
   1d723:	41 57                	push   %r15
   1d725:	48 83 ec 30          	sub    $0x30,%rsp
   1d729:	4d 8b f9             	mov    %r9,%r15
   1d72c:	4d 8b e8             	mov    %r8,%r13
   1d72f:	48 8b d9             	mov    %rcx,%rbx
   1d732:	33 ff                	xor    %edi,%edi
   1d734:	e8 f7 00 00 00       	callq  0x1d830
   1d739:	4c 8d 44 24 70       	lea    0x70(%rsp),%r8
   1d73e:	48 8d 54 24 20       	lea    0x20(%rsp),%rdx
   1d743:	48 8b cb             	mov    %rbx,%rcx
   1d746:	48 89 58 10          	mov    %rbx,0x10(%rax)
   1d74a:	48 89 44 24 28       	mov    %rax,0x28(%rsp)
   1d74f:	e8 fc fe ff ff       	callq  0x1d650
   1d754:	85 c0                	test   %eax,%eax
   1d756:	0f 88 a9 00 00 00    	js     0x1d805
   1d75c:	8b 6c 24 70          	mov    0x70(%rsp),%ebp
   1d760:	4c 8b 74 24 20       	mov    0x20(%rsp),%r14
   1d765:	40 32 f6             	xor    %sil,%sil
   1d768:	83 c5 ff             	add    $0xffffffff,%ebp
   1d76b:	45 33 e4             	xor    %r12d,%r12d
   1d76e:	49 03 ee             	add    %r14,%rbp
   1d771:	4c 3b f5             	cmp    %rbp,%r14
   1d774:	49 8b de             	mov    %r14,%rbx
   1d777:	73 72                	jae    0x1d7eb
   1d779:	4c 8b 74 24 78       	mov    0x78(%rsp),%r14
   1d77e:	41 3b 7d 00          	cmp    0x0(%r13),%edi
   1d782:	73 5e                	jae    0x1d7e2
   1d784:	83 ff 08             	cmp    $0x8,%edi
   1d787:	77 59                	ja     0x1d7e2
   1d789:	80 3b ff             	cmpb   $0xff,(%rbx)
   1d78c:	75 4b                	jne    0x1d7d9
   1d78e:	80 7b 01 d6          	cmpb   $0xd6,0x1(%rbx)
   1d792:	75 45                	jne    0x1d7d9
   1d794:	40 84 f6             	test   %sil,%sil
   1d797:	74 07                	je     0x1d7a0
   1d799:	b8 78 00 00 00       	mov    $0x78,%eax
   1d79e:	eb 16                	jmp    0x1d7b6
   1d7a0:	48 8b 44 24 28       	mov    0x28(%rsp),%rax
   1d7a5:	48 8b cb             	mov    %rbx,%rcx
   1d7a8:	48 8b 50 10          	mov    0x10(%rax),%rdx
   1d7ac:	e8 3f 0f 00 00       	callq  0x1e6f0
   1d7b1:	83 f8 78             	cmp    $0x78,%eax
   1d7b4:	72 0f                	jb     0x1d7c5
   1d7b6:	43 89 04 a7          	mov    %eax,(%r15,%r12,4)
   1d7ba:	83 c7 01             	add    $0x1,%edi
   1d7bd:	4b 89 1c e6          	mov    %rbx,(%r14,%r12,8)
   1d7c1:	49 83 c4 01          	add    $0x1,%r12
   1d7c5:	48 8d 05 68 fe ff ff 	lea    -0x198(%rip),%rax        # 0x1d634
   1d7cc:	48 b9 90 90 90 90 90 	movabs $0x9090909090909090,%rcx
   1d7d3:	90 90 90 
   1d7d6:	89 48 0b             	mov    %ecx,0xb(%rax)
   1d7d9:	48 83 c3 01          	add    $0x1,%rbx
   1d7dd:	48 3b dd             	cmp    %rbp,%rbx
   1d7e0:	72 9c                	jb     0x1d77e
   1d7e2:	85 ff                	test   %edi,%edi
   1d7e4:	4c 8b 74 24 20       	mov    0x20(%rsp),%r14
   1d7e9:	75 0d                	jne    0x1d7f8
   1d7eb:	40 84 f6             	test   %sil,%sil
   1d7ee:	75 10                	jne    0x1d800
   1d7f0:	40 b6 01             	mov    $0x1,%sil
   1d7f3:	e9 79 ff ff ff       	jmpq   0x1d771
   1d7f8:	41 89 7d 00          	mov    %edi,0x0(%r13)
   1d7fc:	33 c0                	xor    %eax,%eax
   1d7fe:	eb 05                	jmp    0x1d805
   1d800:	b8 25 02 00 c0       	mov    $0xc0000225,%eax
   1d805:	48 8b 9c 24 80 00 00 	mov    0x80(%rsp),%rbx
   1d80c:	00 
   1d80d:	48 83 c4 30          	add    $0x30,%rsp
   1d811:	41 5f                	pop    %r15
   1d813:	41 5e                	pop    %r14
   1d815:	41 5d                	pop    %r13
   1d817:	41 5c                	pop    %r12
   1d819:	5f                   	pop    %rdi
   1d81a:	5e                   	pop    %rsi
   1d81b:	5d                   	pop    %rbp
   1d81c:	c3                   	retq   
   1d81d:	cc                   	int3   
   1d81e:	cc                   	int3   
   1d81f:	cc                   	int3   
   1d820:	cc                   	int3   
   1d821:	cc                   	int3   
   1d822:	cc                   	int3   
   1d823:	cc                   	int3   
   1d824:	cc                   	int3   
   1d825:	cc                   	int3   
   1d826:	cc                   	int3   
   1d827:	cc                   	int3   
   1d828:	cc                   	int3   
   1d829:	cc                   	int3   
   1d82a:	cc                   	int3   
   1d82b:	cc                   	int3   
   1d82c:	cc                   	int3   
   1d82d:	cc                   	int3   
   1d82e:	cc                   	int3   
   1d82f:	cc                   	int3   
   1d830:	48 8d 05 01 00 00 00 	lea    0x1(%rip),%rax        # 0x1d838
   1d837:	c3                   	retq   
   1d838:	e8 1c 12 00 00       	callq  0x1ea59
   1d83d:	00 00                	add    %al,(%rax)
   1d83f:	00 e8                	add    %ch,%al
   1d841:	44 ed                	rex.R in (%dx),%eax
   1d843:	00 00                	add    %al,(%rax)
   1d845:	00 00                	add    %al,(%rax)
   1d847:	00 e8                	add    %ch,%al
   1d849:	b3 19                	mov    $0x19,%bl
	...
   1d857:	00 eb                	add    %ch,%bl
   1d859:	eb eb                	jmp    0x1d846
   1d85b:	eb eb                	jmp    0x1d848
   1d85d:	eb eb                	jmp    0x1d84a
   1d85f:	eb eb                	jmp    0x1d84c
   1d861:	eb eb                	jmp    0x1d84e
   1d863:	eb eb                	jmp    0x1d850
   1d865:	eb eb                	jmp    0x1d852
   1d867:	eb eb                	jmp    0x1d854
   1d869:	eb eb                	jmp    0x1d856
   1d86b:	eb eb                	jmp    0x1d858
   1d86d:	eb eb                	jmp    0x1d85a
   1d86f:	eb fe                	jmp    0x1d86f
   1d871:	eb 00                	jmp    0x1d873
   1d873:	00 00                	add    %al,(%rax)
   1d875:	00 00                	add    %al,(%rax)
   1d877:	00 fe                	add    %bh,%dh
   1d879:	eb 00                	jmp    0x1d87b
   1d87b:	00 00                	add    %al,(%rax)
   1d87d:	00 00                	add    %al,(%rax)
   1d87f:	00 fe                	add    %bh,%dh
   1d881:	eb 00                	jmp    0x1d883
   1d883:	00 00                	add    %al,(%rax)
   1d885:	00 00                	add    %al,(%rax)
   1d887:	00 fe                	add    %bh,%dh
   1d889:	eb 00                	jmp    0x1d88b
   1d88b:	00 00                	add    %al,(%rax)
   1d88d:	00 00                	add    %al,(%rax)
   1d88f:	00 fe                	add    %bh,%dh
   1d891:	eb 00                	jmp    0x1d893
   1d893:	00 00                	add    %al,(%rax)
   1d895:	00 00                	add    %al,(%rax)
   1d897:	00 fe                	add    %bh,%dh
   1d899:	eb 00                	jmp    0x1d89b
   1d89b:	00 00                	add    %al,(%rax)
   1d89d:	00 00                	add    %al,(%rax)
   1d89f:	00 fe                	add    %bh,%dh
   1d8a1:	eb 00                	jmp    0x1d8a3
   1d8a3:	00 00                	add    %al,(%rax)
   1d8a5:	00 00                	add    %al,(%rax)
   1d8a7:	00 fe                	add    %bh,%dh
   1d8a9:	eb 00                	jmp    0x1d8ab
   1d8ab:	00 00                	add    %al,(%rax)
   1d8ad:	00 00                	add    %al,(%rax)
   1d8af:	00 fe                	add    %bh,%dh
   1d8b1:	eb 00                	jmp    0x1d8b3
   1d8b3:	00 00                	add    %al,(%rax)
   1d8b5:	00 00                	add    %al,(%rax)
   1d8b7:	00 fe                	add    %bh,%dh
   1d8b9:	eb 00                	jmp    0x1d8bb
   1d8bb:	00 00                	add    %al,(%rax)
   1d8bd:	00 00                	add    %al,(%rax)
   1d8bf:	00 fe                	add    %bh,%dh
   1d8c1:	eb 00                	jmp    0x1d8c3
   1d8c3:	00 00                	add    %al,(%rax)
   1d8c5:	00 00                	add    %al,(%rax)
   1d8c7:	00 fe                	add    %bh,%dh
   1d8c9:	eb 00                	jmp    0x1d8cb
   1d8cb:	00 00                	add    %al,(%rax)
   1d8cd:	00 00                	add    %al,(%rax)
   1d8cf:	00 fe                	add    %bh,%dh
   1d8d1:	eb 00                	jmp    0x1d8d3
   1d8d3:	00 00                	add    %al,(%rax)
   1d8d5:	00 00                	add    %al,(%rax)
   1d8d7:	00 fe                	add    %bh,%dh
   1d8d9:	eb 00                	jmp    0x1d8db
   1d8db:	00 00                	add    %al,(%rax)
   1d8dd:	00 00                	add    %al,(%rax)
   1d8df:	00 fe                	add    %bh,%dh
   1d8e1:	eb 00                	jmp    0x1d8e3
   1d8e3:	00 00                	add    %al,(%rax)
   1d8e5:	00 00                	add    %al,(%rax)
   1d8e7:	00 fe                	add    %bh,%dh
   1d8e9:	eb 00                	jmp    0x1d8eb
   1d8eb:	00 00                	add    %al,(%rax)
   1d8ed:	00 00                	add    %al,(%rax)
   1d8ef:	00 52 50             	add    %dl,0x50(%rdx)
   1d8f2:	51                   	push   %rcx
   1d8f3:	48 33 c3             	xor    %rbx,%rax
   1d8f6:	48 33 c6             	xor    %rsi,%rax
   1d8f9:	33 d2                	xor    %edx,%edx
   1d8fb:	48 33 c9             	xor    %rcx,%rcx
   1d8fe:	8b 0d 54 ff ff ff    	mov    -0xac(%rip),%ecx        # 0x1d858
   1d904:	48 f7 f1             	div    %rcx
   1d907:	48 8b 05 52 ff ff ff 	mov    -0xae(%rip),%rax        # 0x1d860
   1d90e:	4d 33 d2             	xor    %r10,%r10
   1d911:	44 8b 14 90          	mov    (%rax,%rdx,4),%r10d
   1d915:	48 8b 05 4c ff ff ff 	mov    -0xb4(%rip),%rax        # 0x1d868
   1d91c:	4c 8b 1c d0          	mov    (%rax,%rdx,8),%r11
   1d920:	59                   	pop    %rcx
   1d921:	58                   	pop    %rax
   1d922:	5a                   	pop    %rdx
   1d923:	6a 00                	pushq  $0x0
   1d925:	6a 00                	pushq  $0x0
   1d927:	48 83 ec 30          	sub    $0x30,%rsp
   1d92b:	49 2b e2             	sub    %r10,%rsp
   1d92e:	41 53                	push   %r11
   1d930:	4a c7 44 14 08 00 00 	movq   $0x0,0x8(%rsp,%r10,1)
   1d937:	00 00 
   1d939:	4c 8b 1d c0 07 01 00 	mov    0x107c0(%rip),%r11        # 0x2e100
   1d940:	4e 89 5c 14 10       	mov    %r11,0x10(%rsp,%r10,1)
   1d945:	48 89 74 24 78       	mov    %rsi,0x78(%rsp)
   1d94a:	4a 8d 74 14 48       	lea    0x48(%rsp,%r10,1),%rsi
   1d94f:	48 89 b4 24 80 00 00 	mov    %rsi,0x80(%rsp)
   1d956:	00 
   1d957:	4a 8d 74 14 50       	lea    0x50(%rsp,%r10,1),%rsi
   1d95c:	4c 8d 54 24 08       	lea    0x8(%rsp),%r10
   1d961:	51                   	push   %rcx
   1d962:	48 c7 c1 70 00 00 00 	mov    $0x70,%rcx
   1d969:	83 e9 08             	sub    $0x8,%ecx
   1d96c:	4c 8b 1c 31          	mov    (%rcx,%rsi,1),%r11
   1d970:	4e 89 1c 11          	mov    %r11,(%rcx,%r10,1)
   1d974:	75 f3                	jne    0x1d969
   1d976:	59                   	pop    %rcx
   1d977:	48 8d 35 02 00 00 00 	lea    0x2(%rip),%rsi        # 0x1d980
   1d97e:	ff e0                	jmpq   *%rax
   1d980:	41 5b                	pop    %r11
   1d982:	48 8b 74 24 70       	mov    0x70(%rsp),%rsi
   1d987:	48 8b 64 24 78       	mov    0x78(%rsp),%rsp
   1d98c:	c3                   	retq   
   1d98d:	58                   	pop    %rax
   1d98e:	4c 8b d8             	mov    %rax,%r11
   1d991:	48 33 c0             	xor    %rax,%rax
   1d994:	48 8b c4             	mov    %rsp,%rax
   1d997:	48 33 c0             	xor    %rax,%rax
   1d99a:	50                   	push   %rax
   1d99b:	50                   	push   %rax
   1d99c:	50                   	push   %rax
   1d99d:	50                   	push   %rax
   1d99e:	50                   	push   %rax
   1d99f:	50                   	push   %rax
   1d9a0:	50                   	push   %rax
   1d9a1:	50                   	push   %rax
   1d9a2:	50                   	push   %rax
   1d9a3:	50                   	push   %rax
   1d9a4:	50                   	push   %rax
   1d9a5:	50                   	push   %rax
   1d9a6:	49 8b c3             	mov    %r11,%rax
   1d9a9:	48 89 44 24 60       	mov    %rax,0x60(%rsp)
   1d9ae:	48 89 54 24 68       	mov    %rdx,0x68(%rsp)
   1d9b3:	4c 89 44 24 70       	mov    %r8,0x70(%rsp)
   1d9b8:	4c 89 4c 24 78       	mov    %r9,0x78(%rsp)
   1d9bd:	4c 8b d9             	mov    %rcx,%r11
   1d9c0:	4c 8b d9             	mov    %rcx,%r11
   1d9c3:	49 c1 e3 03          	shl    $0x3,%r11
   1d9c7:	4e 8b 54 1c 70       	mov    0x70(%rsp,%r11,1),%r10
   1d9cc:	41 52                	push   %r10
   1d9ce:	4e 8b 54 1c 70       	mov    0x70(%rsp,%r11,1),%r10
   1d9d3:	41 52                	push   %r10
   1d9d5:	83 f9 00             	cmp    $0x0,%ecx
   1d9d8:	74 46                	je     0x1da20
   1d9da:	ff c9                	dec    %ecx
   1d9dc:	74 20                	je     0x1d9fe
   1d9de:	ff c9                	dec    %ecx
   1d9e0:	74 14                	je     0x1d9f6
   1d9e2:	ff c9                	dec    %ecx
   1d9e4:	74 08                	je     0x1d9ee
   1d9e6:	4c 8b 8c 24 90 00 00 	mov    0x90(%rsp),%r9
   1d9ed:	00 
   1d9ee:	4c 8b 84 24 88 00 00 	mov    0x88(%rsp),%r8
   1d9f5:	00 
   1d9f6:	48 8b 94 24 80 00 00 	mov    0x80(%rsp),%rdx
   1d9fd:	00 
   1d9fe:	48 8b 4c 24 78       	mov    0x78(%rsp),%rcx
   1da03:	53                   	push   %rbx
   1da04:	4d 33 d2             	xor    %r10,%r10
   1da07:	4d 3b d3             	cmp    %r11,%r10
   1da0a:	74 13                	je     0x1da1f
   1da0c:	4a 8b 9c 14 80 00 00 	mov    0x80(%rsp,%r10,1),%rbx
   1da13:	00 
   1da14:	4a 89 5c 14 18       	mov    %rbx,0x18(%rsp,%r10,1)
   1da19:	49 83 c2 08          	add    $0x8,%r10
   1da1d:	eb e8                	jmp    0x1da07
   1da1f:	5b                   	pop    %rbx
   1da20:	4a 89 44 1c 70       	mov    %rax,0x70(%rsp,%r11,1)
   1da25:	4a 89 74 1c 78       	mov    %rsi,0x78(%rsp,%r11,1)
   1da2a:	4a 89 9c 1c 80 00 00 	mov    %rbx,0x80(%rsp,%r11,1)
   1da31:	00 
   1da32:	4a 89 ac 1c 88 00 00 	mov    %rbp,0x88(%rsp,%r11,1)
   1da39:	00 
   1da3a:	48 33 ed             	xor    %rbp,%rbp
   1da3d:	4a 8d 5c 1c 70       	lea    0x70(%rsp,%r11,1),%rbx
   1da42:	48 8d 35 01 00 00 00 	lea    0x1(%rip),%rsi        # 0x1da4a
   1da49:	c3                   	retq   
   1da4a:	48 83 c4 68          	add    $0x68,%rsp
   1da4e:	4c 8b 13             	mov    (%rbx),%r10
   1da51:	41 52                	push   %r10
   1da53:	48 8b 73 08          	mov    0x8(%rbx),%rsi
   1da57:	48 8b 6b 18          	mov    0x18(%rbx),%rbp
   1da5b:	48 8b 5b 10          	mov    0x10(%rbx),%rbx
   1da5f:	c3                   	retq   
   1da60:	cc                   	int3   
   1da61:	cc                   	int3   
   1da62:	cc                   	int3   
   1da63:	cc                   	int3   
   1da64:	cc                   	int3   
   1da65:	cc                   	int3   
   1da66:	cc                   	int3   
   1da67:	cc                   	int3   
   1da68:	cc                   	int3   
   1da69:	cc                   	int3   
   1da6a:	cc                   	int3   
   1da6b:	cc                   	int3   
   1da6c:	cc                   	int3   
   1da6d:	cc                   	int3   
   1da6e:	cc                   	int3   
   1da6f:	cc                   	int3   
   1da70:	48 8d 05 01 00 00 00 	lea    0x1(%rip),%rax        # 0x1da78
   1da77:	c3                   	retq   
	...
   1dab8:	cc                   	int3   
   1dab9:	cc                   	int3   
   1daba:	cc                   	int3   
   1dabb:	cc                   	int3   
   1dabc:	cc                   	int3   
   1dabd:	cc                   	int3   
   1dabe:	cc                   	int3   
   1dabf:	cc                   	int3   
   1dac0:	48 8b 44 24 28       	mov    0x28(%rsp),%rax
   1dac5:	41 88 08             	mov    %cl,(%r8)
   1dac8:	44 0f b7 d1          	movzwl %cx,%r10d
   1dacc:	44 8a c1             	mov    %cl,%r8b
   1dacf:	66 41 c1 ea 08       	shr    $0x8,%r10w
   1dad4:	41 f6 d8             	neg    %r8b
   1dad7:	41 f6 c2 01          	test   $0x1,%r10b
   1dadb:	44 88 00             	mov    %r8b,(%rax)
   1dade:	75 04                	jne    0x1dae4
   1dae0:	41 80 c2 ff          	add    $0xff,%r10b
   1dae4:	44 88 12             	mov    %r10b,(%rdx)
   1dae7:	66 b9 01 00          	mov    $0x1,%cx
   1daeb:	41 8a c2             	mov    %r10b,%al
   1daee:	f6 e9                	imul   %cl
   1daf0:	3c 01                	cmp    $0x1,%al
   1daf2:	74 0b                	je     0x1daff
   1daf4:	66 83 c1 02          	add    $0x2,%cx
   1daf8:	66 81 f9 01 01       	cmp    $0x101,%cx
   1dafd:	72 ec                	jb     0x1daeb
   1daff:	41 88 09             	mov    %cl,(%r9)
   1db02:	c3                   	retq   
   1db03:	cc                   	int3   
   1db04:	cc                   	int3   
   1db05:	cc                   	int3   
   1db06:	cc                   	int3   
   1db07:	cc                   	int3   
   1db08:	cc                   	int3   
   1db09:	cc                   	int3   
   1db0a:	cc                   	int3   
   1db0b:	cc                   	int3   
   1db0c:	40 53                	rex push %rbx
   1db0e:	48 83 ec 40          	sub    $0x40,%rsp
   1db12:	48 8b d9             	mov    %rcx,%rbx
   1db15:	48 8d 4c 24 31       	lea    0x31(%rsp),%rcx
   1db1a:	41 0f b7 c0          	movzwl %r8w,%eax
   1db1e:	48 89 4c 24 20       	mov    %rcx,0x20(%rsp)
   1db23:	44 8b da             	mov    %edx,%r11d
   1db26:	4c 8d 4c 24 32       	lea    0x32(%rsp),%r9
   1db2b:	4c 8d 44 24 68       	lea    0x68(%rsp),%r8
   1db30:	48 8d 54 24 30       	lea    0x30(%rsp),%rdx
   1db35:	0f b7 c8             	movzwl %ax,%ecx
   1db38:	e8 83 ff ff ff       	callq  0x1dac0
   1db3d:	44 8a 4c 24 68       	mov    0x68(%rsp),%r9b
   1db42:	44 8a 44 24 30       	mov    0x30(%rsp),%r8b
   1db47:	41 8b d3             	mov    %r11d,%edx
   1db4a:	48 8b cb             	mov    %rbx,%rcx
   1db4d:	48 83 c4 40          	add    $0x40,%rsp
   1db51:	5b                   	pop    %rbx
   1db52:	e9 62 0c 00 00       	jmpq   0x1e7b9
   1db57:	cc                   	int3   
   1db58:	cc                   	int3   
   1db59:	cc                   	int3   
   1db5a:	cc                   	int3   
   1db5b:	cc                   	int3   
   1db5c:	cc                   	int3   
   1db5d:	cc                   	int3   
   1db5e:	cc                   	int3   
   1db5f:	cc                   	int3   
   1db60:	48 8b c4             	mov    %rsp,%rax
   1db63:	48 89 58 08          	mov    %rbx,0x8(%rax)
   1db67:	48 89 70 10          	mov    %rsi,0x10(%rax)
   1db6b:	48 89 78 18          	mov    %rdi,0x18(%rax)
   1db6f:	41 54                	push   %r12
   1db71:	41 55                	push   %r13
   1db73:	41 56                	push   %r14
   1db75:	48 83 ec 30          	sub    $0x30,%rsp
   1db79:	49 8b d9             	mov    %r9,%rbx
   1db7c:	45 8b e8             	mov    %r8d,%r13d
   1db7f:	44 0f b7 f2          	movzwl %dx,%r14d
   1db83:	4c 8b e1             	mov    %rcx,%r12
   1db86:	33 ff                	xor    %edi,%edi
   1db88:	33 f6                	xor    %esi,%esi
   1db8a:	89 70 dc             	mov    %esi,-0x24(%rax)
   1db8d:	3b 73 10             	cmp    0x10(%rbx),%esi
   1db90:	0f 83 91 00 00 00    	jae    0x1dc27
   1db96:	48 8b 43 08          	mov    0x8(%rbx),%rax
   1db9a:	44 8b 04 b0          	mov    (%rax,%rsi,4),%r8d
   1db9e:	48 8b 0b             	mov    (%rbx),%rcx
   1dba1:	49 8b d4             	mov    %r12,%rdx
   1dba4:	48 8b 0c f1          	mov    (%rcx,%rsi,8),%rcx
   1dba8:	e8 53 2e 00 00       	callq  0x20a00
   1dbad:	85 c0                	test   %eax,%eax
   1dbaf:	75 6a                	jne    0x1dc1b
   1dbb1:	83 43 30 01          	addl   $0x1,0x30(%rbx)
   1dbb5:	8b 43 30             	mov    0x30(%rbx),%eax
   1dbb8:	3b 43 14             	cmp    0x14(%rbx),%eax
   1dbbb:	74 06                	je     0x1dbc3
   1dbbd:	83 7b 14 00          	cmpl   $0x0,0x14(%rbx)
   1dbc1:	75 32                	jne    0x1dbf5
   1dbc3:	48 8b 43 18          	mov    0x18(%rbx),%rax
   1dbc7:	48 85 c0             	test   %rax,%rax
   1dbca:	74 25                	je     0x1dbf1
   1dbcc:	4c 8b 4b 20          	mov    0x20(%rbx),%r9
   1dbd0:	45 8b c5             	mov    %r13d,%r8d
   1dbd3:	41 0f b7 d6          	movzwl %r14w,%edx
   1dbd7:	49 8b cc             	mov    %r12,%rcx
   1dbda:	ff d0                	callq  *%rax
   1dbdc:	8b f8                	mov    %eax,%edi
   1dbde:	89 44 24 20          	mov    %eax,0x20(%rsp)
   1dbe2:	85 c0                	test   %eax,%eax
   1dbe4:	74 0f                	je     0x1dbf5
   1dbe6:	83 f8 01             	cmp    $0x1,%eax
   1dbe9:	75 3c                	jne    0x1dc27
   1dbeb:	4c 89 63 38          	mov    %r12,0x38(%rbx)
   1dbef:	eb 36                	jmp    0x1dc27
   1dbf1:	4c 89 63 38          	mov    %r12,0x38(%rbx)
   1dbf5:	8b 43 14             	mov    0x14(%rbx),%eax
   1dbf8:	39 43 30             	cmp    %eax,0x30(%rbx)
   1dbfb:	75 1e                	jne    0x1dc1b
   1dbfd:	4c 89 63 38          	mov    %r12,0x38(%rbx)
   1dc01:	48 8b 43 28          	mov    0x28(%rbx),%rax
   1dc05:	48 85 c0             	test   %rax,%rax
   1dc08:	74 02                	je     0x1dc0c
   1dc0a:	89 30                	mov    %esi,(%rax)
   1dc0c:	85 ff                	test   %edi,%edi
   1dc0e:	75 17                	jne    0x1dc27
   1dc10:	bf 01 00 00 00       	mov    $0x1,%edi
   1dc15:	89 7c 24 20          	mov    %edi,0x20(%rsp)
   1dc19:	eb 0c                	jmp    0x1dc27
   1dc1b:	83 c6 01             	add    $0x1,%esi
   1dc1e:	89 74 24 24          	mov    %esi,0x24(%rsp)
   1dc22:	e9 66 ff ff ff       	jmpq   0x1db8d
   1dc27:	8b c7                	mov    %edi,%eax
   1dc29:	48 8b 5c 24 50       	mov    0x50(%rsp),%rbx
   1dc2e:	48 8b 74 24 58       	mov    0x58(%rsp),%rsi
   1dc33:	48 8b 7c 24 60       	mov    0x60(%rsp),%rdi
   1dc38:	48 83 c4 30          	add    $0x30,%rsp
   1dc3c:	41 5e                	pop    %r14
   1dc3e:	41 5d                	pop    %r13
   1dc40:	41 5c                	pop    %r12
   1dc42:	c3                   	retq   
   1dc43:	cc                   	int3   
   1dc44:	cc                   	int3   
   1dc45:	cc                   	int3   
   1dc46:	cc                   	int3   
   1dc47:	cc                   	int3   
   1dc48:	cc                   	int3   
   1dc49:	cc                   	int3   
   1dc4a:	cc                   	int3   
   1dc4b:	cc                   	int3   
   1dc4c:	cc                   	int3   
   1dc4d:	cc                   	int3   
   1dc4e:	cc                   	int3   
   1dc4f:	cc                   	int3   
   1dc50:	40 55                	rex push %rbp
   1dc52:	48 83 ec 20          	sub    $0x20,%rsp
   1dc56:	48 8b ea             	mov    %rdx,%rbp
   1dc59:	48 83 c4 20          	add    $0x20,%rsp
   1dc5d:	5d                   	pop    %rbp
   1dc5e:	c3                   	retq   
   1dc5f:	cc                   	int3   
   1dc60:	cc                   	int3   
   1dc61:	cc                   	int3   
   1dc62:	cc                   	int3   
   1dc63:	cc                   	int3   
   1dc64:	cc                   	int3   
   1dc65:	cc                   	int3   
   1dc66:	cc                   	int3   
   1dc67:	cc                   	int3   
   1dc68:	48 89 5c 24 08       	mov    %rbx,0x8(%rsp)
   1dc6d:	48 89 74 24 10       	mov    %rsi,0x10(%rsp)
   1dc72:	57                   	push   %rdi
   1dc73:	48 83 ec 20          	sub    $0x20,%rsp
   1dc77:	48 8b f9             	mov    %rcx,%rdi
   1dc7a:	8b 41 35             	mov    0x35(%rcx),%eax
   1dc7d:	39 41 31             	cmp    %eax,0x31(%rcx)
   1dc80:	72 72                	jb     0x1dcf4
   1dc82:	03 c0                	add    %eax,%eax
   1dc84:	89 41 35             	mov    %eax,0x35(%rcx)
   1dc87:	3d 10 27 00 00       	cmp    $0x2710,%eax
   1dc8c:	72 07                	jb     0x1dc95
   1dc8e:	bb 9a 00 00 c0       	mov    $0xc000009a,%ebx
   1dc93:	eb 65                	jmp    0x1dcfa
   1dc95:	48 8d 14 40          	lea    (%rax,%rax,2),%rdx
   1dc99:	48 c1 e2 03          	shl    $0x3,%rdx
   1dc9d:	33 c9                	xor    %ecx,%ecx
   1dc9f:	ff 15 23 44 00 00    	callq  *0x4423(%rip)        # 0x220c8
   1dca5:	48 8b f0             	mov    %rax,%rsi
   1dca8:	33 db                	xor    %ebx,%ebx
   1dcaa:	48 3b c3             	cmp    %rbx,%rax
   1dcad:	75 07                	jne    0x1dcb6
   1dcaf:	bb 9a 00 00 c0       	mov    $0xc000009a,%ebx
   1dcb4:	eb 44                	jmp    0x1dcfa
   1dcb6:	8b 47 35             	mov    0x35(%rdi),%eax
   1dcb9:	4c 8d 04 40          	lea    (%rax,%rax,2),%r8
   1dcbd:	49 c1 e0 03          	shl    $0x3,%r8
   1dcc1:	33 d2                	xor    %edx,%edx
   1dcc3:	48 8b ce             	mov    %rsi,%rcx
   1dcc6:	e8 c5 2b 00 00       	callq  0x20890
   1dccb:	8b 47 31             	mov    0x31(%rdi),%eax
   1dcce:	4c 8d 04 40          	lea    (%rax,%rax,2),%r8
   1dcd2:	49 c1 e0 03          	shl    $0x3,%r8
   1dcd6:	48 8b 57 29          	mov    0x29(%rdi),%rdx
   1dcda:	48 8b ce             	mov    %rsi,%rcx
   1dcdd:	e8 3e 28 00 00       	callq  0x20520
   1dce2:	33 d2                	xor    %edx,%edx
   1dce4:	48 8b 4f 29          	mov    0x29(%rdi),%rcx
   1dce8:	ff 15 1a 43 00 00    	callq  *0x431a(%rip)        # 0x22008
   1dcee:	48 89 77 29          	mov    %rsi,0x29(%rdi)
   1dcf2:	eb 02                	jmp    0x1dcf6
   1dcf4:	33 db                	xor    %ebx,%ebx
   1dcf6:	83 47 31 01          	addl   $0x1,0x31(%rdi)
   1dcfa:	8b c3                	mov    %ebx,%eax
   1dcfc:	48 8b 5c 24 30       	mov    0x30(%rsp),%rbx
   1dd01:	48 8b 74 24 38       	mov    0x38(%rsp),%rsi
   1dd06:	48 83 c4 20          	add    $0x20,%rsp
   1dd0a:	5f                   	pop    %rdi
   1dd0b:	c3                   	retq   
   1dd0c:	cc                   	int3   
   1dd0d:	cc                   	int3   
   1dd0e:	cc                   	int3   
   1dd0f:	cc                   	int3   
   1dd10:	cc                   	int3   
   1dd11:	cc                   	int3   
   1dd12:	cc                   	int3   
   1dd13:	cc                   	int3   
   1dd14:	cc                   	int3   
   1dd15:	cc                   	int3   
   1dd16:	cc                   	int3   
   1dd17:	cc                   	int3   
   1dd18:	40 55                	rex push %rbp
   1dd1a:	48 83 ec 20          	sub    $0x20,%rsp
   1dd1e:	48 8b ea             	mov    %rdx,%rbp
   1dd21:	48 83 c4 20          	add    $0x20,%rsp
   1dd25:	5d                   	pop    %rbp
   1dd26:	c3                   	retq   
   1dd27:	cc                   	int3   
   1dd28:	cc                   	int3   
   1dd29:	cc                   	int3   
   1dd2a:	cc                   	int3   
   1dd2b:	cc                   	int3   
   1dd2c:	cc                   	int3   
   1dd2d:	cc                   	int3   
   1dd2e:	cc                   	int3   
   1dd2f:	cc                   	int3   
   1dd30:	48 8b c4             	mov    %rsp,%rax
   1dd33:	48 89 58 08          	mov    %rbx,0x8(%rax)
   1dd37:	48 89 70 10          	mov    %rsi,0x10(%rax)
   1dd3b:	48 89 78 18          	mov    %rdi,0x18(%rax)
   1dd3f:	4c 89 60 20          	mov    %r12,0x20(%rax)
   1dd43:	41 55                	push   %r13
   1dd45:	48 83 ec 30          	sub    $0x30,%rsp
   1dd49:	48 8b da             	mov    %rdx,%rbx
   1dd4c:	48 8b f9             	mov    %rcx,%rdi
   1dd4f:	45 33 d2             	xor    %r10d,%r10d
   1dd52:	33 d2                	xor    %edx,%edx
   1dd54:	89 54 24 20          	mov    %edx,0x20(%rsp)
   1dd58:	4c 8b 6c 24 60       	mov    0x60(%rsp),%r13
   1dd5d:	3b 51 31             	cmp    0x31(%rcx),%edx
   1dd60:	0f 83 87 00 00 00    	jae    0x1dded
   1dd66:	8b c2                	mov    %edx,%eax
   1dd68:	48 8d 34 52          	lea    (%rdx,%rdx,2),%rsi
   1dd6c:	4c 8b 61 29          	mov    0x29(%rcx),%r12
   1dd70:	41 89 55 00          	mov    %edx,0x0(%r13)
   1dd74:	49 39 5c f4 08       	cmp    %rbx,0x8(%r12,%rsi,8)
   1dd79:	77 66                	ja     0x1dde1
   1dd7b:	49 39 5c f4 10       	cmp    %rbx,0x10(%r12,%rsi,8)
   1dd80:	72 5f                	jb     0x1dde1
   1dd82:	41 c6 01 01          	movb   $0x1,(%r9)
   1dd86:	49 3b 5c f4 08       	cmp    0x8(%r12,%rsi,8),%rbx
   1dd8b:	0f 86 9c 00 00 00    	jbe    0x1de2d
   1dd91:	e8 d2 fe ff ff       	callq  0x1dc68
   1dd96:	44 8b d0             	mov    %eax,%r10d
   1dd99:	89 44 24 24          	mov    %eax,0x24(%rsp)
   1dd9d:	85 c0                	test   %eax,%eax
   1dd9f:	0f 88 88 00 00 00    	js     0x1de2d
   1dda5:	8b 4f 31             	mov    0x31(%rdi),%ecx
   1dda8:	83 e9 01             	sub    $0x1,%ecx
   1ddab:	41 89 4d 00          	mov    %ecx,0x0(%r13)
   1ddaf:	8b 4f 31             	mov    0x31(%rdi),%ecx
   1ddb2:	83 c1 ff             	add    $0xffffffff,%ecx
   1ddb5:	48 8d 14 49          	lea    (%rcx,%rcx,2),%rdx
   1ddb9:	48 8b 4f 29          	mov    0x29(%rdi),%rcx
   1ddbd:	48 89 5c d1 08       	mov    %rbx,0x8(%rcx,%rdx,8)
   1ddc2:	49 8b 44 f4 10       	mov    0x10(%r12,%rsi,8),%rax
   1ddc7:	48 89 44 d1 10       	mov    %rax,0x10(%rcx,%rdx,8)
   1ddcc:	48 8d 43 ff          	lea    -0x1(%rbx),%rax
   1ddd0:	49 89 44 f4 10       	mov    %rax,0x10(%r12,%rsi,8)
   1ddd5:	8b 47 31             	mov    0x31(%rdi),%eax
   1ddd8:	83 e8 01             	sub    $0x1,%eax
   1dddb:	41 89 04 f4          	mov    %eax,(%r12,%rsi,8)
   1dddf:	eb 4c                	jmp    0x1de2d
   1dde1:	83 c2 01             	add    $0x1,%edx
   1dde4:	89 54 24 20          	mov    %edx,0x20(%rsp)
   1dde8:	e9 70 ff ff ff       	jmpq   0x1dd5d
   1dded:	41 c6 01 00          	movb   $0x0,(%r9)
   1ddf1:	45 84 c0             	test   %r8b,%r8b
   1ddf4:	74 10                	je     0x1de06
   1ddf6:	e8 6d fe ff ff       	callq  0x1dc68
   1ddfb:	44 8b d0             	mov    %eax,%r10d
   1ddfe:	89 44 24 24          	mov    %eax,0x24(%rsp)
   1de02:	85 c0                	test   %eax,%eax
   1de04:	78 27                	js     0x1de2d
   1de06:	8b 47 31             	mov    0x31(%rdi),%eax
   1de09:	83 c0 ff             	add    $0xffffffff,%eax
   1de0c:	48 8d 0c 40          	lea    (%rax,%rax,2),%rcx
   1de10:	48 8b 47 29          	mov    0x29(%rdi),%rax
   1de14:	48 83 7c c8 08 00    	cmpq   $0x0,0x8(%rax,%rcx,8)
   1de1a:	75 05                	jne    0x1de21
   1de1c:	48 89 5c c8 08       	mov    %rbx,0x8(%rax,%rcx,8)
   1de21:	48 39 5c c8 10       	cmp    %rbx,0x10(%rax,%rcx,8)
   1de26:	73 05                	jae    0x1de2d
   1de28:	48 89 5c c8 10       	mov    %rbx,0x10(%rax,%rcx,8)
   1de2d:	41 8b c2             	mov    %r10d,%eax
   1de30:	48 8b 5c 24 40       	mov    0x40(%rsp),%rbx
   1de35:	48 8b 74 24 48       	mov    0x48(%rsp),%rsi
   1de3a:	48 8b 7c 24 50       	mov    0x50(%rsp),%rdi
   1de3f:	4c 8b 64 24 58       	mov    0x58(%rsp),%r12
   1de44:	48 83 c4 30          	add    $0x30,%rsp
   1de48:	41 5d                	pop    %r13
   1de4a:	c3                   	retq   
   1de4b:	cc                   	int3   
   1de4c:	cc                   	int3   
   1de4d:	cc                   	int3   
   1de4e:	cc                   	int3   
   1de4f:	cc                   	int3   
   1de50:	40 55                	rex push %rbp
   1de52:	48 83 ec 20          	sub    $0x20,%rsp
   1de56:	48 8b ea             	mov    %rdx,%rbp
   1de59:	48 83 c4 20          	add    $0x20,%rsp
   1de5d:	5d                   	pop    %rbp
   1de5e:	c3                   	retq   
   1de5f:	cc                   	int3   
   1de60:	cc                   	int3   
   1de61:	cc                   	int3   
   1de62:	cc                   	int3   
   1de63:	cc                   	int3   
   1de64:	cc                   	int3   
   1de65:	cc                   	int3   
   1de66:	cc                   	int3   
   1de67:	cc                   	int3   
   1de68:	40 53                	rex push %rbx
   1de6a:	48 83 ec 20          	sub    $0x20,%rsp
   1de6e:	48 8d 51 20          	lea    0x20(%rcx),%rdx
   1de72:	48 8b d9             	mov    %rcx,%rbx
   1de75:	e8 2a 0b 00 00       	callq  0x1e9a4
   1de7a:	83 f8 01             	cmp    $0x1,%eax
   1de7d:	7d 16                	jge    0x1de95
   1de7f:	8b 0b                	mov    (%rbx),%ecx
   1de81:	ba 03 00 00 00       	mov    $0x3,%edx
   1de86:	81 e1 ff ff ff 00    	and    $0xffffff,%ecx
   1de8c:	81 f9 0f ae e8 00    	cmp    $0xe8ae0f,%ecx
   1de92:	0f 44 c2             	cmove  %edx,%eax
   1de95:	48 83 c4 20          	add    $0x20,%rsp
   1de99:	5b                   	pop    %rbx
   1de9a:	c3                   	retq   
   1de9b:	cc                   	int3   
   1de9c:	cc                   	int3   
   1de9d:	cc                   	int3   
   1de9e:	cc                   	int3   
   1de9f:	cc                   	int3   
   1dea0:	cc                   	int3   
   1dea1:	cc                   	int3   
   1dea2:	cc                   	int3   
   1dea3:	cc                   	int3   
   1dea4:	41 83 f8 04          	cmp    $0x4,%r8d
   1dea8:	44 0f b7 da          	movzwl %dx,%r11d
   1deac:	4c 8b d1             	mov    %rcx,%r10
   1deaf:	49 89 49 20          	mov    %rcx,0x20(%r9)
   1deb3:	74 0a                	je     0x1debf
   1deb5:	41 83 f8 02          	cmp    $0x2,%r8d
   1deb9:	0f 85 9d 00 00 00    	jne    0x1df5c
   1debf:	45 0f b7 c3          	movzwl %r11w,%r8d
   1dec3:	49 8b d2             	mov    %r10,%rdx
   1dec6:	45 85 c0             	test   %r8d,%r8d
   1dec9:	41 8b c8             	mov    %r8d,%ecx
   1decc:	74 1b                	je     0x1dee9
   1dece:	8a 02                	mov    (%rdx),%al
   1ded0:	24 f0                	and    $0xf0,%al
   1ded2:	3c 40                	cmp    $0x40,%al
   1ded4:	74 0a                	je     0x1dee0
   1ded6:	80 3a 66             	cmpb   $0x66,(%rdx)
   1ded9:	74 05                	je     0x1dee0
   1dedb:	80 3a 67             	cmpb   $0x67,(%rdx)
   1dede:	75 09                	jne    0x1dee9
   1dee0:	48 83 c2 01          	add    $0x1,%rdx
   1dee4:	83 e9 01             	sub    $0x1,%ecx
   1dee7:	75 e5                	jne    0x1dece
   1dee9:	8a 02                	mov    (%rdx),%al
   1deeb:	44 2b c2             	sub    %edx,%r8d
   1deee:	45 03 c2             	add    %r10d,%r8d
   1def1:	41 83 f8 04          	cmp    $0x4,%r8d
   1def5:	76 65                	jbe    0x1df5c
   1def7:	3c 8b                	cmp    $0x8b,%al
   1def9:	74 0c                	je     0x1df07
   1defb:	3c 89                	cmp    $0x89,%al
   1defd:	74 08                	je     0x1df07
   1deff:	3c 88                	cmp    $0x88,%al
   1df01:	74 04                	je     0x1df07
   1df03:	3c 8d                	cmp    $0x8d,%al
   1df05:	75 55                	jne    0x1df5c
   1df07:	41 83 79 10 00       	cmpl   $0x0,0x10(%r9)
   1df0c:	74 15                	je     0x1df23
   1df0e:	41 8b 41 10          	mov    0x10(%r9),%eax
   1df12:	41 0f b7 d3          	movzwl %r11w,%edx
   1df16:	4a 63 0c 10          	movslq (%rax,%r10,1),%rcx
   1df1a:	49 8d 04 0a          	lea    (%r10,%rcx,1),%rax
   1df1e:	48 03 d0             	add    %rax,%rdx
   1df21:	eb 0f                	jmp    0x1df32
   1df23:	41 0f b7 c3          	movzwl %r11w,%eax
   1df27:	4a 63 54 10 fc       	movslq -0x4(%rax,%r10,1),%rdx
   1df2c:	48 03 d0             	add    %rax,%rdx
   1df2f:	49 03 d2             	add    %r10,%rdx
   1df32:	49 3b 11             	cmp    (%r9),%rdx
   1df35:	72 25                	jb     0x1df5c
   1df37:	41 8b 49 08          	mov    0x8(%r9),%ecx
   1df3b:	49 03 09             	add    (%r9),%rcx
   1df3e:	48 3b d1             	cmp    %rcx,%rdx
   1df41:	73 19                	jae    0x1df5c
   1df43:	41 83 41 14 01       	addl   $0x1,0x14(%r9)
   1df48:	41 8b 49 14          	mov    0x14(%r9),%ecx
   1df4c:	41 3b 49 0c          	cmp    0xc(%r9),%ecx
   1df50:	72 0a                	jb     0x1df5c
   1df52:	49 89 51 18          	mov    %rdx,0x18(%r9)
   1df56:	b8 01 00 00 00       	mov    $0x1,%eax
   1df5b:	c3                   	retq   
   1df5c:	33 c0                	xor    %eax,%eax
   1df5e:	c3                   	retq   
   1df5f:	cc                   	int3   
   1df60:	cc                   	int3   
   1df61:	cc                   	int3   
   1df62:	cc                   	int3   
   1df63:	cc                   	int3   
   1df64:	cc                   	int3   
   1df65:	cc                   	int3   
   1df66:	cc                   	int3   
   1df67:	cc                   	int3   
   1df68:	32 c0                	xor    %al,%al
   1df6a:	80 39 eb             	cmpb   $0xeb,(%rcx)
   1df6d:	75 0c                	jne    0x1df7b
   1df6f:	48 0f be 41 01       	movsbq 0x1(%rcx),%rax
   1df74:	48 8d 4c 08 02       	lea    0x2(%rax,%rcx,1),%rcx
   1df79:	eb 0e                	jmp    0x1df89
   1df7b:	80 39 e9             	cmpb   $0xe9,(%rcx)
   1df7e:	75 0e                	jne    0x1df8e
   1df80:	48 63 41 01          	movslq 0x1(%rcx),%rax
   1df84:	48 8d 4c 08 05       	lea    0x5(%rax,%rcx,1),%rcx
   1df89:	b0 01                	mov    $0x1,%al
   1df8b:	48 89 0a             	mov    %rcx,(%rdx)
   1df8e:	c3                   	retq   
   1df8f:	cc                   	int3   
   1df90:	cc                   	int3   
   1df91:	cc                   	int3   
   1df92:	cc                   	int3   
   1df93:	cc                   	int3   
   1df94:	cc                   	int3   
   1df95:	cc                   	int3   
   1df96:	cc                   	int3   
   1df97:	cc                   	int3   
   1df98:	8a 01                	mov    (%rcx),%al
   1df9a:	45 33 c0             	xor    %r8d,%r8d
   1df9d:	4c 8b ca             	mov    %rdx,%r9
   1dfa0:	24 f0                	and    $0xf0,%al
   1dfa2:	4c 8b d1             	mov    %rcx,%r10
   1dfa5:	3c 70                	cmp    $0x70,%al
   1dfa7:	74 0b                	je     0x1dfb4
   1dfa9:	80 39 e3             	cmpb   $0xe3,(%rcx)
   1dfac:	74 06                	je     0x1dfb4
   1dfae:	8b 54 24 08          	mov    0x8(%rsp),%edx
   1dfb2:	eb 08                	jmp    0x1dfbc
   1dfb4:	ba 01 00 00 00       	mov    $0x1,%edx
   1dfb9:	44 8b c2             	mov    %edx,%r8d
   1dfbc:	0f b7 01             	movzwl (%rcx),%eax
   1dfbf:	66 25 ff f0          	and    $0xf0ff,%ax
   1dfc3:	66 3d 0f 80          	cmp    $0x800f,%ax
   1dfc7:	75 09                	jne    0x1dfd2
   1dfc9:	ba 02 00 00 00       	mov    $0x2,%edx
   1dfce:	44 8d 42 02          	lea    0x2(%rdx),%r8d
   1dfd2:	46 8d 1c 02          	lea    (%rdx,%r8,1),%r11d
   1dfd6:	41 83 e8 01          	sub    $0x1,%r8d
   1dfda:	74 29                	je     0x1e005
   1dfdc:	41 83 e8 01          	sub    $0x1,%r8d
   1dfe0:	74 38                	je     0x1e01a
   1dfe2:	41 83 f8 02          	cmp    $0x2,%r8d
   1dfe6:	74 07                	je     0x1dfef
   1dfe8:	49 83 21 00          	andq   $0x0,(%r9)
   1dfec:	32 c0                	xor    %al,%al
   1dfee:	c3                   	retq   
   1dfef:	48 63 c2             	movslq %edx,%rax
   1dff2:	49 63 d3             	movslq %r11d,%rdx
   1dff5:	48 63 0c 08          	movslq (%rax,%rcx,1),%rcx
   1dff9:	49 8d 04 0a          	lea    (%r10,%rcx,1),%rax
   1dffd:	48 03 d0             	add    %rax,%rdx
   1e000:	49 89 11             	mov    %rdx,(%r9)
   1e003:	eb 15                	jmp    0x1e01a
   1e005:	48 63 ca             	movslq %edx,%rcx
   1e008:	4d 63 c3             	movslq %r11d,%r8
   1e00b:	4a 0f be 14 11       	movsbq (%rcx,%r10,1),%rdx
   1e010:	49 8d 0c 12          	lea    (%r10,%rdx,1),%rcx
   1e014:	4c 03 c1             	add    %rcx,%r8
   1e017:	4d 89 01             	mov    %r8,(%r9)
   1e01a:	b0 01                	mov    $0x1,%al
   1e01c:	c3                   	retq   
   1e01d:	cc                   	int3   
   1e01e:	cc                   	int3   
   1e01f:	cc                   	int3   
   1e020:	cc                   	int3   
   1e021:	cc                   	int3   
   1e022:	cc                   	int3   
   1e023:	cc                   	int3   
   1e024:	48 89 54 24 10       	mov    %rdx,0x10(%rsp)
   1e029:	53                   	push   %rbx
   1e02a:	56                   	push   %rsi
   1e02b:	57                   	push   %rdi
   1e02c:	48 83 ec 50          	sub    $0x50,%rsp
   1e030:	48 8b f1             	mov    %rcx,%rsi
   1e033:	41 b0 01             	mov    $0x1,%r8b
   1e036:	33 ff                	xor    %edi,%edi
   1e038:	89 7c 24 38          	mov    %edi,0x38(%rsp)
   1e03c:	c7 44 24 34 04 00 00 	movl   $0x4,0x34(%rsp)
   1e043:	00 
   1e044:	40 38 79 28          	cmp    %dil,0x28(%rcx)
   1e048:	74 0b                	je     0x1e055
   1e04a:	8b df                	mov    %edi,%ebx
   1e04c:	89 5c 24 30          	mov    %ebx,0x30(%rsp)
   1e050:	e9 44 02 00 00       	jmpq   0x1e299
   1e055:	8b 46 08             	mov    0x8(%rsi),%eax
   1e058:	39 46 24             	cmp    %eax,0x24(%rsi)
   1e05b:	0f 83 26 02 00 00    	jae    0x1e287
   1e061:	48 8b 46 1c          	mov    0x1c(%rsi),%rax
   1e065:	48 89 44 24 40       	mov    %rax,0x40(%rsp)
   1e06a:	48 8d 4c 24 38       	lea    0x38(%rsp),%rcx
   1e06f:	48 89 4c 24 20       	mov    %rcx,0x20(%rsp)
   1e074:	4c 8d 8c 24 80 00 00 	lea    0x80(%rsp),%r9
   1e07b:	00 
   1e07c:	48 8b d0             	mov    %rax,%rdx
   1e07f:	48 8b ce             	mov    %rsi,%rcx
   1e082:	e8 a9 fc ff ff       	callq  0x1dd30
   1e087:	8b d8                	mov    %eax,%ebx
   1e089:	89 44 24 30          	mov    %eax,0x30(%rsp)
   1e08d:	3b c7                	cmp    %edi,%eax
   1e08f:	0f 85 eb 01 00 00    	jne    0x1e280
   1e095:	40 38 bc 24 80 00 00 	cmp    %dil,0x80(%rsp)
   1e09c:	00 
   1e09d:	74 10                	je     0x1e0af
   1e09f:	8b df                	mov    %edi,%ebx
   1e0a1:	89 5c 24 30          	mov    %ebx,0x30(%rsp)
   1e0a5:	48 8b 54 24 78       	mov    0x78(%rsp),%rdx
   1e0aa:	e9 ea 01 00 00       	jmpq   0x1e299
   1e0af:	40 88 bc 24 88 00 00 	mov    %dil,0x88(%rsp)
   1e0b6:	00 
   1e0b7:	83 46 24 01          	addl   $0x1,0x24(%rsi)
   1e0bb:	8b 46 24             	mov    0x24(%rsi),%eax
   1e0be:	3b 46 08             	cmp    0x8(%rsi),%eax
   1e0c1:	76 14                	jbe    0x1e0d7
   1e0c3:	c6 46 28 01          	movb   $0x1,0x28(%rsi)
   1e0c7:	8b df                	mov    %edi,%ebx
   1e0c9:	89 5c 24 30          	mov    %ebx,0x30(%rsp)
   1e0cd:	48 8b 54 24 78       	mov    0x78(%rsp),%rdx
   1e0d2:	e9 c2 01 00 00       	jmpq   0x1e299
   1e0d7:	48 8b 4c 24 40       	mov    0x40(%rsp),%rcx
   1e0dc:	ff 15 3e 40 00 00    	callq  *0x403e(%rip)        # 0x22120
   1e0e2:	40 3a c7             	cmp    %dil,%al
   1e0e5:	0f 84 95 01 00 00    	je     0x1e280
   1e0eb:	48 8b 4c 24 40       	mov    0x40(%rsp),%rcx
   1e0f0:	e8 73 fd ff ff       	callq  0x1de68
   1e0f5:	89 44 24 3c          	mov    %eax,0x3c(%rsp)
   1e0f9:	3b c7                	cmp    %edi,%eax
   1e0fb:	0f 8e 7f 01 00 00    	jle    0x1e280
   1e101:	48 8d 54 24 48       	lea    0x48(%rsp),%rdx
   1e106:	48 8b 4c 24 40       	mov    0x40(%rsp),%rcx
   1e10b:	e8 88 fe ff ff       	callq  0x1df98
   1e110:	44 8b 44 24 34       	mov    0x34(%rsp),%r8d
   1e115:	40 3a c7             	cmp    %dil,%al
   1e118:	44 0f 45 c7          	cmovne %edi,%r8d
   1e11c:	44 89 44 24 34       	mov    %r8d,0x34(%rsp)
   1e121:	48 8d 56 1c          	lea    0x1c(%rsi),%rdx
   1e125:	4c 8b 54 24 40       	mov    0x40(%rsp),%r10
   1e12a:	49 8b ca             	mov    %r10,%rcx
   1e12d:	e8 36 fe ff ff       	callq  0x1df68
   1e132:	40 3a c7             	cmp    %dil,%al
   1e135:	74 11                	je     0x1e148
   1e137:	41 b8 01 00 00 00    	mov    $0x1,%r8d
   1e13d:	44 89 44 24 34       	mov    %r8d,0x34(%rsp)
   1e142:	8b 4c 24 3c          	mov    0x3c(%rsp),%ecx
   1e146:	eb 0c                	jmp    0x1e154
   1e148:	48 63 4c 24 3c       	movslq 0x3c(%rsp),%rcx
   1e14d:	49 8d 04 0a          	lea    (%r10,%rcx,1),%rax
   1e151:	48 89 02             	mov    %rax,(%rdx)
   1e154:	83 f9 03             	cmp    $0x3,%ecx
   1e157:	75 06                	jne    0x1e15f
   1e159:	41 80 3a c2          	cmpb   $0xc2,(%r10)
   1e15d:	74 0b                	je     0x1e16a
   1e15f:	83 f9 01             	cmp    $0x1,%ecx
   1e162:	75 11                	jne    0x1e175
   1e164:	41 80 3a c3          	cmpb   $0xc3,(%r10)
   1e168:	75 0b                	jne    0x1e175
   1e16a:	41 b8 03 00 00 00    	mov    $0x3,%r8d
   1e170:	44 89 44 24 34       	mov    %r8d,0x34(%rsp)
   1e175:	4c 8b 4e 14          	mov    0x14(%rsi),%r9
   1e179:	0f b7 d1             	movzwl %cx,%edx
   1e17c:	49 8b ca             	mov    %r10,%rcx
   1e17f:	ff 56 0c             	callq  *0xc(%rsi)
   1e182:	83 e8 01             	sub    $0x1,%eax
   1e185:	0f 84 e4 00 00 00    	je     0x1e26f
   1e18b:	83 e8 01             	sub    $0x1,%eax
   1e18e:	0f 84 e1 00 00 00    	je     0x1e275
   1e194:	8b 4c 24 34          	mov    0x34(%rsp),%ecx
   1e198:	83 f9 03             	cmp    $0x3,%ecx
   1e19b:	75 10                	jne    0x1e1ad
   1e19d:	8b df                	mov    %edi,%ebx
   1e19f:	89 5c 24 30          	mov    %ebx,0x30(%rsp)
   1e1a3:	48 8b 54 24 78       	mov    0x78(%rsp),%rdx
   1e1a8:	e9 ec 00 00 00       	jmpq   0x1e299
   1e1ad:	3b cf                	cmp    %edi,%ecx
   1e1af:	74 49                	je     0x1e1fa
   1e1b1:	83 f9 01             	cmp    $0x1,%ecx
   1e1b4:	74 0d                	je     0x1e1c3
   1e1b6:	44 8a 84 24 88 00 00 	mov    0x88(%rsp),%r8b
   1e1bd:	00 
   1e1be:	e9 92 fe ff ff       	jmpq   0x1e055
   1e1c3:	48 8d 94 24 80 00 00 	lea    0x80(%rsp),%rdx
   1e1ca:	00 
   1e1cb:	48 8b ce             	mov    %rsi,%rcx
   1e1ce:	e8 51 fe ff ff       	callq  0x1e024
   1e1d3:	8b d8                	mov    %eax,%ebx
   1e1d5:	89 44 24 30          	mov    %eax,0x30(%rsp)
   1e1d9:	8b 44 24 38          	mov    0x38(%rsp),%eax
   1e1dd:	48 8d 14 40          	lea    (%rax,%rax,2),%rdx
   1e1e1:	48 8b 4e 29          	mov    0x29(%rsi),%rcx
   1e1e5:	8b 84 24 80 00 00 00 	mov    0x80(%rsp),%eax
   1e1ec:	89 44 d1 04          	mov    %eax,0x4(%rcx,%rdx,8)
   1e1f0:	48 8b 54 24 78       	mov    0x78(%rsp),%rdx
   1e1f5:	e9 9f 00 00 00       	jmpq   0x1e299
   1e1fa:	48 8d 94 24 80 00 00 	lea    0x80(%rsp),%rdx
   1e201:	00 
   1e202:	48 8b ce             	mov    %rsi,%rcx
   1e205:	e8 1a fe ff ff       	callq  0x1e024
   1e20a:	8b d8                	mov    %eax,%ebx
   1e20c:	89 44 24 30          	mov    %eax,0x30(%rsp)
   1e210:	8b 44 24 38          	mov    0x38(%rsp),%eax
   1e214:	48 8d 14 40          	lea    (%rax,%rax,2),%rdx
   1e218:	48 89 94 24 88 00 00 	mov    %rdx,0x88(%rsp)
   1e21f:	00 
   1e220:	48 8b 4e 29          	mov    0x29(%rsi),%rcx
   1e224:	8b 84 24 80 00 00 00 	mov    0x80(%rsp),%eax
   1e22b:	89 04 d1             	mov    %eax,(%rcx,%rdx,8)
   1e22e:	3b df                	cmp    %edi,%ebx
   1e230:	75 62                	jne    0x1e294
   1e232:	48 8b 44 24 48       	mov    0x48(%rsp),%rax
   1e237:	48 89 46 1c          	mov    %rax,0x1c(%rsi)
   1e23b:	48 8d 94 24 80 00 00 	lea    0x80(%rsp),%rdx
   1e242:	00 
   1e243:	48 8b ce             	mov    %rsi,%rcx
   1e246:	e8 d9 fd ff ff       	callq  0x1e024
   1e24b:	8b d8                	mov    %eax,%ebx
   1e24d:	89 44 24 30          	mov    %eax,0x30(%rsp)
   1e251:	48 8b 4e 29          	mov    0x29(%rsi),%rcx
   1e255:	8b 84 24 80 00 00 00 	mov    0x80(%rsp),%eax
   1e25c:	48 8b 94 24 88 00 00 	mov    0x88(%rsp),%rdx
   1e263:	00 
   1e264:	89 44 d1 04          	mov    %eax,0x4(%rcx,%rdx,8)
   1e268:	48 8b 54 24 78       	mov    0x78(%rsp),%rdx
   1e26d:	eb 2a                	jmp    0x1e299
   1e26f:	8b df                	mov    %edi,%ebx
   1e271:	89 5c 24 30          	mov    %ebx,0x30(%rsp)
   1e275:	c6 46 28 01          	movb   $0x1,0x28(%rsi)
   1e279:	48 8b 54 24 78       	mov    0x78(%rsp),%rdx
   1e27e:	eb 19                	jmp    0x1e299
   1e280:	48 8b 54 24 78       	mov    0x78(%rsp),%rdx
   1e285:	eb 12                	jmp    0x1e299
   1e287:	8b df                	mov    %edi,%ebx
   1e289:	89 5c 24 30          	mov    %ebx,0x30(%rsp)
   1e28d:	48 8b 54 24 78       	mov    0x78(%rsp),%rdx
   1e292:	eb 05                	jmp    0x1e299
   1e294:	48 8b 54 24 78       	mov    0x78(%rsp),%rdx
   1e299:	48 3b d7             	cmp    %rdi,%rdx
   1e29c:	74 06                	je     0x1e2a4
   1e29e:	8b 44 24 38          	mov    0x38(%rsp),%eax
   1e2a2:	89 02                	mov    %eax,(%rdx)
   1e2a4:	8b c3                	mov    %ebx,%eax
   1e2a6:	48 83 c4 50          	add    $0x50,%rsp
   1e2aa:	5f                   	pop    %rdi
   1e2ab:	5e                   	pop    %rsi
   1e2ac:	5b                   	pop    %rbx
   1e2ad:	c3                   	retq   
   1e2ae:	cc                   	int3   
   1e2af:	cc                   	int3   
   1e2b0:	cc                   	int3   
   1e2b1:	cc                   	int3   
   1e2b2:	cc                   	int3   
   1e2b3:	cc                   	int3   
   1e2b4:	40 55                	rex push %rbp
   1e2b6:	57                   	push   %rdi
   1e2b7:	48 83 ec 38          	sub    $0x38,%rsp
   1e2bb:	48 8b ea             	mov    %rdx,%rbp
   1e2be:	48 8b 4d 78          	mov    0x78(%rbp),%rcx
   1e2c2:	33 ff                	xor    %edi,%edi
   1e2c4:	48 3b cf             	cmp    %rdi,%rcx
   1e2c7:	74 05                	je     0x1e2ce
   1e2c9:	8b 45 38             	mov    0x38(%rbp),%eax
   1e2cc:	89 01                	mov    %eax,(%rcx)
   1e2ce:	48 83 c4 38          	add    $0x38,%rsp
   1e2d2:	5f                   	pop    %rdi
   1e2d3:	5d                   	pop    %rbp
   1e2d4:	c3                   	retq   
   1e2d5:	cc                   	int3   
   1e2d6:	cc                   	int3   
   1e2d7:	cc                   	int3   
   1e2d8:	cc                   	int3   
   1e2d9:	cc                   	int3   
   1e2da:	cc                   	int3   
   1e2db:	cc                   	int3   
   1e2dc:	48 89 5c 24 08       	mov    %rbx,0x8(%rsp)
   1e2e1:	48 89 74 24 10       	mov    %rsi,0x10(%rsp)
   1e2e6:	48 89 7c 24 18       	mov    %rdi,0x18(%rsp)
   1e2eb:	41 54                	push   %r12
   1e2ed:	48 83 ec 60          	sub    $0x60,%rsp
   1e2f1:	4d 8b e1             	mov    %r9,%r12
   1e2f4:	49 8b f8             	mov    %r8,%rdi
   1e2f7:	8b f2                	mov    %edx,%esi
   1e2f9:	48 8b d9             	mov    %rcx,%rbx
   1e2fc:	48 85 c9             	test   %rcx,%rcx
   1e2ff:	0f 84 89 00 00 00    	je     0x1e38e
   1e305:	4d 85 c0             	test   %r8,%r8
   1e308:	0f 84 80 00 00 00    	je     0x1e38e
   1e30e:	ba 60 09 00 00       	mov    $0x960,%edx
   1e313:	33 c9                	xor    %ecx,%ecx
   1e315:	ff 15 ad 3d 00 00    	callq  *0x3dad(%rip)        # 0x220c8
   1e31b:	48 89 44 24 49       	mov    %rax,0x49(%rsp)
   1e320:	48 85 c0             	test   %rax,%rax
   1e323:	75 07                	jne    0x1e32c
   1e325:	bb 9a 00 00 c0       	mov    $0xc000009a,%ebx
   1e32a:	eb 6c                	jmp    0x1e398
   1e32c:	33 d2                	xor    %edx,%edx
   1e32e:	41 b8 60 09 00 00    	mov    $0x960,%r8d
   1e334:	48 8b c8             	mov    %rax,%rcx
   1e337:	e8 54 25 00 00       	callq  0x20890
   1e33c:	c7 44 24 55 64 00 00 	movl   $0x64,0x55(%rsp)
   1e343:	00 
   1e344:	83 64 24 51 00       	andl   $0x0,0x51(%rsp)
   1e349:	48 89 5c 24 20       	mov    %rbx,0x20(%rsp)
   1e34e:	48 89 5c 24 3c       	mov    %rbx,0x3c(%rsp)
   1e353:	89 74 24 28          	mov    %esi,0x28(%rsp)
   1e357:	b8 a0 86 01 00       	mov    $0x186a0,%eax
   1e35c:	85 f6                	test   %esi,%esi
   1e35e:	0f 44 f0             	cmove  %eax,%esi
   1e361:	89 74 24 28          	mov    %esi,0x28(%rsp)
   1e365:	48 89 7c 24 2c       	mov    %rdi,0x2c(%rsp)
   1e36a:	4c 89 64 24 34       	mov    %r12,0x34(%rsp)
   1e36f:	c6 44 24 48 00       	movb   $0x0,0x48(%rsp)
   1e374:	83 64 24 44 00       	andl   $0x0,0x44(%rsp)
   1e379:	33 d2                	xor    %edx,%edx
   1e37b:	48 8d 4c 24 20       	lea    0x20(%rsp),%rcx
   1e380:	e8 9f fc ff ff       	callq  0x1e024
   1e385:	8b d8                	mov    %eax,%ebx
   1e387:	48 8b 44 24 49       	mov    0x49(%rsp),%rax
   1e38c:	eb 0a                	jmp    0x1e398
   1e38e:	bb 0d 00 00 c0       	mov    $0xc000000d,%ebx
   1e393:	48 8b 44 24 49       	mov    0x49(%rsp),%rax
   1e398:	48 85 c0             	test   %rax,%rax
   1e39b:	74 24                	je     0x1e3c1
   1e39d:	48 8b 8c 24 90 00 00 	mov    0x90(%rsp),%rcx
   1e3a4:	00 
   1e3a5:	48 85 c9             	test   %rcx,%rcx
   1e3a8:	74 0c                	je     0x1e3b6
   1e3aa:	48 89 01             	mov    %rax,(%rcx)
   1e3ad:	8b 44 24 51          	mov    0x51(%rsp),%eax
   1e3b1:	89 41 08             	mov    %eax,0x8(%rcx)
   1e3b4:	eb 0b                	jmp    0x1e3c1
   1e3b6:	33 d2                	xor    %edx,%edx
   1e3b8:	48 8b c8             	mov    %rax,%rcx
   1e3bb:	ff 15 47 3c 00 00    	callq  *0x3c47(%rip)        # 0x22008
   1e3c1:	8b c3                	mov    %ebx,%eax
   1e3c3:	4c 8d 5c 24 60       	lea    0x60(%rsp),%r11
   1e3c8:	49 8b 5b 10          	mov    0x10(%r11),%rbx
   1e3cc:	49 8b 73 18          	mov    0x18(%r11),%rsi
   1e3d0:	49 8b 7b 20          	mov    0x20(%r11),%rdi
   1e3d4:	49 8b e3             	mov    %r11,%rsp
   1e3d7:	41 5c                	pop    %r12
   1e3d9:	c3                   	retq   
   1e3da:	cc                   	int3   
   1e3db:	cc                   	int3   
   1e3dc:	40 55                	rex push %rbp
   1e3de:	48 83 ec 20          	sub    $0x20,%rsp
   1e3e2:	48 8b ea             	mov    %rdx,%rbp
   1e3e5:	48 8b 4d 49          	mov    0x49(%rbp),%rcx
   1e3e9:	48 85 c9             	test   %rcx,%rcx
   1e3ec:	74 1f                	je     0x1e40d
   1e3ee:	48 8b 95 90 00 00 00 	mov    0x90(%rbp),%rdx
   1e3f5:	48 85 d2             	test   %rdx,%rdx
   1e3f8:	74 0b                	je     0x1e405
   1e3fa:	48 89 0a             	mov    %rcx,(%rdx)
   1e3fd:	8b 45 51             	mov    0x51(%rbp),%eax
   1e400:	89 42 08             	mov    %eax,0x8(%rdx)
   1e403:	eb 08                	jmp    0x1e40d
   1e405:	33 d2                	xor    %edx,%edx
   1e407:	ff 15 fb 3b 00 00    	callq  *0x3bfb(%rip)        # 0x22008
   1e40d:	48 83 c4 20          	add    $0x20,%rsp
   1e411:	5d                   	pop    %rbp
   1e412:	c3                   	retq   
   1e413:	cc                   	int3   
   1e414:	cc                   	int3   
   1e415:	cc                   	int3   
   1e416:	cc                   	int3   
   1e417:	cc                   	int3   
   1e418:	cc                   	int3   
   1e419:	cc                   	int3   
   1e41a:	cc                   	int3   
   1e41b:	cc                   	int3   
   1e41c:	4c 8b dc             	mov    %rsp,%r11
   1e41f:	53                   	push   %rbx
   1e420:	48 81 ec 80 00 00 00 	sub    $0x80,%rsp
   1e427:	48 8b d9             	mov    %rcx,%rbx
   1e42a:	48 85 c9             	test   %rcx,%rcx
   1e42d:	0f 84 98 00 00 00    	je     0x1e4cb
   1e433:	4d 85 c0             	test   %r8,%r8
   1e436:	0f 84 8f 00 00 00    	je     0x1e4cb
   1e43c:	4d 85 c9             	test   %r9,%r9
   1e43f:	0f 84 86 00 00 00    	je     0x1e4cb
   1e445:	49 83 63 f0 00       	andq   $0x0,-0x10(%r11)
   1e44a:	4d 89 43 b8          	mov    %r8,-0x48(%r11)
   1e44e:	4d 89 4b c0          	mov    %r9,-0x40(%r11)
   1e452:	8b 84 24 b0 00 00 00 	mov    0xb0(%rsp),%eax
   1e459:	89 44 24 50          	mov    %eax,0x50(%rsp)
   1e45d:	48 8b 84 24 b8 00 00 	mov    0xb8(%rsp),%rax
   1e464:	00 
   1e465:	49 89 43 e0          	mov    %rax,-0x20(%r11)
   1e469:	8b 84 24 c0 00 00 00 	mov    0xc0(%rsp),%eax
   1e470:	89 44 24 54          	mov    %eax,0x54(%rsp)
   1e474:	48 8b 84 24 c8 00 00 	mov    0xc8(%rsp),%rax
   1e47b:	00 
   1e47c:	49 89 43 d0          	mov    %rax,-0x30(%r11)
   1e480:	48 8b 84 24 d0 00 00 	mov    0xd0(%rsp),%rax
   1e487:	00 
   1e488:	49 89 43 d8          	mov    %rax,-0x28(%r11)
   1e48c:	83 64 24 70 00       	andl   $0x0,0x70(%rsp)
   1e491:	49 83 63 98 00       	andq   $0x0,-0x68(%r11)
   1e496:	4d 8d 4b b8          	lea    -0x48(%r11),%r9
   1e49a:	4c 8d 05 bf f6 ff ff 	lea    -0x941(%rip),%r8        # 0x1db60
   1e4a1:	48 8b 09             	mov    (%rcx),%rcx
   1e4a4:	e8 33 fe ff ff       	callq  0x1e2dc
   1e4a9:	89 44 24 30          	mov    %eax,0x30(%rsp)
   1e4ad:	85 c0                	test   %eax,%eax
   1e4af:	75 23                	jne    0x1e4d4
   1e4b1:	48 8b 4c 24 78       	mov    0x78(%rsp),%rcx
   1e4b6:	48 85 c9             	test   %rcx,%rcx
   1e4b9:	74 05                	je     0x1e4c0
   1e4bb:	48 89 0b             	mov    %rcx,(%rbx)
   1e4be:	eb 14                	jmp    0x1e4d4
   1e4c0:	b8 25 02 00 c0       	mov    $0xc0000225,%eax
   1e4c5:	89 44 24 30          	mov    %eax,0x30(%rsp)
   1e4c9:	eb 09                	jmp    0x1e4d4
   1e4cb:	b8 0d 00 00 c0       	mov    $0xc000000d,%eax
   1e4d0:	89 44 24 30          	mov    %eax,0x30(%rsp)
   1e4d4:	48 81 c4 80 00 00 00 	add    $0x80,%rsp
   1e4db:	5b                   	pop    %rbx
   1e4dc:	c3                   	retq   
   1e4dd:	cc                   	int3   
   1e4de:	cc                   	int3   
   1e4df:	cc                   	int3   
   1e4e0:	cc                   	int3   
   1e4e1:	cc                   	int3   
   1e4e2:	cc                   	int3   
   1e4e3:	cc                   	int3   
   1e4e4:	cc                   	int3   
   1e4e5:	cc                   	int3   
   1e4e6:	cc                   	int3   
   1e4e7:	cc                   	int3   
   1e4e8:	cc                   	int3   
   1e4e9:	cc                   	int3   
   1e4ea:	cc                   	int3   
   1e4eb:	cc                   	int3   
   1e4ec:	40 55                	rex push %rbp
   1e4ee:	48 83 ec 30          	sub    $0x30,%rsp
   1e4f2:	48 8b ea             	mov    %rdx,%rbp
   1e4f5:	48 83 c4 30          	add    $0x30,%rsp
   1e4f9:	5d                   	pop    %rbp
   1e4fa:	c3                   	retq   
   1e4fb:	cc                   	int3   
   1e4fc:	cc                   	int3   
   1e4fd:	cc                   	int3   
   1e4fe:	cc                   	int3   
   1e4ff:	cc                   	int3   
   1e500:	cc                   	int3   
   1e501:	cc                   	int3   
   1e502:	cc                   	int3   
   1e503:	cc                   	int3   
   1e504:	4c 8b dc             	mov    %rsp,%r11
   1e507:	45 89 4b 20          	mov    %r9d,0x20(%r11)
   1e50b:	4d 89 43 18          	mov    %r8,0x18(%r11)
   1e50f:	48 83 ec 58          	sub    $0x58,%rsp
   1e513:	48 8b 84 24 90 00 00 	mov    0x90(%rsp),%rax
   1e51a:	00 
   1e51b:	4d 8d 4b 20          	lea    0x20(%r11),%r9
   1e51f:	4d 8d 43 18          	lea    0x18(%r11),%r8
   1e523:	49 89 43 e8          	mov    %rax,-0x18(%r11)
   1e527:	48 8b 84 24 88 00 00 	mov    0x88(%rsp),%rax
   1e52e:	00 
   1e52f:	49 89 43 e0          	mov    %rax,-0x20(%r11)
   1e533:	8b 84 24 80 00 00 00 	mov    0x80(%rsp),%eax
   1e53a:	89 44 24 30          	mov    %eax,0x30(%rsp)
   1e53e:	49 83 63 d0 00       	andq   $0x0,-0x30(%r11)
   1e543:	c7 44 24 20 01 00 00 	movl   $0x1,0x20(%rsp)
   1e54a:	00 
   1e54b:	e8 cc fe ff ff       	callq  0x1e41c
   1e550:	48 83 c4 58          	add    $0x58,%rsp
   1e554:	c3                   	retq   
   1e555:	cc                   	int3   
   1e556:	cc                   	int3   
   1e557:	cc                   	int3   
   1e558:	cc                   	int3   
   1e559:	cc                   	int3   
   1e55a:	cc                   	int3   
   1e55b:	cc                   	int3   
   1e55c:	4c 8b dc             	mov    %rsp,%r11
   1e55f:	49 89 5b 08          	mov    %rbx,0x8(%r11)
   1e563:	49 89 73 10          	mov    %rsi,0x10(%r11)
   1e567:	49 89 7b 18          	mov    %rdi,0x18(%r11)
   1e56b:	4d 89 63 20          	mov    %r12,0x20(%r11)
   1e56f:	41 55                	push   %r13
   1e571:	48 83 ec 70          	sub    $0x70,%rsp
   1e575:	49 8b f9             	mov    %r9,%rdi
   1e578:	45 8b d0             	mov    %r8d,%r10d
   1e57b:	44 8b ea             	mov    %edx,%r13d
   1e57e:	48 8b f1             	mov    %rcx,%rsi
   1e581:	33 db                	xor    %ebx,%ebx
   1e583:	49 89 4b d0          	mov    %rcx,-0x30(%r11)
   1e587:	45 89 6b d8          	mov    %r13d,-0x28(%r11)
   1e58b:	8b 84 24 a0 00 00 00 	mov    0xa0(%rsp),%eax
   1e592:	89 44 24 54          	mov    %eax,0x54(%rsp)
   1e596:	45 8b 63 48          	mov    0x48(%r11),%r12d
   1e59a:	45 89 63 e0          	mov    %r12d,-0x20(%r11)
   1e59e:	21 5c 24 5c          	and    %ebx,0x5c(%rsp)
   1e5a2:	49 21 5b e8          	and    %rbx,-0x18(%r11)
   1e5a6:	49 21 5b f0          	and    %rbx,-0x10(%r11)
   1e5aa:	44 8b 8c 24 b0 00 00 	mov    0xb0(%rsp),%r9d
   1e5b1:	00 
   1e5b2:	45 85 c9             	test   %r9d,%r9d
   1e5b5:	74 77                	je     0x1e62e
   1e5b7:	49 8d 4b d0          	lea    -0x30(%r11),%rcx
   1e5bb:	49 89 4b b8          	mov    %rcx,-0x48(%r11)
   1e5bf:	49 21 5b b0          	and    %rbx,-0x50(%r11)
   1e5c3:	89 44 24 20          	mov    %eax,0x20(%rsp)
   1e5c7:	4c 8b 84 24 a8 00 00 	mov    0xa8(%rsp),%r8
   1e5ce:	00 
   1e5cf:	41 8b d2             	mov    %r10d,%edx
   1e5d2:	48 8b cf             	mov    %rdi,%rcx
   1e5d5:	e8 2a ff ff ff       	callq  0x1e504
   1e5da:	85 c0                	test   %eax,%eax
   1e5dc:	0f 88 80 00 00 00    	js     0x1e662
   1e5e2:	8d 43 01             	lea    0x1(%rbx),%eax
   1e5e5:	45 85 e4             	test   %r12d,%r12d
   1e5e8:	44 0f 44 e0          	cmove  %eax,%r12d
   1e5ec:	44 8b 84 24 b8 00 00 	mov    0xb8(%rsp),%r8d
   1e5f3:	00 
   1e5f4:	8d 43 02             	lea    0x2(%rbx),%eax
   1e5f7:	45 85 c0             	test   %r8d,%r8d
   1e5fa:	44 0f 44 c0          	cmove  %eax,%r8d
   1e5fe:	48 8b 17             	mov    (%rdi),%rdx
   1e601:	49 63 c4             	movslq %r12d,%rax
   1e604:	48 63 0c 10          	movslq (%rax,%rdx,1),%rcx
   1e608:	49 63 d8             	movslq %r8d,%rbx
   1e60b:	48 8d 04 0a          	lea    (%rdx,%rcx,1),%rax
   1e60f:	48 03 d8             	add    %rax,%rbx
   1e612:	48 89 5c 24 40       	mov    %rbx,0x40(%rsp)
   1e617:	4a 8d 04 2e          	lea    (%rsi,%r13,1),%rax
   1e61b:	48 3b d8             	cmp    %rax,%rbx
   1e61e:	77 05                	ja     0x1e625
   1e620:	48 3b de             	cmp    %rsi,%rbx
   1e623:	73 3d                	jae    0x1e662
   1e625:	33 db                	xor    %ebx,%ebx
   1e627:	48 89 5c 24 40       	mov    %rbx,0x40(%rsp)
   1e62c:	eb 34                	jmp    0x1e662
   1e62e:	48 83 64 24 20 00    	andq   $0x0,0x20(%rsp)
   1e634:	4c 8d 4c 24 48       	lea    0x48(%rsp),%r9
   1e639:	4c 8d 05 64 f8 ff ff 	lea    -0x79c(%rip),%r8        # 0x1dea4
   1e640:	41 8b d2             	mov    %r10d,%edx
   1e643:	48 8b 0f             	mov    (%rdi),%rcx
   1e646:	e8 91 fc ff ff       	callq  0x1e2dc
   1e64b:	48 8b 5c 24 60       	mov    0x60(%rsp),%rbx
   1e650:	48 89 5c 24 40       	mov    %rbx,0x40(%rsp)
   1e655:	48 85 db             	test   %rbx,%rbx
   1e658:	74 08                	je     0x1e662
   1e65a:	48 8b 4c 24 68       	mov    0x68(%rsp),%rcx
   1e65f:	48 89 0f             	mov    %rcx,(%rdi)
   1e662:	48 8b c3             	mov    %rbx,%rax
   1e665:	4c 8d 5c 24 70       	lea    0x70(%rsp),%r11
   1e66a:	49 8b 5b 10          	mov    0x10(%r11),%rbx
   1e66e:	49 8b 73 18          	mov    0x18(%r11),%rsi
   1e672:	49 8b 7b 20          	mov    0x20(%r11),%rdi
   1e676:	4d 8b 63 28          	mov    0x28(%r11),%r12
   1e67a:	49 8b e3             	mov    %r11,%rsp
   1e67d:	41 5d                	pop    %r13
   1e67f:	c3                   	retq   
   1e680:	cc                   	int3   
   1e681:	cc                   	int3   
   1e682:	cc                   	int3   
   1e683:	cc                   	int3   
   1e684:	cc                   	int3   
   1e685:	cc                   	int3   
   1e686:	cc                   	int3   
   1e687:	cc                   	int3   
   1e688:	cc                   	int3   
   1e689:	cc                   	int3   
   1e68a:	cc                   	int3   
   1e68b:	cc                   	int3   
   1e68c:	40 55                	rex push %rbp
   1e68e:	48 83 ec 40          	sub    $0x40,%rsp
   1e692:	48 8b ea             	mov    %rdx,%rbp
   1e695:	48 83 c4 40          	add    $0x40,%rsp
   1e699:	5d                   	pop    %rbp
   1e69a:	c3                   	retq   
   1e69b:	cc                   	int3   
   1e69c:	cc                   	int3   
   1e69d:	cc                   	int3   
   1e69e:	cc                   	int3   
   1e69f:	cc                   	int3   
   1e6a0:	55                   	push   %rbp
   1e6a1:	48 8b ec             	mov    %rsp,%rbp
   1e6a4:	4c 89 4d 28          	mov    %r9,0x28(%rbp)
   1e6a8:	4c 89 45 20          	mov    %r8,0x20(%rbp)
   1e6ac:	48 89 55 18          	mov    %rdx,0x18(%rbp)
   1e6b0:	48 89 4d 10          	mov    %rcx,0x10(%rbp)
   1e6b4:	53                   	push   %rbx
   1e6b5:	4c 8b 45 18          	mov    0x18(%rbp),%r8
   1e6b9:	49 8b 48 08          	mov    0x8(%r8),%rcx
   1e6bd:	49 8b 18             	mov    (%r8),%rbx
   1e6c0:	4c 8b 45 20          	mov    0x20(%rbp),%r8
   1e6c4:	49 8b 50 08          	mov    0x8(%r8),%rdx
   1e6c8:	49 8b 00             	mov    (%r8),%rax
   1e6cb:	4c 8b 45 10          	mov    0x10(%rbp),%r8
   1e6cf:	f0 49 0f c7 08       	lock cmpxchg16b (%r8)
   1e6d4:	4c 8b 45 28          	mov    0x28(%rbp),%r8
   1e6d8:	49 83 f8 00          	cmp    $0x0,%r8
   1e6dc:	74 07                	je     0x1e6e5
   1e6de:	49 89 50 08          	mov    %rdx,0x8(%r8)
   1e6e2:	49 89 00             	mov    %rax,(%r8)
   1e6e5:	5b                   	pop    %rbx
   1e6e6:	5d                   	pop    %rbp
   1e6e7:	c3                   	retq   
   1e6e8:	cc                   	int3   
   1e6e9:	cc                   	int3   
   1e6ea:	cc                   	int3   
   1e6eb:	cc                   	int3   
   1e6ec:	cc                   	int3   
   1e6ed:	cc                   	int3   
   1e6ee:	cc                   	int3   
   1e6ef:	cc                   	int3   
   1e6f0:	48 89 5c 24 08       	mov    %rbx,0x8(%rsp)
   1e6f5:	57                   	push   %rdi
   1e6f6:	48 83 ec 20          	sub    $0x20,%rsp
   1e6fa:	48 8b f9             	mov    %rcx,%rdi
   1e6fd:	48 8b 0d 44 f1 ff ff 	mov    -0xebc(%rip),%rcx        # 0x1d848
   1e704:	ba 2e 17 cd f0       	mov    $0xf0cd172e,%edx
   1e709:	33 db                	xor    %ebx,%ebx
   1e70b:	e8 4c e7 ff ff       	callq  0x1ce5c
   1e710:	48 3b c3             	cmp    %rbx,%rax
   1e713:	74 10                	je     0x1e725
   1e715:	48 8d 54 24 40       	lea    0x40(%rsp),%rdx
   1e71a:	45 33 c0             	xor    %r8d,%r8d
   1e71d:	48 8b cf             	mov    %rdi,%rcx
   1e720:	ff d0                	callq  *%rax
   1e722:	48 8b d8             	mov    %rax,%rbx
   1e725:	48 8b 54 24 40       	mov    0x40(%rsp),%rdx
   1e72a:	4c 8b c3             	mov    %rbx,%r8
   1e72d:	48 8b cf             	mov    %rdi,%rcx
   1e730:	e8 63 e1 ff ff       	callq  0x1c898
   1e735:	48 8b 5c 24 30       	mov    0x30(%rsp),%rbx
   1e73a:	48 83 c4 20          	add    $0x20,%rsp
   1e73e:	5f                   	pop    %rdi
   1e73f:	c3                   	retq   
   1e740:	cc                   	int3   
   1e741:	cc                   	int3   
   1e742:	cc                   	int3   
   1e743:	cc                   	int3   
   1e744:	cc                   	int3   
   1e745:	cc                   	int3   
   1e746:	cc                   	int3   
   1e747:	cc                   	int3   
   1e748:	cc                   	int3   
   1e749:	cc                   	int3   
   1e74a:	cc                   	int3   
   1e74b:	cc                   	int3   
   1e74c:	cc                   	int3   
   1e74d:	cc                   	int3   
   1e74e:	cc                   	int3   
   1e74f:	cc                   	int3   
   1e750:	48 83 ec 28          	sub    $0x28,%rsp
   1e754:	48 89 4c 24 08       	mov    %rcx,0x8(%rsp)
   1e759:	48 89 54 24 10       	mov    %rdx,0x10(%rsp)
   1e75e:	4c 89 44 24 18       	mov    %r8,0x18(%rsp)
   1e763:	4c 89 4c 24 20       	mov    %r9,0x20(%rsp)
   1e768:	50                   	push   %rax
   1e769:	53                   	push   %rbx
   1e76a:	51                   	push   %rcx
   1e76b:	52                   	push   %rdx
   1e76c:	55                   	push   %rbp
   1e76d:	56                   	push   %rsi
   1e76e:	57                   	push   %rdi
   1e76f:	41 50                	push   %r8
   1e771:	41 51                	push   %r9
   1e773:	41 52                	push   %r10
   1e775:	41 53                	push   %r11
   1e777:	41 54                	push   %r12
   1e779:	41 55                	push   %r13
   1e77b:	41 56                	push   %r14
   1e77d:	41 57                	push   %r15
   1e77f:	48 8b f9             	mov    %rcx,%rdi
   1e782:	48 03 fa             	add    %rdx,%rdi
   1e785:	48 33 c0             	xor    %rax,%rax
   1e788:	8a 01                	mov    (%rcx),%al
   1e78a:	49 03 c1             	add    %r9,%rax
   1e78d:	49 f7 e0             	mul    %r8
   1e790:	88 01                	mov    %al,(%rcx)
   1e792:	48 33 c0             	xor    %rax,%rax
   1e795:	48 ff c1             	inc    %rcx
   1e798:	48 3b cf             	cmp    %rdi,%rcx
   1e79b:	75 eb                	jne    0x1e788
   1e79d:	41 5f                	pop    %r15
   1e79f:	41 5e                	pop    %r14
   1e7a1:	41 5d                	pop    %r13
   1e7a3:	41 5c                	pop    %r12
   1e7a5:	41 5b                	pop    %r11
   1e7a7:	41 5a                	pop    %r10
   1e7a9:	41 59                	pop    %r9
   1e7ab:	41 58                	pop    %r8
   1e7ad:	5f                   	pop    %rdi
   1e7ae:	5e                   	pop    %rsi
   1e7af:	5d                   	pop    %rbp
   1e7b0:	5a                   	pop    %rdx
   1e7b1:	59                   	pop    %rcx
   1e7b2:	5b                   	pop    %rbx
   1e7b3:	58                   	pop    %rax
   1e7b4:	48 83 c4 28          	add    $0x28,%rsp
   1e7b8:	c3                   	retq   
   1e7b9:	48 83 ec 28          	sub    $0x28,%rsp
   1e7bd:	48 89 4c 24 08       	mov    %rcx,0x8(%rsp)
   1e7c2:	48 89 54 24 10       	mov    %rdx,0x10(%rsp)
   1e7c7:	4c 89 44 24 18       	mov    %r8,0x18(%rsp)
   1e7cc:	4c 89 4c 24 20       	mov    %r9,0x20(%rsp)
   1e7d1:	50                   	push   %rax
   1e7d2:	53                   	push   %rbx
   1e7d3:	51                   	push   %rcx
   1e7d4:	52                   	push   %rdx
   1e7d5:	55                   	push   %rbp
   1e7d6:	56                   	push   %rsi
   1e7d7:	57                   	push   %rdi
   1e7d8:	41 50                	push   %r8
   1e7da:	41 51                	push   %r9
   1e7dc:	41 52                	push   %r10
   1e7de:	41 53                	push   %r11
   1e7e0:	41 54                	push   %r12
   1e7e2:	41 55                	push   %r13
   1e7e4:	41 56                	push   %r14
   1e7e6:	41 57                	push   %r15
   1e7e8:	48 8b f9             	mov    %rcx,%rdi
   1e7eb:	48 03 fa             	add    %rdx,%rdi
   1e7ee:	48 33 c0             	xor    %rax,%rax
   1e7f1:	8a 01                	mov    (%rcx),%al
   1e7f3:	41 f6 e0             	mul    %r8b
   1e7f6:	49 03 c1             	add    %r9,%rax
   1e7f9:	88 01                	mov    %al,(%rcx)
   1e7fb:	48 33 c0             	xor    %rax,%rax
   1e7fe:	48 ff c1             	inc    %rcx
   1e801:	48 3b cf             	cmp    %rdi,%rcx
   1e804:	75 eb                	jne    0x1e7f1
   1e806:	41 5f                	pop    %r15
   1e808:	41 5e                	pop    %r14
   1e80a:	41 5d                	pop    %r13
   1e80c:	41 5c                	pop    %r12
   1e80e:	41 5b                	pop    %r11
   1e810:	41 5a                	pop    %r10
   1e812:	41 59                	pop    %r9
   1e814:	41 58                	pop    %r8
   1e816:	5f                   	pop    %rdi
   1e817:	5e                   	pop    %rsi
   1e818:	5d                   	pop    %rbp
   1e819:	5a                   	pop    %rdx
   1e81a:	59                   	pop    %rcx
   1e81b:	5b                   	pop    %rbx
   1e81c:	58                   	pop    %rax
   1e81d:	48 83 c4 28          	add    $0x28,%rsp
   1e821:	c3                   	retq   
   1e822:	cc                   	int3   
   1e823:	cc                   	int3   
   1e824:	cc                   	int3   
   1e825:	cc                   	int3   
   1e826:	cc                   	int3   
   1e827:	cc                   	int3   
   1e828:	83 e9 01             	sub    $0x1,%ecx
   1e82b:	74 38                	je     0x1e865
   1e82d:	83 e9 01             	sub    $0x1,%ecx
   1e830:	74 1c                	je     0x1e84e
   1e832:	83 e9 01             	sub    $0x1,%ecx
   1e835:	74 25                	je     0x1e85c
   1e837:	83 f9 02             	cmp    $0x2,%ecx
   1e83a:	75 31                	jne    0x1e86d
   1e83c:	83 3d f9 fa 00 00 00 	cmpl   $0x0,0xfaf9(%rip)        # 0x2e33c
   1e843:	74 09                	je     0x1e84e
   1e845:	48 83 05 0b fb 00 00 	addq   $0x4,0xfb0b(%rip)        # 0x2e358
   1e84c:	04 
   1e84d:	c3                   	retq   
   1e84e:	f6 05 ef fa 00 00 08 	testb  $0x8,0xfaef(%rip)        # 0x2e344
   1e855:	75 ee                	jne    0x1e845
   1e857:	f6 c2 01             	test   $0x1,%dl
   1e85a:	75 e9                	jne    0x1e845
   1e85c:	48 83 05 f4 fa 00 00 	addq   $0x2,0xfaf4(%rip)        # 0x2e358
   1e863:	02 
   1e864:	c3                   	retq   
   1e865:	48 83 05 eb fa 00 00 	addq   $0x1,0xfaeb(%rip)        # 0x2e358
   1e86c:	01 
   1e86d:	c3                   	retq   
   1e86e:	cc                   	int3   
   1e86f:	cc                   	int3   
   1e870:	cc                   	int3   
   1e871:	cc                   	int3   
   1e872:	cc                   	int3   
   1e873:	cc                   	int3   
   1e874:	48 83 ec 28          	sub    $0x28,%rsp
   1e878:	83 3d bd fa 00 00 00 	cmpl   $0x0,0xfabd(%rip)        # 0x2e33c
   1e87f:	75 07                	jne    0x1e888
   1e881:	e8 a2 ff ff ff       	callq  0x1e828
   1e886:	eb 43                	jmp    0x1e8cb
   1e888:	83 e9 01             	sub    $0x1,%ecx
   1e88b:	74 36                	je     0x1e8c3
   1e88d:	83 e9 01             	sub    $0x1,%ecx
   1e890:	74 0f                	je     0x1e8a1
   1e892:	83 f9 01             	cmp    $0x1,%ecx
   1e895:	75 34                	jne    0x1e8cb
   1e897:	48 83 05 b9 fa 00 00 	addq   $0x2,0xfab9(%rip)        # 0x2e358
   1e89e:	02 
   1e89f:	eb 2a                	jmp    0x1e8cb
   1e8a1:	f6 05 9c fa 00 00 08 	testb  $0x8,0xfa9c(%rip)        # 0x2e344
   1e8a8:	74 0a                	je     0x1e8b4
   1e8aa:	48 83 05 a6 fa 00 00 	addq   $0x8,0xfaa6(%rip)        # 0x2e358
   1e8b1:	08 
   1e8b2:	eb 17                	jmp    0x1e8cb
   1e8b4:	f6 c2 01             	test   $0x1,%dl
   1e8b7:	74 de                	je     0x1e897
   1e8b9:	48 83 05 97 fa 00 00 	addq   $0x4,0xfa97(%rip)        # 0x2e358
   1e8c0:	04 
   1e8c1:	eb 08                	jmp    0x1e8cb
   1e8c3:	48 83 05 8d fa 00 00 	addq   $0x1,0xfa8d(%rip)        # 0x2e358
   1e8ca:	01 
   1e8cb:	48 83 c4 28          	add    $0x28,%rsp
   1e8cf:	c3                   	retq   
   1e8d0:	cc                   	int3   
   1e8d1:	cc                   	int3   
   1e8d2:	cc                   	int3   
   1e8d3:	cc                   	int3   
   1e8d4:	cc                   	int3   
   1e8d5:	cc                   	int3   
   1e8d6:	cc                   	int3   
   1e8d7:	cc                   	int3   
   1e8d8:	83 e9 01             	sub    $0x1,%ecx
   1e8db:	74 2a                	je     0x1e907
   1e8dd:	83 e9 01             	sub    $0x1,%ecx
   1e8e0:	74 0e                	je     0x1e8f0
   1e8e2:	83 f9 01             	cmp    $0x1,%ecx
   1e8e5:	75 28                	jne    0x1e90f
   1e8e7:	48 83 05 69 fa 00 00 	addq   $0x2,0xfa69(%rip)        # 0x2e358
   1e8ee:	02 
   1e8ef:	c3                   	retq   
   1e8f0:	f6 05 4d fa 00 00 08 	testb  $0x8,0xfa4d(%rip)        # 0x2e344
   1e8f7:	75 05                	jne    0x1e8fe
   1e8f9:	f6 c2 01             	test   $0x1,%dl
   1e8fc:	74 e9                	je     0x1e8e7
   1e8fe:	48 83 05 52 fa 00 00 	addq   $0x4,0xfa52(%rip)        # 0x2e358
   1e905:	04 
   1e906:	c3                   	retq   
   1e907:	48 83 05 49 fa 00 00 	addq   $0x1,0xfa49(%rip)        # 0x2e358
   1e90e:	01 
   1e90f:	c3                   	retq   
   1e910:	cc                   	int3   
   1e911:	cc                   	int3   
   1e912:	cc                   	int3   
   1e913:	cc                   	int3   
   1e914:	cc                   	int3   
   1e915:	cc                   	int3   
   1e916:	cc                   	int3   
   1e917:	cc                   	int3   
   1e918:	83 e9 01             	sub    $0x1,%ecx
   1e91b:	74 1b                	je     0x1e938
   1e91d:	83 f9 01             	cmp    $0x1,%ecx
   1e920:	75 1e                	jne    0x1e940
   1e922:	84 d1                	test   %dl,%cl
   1e924:	74 09                	je     0x1e92f
   1e926:	48 83 05 2a fa 00 00 	addq   $0x4,0xfa2a(%rip)        # 0x2e358
   1e92d:	04 
   1e92e:	c3                   	retq   
   1e92f:	48 83 05 21 fa 00 00 	addq   $0x2,0xfa21(%rip)        # 0x2e358
   1e936:	02 
   1e937:	c3                   	retq   
   1e938:	48 83 05 18 fa 00 00 	addq   $0x1,0xfa18(%rip)        # 0x2e358
   1e93f:	01 
   1e940:	c3                   	retq   
   1e941:	cc                   	int3   
   1e942:	cc                   	int3   
   1e943:	cc                   	int3   
   1e944:	cc                   	int3   
   1e945:	cc                   	int3   
   1e946:	cc                   	int3   
   1e947:	cc                   	int3   
   1e948:	f6 c2 01             	test   $0x1,%dl
   1e94b:	74 09                	je     0x1e956
   1e94d:	48 83 05 03 fa 00 00 	addq   $0x6,0xfa03(%rip)        # 0x2e358
   1e954:	06 
   1e955:	c3                   	retq   
   1e956:	48 83 05 fa f9 00 00 	addq   $0x4,0xf9fa(%rip)        # 0x2e358
   1e95d:	04 
   1e95e:	c3                   	retq   
   1e95f:	cc                   	int3   
   1e960:	cc                   	int3   
   1e961:	cc                   	int3   
   1e962:	cc                   	int3   
   1e963:	cc                   	int3   
   1e964:	cc                   	int3   
   1e965:	cc                   	int3   
   1e966:	cc                   	int3   
   1e967:	cc                   	int3   
   1e968:	83 3d cd f9 00 00 00 	cmpl   $0x0,0xf9cd(%rip)        # 0x2e33c
   1e96f:	75 17                	jne    0x1e988
   1e971:	f6 c2 02             	test   $0x2,%dl
   1e974:	75 09                	jne    0x1e97f
   1e976:	48 83 05 da f9 00 00 	addq   $0x2,0xf9da(%rip)        # 0x2e358
   1e97d:	02 
   1e97e:	c3                   	retq   
   1e97f:	48 83 05 d1 f9 00 00 	addq   $0x4,0xf9d1(%rip)        # 0x2e358
   1e986:	04 
   1e987:	c3                   	retq   
   1e988:	48 83 05 c8 f9 00 00 	addq   $0x8,0xf9c8(%rip)        # 0x2e358
   1e98f:	08 
   1e990:	c3                   	retq   
   1e991:	cc                   	int3   
   1e992:	cc                   	int3   
   1e993:	cc                   	int3   
   1e994:	cc                   	int3   
   1e995:	cc                   	int3   
   1e996:	cc                   	int3   
   1e997:	cc                   	int3   
   1e998:	c2 00 00             	retq   $0x0
   1e99b:	cc                   	int3   
   1e99c:	cc                   	int3   
   1e99d:	cc                   	int3   
   1e99e:	cc                   	int3   
   1e99f:	cc                   	int3   
   1e9a0:	cc                   	int3   
   1e9a1:	cc                   	int3   
   1e9a2:	cc                   	int3   
   1e9a3:	cc                   	int3   
   1e9a4:	48 89 5c 24 08       	mov    %rbx,0x8(%rsp)
   1e9a9:	48 89 74 24 10       	mov    %rsi,0x10(%rsp)
   1e9ae:	48 89 7c 24 18       	mov    %rdi,0x18(%rsp)
   1e9b3:	41 54                	push   %r12
   1e9b5:	48 83 ec 20          	sub    $0x20,%rsp
   1e9b9:	83 25 80 f9 00 00 00 	andl   $0x0,0xf980(%rip)        # 0x2e340
   1e9c0:	83 25 7d f9 00 00 00 	andl   $0x0,0xf97d(%rip)        # 0x2e344
   1e9c7:	41 b9 01 00 00 00    	mov    $0x1,%r9d
   1e9cd:	33 d2                	xor    %edx,%edx
   1e9cf:	45 8d 59 01          	lea    0x1(%r9),%r11d
   1e9d3:	48 8b f1             	mov    %rcx,%rsi
   1e9d6:	21 15 74 f9 00 00    	and    %edx,0xf974(%rip)        # 0x2e350
   1e9dc:	44 89 0d 59 f9 00 00 	mov    %r9d,0xf959(%rip)        # 0x2e33c
   1e9e3:	4c 8b c1             	mov    %rcx,%r8
   1e9e6:	48 89 0d 6b f9 00 00 	mov    %rcx,0xf96b(%rip)        # 0x2e358
   1e9ed:	89 15 45 f9 00 00    	mov    %edx,0xf945(%rip)        # 0x2e338
   1e9f3:	41 0f b6 08          	movzbl (%r8),%ecx
   1e9f7:	45 33 d2             	xor    %r10d,%r10d
   1e9fa:	83 f9 65             	cmp    $0x65,%ecx
   1e9fd:	7f 52                	jg     0x1ea51
   1e9ff:	74 4a                	je     0x1ea4b
   1ea01:	83 f9 26             	cmp    $0x26,%ecx
   1ea04:	74 40                	je     0x1ea46
   1ea06:	83 f9 2e             	cmp    $0x2e,%ecx
   1ea09:	74 36                	je     0x1ea41
   1ea0b:	83 f9 36             	cmp    $0x36,%ecx
   1ea0e:	74 2c                	je     0x1ea3c
   1ea10:	83 f9 3e             	cmp    $0x3e,%ecx
   1ea13:	74 22                	je     0x1ea37
   1ea15:	83 f9 3f             	cmp    $0x3f,%ecx
   1ea18:	0f 8e a5 00 00 00    	jle    0x1eac3
   1ea1e:	83 f9 4f             	cmp    $0x4f,%ecx
   1ea21:	7e 0f                	jle    0x1ea32
   1ea23:	83 f9 64             	cmp    $0x64,%ecx
   1ea26:	0f 85 97 00 00 00    	jne    0x1eac3
   1ea2c:	0f ba ea 07          	bts    $0x7,%edx
   1ea30:	eb 61                	jmp    0x1ea93
   1ea32:	44 8b d1             	mov    %ecx,%r10d
   1ea35:	eb 62                	jmp    0x1ea99
   1ea37:	83 ca 20             	or     $0x20,%edx
   1ea3a:	eb 57                	jmp    0x1ea93
   1ea3c:	83 ca 10             	or     $0x10,%edx
   1ea3f:	eb 52                	jmp    0x1ea93
   1ea41:	83 ca 08             	or     $0x8,%edx
   1ea44:	eb 4d                	jmp    0x1ea93
   1ea46:	83 ca 40             	or     $0x40,%edx
   1ea49:	eb 48                	jmp    0x1ea93
   1ea4b:	0f ba ea 08          	bts    $0x8,%edx
   1ea4f:	eb 42                	jmp    0x1ea93
   1ea51:	83 e9 66             	sub    $0x66,%ecx
   1ea54:	74 39                	je     0x1ea8f
   1ea56:	41 2b c9             	sub    %r9d,%ecx
   1ea59:	74 2e                	je     0x1ea89
   1ea5b:	83 e9 34             	sub    $0x34,%ecx
   1ea5e:	74 1e                	je     0x1ea7e
   1ea60:	83 e9 55             	sub    $0x55,%ecx
   1ea63:	74 14                	je     0x1ea79
   1ea65:	41 2b cb             	sub    %r11d,%ecx
   1ea68:	74 0a                	je     0x1ea74
   1ea6a:	41 3b c9             	cmp    %r9d,%ecx
   1ea6d:	75 54                	jne    0x1eac3
   1ea6f:	41 0b d1             	or     %r9d,%edx
   1ea72:	eb 1f                	jmp    0x1ea93
   1ea74:	41 0b d3             	or     %r11d,%edx
   1ea77:	eb 1a                	jmp    0x1ea93
   1ea79:	83 ca 04             	or     $0x4,%edx
   1ea7c:	eb 15                	jmp    0x1ea93
   1ea7e:	85 d2                	test   %edx,%edx
   1ea80:	75 2d                	jne    0x1eaaf
   1ea82:	ba 00 08 00 00       	mov    $0x800,%edx
   1ea87:	eb 0a                	jmp    0x1ea93
   1ea89:	0f ba ea 0a          	bts    $0xa,%edx
   1ea8d:	eb 04                	jmp    0x1ea93
   1ea8f:	0f ba ea 09          	bts    $0x9,%edx
   1ea93:	89 15 9f f8 00 00    	mov    %edx,0xf89f(%rip)        # 0x2e338
   1ea99:	4d 03 c1             	add    %r9,%r8
   1ea9c:	44 89 15 a1 f8 00 00 	mov    %r10d,0xf8a1(%rip)        # 0x2e344
   1eaa3:	4c 89 05 ae f8 00 00 	mov    %r8,0xf8ae(%rip)        # 0x2e358
   1eaaa:	e9 44 ff ff ff       	jmpq   0x1e9f3
   1eaaf:	0f ba ea 0b          	bts    $0xb,%edx
   1eab3:	4d 03 c1             	add    %r9,%r8
   1eab6:	89 15 7c f8 00 00    	mov    %edx,0xf87c(%rip)        # 0x2e338
   1eabc:	4c 89 05 95 f8 00 00 	mov    %r8,0xf895(%rip)        # 0x2e358
   1eac3:	0f ba e2 0b          	bt     $0xb,%edx
   1eac7:	4c 89 05 7a f8 00 00 	mov    %r8,0xf87a(%rip)        # 0x2e348
   1eace:	41 bc 03 00 00 00    	mov    $0x3,%r12d
   1ead4:	73 14                	jae    0x1eaea
   1ead6:	41 80 38 d8          	cmpb   $0xd8,(%r8)
   1eada:	0f 82 f2 01 00 00    	jb     0x1ecd2
   1eae0:	41 80 38 df          	cmpb   $0xdf,(%r8)
   1eae4:	0f 87 e8 01 00 00    	ja     0x1ecd2
   1eaea:	41 80 38 0f          	cmpb   $0xf,(%r8)
   1eaee:	4c 8d 15 0b 15 ff ff 	lea    -0xeaf5(%rip),%r10        # 0x10000
   1eaf5:	75 2b                	jne    0x1eb22
   1eaf7:	4d 03 c1             	add    %r9,%r8
   1eafa:	48 8d 0d 9f 67 00 00 	lea    0x679f(%rip),%rcx        # 0x252a0
   1eb01:	41 0f b6 00          	movzbl (%r8),%eax
   1eb05:	48 8d 1c 40          	lea    (%rax,%rax,2),%rbx
   1eb09:	48 c1 e3 04          	shl    $0x4,%rbx
   1eb0d:	48 03 d9             	add    %rcx,%rbx
   1eb10:	42 8a 8c 10 a0 83 01 	mov    0x183a0(%rax,%r10,1),%cl
   1eb17:	00 
   1eb18:	46 8a 94 10 a0 84 01 	mov    0x184a0(%rax,%r10,1),%r10b
   1eb1f:	00 
   1eb20:	eb 21                	jmp    0x1eb43
   1eb22:	41 0f b6 00          	movzbl (%r8),%eax
   1eb26:	48 8d 0d 73 37 00 00 	lea    0x3773(%rip),%rcx        # 0x222a0
   1eb2d:	48 8d 1c 40          	lea    (%rax,%rax,2),%rbx
   1eb31:	48 c1 e3 04          	shl    $0x4,%rbx
   1eb35:	48 03 d9             	add    %rcx,%rbx
   1eb38:	42 8a 8c 10 a0 82 01 	mov    0x182a0(%rax,%r10,1),%cl
   1eb3f:	00 
   1eb40:	45 32 d2             	xor    %r10b,%r10b
   1eb43:	4d 03 c1             	add    %r9,%r8
   1eb46:	0f ba e2 0a          	bt     $0xa,%edx
   1eb4a:	41 8b fc             	mov    %r12d,%edi
   1eb4d:	41 0f 42 f9          	cmovb  %r9d,%edi
   1eb51:	45 84 d2             	test   %r10b,%r10b
   1eb54:	88 0d 0e f8 00 00    	mov    %cl,0xf80e(%rip)        # 0x2e368
   1eb5a:	4c 89 05 f7 f7 00 00 	mov    %r8,0xf7f7(%rip)        # 0x2e358
   1eb61:	75 09                	jne    0x1eb6c
   1eb63:	0f ba e2 09          	bt     $0x9,%edx
   1eb67:	73 03                	jae    0x1eb6c
   1eb69:	41 33 f9             	xor    %r9d,%edi
   1eb6c:	84 c9                	test   %cl,%cl
   1eb6e:	74 2c                	je     0x1eb9c
   1eb70:	41 0f b6 08          	movzbl (%r8),%ecx
   1eb74:	44 8b d1             	mov    %ecx,%r10d
   1eb77:	8b c1                	mov    %ecx,%eax
   1eb79:	41 c1 ea 03          	shr    $0x3,%r10d
   1eb7d:	c1 e8 06             	shr    $0x6,%eax
   1eb80:	41 83 e2 07          	and    $0x7,%r10d
   1eb84:	83 e1 07             	and    $0x7,%ecx
   1eb87:	89 05 d7 f7 00 00    	mov    %eax,0xf7d7(%rip)        # 0x2e364
   1eb8d:	89 0d c1 f7 00 00    	mov    %ecx,0xf7c1(%rip)        # 0x2e354
   1eb93:	44 89 15 c6 f7 00 00 	mov    %r10d,0xf7c6(%rip)        # 0x2e360
   1eb9a:	eb 07                	jmp    0x1eba3
   1eb9c:	44 8b 15 bd f7 00 00 	mov    0xf7bd(%rip),%r10d        # 0x2e360
   1eba3:	48 83 3b 00          	cmpq   $0x0,(%rbx)
   1eba7:	0f 85 e1 00 00 00    	jne    0x1ec8e
   1ebad:	48 8b 4b 10          	mov    0x10(%rbx),%rcx
   1ebb1:	48 85 c9             	test   %rcx,%rcx
   1ebb4:	0f 85 d4 00 00 00    	jne    0x1ec8e
   1ebba:	48 39 4b 20          	cmp    %rcx,0x20(%rbx)
   1ebbe:	75 29                	jne    0x1ebe9
   1ebc0:	39 4b 28             	cmp    %ecx,0x28(%rbx)
   1ebc3:	75 24                	jne    0x1ebe9
   1ebc5:	8b 43 08             	mov    0x8(%rbx),%eax
   1ebc8:	41 3b c1             	cmp    %r9d,%eax
   1ebcb:	0f 84 01 01 00 00    	je     0x1ecd2
   1ebd1:	41 3b c3             	cmp    %r11d,%eax
   1ebd4:	74 0a                	je     0x1ebe0
   1ebd6:	41 3b c4             	cmp    %r12d,%eax
   1ebd9:	74 05                	je     0x1ebe0
   1ebdb:	83 f8 04             	cmp    $0x4,%eax
   1ebde:	75 09                	jne    0x1ebe9
   1ebe0:	41 3b c1             	cmp    %r9d,%eax
   1ebe3:	0f 84 e9 00 00 00    	je     0x1ecd2
   1ebe9:	48 85 c9             	test   %rcx,%rcx
   1ebec:	0f 85 9c 00 00 00    	jne    0x1ec8e
   1ebf2:	48 39 4b 20          	cmp    %rcx,0x20(%rbx)
   1ebf6:	0f 85 92 00 00 00    	jne    0x1ec8e
   1ebfc:	39 4b 28             	cmp    %ecx,0x28(%rbx)
   1ebff:	0f 85 89 00 00 00    	jne    0x1ec8e
   1ec05:	8b 4b 08             	mov    0x8(%rbx),%ecx
   1ec08:	41 3b c9             	cmp    %r9d,%ecx
   1ec0b:	74 0f                	je     0x1ec1c
   1ec0d:	41 3b cb             	cmp    %r11d,%ecx
   1ec10:	74 0a                	je     0x1ec1c
   1ec12:	41 3b cc             	cmp    %r12d,%ecx
   1ec15:	74 05                	je     0x1ec1c
   1ec17:	83 f9 04             	cmp    $0x4,%ecx
   1ec1a:	75 72                	jne    0x1ec8e
   1ec1c:	41 2b cb             	sub    %r11d,%ecx
   1ec1f:	74 50                	je     0x1ec71
   1ec21:	41 2b c9             	sub    %r9d,%ecx
   1ec24:	74 1a                	je     0x1ec40
   1ec26:	41 3b c9             	cmp    %r9d,%ecx
   1ec29:	75 63                	jne    0x1ec8e
   1ec2b:	48 63 43 18          	movslq 0x18(%rbx),%rax
   1ec2f:	48 8d 1c 40          	lea    (%rax,%rax,2),%rbx
   1ec33:	48 8d 05 d6 d4 00 00 	lea    0xd4d6(%rip),%rax        # 0x2c110
   1ec3a:	48 c1 e3 05          	shl    $0x5,%rbx
   1ec3e:	eb 4b                	jmp    0x1ec8b
   1ec40:	41 84 d1             	test   %dl,%r9b
   1ec43:	75 18                	jne    0x1ec5d
   1ec45:	0f ba e2 09          	bt     $0x9,%edx
   1ec49:	73 05                	jae    0x1ec50
   1ec4b:	45 8b cb             	mov    %r11d,%r9d
   1ec4e:	eb 0d                	jmp    0x1ec5d
   1ec50:	41 84 d3             	test   %dl,%r11b
   1ec53:	41 b9 00 00 00 00    	mov    $0x0,%r9d
   1ec59:	45 0f 45 cc          	cmovne %r12d,%r9d
   1ec5d:	48 63 4b 18          	movslq 0x18(%rbx),%rcx
   1ec61:	49 63 c1             	movslq %r9d,%rax
   1ec64:	48 8d 0c 88          	lea    (%rax,%rcx,4),%rcx
   1ec68:	48 8d 05 b1 bb 00 00 	lea    0xbbb1(%rip),%rax        # 0x2a820
   1ec6f:	eb 12                	jmp    0x1ec83
   1ec71:	48 63 4b 18          	movslq 0x18(%rbx),%rcx
   1ec75:	49 63 c2             	movslq %r10d,%rax
   1ec78:	48 8d 0c c8          	lea    (%rax,%rcx,8),%rcx
   1ec7c:	48 8d 05 1d 99 00 00 	lea    0x991d(%rip),%rax        # 0x285a0
   1ec83:	48 8d 1c 49          	lea    (%rcx,%rcx,2),%rbx
   1ec87:	48 c1 e3 04          	shl    $0x4,%rbx
   1ec8b:	48 03 d8             	add    %rax,%rbx
   1ec8e:	48 8b 03             	mov    (%rbx),%rax
   1ec91:	48 85 c0             	test   %rax,%rax
   1ec94:	74 0e                	je     0x1eca4
   1ec96:	8b 4b 08             	mov    0x8(%rbx),%ecx
   1ec99:	8b d7                	mov    %edi,%edx
   1ec9b:	ff d0                	callq  *%rax
   1ec9d:	4c 8b 05 b4 f6 00 00 	mov    0xf6b4(%rip),%r8        # 0x2e358
   1eca4:	48 8b 43 10          	mov    0x10(%rbx),%rax
   1eca8:	48 85 c0             	test   %rax,%rax
   1ecab:	74 0e                	je     0x1ecbb
   1ecad:	8b 4b 18             	mov    0x18(%rbx),%ecx
   1ecb0:	8b d7                	mov    %edi,%edx
   1ecb2:	ff d0                	callq  *%rax
   1ecb4:	4c 8b 05 9d f6 00 00 	mov    0xf69d(%rip),%r8        # 0x2e358
   1ecbb:	48 8b 43 20          	mov    0x20(%rbx),%rax
   1ecbf:	48 85 c0             	test   %rax,%rax
   1ecc2:	74 0e                	je     0x1ecd2
   1ecc4:	8b 4b 28             	mov    0x28(%rbx),%ecx
   1ecc7:	8b d7                	mov    %edi,%edx
   1ecc9:	ff d0                	callq  *%rax
   1eccb:	4c 8b 05 86 f6 00 00 	mov    0xf686(%rip),%r8        # 0x2e358
   1ecd2:	48 8b 5c 24 30       	mov    0x30(%rsp),%rbx
   1ecd7:	48 8b 7c 24 40       	mov    0x40(%rsp),%rdi
   1ecdc:	4c 2b c6             	sub    %rsi,%r8
   1ecdf:	48 8b 74 24 38       	mov    0x38(%rsp),%rsi
   1ece4:	41 8b c0             	mov    %r8d,%eax
   1ece7:	48 83 c4 20          	add    $0x20,%rsp
   1eceb:	41 5c                	pop    %r12
   1eced:	c3                   	retq   
   1ecee:	cc                   	int3   
   1ecef:	cc                   	int3   
   1ecf0:	cc                   	int3   
   1ecf1:	cc                   	int3   
   1ecf2:	cc                   	int3   
   1ecf3:	cc                   	int3   
   1ecf4:	48 89 5c 24 08       	mov    %rbx,0x8(%rsp)
   1ecf9:	4c 8b 05 58 f6 00 00 	mov    0xf658(%rip),%r8        # 0x2e358
   1ed00:	44 8b 0d 5d f6 00 00 	mov    0xf65d(%rip),%r9d        # 0x2e364
   1ed07:	bb 01 00 00 00       	mov    $0x1,%ebx
   1ed0c:	4c 03 c3             	add    %rbx,%r8
   1ed0f:	41 83 f9 03          	cmp    $0x3,%r9d
   1ed13:	4c 89 05 3e f6 00 00 	mov    %r8,0xf63e(%rip)        # 0x2e358
   1ed1a:	75 51                	jne    0x1ed6d
   1ed1c:	85 c9                	test   %ecx,%ecx
   1ed1e:	0f 85 f0 00 00 00    	jne    0x1ee14
   1ed24:	41 8a 40 fe          	mov    -0x2(%r8),%al
   1ed28:	b1 ae                	mov    $0xae,%cl
   1ed2a:	3a c1                	cmp    %cl,%al
   1ed2c:	75 29                	jne    0x1ed57
   1ed2e:	41 80 78 ff f8       	cmpb   $0xf8,-0x1(%r8)
   1ed33:	0f 84 db 00 00 00    	je     0x1ee14
   1ed39:	3a c1                	cmp    %cl,%al
   1ed3b:	75 1a                	jne    0x1ed57
   1ed3d:	41 80 78 ff f0       	cmpb   $0xf0,-0x1(%r8)
   1ed42:	0f 84 cc 00 00 00    	je     0x1ee14
   1ed48:	3a c1                	cmp    %cl,%al
   1ed4a:	75 0b                	jne    0x1ed57
   1ed4c:	41 80 78 ff e8       	cmpb   $0xe8,-0x1(%r8)
   1ed51:	0f 84 bd 00 00 00    	je     0x1ee14
   1ed57:	48 8b 05 ea f5 00 00 	mov    0xf5ea(%rip),%rax        # 0x2e348
   1ed5e:	48 03 c3             	add    %rbx,%rax
   1ed61:	48 89 05 f0 f5 00 00 	mov    %rax,0xf5f0(%rip)        # 0x2e358
   1ed68:	e9 a7 00 00 00       	jmpq   0x1ee14
   1ed6d:	83 e2 02             	and    $0x2,%edx
   1ed70:	44 8b 15 c5 f5 00 00 	mov    0xf5c5(%rip),%r10d        # 0x2e33c
   1ed77:	75 30                	jne    0x1eda9
   1ed79:	45 85 d2             	test   %r10d,%r10d
   1ed7c:	75 2b                	jne    0x1eda9
   1ed7e:	45 85 c9             	test   %r9d,%r9d
   1ed81:	74 19                	je     0x1ed9c
   1ed83:	44 2b cb             	sub    %ebx,%r9d
   1ed86:	74 0f                	je     0x1ed97
   1ed88:	44 3b cb             	cmp    %ebx,%r9d
   1ed8b:	0f 85 83 00 00 00    	jne    0x1ee14
   1ed91:	49 83 c0 02          	add    $0x2,%r8
   1ed95:	eb 76                	jmp    0x1ee0d
   1ed97:	4c 03 c3             	add    %rbx,%r8
   1ed9a:	eb 71                	jmp    0x1ee0d
   1ed9c:	8b 05 b2 f5 00 00    	mov    0xf5b2(%rip),%eax        # 0x2e354
   1eda2:	83 e0 07             	and    $0x7,%eax
   1eda5:	3c 06                	cmp    $0x6,%al
   1eda7:	eb e2                	jmp    0x1ed8b
   1eda9:	8b 0d a5 f5 00 00    	mov    0xf5a5(%rip),%ecx        # 0x2e354
   1edaf:	45 33 db             	xor    %r11d,%r11d
   1edb2:	83 f9 04             	cmp    $0x4,%ecx
   1edb5:	75 1e                	jne    0x1edd5
   1edb7:	41 8a 08             	mov    (%r8),%cl
   1edba:	44 8b db             	mov    %ebx,%r11d
   1edbd:	83 e1 07             	and    $0x7,%ecx
   1edc0:	84 1d 7e f5 00 00    	test   %bl,0xf57e(%rip)        # 0x2e344
   1edc6:	74 03                	je     0x1edcb
   1edc8:	83 c1 08             	add    $0x8,%ecx
   1edcb:	4c 03 c3             	add    %rbx,%r8
   1edce:	4c 89 05 83 f5 00 00 	mov    %r8,0xf583(%rip)        # 0x2e358
   1edd5:	45 85 c9             	test   %r9d,%r9d
   1edd8:	74 0c                	je     0x1ede6
   1edda:	44 2b cb             	sub    %ebx,%r9d
   1eddd:	74 b8                	je     0x1ed97
   1eddf:	44 3b cb             	cmp    %ebx,%r9d
   1ede2:	75 30                	jne    0x1ee14
   1ede4:	eb 23                	jmp    0x1ee09
   1ede6:	83 e1 07             	and    $0x7,%ecx
   1ede9:	80 f9 05             	cmp    $0x5,%cl
   1edec:	75 26                	jne    0x1ee14
   1edee:	45 85 d2             	test   %r10d,%r10d
   1edf1:	74 16                	je     0x1ee09
   1edf3:	45 85 db             	test   %r11d,%r11d
   1edf6:	75 11                	jne    0x1ee09
   1edf8:	8b 05 42 f5 00 00    	mov    0xf542(%rip),%eax        # 0x2e340
   1edfe:	85 d2                	test   %edx,%edx
   1ee00:	0f 45 c3             	cmovne %ebx,%eax
   1ee03:	89 05 37 f5 00 00    	mov    %eax,0xf537(%rip)        # 0x2e340
   1ee09:	49 83 c0 04          	add    $0x4,%r8
   1ee0d:	4c 89 05 44 f5 00 00 	mov    %r8,0xf544(%rip)        # 0x2e358
   1ee14:	48 8b 5c 24 08       	mov    0x8(%rsp),%rbx
   1ee19:	c3                   	retq   
   1ee1a:	cc                   	int3   
   1ee1b:	cc                   	int3   
   1ee1c:	cc                   	int3   
   1ee1d:	cc                   	int3   
   1ee1e:	cc                   	int3   
   1ee1f:	cc                   	int3   
   1ee20:	48 83 ec 28          	sub    $0x28,%rsp
   1ee24:	83 3d 39 f5 00 00 03 	cmpl   $0x3,0xf539(%rip)        # 0x2e364
   1ee2b:	75 07                	jne    0x1ee34
   1ee2d:	e8 c2 fe ff ff       	callq  0x1ecf4
   1ee32:	eb 12                	jmp    0x1ee46
   1ee34:	48 8b 05 0d f5 00 00 	mov    0xf50d(%rip),%rax        # 0x2e348
   1ee3b:	48 83 c0 01          	add    $0x1,%rax
   1ee3f:	48 89 05 12 f5 00 00 	mov    %rax,0xf512(%rip)        # 0x2e358
   1ee46:	48 83 c4 28          	add    $0x28,%rsp
   1ee4a:	c3                   	retq   
   1ee4b:	cc                   	int3   
   1ee4c:	cc                   	int3   
   1ee4d:	cc                   	int3   
   1ee4e:	cc                   	int3   
   1ee4f:	cc                   	int3   
   1ee50:	cc                   	int3   
   1ee51:	cc                   	int3   
   1ee52:	cc                   	int3   
   1ee53:	cc                   	int3   
   1ee54:	48 83 ec 28          	sub    $0x28,%rsp
   1ee58:	83 3d 05 f5 00 00 03 	cmpl   $0x3,0xf505(%rip)        # 0x2e364
   1ee5f:	74 07                	je     0x1ee68
   1ee61:	e8 8e fe ff ff       	callq  0x1ecf4
   1ee66:	eb 08                	jmp    0x1ee70
   1ee68:	48 83 05 e8 f4 00 00 	addq   $0x1,0xf4e8(%rip)        # 0x2e358
   1ee6f:	01 
   1ee70:	48 83 c4 28          	add    $0x28,%rsp
   1ee74:	c3                   	retq   
   1ee75:	cc                   	int3   
   1ee76:	cc                   	int3   
   1ee77:	cc                   	int3   
   1ee78:	cc                   	int3   
   1ee79:	cc                   	int3   
   1ee7a:	cc                   	int3   
   1ee7b:	cc                   	int3   
   1ee7c:	83 3d e1 f4 00 00 03 	cmpl   $0x3,0xf4e1(%rip)        # 0x2e364
   1ee83:	75 09                	jne    0x1ee8e
   1ee85:	48 83 05 cb f4 00 00 	addq   $0x1,0xf4cb(%rip)        # 0x2e358
   1ee8c:	01 
   1ee8d:	c3                   	retq   
   1ee8e:	48 8b 05 b3 f4 00 00 	mov    0xf4b3(%rip),%rax        # 0x2e348
   1ee95:	48 83 c0 01          	add    $0x1,%rax
   1ee99:	48 89 05 b8 f4 00 00 	mov    %rax,0xf4b8(%rip)        # 0x2e358
   1eea0:	c3                   	retq   
   1eea1:	cc                   	int3   
   1eea2:	cc                   	int3   
   1eea3:	cc                   	int3   
   1eea4:	cc                   	int3   
   1eea5:	cc                   	int3   
   1eea6:	cc                   	int3   
   1eea7:	cc                   	int3   
   1eea8:	48 8b 05 a9 f4 00 00 	mov    0xf4a9(%rip),%rax        # 0x2e358
   1eeaf:	0f b6 08             	movzbl (%rax),%ecx
   1eeb2:	48 83 c0 01          	add    $0x1,%rax
   1eeb6:	83 f9 08             	cmp    $0x8,%ecx
   1eeb9:	48 89 05 98 f4 00 00 	mov    %rax,0xf498(%rip)        # 0x2e358
   1eec0:	72 12                	jb     0x1eed4
   1eec2:	48 8b 05 7f f4 00 00 	mov    0xf47f(%rip),%rax        # 0x2e348
   1eec9:	48 83 c0 01          	add    $0x1,%rax
   1eecd:	48 89 05 84 f4 00 00 	mov    %rax,0xf484(%rip)        # 0x2e358
   1eed4:	c3                   	retq   
   1eed5:	cc                   	int3   
   1eed6:	cc                   	int3   
   1eed7:	cc                   	int3   
   1eed8:	cc                   	int3   
   1eed9:	cc                   	int3   
   1eeda:	cc                   	int3   
   1eedb:	cc                   	int3   
   1eedc:	48 83 ec 28          	sub    $0x28,%rsp
   1eee0:	83 3d 7d f4 00 00 03 	cmpl   $0x3,0xf47d(%rip)        # 0x2e364
   1eee7:	75 13                	jne    0x1eefc
   1eee9:	83 3d 70 f4 00 00 01 	cmpl   $0x1,0xf470(%rip)        # 0x2e360
   1eef0:	75 0a                	jne    0x1eefc
   1eef2:	48 83 05 5e f4 00 00 	addq   $0x1,0xf45e(%rip)        # 0x2e358
   1eef9:	01 
   1eefa:	eb 07                	jmp    0x1ef03
   1eefc:	33 c9                	xor    %ecx,%ecx
   1eefe:	e8 f1 fd ff ff       	callq  0x1ecf4
   1ef03:	48 83 c4 28          	add    $0x28,%rsp
   1ef07:	c3                   	retq   
   1ef08:	cc                   	int3   
   1ef09:	cc                   	int3   
   1ef0a:	cc                   	int3   
   1ef0b:	cc                   	int3   
   1ef0c:	cc                   	int3   
   1ef0d:	cc                   	int3   
   1ef0e:	cc                   	int3   
   1ef0f:	cc                   	int3   
   1ef10:	e9 df fd ff ff       	jmpq   0x1ecf4
   1ef15:	cc                   	int3   
   1ef16:	cc                   	int3   
   1ef17:	cc                   	int3   
   1ef18:	cc                   	int3   
   1ef19:	cc                   	int3   
   1ef1a:	cc                   	int3   
   1ef1b:	cc                   	int3   
   1ef1c:	48 8b c4             	mov    %rsp,%rax
   1ef1f:	48 89 58 08          	mov    %rbx,0x8(%rax)
   1ef23:	48 89 70 10          	mov    %rsi,0x10(%rax)
   1ef27:	57                   	push   %rdi
   1ef28:	48 81 ec 90 00 00 00 	sub    $0x90,%rsp
   1ef2f:	48 8b da             	mov    %rdx,%rbx
   1ef32:	48 8b f9             	mov    %rcx,%rdi
   1ef35:	48 8d 50 a8          	lea    -0x58(%rax),%rdx
   1ef39:	b9 aa f1 00 00       	mov    $0xf1aa,%ecx
   1ef3e:	49 8b f0             	mov    %r8,%rsi
   1ef41:	c6 40 a8 a5          	movb   $0xa5,-0x58(%rax)
   1ef45:	c6 40 a9 dd          	movb   $0xdd,-0x57(%rax)
   1ef49:	c6 40 aa fc          	movb   $0xfc,-0x56(%rax)
   1ef4d:	c6 40 ab c2          	movb   $0xc2,-0x55(%rax)
   1ef51:	c6 40 ac f6          	movb   $0xf6,-0x54(%rax)
   1ef55:	c6 40 ad cf          	movb   $0xcf,-0x53(%rax)
   1ef59:	c6 40 ae d4          	movb   $0xd4,-0x52(%rax)
   1ef5d:	c6 40 af d7          	movb   $0xd7,-0x51(%rax)
   1ef61:	c6 40 b0 ab          	movb   $0xab,-0x50(%rax)
   1ef65:	c6 40 b1 99          	movb   $0x99,-0x4f(%rax)
   1ef69:	c6 40 b2 ec          	movb   $0xec,-0x4e(%rax)
   1ef6d:	c6 40 b3 9f          	movb   $0x9f,-0x4d(%rax)
   1ef71:	c6 40 b4 d8          	movb   $0xd8,-0x4c(%rax)
   1ef75:	c6 40 b5 9b          	movb   $0x9b,-0x4b(%rax)
   1ef79:	c6 40 b6 f7          	movb   $0xf7,-0x4a(%rax)
   1ef7d:	c6 40 b7 90          	movb   $0x90,-0x49(%rax)
   1ef81:	c6 40 b8 bc          	movb   $0xbc,-0x48(%rax)
   1ef85:	c6 40 b9 eb          	movb   $0xeb,-0x47(%rax)
   1ef89:	c6 40 ba e0          	movb   $0xe0,-0x46(%rax)
   1ef8d:	c6 40 bb ba          	movb   $0xba,-0x45(%rax)
   1ef91:	c6 40 bc da          	movb   $0xda,-0x44(%rax)
   1ef95:	c6 40 bd 9d          	movb   $0x9d,-0x43(%rax)
   1ef99:	c6 40 be af          	movb   $0xaf,-0x42(%rax)
   1ef9d:	c6 40 bf e1          	movb   $0xe1,-0x41(%rax)
   1efa1:	c6 40 c0 b5          	movb   $0xb5,-0x40(%rax)
   1efa5:	c6 40 c1 87          	movb   $0x87,-0x3f(%rax)
   1efa9:	c6 40 c2 b4          	movb   $0xb4,-0x3e(%rax)
   1efad:	c6 40 c3 9a          	movb   $0x9a,-0x3d(%rax)
   1efb1:	c6 40 c4 a4          	movb   $0xa4,-0x3c(%rax)
   1efb5:	c6 40 c5 fb          	movb   $0xfb,-0x3b(%rax)
   1efb9:	c6 40 c6 b8          	movb   $0xb8,-0x3a(%rax)
   1efbd:	c6 40 c7 9d          	movb   $0x9d,-0x39(%rax)
   1efc1:	c6 40 c8 9d          	movb   $0x9d,-0x38(%rax)
   1efc5:	c6 40 c9 ff          	movb   $0xff,-0x37(%rax)
   1efc9:	c6 40 ca df          	movb   $0xdf,-0x36(%rax)
   1efcd:	c6 40 cb 88          	movb   $0x88,-0x35(%rax)
   1efd1:	c6 40 cc 00          	movb   $0x0,-0x34(%rax)
   1efd5:	e8 26 d0 ff ff       	callq  0x1c000
   1efda:	b9 cc f6 ff ff       	mov    $0xfffff6cc,%ecx
   1efdf:	44 8b d3             	mov    %ebx,%r10d
   1efe2:	4c 8b db             	mov    %rbx,%r11
   1efe5:	48 8b c7             	mov    %rdi,%rax
   1efe8:	48 c1 eb 30          	shr    $0x30,%rbx
   1efec:	48 c1 e8 30          	shr    $0x30,%rax
   1eff0:	33 d9                	xor    %ecx,%ebx
   1eff2:	49 c1 eb 20          	shr    $0x20,%r11
   1eff6:	33 c1                	xor    %ecx,%eax
   1eff8:	45 0f b7 c3          	movzwl %r11w,%r8d
   1effc:	41 bb 4a 51 b9 e1    	mov    $0xe1b9514a,%r11d
   1f002:	0f b7 c8             	movzwl %ax,%ecx
   1f005:	44 89 44 24 38       	mov    %r8d,0x38(%rsp)
   1f00a:	48 8b c7             	mov    %rdi,%rax
   1f00d:	45 33 d3             	xor    %r11d,%r10d
   1f010:	0f b7 d3             	movzwl %bx,%edx
   1f013:	48 c1 e8 20          	shr    $0x20,%rax
   1f017:	44 89 54 24 30       	mov    %r10d,0x30(%rsp)
   1f01c:	89 54 24 28          	mov    %edx,0x28(%rsp)
   1f020:	35 1c 9b ff ff       	xor    $0xffff9b1c,%eax
   1f025:	41 33 fb             	xor    %r11d,%edi
   1f028:	89 4c 24 20          	mov    %ecx,0x20(%rsp)
   1f02c:	48 8d 54 24 40       	lea    0x40(%rsp),%rdx
   1f031:	48 8d 4c 24 68       	lea    0x68(%rsp),%rcx
   1f036:	44 0f b7 c8          	movzwl %ax,%r9d
   1f03a:	44 8b c7             	mov    %edi,%r8d
   1f03d:	e8 8c 1a 00 00       	callq  0x20ace
   1f042:	33 d2                	xor    %edx,%edx
   1f044:	48 8d 4c 24 40       	lea    0x40(%rsp),%rcx
   1f049:	44 8d 42 25          	lea    0x25(%rdx),%r8d
   1f04d:	e8 3e 18 00 00       	callq  0x20890
   1f052:	48 8d 4c 24 68       	lea    0x68(%rsp),%rcx
   1f057:	48 8b d6             	mov    %rsi,%rdx
   1f05a:	e8 55 d1 ff ff       	callq  0x1c1b4
   1f05f:	33 d2                	xor    %edx,%edx
   1f061:	48 8d 4c 24 68       	lea    0x68(%rsp),%rcx
   1f066:	44 8d 42 27          	lea    0x27(%rdx),%r8d
   1f06a:	e8 21 18 00 00       	callq  0x20890
   1f06f:	4c 8d 9c 24 90 00 00 	lea    0x90(%rsp),%r11
   1f076:	00 
   1f077:	49 8b 5b 10          	mov    0x10(%r11),%rbx
   1f07b:	49 8b 73 18          	mov    0x18(%r11),%rsi
   1f07f:	49 8b e3             	mov    %r11,%rsp
   1f082:	5f                   	pop    %rdi
   1f083:	c3                   	retq   
   1f084:	cc                   	int3   
   1f085:	cc                   	int3   
   1f086:	cc                   	int3   
   1f087:	cc                   	int3   
   1f088:	cc                   	int3   
   1f089:	cc                   	int3   
   1f08a:	cc                   	int3   
   1f08b:	cc                   	int3   
   1f08c:	48 8b c4             	mov    %rsp,%rax
   1f08f:	48 89 58 08          	mov    %rbx,0x8(%rax)
   1f093:	48 89 68 10          	mov    %rbp,0x10(%rax)
   1f097:	48 89 70 18          	mov    %rsi,0x18(%rax)
   1f09b:	57                   	push   %rdi
   1f09c:	48 81 ec 90 00 00 00 	sub    $0x90,%rsp
   1f0a3:	40 32 f6             	xor    %sil,%sil
   1f0a6:	66 83 3a 7b          	cmpw   $0x7b,(%rdx)
   1f0aa:	49 8b e8             	mov    %r8,%rbp
   1f0ad:	48 8b da             	mov    %rdx,%rbx
   1f0b0:	0f 85 f8 00 00 00    	jne    0x1f1ae
   1f0b6:	4c 8d 40 a8          	lea    -0x58(%rax),%r8
   1f0ba:	33 d2                	xor    %edx,%edx
   1f0bc:	e8 5b fe ff ff       	callq  0x1ef1c
   1f0c1:	48 8b cb             	mov    %rbx,%rcx
   1f0c4:	e8 11 1a 00 00       	callq  0x20ada
   1f0c9:	48 83 f8 26          	cmp    $0x26,%rax
   1f0cd:	0f 82 cb 00 00 00    	jb     0x1f19e
   1f0d3:	48 8d 4c 24 40       	lea    0x40(%rsp),%rcx
   1f0d8:	41 b8 28 00 00 00    	mov    $0x28,%r8d
   1f0de:	48 8b d3             	mov    %rbx,%rdx
   1f0e1:	ff 15 f9 30 00 00    	callq  *0x30f9(%rip)        # 0x221e0
   1f0e7:	48 83 f8 28          	cmp    $0x28,%rax
   1f0eb:	0f 85 ad 00 00 00    	jne    0x1f19e
   1f0f1:	48 8d 4b 28          	lea    0x28(%rbx),%rcx
   1f0f5:	48 8d 54 24 20       	lea    0x20(%rsp),%rdx
   1f0fa:	e8 f1 d0 ff ff       	callq  0x1c1f0
   1f0ff:	80 7c 24 24 2d       	cmpb   $0x2d,0x24(%rsp)
   1f104:	0f 85 84 00 00 00    	jne    0x1f18e
   1f10a:	80 7c 24 31 7d       	cmpb   $0x7d,0x31(%rsp)
   1f10f:	75 7d                	jne    0x1f18e
   1f111:	40 8a 7c 24 2d       	mov    0x2d(%rsp),%dil
   1f116:	48 8d 4c 24 20       	lea    0x20(%rsp),%rcx
   1f11b:	ba 10 00 00 00       	mov    $0x10,%edx
   1f120:	40 88 74 24 2d       	mov    %sil,0x2d(%rsp)
   1f125:	40 88 74 24 24       	mov    %sil,0x24(%rsp)
   1f12a:	40 88 74 24 31       	mov    %sil,0x31(%rsp)
   1f12f:	e8 dc cf ff ff       	callq  0x1c110
   1f134:	48 8d 4c 24 25       	lea    0x25(%rsp),%rcx
   1f139:	ba 10 00 00 00       	mov    $0x10,%edx
   1f13e:	8b d8                	mov    %eax,%ebx
   1f140:	e8 cb cf ff ff       	callq  0x1c110
   1f145:	48 8d 4c 24 2d       	lea    0x2d(%rsp),%rcx
   1f14a:	ba 10 00 00 00       	mov    $0x10,%edx
   1f14f:	40 88 7c 24 2d       	mov    %dil,0x2d(%rsp)
   1f154:	8b f0                	mov    %eax,%esi
   1f156:	e8 b5 cf ff ff       	callq  0x1c110
   1f15b:	48 8b cb             	mov    %rbx,%rcx
   1f15e:	44 8b d8             	mov    %eax,%r11d
   1f161:	48 c1 e1 30          	shl    $0x30,%rcx
   1f165:	48 b8 00 00 00 00 00 	movabs $0xf6cc000000000000,%rax
   1f16c:	00 cc f6 
   1f16f:	48 33 c8             	xor    %rax,%rcx
   1f172:	49 c1 e3 20          	shl    $0x20,%r11
   1f176:	48 8b c6             	mov    %rsi,%rax
   1f179:	4c 0b d9             	or     %rcx,%r11
   1f17c:	b9 4a 51 b9 e1       	mov    $0xe1b9514a,%ecx
   1f181:	40 b6 01             	mov    $0x1,%sil
   1f184:	48 33 c1             	xor    %rcx,%rax
   1f187:	4c 0b d8             	or     %rax,%r11
   1f18a:	4c 89 5d 00          	mov    %r11,0x0(%rbp)
   1f18e:	33 d2                	xor    %edx,%edx
   1f190:	48 8d 4c 24 20       	lea    0x20(%rsp),%rcx
   1f195:	44 8d 42 13          	lea    0x13(%rdx),%r8d
   1f199:	e8 f2 16 00 00       	callq  0x20890
   1f19e:	33 d2                	xor    %edx,%edx
   1f1a0:	48 8d 4c 24 40       	lea    0x40(%rsp),%rcx
   1f1a5:	44 8d 42 4e          	lea    0x4e(%rdx),%r8d
   1f1a9:	e8 e2 16 00 00       	callq  0x20890
   1f1ae:	4c 8d 9c 24 90 00 00 	lea    0x90(%rsp),%r11
   1f1b5:	00 
   1f1b6:	40 8a c6             	mov    %sil,%al
   1f1b9:	49 8b 5b 10          	mov    0x10(%r11),%rbx
   1f1bd:	49 8b 6b 18          	mov    0x18(%r11),%rbp
   1f1c1:	49 8b 73 20          	mov    0x20(%r11),%rsi
   1f1c5:	49 8b e3             	mov    %r11,%rsp
   1f1c8:	5f                   	pop    %rdi
   1f1c9:	c3                   	retq   
   1f1ca:	cc                   	int3   
   1f1cb:	cc                   	int3   
   1f1cc:	cc                   	int3   
   1f1cd:	cc                   	int3   
   1f1ce:	cc                   	int3   
   1f1cf:	cc                   	int3   
   1f1d0:	48 89 5c 24 08       	mov    %rbx,0x8(%rsp)
   1f1d5:	48 89 74 24 18       	mov    %rsi,0x18(%rsp)
   1f1da:	57                   	push   %rdi
   1f1db:	48 83 ec 40          	sub    $0x40,%rsp
   1f1df:	48 8b f1             	mov    %rcx,%rsi
   1f1e2:	48 83 64 24 30 00    	andq   $0x0,0x30(%rsp)
   1f1e8:	bf 00 f0 01 00       	mov    $0x1f000,%edi
   1f1ed:	48 8b d7             	mov    %rdi,%rdx
   1f1f0:	33 c9                	xor    %ecx,%ecx
   1f1f2:	ff 15 d0 2e 00 00    	callq  *0x2ed0(%rip)        # 0x220c8
   1f1f8:	48 8b d8             	mov    %rax,%rbx
   1f1fb:	48 89 44 24 30       	mov    %rax,0x30(%rsp)
   1f200:	48 85 c0             	test   %rax,%rax
   1f203:	75 07                	jne    0x1f20c
   1f205:	bf 9a 00 00 c0       	mov    $0xc000009a,%edi
   1f20a:	eb 6b                	jmp    0x1f277
   1f20c:	48 8d 44 24 58       	lea    0x58(%rsp),%rax
   1f211:	48 89 44 24 28       	mov    %rax,0x28(%rsp)
   1f216:	c7 44 24 20 a6 9b 00 	movl   $0x9ba6,0x20(%rsp)
   1f21d:	00 
   1f21e:	4c 8d 0d db 0d 01 00 	lea    0x10ddb(%rip),%r9        # 0x30000
   1f225:	44 8b c7             	mov    %edi,%r8d
   1f228:	48 8b d3             	mov    %rbx,%rdx
   1f22b:	66 b9 02 00          	mov    $0x2,%cx
   1f22f:	e8 b2 18 00 00       	callq  0x20ae6
   1f234:	8b f8                	mov    %eax,%edi
   1f236:	85 c0                	test   %eax,%eax
   1f238:	78 3d                	js     0x1f277
   1f23a:	8b 54 24 58          	mov    0x58(%rsp),%edx
   1f23e:	48 8b cb             	mov    %rbx,%rcx
   1f241:	e8 62 d4 ff ff       	callq  0x1c6a8
   1f246:	48 85 c0             	test   %rax,%rax
   1f249:	75 07                	jne    0x1f252
   1f24b:	bf 7b 00 00 c0       	mov    $0xc000007b,%edi
   1f250:	eb 25                	jmp    0x1f277
   1f252:	8b 50 28             	mov    0x28(%rax),%edx
   1f255:	48 8b cb             	mov    %rbx,%rcx
   1f258:	e8 e3 d1 ff ff       	callq  0x1c440
   1f25d:	83 f8 ff             	cmp    $0xffffffff,%eax
   1f260:	72 07                	jb     0x1f269
   1f262:	bf 38 01 00 c0       	mov    $0xc0000138,%edi
   1f267:	eb 0e                	jmp    0x1f277
   1f269:	8b c0                	mov    %eax,%eax
   1f26b:	48 03 c3             	add    %rbx,%rax
   1f26e:	48 8b d6             	mov    %rsi,%rdx
   1f271:	33 c9                	xor    %ecx,%ecx
   1f273:	ff d0                	callq  *%rax
   1f275:	8b f8                	mov    %eax,%edi
   1f277:	48 85 db             	test   %rbx,%rbx
   1f27a:	74 0b                	je     0x1f287
   1f27c:	33 d2                	xor    %edx,%edx
   1f27e:	48 8b cb             	mov    %rbx,%rcx
   1f281:	ff 15 81 2d 00 00    	callq  *0x2d81(%rip)        # 0x22008
   1f287:	8b c7                	mov    %edi,%eax
   1f289:	48 8b 5c 24 50       	mov    0x50(%rsp),%rbx
   1f28e:	48 8b 74 24 60       	mov    0x60(%rsp),%rsi
   1f293:	48 83 c4 40          	add    $0x40,%rsp
   1f297:	5f                   	pop    %rdi
   1f298:	c3                   	retq   
   1f299:	cc                   	int3   
   1f29a:	cc                   	int3   
   1f29b:	cc                   	int3   
   1f29c:	cc                   	int3   
   1f29d:	cc                   	int3   
   1f29e:	cc                   	int3   
   1f29f:	cc                   	int3   
   1f2a0:	40 55                	rex push %rbp
   1f2a2:	48 83 ec 30          	sub    $0x30,%rsp
   1f2a6:	48 8b ea             	mov    %rdx,%rbp
   1f2a9:	48 8b 4d 30          	mov    0x30(%rbp),%rcx
   1f2ad:	48 85 c9             	test   %rcx,%rcx
   1f2b0:	74 08                	je     0x1f2ba
   1f2b2:	33 d2                	xor    %edx,%edx
   1f2b4:	ff 15 4e 2d 00 00    	callq  *0x2d4e(%rip)        # 0x22008
   1f2ba:	48 83 c4 30          	add    $0x30,%rsp
   1f2be:	5d                   	pop    %rbp
   1f2bf:	c3                   	retq   
   1f2c0:	cc                   	int3   
   1f2c1:	cc                   	int3   
   1f2c2:	cc                   	int3   
   1f2c3:	cc                   	int3   
   1f2c4:	cc                   	int3   
   1f2c5:	cc                   	int3   
   1f2c6:	cc                   	int3   
   1f2c7:	cc                   	int3   
   1f2c8:	48 89 5c 24 08       	mov    %rbx,0x8(%rsp)
   1f2cd:	48 89 74 24 10       	mov    %rsi,0x10(%rsp)
   1f2d2:	57                   	push   %rdi
   1f2d3:	48 83 ec 20          	sub    $0x20,%rsp
   1f2d7:	48 8b f2             	mov    %rdx,%rsi
   1f2da:	48 8b d9             	mov    %rcx,%rbx
   1f2dd:	66 ba 5c 00          	mov    $0x5c,%dx
   1f2e1:	48 8b 4e 08          	mov    0x8(%rsi),%rcx
   1f2e5:	e8 88 15 00 00       	callq  0x20872
   1f2ea:	33 ff                	xor    %edi,%edi
   1f2ec:	48 8b cb             	mov    %rbx,%rcx
   1f2ef:	48 3b c7             	cmp    %rdi,%rax
   1f2f2:	48 8b d0             	mov    %rax,%rdx
   1f2f5:	75 04                	jne    0x1f2fb
   1f2f7:	48 8b 56 08          	mov    0x8(%rsi),%rdx
   1f2fb:	e8 fe 17 00 00       	callq  0x20afe
   1f300:	48 8b cb             	mov    %rbx,%rcx
   1f303:	e8 d2 17 00 00       	callq  0x20ada
   1f308:	48 63 f0             	movslq %eax,%rsi
   1f30b:	48 3b f7             	cmp    %rdi,%rsi
   1f30e:	7e 16                	jle    0x1f326
   1f310:	0f b7 0c 7b          	movzwl (%rbx,%rdi,2),%ecx
   1f314:	e8 d9 17 00 00       	callq  0x20af2
   1f319:	66 89 04 7b          	mov    %ax,(%rbx,%rdi,2)
   1f31d:	48 83 c7 01          	add    $0x1,%rdi
   1f321:	48 3b fe             	cmp    %rsi,%rdi
   1f324:	7c ea                	jl     0x1f310
   1f326:	8b 0d b4 f0 00 00    	mov    0xf0b4(%rip),%ecx        # 0x2e3e0
   1f32c:	48 8b d3             	mov    %rbx,%rdx
   1f32f:	48 8b 5c 24 30       	mov    0x30(%rsp),%rbx
   1f334:	48 8b 74 24 38       	mov    0x38(%rsp),%rsi
   1f339:	48 83 c4 20          	add    $0x20,%rsp
   1f33d:	5f                   	pop    %rdi
   1f33e:	e9 89 cc ff ff       	jmpq   0x1bfcc
   1f343:	cc                   	int3   
   1f344:	cc                   	int3   
   1f345:	cc                   	int3   
   1f346:	cc                   	int3   
   1f347:	cc                   	int3   
   1f348:	cc                   	int3   
   1f349:	cc                   	int3   
   1f34a:	cc                   	int3   
   1f34b:	cc                   	int3   
   1f34c:	48 8b c4             	mov    %rsp,%rax
   1f34f:	56                   	push   %rsi
   1f350:	57                   	push   %rdi
   1f351:	41 54                	push   %r12
   1f353:	48 81 ec a0 00 00 00 	sub    $0xa0,%rsp
   1f35a:	48 8b f9             	mov    %rcx,%rdi
   1f35d:	48 83 60 20 00       	andq   $0x0,0x20(%rax)
   1f362:	ba 08 02 00 00       	mov    $0x208,%edx
   1f367:	b9 01 00 00 00       	mov    $0x1,%ecx
   1f36c:	ff 15 56 2d 00 00    	callq  *0x2d56(%rip)        # 0x220c8
   1f372:	4c 8b e0             	mov    %rax,%r12
   1f375:	48 89 44 24 58       	mov    %rax,0x58(%rsp)
   1f37a:	ba 30 04 00 00       	mov    $0x430,%edx
   1f37f:	b9 01 00 00 00       	mov    $0x1,%ecx
   1f384:	ff 15 3e 2d 00 00    	callq  *0x2d3e(%rip)        # 0x220c8
   1f38a:	48 8b f0             	mov    %rax,%rsi
   1f38d:	48 89 44 24 50       	mov    %rax,0x50(%rsp)
   1f392:	83 a4 24 c8 00 00 00 	andl   $0x0,0xc8(%rsp)
   1f399:	00 
   1f39a:	48 85 c0             	test   %rax,%rax
   1f39d:	0f 84 81 01 00 00    	je     0x1f524
   1f3a3:	4d 85 e4             	test   %r12,%r12
   1f3a6:	0f 84 78 01 00 00    	je     0x1f524
   1f3ac:	48 8b d7             	mov    %rdi,%rdx
   1f3af:	48 8d 4c 24 60       	lea    0x60(%rsp),%rcx
   1f3b4:	ff 15 5e 2c 00 00    	callq  *0x2c5e(%rip)        # 0x22018
   1f3ba:	c7 44 24 70 30 00 00 	movl   $0x30,0x70(%rsp)
   1f3c1:	00 
   1f3c2:	48 83 64 24 78 00    	andq   $0x0,0x78(%rsp)
   1f3c8:	c7 84 24 88 00 00 00 	movl   $0x42,0x88(%rsp)
   1f3cf:	42 00 00 00 
   1f3d3:	48 8d 44 24 60       	lea    0x60(%rsp),%rax
   1f3d8:	48 89 84 24 80 00 00 	mov    %rax,0x80(%rsp)
   1f3df:	00 
   1f3e0:	48 83 a4 24 90 00 00 	andq   $0x0,0x90(%rsp)
   1f3e7:	00 00 
   1f3e9:	48 83 a4 24 98 00 00 	andq   $0x0,0x98(%rsp)
   1f3f0:	00 00 
   1f3f2:	4c 8d 44 24 70       	lea    0x70(%rsp),%r8
   1f3f7:	ba 02 00 00 00       	mov    $0x2,%edx
   1f3fc:	48 8d 8c 24 d8 00 00 	lea    0xd8(%rsp),%rcx
   1f403:	00 
   1f404:	ff 15 4e 2e 00 00    	callq  *0x2e4e(%rip)        # 0x22258
   1f40a:	8b f8                	mov    %eax,%edi
   1f40c:	89 44 24 40          	mov    %eax,0x40(%rsp)
   1f410:	3d 34 00 00 c0       	cmp    $0xc0000034,%eax
   1f415:	0f 84 12 01 00 00    	je     0x1f52d
   1f41b:	85 c0                	test   %eax,%eax
   1f41d:	0f 88 0a 01 00 00    	js     0x1f52d
   1f423:	48 8d 84 24 d0 00 00 	lea    0xd0(%rsp),%rax
   1f42a:	00 
   1f42b:	48 89 44 24 30       	mov    %rax,0x30(%rsp)
   1f430:	48 8d 84 24 c8 00 00 	lea    0xc8(%rsp),%rax
   1f437:	00 
   1f438:	48 89 44 24 28       	mov    %rax,0x28(%rsp)
   1f43d:	c6 44 24 20 01       	movb   $0x1,0x20(%rsp)
   1f442:	41 b1 01             	mov    $0x1,%r9b
   1f445:	41 b8 30 04 00 00    	mov    $0x430,%r8d
   1f44b:	48 8b d6             	mov    %rsi,%rdx
   1f44e:	48 8b 8c 24 d8 00 00 	mov    0xd8(%rsp),%rcx
   1f455:	00 
   1f456:	ff 15 f4 2d 00 00    	callq  *0x2df4(%rip)        # 0x22250
   1f45c:	8b f8                	mov    %eax,%edi
   1f45e:	89 44 24 40          	mov    %eax,0x40(%rsp)
   1f462:	85 ff                	test   %edi,%edi
   1f464:	0f 85 c3 00 00 00    	jne    0x1f52d
   1f46a:	66 81 3e 08 02       	cmpw   $0x208,(%rsi)
   1f46f:	73 6f                	jae    0x1f4e0
   1f471:	44 0f b7 06          	movzwl (%rsi),%r8d
   1f475:	48 8b 56 08          	mov    0x8(%rsi),%rdx
   1f479:	49 8b cc             	mov    %r12,%rcx
   1f47c:	e8 9f 10 00 00       	callq  0x20520
   1f481:	44 0f b7 1e          	movzwl (%rsi),%r11d
   1f485:	66 43 21 3c 23       	and    %di,(%r11,%r12,1)
   1f48a:	48 b8 be 88 60 15 ef 	movabs $0x43da5cef156088be,%rax
   1f491:	5c da 43 
   1f494:	48 8b 0d 3d ef 00 00 	mov    0xef3d(%rip),%rcx        # 0x2e3d8
   1f49b:	48 33 c8             	xor    %rax,%rcx
   1f49e:	4c 8d 44 24 48       	lea    0x48(%rsp),%r8
   1f4a3:	49 8b d4             	mov    %r12,%rdx
   1f4a6:	e8 e1 fb ff ff       	callq  0x1f08c
   1f4ab:	84 c0                	test   %al,%al
   1f4ad:	74 31                	je     0x1f4e0
   1f4af:	48 8b 4c 24 48       	mov    0x48(%rsp),%rcx
   1f4b4:	48 89 0d 2d ef 00 00 	mov    %rcx,0xef2d(%rip)        # 0x2e3e8
   1f4bb:	ff 15 5f 2c 00 00    	callq  *0x2c5f(%rip)        # 0x22120
   1f4c1:	84 c0                	test   %al,%al
   1f4c3:	74 13                	je     0x1f4d8
   1f4c5:	48 8b 0d 0c ef 00 00 	mov    0xef0c(%rip),%rcx        # 0x2e3d8
   1f4cc:	48 8b 05 15 ef 00 00 	mov    0xef15(%rip),%rax        # 0x2e3e8
   1f4d3:	48 39 08             	cmp    %rcx,(%rax)
   1f4d6:	74 55                	je     0x1f52d
   1f4d8:	48 83 25 08 ef 00 00 	andq   $0x0,0xef08(%rip)        # 0x2e3e8
   1f4df:	00 
   1f4e0:	48 8d 84 24 d0 00 00 	lea    0xd0(%rsp),%rax
   1f4e7:	00 
   1f4e8:	48 89 44 24 30       	mov    %rax,0x30(%rsp)
   1f4ed:	48 8d 84 24 c8 00 00 	lea    0xc8(%rsp),%rax
   1f4f4:	00 
   1f4f5:	48 89 44 24 28       	mov    %rax,0x28(%rsp)
   1f4fa:	c6 44 24 20 00       	movb   $0x0,0x20(%rsp)
   1f4ff:	41 b1 01             	mov    $0x1,%r9b
   1f502:	41 b8 30 04 00 00    	mov    $0x430,%r8d
   1f508:	48 8b d6             	mov    %rsi,%rdx
   1f50b:	48 8b 8c 24 d8 00 00 	mov    0xd8(%rsp),%rcx
   1f512:	00 
   1f513:	ff 15 37 2d 00 00    	callq  *0x2d37(%rip)        # 0x22250
   1f519:	8b f8                	mov    %eax,%edi
   1f51b:	89 44 24 40          	mov    %eax,0x40(%rsp)
   1f51f:	e9 3e ff ff ff       	jmpq   0x1f462
   1f524:	bf 9a 00 00 c0       	mov    $0xc000009a,%edi
   1f529:	89 7c 24 40          	mov    %edi,0x40(%rsp)
   1f52d:	48 8b 8c 24 d8 00 00 	mov    0xd8(%rsp),%rcx
   1f534:	00 
   1f535:	48 85 c9             	test   %rcx,%rcx
   1f538:	74 06                	je     0x1f540
   1f53a:	ff 15 90 2b 00 00    	callq  *0x2b90(%rip)        # 0x220d0
   1f540:	48 85 f6             	test   %rsi,%rsi
   1f543:	74 0b                	je     0x1f550
   1f545:	33 d2                	xor    %edx,%edx
   1f547:	48 8b ce             	mov    %rsi,%rcx
   1f54a:	ff 15 b8 2a 00 00    	callq  *0x2ab8(%rip)        # 0x22008
   1f550:	4d 85 e4             	test   %r12,%r12
   1f553:	74 0b                	je     0x1f560
   1f555:	33 d2                	xor    %edx,%edx
   1f557:	49 8b cc             	mov    %r12,%rcx
   1f55a:	ff 15 a8 2a 00 00    	callq  *0x2aa8(%rip)        # 0x22008
   1f560:	8b c7                	mov    %edi,%eax
   1f562:	48 81 c4 a0 00 00 00 	add    $0xa0,%rsp
   1f569:	41 5c                	pop    %r12
   1f56b:	5f                   	pop    %rdi
   1f56c:	5e                   	pop    %rsi
   1f56d:	c3                   	retq   
   1f56e:	cc                   	int3   
   1f56f:	cc                   	int3   
   1f570:	cc                   	int3   
   1f571:	cc                   	int3   
   1f572:	cc                   	int3   
   1f573:	cc                   	int3   
   1f574:	cc                   	int3   
   1f575:	cc                   	int3   
   1f576:	cc                   	int3   
   1f577:	cc                   	int3   
   1f578:	cc                   	int3   
   1f579:	cc                   	int3   
   1f57a:	cc                   	int3   
   1f57b:	cc                   	int3   
   1f57c:	40 55                	rex push %rbp
   1f57e:	48 83 ec 40          	sub    $0x40,%rsp
   1f582:	48 8b ea             	mov    %rdx,%rbp
   1f585:	48 8b 8d d8 00 00 00 	mov    0xd8(%rbp),%rcx
   1f58c:	48 85 c9             	test   %rcx,%rcx
   1f58f:	74 06                	je     0x1f597
   1f591:	ff 15 39 2b 00 00    	callq  *0x2b39(%rip)        # 0x220d0
   1f597:	48 8b 4d 50          	mov    0x50(%rbp),%rcx
   1f59b:	48 85 c9             	test   %rcx,%rcx
   1f59e:	74 08                	je     0x1f5a8
   1f5a0:	33 d2                	xor    %edx,%edx
   1f5a2:	ff 15 60 2a 00 00    	callq  *0x2a60(%rip)        # 0x22008
   1f5a8:	48 8b 4d 58          	mov    0x58(%rbp),%rcx
   1f5ac:	48 85 c9             	test   %rcx,%rcx
   1f5af:	74 08                	je     0x1f5b9
   1f5b1:	33 d2                	xor    %edx,%edx
   1f5b3:	ff 15 4f 2a 00 00    	callq  *0x2a4f(%rip)        # 0x22008
   1f5b9:	48 83 c4 40          	add    $0x40,%rsp
   1f5bd:	5d                   	pop    %rbp
   1f5be:	c3                   	retq   
   1f5bf:	cc                   	int3   
   1f5c0:	cc                   	int3   
   1f5c1:	cc                   	int3   
   1f5c2:	cc                   	int3   
   1f5c3:	cc                   	int3   
   1f5c4:	cc                   	int3   
   1f5c5:	cc                   	int3   
   1f5c6:	cc                   	int3   
   1f5c7:	cc                   	int3   
   1f5c8:	48 89 5c 24 08       	mov    %rbx,0x8(%rsp)
   1f5cd:	57                   	push   %rdi
   1f5ce:	48 83 ec 50          	sub    $0x50,%rsp
   1f5d2:	bf 01 00 00 c0       	mov    $0xc0000001,%edi
   1f5d7:	bb 60 ea 00 00       	mov    $0xea60,%ebx
   1f5dc:	89 5c 24 24          	mov    %ebx,0x24(%rsp)
   1f5e0:	85 db                	test   %ebx,%ebx
   1f5e2:	7e 76                	jle    0x1f65a
   1f5e4:	48 8d 4c 24 28       	lea    0x28(%rsp),%rcx
   1f5e9:	48 8d 15 78 cb 00 00 	lea    0xcb78(%rip),%rdx        # 0x2c168
   1f5f0:	41 b8 24 00 00 00    	mov    $0x24,%r8d
   1f5f6:	e8 25 0f 00 00       	callq  0x20520
   1f5fb:	48 8d 54 24 28       	lea    0x28(%rsp),%rdx
   1f600:	b9 f8 f2 32 00       	mov    $0x32f2f8,%ecx
   1f605:	e8 c2 c9 ff ff       	callq  0x1bfcc
   1f60a:	48 8d 4c 24 28       	lea    0x28(%rsp),%rcx
   1f60f:	e8 38 fd ff ff       	callq  0x1f34c
   1f614:	8b f8                	mov    %eax,%edi
   1f616:	89 44 24 20          	mov    %eax,0x20(%rsp)
   1f61a:	33 d2                	xor    %edx,%edx
   1f61c:	44 8d 42 24          	lea    0x24(%rdx),%r8d
   1f620:	48 8d 4c 24 28       	lea    0x28(%rsp),%rcx
   1f625:	e8 66 12 00 00       	callq  0x20890
   1f62a:	85 ff                	test   %edi,%edi
   1f62c:	79 2c                	jns    0x1f65a
   1f62e:	48 8d 0d bb cc 00 00 	lea    0xccbb(%rip),%rcx        # 0x2c2f0
   1f635:	e8 12 fd ff ff       	callq  0x1f34c
   1f63a:	8b f8                	mov    %eax,%edi
   1f63c:	89 44 24 20          	mov    %eax,0x20(%rsp)
   1f640:	85 c0                	test   %eax,%eax
   1f642:	79 16                	jns    0x1f65a
   1f644:	81 eb fa 00 00 00    	sub    $0xfa,%ebx
   1f64a:	89 5c 24 24          	mov    %ebx,0x24(%rsp)
   1f64e:	b9 fa 00 00 00       	mov    $0xfa,%ecx
   1f653:	e8 ec 73 ff ff       	callq  0x16a44
   1f658:	eb 86                	jmp    0x1f5e0
   1f65a:	8b c7                	mov    %edi,%eax
   1f65c:	48 8b 5c 24 60       	mov    0x60(%rsp),%rbx
   1f661:	48 83 c4 50          	add    $0x50,%rsp
   1f665:	5f                   	pop    %rdi
   1f666:	c3                   	retq   
   1f667:	cc                   	int3   
   1f668:	40 55                	rex push %rbp
   1f66a:	48 83 ec 20          	sub    $0x20,%rsp
   1f66e:	48 8b ea             	mov    %rdx,%rbp
   1f671:	48 83 c4 20          	add    $0x20,%rsp
   1f675:	5d                   	pop    %rbp
   1f676:	c3                   	retq   
   1f677:	cc                   	int3   
   1f678:	cc                   	int3   
   1f679:	cc                   	int3   
   1f67a:	cc                   	int3   
   1f67b:	cc                   	int3   
   1f67c:	cc                   	int3   
   1f67d:	cc                   	int3   
   1f67e:	cc                   	int3   
   1f67f:	cc                   	int3   
   1f680:	48 8b c4             	mov    %rsp,%rax
   1f683:	48 89 58 08          	mov    %rbx,0x8(%rax)
   1f687:	48 89 70 18          	mov    %rsi,0x18(%rax)
   1f68b:	88 50 10             	mov    %dl,0x10(%rax)
   1f68e:	57                   	push   %rdi
   1f68f:	48 83 ec 30          	sub    $0x30,%rsp
   1f693:	40 8a fa             	mov    %dl,%dil
   1f696:	48 8b f1             	mov    %rcx,%rsi
   1f699:	bb 57 00 47 c0       	mov    $0xc0470057,%ebx
   1f69e:	89 58 e8             	mov    %ebx,-0x18(%rax)
   1f6a1:	48 8b 0d 40 ed 00 00 	mov    0xed40(%rip),%rcx        # 0x2e3e8
   1f6a8:	48 85 c9             	test   %rcx,%rcx
   1f6ab:	74 37                	je     0x1f6e4
   1f6ad:	48 83 c1 08          	add    $0x8,%rcx
   1f6b1:	ff 15 41 2b 00 00    	callq  *0x2b41(%rip)        # 0x221f8
   1f6b7:	48 8b ce             	mov    %rsi,%rcx
   1f6ba:	48 8b 05 27 ed 00 00 	mov    0xed27(%rip),%rax        # 0x2e3e8
   1f6c1:	ff 50 40             	callq  *0x40(%rax)
   1f6c4:	8b d8                	mov    %eax,%ebx
   1f6c6:	89 44 24 20          	mov    %eax,0x20(%rsp)
   1f6ca:	40 84 ff             	test   %dil,%dil
   1f6cd:	74 04                	je     0x1f6d3
   1f6cf:	85 c0                	test   %eax,%eax
   1f6d1:	79 11                	jns    0x1f6e4
   1f6d3:	48 8b 0d 0e ed 00 00 	mov    0xed0e(%rip),%rcx        # 0x2e3e8
   1f6da:	48 83 c1 08          	add    $0x8,%rcx
   1f6de:	ff 15 0c 2b 00 00    	callq  *0x2b0c(%rip)        # 0x221f0
   1f6e4:	8b c3                	mov    %ebx,%eax
   1f6e6:	48 8b 5c 24 40       	mov    0x40(%rsp),%rbx
   1f6eb:	48 8b 74 24 50       	mov    0x50(%rsp),%rsi
   1f6f0:	48 83 c4 30          	add    $0x30,%rsp
   1f6f4:	5f                   	pop    %rdi
   1f6f5:	c3                   	retq   
   1f6f6:	cc                   	int3   
   1f6f7:	cc                   	int3   
   1f6f8:	cc                   	int3   
   1f6f9:	cc                   	int3   
   1f6fa:	cc                   	int3   
   1f6fb:	cc                   	int3   
   1f6fc:	cc                   	int3   
   1f6fd:	cc                   	int3   
   1f6fe:	cc                   	int3   
   1f6ff:	cc                   	int3   
   1f700:	40 55                	rex push %rbp
   1f702:	48 83 ec 20          	sub    $0x20,%rsp
   1f706:	48 8b ea             	mov    %rdx,%rbp
   1f709:	80 7d 48 00          	cmpb   $0x0,0x48(%rbp)
   1f70d:	74 06                	je     0x1f715
   1f70f:	83 7d 20 00          	cmpl   $0x0,0x20(%rbp)
   1f713:	7d 11                	jge    0x1f726
   1f715:	48 8b 0d cc ec 00 00 	mov    0xeccc(%rip),%rcx        # 0x2e3e8
   1f71c:	48 83 c1 08          	add    $0x8,%rcx
   1f720:	ff 15 ca 2a 00 00    	callq  *0x2aca(%rip)        # 0x221f0
   1f726:	48 83 c4 20          	add    $0x20,%rsp
   1f72a:	5d                   	pop    %rbp
   1f72b:	c3                   	retq   
   1f72c:	cc                   	int3   
   1f72d:	cc                   	int3   
   1f72e:	cc                   	int3   
   1f72f:	cc                   	int3   
   1f730:	cc                   	int3   
   1f731:	cc                   	int3   
   1f732:	cc                   	int3   
   1f733:	cc                   	int3   
   1f734:	48 8b c4             	mov    %rsp,%rax
   1f737:	48 89 70 10          	mov    %rsi,0x10(%rax)
   1f73b:	57                   	push   %rdi
   1f73c:	41 54                	push   %r12
   1f73e:	41 55                	push   %r13
   1f740:	41 56                	push   %r14
   1f742:	41 57                	push   %r15
   1f744:	48 83 ec 70          	sub    $0x70,%rsp
   1f748:	4c 8b ea             	mov    %rdx,%r13
   1f74b:	4c 8b e1             	mov    %rcx,%r12
   1f74e:	c7 40 98 01 00 00 c0 	movl   $0xc0000001,-0x68(%rax)
   1f755:	48 83 60 08 00       	andq   $0x0,0x8(%rax)
   1f75a:	48 83 60 18 00       	andq   $0x0,0x18(%rax)
   1f75f:	33 f6                	xor    %esi,%esi
   1f761:	48 89 b4 24 b8 00 00 	mov    %rsi,0xb8(%rsp)
   1f768:	00 
   1f769:	48 85 c9             	test   %rcx,%rcx
   1f76c:	0f 84 94 00 00 00    	je     0x1f806
   1f772:	66 39 31             	cmp    %si,(%rcx)
   1f775:	0f 84 8b 00 00 00    	je     0x1f806
   1f77b:	0f b7 39             	movzwl (%rcx),%edi
   1f77e:	8b cf                	mov    %edi,%ecx
   1f780:	d1 e9                	shr    %ecx
   1f782:	83 e9 01             	sub    $0x1,%ecx
   1f785:	48 63 c1             	movslq %ecx,%rax
   1f788:	85 c9                	test   %ecx,%ecx
   1f78a:	7e 7a                	jle    0x1f806
   1f78c:	4d 8b 44 24 08       	mov    0x8(%r12),%r8
   1f791:	49 8d 14 40          	lea    (%r8,%rax,2),%rdx
   1f795:	66 83 3a 5c          	cmpw   $0x5c,(%rdx)
   1f799:	74 12                	je     0x1f7ad
   1f79b:	83 e9 01             	sub    $0x1,%ecx
   1f79e:	48 83 e8 01          	sub    $0x1,%rax
   1f7a2:	48 83 ea 02          	sub    $0x2,%rdx
   1f7a6:	48 85 c0             	test   %rax,%rax
   1f7a9:	7f ea                	jg     0x1f795
   1f7ab:	eb 59                	jmp    0x1f806
   1f7ad:	8d 04 09             	lea    (%rcx,%rcx,1),%eax
   1f7b0:	2b f8                	sub    %eax,%edi
   1f7b2:	48 63 c1             	movslq %ecx,%rax
   1f7b5:	4d 8d 3c 40          	lea    (%r8,%rax,2),%r15
   1f7b9:	44 8b f7             	mov    %edi,%r14d
   1f7bc:	48 8d 57 12          	lea    0x12(%rdi),%rdx
   1f7c0:	b9 01 00 00 00       	mov    $0x1,%ecx
   1f7c5:	ff 15 fd 28 00 00    	callq  *0x28fd(%rip)        # 0x220c8
   1f7cb:	48 8b f0             	mov    %rax,%rsi
   1f7ce:	48 85 c0             	test   %rax,%rax
   1f7d1:	74 2b                	je     0x1f7fe
   1f7d3:	48 8d 48 10          	lea    0x10(%rax),%rcx
   1f7d7:	48 89 48 08          	mov    %rcx,0x8(%rax)
   1f7db:	4d 8b c6             	mov    %r14,%r8
   1f7de:	49 8b d7             	mov    %r15,%rdx
   1f7e1:	e8 3a 0d 00 00       	callq  0x20520
   1f7e6:	49 d1 ee             	shr    %r14
   1f7e9:	48 8b 46 08          	mov    0x8(%rsi),%rax
   1f7ed:	66 42 83 24 70 00    	andw   $0x0,(%rax,%r14,2)
   1f7f3:	66 89 3e             	mov    %di,(%rsi)
   1f7f6:	66 83 c7 02          	add    $0x2,%di
   1f7fa:	66 89 7e 02          	mov    %di,0x2(%rsi)
   1f7fe:	48 89 b4 24 b8 00 00 	mov    %rsi,0xb8(%rsp)
   1f805:	00 
   1f806:	48 85 f6             	test   %rsi,%rsi
   1f809:	0f 84 dc 00 00 00    	je     0x1f8eb
   1f80f:	4d 85 ed             	test   %r13,%r13
   1f812:	0f 84 d3 00 00 00    	je     0x1f8eb
   1f818:	4d 85 e4             	test   %r12,%r12
   1f81b:	0f 84 ca 00 00 00    	je     0x1f8eb
   1f821:	41 be 30 00 00 00    	mov    $0x30,%r14d
   1f827:	44 89 74 24 38       	mov    %r14d,0x38(%rsp)
   1f82c:	48 83 64 24 40 00    	andq   $0x0,0x40(%rsp)
   1f832:	c7 44 24 50 42 02 00 	movl   $0x242,0x50(%rsp)
   1f839:	00 
   1f83a:	48 89 74 24 48       	mov    %rsi,0x48(%rsp)
   1f83f:	48 83 64 24 58 00    	andq   $0x0,0x58(%rsp)
   1f845:	48 83 64 24 60 00    	andq   $0x0,0x60(%rsp)
   1f84b:	c6 44 24 20 00       	movb   $0x0,0x20(%rsp)
   1f850:	45 8d 4e d1          	lea    -0x2f(%r14),%r9d
   1f854:	4c 8d 44 24 38       	lea    0x38(%rsp),%r8
   1f859:	41 bf 03 00 1f 00    	mov    $0x1f0003,%r15d
   1f85f:	41 8b d7             	mov    %r15d,%edx
   1f862:	48 8d 8c 24 a0 00 00 	lea    0xa0(%rsp),%rcx
   1f869:	00 
   1f86a:	ff 15 f0 29 00 00    	callq  *0x29f0(%rip)        # 0x22260
   1f870:	8b f8                	mov    %eax,%edi
   1f872:	89 44 24 30          	mov    %eax,0x30(%rsp)
   1f876:	85 c0                	test   %eax,%eax
   1f878:	78 7a                	js     0x1f8f4
   1f87a:	44 89 74 24 38       	mov    %r14d,0x38(%rsp)
   1f87f:	48 83 64 24 40 00    	andq   $0x0,0x40(%rsp)
   1f885:	c7 44 24 50 42 00 00 	movl   $0x42,0x50(%rsp)
   1f88c:	00 
   1f88d:	4c 89 64 24 48       	mov    %r12,0x48(%rsp)
   1f892:	48 83 64 24 58 00    	andq   $0x0,0x58(%rsp)
   1f898:	48 83 64 24 60 00    	andq   $0x0,0x60(%rsp)
   1f89e:	c6 44 24 20 00       	movb   $0x0,0x20(%rsp)
   1f8a3:	45 8d 4e d1          	lea    -0x2f(%r14),%r9d
   1f8a7:	4c 8d 44 24 38       	lea    0x38(%rsp),%r8
   1f8ac:	41 8b d7             	mov    %r15d,%edx
   1f8af:	48 8d 8c 24 b0 00 00 	lea    0xb0(%rsp),%rcx
   1f8b6:	00 
   1f8b7:	ff 15 a3 29 00 00    	callq  *0x29a3(%rip)        # 0x22260
   1f8bd:	8b f8                	mov    %eax,%edi
   1f8bf:	89 44 24 30          	mov    %eax,0x30(%rsp)
   1f8c3:	3d 35 00 00 c0       	cmp    $0xc0000035,%eax
   1f8c8:	74 2a                	je     0x1f8f4
   1f8ca:	3d 3a 00 00 c0       	cmp    $0xc000003a,%eax
   1f8cf:	75 08                	jne    0x1f8d9
   1f8d1:	33 ff                	xor    %edi,%edi
   1f8d3:	89 7c 24 30          	mov    %edi,0x30(%rsp)
   1f8d7:	eb 04                	jmp    0x1f8dd
   1f8d9:	85 c0                	test   %eax,%eax
   1f8db:	78 17                	js     0x1f8f4
   1f8dd:	48 8b 84 24 a0 00 00 	mov    0xa0(%rsp),%rax
   1f8e4:	00 
   1f8e5:	49 89 45 00          	mov    %rax,0x0(%r13)
   1f8e9:	eb 09                	jmp    0x1f8f4
   1f8eb:	bf 0d 00 00 c0       	mov    $0xc000000d,%edi
   1f8f0:	89 7c 24 30          	mov    %edi,0x30(%rsp)
   1f8f4:	48 85 f6             	test   %rsi,%rsi
   1f8f7:	74 1b                	je     0x1f914
   1f8f9:	44 0f b7 46 02       	movzwl 0x2(%rsi),%r8d
   1f8fe:	33 d2                	xor    %edx,%edx
   1f900:	48 8b 4e 08          	mov    0x8(%rsi),%rcx
   1f904:	e8 87 0f 00 00       	callq  0x20890
   1f909:	33 d2                	xor    %edx,%edx
   1f90b:	48 8b ce             	mov    %rsi,%rcx
   1f90e:	ff 15 f4 26 00 00    	callq  *0x26f4(%rip)        # 0x22008
   1f914:	48 8b 8c 24 b0 00 00 	mov    0xb0(%rsp),%rcx
   1f91b:	00 
   1f91c:	48 85 c9             	test   %rcx,%rcx
   1f91f:	74 06                	je     0x1f927
   1f921:	ff 15 a9 27 00 00    	callq  *0x27a9(%rip)        # 0x220d0
   1f927:	85 ff                	test   %edi,%edi
   1f929:	79 13                	jns    0x1f93e
   1f92b:	48 8b 8c 24 a0 00 00 	mov    0xa0(%rsp),%rcx
   1f932:	00 
   1f933:	48 85 c9             	test   %rcx,%rcx
   1f936:	74 06                	je     0x1f93e
   1f938:	ff 15 92 27 00 00    	callq  *0x2792(%rip)        # 0x220d0
   1f93e:	8b c7                	mov    %edi,%eax
   1f940:	48 8b b4 24 a8 00 00 	mov    0xa8(%rsp),%rsi
   1f947:	00 
   1f948:	48 83 c4 70          	add    $0x70,%rsp
   1f94c:	41 5f                	pop    %r15
   1f94e:	41 5e                	pop    %r14
   1f950:	41 5d                	pop    %r13
   1f952:	41 5c                	pop    %r12
   1f954:	5f                   	pop    %rdi
   1f955:	c3                   	retq   
   1f956:	cc                   	int3   
   1f957:	cc                   	int3   
   1f958:	cc                   	int3   
   1f959:	cc                   	int3   
   1f95a:	cc                   	int3   
   1f95b:	cc                   	int3   
   1f95c:	cc                   	int3   
   1f95d:	cc                   	int3   
   1f95e:	cc                   	int3   
   1f95f:	cc                   	int3   
   1f960:	cc                   	int3   
   1f961:	cc                   	int3   
   1f962:	cc                   	int3   
   1f963:	cc                   	int3   
   1f964:	40 55                	rex push %rbp
   1f966:	57                   	push   %rdi
   1f967:	48 83 ec 38          	sub    $0x38,%rsp
   1f96b:	48 8b ea             	mov    %rdx,%rbp
   1f96e:	48 8b bd b8 00 00 00 	mov    0xb8(%rbp),%rdi
   1f975:	48 85 ff             	test   %rdi,%rdi
   1f978:	74 1b                	je     0x1f995
   1f97a:	44 0f b7 47 02       	movzwl 0x2(%rdi),%r8d
   1f97f:	33 d2                	xor    %edx,%edx
   1f981:	48 8b 4f 08          	mov    0x8(%rdi),%rcx
   1f985:	e8 06 0f 00 00       	callq  0x20890
   1f98a:	33 d2                	xor    %edx,%edx
   1f98c:	48 8b cf             	mov    %rdi,%rcx
   1f98f:	ff 15 73 26 00 00    	callq  *0x2673(%rip)        # 0x22008
   1f995:	48 8b 8d b0 00 00 00 	mov    0xb0(%rbp),%rcx
   1f99c:	48 85 c9             	test   %rcx,%rcx
   1f99f:	74 06                	je     0x1f9a7
   1f9a1:	ff 15 29 27 00 00    	callq  *0x2729(%rip)        # 0x220d0
   1f9a7:	83 7d 30 00          	cmpl   $0x0,0x30(%rbp)
   1f9ab:	7d 12                	jge    0x1f9bf
   1f9ad:	48 8b 8d a0 00 00 00 	mov    0xa0(%rbp),%rcx
   1f9b4:	48 85 c9             	test   %rcx,%rcx
   1f9b7:	74 06                	je     0x1f9bf
   1f9b9:	ff 15 11 27 00 00    	callq  *0x2711(%rip)        # 0x220d0
   1f9bf:	48 83 c4 38          	add    $0x38,%rsp
   1f9c3:	5f                   	pop    %rdi
   1f9c4:	5d                   	pop    %rbp
   1f9c5:	c3                   	retq   
   1f9c6:	cc                   	int3   
   1f9c7:	cc                   	int3   
   1f9c8:	cc                   	int3   
   1f9c9:	cc                   	int3   
   1f9ca:	cc                   	int3   
   1f9cb:	cc                   	int3   
   1f9cc:	48 8b c4             	mov    %rsp,%rax
   1f9cf:	48 89 58 08          	mov    %rbx,0x8(%rax)
   1f9d3:	48 89 70 18          	mov    %rsi,0x18(%rax)
   1f9d7:	4c 89 60 20          	mov    %r12,0x20(%rax)
   1f9db:	41 55                	push   %r13
   1f9dd:	48 81 ec 80 00 00 00 	sub    $0x80,%rsp
   1f9e4:	48 8b d9             	mov    %rcx,%rbx
   1f9e7:	c7 40 ac 01 00 00 c0 	movl   $0xc0000001,-0x54(%rax)
   1f9ee:	48 83 60 10 00       	andq   $0x0,0x10(%rax)
   1f9f3:	45 32 e4             	xor    %r12b,%r12b
   1f9f6:	44 88 60 a8          	mov    %r12b,-0x58(%rax)
   1f9fa:	be 38 04 00 00       	mov    $0x438,%esi
   1f9ff:	48 8b d6             	mov    %rsi,%rdx
   1fa02:	b9 01 00 00 00       	mov    $0x1,%ecx
   1fa07:	ff 15 bb 26 00 00    	callq  *0x26bb(%rip)        # 0x220c8
   1fa0d:	48 89 84 24 98 00 00 	mov    %rax,0x98(%rsp)
   1fa14:	00 
   1fa15:	48 85 c0             	test   %rax,%rax
   1fa18:	75 0e                	jne    0x1fa28
   1fa1a:	bb 9a 00 00 c0       	mov    $0xc000009a,%ebx
   1fa1f:	89 5c 24 34          	mov    %ebx,0x34(%rsp)
   1fa23:	e9 c5 01 00 00       	jmpq   0x1fbed
   1fa28:	4c 8b c6             	mov    %rsi,%r8
   1fa2b:	33 d2                	xor    %edx,%edx
   1fa2d:	48 8b c8             	mov    %rax,%rcx
   1fa30:	e8 5b 0e 00 00       	callq  0x20890
   1fa35:	4c 8b 9c 24 98 00 00 	mov    0x98(%rsp),%r11
   1fa3c:	00 
   1fa3d:	41 83 23 00          	andl   $0x0,(%r11)
   1fa41:	48 8b 8c 24 98 00 00 	mov    0x98(%rsp),%rcx
   1fa48:	00 
   1fa49:	4c 8d a9 10 02 00 00 	lea    0x210(%rcx),%r13
   1fa50:	44 0f b7 03          	movzwl (%rbx),%r8d
   1fa54:	48 83 c1 08          	add    $0x8,%rcx
   1fa58:	48 8b 53 08          	mov    0x8(%rbx),%rdx
   1fa5c:	e8 bf 0a 00 00       	callq  0x20520
   1fa61:	41 b8 26 00 00 00    	mov    $0x26,%r8d
   1fa67:	48 8d 15 d2 c6 00 00 	lea    0xc6d2(%rip),%rdx        # 0x2c140
   1fa6e:	49 8b cd             	mov    %r13,%rcx
   1fa71:	e8 aa 0a 00 00       	callq  0x20520
   1fa76:	48 8b 94 24 98 00 00 	mov    0x98(%rsp),%rdx
   1fa7d:	00 
   1fa7e:	48 81 c2 18 04 00 00 	add    $0x418,%rdx
   1fa85:	48 8b cb             	mov    %rbx,%rcx
   1fa88:	e8 a7 fc ff ff       	callq  0x1f734
   1fa8d:	8b d8                	mov    %eax,%ebx
   1fa8f:	89 44 24 34          	mov    %eax,0x34(%rsp)
   1fa93:	85 c0                	test   %eax,%eax
   1fa95:	0f 88 4a 01 00 00    	js     0x1fbe5
   1fa9b:	41 b4 01             	mov    $0x1,%r12b
   1fa9e:	44 88 64 24 30       	mov    %r12b,0x30(%rsp)
   1faa3:	bb 50 00 00 00       	mov    $0x50,%ebx
   1faa8:	48 8b d3             	mov    %rbx,%rdx
   1faab:	33 c9                	xor    %ecx,%ecx
   1faad:	ff 15 15 26 00 00    	callq  *0x2615(%rip)        # 0x220c8
   1fab3:	48 89 05 2e e9 00 00 	mov    %rax,0xe92e(%rip)        # 0x2e3e8
   1faba:	48 85 c0             	test   %rax,%rax
   1fabd:	75 16                	jne    0x1fad5
   1fabf:	bb 9a 00 00 c0       	mov    $0xc000009a,%ebx
   1fac4:	89 5c 24 34          	mov    %ebx,0x34(%rsp)
   1fac8:	48 8b 84 24 98 00 00 	mov    0x98(%rsp),%rax
   1facf:	00 
   1fad0:	e9 18 01 00 00       	jmpq   0x1fbed
   1fad5:	4c 8b c3             	mov    %rbx,%r8
   1fad8:	33 d2                	xor    %edx,%edx
   1fada:	48 8b c8             	mov    %rax,%rcx
   1fadd:	e8 ae 0d 00 00       	callq  0x20890
   1fae2:	4c 8b 9c 24 98 00 00 	mov    0x98(%rsp),%r11
   1fae9:	00 
   1faea:	48 8b 05 e7 e8 00 00 	mov    0xe8e7(%rip),%rax        # 0x2e3d8
   1faf1:	49 89 83 28 04 00 00 	mov    %rax,0x428(%r11)
   1faf8:	48 8b 94 24 98 00 00 	mov    0x98(%rsp),%rdx
   1faff:	00 
   1fb00:	48 8b 05 e1 e8 00 00 	mov    0xe8e1(%rip),%rax        # 0x2e3e8
   1fb07:	48 89 82 30 04 00 00 	mov    %rax,0x430(%rdx)
   1fb0e:	49 8b d5             	mov    %r13,%rdx
   1fb11:	b9 84 2d 0c 00       	mov    $0xc2d84,%ecx
   1fb16:	e8 b1 c4 ff ff       	callq  0x1bfcc
   1fb1b:	48 8d 0d 1e c6 00 00 	lea    0xc61e(%rip),%rcx        # 0x2c140
   1fb22:	e8 b3 0f 00 00       	callq  0x20ada
   1fb27:	4d 8d 44 45 00       	lea    0x0(%r13,%rax,2),%r8
   1fb2c:	48 b8 be 88 60 15 ef 	movabs $0x43da5cef156088be,%rax
   1fb33:	5c da 43 
   1fb36:	48 8b 0d 9b e8 00 00 	mov    0xe89b(%rip),%rcx        # 0x2e3d8
   1fb3d:	48 33 c8             	xor    %rax,%rcx
   1fb40:	48 8b 15 a1 e8 00 00 	mov    0xe8a1(%rip),%rdx        # 0x2e3e8
   1fb47:	e8 d0 f3 ff ff       	callq  0x1ef1c
   1fb4c:	48 8d 0d ed c5 00 00 	lea    0xc5ed(%rip),%rcx        # 0x2c140
   1fb53:	e8 82 0f 00 00       	callq  0x20ada
   1fb58:	49 8d 54 45 fe       	lea    -0x2(%r13,%rax,2),%rdx
   1fb5d:	48 8d 4c 24 38       	lea    0x38(%rsp),%rcx
   1fb62:	ff 15 b0 24 00 00    	callq  *0x24b0(%rip)        # 0x22018
   1fb68:	c7 44 24 48 30 00 00 	movl   $0x30,0x48(%rsp)
   1fb6f:	00 
   1fb70:	48 83 64 24 50 00    	andq   $0x0,0x50(%rsp)
   1fb76:	c7 44 24 60 42 02 00 	movl   $0x242,0x60(%rsp)
   1fb7d:	00 
   1fb7e:	48 8d 44 24 38       	lea    0x38(%rsp),%rax
   1fb83:	48 89 44 24 58       	mov    %rax,0x58(%rsp)
   1fb88:	48 83 64 24 68 00    	andq   $0x0,0x68(%rsp)
   1fb8e:	48 83 64 24 70 00    	andq   $0x0,0x70(%rsp)
   1fb94:	48 8b 8c 24 98 00 00 	mov    0x98(%rsp),%rcx
   1fb9b:	00 
   1fb9c:	48 81 c1 20 04 00 00 	add    $0x420,%rcx
   1fba3:	c6 44 24 20 00       	movb   $0x0,0x20(%rsp)
   1fba8:	41 b9 01 00 00 00    	mov    $0x1,%r9d
   1fbae:	4c 8d 44 24 48       	lea    0x48(%rsp),%r8
   1fbb3:	ba 03 00 1f 00       	mov    $0x1f0003,%edx
   1fbb8:	ff 15 a2 26 00 00    	callq  *0x26a2(%rip)        # 0x22260
   1fbbe:	8b d8                	mov    %eax,%ebx
   1fbc0:	89 44 24 34          	mov    %eax,0x34(%rsp)
   1fbc4:	85 c0                	test   %eax,%eax
   1fbc6:	78 1d                	js     0x1fbe5
   1fbc8:	48 8b 8c 24 98 00 00 	mov    0x98(%rsp),%rcx
   1fbcf:	00 
   1fbd0:	e8 fb f5 ff ff       	callq  0x1f1d0
   1fbd5:	8b d8                	mov    %eax,%ebx
   1fbd7:	89 44 24 34          	mov    %eax,0x34(%rsp)
   1fbdb:	48 8b 84 24 98 00 00 	mov    0x98(%rsp),%rax
   1fbe2:	00 
   1fbe3:	eb 08                	jmp    0x1fbed
   1fbe5:	48 8b 84 24 98 00 00 	mov    0x98(%rsp),%rax
   1fbec:	00 
   1fbed:	85 db                	test   %ebx,%ebx
   1fbef:	79 12                	jns    0x1fc03
   1fbf1:	45 84 e4             	test   %r12b,%r12b
   1fbf4:	74 0d                	je     0x1fc03
   1fbf6:	48 8b 88 18 04 00 00 	mov    0x418(%rax),%rcx
   1fbfd:	ff 15 cd 24 00 00    	callq  *0x24cd(%rip)        # 0x220d0
   1fc03:	48 8b d6             	mov    %rsi,%rdx
   1fc06:	48 8d 8c 24 98 00 00 	lea    0x98(%rsp),%rcx
   1fc0d:	00 
   1fc0e:	e8 59 6c ff ff       	callq  0x1686c
   1fc13:	8b c3                	mov    %ebx,%eax
   1fc15:	4c 8d 9c 24 80 00 00 	lea    0x80(%rsp),%r11
   1fc1c:	00 
   1fc1d:	49 8b 5b 10          	mov    0x10(%r11),%rbx
   1fc21:	49 8b 73 20          	mov    0x20(%r11),%rsi
   1fc25:	4d 8b 63 28          	mov    0x28(%r11),%r12
   1fc29:	49 8b e3             	mov    %r11,%rsp
   1fc2c:	41 5d                	pop    %r13
   1fc2e:	c3                   	retq   
   1fc2f:	cc                   	int3   
   1fc30:	cc                   	int3   
   1fc31:	cc                   	int3   
   1fc32:	cc                   	int3   
   1fc33:	cc                   	int3   
   1fc34:	cc                   	int3   
   1fc35:	cc                   	int3   
   1fc36:	cc                   	int3   
   1fc37:	cc                   	int3   
   1fc38:	cc                   	int3   
   1fc39:	cc                   	int3   
   1fc3a:	cc                   	int3   
   1fc3b:	cc                   	int3   
   1fc3c:	40 55                	rex push %rbp
   1fc3e:	56                   	push   %rsi
   1fc3f:	48 83 ec 38          	sub    $0x38,%rsp
   1fc43:	48 8b ea             	mov    %rdx,%rbp
   1fc46:	83 7d 34 00          	cmpl   $0x0,0x34(%rbp)
   1fc4a:	7d 1a                	jge    0x1fc66
   1fc4c:	80 7d 30 00          	cmpb   $0x0,0x30(%rbp)
   1fc50:	74 14                	je     0x1fc66
   1fc52:	48 8b 8d 98 00 00 00 	mov    0x98(%rbp),%rcx
   1fc59:	48 8b 89 18 04 00 00 	mov    0x418(%rcx),%rcx
   1fc60:	ff 15 6a 24 00 00    	callq  *0x246a(%rip)        # 0x220d0
   1fc66:	ba 38 04 00 00       	mov    $0x438,%edx
   1fc6b:	48 8d 8d 98 00 00 00 	lea    0x98(%rbp),%rcx
   1fc72:	e8 f5 6b ff ff       	callq  0x1686c
   1fc77:	48 83 c4 38          	add    $0x38,%rsp
   1fc7b:	5e                   	pop    %rsi
   1fc7c:	5d                   	pop    %rbp
   1fc7d:	c3                   	retq   
   1fc7e:	cc                   	int3   
   1fc7f:	cc                   	int3   
   1fc80:	cc                   	int3   
   1fc81:	cc                   	int3   
   1fc82:	cc                   	int3   
   1fc83:	cc                   	int3   
   1fc84:	48 8d 0d e5 e6 00 00 	lea    0xe6e5(%rip),%rcx        # 0x2e370
   1fc8b:	48 ff 25 d6 23 00 00 	rex.W jmpq *0x23d6(%rip)        # 0x22068
   1fc92:	cc                   	int3   
   1fc93:	cc                   	int3   
   1fc94:	cc                   	int3   
   1fc95:	cc                   	int3   
   1fc96:	cc                   	int3   
   1fc97:	cc                   	int3   
   1fc98:	48 8b c4             	mov    %rsp,%rax
   1fc9b:	48 89 58 08          	mov    %rbx,0x8(%rax)
   1fc9f:	48 89 70 10          	mov    %rsi,0x10(%rax)
   1fca3:	48 89 78 18          	mov    %rdi,0x18(%rax)
   1fca7:	4c 89 48 20          	mov    %r9,0x20(%rax)
   1fcab:	41 54                	push   %r12
   1fcad:	41 55                	push   %r13
   1fcaf:	41 56                	push   %r14
   1fcb1:	48 83 ec 30          	sub    $0x30,%rsp
   1fcb5:	49 8b f1             	mov    %r9,%rsi
   1fcb8:	41 8b f8             	mov    %r8d,%edi
   1fcbb:	4c 8b e2             	mov    %rdx,%r12
   1fcbe:	44 8b f1             	mov    %ecx,%r14d
   1fcc1:	33 db                	xor    %ebx,%ebx
   1fcc3:	48 89 58 e0          	mov    %rbx,-0x20(%rax)
   1fcc7:	45 32 ed             	xor    %r13b,%r13b
   1fcca:	44 88 68 d8          	mov    %r13b,-0x28(%rax)
   1fcce:	83 3d 0f e7 00 00 02 	cmpl   $0x2,0xe70f(%rip)        # 0x2e3e4
   1fcd5:	74 0a                	je     0x1fce1
   1fcd7:	bf 87 02 00 c0       	mov    $0xc0000287,%edi
   1fcdc:	e9 af 00 00 00       	jmpq   0x1fd90
   1fce1:	4d 85 c9             	test   %r9,%r9
   1fce4:	74 0f                	je     0x1fcf5
   1fce6:	49 8b 19             	mov    (%r9),%rbx
   1fce9:	48 85 db             	test   %rbx,%rbx
   1fcec:	74 07                	je     0x1fcf5
   1fcee:	48 89 5c 24 28       	mov    %rbx,0x28(%rsp)
   1fcf3:	eb 5b                	jmp    0x1fd50
   1fcf5:	ba 88 02 00 00       	mov    $0x288,%edx
   1fcfa:	b9 01 00 00 00       	mov    $0x1,%ecx
   1fcff:	ff 15 c3 23 00 00    	callq  *0x23c3(%rip)        # 0x220c8
   1fd05:	48 8b d8             	mov    %rax,%rbx
   1fd08:	48 89 44 24 28       	mov    %rax,0x28(%rsp)
   1fd0d:	48 85 c0             	test   %rax,%rax
   1fd10:	75 07                	jne    0x1fd19
   1fd12:	bf 9a 00 00 c0       	mov    $0xc000009a,%edi
   1fd17:	eb 77                	jmp    0x1fd90
   1fd19:	33 d2                	xor    %edx,%edx
   1fd1b:	41 b8 88 02 00 00    	mov    $0x288,%r8d
   1fd21:	48 8b c8             	mov    %rax,%rcx
   1fd24:	e8 67 0b 00 00       	callq  0x20890
   1fd29:	85 ff                	test   %edi,%edi
   1fd2b:	74 23                	je     0x1fd50
   1fd2d:	4d 85 e4             	test   %r12,%r12
   1fd30:	74 1e                	je     0x1fd50
   1fd32:	81 ff 58 02 00 00    	cmp    $0x258,%edi
   1fd38:	72 07                	jb     0x1fd41
   1fd3a:	bf f1 00 00 c0       	mov    $0xc00000f1,%edi
   1fd3f:	eb 4f                	jmp    0x1fd90
   1fd41:	4c 8b c7             	mov    %rdi,%r8
   1fd44:	48 8d 4b 30          	lea    0x30(%rbx),%rcx
   1fd48:	49 8b d4             	mov    %r12,%rdx
   1fd4b:	e8 d0 07 00 00       	callq  0x20520
   1fd50:	c7 43 08 01 00 00 0f 	movl   $0xf000001,0x8(%rbx)
   1fd57:	44 89 73 10          	mov    %r14d,0x10(%rbx)
   1fd5b:	ff 15 27 24 00 00    	callq  *0x2427(%rip)        # 0x22188
   1fd61:	b2 01                	mov    $0x1,%dl
   1fd63:	48 8d 0d 06 e6 00 00 	lea    0xe606(%rip),%rcx        # 0x2e370
   1fd6a:	ff 15 e8 22 00 00    	callq  *0x22e8(%rip)        # 0x22058
   1fd70:	41 b5 01             	mov    $0x1,%r13b
   1fd73:	44 88 6c 24 20       	mov    %r13b,0x20(%rsp)
   1fd78:	8a 54 24 70          	mov    0x70(%rsp),%dl
   1fd7c:	48 8b cb             	mov    %rbx,%rcx
   1fd7f:	e8 fc f8 ff ff       	callq  0x1f680
   1fd84:	8b f8                	mov    %eax,%edi
   1fd86:	85 c0                	test   %eax,%eax
   1fd88:	78 06                	js     0x1fd90
   1fd8a:	8b bb 78 02 00 00    	mov    0x278(%rbx),%edi
   1fd90:	48 85 f6             	test   %rsi,%rsi
   1fd93:	74 05                	je     0x1fd9a
   1fd95:	48 89 1e             	mov    %rbx,(%rsi)
   1fd98:	eb 10                	jmp    0x1fdaa
   1fd9a:	48 85 db             	test   %rbx,%rbx
   1fd9d:	74 0b                	je     0x1fdaa
   1fd9f:	33 d2                	xor    %edx,%edx
   1fda1:	48 8b cb             	mov    %rbx,%rcx
   1fda4:	ff 15 5e 22 00 00    	callq  *0x225e(%rip)        # 0x22008
   1fdaa:	45 84 ed             	test   %r13b,%r13b
   1fdad:	74 13                	je     0x1fdc2
   1fdaf:	48 8d 0d ba e5 00 00 	lea    0xe5ba(%rip),%rcx        # 0x2e370
   1fdb6:	ff 15 a4 22 00 00    	callq  *0x22a4(%rip)        # 0x22060
   1fdbc:	ff 15 be 23 00 00    	callq  *0x23be(%rip)        # 0x22180
   1fdc2:	8b c7                	mov    %edi,%eax
   1fdc4:	48 8b 5c 24 50       	mov    0x50(%rsp),%rbx
   1fdc9:	48 8b 74 24 58       	mov    0x58(%rsp),%rsi
   1fdce:	48 8b 7c 24 60       	mov    0x60(%rsp),%rdi
   1fdd3:	48 83 c4 30          	add    $0x30,%rsp
   1fdd7:	41 5e                	pop    %r14
   1fdd9:	41 5d                	pop    %r13
   1fddb:	41 5c                	pop    %r12
   1fddd:	c3                   	retq   
   1fdde:	cc                   	int3   
   1fddf:	cc                   	int3   
   1fde0:	cc                   	int3   
   1fde1:	cc                   	int3   
   1fde2:	cc                   	int3   
   1fde3:	cc                   	int3   
   1fde4:	cc                   	int3   
   1fde5:	cc                   	int3   
   1fde6:	cc                   	int3   
   1fde7:	cc                   	int3   
   1fde8:	40 55                	rex push %rbp
   1fdea:	48 83 ec 20          	sub    $0x20,%rsp
   1fdee:	48 8b ea             	mov    %rdx,%rbp
   1fdf1:	48 8b 4d 68          	mov    0x68(%rbp),%rcx
   1fdf5:	48 85 c9             	test   %rcx,%rcx
   1fdf8:	74 09                	je     0x1fe03
   1fdfa:	48 8b 45 28          	mov    0x28(%rbp),%rax
   1fdfe:	48 89 01             	mov    %rax,(%rcx)
   1fe01:	eb 11                	jmp    0x1fe14
   1fe03:	48 8b 4d 28          	mov    0x28(%rbp),%rcx
   1fe07:	48 85 c9             	test   %rcx,%rcx
   1fe0a:	74 08                	je     0x1fe14
   1fe0c:	33 d2                	xor    %edx,%edx
   1fe0e:	ff 15 f4 21 00 00    	callq  *0x21f4(%rip)        # 0x22008
   1fe14:	80 7d 20 00          	cmpb   $0x0,0x20(%rbp)
   1fe18:	74 13                	je     0x1fe2d
   1fe1a:	48 8d 0d 4f e5 00 00 	lea    0xe54f(%rip),%rcx        # 0x2e370
   1fe21:	ff 15 39 22 00 00    	callq  *0x2239(%rip)        # 0x22060
   1fe27:	ff 15 53 23 00 00    	callq  *0x2353(%rip)        # 0x22180
   1fe2d:	48 83 c4 20          	add    $0x20,%rsp
   1fe31:	5d                   	pop    %rbp
   1fe32:	c3                   	retq   
   1fe33:	cc                   	int3   
   1fe34:	cc                   	int3   
   1fe35:	cc                   	int3   
   1fe36:	cc                   	int3   
   1fe37:	cc                   	int3   
   1fe38:	cc                   	int3   
   1fe39:	cc                   	int3   
   1fe3a:	cc                   	int3   
   1fe3b:	cc                   	int3   
   1fe3c:	4c 8b dc             	mov    %rsp,%r11
   1fe3f:	49 89 5b 10          	mov    %rbx,0x10(%r11)
   1fe43:	57                   	push   %rdi
   1fe44:	48 81 ec 70 04 00 00 	sub    $0x470,%rsp
   1fe4b:	48 8b 05 96 e5 00 00 	mov    0xe596(%rip),%rax        # 0x2e3e8
   1fe52:	81 78 48 01 00 02 00 	cmpl   $0x20001,0x48(%rax)
   1fe59:	0f 83 ae 00 00 00    	jae    0x1ff0d
   1fe5f:	49 83 63 08 00       	andq   $0x0,0x8(%r11)
   1fe64:	ff 15 1e 23 00 00    	callq  *0x231e(%rip)        # 0x22188
   1fe6a:	b2 01                	mov    $0x1,%dl
   1fe6c:	48 8d 0d fd e4 00 00 	lea    0xe4fd(%rip),%rcx        # 0x2e370
   1fe73:	ff 15 df 21 00 00    	callq  *0x21df(%rip)        # 0x22058
   1fe79:	90                   	nop
   1fe7a:	c7 44 24 30 01 00 00 	movl   $0x1,0x30(%rsp)
   1fe81:	00 
   1fe82:	48 8b 05 5f e5 00 00 	mov    0xe55f(%rip),%rax        # 0x2e3e8
   1fe89:	8b 48 48             	mov    0x48(%rax),%ecx
   1fe8c:	89 4c 24 38          	mov    %ecx,0x38(%rsp)
   1fe90:	c6 44 24 20 01       	movb   $0x1,0x20(%rsp)
   1fe95:	4c 8d 8c 24 80 04 00 	lea    0x480(%rsp),%r9
   1fe9c:	00 
   1fe9d:	45 33 c0             	xor    %r8d,%r8d
   1fea0:	33 d2                	xor    %edx,%edx
   1fea2:	8d 4a 06             	lea    0x6(%rdx),%ecx
   1fea5:	e8 ee fd ff ff       	callq  0x1fc98
   1feaa:	8b f8                	mov    %eax,%edi
   1feac:	85 c0                	test   %eax,%eax
   1feae:	78 30                	js     0x1fee0
   1feb0:	48 8b 9c 24 80 04 00 	mov    0x480(%rsp),%rbx
   1feb7:	00 
   1feb8:	48 8b 43 30          	mov    0x30(%rbx),%rax
   1febc:	48 89 44 24 40       	mov    %rax,0x40(%rsp)
   1fec1:	48 8d 4c 24 30       	lea    0x30(%rsp),%rcx
   1fec6:	e8 05 f3 ff ff       	callq  0x1f1d0
   1fecb:	8b f8                	mov    %eax,%edi
   1fecd:	48 8b 0d 14 e5 00 00 	mov    0xe514(%rip),%rcx        # 0x2e3e8
   1fed4:	48 83 c1 08          	add    $0x8,%rcx
   1fed8:	ff 15 12 23 00 00    	callq  *0x2312(%rip)        # 0x221f0
   1fede:	eb 08                	jmp    0x1fee8
   1fee0:	48 8b 9c 24 80 04 00 	mov    0x480(%rsp),%rbx
   1fee7:	00 
   1fee8:	48 85 db             	test   %rbx,%rbx
   1feeb:	74 0b                	je     0x1fef8
   1feed:	33 d2                	xor    %edx,%edx
   1feef:	48 8b cb             	mov    %rbx,%rcx
   1fef2:	ff 15 10 21 00 00    	callq  *0x2110(%rip)        # 0x22008
   1fef8:	48 8d 0d 71 e4 00 00 	lea    0xe471(%rip),%rcx        # 0x2e370
   1feff:	ff 15 5b 21 00 00    	callq  *0x215b(%rip)        # 0x22060
   1ff05:	ff 15 75 22 00 00    	callq  *0x2275(%rip)        # 0x22180
   1ff0b:	eb 02                	jmp    0x1ff0f
   1ff0d:	33 ff                	xor    %edi,%edi
   1ff0f:	8b c7                	mov    %edi,%eax
   1ff11:	48 8b 9c 24 88 04 00 	mov    0x488(%rsp),%rbx
   1ff18:	00 
   1ff19:	48 81 c4 70 04 00 00 	add    $0x470,%rsp
   1ff20:	5f                   	pop    %rdi
   1ff21:	c3                   	retq   
   1ff22:	cc                   	int3   
   1ff23:	cc                   	int3   
   1ff24:	cc                   	int3   
   1ff25:	cc                   	int3   
   1ff26:	cc                   	int3   
   1ff27:	cc                   	int3   
   1ff28:	cc                   	int3   
   1ff29:	cc                   	int3   
   1ff2a:	cc                   	int3   
   1ff2b:	cc                   	int3   
   1ff2c:	40 55                	rex push %rbp
   1ff2e:	48 83 ec 30          	sub    $0x30,%rsp
   1ff32:	48 8b ea             	mov    %rdx,%rbp
   1ff35:	48 8b 8d 80 04 00 00 	mov    0x480(%rbp),%rcx
   1ff3c:	48 85 c9             	test   %rcx,%rcx
   1ff3f:	74 08                	je     0x1ff49
   1ff41:	33 d2                	xor    %edx,%edx
   1ff43:	ff 15 bf 20 00 00    	callq  *0x20bf(%rip)        # 0x22008
   1ff49:	48 8d 0d 20 e4 00 00 	lea    0xe420(%rip),%rcx        # 0x2e370
   1ff50:	ff 15 0a 21 00 00    	callq  *0x210a(%rip)        # 0x22060
   1ff56:	ff 15 24 22 00 00    	callq  *0x2224(%rip)        # 0x22180
   1ff5c:	48 83 c4 30          	add    $0x30,%rsp
   1ff60:	5d                   	pop    %rbp
   1ff61:	c3                   	retq   
   1ff62:	cc                   	int3   
   1ff63:	cc                   	int3   
   1ff64:	cc                   	int3   
   1ff65:	cc                   	int3   
   1ff66:	cc                   	int3   
   1ff67:	cc                   	int3   
   1ff68:	48 89 5c 24 10       	mov    %rbx,0x10(%rsp)
   1ff6d:	48 89 74 24 18       	mov    %rsi,0x18(%rsp)
   1ff72:	57                   	push   %rdi
   1ff73:	48 83 ec 70          	sub    $0x70,%rsp
   1ff77:	c7 44 24 20 01 00 00 	movl   $0xc0000001,0x20(%rsp)
   1ff7e:	c0 
   1ff7f:	ba 08 02 00 00       	mov    $0x208,%edx
   1ff84:	bb 01 00 00 00       	mov    $0x1,%ebx
   1ff89:	8b cb                	mov    %ebx,%ecx
   1ff8b:	ff 15 37 21 00 00    	callq  *0x2137(%rip)        # 0x220c8
   1ff91:	48 8b f0             	mov    %rax,%rsi
   1ff94:	48 89 84 24 80 00 00 	mov    %rax,0x80(%rsp)
   1ff9b:	00 
   1ff9c:	33 c0                	xor    %eax,%eax
   1ff9e:	f0 0f b1 1d 3e e4 00 	lock cmpxchg %ebx,0xe43e(%rip)        # 0x2e3e4
   1ffa5:	00 
   1ffa6:	74 4b                	je     0x1fff3
   1ffa8:	33 db                	xor    %ebx,%ebx
   1ffaa:	89 5c 24 24          	mov    %ebx,0x24(%rsp)
   1ffae:	8d 7b 02             	lea    0x2(%rbx),%edi
   1ffb1:	81 fb 88 13 00 00    	cmp    $0x1388,%ebx
   1ffb7:	7d 1e                	jge    0x1ffd7
   1ffb9:	39 3d 25 e4 00 00    	cmp    %edi,0xe425(%rip)        # 0x2e3e4
   1ffbf:	74 16                	je     0x1ffd7
   1ffc1:	b9 90 01 00 00       	mov    $0x190,%ecx
   1ffc6:	e8 79 6a ff ff       	callq  0x16a44
   1ffcb:	81 c3 90 01 00 00    	add    $0x190,%ebx
   1ffd1:	89 5c 24 24          	mov    %ebx,0x24(%rsp)
   1ffd5:	eb da                	jmp    0x1ffb1
   1ffd7:	39 3d 07 e4 00 00    	cmp    %edi,0xe407(%rip)        # 0x2e3e4
   1ffdd:	75 0b                	jne    0x1ffea
   1ffdf:	33 db                	xor    %ebx,%ebx
   1ffe1:	89 5c 24 20          	mov    %ebx,0x20(%rsp)
   1ffe5:	e9 ff 00 00 00       	jmpq   0x200e9
   1ffea:	8b 5c 24 20          	mov    0x20(%rsp),%ebx
   1ffee:	e9 f6 00 00 00       	jmpq   0x200e9
   1fff3:	bb 30 00 00 00       	mov    $0x30,%ebx
   1fff8:	4c 8b c3             	mov    %rbx,%r8
   1fffb:	33 d2                	xor    %edx,%edx
   1fffd:	48 8d 4c 24 38       	lea    0x38(%rsp),%rcx
   20002:	e8 89 08 00 00       	callq  0x20890
   20007:	45 33 c9             	xor    %r9d,%r9d
   2000a:	44 8b c3             	mov    %ebx,%r8d
   2000d:	48 8d 54 24 38       	lea    0x38(%rsp),%rdx
   20012:	8d 4b d3             	lea    -0x2d(%rbx),%ecx
   20015:	ff 15 7d 20 00 00    	callq  *0x207d(%rip)        # 0x22098
   2001b:	8b d8                	mov    %eax,%ebx
   2001d:	89 44 24 20          	mov    %eax,0x20(%rsp)
   20021:	85 c0                	test   %eax,%eax
   20023:	0f 88 bb 00 00 00    	js     0x200e4
   20029:	48 8b 7c 24 38       	mov    0x38(%rsp),%rdi
   2002e:	48 2b 7c 24 58       	sub    0x58(%rsp),%rdi
   20033:	48 b8 53 a5 e1 41 d4 	movabs $0x7f1d441e1a553,%rax
   2003a:	f1 07 00 
   2003d:	48 33 f8             	xor    %rax,%rdi
   20040:	48 89 3d 91 e3 00 00 	mov    %rdi,0xe391(%rip)        # 0x2e3d8
   20047:	89 3d 93 e3 00 00    	mov    %edi,0xe393(%rip)        # 0x2e3e0
   2004d:	48 85 f6             	test   %rsi,%rsi
   20050:	75 11                	jne    0x20063
   20052:	bb 9a 00 00 c0       	mov    $0xc000009a,%ebx
   20057:	89 5c 24 20          	mov    %ebx,0x20(%rsp)
   2005b:	8d 7e 02             	lea    0x2(%rsi),%edi
   2005e:	e9 86 00 00 00       	jmpq   0x200e9
   20063:	41 b8 26 00 00 00    	mov    $0x26,%r8d
   20069:	48 8d 15 d0 c0 00 00 	lea    0xc0d0(%rip),%rdx        # 0x2c140
   20070:	48 8b ce             	mov    %rsi,%rcx
   20073:	e8 a8 04 00 00       	callq  0x20520
   20078:	48 8b d6             	mov    %rsi,%rdx
   2007b:	b9 84 2d 0c 00       	mov    $0xc2d84,%ecx
   20080:	e8 47 bf ff ff       	callq  0x1bfcc
   20085:	4c 8d 46 24          	lea    0x24(%rsi),%r8
   20089:	48 8b d7             	mov    %rdi,%rdx
   2008c:	48 8b cf             	mov    %rdi,%rcx
   2008f:	e8 88 ee ff ff       	callq  0x1ef1c
   20094:	48 8b d6             	mov    %rsi,%rdx
   20097:	48 8d 4c 24 28       	lea    0x28(%rsp),%rcx
   2009c:	ff 15 76 1f 00 00    	callq  *0x1f76(%rip)        # 0x22018
   200a2:	48 8d 0d c7 e2 00 00 	lea    0xe2c7(%rip),%rcx        # 0x2e370
   200a9:	ff 15 c1 1f 00 00    	callq  *0x1fc1(%rip)        # 0x22070
   200af:	48 8d 4c 24 28       	lea    0x28(%rsp),%rcx
   200b4:	e8 13 f9 ff ff       	callq  0x1f9cc
   200b9:	48 83 3d 27 e3 00 00 	cmpq   $0x0,0xe327(%rip)        # 0x2e3e8
   200c0:	00 
   200c1:	75 0f                	jne    0x200d2
   200c3:	e8 00 f5 ff ff       	callq  0x1f5c8
   200c8:	8b d8                	mov    %eax,%ebx
   200ca:	89 44 24 20          	mov    %eax,0x20(%rsp)
   200ce:	85 c0                	test   %eax,%eax
   200d0:	78 12                	js     0x200e4
   200d2:	bf 02 00 00 00       	mov    $0x2,%edi
   200d7:	89 3d 07 e3 00 00    	mov    %edi,0xe307(%rip)        # 0x2e3e4
   200dd:	e8 5a fd ff ff       	callq  0x1fe3c
   200e2:	eb 05                	jmp    0x200e9
   200e4:	bf 02 00 00 00       	mov    $0x2,%edi
   200e9:	8b 05 f5 e2 00 00    	mov    0xe2f5(%rip),%eax        # 0x2e3e4
   200ef:	85 db                	test   %ebx,%ebx
   200f1:	0f 49 c7             	cmovns %edi,%eax
   200f4:	89 05 ea e2 00 00    	mov    %eax,0xe2ea(%rip)        # 0x2e3e4
   200fa:	48 85 f6             	test   %rsi,%rsi
   200fd:	74 1b                	je     0x2011a
   200ff:	33 d2                	xor    %edx,%edx
   20101:	41 b8 08 02 00 00    	mov    $0x208,%r8d
   20107:	48 8b ce             	mov    %rsi,%rcx
   2010a:	e8 81 07 00 00       	callq  0x20890
   2010f:	33 d2                	xor    %edx,%edx
   20111:	48 8b ce             	mov    %rsi,%rcx
   20114:	ff 15 ee 1e 00 00    	callq  *0x1eee(%rip)        # 0x22008
   2011a:	8b c3                	mov    %ebx,%eax
   2011c:	4c 8d 5c 24 70       	lea    0x70(%rsp),%r11
   20121:	49 8b 5b 18          	mov    0x18(%r11),%rbx
   20125:	49 8b 73 20          	mov    0x20(%r11),%rsi
   20129:	49 8b e3             	mov    %r11,%rsp
   2012c:	5f                   	pop    %rdi
   2012d:	c3                   	retq   
   2012e:	cc                   	int3   
   2012f:	cc                   	int3   
   20130:	cc                   	int3   
   20131:	cc                   	int3   
   20132:	cc                   	int3   
   20133:	cc                   	int3   
   20134:	cc                   	int3   
   20135:	cc                   	int3   
   20136:	cc                   	int3   
   20137:	cc                   	int3   
   20138:	40 53                	rex push %rbx
   2013a:	55                   	push   %rbp
   2013b:	57                   	push   %rdi
   2013c:	48 83 ec 20          	sub    $0x20,%rsp
   20140:	48 8b ea             	mov    %rdx,%rbp
   20143:	8b 05 9b e2 00 00    	mov    0xe29b(%rip),%eax        # 0x2e3e4
   20149:	bf 02 00 00 00       	mov    $0x2,%edi
   2014e:	83 7d 20 00          	cmpl   $0x0,0x20(%rbp)
   20152:	0f 4d c7             	cmovge %edi,%eax
   20155:	89 05 89 e2 00 00    	mov    %eax,0xe289(%rip)        # 0x2e3e4
   2015b:	48 8b 9d 80 00 00 00 	mov    0x80(%rbp),%rbx
   20162:	48 85 db             	test   %rbx,%rbx
   20165:	74 1b                	je     0x20182
   20167:	33 d2                	xor    %edx,%edx
   20169:	41 b8 08 02 00 00    	mov    $0x208,%r8d
   2016f:	48 8b cb             	mov    %rbx,%rcx
   20172:	e8 19 07 00 00       	callq  0x20890
   20177:	33 d2                	xor    %edx,%edx
   20179:	48 8b cb             	mov    %rbx,%rcx
   2017c:	ff 15 86 1e 00 00    	callq  *0x1e86(%rip)        # 0x22008
   20182:	48 83 c4 20          	add    $0x20,%rsp
   20186:	5f                   	pop    %rdi
   20187:	5d                   	pop    %rbp
   20188:	5b                   	pop    %rbx
   20189:	c3                   	retq   
   2018a:	cc                   	int3   
   2018b:	cc                   	int3   
   2018c:	cc                   	int3   
   2018d:	cc                   	int3   
   2018e:	cc                   	int3   
   2018f:	cc                   	int3   
   20190:	48 8b c4             	mov    %rsp,%rax
   20193:	48 89 58 08          	mov    %rbx,0x8(%rax)
   20197:	48 89 70 18          	mov    %rsi,0x18(%rax)
   2019b:	89 50 10             	mov    %edx,0x10(%rax)
   2019e:	57                   	push   %rdi
   2019f:	41 54                	push   %r12
   201a1:	41 55                	push   %r13
   201a3:	41 56                	push   %r14
   201a5:	41 57                	push   %r15
   201a7:	48 83 ec 50          	sub    $0x50,%rsp
   201ab:	45 8b e9             	mov    %r9d,%r13d
   201ae:	4d 8b f8             	mov    %r8,%r15
   201b1:	4c 8b f1             	mov    %rcx,%r14
   201b4:	33 ff                	xor    %edi,%edi
   201b6:	48 89 78 d0          	mov    %rdi,-0x30(%rax)
   201ba:	48 85 c9             	test   %rcx,%rcx
   201bd:	0f 84 25 01 00 00    	je     0x202e8
   201c3:	45 85 c9             	test   %r9d,%r9d
   201c6:	0f 84 1c 01 00 00    	je     0x202e8
   201cc:	48 8b b4 24 b0 00 00 	mov    0xb0(%rsp),%rsi
   201d3:	00 
   201d4:	48 85 f6             	test   %rsi,%rsi
   201d7:	0f 84 0b 01 00 00    	je     0x202e8
   201dd:	44 8b 60 28          	mov    0x28(%rax),%r12d
   201e1:	41 0f ba f4 07       	btr    $0x7,%r12d
   201e6:	4d 85 c0             	test   %r8,%r8
   201e9:	75 25                	jne    0x20210
   201eb:	48 89 70 b8          	mov    %rsi,-0x48(%rax)
   201ef:	8a 84 24 a8 00 00 00 	mov    0xa8(%rsp),%al
   201f6:	88 44 24 28          	mov    %al,0x28(%rsp)
   201fa:	44 89 64 24 20       	mov    %r12d,0x20(%rsp)
   201ff:	ff 15 63 20 00 00    	callq  *0x2063(%rip)        # 0x22268
   20205:	8b d8                	mov    %eax,%ebx
   20207:	89 44 24 40          	mov    %eax,0x40(%rsp)
   2020b:	e9 e1 00 00 00       	jmpq   0x202f1
   20210:	e8 53 fd ff ff       	callq  0x1ff68
   20215:	8b d8                	mov    %eax,%ebx
   20217:	89 44 24 40          	mov    %eax,0x40(%rsp)
   2021b:	85 c0                	test   %eax,%eax
   2021d:	0f 88 ce 00 00 00    	js     0x202f1
   20223:	bb 88 02 00 00       	mov    $0x288,%ebx
   20228:	48 8b d3             	mov    %rbx,%rdx
   2022b:	b9 01 00 00 00       	mov    $0x1,%ecx
   20230:	ff 15 92 1e 00 00    	callq  *0x1e92(%rip)        # 0x220c8
   20236:	48 8b f8             	mov    %rax,%rdi
   20239:	48 89 44 24 48       	mov    %rax,0x48(%rsp)
   2023e:	48 85 c0             	test   %rax,%rax
   20241:	75 0e                	jne    0x20251
   20243:	bb 9a 00 00 c0       	mov    $0xc000009a,%ebx
   20248:	89 5c 24 40          	mov    %ebx,0x40(%rsp)
   2024c:	e9 a0 00 00 00       	jmpq   0x202f1
   20251:	4c 8b c3             	mov    %rbx,%r8
   20254:	33 d2                	xor    %edx,%edx
   20256:	48 8b c8             	mov    %rax,%rcx
   20259:	e8 32 06 00 00       	callq  0x20890
   2025e:	4c 8b 1d 73 e1 00 00 	mov    0xe173(%rip),%r11        # 0x2e3d8
   20265:	4c 89 1f             	mov    %r11,(%rdi)
   20268:	c7 47 08 01 00 00 0f 	movl   $0xf000001,0x8(%rdi)
   2026f:	4c 89 77 30          	mov    %r14,0x30(%rdi)
   20273:	8b 84 24 88 00 00 00 	mov    0x88(%rsp),%eax
   2027a:	89 47 38             	mov    %eax,0x38(%rdi)
   2027d:	48 8d 4f 40          	lea    0x40(%rdi),%rcx
   20281:	49 8b d7             	mov    %r15,%rdx
   20284:	e8 3f f0 ff ff       	callq  0x1f2c8
   20289:	44 89 af 48 02 00 00 	mov    %r13d,0x248(%rdi)
   20290:	44 89 a7 50 02 00 00 	mov    %r12d,0x250(%rdi)
   20297:	0f b6 84 24 a8 00 00 	movzbl 0xa8(%rsp),%eax
   2029e:	00 
   2029f:	89 87 58 02 00 00    	mov    %eax,0x258(%rdi)
   202a5:	48 8b 06             	mov    (%rsi),%rax
   202a8:	48 89 87 60 02 00 00 	mov    %rax,0x260(%rdi)
   202af:	c6 44 24 20 00       	movb   $0x0,0x20(%rsp)
   202b4:	4c 8d 4c 24 48       	lea    0x48(%rsp),%r9
   202b9:	45 33 c0             	xor    %r8d,%r8d
   202bc:	33 d2                	xor    %edx,%edx
   202be:	8d 4a 03             	lea    0x3(%rdx),%ecx
   202c1:	e8 d2 f9 ff ff       	callq  0x1fc98
   202c6:	8b d8                	mov    %eax,%ebx
   202c8:	89 44 24 40          	mov    %eax,0x40(%rsp)
   202cc:	85 c0                	test   %eax,%eax
   202ce:	78 11                	js     0x202e1
   202d0:	48 8b 7c 24 48       	mov    0x48(%rsp),%rdi
   202d5:	48 8b 87 60 02 00 00 	mov    0x260(%rdi),%rax
   202dc:	48 89 06             	mov    %rax,(%rsi)
   202df:	eb 10                	jmp    0x202f1
   202e1:	48 8b 7c 24 48       	mov    0x48(%rsp),%rdi
   202e6:	eb 09                	jmp    0x202f1
   202e8:	bb 0d 00 00 c0       	mov    $0xc000000d,%ebx
   202ed:	89 5c 24 40          	mov    %ebx,0x40(%rsp)
   202f1:	48 85 ff             	test   %rdi,%rdi
   202f4:	74 0b                	je     0x20301
   202f6:	33 d2                	xor    %edx,%edx
   202f8:	48 8b cf             	mov    %rdi,%rcx
   202fb:	ff 15 07 1d 00 00    	callq  *0x1d07(%rip)        # 0x22008
   20301:	8b c3                	mov    %ebx,%eax
   20303:	4c 8d 5c 24 50       	lea    0x50(%rsp),%r11
   20308:	49 8b 5b 30          	mov    0x30(%r11),%rbx
   2030c:	49 8b 73 40          	mov    0x40(%r11),%rsi
   20310:	49 8b e3             	mov    %r11,%rsp
   20313:	41 5f                	pop    %r15
   20315:	41 5e                	pop    %r14
   20317:	41 5d                	pop    %r13
   20319:	41 5c                	pop    %r12
   2031b:	5f                   	pop    %rdi
   2031c:	c3                   	retq   
   2031d:	cc                   	int3   
   2031e:	cc                   	int3   
   2031f:	cc                   	int3   
   20320:	40 55                	rex push %rbp
   20322:	48 83 ec 40          	sub    $0x40,%rsp
   20326:	48 8b ea             	mov    %rdx,%rbp
   20329:	48 8b 4d 48          	mov    0x48(%rbp),%rcx
   2032d:	48 85 c9             	test   %rcx,%rcx
   20330:	74 08                	je     0x2033a
   20332:	33 d2                	xor    %edx,%edx
   20334:	ff 15 ce 1c 00 00    	callq  *0x1cce(%rip)        # 0x22008
   2033a:	48 83 c4 40          	add    $0x40,%rsp
   2033e:	5d                   	pop    %rbp
   2033f:	c3                   	retq   
   20340:	cc                   	int3   
   20341:	cc                   	int3   
   20342:	cc                   	int3   
   20343:	cc                   	int3   
   20344:	cc                   	int3   
   20345:	cc                   	int3   
   20346:	cc                   	int3   
   20347:	cc                   	int3   
   20348:	48 89 4c 24 08       	mov    %rcx,0x8(%rsp)
   2034d:	48 83 ec 38          	sub    $0x38,%rsp
   20351:	45 33 c9             	xor    %r9d,%r9d
   20354:	48 8d 54 24 40       	lea    0x40(%rsp),%rdx
   20359:	c6 44 24 20 00       	movb   $0x0,0x20(%rsp)
   2035e:	45 8d 41 08          	lea    0x8(%r9),%r8d
   20362:	41 8d 49 04          	lea    0x4(%r9),%ecx
   20366:	e8 2d f9 ff ff       	callq  0x1fc98
   2036b:	48 83 c4 38          	add    $0x38,%rsp
   2036f:	c3                   	retq   
   20370:	cc                   	int3   
   20371:	cc                   	int3   
   20372:	cc                   	int3   
   20373:	cc                   	int3   
   20374:	cc                   	int3   
   20375:	cc                   	int3   
   20376:	cc                   	int3   
   20377:	cc                   	int3   
   20378:	48 8b c4             	mov    %rsp,%rax
   2037b:	48 89 58 08          	mov    %rbx,0x8(%rax)
   2037f:	48 89 70 10          	mov    %rsi,0x10(%rax)
   20383:	48 89 78 20          	mov    %rdi,0x20(%rax)
   20387:	41 54                	push   %r12
   20389:	48 83 ec 40          	sub    $0x40,%rsp
   2038d:	4c 8b e2             	mov    %rdx,%r12
   20390:	48 8b f1             	mov    %rcx,%rsi
   20393:	33 ff                	xor    %edi,%edi
   20395:	48 89 78 18          	mov    %rdi,0x18(%rax)
   20399:	48 85 c9             	test   %rcx,%rcx
   2039c:	0f 84 8b 00 00 00    	je     0x2042d
   203a2:	66 81 39 08 02       	cmpw   $0x208,(%rcx)
   203a7:	0f 83 80 00 00 00    	jae    0x2042d
   203ad:	48 85 d2             	test   %rdx,%rdx
   203b0:	74 7b                	je     0x2042d
   203b2:	e8 b1 fb ff ff       	callq  0x1ff68
   203b7:	8b d8                	mov    %eax,%ebx
   203b9:	89 44 24 30          	mov    %eax,0x30(%rsp)
   203bd:	85 c0                	test   %eax,%eax
   203bf:	78 75                	js     0x20436
   203c1:	bb 88 02 00 00       	mov    $0x288,%ebx
   203c6:	48 8b d3             	mov    %rbx,%rdx
   203c9:	8d 4f 01             	lea    0x1(%rdi),%ecx
   203cc:	ff 15 f6 1c 00 00    	callq  *0x1cf6(%rip)        # 0x220c8
   203d2:	48 8b f8             	mov    %rax,%rdi
   203d5:	48 89 44 24 60       	mov    %rax,0x60(%rsp)
   203da:	48 85 c0             	test   %rax,%rax
   203dd:	75 0b                	jne    0x203ea
   203df:	bb 9a 00 00 c0       	mov    $0xc000009a,%ebx
   203e4:	89 5c 24 30          	mov    %ebx,0x30(%rsp)
   203e8:	eb 4c                	jmp    0x20436
   203ea:	4c 8b c3             	mov    %rbx,%r8
   203ed:	33 d2                	xor    %edx,%edx
   203ef:	48 8b c8             	mov    %rax,%rcx
   203f2:	e8 99 04 00 00       	callq  0x20890
   203f7:	48 8d 4f 30          	lea    0x30(%rdi),%rcx
   203fb:	48 8b d6             	mov    %rsi,%rdx
   203fe:	e8 c5 ee ff ff       	callq  0x1f2c8
   20403:	4c 89 a7 38 02 00 00 	mov    %r12,0x238(%rdi)
   2040a:	c6 44 24 20 00       	movb   $0x0,0x20(%rsp)
   2040f:	4c 8d 4c 24 60       	lea    0x60(%rsp),%r9
   20414:	45 33 c0             	xor    %r8d,%r8d
   20417:	33 d2                	xor    %edx,%edx
   20419:	33 c9                	xor    %ecx,%ecx
   2041b:	e8 78 f8 ff ff       	callq  0x1fc98
   20420:	8b d8                	mov    %eax,%ebx
   20422:	89 44 24 30          	mov    %eax,0x30(%rsp)
   20426:	48 8b 7c 24 60       	mov    0x60(%rsp),%rdi
   2042b:	eb 09                	jmp    0x20436
   2042d:	bb 0d 00 00 c0       	mov    $0xc000000d,%ebx
   20432:	89 5c 24 30          	mov    %ebx,0x30(%rsp)
   20436:	48 85 ff             	test   %rdi,%rdi
   20439:	74 0b                	je     0x20446
   2043b:	33 d2                	xor    %edx,%edx
   2043d:	48 8b cf             	mov    %rdi,%rcx
   20440:	ff 15 c2 1b 00 00    	callq  *0x1bc2(%rip)        # 0x22008
   20446:	8b c3                	mov    %ebx,%eax
   20448:	48 8b 5c 24 50       	mov    0x50(%rsp),%rbx
   2044d:	48 8b 74 24 58       	mov    0x58(%rsp),%rsi
   20452:	48 8b 7c 24 68       	mov    0x68(%rsp),%rdi
   20457:	48 83 c4 40          	add    $0x40,%rsp
   2045b:	41 5c                	pop    %r12
   2045d:	c3                   	retq   
   2045e:	cc                   	int3   
   2045f:	cc                   	int3   
   20460:	cc                   	int3   
   20461:	cc                   	int3   
   20462:	cc                   	int3   
   20463:	cc                   	int3   
   20464:	cc                   	int3   
   20465:	cc                   	int3   
   20466:	cc                   	int3   
   20467:	cc                   	int3   
   20468:	40 55                	rex push %rbp
   2046a:	48 83 ec 30          	sub    $0x30,%rsp
   2046e:	48 8b ea             	mov    %rdx,%rbp
   20471:	48 8b 4d 60          	mov    0x60(%rbp),%rcx
   20475:	48 85 c9             	test   %rcx,%rcx
   20478:	74 08                	je     0x20482
   2047a:	33 d2                	xor    %edx,%edx
   2047c:	ff 15 86 1b 00 00    	callq  *0x1b86(%rip)        # 0x22008
   20482:	48 83 c4 30          	add    $0x30,%rsp
   20486:	5d                   	pop    %rbp
   20487:	c3                   	retq   
   20488:	cc                   	int3   
   20489:	cc                   	int3   
   2048a:	cc                   	int3   
   2048b:	cc                   	int3   
   2048c:	cc                   	int3   
   2048d:	cc                   	int3   
   2048e:	cc                   	int3   
   2048f:	cc                   	int3   
   20490:	40 53                	rex push %rbx
   20492:	48 81 ec 40 02 00 00 	sub    $0x240,%rsp
   20499:	48 8b d9             	mov    %rcx,%rbx
   2049c:	66 83 64 24 30 00    	andw   $0x0,0x30(%rsp)
   204a2:	33 d2                	xor    %edx,%edx
   204a4:	41 b8 06 02 00 00    	mov    $0x206,%r8d
   204aa:	48 8d 4c 24 32       	lea    0x32(%rsp),%rcx
   204af:	e8 dc 03 00 00       	callq  0x20890
   204b4:	90                   	nop
   204b5:	48 85 db             	test   %rbx,%rbx
   204b8:	74 32                	je     0x204ec
   204ba:	66 81 3b 08 02       	cmpw   $0x208,(%rbx)
   204bf:	73 2b                	jae    0x204ec
   204c1:	48 8b d3             	mov    %rbx,%rdx
   204c4:	48 8d 4c 24 30       	lea    0x30(%rsp),%rcx
   204c9:	e8 fa ed ff ff       	callq  0x1f2c8
   204ce:	c6 44 24 20 00       	movb   $0x0,0x20(%rsp)
   204d3:	45 33 c9             	xor    %r9d,%r9d
   204d6:	41 b8 08 02 00 00    	mov    $0x208,%r8d
   204dc:	48 8d 54 24 30       	lea    0x30(%rsp),%rdx
   204e1:	41 8d 49 01          	lea    0x1(%r9),%ecx
   204e5:	e8 ae f7 ff ff       	callq  0x1fc98
   204ea:	eb 05                	jmp    0x204f1
   204ec:	b8 ef 00 00 c0       	mov    $0xc00000ef,%eax
   204f1:	48 81 c4 40 02 00 00 	add    $0x240,%rsp
   204f8:	5b                   	pop    %rbx
   204f9:	c3                   	retq   
   204fa:	cc                   	int3   
   204fb:	cc                   	int3   
   204fc:	cc                   	int3   
   204fd:	cc                   	int3   
   204fe:	cc                   	int3   
   204ff:	cc                   	int3   
   20500:	40 55                	rex push %rbp
   20502:	48 83 ec 30          	sub    $0x30,%rsp
   20506:	48 8b ea             	mov    %rdx,%rbp
   20509:	48 83 c4 30          	add    $0x30,%rsp
   2050d:	5d                   	pop    %rbp
   2050e:	c3                   	retq   
   2050f:	cc                   	int3   
   20510:	cc                   	int3   
   20511:	cc                   	int3   
   20512:	cc                   	int3   
   20513:	cc                   	int3   
   20514:	cc                   	int3   
   20515:	cc                   	int3   
   20516:	66 66 66 90          	data16 data16 xchg %ax,%ax
   2051a:	66 66 66 90          	data16 data16 xchg %ax,%ax
   2051e:	66 90                	xchg   %ax,%ax
   20520:	4c 8b d9             	mov    %rcx,%r11
   20523:	48 2b d1             	sub    %rcx,%rdx
   20526:	0f 86 9c 01 00 00    	jbe    0x206c8
   2052c:	49 83 f8 08          	cmp    $0x8,%r8
   20530:	72 62                	jb     0x20594
   20532:	f6 c1 07             	test   $0x7,%cl
   20535:	74 37                	je     0x2056e
   20537:	f6 c1 01             	test   $0x1,%cl
   2053a:	74 0c                	je     0x20548
   2053c:	8a 04 0a             	mov    (%rdx,%rcx,1),%al
   2053f:	49 ff c8             	dec    %r8
   20542:	88 01                	mov    %al,(%rcx)
   20544:	48 83 c1 01          	add    $0x1,%rcx
   20548:	f6 c1 02             	test   $0x2,%cl
   2054b:	74 0f                	je     0x2055c
   2054d:	66 8b 04 0a          	mov    (%rdx,%rcx,1),%ax
   20551:	49 83 e8 02          	sub    $0x2,%r8
   20555:	66 89 01             	mov    %ax,(%rcx)
   20558:	48 83 c1 02          	add    $0x2,%rcx
   2055c:	f6 c1 04             	test   $0x4,%cl
   2055f:	74 0d                	je     0x2056e
   20561:	8b 04 0a             	mov    (%rdx,%rcx,1),%eax
   20564:	49 83 e8 04          	sub    $0x4,%r8
   20568:	89 01                	mov    %eax,(%rcx)
   2056a:	48 83 c1 04          	add    $0x4,%rcx
   2056e:	4d 8b c8             	mov    %r8,%r9
   20571:	49 c1 e9 05          	shr    $0x5,%r9
   20575:	75 50                	jne    0x205c7
   20577:	4d 8b c8             	mov    %r8,%r9
   2057a:	49 c1 e9 03          	shr    $0x3,%r9
   2057e:	74 14                	je     0x20594
   20580:	48 8b 04 0a          	mov    (%rdx,%rcx,1),%rax
   20584:	48 89 01             	mov    %rax,(%rcx)
   20587:	48 83 c1 08          	add    $0x8,%rcx
   2058b:	49 ff c9             	dec    %r9
   2058e:	75 f0                	jne    0x20580
   20590:	49 83 e0 07          	and    $0x7,%r8
   20594:	4d 85 c0             	test   %r8,%r8
   20597:	75 07                	jne    0x205a0
   20599:	49 8b c3             	mov    %r11,%rax
   2059c:	c3                   	retq   
   2059d:	66 66 90             	data16 xchg %ax,%ax
   205a0:	8a 04 0a             	mov    (%rdx,%rcx,1),%al
   205a3:	88 01                	mov    %al,(%rcx)
   205a5:	48 ff c1             	inc    %rcx
   205a8:	49 ff c8             	dec    %r8
   205ab:	75 f3                	jne    0x205a0
   205ad:	49 8b c3             	mov    %r11,%rax
   205b0:	c3                   	retq   
   205b1:	66 66 66 90          	data16 data16 xchg %ax,%ax
   205b5:	66 66 66 90          	data16 data16 xchg %ax,%ax
   205b9:	66 66 66 90          	data16 data16 xchg %ax,%ax
   205bd:	66 66 90             	data16 xchg %ax,%ax
   205c0:	66 66 66 90          	data16 data16 xchg %ax,%ax
   205c4:	66 66 90             	data16 xchg %ax,%ax
   205c7:	49 81 f9 00 08 00 00 	cmp    $0x800,%r9
   205ce:	73 42                	jae    0x20612
   205d0:	48 8b 04 0a          	mov    (%rdx,%rcx,1),%rax
   205d4:	4c 8b 54 0a 08       	mov    0x8(%rdx,%rcx,1),%r10
   205d9:	48 83 c1 20          	add    $0x20,%rcx
   205dd:	48 89 41 e0          	mov    %rax,-0x20(%rcx)
   205e1:	4c 89 51 e8          	mov    %r10,-0x18(%rcx)
   205e5:	48 8b 44 0a f0       	mov    -0x10(%rdx,%rcx,1),%rax
   205ea:	4c 8b 54 0a f8       	mov    -0x8(%rdx,%rcx,1),%r10
   205ef:	49 ff c9             	dec    %r9
   205f2:	48 89 41 f0          	mov    %rax,-0x10(%rcx)
   205f6:	4c 89 51 f8          	mov    %r10,-0x8(%rcx)
   205fa:	75 d4                	jne    0x205d0
   205fc:	49 83 e0 1f          	and    $0x1f,%r8
   20600:	e9 72 ff ff ff       	jmpq   0x20577
   20605:	66 66 66 90          	data16 data16 xchg %ax,%ax
   20609:	66 66 66 90          	data16 data16 xchg %ax,%ax
   2060d:	66 66 90             	data16 xchg %ax,%ax
   20610:	66 90                	xchg   %ax,%ax
   20612:	48 81 fa 00 10 00 00 	cmp    $0x1000,%rdx
   20619:	72 b5                	jb     0x205d0
   2061b:	b8 20 00 00 00       	mov    $0x20,%eax
   20620:	0f 18 04 0a          	prefetchnta (%rdx,%rcx,1)
   20624:	0f 18 44 0a 40       	prefetchnta 0x40(%rdx,%rcx,1)
   20629:	48 81 c1 80 00 00 00 	add    $0x80,%rcx
   20630:	ff c8                	dec    %eax
   20632:	75 ec                	jne    0x20620
   20634:	48 81 e9 00 10 00 00 	sub    $0x1000,%rcx
   2063b:	b8 40 00 00 00       	mov    $0x40,%eax
   20640:	4c 8b 0c 0a          	mov    (%rdx,%rcx,1),%r9
   20644:	4c 8b 54 0a 08       	mov    0x8(%rdx,%rcx,1),%r10
   20649:	4c 0f c3 09          	movnti %r9,(%rcx)
   2064d:	4c 0f c3 51 08       	movnti %r10,0x8(%rcx)
   20652:	4c 8b 4c 0a 10       	mov    0x10(%rdx,%rcx,1),%r9
   20657:	4c 8b 54 0a 18       	mov    0x18(%rdx,%rcx,1),%r10
   2065c:	4c 0f c3 49 10       	movnti %r9,0x10(%rcx)
   20661:	4c 0f c3 51 18       	movnti %r10,0x18(%rcx)
   20666:	4c 8b 4c 0a 20       	mov    0x20(%rdx,%rcx,1),%r9
   2066b:	4c 8b 54 0a 28       	mov    0x28(%rdx,%rcx,1),%r10
   20670:	48 83 c1 40          	add    $0x40,%rcx
   20674:	4c 0f c3 49 e0       	movnti %r9,-0x20(%rcx)
   20679:	4c 0f c3 51 e8       	movnti %r10,-0x18(%rcx)
   2067e:	4c 8b 4c 0a f0       	mov    -0x10(%rdx,%rcx,1),%r9
   20683:	4c 8b 54 0a f8       	mov    -0x8(%rdx,%rcx,1),%r10
   20688:	ff c8                	dec    %eax
   2068a:	4c 0f c3 49 f0       	movnti %r9,-0x10(%rcx)
   2068f:	4c 0f c3 51 f8       	movnti %r10,-0x8(%rcx)
   20694:	75 aa                	jne    0x20640
   20696:	49 81 e8 00 10 00 00 	sub    $0x1000,%r8
   2069d:	49 81 f8 00 10 00 00 	cmp    $0x1000,%r8
   206a4:	0f 83 71 ff ff ff    	jae    0x2061b
   206aa:	f0 80 0c 24 00       	lock orb $0x0,(%rsp)
   206af:	e9 ba fe ff ff       	jmpq   0x2056e
   206b4:	66 66 66 90          	data16 data16 xchg %ax,%ax
   206b8:	66 66 66 90          	data16 data16 xchg %ax,%ax
   206bc:	66 66 66 90          	data16 data16 xchg %ax,%ax
   206c0:	66 66 66 90          	data16 data16 xchg %ax,%ax
   206c4:	66 66 66 90          	data16 data16 xchg %ax,%ax
   206c8:	74 6f                	je     0x20739
   206ca:	49 03 c8             	add    %r8,%rcx
   206cd:	49 83 f8 08          	cmp    $0x8,%r8
   206d1:	72 61                	jb     0x20734
   206d3:	f6 c1 07             	test   $0x7,%cl
   206d6:	74 36                	je     0x2070e
   206d8:	f6 c1 01             	test   $0x1,%cl
   206db:	74 0b                	je     0x206e8
   206dd:	48 ff c9             	dec    %rcx
   206e0:	8a 04 0a             	mov    (%rdx,%rcx,1),%al
   206e3:	49 ff c8             	dec    %r8
   206e6:	88 01                	mov    %al,(%rcx)
   206e8:	f6 c1 02             	test   $0x2,%cl
   206eb:	74 0f                	je     0x206fc
   206ed:	48 83 e9 02          	sub    $0x2,%rcx
   206f1:	66 8b 04 0a          	mov    (%rdx,%rcx,1),%ax
   206f5:	49 83 e8 02          	sub    $0x2,%r8
   206f9:	66 89 01             	mov    %ax,(%rcx)
   206fc:	f6 c1 04             	test   $0x4,%cl
   206ff:	74 0d                	je     0x2070e
   20701:	48 83 e9 04          	sub    $0x4,%rcx
   20705:	8b 04 0a             	mov    (%rdx,%rcx,1),%eax
   20708:	49 83 e8 04          	sub    $0x4,%r8
   2070c:	89 01                	mov    %eax,(%rcx)
   2070e:	4d 8b c8             	mov    %r8,%r9
   20711:	49 c1 e9 05          	shr    $0x5,%r9
   20715:	75 50                	jne    0x20767
   20717:	4d 8b c8             	mov    %r8,%r9
   2071a:	49 c1 e9 03          	shr    $0x3,%r9
   2071e:	74 14                	je     0x20734
   20720:	48 83 e9 08          	sub    $0x8,%rcx
   20724:	48 8b 04 0a          	mov    (%rdx,%rcx,1),%rax
   20728:	49 ff c9             	dec    %r9
   2072b:	48 89 01             	mov    %rax,(%rcx)
   2072e:	75 f0                	jne    0x20720
   20730:	49 83 e0 07          	and    $0x7,%r8
   20734:	4d 85 c0             	test   %r8,%r8
   20737:	75 07                	jne    0x20740
   20739:	49 8b c3             	mov    %r11,%rax
   2073c:	c3                   	retq   
   2073d:	66 66 90             	data16 xchg %ax,%ax
   20740:	48 ff c9             	dec    %rcx
   20743:	8a 04 0a             	mov    (%rdx,%rcx,1),%al
   20746:	49 ff c8             	dec    %r8
   20749:	88 01                	mov    %al,(%rcx)
   2074b:	75 f3                	jne    0x20740
   2074d:	49 8b c3             	mov    %r11,%rax
   20750:	c3                   	retq   
   20751:	66 66 66 90          	data16 data16 xchg %ax,%ax
   20755:	66 66 66 90          	data16 data16 xchg %ax,%ax
   20759:	66 66 66 90          	data16 data16 xchg %ax,%ax
   2075d:	66 66 90             	data16 xchg %ax,%ax
   20760:	66 66 66 90          	data16 data16 xchg %ax,%ax
   20764:	66 66 90             	data16 xchg %ax,%ax
   20767:	49 81 f9 00 08 00 00 	cmp    $0x800,%r9
   2076e:	73 42                	jae    0x207b2
   20770:	48 8b 44 0a f8       	mov    -0x8(%rdx,%rcx,1),%rax
   20775:	4c 8b 54 0a f0       	mov    -0x10(%rdx,%rcx,1),%r10
   2077a:	48 83 e9 20          	sub    $0x20,%rcx
   2077e:	48 89 41 18          	mov    %rax,0x18(%rcx)
   20782:	4c 89 51 10          	mov    %r10,0x10(%rcx)
   20786:	48 8b 44 0a 08       	mov    0x8(%rdx,%rcx,1),%rax
   2078b:	4c 8b 14 0a          	mov    (%rdx,%rcx,1),%r10
   2078f:	49 ff c9             	dec    %r9
   20792:	48 89 41 08          	mov    %rax,0x8(%rcx)
   20796:	4c 89 11             	mov    %r10,(%rcx)
   20799:	75 d5                	jne    0x20770
   2079b:	49 83 e0 1f          	and    $0x1f,%r8
   2079f:	e9 73 ff ff ff       	jmpq   0x20717
   207a4:	66 66 66 90          	data16 data16 xchg %ax,%ax
   207a8:	66 66 66 90          	data16 data16 xchg %ax,%ax
   207ac:	66 66 66 90          	data16 data16 xchg %ax,%ax
   207b0:	66 90                	xchg   %ax,%ax
   207b2:	48 81 fa 00 f0 ff ff 	cmp    $0xfffffffffffff000,%rdx
   207b9:	77 b5                	ja     0x20770
   207bb:	b8 20 00 00 00       	mov    $0x20,%eax
   207c0:	48 81 e9 80 00 00 00 	sub    $0x80,%rcx
   207c7:	0f 18 04 0a          	prefetchnta (%rdx,%rcx,1)
   207cb:	0f 18 44 0a 40       	prefetchnta 0x40(%rdx,%rcx,1)
   207d0:	ff c8                	dec    %eax
   207d2:	75 ec                	jne    0x207c0
   207d4:	48 81 c1 00 10 00 00 	add    $0x1000,%rcx
   207db:	b8 40 00 00 00       	mov    $0x40,%eax
   207e0:	4c 8b 4c 0a f8       	mov    -0x8(%rdx,%rcx,1),%r9
   207e5:	4c 8b 54 0a f0       	mov    -0x10(%rdx,%rcx,1),%r10
   207ea:	4c 0f c3 49 f8       	movnti %r9,-0x8(%rcx)
   207ef:	4c 0f c3 51 f0       	movnti %r10,-0x10(%rcx)
   207f4:	4c 8b 4c 0a e8       	mov    -0x18(%rdx,%rcx,1),%r9
   207f9:	4c 8b 54 0a e0       	mov    -0x20(%rdx,%rcx,1),%r10
   207fe:	4c 0f c3 49 e8       	movnti %r9,-0x18(%rcx)
   20803:	4c 0f c3 51 e0       	movnti %r10,-0x20(%rcx)
   20808:	4c 8b 4c 0a d8       	mov    -0x28(%rdx,%rcx,1),%r9
   2080d:	4c 8b 54 0a d0       	mov    -0x30(%rdx,%rcx,1),%r10
   20812:	48 83 e9 40          	sub    $0x40,%rcx
   20816:	4c 0f c3 49 18       	movnti %r9,0x18(%rcx)
   2081b:	4c 0f c3 51 10       	movnti %r10,0x10(%rcx)
   20820:	4c 8b 4c 0a 08       	mov    0x8(%rdx,%rcx,1),%r9
   20825:	4c 8b 14 0a          	mov    (%rdx,%rcx,1),%r10
   20829:	ff c8                	dec    %eax
   2082b:	4c 0f c3 49 08       	movnti %r9,0x8(%rcx)
   20830:	4c 0f c3 11          	movnti %r10,(%rcx)
   20834:	75 aa                	jne    0x207e0
   20836:	49 81 e8 00 10 00 00 	sub    $0x1000,%r8
   2083d:	49 81 f8 00 10 00 00 	cmp    $0x1000,%r8
   20844:	0f 83 71 ff ff ff    	jae    0x207bb
   2084a:	f0 80 0c 24 00       	lock orb $0x0,(%rsp)
   2084f:	e9 ba fe ff ff       	jmpq   0x2070e
   20854:	cc                   	int3   
   20855:	cc                   	int3   
   20856:	cc                   	int3   
   20857:	cc                   	int3   
   20858:	cc                   	int3   
   20859:	cc                   	int3   
   2085a:	ff 25 18 18 00 00    	jmpq   *0x1818(%rip)        # 0x22078
   20860:	cc                   	int3   
   20861:	cc                   	int3   
   20862:	cc                   	int3   
   20863:	cc                   	int3   
   20864:	cc                   	int3   
   20865:	cc                   	int3   
   20866:	ff 25 14 18 00 00    	jmpq   *0x1814(%rip)        # 0x22080
   2086c:	cc                   	int3   
   2086d:	cc                   	int3   
   2086e:	cc                   	int3   
   2086f:	cc                   	int3   
   20870:	cc                   	int3   
   20871:	cc                   	int3   
   20872:	ff 25 40 18 00 00    	jmpq   *0x1840(%rip)        # 0x220b8
   20878:	cc                   	int3   
   20879:	cc                   	int3   
   2087a:	cc                   	int3   
   2087b:	cc                   	int3   
   2087c:	cc                   	int3   
   2087d:	cc                   	int3   
   2087e:	cc                   	int3   
   2087f:	cc                   	int3   
   20880:	cc                   	int3   
   20881:	cc                   	int3   
   20882:	cc                   	int3   
   20883:	cc                   	int3   
   20884:	cc                   	int3   
   20885:	cc                   	int3   
   20886:	66 66 66 90          	data16 data16 xchg %ax,%ax
   2088a:	66 66 66 90          	data16 data16 xchg %ax,%ax
   2088e:	66 90                	xchg   %ax,%ax
   20890:	48 8b c1             	mov    %rcx,%rax
   20893:	49 83 f8 08          	cmp    $0x8,%r8
   20897:	72 53                	jb     0x208ec
   20899:	0f b6 d2             	movzbl %dl,%edx
   2089c:	49 b9 01 01 01 01 01 	movabs $0x101010101010101,%r9
   208a3:	01 01 01 
   208a6:	49 0f af d1          	imul   %r9,%rdx
   208aa:	49 83 f8 40          	cmp    $0x40,%r8
   208ae:	72 1e                	jb     0x208ce
   208b0:	48 f7 d9             	neg    %rcx
   208b3:	83 e1 07             	and    $0x7,%ecx
   208b6:	74 06                	je     0x208be
   208b8:	4c 2b c1             	sub    %rcx,%r8
   208bb:	48 89 10             	mov    %rdx,(%rax)
   208be:	48 03 c8             	add    %rax,%rcx
   208c1:	4d 8b c8             	mov    %r8,%r9
   208c4:	49 83 e0 3f          	and    $0x3f,%r8
   208c8:	49 c1 e9 06          	shr    $0x6,%r9
   208cc:	75 39                	jne    0x20907
   208ce:	4d 8b c8             	mov    %r8,%r9
   208d1:	49 83 e0 07          	and    $0x7,%r8
   208d5:	49 c1 e9 03          	shr    $0x3,%r9
   208d9:	74 11                	je     0x208ec
   208db:	66 66 66 90          	data16 data16 xchg %ax,%ax
   208df:	90                   	nop
   208e0:	48 89 11             	mov    %rdx,(%rcx)
   208e3:	48 83 c1 08          	add    $0x8,%rcx
   208e7:	49 ff c9             	dec    %r9
   208ea:	75 f4                	jne    0x208e0
   208ec:	4d 85 c0             	test   %r8,%r8
   208ef:	74 0a                	je     0x208fb
   208f1:	88 11                	mov    %dl,(%rcx)
   208f3:	48 ff c1             	inc    %rcx
   208f6:	49 ff c8             	dec    %r8
   208f9:	75 f6                	jne    0x208f1
   208fb:	c3                   	retq   
   208fc:	66 66 66 90          	data16 data16 xchg %ax,%ax
   20900:	66 66 66 90          	data16 data16 xchg %ax,%ax
   20904:	66 66 90             	data16 xchg %ax,%ax
   20907:	49 81 f9 00 04 00 00 	cmp    $0x400,%r9
   2090e:	73 30                	jae    0x20940
   20910:	48 89 11             	mov    %rdx,(%rcx)
   20913:	48 89 51 08          	mov    %rdx,0x8(%rcx)
   20917:	48 89 51 10          	mov    %rdx,0x10(%rcx)
   2091b:	48 83 c1 40          	add    $0x40,%rcx
   2091f:	48 89 51 d8          	mov    %rdx,-0x28(%rcx)
   20923:	48 89 51 e0          	mov    %rdx,-0x20(%rcx)
   20927:	49 ff c9             	dec    %r9
   2092a:	48 89 51 e8          	mov    %rdx,-0x18(%rcx)
   2092e:	48 89 51 f0          	mov    %rdx,-0x10(%rcx)
   20932:	48 89 51 f8          	mov    %rdx,-0x8(%rcx)
   20936:	75 d8                	jne    0x20910
   20938:	eb 94                	jmp    0x208ce
   2093a:	66 66 90             	data16 xchg %ax,%ax
   2093d:	66 66 90             	data16 xchg %ax,%ax
   20940:	48 0f c3 11          	movnti %rdx,(%rcx)
   20944:	48 0f c3 51 08       	movnti %rdx,0x8(%rcx)
   20949:	48 0f c3 51 10       	movnti %rdx,0x10(%rcx)
   2094e:	48 83 c1 40          	add    $0x40,%rcx
   20952:	48 0f c3 51 d8       	movnti %rdx,-0x28(%rcx)
   20957:	48 0f c3 51 e0       	movnti %rdx,-0x20(%rcx)
   2095c:	49 ff c9             	dec    %r9
   2095f:	48 0f c3 51 e8       	movnti %rdx,-0x18(%rcx)
   20964:	48 0f c3 51 f0       	movnti %rdx,-0x10(%rcx)
   20969:	48 0f c3 51 f8       	movnti %rdx,-0x8(%rcx)
   2096e:	75 d0                	jne    0x20940
   20970:	f0 80 0c 24 00       	lock orb $0x0,(%rsp)
   20975:	e9 54 ff ff ff       	jmpq   0x208ce
   2097a:	cc                   	int3   
   2097b:	cc                   	int3   
   2097c:	cc                   	int3   
   2097d:	cc                   	int3   
   2097e:	cc                   	int3   
   2097f:	cc                   	int3   
   20980:	ff 25 42 17 00 00    	jmpq   *0x1742(%rip)        # 0x220c8
   20986:	cc                   	int3   
   20987:	cc                   	int3   
   20988:	cc                   	int3   
   20989:	cc                   	int3   
   2098a:	cc                   	int3   
   2098b:	cc                   	int3   
   2098c:	ff 25 76 17 00 00    	jmpq   *0x1776(%rip)        # 0x22108
   20992:	cc                   	int3   
   20993:	cc                   	int3   
   20994:	cc                   	int3   
   20995:	cc                   	int3   
   20996:	cc                   	int3   
   20997:	cc                   	int3   
   20998:	ff 25 92 17 00 00    	jmpq   *0x1792(%rip)        # 0x22130
   2099e:	cc                   	int3   
   2099f:	cc                   	int3   
   209a0:	cc                   	int3   
   209a1:	cc                   	int3   
   209a2:	cc                   	int3   
   209a3:	cc                   	int3   
   209a4:	ff 25 a6 17 00 00    	jmpq   *0x17a6(%rip)        # 0x22150
   209aa:	cc                   	int3   
   209ab:	cc                   	int3   
   209ac:	cc                   	int3   
   209ad:	cc                   	int3   
   209ae:	cc                   	int3   
   209af:	cc                   	int3   
   209b0:	ff 25 aa 17 00 00    	jmpq   *0x17aa(%rip)        # 0x22160
   209b6:	cc                   	int3   
   209b7:	cc                   	int3   
   209b8:	cc                   	int3   
   209b9:	cc                   	int3   
   209ba:	cc                   	int3   
   209bb:	cc                   	int3   
   209bc:	ff 25 a6 17 00 00    	jmpq   *0x17a6(%rip)        # 0x22168
   209c2:	cc                   	int3   
   209c3:	cc                   	int3   
   209c4:	cc                   	int3   
   209c5:	cc                   	int3   
   209c6:	cc                   	int3   
   209c7:	cc                   	int3   
   209c8:	ff 25 a2 17 00 00    	jmpq   *0x17a2(%rip)        # 0x22170
   209ce:	cc                   	int3   
   209cf:	cc                   	int3   
   209d0:	cc                   	int3   
   209d1:	cc                   	int3   
   209d2:	cc                   	int3   
   209d3:	cc                   	int3   
   209d4:	ff 25 9e 17 00 00    	jmpq   *0x179e(%rip)        # 0x22178
   209da:	cc                   	int3   
   209db:	cc                   	int3   
   209dc:	cc                   	int3   
   209dd:	cc                   	int3   
   209de:	cc                   	int3   
   209df:	cc                   	int3   
   209e0:	ff 25 c2 17 00 00    	jmpq   *0x17c2(%rip)        # 0x221a8
   209e6:	cc                   	int3   
   209e7:	cc                   	int3   
   209e8:	cc                   	int3   
   209e9:	cc                   	int3   
   209ea:	cc                   	int3   
   209eb:	cc                   	int3   
   209ec:	cc                   	int3   
   209ed:	cc                   	int3   
   209ee:	cc                   	int3   
   209ef:	cc                   	int3   
   209f0:	cc                   	int3   
   209f1:	cc                   	int3   
   209f2:	cc                   	int3   
   209f3:	cc                   	int3   
   209f4:	cc                   	int3   
   209f5:	cc                   	int3   
   209f6:	66 66 66 90          	data16 data16 xchg %ax,%ax
   209fa:	66 66 66 90          	data16 data16 xchg %ax,%ax
   209fe:	66 90                	xchg   %ax,%ax
   20a00:	48 2b d1             	sub    %rcx,%rdx
   20a03:	49 83 f8 08          	cmp    $0x8,%r8
   20a07:	72 22                	jb     0x20a2b
   20a09:	f6 c1 07             	test   $0x7,%cl
   20a0c:	74 14                	je     0x20a22
   20a0e:	66 90                	xchg   %ax,%ax
   20a10:	8a 01                	mov    (%rcx),%al
   20a12:	3a 04 0a             	cmp    (%rdx,%rcx,1),%al
   20a15:	75 2c                	jne    0x20a43
   20a17:	48 ff c1             	inc    %rcx
   20a1a:	49 ff c8             	dec    %r8
   20a1d:	f6 c1 07             	test   $0x7,%cl
   20a20:	75 ee                	jne    0x20a10
   20a22:	4d 8b c8             	mov    %r8,%r9
   20a25:	49 c1 e9 03          	shr    $0x3,%r9
   20a29:	75 1f                	jne    0x20a4a
   20a2b:	4d 85 c0             	test   %r8,%r8
   20a2e:	74 0f                	je     0x20a3f
   20a30:	8a 01                	mov    (%rcx),%al
   20a32:	3a 04 0a             	cmp    (%rdx,%rcx,1),%al
   20a35:	75 0c                	jne    0x20a43
   20a37:	48 ff c1             	inc    %rcx
   20a3a:	49 ff c8             	dec    %r8
   20a3d:	75 f1                	jne    0x20a30
   20a3f:	48 33 c0             	xor    %rax,%rax
   20a42:	c3                   	retq   
   20a43:	1b c0                	sbb    %eax,%eax
   20a45:	83 d8 ff             	sbb    $0xffffffff,%eax
   20a48:	c3                   	retq   
   20a49:	90                   	nop
   20a4a:	49 c1 e9 02          	shr    $0x2,%r9
   20a4e:	74 37                	je     0x20a87
   20a50:	48 8b 01             	mov    (%rcx),%rax
   20a53:	48 3b 04 0a          	cmp    (%rdx,%rcx,1),%rax
   20a57:	75 5b                	jne    0x20ab4
   20a59:	48 8b 41 08          	mov    0x8(%rcx),%rax
   20a5d:	48 3b 44 0a 08       	cmp    0x8(%rdx,%rcx,1),%rax
   20a62:	75 4c                	jne    0x20ab0
   20a64:	48 8b 41 10          	mov    0x10(%rcx),%rax
   20a68:	48 3b 44 0a 10       	cmp    0x10(%rdx,%rcx,1),%rax
   20a6d:	75 3d                	jne    0x20aac
   20a6f:	48 8b 41 18          	mov    0x18(%rcx),%rax
   20a73:	48 3b 44 0a 18       	cmp    0x18(%rdx,%rcx,1),%rax
   20a78:	75 2e                	jne    0x20aa8
   20a7a:	48 83 c1 20          	add    $0x20,%rcx
   20a7e:	49 ff c9             	dec    %r9
   20a81:	75 cd                	jne    0x20a50
   20a83:	49 83 e0 1f          	and    $0x1f,%r8
   20a87:	4d 8b c8             	mov    %r8,%r9
   20a8a:	49 c1 e9 03          	shr    $0x3,%r9
   20a8e:	74 9b                	je     0x20a2b
   20a90:	48 8b 01             	mov    (%rcx),%rax
   20a93:	48 3b 04 0a          	cmp    (%rdx,%rcx,1),%rax
   20a97:	75 1b                	jne    0x20ab4
   20a99:	48 83 c1 08          	add    $0x8,%rcx
   20a9d:	49 ff c9             	dec    %r9
   20aa0:	75 ee                	jne    0x20a90
   20aa2:	49 83 e0 07          	and    $0x7,%r8
   20aa6:	eb 83                	jmp    0x20a2b
   20aa8:	48 83 c1 08          	add    $0x8,%rcx
   20aac:	48 83 c1 08          	add    $0x8,%rcx
   20ab0:	48 83 c1 08          	add    $0x8,%rcx
   20ab4:	48 8b 0c 11          	mov    (%rcx,%rdx,1),%rcx
   20ab8:	48 0f c8             	bswap  %rax
   20abb:	48 0f c9             	bswap  %rcx
   20abe:	48 3b c1             	cmp    %rcx,%rax
   20ac1:	1b c0                	sbb    %eax,%eax
   20ac3:	83 d8 ff             	sbb    $0xffffffff,%eax
   20ac6:	c3                   	retq   
   20ac7:	cc                   	int3   
   20ac8:	cc                   	int3   
   20ac9:	cc                   	int3   
   20aca:	cc                   	int3   
   20acb:	cc                   	int3   
   20acc:	cc                   	int3   
   20acd:	cc                   	int3   
   20ace:	ff 25 54 17 00 00    	jmpq   *0x1754(%rip)        # 0x22228
   20ad4:	cc                   	int3   
   20ad5:	cc                   	int3   
   20ad6:	cc                   	int3   
   20ad7:	cc                   	int3   
   20ad8:	cc                   	int3   
   20ad9:	cc                   	int3   
   20ada:	ff 25 50 17 00 00    	jmpq   *0x1750(%rip)        # 0x22230
   20ae0:	cc                   	int3   
   20ae1:	cc                   	int3   
   20ae2:	cc                   	int3   
   20ae3:	cc                   	int3   
   20ae4:	cc                   	int3   
   20ae5:	cc                   	int3   
   20ae6:	ff 25 4c 17 00 00    	jmpq   *0x174c(%rip)        # 0x22238
   20aec:	cc                   	int3   
   20aed:	cc                   	int3   
   20aee:	cc                   	int3   
   20aef:	cc                   	int3   
   20af0:	cc                   	int3   
   20af1:	cc                   	int3   
   20af2:	ff 25 48 17 00 00    	jmpq   *0x1748(%rip)        # 0x22240
   20af8:	cc                   	int3   
   20af9:	cc                   	int3   
   20afa:	cc                   	int3   
   20afb:	cc                   	int3   
   20afc:	cc                   	int3   
   20afd:	cc                   	int3   
   20afe:	ff 25 44 17 00 00    	jmpq   *0x1744(%rip)        # 0x22248
   20b04:	cc                   	int3   
   20b05:	cc                   	int3   
   20b06:	cc                   	int3   
   20b07:	cc                   	int3   
   20b08:	cc                   	int3   
   20b09:	cc                   	int3   
   20b0a:	ff 25 60 17 00 00    	jmpq   *0x1760(%rip)        # 0x22270
   20b10:	5c                   	pop    %rsp
   20b11:	00 72 00             	add    %dh,0x0(%rdx)
   20b14:	65 00 67 00          	add    %ah,%gs:0x0(%rdi)
   20b18:	69 00 73 00 74 00    	imul   $0x740073,(%rax),%eax
   20b1e:	72 00                	jb     0x20b20
   20b20:	79 00                	jns    0x20b22
   20b22:	5c                   	pop    %rsp
   20b23:	00 6d 00             	add    %ch,0x0(%rbp)
   20b26:	61                   	(bad)  
   20b27:	00 63 00             	add    %ah,0x0(%rbx)
   20b2a:	68 00 69 00 6e       	pushq  $0x6e006900
   20b2f:	00 65 00             	add    %ah,0x0(%rbp)
   20b32:	5c                   	pop    %rsp
   20b33:	00 73 00             	add    %dh,0x0(%rbx)
   20b36:	6f                   	outsl  %ds:(%rsi),(%dx)
   20b37:	00 66 00             	add    %ah,0x0(%rsi)
   20b3a:	74 00                	je     0x20b3c
   20b3c:	77 00                	ja     0x20b3e
   20b3e:	61                   	(bad)  
   20b3f:	00 72 00             	add    %dh,0x0(%rdx)
   20b42:	65 00 5c 00 4d       	add    %bl,%gs:0x4d(%rax,%rax,1)
   20b47:	00 69 00             	add    %ch,0x0(%rcx)
   20b4a:	63 00                	movslq (%rax),%eax
   20b4c:	72 00                	jb     0x20b4e
   20b4e:	6f                   	outsl  %ds:(%rsi),(%dx)
   20b4f:	00 73 00             	add    %dh,0x0(%rbx)
   20b52:	6f                   	outsl  %ds:(%rsi),(%dx)
   20b53:	00 66 00             	add    %ah,0x0(%rsi)
   20b56:	74 00                	je     0x20b58
   20b58:	5c                   	pop    %rsp
   20b59:	00 57 00             	add    %dl,0x0(%rdi)
   20b5c:	69 00 6e 00 64 00    	imul   $0x64006e,(%rax),%eax
   20b62:	6f                   	outsl  %ds:(%rsi),(%dx)
   20b63:	00 77 00             	add    %dh,0x0(%rdi)
   20b66:	73 00                	jae    0x20b68
   20b68:	20 00                	and    %al,(%rax)
   20b6a:	4e 00 54 00 5c       	rex.WRX add %r10b,0x5c(%rax,%r8,1)
   20b6f:	00 43 00             	add    %al,0x0(%rbx)
   20b72:	75 00                	jne    0x20b74
   20b74:	72 00                	jb     0x20b76
   20b76:	72 00                	jb     0x20b78
   20b78:	65 00 6e 00          	add    %ch,%gs:0x0(%rsi)
   20b7c:	74 00                	je     0x20b7e
   20b7e:	56                   	push   %rsi
   20b7f:	00 65 00             	add    %ah,0x0(%rbp)
   20b82:	72 00                	jb     0x20b84
   20b84:	73 00                	jae    0x20b86
   20b86:	69 00 6f 00 6e 00    	imul   $0x6e006f,(%rax),%eax
   20b8c:	00 00                	add    %al,(%rax)
   20b8e:	cc                   	int3   
   20b8f:	cc                   	int3   
   20b90:	5c                   	pop    %rsp
   20b91:	00 72 00             	add    %dh,0x0(%rdx)
   20b94:	65 00 67 00          	add    %ah,%gs:0x0(%rdi)
   20b98:	69 00 73 00 74 00    	imul   $0x740073,(%rax),%eax
   20b9e:	72 00                	jb     0x20ba0
   20ba0:	79 00                	jns    0x20ba2
   20ba2:	5c                   	pop    %rsp
   20ba3:	00 6d 00             	add    %ch,0x0(%rbp)
   20ba6:	61                   	(bad)  
   20ba7:	00 63 00             	add    %ah,0x0(%rbx)
   20baa:	68 00 69 00 6e       	pushq  $0x6e006900
   20baf:	00 65 00             	add    %ah,0x0(%rbp)
   20bb2:	5c                   	pop    %rsp
   20bb3:	00 53 00             	add    %dl,0x0(%rbx)
   20bb6:	59                   	pop    %rcx
   20bb7:	00 53 00             	add    %dl,0x0(%rbx)
   20bba:	54                   	push   %rsp
   20bbb:	00 45 00             	add    %al,0x0(%rbp)
   20bbe:	4d 00 5c 00 43       	rex.WRB add %r11b,0x43(%r8,%rax,1)
   20bc3:	00 6f 00             	add    %ch,0x0(%rdi)
   20bc6:	6e                   	outsb  %ds:(%rsi),(%dx)
   20bc7:	00 74 00 72          	add    %dh,0x72(%rax,%rax,1)
   20bcb:	00 6f 00             	add    %ch,0x0(%rdi)
   20bce:	6c                   	insb   (%dx),%es:(%rdi)
   20bcf:	00 53 00             	add    %dl,0x0(%rbx)
   20bd2:	65 00 74 00 30       	add    %dh,%gs:0x30(%rax,%rax,1)
   20bd7:	00 30                	add    %dh,(%rax)
   20bd9:	00 31                	add    %dh,(%rcx)
   20bdb:	00 5c 00 43          	add    %bl,0x43(%rax,%rax,1)
   20bdf:	00 6f 00             	add    %ch,0x0(%rdi)
   20be2:	6e                   	outsb  %ds:(%rsi),(%dx)
   20be3:	00 74 00 72          	add    %dh,0x72(%rax,%rax,1)
   20be7:	00 6f 00             	add    %ch,0x0(%rdi)
   20bea:	6c                   	insb   (%dx),%es:(%rdi)
   20beb:	00 5c 00 53          	add    %bl,0x53(%rax,%rax,1)
   20bef:	00 65 00             	add    %ah,0x0(%rbp)
   20bf2:	73 00                	jae    0x20bf4
   20bf4:	73 00                	jae    0x20bf6
   20bf6:	69 00 6f 00 6e 00    	imul   $0x6e006f,(%rax),%eax
   20bfc:	20 00                	and    %al,(%rax)
   20bfe:	4d 00 61 00          	rex.WRB add %r12b,0x0(%r9)
   20c02:	6e                   	outsb  %ds:(%rsi),(%dx)
   20c03:	00 61 00             	add    %ah,0x0(%rcx)
   20c06:	67 00 65 00          	add    %ah,0x0(%ebp)
   20c0a:	72 00                	jb     0x20c0c
   20c0c:	5c                   	pop    %rsp
   20c0d:	00 45 00             	add    %al,0x0(%rbp)
   20c10:	6e                   	outsb  %ds:(%rsi),(%dx)
   20c11:	00 76 00             	add    %dh,0x0(%rsi)
   20c14:	69 00 72 00 6f 00    	imul   $0x6f0072,(%rax),%eax
   20c1a:	6e                   	outsb  %ds:(%rsi),(%dx)
   20c1b:	00 6d 00             	add    %ch,0x0(%rbp)
   20c1e:	65 00 6e 00          	add    %ch,%gs:0x0(%rsi)
   20c22:	74 00                	je     0x20c24
   20c24:	00 00                	add    %al,(%rax)
   20c26:	cc                   	int3   
   20c27:	cc                   	int3   
   20c28:	cc                   	int3   
   20c29:	cc                   	int3   
   20c2a:	cc                   	int3   
   20c2b:	cc                   	int3   
   20c2c:	cc                   	int3   
   20c2d:	cc                   	int3   
   20c2e:	cc                   	int3   
   20c2f:	cc                   	int3   
   20c30:	54                   	push   %rsp
   20c31:	00 45 00             	add    %al,0x0(%rbp)
   20c34:	4d 00 50 00          	rex.WRB add %r10b,0x0(%r8)
   20c38:	00 00                	add    %al,(%rax)
   20c3a:	cc                   	int3   
   20c3b:	cc                   	int3   
   20c3c:	cc                   	int3   
   20c3d:	cc                   	int3   
   20c3e:	cc                   	int3   
   20c3f:	cc                   	int3   
   20c40:	25 00 00 00 cc       	and    $0xcc000000,%eax
   20c45:	cc                   	int3   
   20c46:	cc                   	int3   
   20c47:	cc                   	int3   
   20c48:	cc                   	int3   
   20c49:	cc                   	int3   
   20c4a:	cc                   	int3   
   20c4b:	cc                   	int3   
   20c4c:	cc                   	int3   
   20c4d:	cc                   	int3   
   20c4e:	cc                   	int3   
   20c4f:	cc                   	int3   
   20c50:	5c                   	pop    %rsp
   20c51:	00 00                	add    %al,(%rax)
   20c53:	00 cc                	add    %cl,%ah
   20c55:	cc                   	int3   
   20c56:	cc                   	int3   
   20c57:	cc                   	int3   
   20c58:	cc                   	int3   
   20c59:	cc                   	int3   
   20c5a:	cc                   	int3   
   20c5b:	cc                   	int3   
   20c5c:	cc                   	int3   
   20c5d:	cc                   	int3   
   20c5e:	cc                   	int3   
   20c5f:	cc                   	int3   
   20c60:	5c                   	pop    %rsp
   20c61:	00 3f                	add    %bh,(%rdi)
   20c63:	00 3f                	add    %bh,(%rdi)
   20c65:	00 5c 00 00          	add    %bl,0x0(%rax,%rax,1)
	...

Disassembly of section .msda:

0000000000021000 <.msda>:
	...
   21008:	b0 55                	mov    $0x55,%al
   2100a:	c3                   	retq   
   2100b:	cc                   	int3   
   2100c:	cc                   	int3   
   2100d:	cc                   	int3   
   2100e:	cc                   	int3   
   2100f:	cc                   	int3   
   21010:	cc                   	int3   
   21011:	cc                   	int3   
   21012:	cc                   	int3   
   21013:	cc                   	int3   
   21014:	48 8b 04 24          	mov    (%rsp),%rax
   21018:	c3                   	retq   
   21019:	cc                   	int3   
   2101a:	cc                   	int3   
   2101b:	cc                   	int3   
   2101c:	cc                   	int3   
   2101d:	cc                   	int3   
   2101e:	cc                   	int3   
   2101f:	cc                   	int3   
   21020:	48 83 ec 28          	sub    $0x28,%rsp
   21024:	e8 eb ff ff ff       	callq  0x21014
   21029:	48 8d 15 f0 ff ff ff 	lea    -0x10(%rip),%rdx        # 0x21020
   21030:	48 8b c8             	mov    %rax,%rcx
   21033:	48 8d 05 ce ff ff ff 	lea    -0x32(%rip),%rax        # 0x21008
   2103a:	48 2b c2             	sub    %rdx,%rax
   2103d:	48 8b 44 01 ef       	mov    -0x11(%rcx,%rax,1),%rax
   21042:	48 83 c4 28          	add    $0x28,%rsp
   21046:	c3                   	retq   
   21047:	cc                   	int3   
   21048:	cc                   	int3   
   21049:	cc                   	int3   
   2104a:	cc                   	int3   
   2104b:	cc                   	int3   
   2104c:	cc                   	int3   
   2104d:	cc                   	int3   
   2104e:	cc                   	int3   
   2104f:	cc                   	int3   
   21050:	48 89 5c 24 08       	mov    %rbx,0x8(%rsp)
   21055:	48 89 74 24 10       	mov    %rsi,0x10(%rsp)
   2105a:	57                   	push   %rdi
   2105b:	48 83 ec 20          	sub    $0x20,%rsp
   2105f:	48 8b f2             	mov    %rdx,%rsi
   21062:	8b f9                	mov    %ecx,%edi
   21064:	e8 b7 ff ff ff       	callq  0x21020
   21069:	48 83 78 30 00       	cmpq   $0x0,0x30(%rax)
   2106e:	48 8b d8             	mov    %rax,%rbx
   21071:	75 02                	jne    0x21075
   21073:	eb fe                	jmp    0x21073
   21075:	f0 83 40 2c 01       	lock addl $0x1,0x2c(%rax)
   2107a:	8b c7                	mov    %edi,%eax
   2107c:	83 e8 01             	sub    $0x1,%eax
   2107f:	74 0c                	je     0x2108d
   21081:	83 e8 0c             	sub    $0xc,%eax
   21084:	74 56                	je     0x210dc
   21086:	3d 06 c0 00 00       	cmp    $0xc006,%eax
   2108b:	75 28                	jne    0x210b5
   2108d:	48 8b 43 30          	mov    0x30(%rbx),%rax
   21091:	48 8b d6             	mov    %rsi,%rdx
   21094:	b9 0d 00 00 00       	mov    $0xd,%ecx
   21099:	ff 50 01             	callq  *0x1(%rax)
   2109c:	48 85 c0             	test   %rax,%rax
   2109f:	74 14                	je     0x210b5
   210a1:	83 7b 28 00          	cmpl   $0x0,0x28(%rbx)
   210a5:	74 0e                	je     0x210b5
   210a7:	4c 8b c6             	mov    %rsi,%r8
   210aa:	ba 0d 00 00 00       	mov    $0xd,%edx
   210af:	48 8b c8             	mov    %rax,%rcx
   210b2:	ff 53 08             	callq  *0x8(%rbx)
   210b5:	48 8b 43 30          	mov    0x30(%rbx),%rax
   210b9:	48 8b d6             	mov    %rsi,%rdx
   210bc:	8b cf                	mov    %edi,%ecx
   210be:	ff 50 01             	callq  *0x1(%rax)
   210c1:	48 8b f8             	mov    %rax,%rdi
   210c4:	f0 83 43 2c ff       	lock addl $0xffffffff,0x2c(%rbx)
   210c9:	48 8b 5c 24 30       	mov    0x30(%rsp),%rbx
   210ce:	48 8b 74 24 38       	mov    0x38(%rsp),%rsi
   210d3:	48 8b c7             	mov    %rdi,%rax
   210d6:	48 83 c4 20          	add    $0x20,%rsp
   210da:	5f                   	pop    %rdi
   210db:	c3                   	retq   
   210dc:	48 8b 43 30          	mov    0x30(%rbx),%rax
   210e0:	48 8b d6             	mov    %rsi,%rdx
   210e3:	b9 0d 00 00 00       	mov    $0xd,%ecx
   210e8:	ff 50 01             	callq  *0x1(%rax)
   210eb:	48 85 c0             	test   %rax,%rax
   210ee:	48 8b f8             	mov    %rax,%rdi
   210f1:	74 d1                	je     0x210c4
   210f3:	83 7b 28 00          	cmpl   $0x0,0x28(%rbx)
   210f7:	74 cb                	je     0x210c4
   210f9:	4c 8b c6             	mov    %rsi,%r8
   210fc:	ba 0d 00 00 00       	mov    $0xd,%edx
   21101:	48 8b c8             	mov    %rax,%rcx
   21104:	ff 53 08             	callq  *0x8(%rbx)
   21107:	eb bb                	jmp    0x210c4
   21109:	cc                   	int3   
   2110a:	cc                   	int3   
   2110b:	cc                   	int3   
   2110c:	cc                   	int3   
   2110d:	cc                   	int3   
   2110e:	cc                   	int3   
   2110f:	cc                   	int3   
   21110:	48 89 5c 24 08       	mov    %rbx,0x8(%rsp)
   21115:	57                   	push   %rdi
   21116:	48 83 ec 20          	sub    $0x20,%rsp
   2111a:	4c 8b d2             	mov    %rdx,%r10
   2111d:	4c 8b d9             	mov    %rcx,%r11
   21120:	e8 fb fe ff ff       	callq  0x21020
   21125:	4c 8b 48 18          	mov    0x18(%rax),%r9
   21129:	49 8b d2             	mov    %r10,%rdx
   2112c:	49 8b cb             	mov    %r11,%rcx
   2112f:	48 8b f8             	mov    %rax,%rdi
   21132:	41 ff 51 15          	callq  *0x15(%r9)
   21136:	48 85 c0             	test   %rax,%rax
   21139:	48 8b d8             	mov    %rax,%rbx
   2113c:	74 08                	je     0x21146
   2113e:	48 8b 10             	mov    (%rax),%rdx
   21141:	48 8b c8             	mov    %rax,%rcx
   21144:	ff 17                	callq  *(%rdi)
   21146:	48 8b c3             	mov    %rbx,%rax
   21149:	48 8b 5c 24 30       	mov    0x30(%rsp),%rbx
   2114e:	48 83 c4 20          	add    $0x20,%rsp
   21152:	5f                   	pop    %rdi
   21153:	c3                   	retq   
   21154:	cc                   	int3   
   21155:	cc                   	int3   
   21156:	cc                   	int3   
   21157:	cc                   	int3   
   21158:	cc                   	int3   
   21159:	cc                   	int3   
   2115a:	cc                   	int3   
   2115b:	cc                   	int3   
   2115c:	48 89 5c 24 08       	mov    %rbx,0x8(%rsp)
   21161:	48 89 6c 24 10       	mov    %rbp,0x10(%rsp)
   21166:	48 89 74 24 18       	mov    %rsi,0x18(%rsp)
   2116b:	57                   	push   %rdi
   2116c:	48 83 ec 20          	sub    $0x20,%rsp
   21170:	8b ea                	mov    %edx,%ebp
   21172:	48 8b f9             	mov    %rcx,%rdi
   21175:	e8 a6 fe ff ff       	callq  0x21020
   2117a:	48 8b d8             	mov    %rax,%rbx
   2117d:	48 8b 40 10          	mov    0x10(%rax),%rax
   21181:	48 85 c0             	test   %rax,%rax
   21184:	75 02                	jne    0x21188
   21186:	eb fe                	jmp    0x21186
   21188:	8b d5                	mov    %ebp,%edx
   2118a:	48 8b cf             	mov    %rdi,%rcx
   2118d:	ff 50 01             	callq  *0x1(%rax)
   21190:	8b f0                	mov    %eax,%esi
   21192:	f0 83 43 2c 01       	lock addl $0x1,0x2c(%rbx)
   21197:	85 c0                	test   %eax,%eax
   21199:	7e 13                	jle    0x211ae
   2119b:	83 7b 28 00          	cmpl   $0x0,0x28(%rbx)
   2119f:	74 0d                	je     0x211ae
   211a1:	48 85 ff             	test   %rdi,%rdi
   211a4:	74 08                	je     0x211ae
   211a6:	48 8b d5             	mov    %rbp,%rdx
   211a9:	48 8b cf             	mov    %rdi,%rcx
   211ac:	ff 13                	callq  *(%rbx)
   211ae:	f0 83 43 2c ff       	lock addl $0xffffffff,0x2c(%rbx)
   211b3:	48 8b 5c 24 30       	mov    0x30(%rsp),%rbx
   211b8:	48 8b 6c 24 38       	mov    0x38(%rsp),%rbp
   211bd:	8b c6                	mov    %esi,%eax
   211bf:	48 8b 74 24 40       	mov    0x40(%rsp),%rsi
   211c4:	48 83 c4 20          	add    $0x20,%rsp
   211c8:	5f                   	pop    %rdi
   211c9:	c3                   	retq   
   211ca:	cc                   	int3   
   211cb:	cc                   	int3   
   211cc:	cc                   	int3   
   211cd:	cc                   	int3   
   211ce:	cc                   	int3   
   211cf:	cc                   	int3   
   211d0:	48 8b c4             	mov    %rsp,%rax
   211d3:	48 89 58 08          	mov    %rbx,0x8(%rax)
   211d7:	48 89 68 10          	mov    %rbp,0x10(%rax)
   211db:	48 89 70 18          	mov    %rsi,0x18(%rax)
   211df:	48 89 78 20          	mov    %rdi,0x20(%rax)
   211e3:	41 54                	push   %r12
   211e5:	48 83 ec 30          	sub    $0x30,%rsp
   211e9:	8b f2                	mov    %edx,%esi
   211eb:	48 8b f9             	mov    %rcx,%rdi
   211ee:	e8 2d fe ff ff       	callq  0x21020
   211f3:	48 83 78 20 00       	cmpq   $0x0,0x20(%rax)
   211f8:	48 8b d8             	mov    %rax,%rbx
   211fb:	75 02                	jne    0x211ff
   211fd:	eb fe                	jmp    0x211fd
   211ff:	f0 83 40 2c 01       	lock addl $0x1,0x2c(%rax)
   21204:	48 8b 40 20          	mov    0x20(%rax),%rax
   21208:	44 8b 64 24 60       	mov    0x60(%rsp),%r12d
   2120d:	8b d6                	mov    %esi,%edx
   2120f:	48 8b cf             	mov    %rdi,%rcx
   21212:	44 89 64 24 20       	mov    %r12d,0x20(%rsp)
   21217:	ff 50 01             	callq  *0x1(%rax)
   2121a:	85 c0                	test   %eax,%eax
   2121c:	8b e8                	mov    %eax,%ebp
   2121e:	74 19                	je     0x21239
   21220:	83 7b 28 00          	cmpl   $0x0,0x28(%rbx)
   21224:	74 13                	je     0x21239
   21226:	48 85 ff             	test   %rdi,%rdi
   21229:	74 0e                	je     0x21239
   2122b:	41 f6 c4 01          	test   $0x1,%r12b
   2122f:	74 08                	je     0x21239
   21231:	48 8b d6             	mov    %rsi,%rdx
   21234:	48 8b cf             	mov    %rdi,%rcx
   21237:	ff 13                	callq  *(%rbx)
   21239:	f0 83 43 2c ff       	lock addl $0xffffffff,0x2c(%rbx)
   2123e:	48 8b 5c 24 40       	mov    0x40(%rsp),%rbx
   21243:	48 8b 74 24 50       	mov    0x50(%rsp),%rsi
   21248:	48 8b 7c 24 58       	mov    0x58(%rsp),%rdi
   2124d:	8b c5                	mov    %ebp,%eax
   2124f:	48 8b 6c 24 48       	mov    0x48(%rsp),%rbp
   21254:	48 83 c4 30          	add    $0x30,%rsp
   21258:	41 5c                	pop    %r12
   2125a:	c3                   	retq   
   2125b:	cc                   	int3   
   2125c:	cc                   	int3   
   2125d:	cc                   	int3   
   2125e:	cc                   	int3   
   2125f:	cc                   	int3   
   21260:	cc                   	int3   
   21261:	cc                   	int3   
   21262:	cc                   	int3   
   21263:	cc                   	int3   
   21264:	b0 aa                	mov    $0xaa,%al
   21266:	c3                   	retq   

Disassembly of section INIT:

000000000003b000 <INIT>:
   3b000:	28 b0 02 00 00 00    	sub    %dh,0x2(%rax)
   3b006:	00 00                	add    %al,(%rax)
   3b008:	00 00                	add    %al,(%rax)
   3b00a:	00 00                	add    %al,(%rax)
   3b00c:	b4 b3                	mov    $0xb3,%ah
   3b00e:	02 00                	add    (%rax),%al
   3b010:	00 20                	add    %ah,(%rax)
   3b012:	01 00                	add    %eax,(%rax)
	...
   3b028:	a8 b2                	test   $0xb2,%al
   3b02a:	02 00                	add    (%rax),%al
   3b02c:	00 00                	add    %al,(%rax)
   3b02e:	00 00                	add    %al,(%rax)
   3b030:	be b2 02 00 00       	mov    $0x2b2,%esi
   3b035:	00 00                	add    %al,(%rax)
   3b037:	00 d2                	add    %dl,%dl
   3b039:	b2 02                	mov    $0x2,%dl
   3b03b:	00 00                	add    %al,(%rax)
   3b03d:	00 00                	add    %al,(%rax)
   3b03f:	00 f4                	add    %dh,%ah
   3b041:	b2 02                	mov    $0x2,%dl
   3b043:	00 00                	add    %al,(%rax)
   3b045:	00 00                	add    %al,(%rax)
   3b047:	00 0c b3             	add    %cl,(%rbx,%rsi,4)
   3b04a:	02 00                	add    (%rax),%al
   3b04c:	00 00                	add    %al,(%rax)
   3b04e:	00 00                	add    %al,(%rax)
   3b050:	26 b3 02             	es mov $0x2,%bl
   3b053:	00 00                	add    %al,(%rax)
   3b055:	00 00                	add    %al,(%rax)
   3b057:	00 30                	add    %dh,(%rax)
   3b059:	b3 02                	mov    $0x2,%bl
   3b05b:	00 00                	add    %al,(%rax)
   3b05d:	00 00                	add    %al,(%rax)
   3b05f:	00 54 b3 02          	add    %dl,0x2(%rbx,%rsi,4)
   3b063:	00 00                	add    %al,(%rax)
   3b065:	00 00                	add    %al,(%rax)
   3b067:	00 6e b3             	add    %ch,-0x4d(%rsi)
   3b06a:	02 00                	add    (%rax),%al
   3b06c:	00 00                	add    %al,(%rax)
   3b06e:	00 00                	add    %al,(%rax)
   3b070:	84 b3 02 00 00 00    	test   %dh,0x2(%rbx)
   3b076:	00 00                	add    %al,(%rax)
   3b078:	9a                   	(bad)  
   3b079:	b3 02                	mov    $0x2,%bl
   3b07b:	00 00                	add    %al,(%rax)
   3b07d:	00 00                	add    %al,(%rax)
   3b07f:	00 c2                	add    %al,%dl
   3b081:	b3 02                	mov    $0x2,%bl
   3b083:	00 00                	add    %al,(%rax)
   3b085:	00 00                	add    %al,(%rax)
   3b087:	00 e4                	add    %ah,%ah
   3b089:	b3 02                	mov    $0x2,%bl
   3b08b:	00 00                	add    %al,(%rax)
   3b08d:	00 00                	add    %al,(%rax)
   3b08f:	00 fc                	add    %bh,%ah
   3b091:	b3 02                	mov    $0x2,%bl
   3b093:	00 00                	add    %al,(%rax)
   3b095:	00 00                	add    %al,(%rax)
   3b097:	00 14 b4             	add    %dl,(%rsp,%rsi,4)
   3b09a:	02 00                	add    (%rax),%al
   3b09c:	00 00                	add    %al,(%rax)
   3b09e:	00 00                	add    %al,(%rax)
   3b0a0:	30 b4 02 00 00 00 00 	xor    %dh,0x0(%rdx,%rax,1)
   3b0a7:	00 4e b4             	add    %cl,-0x4c(%rsi)
   3b0aa:	02 00                	add    (%rax),%al
   3b0ac:	00 00                	add    %al,(%rax)
   3b0ae:	00 00                	add    %al,(%rax)
   3b0b0:	5a                   	pop    %rdx
   3b0b1:	b4 02                	mov    $0x2,%ah
   3b0b3:	00 00                	add    %al,(%rax)
   3b0b5:	00 00                	add    %al,(%rax)
   3b0b7:	00 68 b4             	add    %ch,-0x4c(%rax)
   3b0ba:	02 00                	add    (%rax),%al
   3b0bc:	00 00                	add    %al,(%rax)
   3b0be:	00 00                	add    %al,(%rax)
   3b0c0:	7c b4                	jl     0x3b076
   3b0c2:	02 00                	add    (%rax),%al
   3b0c4:	00 00                	add    %al,(%rax)
   3b0c6:	00 00                	add    %al,(%rax)
   3b0c8:	98                   	cwtl   
   3b0c9:	b4 02                	mov    $0x2,%ah
   3b0cb:	00 00                	add    %al,(%rax)
   3b0cd:	00 00                	add    %al,(%rax)
   3b0cf:	00 b2 b4 02 00 00    	add    %dh,0x2b4(%rdx)
   3b0d5:	00 00                	add    %al,(%rax)
   3b0d7:	00 c4                	add    %al,%ah
   3b0d9:	b4 02                	mov    $0x2,%ah
   3b0db:	00 00                	add    %al,(%rax)
   3b0dd:	00 00                	add    %al,(%rax)
   3b0df:	00 da                	add    %bl,%dl
   3b0e1:	b4 02                	mov    $0x2,%ah
   3b0e3:	00 00                	add    %al,(%rax)
   3b0e5:	00 00                	add    %al,(%rax)
   3b0e7:	00 e4                	add    %ah,%ah
   3b0e9:	b4 02                	mov    $0x2,%ah
   3b0eb:	00 00                	add    %al,(%rax)
   3b0ed:	00 00                	add    %al,(%rax)
   3b0ef:	00 fc                	add    %bh,%ah
   3b0f1:	b4 02                	mov    $0x2,%ah
   3b0f3:	00 00                	add    %al,(%rax)
   3b0f5:	00 00                	add    %al,(%rax)
   3b0f7:	00 0e                	add    %cl,(%rsi)
   3b0f9:	b5 02                	mov    $0x2,%ch
   3b0fb:	00 00                	add    %al,(%rax)
   3b0fd:	00 00                	add    %al,(%rax)
   3b0ff:	00 18                	add    %bl,(%rax)
   3b101:	b5 02                	mov    $0x2,%ch
   3b103:	00 00                	add    %al,(%rax)
   3b105:	00 00                	add    %al,(%rax)
   3b107:	00 34 b5 02 00 00 00 	add    %dh,0x2(,%rsi,4)
   3b10e:	00 00                	add    %al,(%rax)
   3b110:	4c b5 02             	rex.WR mov $0x2,%bpl
   3b113:	00 00                	add    %al,(%rax)
   3b115:	00 00                	add    %al,(%rax)
   3b117:	00 66 b5             	add    %ah,-0x4b(%rsi)
   3b11a:	02 00                	add    (%rax),%al
   3b11c:	00 00                	add    %al,(%rax)
   3b11e:	00 00                	add    %al,(%rax)
   3b120:	78 b5                	js     0x3b0d7
   3b122:	02 00                	add    (%rax),%al
   3b124:	00 00                	add    %al,(%rax)
   3b126:	00 00                	add    %al,(%rax)
   3b128:	88 b5 02 00 00 00    	mov    %dh,0x2(%rbp)
   3b12e:	00 00                	add    %al,(%rax)
   3b130:	a2 b5 02 00 00 00 00 	movabs %al,0xbe000000000002b5
   3b137:	00 be 
   3b139:	b5 02                	mov    $0x2,%ch
   3b13b:	00 00                	add    %al,(%rax)
   3b13d:	00 00                	add    %al,(%rax)
   3b13f:	00 d4                	add    %dl,%ah
   3b141:	b5 02                	mov    $0x2,%ch
   3b143:	00 00                	add    %al,(%rax)
   3b145:	00 00                	add    %al,(%rax)
   3b147:	00 ec                	add    %ch,%ah
   3b149:	b5 02                	mov    $0x2,%ch
   3b14b:	00 00                	add    %al,(%rax)
   3b14d:	00 00                	add    %al,(%rax)
   3b14f:	00 00                	add    %al,(%rax)
   3b151:	b6 02                	mov    $0x2,%dh
   3b153:	00 00                	add    %al,(%rax)
   3b155:	00 00                	add    %al,(%rax)
   3b157:	00 18                	add    %bl,(%rax)
   3b159:	b6 02                	mov    $0x2,%dh
   3b15b:	00 00                	add    %al,(%rax)
   3b15d:	00 00                	add    %al,(%rax)
   3b15f:	00 32                	add    %dh,(%rdx)
   3b161:	b6 02                	mov    $0x2,%dh
   3b163:	00 00                	add    %al,(%rax)
   3b165:	00 00                	add    %al,(%rax)
   3b167:	00 4a b6             	add    %cl,-0x4a(%rdx)
   3b16a:	02 00                	add    (%rax),%al
   3b16c:	00 00                	add    %al,(%rax)
   3b16e:	00 00                	add    %al,(%rax)
   3b170:	5c                   	pop    %rsp
   3b171:	b6 02                	mov    $0x2,%dh
   3b173:	00 00                	add    %al,(%rax)
   3b175:	00 00                	add    %al,(%rax)
   3b177:	00 74 b6 02          	add    %dh,0x2(%rsi,%rsi,4)
   3b17b:	00 00                	add    %al,(%rax)
   3b17d:	00 00                	add    %al,(%rax)
   3b17f:	00 8e b6 02 00 00    	add    %cl,0x2b6(%rsi)
   3b185:	00 00                	add    %al,(%rax)
   3b187:	00 a6 b6 02 00 00    	add    %ah,0x2b6(%rsi)
   3b18d:	00 00                	add    %al,(%rax)
   3b18f:	00 bc b6 02 00 00 00 	add    %bh,0x2(%rsi,%rsi,4)
   3b196:	00 00                	add    %al,(%rax)
   3b198:	d4                   	(bad)  
   3b199:	b6 02                	mov    $0x2,%dh
   3b19b:	00 00                	add    %al,(%rax)
   3b19d:	00 00                	add    %al,(%rax)
   3b19f:	00 e6                	add    %ah,%dh
   3b1a1:	b6 02                	mov    $0x2,%dh
   3b1a3:	00 00                	add    %al,(%rax)
   3b1a5:	00 00                	add    %al,(%rax)
   3b1a7:	00 f8                	add    %bh,%al
   3b1a9:	b6 02                	mov    $0x2,%dh
   3b1ab:	00 00                	add    %al,(%rax)
   3b1ad:	00 00                	add    %al,(%rax)
   3b1af:	00 10                	add    %dl,(%rax)
   3b1b1:	b7 02                	mov    $0x2,%bh
   3b1b3:	00 00                	add    %al,(%rax)
   3b1b5:	00 00                	add    %al,(%rax)
   3b1b7:	00 28                	add    %ch,(%rax)
   3b1b9:	b7 02                	mov    $0x2,%bh
   3b1bb:	00 00                	add    %al,(%rax)
   3b1bd:	00 00                	add    %al,(%rax)
   3b1bf:	00 40 b7             	add    %al,-0x49(%rax)
   3b1c2:	02 00                	add    (%rax),%al
   3b1c4:	00 00                	add    %al,(%rax)
   3b1c6:	00 00                	add    %al,(%rax)
   3b1c8:	4e b7 02             	rex.WRX mov $0x2,%dil
   3b1cb:	00 00                	add    %al,(%rax)
   3b1cd:	00 00                	add    %al,(%rax)
   3b1cf:	00 60 b7             	add    %ah,-0x49(%rax)
   3b1d2:	02 00                	add    (%rax),%al
   3b1d4:	00 00                	add    %al,(%rax)
   3b1d6:	00 00                	add    %al,(%rax)
   3b1d8:	78 b7                	js     0x3b191
   3b1da:	02 00                	add    (%rax),%al
   3b1dc:	00 00                	add    %al,(%rax)
   3b1de:	00 00                	add    %al,(%rax)
   3b1e0:	94                   	xchg   %eax,%esp
   3b1e1:	b7 02                	mov    $0x2,%bh
   3b1e3:	00 00                	add    %al,(%rax)
   3b1e5:	00 00                	add    %al,(%rax)
   3b1e7:	00 ae b7 02 00 00    	add    %ch,0x2b7(%rsi)
   3b1ed:	00 00                	add    %al,(%rax)
   3b1ef:	00 ce                	add    %cl,%dh
   3b1f1:	b7 02                	mov    $0x2,%bh
   3b1f3:	00 00                	add    %al,(%rax)
   3b1f5:	00 00                	add    %al,(%rax)
   3b1f7:	00 ec                	add    %ch,%ah
   3b1f9:	b7 02                	mov    $0x2,%bh
   3b1fb:	00 00                	add    %al,(%rax)
   3b1fd:	00 00                	add    %al,(%rax)
   3b1ff:	00 fc                	add    %bh,%ah
   3b201:	b7 02                	mov    $0x2,%bh
   3b203:	00 00                	add    %al,(%rax)
   3b205:	00 00                	add    %al,(%rax)
   3b207:	00 10                	add    %dl,(%rax)
   3b209:	b8 02 00 00 00       	mov    $0x2,%eax
   3b20e:	00 00                	add    %al,(%rax)
   3b210:	24 b8                	and    $0xb8,%al
   3b212:	02 00                	add    (%rax),%al
   3b214:	00 00                	add    %al,(%rax)
   3b216:	00 00                	add    %al,(%rax)
   3b218:	34 b8                	xor    $0xb8,%al
   3b21a:	02 00                	add    (%rax),%al
   3b21c:	00 00                	add    %al,(%rax)
   3b21e:	00 00                	add    %al,(%rax)
   3b220:	4a b8 02 00 00 00 00 	rex.WX movabs $0xb860000000000002,%rax
   3b227:	00 60 b8 
   3b22a:	02 00                	add    (%rax),%al
   3b22c:	00 00                	add    %al,(%rax)
   3b22e:	00 00                	add    %al,(%rax)
   3b230:	70 b8                	jo     0x3b1ea
   3b232:	02 00                	add    (%rax),%al
   3b234:	00 00                	add    %al,(%rax)
   3b236:	00 00                	add    %al,(%rax)
   3b238:	82                   	(bad)  
   3b239:	b8 02 00 00 00       	mov    $0x2,%eax
   3b23e:	00 00                	add    %al,(%rax)
   3b240:	9c                   	pushfq 
   3b241:	b8 02 00 00 00       	mov    $0x2,%eax
   3b246:	00 00                	add    %al,(%rax)
   3b248:	b0 b8                	mov    $0xb8,%al
   3b24a:	02 00                	add    (%rax),%al
   3b24c:	00 00                	add    %al,(%rax)
   3b24e:	00 00                	add    %al,(%rax)
   3b250:	be b8 02 00 00       	mov    $0x2b8,%esi
   3b255:	00 00                	add    %al,(%rax)
   3b257:	00 c8                	add    %cl,%al
   3b259:	b8 02 00 00 00       	mov    $0x2,%eax
   3b25e:	00 00                	add    %al,(%rax)
   3b260:	d2 b8 02 00 00 00    	sarb   %cl,0x2(%rax)
   3b266:	00 00                	add    %al,(%rax)
   3b268:	e8 b8 02 00 00       	callq  0x3b525
   3b26d:	00 00                	add    %al,(%rax)
   3b26f:	00 f4                	add    %dh,%ah
   3b271:	b8 02 00 00 00       	mov    $0x2,%eax
   3b276:	00 00                	add    %al,(%rax)
   3b278:	fe                   	(bad)  
   3b279:	b8 02 00 00 00       	mov    $0x2,%eax
   3b27e:	00 00                	add    %al,(%rax)
   3b280:	18 b9 02 00 00 00    	sbb    %bh,0x2(%rcx)
   3b286:	00 00                	add    %al,(%rax)
   3b288:	30 b9 02 00 00 00    	xor    %bh,0x2(%rcx)
   3b28e:	00 00                	add    %al,(%rax)
   3b290:	40 b9 02 00 00 00    	rex mov $0x2,%ecx
   3b296:	00 00                	add    %al,(%rax)
   3b298:	52                   	push   %rdx
   3b299:	b9 02 00 00 00       	mov    $0x2,%ecx
	...
   3b2a6:	00 00                	add    %al,(%rax)
   3b2a8:	42 03 4f 62          	rex.X add 0x62(%rdi),%ecx
   3b2ac:	47                   	rex.RXB
   3b2ad:	65 74 4f             	gs je  0x3b2ff
   3b2b0:	62                   	(bad)  
   3b2b1:	6a 65                	pushq  $0x65
   3b2b3:	63 74 53 65          	movslq 0x65(%rbx,%rdx,2),%esi
   3b2b7:	63 75 72             	movslq 0x72(%rbp),%esi
   3b2ba:	69 74 79 00 58 00 45 	imul   $0x78450058,0x0(%rcx,%rdi,2),%esi
   3b2c1:	78 
   3b2c2:	46 72 65             	rex.RX jb 0x3b32a
   3b2c5:	65 50                	gs push %rax
   3b2c7:	6f                   	outsl  %ds:(%rsi),(%dx)
   3b2c8:	6f                   	outsl  %ds:(%rsi),(%dx)
   3b2c9:	6c                   	insb   (%dx),%es:(%rdi)
   3b2ca:	57                   	push   %rdi
   3b2cb:	69 74 68 54 61 67 00 	imul   $0xb1006761,0x54(%rax,%rbp,2),%esi
   3b2d2:	b1 
   3b2d3:	01 49 6f             	add    %ecx,0x6f(%rcx)
   3b2d6:	52                   	push   %rdx
   3b2d7:	65 67 69 73 74 65 72 	imul   $0x68537265,%gs:0x74(%ebx),%esi
   3b2de:	53 68 
   3b2e0:	75 74                	jne    0x3b356
   3b2e2:	64 6f                	outsl  %fs:(%rsi),(%dx)
   3b2e4:	77 6e                	ja     0x3b354
   3b2e6:	4e 6f                	rex.WRX outsl %ds:(%rsi),(%dx)
   3b2e8:	74 69                	je     0x3b353
   3b2ea:	66 69 63 61 74 69    	imul   $0x6974,0x61(%rbx),%sp
   3b2f0:	6f                   	outsl  %ds:(%rsi),(%dx)
   3b2f1:	6e                   	outsb  %ds:(%rsi),(%dx)
   3b2f2:	00 00                	add    %al,(%rax)
   3b2f4:	3e 04 52             	ds add $0x52,%al
   3b2f7:	74 6c                	je     0x3b365
   3b2f9:	49 6e                	rex.WB outsb %ds:(%rsi),(%dx)
   3b2fb:	69 74 55 6e 69 63 6f 	imul   $0x646f6369,0x6e(%rbp,%rdx,2),%esi
   3b302:	64 
   3b303:	65 53                	gs push %rbx
   3b305:	74 72                	je     0x3b379
   3b307:	69 6e 67 00 00 18 02 	imul   $0x2180000,0x67(%rsi),%ebp
   3b30e:	4b                   	rex.WXB
   3b30f:	65 44                	gs rex.R
   3b311:	65 6c                	gs insb (%dx),%es:(%rdi)
   3b313:	61                   	(bad)  
   3b314:	79 45                	jns    0x3b35b
   3b316:	78 65                	js     0x3b37d
   3b318:	63 75 74             	movslq 0x74(%rbp),%esi
   3b31b:	69 6f 6e 54 68 72 65 	imul   $0x65726854,0x6e(%rdi),%ebp
   3b322:	61                   	(bad)  
   3b323:	64 00 00             	add    %al,%fs:(%rax)
   3b326:	e2 05                	loop   0x3b32d
   3b328:	77 63                	ja     0x3b38d
   3b32a:	73 73                	jae    0x3b39f
   3b32c:	74 72                	je     0x3b3a0
   3b32e:	00 00                	add    %al,(%rax)
   3b330:	da 01                	fiaddl (%rcx)
   3b332:	49 6f                	rex.WB outsl %ds:(%rsi),(%dx)
   3b334:	55                   	push   %rbp
   3b335:	6e                   	outsb  %ds:(%rsi),(%dx)
   3b336:	72 65                	jb     0x3b39d
   3b338:	67 69 73 74 65 72 53 	imul   $0x68537265,0x74(%ebx),%esi
   3b33f:	68 
   3b340:	75 74                	jne    0x3b3b6
   3b342:	64 6f                	outsl  %fs:(%rsi),(%dx)
   3b344:	77 6e                	ja     0x3b3b4
   3b346:	4e 6f                	rex.WRX outsl %ds:(%rsi),(%dx)
   3b348:	74 69                	je     0x3b3b3
   3b34a:	66 69 63 61 74 69    	imul   $0x6974,0x61(%rbx),%sp
   3b350:	6f                   	outsl  %ds:(%rsi),(%dx)
   3b351:	6e                   	outsb  %ds:(%rsi),(%dx)
   3b352:	00 00                	add    %al,(%rax)
   3b354:	c4 03 50 73          	(bad)
   3b358:	54                   	push   %rsp
   3b359:	65 72 6d             	gs jb  0x3b3c9
   3b35c:	69 6e 61 74 65 53 79 	imul   $0x79536574,0x61(%rsi),%ebp
   3b363:	73 74                	jae    0x3b3d9
   3b365:	65 6d                	gs insl (%dx),%es:(%rdi)
   3b367:	54                   	push   %rsp
   3b368:	68 72 65 61 64       	pushq  $0x64616572
   3b36d:	00 79 01             	add    %bh,0x1(%rcx)
   3b370:	49 6f                	rex.WB outsl %ds:(%rsi),(%dx)
   3b372:	47                   	rex.RXB
   3b373:	65 74 43             	gs je  0x3b3b9
   3b376:	75 72                	jne    0x3b3ea
   3b378:	72 65                	jb     0x3b3df
   3b37a:	6e                   	outsb  %ds:(%rsi),(%dx)
   3b37b:	74 50                	je     0x3b3cd
   3b37d:	72 6f                	jb     0x3b3ee
   3b37f:	63 65 73             	movslq 0x73(%rbp),%esp
   3b382:	73 00                	jae    0x3b384
   3b384:	f6 01 49             	testb  $0x49,(%rcx)
   3b387:	6f                   	outsl  %ds:(%rsi),(%dx)
   3b388:	66 43 6f             	rex.XB outsw %ds:(%rsi),(%dx)
   3b38b:	6d                   	insl   (%dx),%es:(%rdi)
   3b38c:	70 6c                	jo     0x3b3fa
   3b38e:	65 74 65             	gs je  0x3b3f6
   3b391:	52                   	push   %rdx
   3b392:	65 71 75             	gs jno 0x3b40a
   3b395:	65 73 74             	gs jae 0x3b40c
   3b398:	00 00                	add    %al,(%rax)
   3b39a:	4e 03 4f 62          	rex.WRX add 0x62(%rdi),%r9
   3b39e:	52                   	push   %rdx
   3b39f:	65 6c                	gs insb (%dx),%es:(%rdi)
   3b3a1:	65 61                	gs (bad) 
   3b3a3:	73 65                	jae    0x3b40a
   3b3a5:	4f 62                	rex.WRXB (bad) 
   3b3a7:	6a 65                	pushq  $0x65
   3b3a9:	63 74 53 65          	movslq 0x65(%rbx,%rdx,2),%esi
   3b3ad:	63 75 72             	movslq 0x72(%rbp),%esi
   3b3b0:	69 74 79 00 6e 74 6f 	imul   $0x736f746e,0x0(%rcx,%rdi,2),%esi
   3b3b7:	73 
   3b3b8:	6b 72 6e 6c          	imul   $0x6c,0x6e(%rdx),%esi
   3b3bc:	2e 65 78 65          	cs gs js,pn 0x3b425
   3b3c0:	00 00                	add    %al,(%rax)
   3b3c2:	39 00                	cmp    %eax,(%rax)
   3b3c4:	45 78 41             	rex.RB js 0x3b408
   3b3c7:	63 71 75             	movslq 0x75(%rcx),%esi
   3b3ca:	69 72 65 52 65 73 6f 	imul   $0x6f736552,0x65(%rdx),%esi
   3b3d1:	75 72                	jne    0x3b445
   3b3d3:	63 65 45             	movslq 0x45(%rbp),%esp
   3b3d6:	78 63                	js     0x3b43b
   3b3d8:	6c                   	insb   (%dx),%es:(%rdi)
   3b3d9:	75 73                	jne    0x3b44e
   3b3db:	69 76 65 4c 69 74 65 	imul   $0x6574694c,0x65(%rsi),%esi
   3b3e2:	00 00                	add    %al,(%rax)
   3b3e4:	83 00 45             	addl   $0x45,(%rax)
   3b3e7:	78 52                	js     0x3b43b
   3b3e9:	65 6c                	gs insb (%dx),%es:(%rdi)
   3b3eb:	65 61                	gs (bad) 
   3b3ed:	73 65                	jae    0x3b454
   3b3ef:	52                   	push   %rdx
   3b3f0:	65 73 6f             	gs jae 0x3b462
   3b3f3:	75 72                	jne    0x3b467
   3b3f5:	63 65 4c             	movslq 0x4c(%rbp),%esp
   3b3f8:	69 74 65 00 4c 00 45 	imul   $0x7845004c,0x0(%rbp,%riz,2),%esi
   3b3ff:	78 
   3b400:	44                   	rex.R
   3b401:	65 6c                	gs insb (%dx),%es:(%rdi)
   3b403:	65 74 65             	gs je  0x3b46b
   3b406:	52                   	push   %rdx
   3b407:	65 73 6f             	gs jae 0x3b479
   3b40a:	75 72                	jne    0x3b47e
   3b40c:	63 65 4c             	movslq 0x4c(%rbp),%esp
   3b40f:	69 74 65 00 00 61 00 	imul   $0x45006100,0x0(%rbp,%riz,2),%esi
   3b416:	45 
   3b417:	78 49                	js     0x3b462
   3b419:	6e                   	outsb  %ds:(%rsi),(%dx)
   3b41a:	69 74 69 61 6c 69 7a 	imul   $0x657a696c,0x61(%rcx,%rbp,2),%esi
   3b421:	65 
   3b422:	52                   	push   %rdx
   3b423:	65 73 6f             	gs jae 0x3b495
   3b426:	75 72                	jne    0x3b49a
   3b428:	63 65 4c             	movslq 0x4c(%rbp),%esp
   3b42b:	69 74 65 00 00 a9 03 	imul   $0x5003a900,0x0(%rbp,%riz,2),%esi
   3b432:	50 
   3b433:	73 4c                	jae    0x3b481
   3b435:	6f                   	outsl  %ds:(%rsi),(%dx)
   3b436:	6f                   	outsl  %ds:(%rsi),(%dx)
   3b437:	6b 75 70 50          	imul   $0x50,0x70(%rbp),%esi
   3b43b:	72 6f                	jb     0x3b4ac
   3b43d:	63 65 73             	movslq 0x73(%rbp),%esp
   3b440:	73 42                	jae    0x3b484
   3b442:	79 50                	jns    0x3b494
   3b444:	72 6f                	jb     0x3b4b5
   3b446:	63 65 73             	movslq 0x73(%rbp),%esp
   3b449:	73 49                	jae    0x3b494
   3b44b:	64 00 00             	add    %al,%fs:(%rax)
   3b44e:	ac                   	lods   %ds:(%rsi),%al
   3b44f:	05 5f 77 63 73       	add    $0x7363775f,%eax
   3b454:	6e                   	outsb  %ds:(%rsi),(%dx)
   3b455:	69 63 6d 70 00 79 02 	imul   $0x2790070,0x6d(%rbx),%esp
   3b45c:	4b                   	rex.WXB
   3b45d:	65 53                	gs push %rbx
   3b45f:	65 74 45             	gs je  0x3b4a7
   3b462:	76 65                	jbe    0x3b4c9
   3b464:	6e                   	outsb  %ds:(%rsi),(%dx)
   3b465:	74 00                	je     0x3b467
   3b467:	00 2e                	add    %ch,(%rsi)
   3b469:	02 4b 65             	add    0x65(%rbx),%cl
   3b46c:	49 6e                	rex.WB outsb %ds:(%rsi),(%dx)
   3b46e:	69 74 69 61 6c 69 7a 	imul   $0x657a696c,0x61(%rcx,%rbp,2),%esi
   3b475:	65 
   3b476:	45 76 65             	rex.RB jbe 0x3b4de
   3b479:	6e                   	outsb  %ds:(%rsi),(%dx)
   3b47a:	74 00                	je     0x3b47c
   3b47c:	6f                   	outsl  %ds:(%rsi),(%dx)
   3b47d:	05 5a 77 51 75       	add    $0x7551775a,%eax
   3b482:	65 72 79             	gs jb  0x3b4fe
   3b485:	53                   	push   %rbx
   3b486:	79 73                	jns    0x3b4fb
   3b488:	74 65                	je     0x3b4ef
   3b48a:	6d                   	insl   (%dx),%es:(%rdi)
   3b48b:	49 6e                	rex.WB outsb %ds:(%rsi),(%dx)
   3b48d:	66 6f                	outsw  %ds:(%rsi),(%dx)
   3b48f:	72 6d                	jb     0x3b4fe
   3b491:	61                   	(bad)  
   3b492:	74 69                	je     0x3b4fd
   3b494:	6f                   	outsl  %ds:(%rsi),(%dx)
   3b495:	6e                   	outsb  %ds:(%rsi),(%dx)
   3b496:	00 00                	add    %al,(%rax)
   3b498:	8f 02                	popq   (%rdx)
   3b49a:	4b                   	rex.WXB
   3b49b:	65 55                	gs push %rbp
   3b49d:	6e                   	outsb  %ds:(%rsi),(%dx)
   3b49e:	73 74                	jae    0x3b514
   3b4a0:	61                   	(bad)  
   3b4a1:	63 6b 44             	movslq 0x44(%rbx),%ebp
   3b4a4:	65 74 61             	gs je  0x3b508
   3b4a7:	63 68 50             	movslq 0x50(%rax),%ebp
   3b4aa:	72 6f                	jb     0x3b51b
   3b4ac:	63 65 73             	movslq 0x73(%rbp),%esp
   3b4af:	73 00                	jae    0x3b4b1
   3b4b1:	00 1c 02             	add    %bl,(%rdx,%rax,1)
   3b4b4:	4b                   	rex.WXB
   3b4b5:	65 44                	gs rex.R
   3b4b7:	65 74 61             	gs je  0x3b51b
   3b4ba:	63 68 50             	movslq 0x50(%rax),%ebp
   3b4bd:	72 6f                	jb     0x3b52e
   3b4bf:	63 65 73             	movslq 0x73(%rbp),%esp
   3b4c2:	73 00                	jae    0x3b4c4
   3b4c4:	67 01 49 6f          	add    %ecx,0x6f(%ecx)
   3b4c8:	44 72 69             	rex.R jb 0x3b534
   3b4cb:	76 65                	jbe    0x3b532
   3b4cd:	72 4f                	jb     0x3b51e
   3b4cf:	62                   	(bad)  
   3b4d0:	6a 65                	pushq  $0x65
   3b4d2:	63 74 54 79          	movslq 0x79(%rsp,%rdx,2),%esi
   3b4d6:	70 65                	jo     0x3b53d
   3b4d8:	00 00                	add    %al,(%rax)
   3b4da:	e0 05                	loopne 0x3b4e1
   3b4dc:	77 63                	ja     0x3b541
   3b4de:	73 72                	jae    0x3b552
   3b4e0:	63 68 72             	movslq 0x72(%rax),%ebp
   3b4e3:	00 6e 03             	add    %ch,0x3(%rsi)
   3b4e6:	50                   	push   %rax
   3b4e7:	73 43                	jae    0x3b52c
   3b4e9:	72 65                	jb     0x3b550
   3b4eb:	61                   	(bad)  
   3b4ec:	74 65                	je     0x3b553
   3b4ee:	53                   	push   %rbx
   3b4ef:	79 73                	jns    0x3b564
   3b4f1:	74 65                	je     0x3b558
   3b4f3:	6d                   	insl   (%dx),%es:(%rdi)
   3b4f4:	54                   	push   %rsp
   3b4f5:	68 72 65 61 64       	pushq  $0x64616572
   3b4fa:	00 00                	add    %al,(%rax)
   3b4fc:	43 00 45 78          	rex.XB add %al,0x78(%r13)
   3b500:	41 6c                	rex.B insb (%dx),%es:(%rdi)
   3b502:	6c                   	insb   (%dx),%es:(%rdi)
   3b503:	6f                   	outsl  %ds:(%rsi),(%dx)
   3b504:	63 61 74             	movslq 0x74(%rcx),%esp
   3b507:	65 50                	gs push %rax
   3b509:	6f                   	outsl  %ds:(%rsi),(%dx)
   3b50a:	6f                   	outsl  %ds:(%rsi),(%dx)
   3b50b:	6c                   	insb   (%dx),%es:(%rdi)
   3b50c:	00 00                	add    %al,(%rax)
   3b50e:	25 05 5a 77 43       	and    $0x43775a05,%eax
   3b513:	6c                   	insb   (%dx),%es:(%rdi)
   3b514:	6f                   	outsl  %ds:(%rsi),(%dx)
   3b515:	73 65                	jae    0x3b57c
   3b517:	00 4a 03             	add    %cl,0x3(%rdx)
   3b51a:	4f 62 52 65 66 65    	(bad)
   3b520:	72 65                	jb     0x3b587
   3b522:	6e                   	outsb  %ds:(%rsi),(%dx)
   3b523:	63 65 4f             	movslq 0x4f(%rbp),%esp
   3b526:	62                   	(bad)  
   3b527:	6a 65                	pushq  $0x65
   3b529:	63 74 42 79          	movslq 0x79(%rdx,%rax,2),%esi
   3b52d:	48 61                	rex.W (bad) 
   3b52f:	6e                   	outsb  %ds:(%rsi),(%dx)
   3b530:	64 6c                	fs insb (%dx),%es:(%rdi)
   3b532:	65 00 95 02 4b 65 57 	add    %dl,%gs:0x57654b02(%rbp)
   3b539:	61                   	(bad)  
   3b53a:	69 74 46 6f 72 53 69 	imul   $0x6e695372,0x6f(%rsi,%rax,2),%esi
   3b541:	6e 
   3b542:	67 6c                	insb   (%dx),%es:(%edi)
   3b544:	65 4f 62             	gs rex.WRXB (bad) 
   3b547:	6a 65                	pushq  $0x65
   3b549:	63 74 00 a2          	movslq -0x5e(%rax,%rax,1),%esi
   3b54d:	03 50 73             	add    0x73(%rax),%edx
   3b550:	49 6e                	rex.WB outsb %ds:(%rsi),(%dx)
   3b552:	69 74 69 61 6c 53 79 	imul   $0x7379536c,0x61(%rcx,%rbp,2),%esi
   3b559:	73 
   3b55a:	74 65                	je     0x3b5c1
   3b55c:	6d                   	insl   (%dx),%es:(%rdi)
   3b55d:	50                   	push   %rax
   3b55e:	72 6f                	jb     0x3b5cf
   3b560:	63 65 73             	movslq 0x73(%rbp),%esp
   3b563:	73 00                	jae    0x3b565
   3b565:	00 11                	add    %dl,(%rcx)
   3b567:	02 4b 65             	add    0x65(%rbx),%cl
   3b56a:	41 74 74             	rex.B je 0x3b5e1
   3b56d:	61                   	(bad)  
   3b56e:	63 68 50             	movslq 0x50(%rax),%ebp
   3b571:	72 6f                	jb     0x3b5e2
   3b573:	63 65 73             	movslq 0x73(%rbp),%esp
   3b576:	73 00                	jae    0x3b578
   3b578:	a0 03 50 73 47 65 74 	movabs 0x6556746547735003,%al
   3b57f:	56 65 
   3b581:	72 73                	jb     0x3b5f6
   3b583:	69 6f 6e 00 00 e4 03 	imul   $0x3e40000,0x6e(%rdi),%ebp
   3b58a:	52                   	push   %rdx
   3b58b:	74 6c                	je     0x3b5f9
   3b58d:	43 6f                	rex.XB outsl %ds:(%rsi),(%dx)
   3b58f:	6d                   	insl   (%dx),%es:(%rdi)
   3b590:	70 61                	jo     0x3b5f3
   3b592:	72 65                	jb     0x3b5f9
   3b594:	55                   	push   %rbp
   3b595:	6e                   	outsb  %ds:(%rsi),(%dx)
   3b596:	69 63 6f 64 65 53 74 	imul   $0x74536564,0x6f(%rbx),%esp
   3b59d:	72 69                	jb     0x3b608
   3b59f:	6e                   	outsb  %ds:(%rsi),(%dx)
   3b5a0:	67 00 66 05          	add    %ah,0x5(%esi)
   3b5a4:	5a                   	pop    %rdx
   3b5a5:	77 51                	ja     0x3b5f8
   3b5a7:	75 65                	jne    0x3b60e
   3b5a9:	72 79                	jb     0x3b624
   3b5ab:	49 6e                	rex.WB outsb %ds:(%rsi),(%dx)
   3b5ad:	66 6f                	outsw  %ds:(%rsi),(%dx)
   3b5af:	72 6d                	jb     0x3b61e
   3b5b1:	61                   	(bad)  
   3b5b2:	74 69                	je     0x3b61d
   3b5b4:	6f                   	outsl  %ds:(%rsi),(%dx)
   3b5b5:	6e                   	outsb  %ds:(%rsi),(%dx)
   3b5b6:	50                   	push   %rax
   3b5b7:	72 6f                	jb     0x3b628
   3b5b9:	63 65 73             	movslq 0x73(%rbp),%esp
   3b5bc:	73 00                	jae    0x3b5be
   3b5be:	53                   	push   %rbx
   3b5bf:	03 4f 62             	add    0x62(%rdi),%ecx
   3b5c2:	66 52                	push   %dx
   3b5c4:	65 66 65 72 65       	gs data16 gs jb 0x3b62e
   3b5c9:	6e                   	outsb  %ds:(%rsi),(%dx)
   3b5ca:	63 65 4f             	movslq 0x4f(%rbp),%esp
   3b5cd:	62                   	(bad)  
   3b5ce:	6a 65                	pushq  $0x65
   3b5d0:	63 74 00 00          	movslq 0x0(%rax,%rax,1),%esi
   3b5d4:	75 03                	jne    0x3b5d9
   3b5d6:	50                   	push   %rax
   3b5d7:	73 47                	jae    0x3b620
   3b5d9:	65 74 43             	gs je  0x3b61f
   3b5dc:	75 72                	jne    0x3b650
   3b5de:	72 65                	jb     0x3b645
   3b5e0:	6e                   	outsb  %ds:(%rsi),(%dx)
   3b5e1:	74 50                	je     0x3b633
   3b5e3:	72 6f                	jb     0x3b654
   3b5e5:	63 65 73             	movslq 0x73(%rbp),%esp
   3b5e8:	73 49                	jae    0x3b633
   3b5ea:	64 00 c6             	fs add %al,%dh
   3b5ed:	02 4d 6d             	add    0x6d(%rbp),%cl
   3b5f0:	49 73 41             	rex.WB jae 0x3b634
   3b5f3:	64 64 72 65          	fs fs jb 0x3b65c
   3b5f7:	73 73                	jae    0x3b66c
   3b5f9:	56                   	push   %rsi
   3b5fa:	61                   	(bad)  
   3b5fb:	6c                   	insb   (%dx),%es:(%rdi)
   3b5fc:	69 64 00 00 52 03 4f 	imul   $0x624f0352,0x0(%rax,%rax,1),%esp
   3b603:	62 
   3b604:	66 44                	data16 rex.R
   3b606:	65 72 65             	gs jb  0x3b66e
   3b609:	66 65 72 65          	data16 gs jb 0x3b672
   3b60d:	6e                   	outsb  %ds:(%rsi),(%dx)
   3b60e:	63 65 4f             	movslq 0x4f(%rbp),%esp
   3b611:	62                   	(bad)  
   3b612:	6a 65                	pushq  $0x65
   3b614:	63 74 00 00          	movslq 0x0(%rax,%rax,1),%esi
   3b618:	4b 03 4f 62          	rex.WXB add 0x62(%r15),%rcx
   3b61c:	52                   	push   %rdx
   3b61d:	65 66 65 72 65       	gs data16 gs jb 0x3b687
   3b622:	6e                   	outsb  %ds:(%rsi),(%dx)
   3b623:	63 65 4f             	movslq 0x4f(%rbp),%esp
   3b626:	62                   	(bad)  
   3b627:	6a 65                	pushq  $0x65
   3b629:	63 74 42 79          	movslq 0x79(%rdx,%rax,2),%esi
   3b62d:	4e 61                	rex.WRX (bad) 
   3b62f:	6d                   	insl   (%dx),%es:(%rdi)
   3b630:	65 00 47 03          	add    %al,%gs:0x3(%rdi)
   3b634:	4f 62                	rex.WRXB (bad) 
   3b636:	4f 70 65             	rex.WRXB jo 0x3b69e
   3b639:	6e                   	outsb  %ds:(%rsi),(%dx)
   3b63a:	4f 62                	rex.WRXB (bad) 
   3b63c:	6a 65                	pushq  $0x65
   3b63e:	63 74 42 79          	movslq 0x79(%rdx,%rax,2),%esi
   3b642:	50                   	push   %rax
   3b643:	6f                   	outsl  %ds:(%rsi),(%dx)
   3b644:	69 6e 74 65 72 00 8b 	imul   $0x8b007265,0x74(%rsi),%ebp
   3b64b:	03 50 73             	add    0x73(%rax),%edx
   3b64e:	47                   	rex.RXB
   3b64f:	65 74 50             	gs je  0x3b6a2
   3b652:	72 6f                	jb     0x3b6c3
   3b654:	63 65 73             	movslq 0x73(%rbp),%esp
   3b657:	73 49                	jae    0x3b6a2
   3b659:	64 00 00             	add    %al,%fs:(%rax)
   3b65c:	87 02                	xchg   %eax,(%rdx)
   3b65e:	4b                   	rex.WXB
   3b65f:	65 53                	gs push %rbx
   3b661:	74 61                	je     0x3b6c4
   3b663:	63 6b 41             	movslq 0x41(%rbx),%ebp
   3b666:	74 74                	je     0x3b6dc
   3b668:	61                   	(bad)  
   3b669:	63 68 50             	movslq 0x50(%rax),%ebp
   3b66c:	72 6f                	jb     0x3b6dd
   3b66e:	63 65 73             	movslq 0x73(%rbp),%esp
   3b671:	73 00                	jae    0x3b673
   3b673:	00 20                	add    %ah,(%rax)
   3b675:	05 5a 77 41 6c       	add    $0x6c41775a,%eax
   3b67a:	6c                   	insb   (%dx),%es:(%rdi)
   3b67b:	6f                   	outsl  %ds:(%rsi),(%dx)
   3b67c:	63 61 74             	movslq 0x74(%rcx),%esp
   3b67f:	65 56                	gs push %rsi
   3b681:	69 72 74 75 61 6c 4d 	imul   $0x4d6c6175,0x74(%rdx),%esi
   3b688:	65 6d                	gs insl (%dx),%es:(%rdi)
   3b68a:	6f                   	outsl  %ds:(%rsi),(%dx)
   3b68b:	72 79                	jb     0x3b706
   3b68d:	00 46 00             	add    %al,0x0(%rsi)
   3b690:	45 78 41             	rex.RB js 0x3b6d4
   3b693:	6c                   	insb   (%dx),%es:(%rdi)
   3b694:	6c                   	insb   (%dx),%es:(%rdi)
   3b695:	6f                   	outsl  %ds:(%rsi),(%dx)
   3b696:	63 61 74             	movslq 0x74(%rcx),%esp
   3b699:	65 50                	gs push %rax
   3b69b:	6f                   	outsl  %ds:(%rsi),(%dx)
   3b69c:	6f                   	outsl  %ds:(%rsi),(%dx)
   3b69d:	6c                   	insb   (%dx),%es:(%rdi)
   3b69e:	57                   	push   %rdi
   3b69f:	69 74 68 54 61 67 00 	imul   $0x46006761,0x54(%rax,%rbp,2),%esi
   3b6a6:	46 
   3b6a7:	03 4f 62             	add    0x62(%rdi),%ecx
   3b6aa:	4f 70 65             	rex.WRXB jo 0x3b712
   3b6ad:	6e                   	outsb  %ds:(%rsi),(%dx)
   3b6ae:	4f 62                	rex.WRXB (bad) 
   3b6b0:	6a 65                	pushq  $0x65
   3b6b2:	63 74 42 79          	movslq 0x79(%rdx,%rax,2),%esi
   3b6b6:	4e 61                	rex.WRX (bad) 
   3b6b8:	6d                   	insl   (%dx),%es:(%rdi)
   3b6b9:	65 00 00             	add    %al,%gs:(%rax)
   3b6bc:	45 03 4f 62          	add    0x62(%r15),%r9d
   3b6c0:	4d 61                	rex.WRB (bad) 
   3b6c2:	6b 65 54 65          	imul   $0x65,0x54(%rbp),%esp
   3b6c6:	6d                   	insl   (%dx),%es:(%rdi)
   3b6c7:	70 6f                	jo     0x3b738
   3b6c9:	72 61                	jb     0x3b72c
   3b6cb:	72 79                	jb     0x3b746
   3b6cd:	4f 62                	rex.WRXB (bad) 
   3b6cf:	6a 65                	pushq  $0x65
   3b6d1:	63 74 00 3c          	movslq 0x3c(%rax,%rax,1),%esi
   3b6d5:	03 4f 62             	add    0x62(%rdi),%ecx
   3b6d8:	43 72 65             	rex.XB jb 0x3b740
   3b6db:	61                   	(bad)  
   3b6dc:	74 65                	je     0x3b743
   3b6de:	4f 62                	rex.WRXB (bad) 
   3b6e0:	6a 65                	pushq  $0x65
   3b6e2:	63 74 00 00          	movslq 0x0(%rax,%rax,1),%esi
   3b6e6:	43 03 4f 62          	rex.XB add 0x62(%r15),%ecx
   3b6ea:	49 6e                	rex.WB outsb %ds:(%rsi),(%dx)
   3b6ec:	73 65                	jae    0x3b753
   3b6ee:	72 74                	jb     0x3b764
   3b6f0:	4f 62                	rex.WRXB (bad) 
   3b6f2:	6a 65                	pushq  $0x65
   3b6f4:	63 74 00 00          	movslq 0x0(%rax,%rax,1),%esi
   3b6f8:	43 02 4b 65          	rex.XB add 0x65(%r11),%cl
   3b6fc:	4c                   	rex.WR
   3b6fd:	65 61                	gs (bad) 
   3b6ff:	76 65                	jbe    0x3b766
   3b701:	43 72 69             	rex.XB jb 0x3b76d
   3b704:	74 69                	je     0x3b76f
   3b706:	63 61 6c             	movslq 0x6c(%rcx),%esp
   3b709:	52                   	push   %rdx
   3b70a:	65 67 69 6f 6e 00 1e 	imul   $0x4b021e00,%gs:0x6e(%edi),%ebp
   3b711:	02 4b 
   3b713:	65 45 6e             	rex.RB outsb %gs:(%rsi),(%dx)
   3b716:	74 65                	je     0x3b77d
   3b718:	72 43                	jb     0x3b75d
   3b71a:	72 69                	jb     0x3b785
   3b71c:	74 69                	je     0x3b787
   3b71e:	63 61 6c             	movslq 0x6c(%rcx),%esp
   3b721:	52                   	push   %rdx
   3b722:	65 67 69 6f 6e 00 7a 	imul   $0x50037a00,%gs:0x6e(%edi),%ebp
   3b729:	03 50 
   3b72b:	73 47                	jae    0x3b774
   3b72d:	65 74 43             	gs je  0x3b773
   3b730:	75 72                	jne    0x3b7a4
   3b732:	72 65                	jb     0x3b799
   3b734:	6e                   	outsb  %ds:(%rsi),(%dx)
   3b735:	74 54                	je     0x3b78b
   3b737:	68 72 65 61 64       	pushq  $0x64616572
   3b73c:	49                   	rex.WB
   3b73d:	64 00 00             	add    %al,%fs:(%rax)
   3b740:	2c 05                	sub    $0x5,%al
   3b742:	5a                   	pop    %rdx
   3b743:	77 43                	ja     0x3b788
   3b745:	72 65                	jb     0x3b7ac
   3b747:	61                   	(bad)  
   3b748:	74 65                	je     0x3b7af
   3b74a:	4b                   	rex.WXB
   3b74b:	65 79 00             	gs jns 0x3b74e
   3b74e:	70 05                	jo     0x3b755
   3b750:	5a                   	pop    %rdx
   3b751:	77 51                	ja     0x3b7a4
   3b753:	75 65                	jne    0x3b7ba
   3b755:	72 79                	jb     0x3b7d0
   3b757:	56                   	push   %rsi
   3b758:	61                   	(bad)  
   3b759:	6c                   	insb   (%dx),%es:(%rdi)
   3b75a:	75 65                	jne    0x3b7c1
   3b75c:	4b                   	rex.WXB
   3b75d:	65 79 00             	gs jns 0x3b760
   3b760:	96                   	xchg   %eax,%esi
   3b761:	05 5f 5f 43 5f       	add    $0x5f435f5f,%eax
   3b766:	73 70                	jae    0x3b7d8
   3b768:	65 63 69 66          	movslq %gs:0x66(%rcx),%ebp
   3b76c:	69 63 5f 68 61 6e 64 	imul   $0x646e6168,0x5f(%rbx),%esp
   3b773:	6c                   	insb   (%dx),%es:(%rdi)
   3b774:	65 72 00             	gs jb  0x3b777
   3b777:	00 c2                	add    %al,%dl
   3b779:	02 4d 6d             	add    0x6d(%rbp),%cl
   3b77c:	47                   	rex.RXB
   3b77d:	65 74 53             	gs je  0x3b7d3
   3b780:	79 73                	jns    0x3b7f5
   3b782:	74 65                	je     0x3b7e9
   3b784:	6d                   	insl   (%dx),%es:(%rdi)
   3b785:	52                   	push   %rdx
   3b786:	6f                   	outsl  %ds:(%rsi),(%dx)
   3b787:	75 74                	jne    0x3b7fd
   3b789:	69 6e 65 41 64 64 72 	imul   $0x72646441,0x65(%rsi),%ebp
   3b790:	65 73 73             	gs jae 0x3b806
   3b793:	00 4a 02             	add    %cl,0x2(%rdx)
   3b796:	4b                   	rex.WXB
   3b797:	65 51                	gs push %rcx
   3b799:	75 65                	jne    0x3b800
   3b79b:	72 79                	jb     0x3b816
   3b79d:	41 63 74 69 76       	movslq 0x76(%r9,%rbp,2),%esi
   3b7a2:	65 50                	gs push %rax
   3b7a4:	72 6f                	jb     0x3b815
   3b7a6:	63 65 73             	movslq 0x73(%rbp),%esp
   3b7a9:	73 6f                	jae    0x3b81a
   3b7ab:	72 73                	jb     0x3b820
   3b7ad:	00 67 02             	add    %ah,0x2(%rdi)
   3b7b0:	4b                   	rex.WXB
   3b7b1:	65 52                	gs push %rdx
   3b7b3:	65 6c                	gs insb (%dx),%es:(%rdi)
   3b7b5:	65 61                	gs (bad) 
   3b7b7:	73 65                	jae    0x3b81e
   3b7b9:	53                   	push   %rbx
   3b7ba:	70 69                	jo     0x3b825
   3b7bc:	6e                   	outsb  %ds:(%rsi),(%dx)
   3b7bd:	4c 6f                	rex.WR outsl %ds:(%rsi),(%dx)
   3b7bf:	63 6b 46             	movslq 0x46(%rbx),%ebp
   3b7c2:	72 6f                	jb     0x3b833
   3b7c4:	6d                   	insl   (%dx),%es:(%rdi)
   3b7c5:	44 70 63             	rex.R jo 0x3b82b
   3b7c8:	4c                   	rex.WR
   3b7c9:	65 76 65             	gs jbe 0x3b831
   3b7cc:	6c                   	insb   (%dx),%es:(%rdi)
   3b7cd:	00 0a                	add    %cl,(%rdx)
   3b7cf:	02 4b 65             	add    0x65(%rbx),%cl
   3b7d2:	41 63 71 75          	movslq 0x75(%r9),%esi
   3b7d6:	69 72 65 53 70 69 6e 	imul   $0x6e697053,0x65(%rdx),%esi
   3b7dd:	4c 6f                	rex.WR outsl %ds:(%rsi),(%dx)
   3b7df:	63 6b 41             	movslq 0x41(%rbx),%ebp
   3b7e2:	74 44                	je     0x3b828
   3b7e4:	70 63                	jo     0x3b849
   3b7e6:	4c                   	rex.WR
   3b7e7:	65 76 65             	gs jbe 0x3b84f
   3b7ea:	6c                   	insb   (%dx),%es:(%rdi)
   3b7eb:	00 3d 04 52 74 6c    	add    %bh,0x6c745204(%rip)        # 0x6c7809f5
   3b7f1:	49 6e                	rex.WB outsb %ds:(%rsi),(%dx)
   3b7f3:	69 74 53 74 72 69 6e 	imul   $0x676e6972,0x74(%rbx,%rdx,2),%esi
   3b7fa:	67 
   3b7fb:	00 e3                	add    %ah,%bl
   3b7fd:	03 52 74             	add    0x74(%rdx),%edx
   3b800:	6c                   	insb   (%dx),%es:(%rdi)
   3b801:	43 6f                	rex.XB outsl %ds:(%rsi),(%dx)
   3b803:	6d                   	insl   (%dx),%es:(%rdi)
   3b804:	70 61                	jo     0x3b867
   3b806:	72 65                	jb     0x3b86d
   3b808:	53                   	push   %rbx
   3b809:	74 72                	je     0x3b87d
   3b80b:	69 6e 67 00 00 e1 03 	imul   $0x3e10000,0x67(%rsi),%ebp
   3b812:	52                   	push   %rdx
   3b813:	74 6c                	je     0x3b881
   3b815:	43 6f                	rex.XB outsl %ds:(%rsi),(%dx)
   3b817:	6d                   	insl   (%dx),%es:(%rdi)
   3b818:	70 61                	jo     0x3b87b
   3b81a:	72 65                	jb     0x3b881
   3b81c:	4d                   	rex.WRB
   3b81d:	65 6d                	gs insl (%dx),%es:(%rdi)
   3b81f:	6f                   	outsl  %ds:(%rsi),(%dx)
   3b820:	72 79                	jb     0x3b89b
   3b822:	00 00                	add    %al,(%rax)
   3b824:	66 03 50 72          	add    0x72(%rax),%dx
   3b828:	6f                   	outsl  %ds:(%rsi),(%dx)
   3b829:	62                   	(bad)  
   3b82a:	65 46 6f             	rex.RX outsl %gs:(%rsi),(%dx)
   3b82d:	72 52                	jb     0x3b881
   3b82f:	65 61                	gs (bad) 
   3b831:	64 00 00             	add    %al,%fs:(%rax)
   3b834:	7e 00                	jle    0x3b836
   3b836:	45 78 52             	rex.RB js 0x3b88b
   3b839:	65 6c                	gs insb (%dx),%es:(%rdi)
   3b83b:	65 61                	gs (bad) 
   3b83d:	73 65                	jae    0x3b8a4
   3b83f:	46 61                	rex.RX (bad) 
   3b841:	73 74                	jae    0x3b8b7
   3b843:	4d 75 74             	rex.WRB jne 0x3b8ba
   3b846:	65 78 00             	gs js  0x3b849
   3b849:	00 37                	add    %dh,(%rdi)
   3b84b:	00 45 78             	add    %al,0x78(%rbp)
   3b84e:	41 63 71 75          	movslq 0x75(%r9),%esi
   3b852:	69 72 65 46 61 73 74 	imul   $0x74736146,0x65(%rdx),%esi
   3b859:	4d 75 74             	rex.WRB jne 0x3b8d0
   3b85c:	65 78 00             	gs js  0x3b85f
   3b85f:	00 02                	add    %al,(%rdx)
   3b861:	03 4e 74             	add    0x74(%rsi),%ecx
   3b864:	42 75 69             	rex.X jne 0x3b8d0
   3b867:	6c                   	insb   (%dx),%es:(%rdi)
   3b868:	64 4e 75 6d          	fs rex.WRX jne 0x3b8d9
   3b86c:	62                   	(bad)  
   3b86d:	65 72 00             	gs jb  0x3b870
   3b870:	2d 02 4b 65 49       	sub    $0x49654b02,%eax
   3b875:	6e                   	outsb  %ds:(%rsi),(%dx)
   3b876:	69 74 69 61 6c 69 7a 	imul   $0x657a696c,0x61(%rcx,%rbp,2),%esi
   3b87d:	65 
   3b87e:	44 70 63             	rex.R jo 0x3b8e4
   3b881:	00 81 02 4b 65 53    	add    %al,0x53654b02(%rcx)
   3b887:	65 74 54             	gs je  0x3b8de
   3b88a:	61                   	(bad)  
   3b88b:	72 67                	jb     0x3b8f4
   3b88d:	65 74 50             	gs je  0x3b8e0
   3b890:	72 6f                	jb     0x3b901
   3b892:	63 65 73             	movslq 0x73(%rbp),%esp
   3b895:	73 6f                	jae    0x3b906
   3b897:	72 44                	jb     0x3b8dd
   3b899:	70 63                	jo     0x3b8fe
   3b89b:	00 3d 02 4b 65 49    	add    %bh,0x49654b02(%rip)        # 0x496903a3
   3b8a1:	6e                   	outsb  %ds:(%rsi),(%dx)
   3b8a2:	73 65                	jae    0x3b909
   3b8a4:	72 74                	jb     0x3b91a
   3b8a6:	51                   	push   %rcx
   3b8a7:	75 65                	jne    0x3b90e
   3b8a9:	75 65                	jne    0x3b910
   3b8ab:	44 70 63             	rex.R jo 0x3b911
   3b8ae:	00 00                	add    %al,(%rax)
   3b8b0:	4d 05 5a 77 4f 70    	rex.WRB add $0x704f775a,%rax
   3b8b6:	65 6e                	outsb  %gs:(%rsi),(%dx)
   3b8b8:	46 69 6c 65 00 00 c2 	imul   $0x7305c200,0x0(%rbp,%r12,2),%r13d
   3b8bf:	05 73 
   3b8c1:	70 72                	jo     0x3b935
   3b8c3:	69 6e 74 66 00 dc 05 	imul   $0x5dc0066,0x74(%rsi),%ebp
   3b8ca:	77 63                	ja     0x3b92f
   3b8cc:	73 6c                	jae    0x3b93a
   3b8ce:	65 6e                	outsb  %gs:(%rsi),(%dx)
   3b8d0:	00 00                	add    %al,(%rax)
   3b8d2:	f7 03 52 74 6c 44    	testl  $0x446c7452,(%rbx)
   3b8d8:	65 63 6f 6d          	movslq %gs:0x6d(%rdi),%ebp
   3b8dc:	70 72                	jo     0x3b950
   3b8de:	65 73 73             	gs jae 0x3b954
   3b8e1:	42 75 66             	rex.X jne 0x3b94a
   3b8e4:	66 65 72 00          	data16 gs jb 0x3b8e8
   3b8e8:	d3 05 74 6f 77 75    	roll   %cl,0x75776f74(%rip)        # 0x757b2862
   3b8ee:	70 70                	jo     0x3b960
   3b8f0:	65 72 00             	gs jb  0x3b8f3
   3b8f3:	00 da                	add    %bl,%dl
   3b8f5:	05 77 63 73 63       	add    $0x63736377,%eax
   3b8fa:	70 79                	jo     0x3b975
   3b8fc:	00 00                	add    %al,(%rax)
   3b8fe:	60                   	(bad)  
   3b8ff:	05 5a 77 51 75       	add    $0x7551775a,%eax
   3b904:	65 72 79             	gs jb  0x3b980
   3b907:	44 69 72 65 63 74 6f 	imul   $0x726f7463,0x65(%rdx),%r14d
   3b90e:	72 
   3b90f:	79 4f                	jns    0x3b960
   3b911:	62                   	(bad)  
   3b912:	6a 65                	pushq  $0x65
   3b914:	63 74 00 00          	movslq 0x0(%rax,%rax,1),%esi
   3b918:	4b 05 5a 77 4f 70    	rex.WXB add $0x704f775a,%rax
   3b91e:	65 6e                	outsb  %gs:(%rsi),(%dx)
   3b920:	44 69 72 65 63 74 6f 	imul   $0x726f7463,0x65(%rdx),%r14d
   3b927:	72 
   3b928:	79 4f                	jns    0x3b979
   3b92a:	62                   	(bad)  
   3b92b:	6a 65                	pushq  $0x65
   3b92d:	63 74 00 29          	movslq 0x29(%rax,%rax,1),%esi
   3b931:	05 5a 77 43 72       	add    $0x7243775a,%eax
   3b936:	65 61                	gs (bad) 
   3b938:	74 65                	je     0x3b99f
   3b93a:	45 76 65             	rex.RB jbe 0x3b9a2
   3b93d:	6e                   	outsb  %ds:(%rsi),(%dx)
   3b93e:	74 00                	je     0x3b940
   3b940:	4c 01 49 6f          	add    %r9,0x6f(%rcx)
   3b944:	43 72 65             	rex.XB jb 0x3b9ac
   3b947:	61                   	(bad)  
   3b948:	74 65                	je     0x3b9af
   3b94a:	44                   	rex.R
   3b94b:	65 76 69             	gs jbe 0x3b9b7
   3b94e:	63 65 00             	movslq 0x0(%rbp),%esp
   3b951:	00 9b 05 5f 6c 6f    	add    %bl,0x6f6c5f05(%rbx)
   3b957:	63 61 6c             	movslq 0x6c(%rcx),%esp
   3b95a:	5f                   	pop    %rdi
   3b95b:	75 6e                	jne    0x3b9cb
   3b95d:	77 69                	ja     0x3b9c8
   3b95f:	6e                   	outsb  %ds:(%rsi),(%dx)
   3b960:	64                   	fs
	...
